
Drivers.axf:     file format elf32-littlearm


Disassembly of section .isr_vector:

08000000 <g_pfnVectors>:
 8000000:	20002800 	andcs	r2, r0, r0, lsl #16
 8000004:	08000269 	stmdaeq	r0, {r0, r3, r5, r6, r9}
 8000008:	080002b9 	stmdaeq	r0, {r0, r3, r4, r5, r7, r9}
 800000c:	080001b1 	stmdaeq	r0, {r0, r4, r5, r7, r8}
 8000010:	080002b9 	stmdaeq	r0, {r0, r3, r4, r5, r7, r9}
 8000014:	080002b9 	stmdaeq	r0, {r0, r3, r4, r5, r7, r9}
 8000018:	080002b9 	stmdaeq	r0, {r0, r3, r4, r5, r7, r9}
	...
 800002c:	080002b9 	stmdaeq	r0, {r0, r3, r4, r5, r7, r9}
 8000030:	080002b9 	stmdaeq	r0, {r0, r3, r4, r5, r7, r9}
 8000034:	00000000 	andeq	r0, r0, r0
 8000038:	080002b9 	stmdaeq	r0, {r0, r3, r4, r5, r7, r9}
 800003c:	080002b9 	stmdaeq	r0, {r0, r3, r4, r5, r7, r9}
 8000040:	080002b9 	stmdaeq	r0, {r0, r3, r4, r5, r7, r9}
 8000044:	080002b9 	stmdaeq	r0, {r0, r3, r4, r5, r7, r9}
 8000048:	080002b9 	stmdaeq	r0, {r0, r3, r4, r5, r7, r9}
 800004c:	080002b9 	stmdaeq	r0, {r0, r3, r4, r5, r7, r9}
 8000050:	080002b9 	stmdaeq	r0, {r0, r3, r4, r5, r7, r9}
 8000054:	080002b9 	stmdaeq	r0, {r0, r3, r4, r5, r7, r9}
 8000058:	08000635 	stmdaeq	r0, {r0, r2, r4, r5, r9, sl}
 800005c:	08000659 	stmdaeq	r0, {r0, r3, r4, r6, r9, sl}
 8000060:	0800067d 	stmdaeq	r0, {r0, r2, r3, r4, r5, r6, r9, sl}
 8000064:	080006a1 	stmdaeq	r0, {r0, r5, r7, r9, sl}
 8000068:	080006c5 	stmdaeq	r0, {r0, r2, r6, r7, r9, sl}
 800006c:	080002b9 	stmdaeq	r0, {r0, r3, r4, r5, r7, r9}
 8000070:	080002b9 	stmdaeq	r0, {r0, r3, r4, r5, r7, r9}
 8000074:	080002b9 	stmdaeq	r0, {r0, r3, r4, r5, r7, r9}
 8000078:	080002b9 	stmdaeq	r0, {r0, r3, r4, r5, r7, r9}
 800007c:	080002b9 	stmdaeq	r0, {r0, r3, r4, r5, r7, r9}
 8000080:	080002b9 	stmdaeq	r0, {r0, r3, r4, r5, r7, r9}
 8000084:	080002b9 	stmdaeq	r0, {r0, r3, r4, r5, r7, r9}
 8000088:	080002b9 	stmdaeq	r0, {r0, r3, r4, r5, r7, r9}
 800008c:	080002b9 	stmdaeq	r0, {r0, r3, r4, r5, r7, r9}
 8000090:	080002b9 	stmdaeq	r0, {r0, r3, r4, r5, r7, r9}
 8000094:	080002b9 	stmdaeq	r0, {r0, r3, r4, r5, r7, r9}
 8000098:	080002b9 	stmdaeq	r0, {r0, r3, r4, r5, r7, r9}
 800009c:	080006e9 	stmdaeq	r0, {r0, r3, r5, r6, r7, r9, sl}
 80000a0:	080002b9 	stmdaeq	r0, {r0, r3, r4, r5, r7, r9}
 80000a4:	080002b9 	stmdaeq	r0, {r0, r3, r4, r5, r7, r9}
 80000a8:	080002b9 	stmdaeq	r0, {r0, r3, r4, r5, r7, r9}
 80000ac:	080002b9 	stmdaeq	r0, {r0, r3, r4, r5, r7, r9}
 80000b0:	080002b9 	stmdaeq	r0, {r0, r3, r4, r5, r7, r9}
 80000b4:	080002b9 	stmdaeq	r0, {r0, r3, r4, r5, r7, r9}
 80000b8:	080002b9 	stmdaeq	r0, {r0, r3, r4, r5, r7, r9}
 80000bc:	080002b9 	stmdaeq	r0, {r0, r3, r4, r5, r7, r9}
 80000c0:	080002b9 	stmdaeq	r0, {r0, r3, r4, r5, r7, r9}
 80000c4:	080002b9 	stmdaeq	r0, {r0, r3, r4, r5, r7, r9}
 80000c8:	080002b9 	stmdaeq	r0, {r0, r3, r4, r5, r7, r9}
 80000cc:	080002b9 	stmdaeq	r0, {r0, r3, r4, r5, r7, r9}
 80000d0:	080002b9 	stmdaeq	r0, {r0, r3, r4, r5, r7, r9}
 80000d4:	080002b9 	stmdaeq	r0, {r0, r3, r4, r5, r7, r9}
 80000d8:	080002b9 	stmdaeq	r0, {r0, r3, r4, r5, r7, r9}
 80000dc:	080002b9 	stmdaeq	r0, {r0, r3, r4, r5, r7, r9}
 80000e0:	08000791 	stmdaeq	r0, {r0, r4, r7, r8, r9, sl}
 80000e4:	080002b9 	stmdaeq	r0, {r0, r3, r4, r5, r7, r9}
 80000e8:	00000000 	andeq	r0, r0, r0
 80000ec:	080002b9 	stmdaeq	r0, {r0, r3, r4, r5, r7, r9}
 80000f0:	080002b9 	stmdaeq	r0, {r0, r3, r4, r5, r7, r9}
 80000f4:	080002b9 	stmdaeq	r0, {r0, r3, r4, r5, r7, r9}
 80000f8:	080002b9 	stmdaeq	r0, {r0, r3, r4, r5, r7, r9}
 80000fc:	080002b9 	stmdaeq	r0, {r0, r3, r4, r5, r7, r9}
 8000100:	080002b9 	stmdaeq	r0, {r0, r3, r4, r5, r7, r9}
 8000104:	080002b9 	stmdaeq	r0, {r0, r3, r4, r5, r7, r9}
 8000108:	080002b9 	stmdaeq	r0, {r0, r3, r4, r5, r7, r9}
 800010c:	080002b9 	stmdaeq	r0, {r0, r3, r4, r5, r7, r9}
 8000110:	080002b9 	stmdaeq	r0, {r0, r3, r4, r5, r7, r9}
 8000114:	080002b9 	stmdaeq	r0, {r0, r3, r4, r5, r7, r9}
 8000118:	080002b9 	stmdaeq	r0, {r0, r3, r4, r5, r7, r9}
 800011c:	080002b9 	stmdaeq	r0, {r0, r3, r4, r5, r7, r9}
 8000120:	080002b9 	stmdaeq	r0, {r0, r3, r4, r5, r7, r9}
 8000124:	080002b9 	stmdaeq	r0, {r0, r3, r4, r5, r7, r9}
 8000128:	080002b9 	stmdaeq	r0, {r0, r3, r4, r5, r7, r9}
 800012c:	080002b9 	stmdaeq	r0, {r0, r3, r4, r5, r7, r9}

Disassembly of section .text:

08000130 <__do_global_dtors_aux>:
 8000130:	b510      	push	{r4, lr}
 8000132:	4c05      	ldr	r4, [pc, #20]	; (8000148 <__do_global_dtors_aux+0x18>)
 8000134:	7823      	ldrb	r3, [r4, #0]
 8000136:	b933      	cbnz	r3, 8000146 <__do_global_dtors_aux+0x16>
 8000138:	4b04      	ldr	r3, [pc, #16]	; (800014c <__do_global_dtors_aux+0x1c>)
 800013a:	b113      	cbz	r3, 8000142 <__do_global_dtors_aux+0x12>
 800013c:	4804      	ldr	r0, [pc, #16]	; (8000150 <__do_global_dtors_aux+0x20>)
 800013e:	f3af 8000 	nop.w
 8000142:	2301      	movs	r3, #1
 8000144:	7023      	strb	r3, [r4, #0]
 8000146:	bd10      	pop	{r4, pc}
 8000148:	20000000 	andcs	r0, r0, r0
 800014c:	00000000 	andeq	r0, r0, r0
 8000150:	08000b04 	stmdaeq	r0, {r2, r8, r9, fp}

08000154 <frame_dummy>:
 8000154:	b508      	push	{r3, lr}
 8000156:	4b03      	ldr	r3, [pc, #12]	; (8000164 <frame_dummy+0x10>)
 8000158:	b11b      	cbz	r3, 8000162 <frame_dummy+0xe>
 800015a:	4903      	ldr	r1, [pc, #12]	; (8000168 <frame_dummy+0x14>)
 800015c:	4803      	ldr	r0, [pc, #12]	; (800016c <frame_dummy+0x18>)
 800015e:	f3af 8000 	nop.w
 8000162:	bd08      	pop	{r3, pc}
 8000164:	00000000 	andeq	r0, r0, r0
 8000168:	20000004 	andcs	r0, r0, r4
 800016c:	08000b04 	stmdaeq	r0, {r2, r8, r9, fp}

08000170 <Switch_CPU_AccessLevel>:
 8000170:	b480      	push	{r7}
 8000172:	b083      	sub	sp, #12
 8000174:	af00      	add	r7, sp, #0
 8000176:	4603      	mov	r3, r0
 8000178:	71fb      	strb	r3, [r7, #7]
 800017a:	79fb      	ldrb	r3, [r7, #7]
 800017c:	2b00      	cmp	r3, #0
 800017e:	d002      	beq.n	8000186 <Switch_CPU_AccessLevel+0x16>
 8000180:	2b01      	cmp	r3, #1
 8000182:	d009      	beq.n	8000198 <Switch_CPU_AccessLevel+0x28>
 8000184:	e00f      	b.n	80001a6 <Switch_CPU_AccessLevel+0x36>
 8000186:	f3ef 8314 	mrs	r3, CONTROL
 800018a:	ea4f 0353 	mov.w	r3, r3, lsr #1
 800018e:	ea4f 0343 	mov.w	r3, r3, lsl #1
 8000192:	f383 8814 	msr	CONTROL, r3
 8000196:	e006      	b.n	80001a6 <Switch_CPU_AccessLevel+0x36>
 8000198:	f3ef 8314 	mrs	r3, CONTROL
 800019c:	f043 0301 	orr.w	r3, r3, #1
 80001a0:	f383 8814 	msr	CONTROL, r3
 80001a4:	bf00      	nop
 80001a6:	bf00      	nop
 80001a8:	370c      	adds	r7, #12
 80001aa:	46bd      	mov	sp, r7
 80001ac:	bc80      	pop	{r7}
 80001ae:	4770      	bx	lr

080001b0 <HardFault_Handler>:
 80001b0:	b580      	push	{r7, lr}
 80001b2:	af00      	add	r7, sp, #0
 80001b4:	2000      	movs	r0, #0
 80001b6:	f7ff ffdb 	bl	8000170 <Switch_CPU_AccessLevel>
 80001ba:	bf00      	nop
 80001bc:	bd80      	pop	{r7, pc}
	...

080001c0 <EXTI9_callBack>:
 80001c0:	b580      	push	{r7, lr}
 80001c2:	af00      	add	r7, sp, #0
 80001c4:	2000      	movs	r0, #0
 80001c6:	f7ff ffd3 	bl	8000170 <Switch_CPU_AccessLevel>
 80001ca:	f3ef 8405 	mrs	r4, IPSR
 80001ce:	4623      	mov	r3, r4
 80001d0:	4a03      	ldr	r2, [pc, #12]	; (80001e0 <EXTI9_callBack+0x20>)
 80001d2:	6013      	str	r3, [r2, #0]
 80001d4:	4b03      	ldr	r3, [pc, #12]	; (80001e4 <EXTI9_callBack+0x24>)
 80001d6:	2201      	movs	r2, #1
 80001d8:	601a      	str	r2, [r3, #0]
 80001da:	bf00      	nop
 80001dc:	bd80      	pop	{r7, pc}
 80001de:	bf00      	nop
 80001e0:	20000020 	andcs	r0, r0, r0, lsr #32
 80001e4:	2000001c 	andcs	r0, r0, ip, lsl r0

080001e8 <main>:
 80001e8:	b580      	push	{r7, lr}
 80001ea:	b08a      	sub	sp, #40	; 0x28
 80001ec:	af00      	add	r7, sp, #0
 80001ee:	4b1a      	ldr	r3, [pc, #104]	; (8000258 <main+0x70>)
 80001f0:	699b      	ldr	r3, [r3, #24]
 80001f2:	4a19      	ldr	r2, [pc, #100]	; (8000258 <main+0x70>)
 80001f4:	f043 0308 	orr.w	r3, r3, #8
 80001f8:	6193      	str	r3, [r2, #24]
 80001fa:	4b17      	ldr	r3, [pc, #92]	; (8000258 <main+0x70>)
 80001fc:	699b      	ldr	r3, [r3, #24]
 80001fe:	4a16      	ldr	r2, [pc, #88]	; (8000258 <main+0x70>)
 8000200:	f043 0301 	orr.w	r3, r3, #1
 8000204:	6193      	str	r3, [r2, #24]
 8000206:	2001      	movs	r0, #1
 8000208:	f7ff ffb2 	bl	8000170 <Switch_CPU_AccessLevel>
 800020c:	4a13      	ldr	r2, [pc, #76]	; (800025c <main+0x74>)
 800020e:	f107 0310 	add.w	r3, r7, #16
 8000212:	ca07      	ldmia	r2, {r0, r1, r2}
 8000214:	e883 0007 	stmia.w	r3, {r0, r1, r2}
 8000218:	2300      	movs	r3, #0
 800021a:	773b      	strb	r3, [r7, #28]
 800021c:	4b10      	ldr	r3, [pc, #64]	; (8000260 <main+0x78>)
 800021e:	623b      	str	r3, [r7, #32]
 8000220:	2301      	movs	r3, #1
 8000222:	777b      	strb	r3, [r7, #29]
 8000224:	f107 0310 	add.w	r3, r7, #16
 8000228:	4618      	mov	r0, r3
 800022a:	f000 f9f7 	bl	800061c <Mcal_EXTI_GPIO_init>
 800022e:	bf00      	nop
 8000230:	bf00      	nop
 8000232:	f3ef 8514 	mrs	r5, CONTROL
 8000236:	462b      	mov	r3, r5
 8000238:	627b      	str	r3, [r7, #36]	; 0x24
 800023a:	2001      	movs	r0, #1
 800023c:	f7ff ff98 	bl	8000170 <Switch_CPU_AccessLevel>
 8000240:	4b08      	ldr	r3, [pc, #32]	; (8000264 <main+0x7c>)
 8000242:	2201      	movs	r2, #1
 8000244:	601a      	str	r2, [r3, #0]
 8000246:	4b07      	ldr	r3, [pc, #28]	; (8000264 <main+0x7c>)
 8000248:	681b      	ldr	r3, [r3, #0]
 800024a:	2b00      	cmp	r3, #0
 800024c:	d0fb      	beq.n	8000246 <main+0x5e>
 800024e:	4b05      	ldr	r3, [pc, #20]	; (8000264 <main+0x7c>)
 8000250:	2200      	movs	r2, #0
 8000252:	601a      	str	r2, [r3, #0]
 8000254:	e7f7      	b.n	8000246 <main+0x5e>
 8000256:	bf00      	nop
 8000258:	40021000 	andmi	r1, r2, r0
 800025c:	08000b1c 	stmdaeq	r0, {r2, r3, r4, r8, r9, fp}
 8000260:	080001c1 	stmdaeq	r0, {r0, r6, r7, r8}
 8000264:	2000001c 	andcs	r0, r0, ip, lsl r0

08000268 <Reset_Handler>:
 8000268:	480d      	ldr	r0, [pc, #52]	; (80002a0 <LoopForever+0x2>)
 800026a:	4685      	mov	sp, r0
 800026c:	f3af 8000 	nop.w
 8000270:	480c      	ldr	r0, [pc, #48]	; (80002a4 <LoopForever+0x6>)
 8000272:	490d      	ldr	r1, [pc, #52]	; (80002a8 <LoopForever+0xa>)
 8000274:	4a0d      	ldr	r2, [pc, #52]	; (80002ac <LoopForever+0xe>)
 8000276:	2300      	movs	r3, #0
 8000278:	e002      	b.n	8000280 <LoopCopyDataInit>

0800027a <CopyDataInit>:
 800027a:	58d4      	ldr	r4, [r2, r3]
 800027c:	50c4      	str	r4, [r0, r3]
 800027e:	3304      	adds	r3, #4

08000280 <LoopCopyDataInit>:
 8000280:	18c4      	adds	r4, r0, r3
 8000282:	428c      	cmp	r4, r1
 8000284:	d3f9      	bcc.n	800027a <CopyDataInit>
 8000286:	4a0a      	ldr	r2, [pc, #40]	; (80002b0 <LoopForever+0x12>)
 8000288:	4c0a      	ldr	r4, [pc, #40]	; (80002b4 <LoopForever+0x16>)
 800028a:	2300      	movs	r3, #0
 800028c:	e001      	b.n	8000292 <LoopFillZerobss>

0800028e <FillZerobss>:
 800028e:	6013      	str	r3, [r2, #0]
 8000290:	3204      	adds	r2, #4

08000292 <LoopFillZerobss>:
 8000292:	42a2      	cmp	r2, r4
 8000294:	d3fb      	bcc.n	800028e <FillZerobss>
 8000296:	f000 fc11 	bl	8000abc <__libc_init_array>
 800029a:	f7ff ffa5 	bl	80001e8 <main>

0800029e <LoopForever>:
 800029e:	e7fe      	b.n	800029e <LoopForever>
 80002a0:	20002800 	andcs	r2, r0, r0, lsl #16
 80002a4:	20000000 	andcs	r0, r0, r0
 80002a8:	20000000 	andcs	r0, r0, r0
 80002ac:	08000b30 	stmdaeq	r0, {r4, r5, r8, r9, fp}
 80002b0:	20000000 	andcs	r0, r0, r0
 80002b4:	20000060 	andcs	r0, r0, r0, rrx

080002b8 <ADC1_2_IRQHandler>:
 80002b8:	e7fe      	b.n	80002b8 <ADC1_2_IRQHandler>
	...

080002bc <Enable_NVIC>:
 80002bc:	b480      	push	{r7}
 80002be:	b083      	sub	sp, #12
 80002c0:	af00      	add	r7, sp, #0
 80002c2:	4603      	mov	r3, r0
 80002c4:	80fb      	strh	r3, [r7, #6]
 80002c6:	88fb      	ldrh	r3, [r7, #6]
 80002c8:	2b0e      	cmp	r3, #14
 80002ca:	d852      	bhi.n	8000372 <Enable_NVIC+0xb6>
 80002cc:	a201      	add	r2, pc, #4	; (adr r2, 80002d4 <Enable_NVIC+0x18>)
 80002ce:	f852 f023 	ldr.w	pc, [r2, r3, lsl #2]
 80002d2:	bf00      	nop
 80002d4:	08000311 	stmdaeq	r0, {r0, r4, r8, r9}
 80002d8:	0800031f 	stmdaeq	r0, {r0, r1, r2, r3, r4, r8, r9}
 80002dc:	0800032d 	stmdaeq	r0, {r0, r2, r3, r5, r8, r9}
 80002e0:	0800033b 	stmdaeq	r0, {r0, r1, r3, r4, r5, r8, r9}
 80002e4:	08000349 	stmdaeq	r0, {r0, r3, r6, r8, r9}
 80002e8:	08000357 	stmdaeq	r0, {r0, r1, r2, r4, r6, r8, r9}
 80002ec:	08000357 	stmdaeq	r0, {r0, r1, r2, r4, r6, r8, r9}
 80002f0:	08000357 	stmdaeq	r0, {r0, r1, r2, r4, r6, r8, r9}
 80002f4:	08000357 	stmdaeq	r0, {r0, r1, r2, r4, r6, r8, r9}
 80002f8:	08000357 	stmdaeq	r0, {r0, r1, r2, r4, r6, r8, r9}
 80002fc:	08000365 	stmdaeq	r0, {r0, r2, r5, r6, r8, r9}
 8000300:	08000365 	stmdaeq	r0, {r0, r2, r5, r6, r8, r9}
 8000304:	08000365 	stmdaeq	r0, {r0, r2, r5, r6, r8, r9}
 8000308:	08000365 	stmdaeq	r0, {r0, r2, r5, r6, r8, r9}
 800030c:	08000365 	stmdaeq	r0, {r0, r2, r5, r6, r8, r9}
 8000310:	4b1a      	ldr	r3, [pc, #104]	; (800037c <Enable_NVIC+0xc0>)
 8000312:	681b      	ldr	r3, [r3, #0]
 8000314:	4a19      	ldr	r2, [pc, #100]	; (800037c <Enable_NVIC+0xc0>)
 8000316:	f043 0340 	orr.w	r3, r3, #64	; 0x40
 800031a:	6013      	str	r3, [r2, #0]
 800031c:	e029      	b.n	8000372 <Enable_NVIC+0xb6>
 800031e:	4b17      	ldr	r3, [pc, #92]	; (800037c <Enable_NVIC+0xc0>)
 8000320:	681b      	ldr	r3, [r3, #0]
 8000322:	4a16      	ldr	r2, [pc, #88]	; (800037c <Enable_NVIC+0xc0>)
 8000324:	f043 0380 	orr.w	r3, r3, #128	; 0x80
 8000328:	6013      	str	r3, [r2, #0]
 800032a:	e022      	b.n	8000372 <Enable_NVIC+0xb6>
 800032c:	4b13      	ldr	r3, [pc, #76]	; (800037c <Enable_NVIC+0xc0>)
 800032e:	681b      	ldr	r3, [r3, #0]
 8000330:	4a12      	ldr	r2, [pc, #72]	; (800037c <Enable_NVIC+0xc0>)
 8000332:	f443 7380 	orr.w	r3, r3, #256	; 0x100
 8000336:	6013      	str	r3, [r2, #0]
 8000338:	e01b      	b.n	8000372 <Enable_NVIC+0xb6>
 800033a:	4b10      	ldr	r3, [pc, #64]	; (800037c <Enable_NVIC+0xc0>)
 800033c:	681b      	ldr	r3, [r3, #0]
 800033e:	4a0f      	ldr	r2, [pc, #60]	; (800037c <Enable_NVIC+0xc0>)
 8000340:	f443 7300 	orr.w	r3, r3, #512	; 0x200
 8000344:	6013      	str	r3, [r2, #0]
 8000346:	e014      	b.n	8000372 <Enable_NVIC+0xb6>
 8000348:	4b0c      	ldr	r3, [pc, #48]	; (800037c <Enable_NVIC+0xc0>)
 800034a:	681b      	ldr	r3, [r3, #0]
 800034c:	4a0b      	ldr	r2, [pc, #44]	; (800037c <Enable_NVIC+0xc0>)
 800034e:	f443 7300 	orr.w	r3, r3, #512	; 0x200
 8000352:	6013      	str	r3, [r2, #0]
 8000354:	e00d      	b.n	8000372 <Enable_NVIC+0xb6>
 8000356:	4b09      	ldr	r3, [pc, #36]	; (800037c <Enable_NVIC+0xc0>)
 8000358:	681b      	ldr	r3, [r3, #0]
 800035a:	4a08      	ldr	r2, [pc, #32]	; (800037c <Enable_NVIC+0xc0>)
 800035c:	f443 0300 	orr.w	r3, r3, #8388608	; 0x800000
 8000360:	6013      	str	r3, [r2, #0]
 8000362:	e006      	b.n	8000372 <Enable_NVIC+0xb6>
 8000364:	4b06      	ldr	r3, [pc, #24]	; (8000380 <Enable_NVIC+0xc4>)
 8000366:	681b      	ldr	r3, [r3, #0]
 8000368:	4a05      	ldr	r2, [pc, #20]	; (8000380 <Enable_NVIC+0xc4>)
 800036a:	f443 7380 	orr.w	r3, r3, #256	; 0x100
 800036e:	6013      	str	r3, [r2, #0]
 8000370:	bf00      	nop
 8000372:	bf00      	nop
 8000374:	370c      	adds	r7, #12
 8000376:	46bd      	mov	sp, r7
 8000378:	bc80      	pop	{r7}
 800037a:	4770      	bx	lr
 800037c:	e000e100 	and	lr, r0, r0, lsl #2
 8000380:	e000e104 	and	lr, r0, r4, lsl #2

08000384 <Disable_NVIC>:
 8000384:	b480      	push	{r7}
 8000386:	b083      	sub	sp, #12
 8000388:	af00      	add	r7, sp, #0
 800038a:	4603      	mov	r3, r0
 800038c:	80fb      	strh	r3, [r7, #6]
 800038e:	88fb      	ldrh	r3, [r7, #6]
 8000390:	2b0e      	cmp	r3, #14
 8000392:	d852      	bhi.n	800043a <Disable_NVIC+0xb6>
 8000394:	a201      	add	r2, pc, #4	; (adr r2, 800039c <Disable_NVIC+0x18>)
 8000396:	f852 f023 	ldr.w	pc, [r2, r3, lsl #2]
 800039a:	bf00      	nop
 800039c:	080003d9 	stmdaeq	r0, {r0, r3, r4, r6, r7, r8, r9}
 80003a0:	080003e7 	stmdaeq	r0, {r0, r1, r2, r5, r6, r7, r8, r9}
 80003a4:	080003f5 	stmdaeq	r0, {r0, r2, r4, r5, r6, r7, r8, r9}
 80003a8:	08000403 	stmdaeq	r0, {r0, r1, sl}
 80003ac:	08000411 	stmdaeq	r0, {r0, r4, sl}
 80003b0:	0800041f 	stmdaeq	r0, {r0, r1, r2, r3, r4, sl}
 80003b4:	0800041f 	stmdaeq	r0, {r0, r1, r2, r3, r4, sl}
 80003b8:	0800041f 	stmdaeq	r0, {r0, r1, r2, r3, r4, sl}
 80003bc:	0800041f 	stmdaeq	r0, {r0, r1, r2, r3, r4, sl}
 80003c0:	0800041f 	stmdaeq	r0, {r0, r1, r2, r3, r4, sl}
 80003c4:	0800042d 	stmdaeq	r0, {r0, r2, r3, r5, sl}
 80003c8:	0800042d 	stmdaeq	r0, {r0, r2, r3, r5, sl}
 80003cc:	0800042d 	stmdaeq	r0, {r0, r2, r3, r5, sl}
 80003d0:	0800042d 	stmdaeq	r0, {r0, r2, r3, r5, sl}
 80003d4:	0800042d 	stmdaeq	r0, {r0, r2, r3, r5, sl}
 80003d8:	4b1a      	ldr	r3, [pc, #104]	; (8000444 <Disable_NVIC+0xc0>)
 80003da:	681b      	ldr	r3, [r3, #0]
 80003dc:	4a19      	ldr	r2, [pc, #100]	; (8000444 <Disable_NVIC+0xc0>)
 80003de:	f043 0340 	orr.w	r3, r3, #64	; 0x40
 80003e2:	6013      	str	r3, [r2, #0]
 80003e4:	e029      	b.n	800043a <Disable_NVIC+0xb6>
 80003e6:	4b17      	ldr	r3, [pc, #92]	; (8000444 <Disable_NVIC+0xc0>)
 80003e8:	681b      	ldr	r3, [r3, #0]
 80003ea:	4a16      	ldr	r2, [pc, #88]	; (8000444 <Disable_NVIC+0xc0>)
 80003ec:	f043 0380 	orr.w	r3, r3, #128	; 0x80
 80003f0:	6013      	str	r3, [r2, #0]
 80003f2:	e022      	b.n	800043a <Disable_NVIC+0xb6>
 80003f4:	4b13      	ldr	r3, [pc, #76]	; (8000444 <Disable_NVIC+0xc0>)
 80003f6:	681b      	ldr	r3, [r3, #0]
 80003f8:	4a12      	ldr	r2, [pc, #72]	; (8000444 <Disable_NVIC+0xc0>)
 80003fa:	f443 7380 	orr.w	r3, r3, #256	; 0x100
 80003fe:	6013      	str	r3, [r2, #0]
 8000400:	e01b      	b.n	800043a <Disable_NVIC+0xb6>
 8000402:	4b10      	ldr	r3, [pc, #64]	; (8000444 <Disable_NVIC+0xc0>)
 8000404:	681b      	ldr	r3, [r3, #0]
 8000406:	4a0f      	ldr	r2, [pc, #60]	; (8000444 <Disable_NVIC+0xc0>)
 8000408:	f443 7300 	orr.w	r3, r3, #512	; 0x200
 800040c:	6013      	str	r3, [r2, #0]
 800040e:	e014      	b.n	800043a <Disable_NVIC+0xb6>
 8000410:	4b0c      	ldr	r3, [pc, #48]	; (8000444 <Disable_NVIC+0xc0>)
 8000412:	681b      	ldr	r3, [r3, #0]
 8000414:	4a0b      	ldr	r2, [pc, #44]	; (8000444 <Disable_NVIC+0xc0>)
 8000416:	f443 7300 	orr.w	r3, r3, #512	; 0x200
 800041a:	6013      	str	r3, [r2, #0]
 800041c:	e00d      	b.n	800043a <Disable_NVIC+0xb6>
 800041e:	4b09      	ldr	r3, [pc, #36]	; (8000444 <Disable_NVIC+0xc0>)
 8000420:	681b      	ldr	r3, [r3, #0]
 8000422:	4a08      	ldr	r2, [pc, #32]	; (8000444 <Disable_NVIC+0xc0>)
 8000424:	f443 0300 	orr.w	r3, r3, #8388608	; 0x800000
 8000428:	6013      	str	r3, [r2, #0]
 800042a:	e006      	b.n	800043a <Disable_NVIC+0xb6>
 800042c:	4b06      	ldr	r3, [pc, #24]	; (8000448 <Disable_NVIC+0xc4>)
 800042e:	681b      	ldr	r3, [r3, #0]
 8000430:	4a05      	ldr	r2, [pc, #20]	; (8000448 <Disable_NVIC+0xc4>)
 8000432:	f443 7380 	orr.w	r3, r3, #256	; 0x100
 8000436:	6013      	str	r3, [r2, #0]
 8000438:	bf00      	nop
 800043a:	bf00      	nop
 800043c:	370c      	adds	r7, #12
 800043e:	46bd      	mov	sp, r7
 8000440:	bc80      	pop	{r7}
 8000442:	4770      	bx	lr
 8000444:	e000e180 	and	lr, r0, r0, lsl #3
 8000448:	e000e184 	and	lr, r0, r4, lsl #3

0800044c <update_EXTI>:
 800044c:	b580      	push	{r7, lr}
 800044e:	b084      	sub	sp, #16
 8000450:	af00      	add	r7, sp, #0
 8000452:	6078      	str	r0, [r7, #4]
 8000454:	687b      	ldr	r3, [r7, #4]
 8000456:	891b      	ldrh	r3, [r3, #8]
 8000458:	813b      	strh	r3, [r7, #8]
 800045a:	2301      	movs	r3, #1
 800045c:	72bb      	strb	r3, [r7, #10]
 800045e:	687b      	ldr	r3, [r7, #4]
 8000460:	685b      	ldr	r3, [r3, #4]
 8000462:	f107 0208 	add.w	r2, r7, #8
 8000466:	4611      	mov	r1, r2
 8000468:	4618      	mov	r0, r3
 800046a:	f000 faab 	bl	80009c4 <MCAL_GPIO_Init>
 800046e:	687b      	ldr	r3, [r7, #4]
 8000470:	881b      	ldrh	r3, [r3, #0]
 8000472:	089b      	lsrs	r3, r3, #2
 8000474:	b29b      	uxth	r3, r3
 8000476:	73fb      	strb	r3, [r7, #15]
 8000478:	687b      	ldr	r3, [r7, #4]
 800047a:	881b      	ldrh	r3, [r3, #0]
 800047c:	b2db      	uxtb	r3, r3
 800047e:	f003 0303 	and.w	r3, r3, #3
 8000482:	b2db      	uxtb	r3, r3
 8000484:	009b      	lsls	r3, r3, #2
 8000486:	73bb      	strb	r3, [r7, #14]
 8000488:	4a5d      	ldr	r2, [pc, #372]	; (8000600 <update_EXTI+0x1b4>)
 800048a:	7bfb      	ldrb	r3, [r7, #15]
 800048c:	3302      	adds	r3, #2
 800048e:	f852 2023 	ldr.w	r2, [r2, r3, lsl #2]
 8000492:	7bbb      	ldrb	r3, [r7, #14]
 8000494:	210f      	movs	r1, #15
 8000496:	fa01 f303 	lsl.w	r3, r1, r3
 800049a:	43db      	mvns	r3, r3
 800049c:	4618      	mov	r0, r3
 800049e:	4958      	ldr	r1, [pc, #352]	; (8000600 <update_EXTI+0x1b4>)
 80004a0:	7bfb      	ldrb	r3, [r7, #15]
 80004a2:	4002      	ands	r2, r0
 80004a4:	3302      	adds	r3, #2
 80004a6:	f841 2023 	str.w	r2, [r1, r3, lsl #2]
 80004aa:	4a55      	ldr	r2, [pc, #340]	; (8000600 <update_EXTI+0x1b4>)
 80004ac:	7bfb      	ldrb	r3, [r7, #15]
 80004ae:	3302      	adds	r3, #2
 80004b0:	f852 2023 	ldr.w	r2, [r2, r3, lsl #2]
 80004b4:	687b      	ldr	r3, [r7, #4]
 80004b6:	685b      	ldr	r3, [r3, #4]
 80004b8:	4952      	ldr	r1, [pc, #328]	; (8000604 <update_EXTI+0x1b8>)
 80004ba:	428b      	cmp	r3, r1
 80004bc:	d016      	beq.n	80004ec <update_EXTI+0xa0>
 80004be:	687b      	ldr	r3, [r7, #4]
 80004c0:	685b      	ldr	r3, [r3, #4]
 80004c2:	4951      	ldr	r1, [pc, #324]	; (8000608 <update_EXTI+0x1bc>)
 80004c4:	428b      	cmp	r3, r1
 80004c6:	d00f      	beq.n	80004e8 <update_EXTI+0x9c>
 80004c8:	687b      	ldr	r3, [r7, #4]
 80004ca:	685b      	ldr	r3, [r3, #4]
 80004cc:	494f      	ldr	r1, [pc, #316]	; (800060c <update_EXTI+0x1c0>)
 80004ce:	428b      	cmp	r3, r1
 80004d0:	d008      	beq.n	80004e4 <update_EXTI+0x98>
 80004d2:	687b      	ldr	r3, [r7, #4]
 80004d4:	685b      	ldr	r3, [r3, #4]
 80004d6:	494e      	ldr	r1, [pc, #312]	; (8000610 <update_EXTI+0x1c4>)
 80004d8:	428b      	cmp	r3, r1
 80004da:	d101      	bne.n	80004e0 <update_EXTI+0x94>
 80004dc:	2303      	movs	r3, #3
 80004de:	e006      	b.n	80004ee <update_EXTI+0xa2>
 80004e0:	2300      	movs	r3, #0
 80004e2:	e004      	b.n	80004ee <update_EXTI+0xa2>
 80004e4:	2302      	movs	r3, #2
 80004e6:	e002      	b.n	80004ee <update_EXTI+0xa2>
 80004e8:	2301      	movs	r3, #1
 80004ea:	e000      	b.n	80004ee <update_EXTI+0xa2>
 80004ec:	2300      	movs	r3, #0
 80004ee:	7bb9      	ldrb	r1, [r7, #14]
 80004f0:	408b      	lsls	r3, r1
 80004f2:	4618      	mov	r0, r3
 80004f4:	4942      	ldr	r1, [pc, #264]	; (8000600 <update_EXTI+0x1b4>)
 80004f6:	7bfb      	ldrb	r3, [r7, #15]
 80004f8:	4302      	orrs	r2, r0
 80004fa:	3302      	adds	r3, #2
 80004fc:	f841 2023 	str.w	r2, [r1, r3, lsl #2]
 8000500:	4b44      	ldr	r3, [pc, #272]	; (8000614 <update_EXTI+0x1c8>)
 8000502:	689b      	ldr	r3, [r3, #8]
 8000504:	687a      	ldr	r2, [r7, #4]
 8000506:	8812      	ldrh	r2, [r2, #0]
 8000508:	4611      	mov	r1, r2
 800050a:	2201      	movs	r2, #1
 800050c:	408a      	lsls	r2, r1
 800050e:	43d2      	mvns	r2, r2
 8000510:	4611      	mov	r1, r2
 8000512:	4a40      	ldr	r2, [pc, #256]	; (8000614 <update_EXTI+0x1c8>)
 8000514:	400b      	ands	r3, r1
 8000516:	6093      	str	r3, [r2, #8]
 8000518:	4b3e      	ldr	r3, [pc, #248]	; (8000614 <update_EXTI+0x1c8>)
 800051a:	68db      	ldr	r3, [r3, #12]
 800051c:	687a      	ldr	r2, [r7, #4]
 800051e:	8812      	ldrh	r2, [r2, #0]
 8000520:	4611      	mov	r1, r2
 8000522:	2201      	movs	r2, #1
 8000524:	408a      	lsls	r2, r1
 8000526:	43d2      	mvns	r2, r2
 8000528:	4611      	mov	r1, r2
 800052a:	4a3a      	ldr	r2, [pc, #232]	; (8000614 <update_EXTI+0x1c8>)
 800052c:	400b      	ands	r3, r1
 800052e:	60d3      	str	r3, [r2, #12]
 8000530:	687b      	ldr	r3, [r7, #4]
 8000532:	7b1b      	ldrb	r3, [r3, #12]
 8000534:	2b00      	cmp	r3, #0
 8000536:	d10b      	bne.n	8000550 <update_EXTI+0x104>
 8000538:	4b36      	ldr	r3, [pc, #216]	; (8000614 <update_EXTI+0x1c8>)
 800053a:	689b      	ldr	r3, [r3, #8]
 800053c:	687a      	ldr	r2, [r7, #4]
 800053e:	8812      	ldrh	r2, [r2, #0]
 8000540:	4611      	mov	r1, r2
 8000542:	2201      	movs	r2, #1
 8000544:	408a      	lsls	r2, r1
 8000546:	4611      	mov	r1, r2
 8000548:	4a32      	ldr	r2, [pc, #200]	; (8000614 <update_EXTI+0x1c8>)
 800054a:	430b      	orrs	r3, r1
 800054c:	6093      	str	r3, [r2, #8]
 800054e:	e025      	b.n	800059c <update_EXTI+0x150>
 8000550:	687b      	ldr	r3, [r7, #4]
 8000552:	7b1b      	ldrb	r3, [r3, #12]
 8000554:	2b01      	cmp	r3, #1
 8000556:	d10b      	bne.n	8000570 <update_EXTI+0x124>
 8000558:	4b2e      	ldr	r3, [pc, #184]	; (8000614 <update_EXTI+0x1c8>)
 800055a:	68db      	ldr	r3, [r3, #12]
 800055c:	687a      	ldr	r2, [r7, #4]
 800055e:	8812      	ldrh	r2, [r2, #0]
 8000560:	4611      	mov	r1, r2
 8000562:	2201      	movs	r2, #1
 8000564:	408a      	lsls	r2, r1
 8000566:	4611      	mov	r1, r2
 8000568:	4a2a      	ldr	r2, [pc, #168]	; (8000614 <update_EXTI+0x1c8>)
 800056a:	430b      	orrs	r3, r1
 800056c:	60d3      	str	r3, [r2, #12]
 800056e:	e015      	b.n	800059c <update_EXTI+0x150>
 8000570:	4b28      	ldr	r3, [pc, #160]	; (8000614 <update_EXTI+0x1c8>)
 8000572:	689b      	ldr	r3, [r3, #8]
 8000574:	687a      	ldr	r2, [r7, #4]
 8000576:	8812      	ldrh	r2, [r2, #0]
 8000578:	4611      	mov	r1, r2
 800057a:	2201      	movs	r2, #1
 800057c:	408a      	lsls	r2, r1
 800057e:	4611      	mov	r1, r2
 8000580:	4a24      	ldr	r2, [pc, #144]	; (8000614 <update_EXTI+0x1c8>)
 8000582:	430b      	orrs	r3, r1
 8000584:	6093      	str	r3, [r2, #8]
 8000586:	4b23      	ldr	r3, [pc, #140]	; (8000614 <update_EXTI+0x1c8>)
 8000588:	68db      	ldr	r3, [r3, #12]
 800058a:	687a      	ldr	r2, [r7, #4]
 800058c:	8812      	ldrh	r2, [r2, #0]
 800058e:	4611      	mov	r1, r2
 8000590:	2201      	movs	r2, #1
 8000592:	408a      	lsls	r2, r1
 8000594:	4611      	mov	r1, r2
 8000596:	4a1f      	ldr	r2, [pc, #124]	; (8000614 <update_EXTI+0x1c8>)
 8000598:	430b      	orrs	r3, r1
 800059a:	60d3      	str	r3, [r2, #12]
 800059c:	687b      	ldr	r3, [r7, #4]
 800059e:	881b      	ldrh	r3, [r3, #0]
 80005a0:	4619      	mov	r1, r3
 80005a2:	687b      	ldr	r3, [r7, #4]
 80005a4:	691b      	ldr	r3, [r3, #16]
 80005a6:	4a1c      	ldr	r2, [pc, #112]	; (8000618 <update_EXTI+0x1cc>)
 80005a8:	f842 3021 	str.w	r3, [r2, r1, lsl #2]
 80005ac:	687b      	ldr	r3, [r7, #4]
 80005ae:	7b5b      	ldrb	r3, [r3, #13]
 80005b0:	2b01      	cmp	r3, #1
 80005b2:	d110      	bne.n	80005d6 <update_EXTI+0x18a>
 80005b4:	4b17      	ldr	r3, [pc, #92]	; (8000614 <update_EXTI+0x1c8>)
 80005b6:	681b      	ldr	r3, [r3, #0]
 80005b8:	687a      	ldr	r2, [r7, #4]
 80005ba:	8812      	ldrh	r2, [r2, #0]
 80005bc:	4611      	mov	r1, r2
 80005be:	2201      	movs	r2, #1
 80005c0:	408a      	lsls	r2, r1
 80005c2:	4611      	mov	r1, r2
 80005c4:	4a13      	ldr	r2, [pc, #76]	; (8000614 <update_EXTI+0x1c8>)
 80005c6:	430b      	orrs	r3, r1
 80005c8:	6013      	str	r3, [r2, #0]
 80005ca:	687b      	ldr	r3, [r7, #4]
 80005cc:	881b      	ldrh	r3, [r3, #0]
 80005ce:	4618      	mov	r0, r3
 80005d0:	f7ff fe74 	bl	80002bc <Enable_NVIC>
 80005d4:	e010      	b.n	80005f8 <update_EXTI+0x1ac>
 80005d6:	4b0f      	ldr	r3, [pc, #60]	; (8000614 <update_EXTI+0x1c8>)
 80005d8:	681b      	ldr	r3, [r3, #0]
 80005da:	687a      	ldr	r2, [r7, #4]
 80005dc:	8812      	ldrh	r2, [r2, #0]
 80005de:	4611      	mov	r1, r2
 80005e0:	2201      	movs	r2, #1
 80005e2:	408a      	lsls	r2, r1
 80005e4:	43d2      	mvns	r2, r2
 80005e6:	4611      	mov	r1, r2
 80005e8:	4a0a      	ldr	r2, [pc, #40]	; (8000614 <update_EXTI+0x1c8>)
 80005ea:	400b      	ands	r3, r1
 80005ec:	6013      	str	r3, [r2, #0]
 80005ee:	687b      	ldr	r3, [r7, #4]
 80005f0:	881b      	ldrh	r3, [r3, #0]
 80005f2:	4618      	mov	r0, r3
 80005f4:	f7ff fec6 	bl	8000384 <Disable_NVIC>
 80005f8:	bf00      	nop
 80005fa:	3710      	adds	r7, #16
 80005fc:	46bd      	mov	sp, r7
 80005fe:	bd80      	pop	{r7, pc}
 8000600:	40010000 	andmi	r0, r1, r0
 8000604:	40010800 	andmi	r0, r1, r0, lsl #16
 8000608:	40010c00 	andmi	r0, r1, r0, lsl #24
 800060c:	40011000 	andmi	r1, r1, r0
 8000610:	40011400 	andmi	r1, r1, r0, lsl #8
 8000614:	40010400 	andmi	r0, r1, r0, lsl #8
 8000618:	20000024 	andcs	r0, r0, r4, lsr #32

0800061c <Mcal_EXTI_GPIO_init>:
 800061c:	b580      	push	{r7, lr}
 800061e:	b082      	sub	sp, #8
 8000620:	af00      	add	r7, sp, #0
 8000622:	6078      	str	r0, [r7, #4]
 8000624:	6878      	ldr	r0, [r7, #4]
 8000626:	f7ff ff11 	bl	800044c <update_EXTI>
 800062a:	bf00      	nop
 800062c:	3708      	adds	r7, #8
 800062e:	46bd      	mov	sp, r7
 8000630:	bd80      	pop	{r7, pc}
	...

08000634 <EXTI0_IRQHandler>:
 8000634:	b580      	push	{r7, lr}
 8000636:	af00      	add	r7, sp, #0
 8000638:	4b05      	ldr	r3, [pc, #20]	; (8000650 <EXTI0_IRQHandler+0x1c>)
 800063a:	695b      	ldr	r3, [r3, #20]
 800063c:	4a04      	ldr	r2, [pc, #16]	; (8000650 <EXTI0_IRQHandler+0x1c>)
 800063e:	f043 0301 	orr.w	r3, r3, #1
 8000642:	6153      	str	r3, [r2, #20]
 8000644:	4b03      	ldr	r3, [pc, #12]	; (8000654 <EXTI0_IRQHandler+0x20>)
 8000646:	681b      	ldr	r3, [r3, #0]
 8000648:	4798      	blx	r3
 800064a:	bf00      	nop
 800064c:	bd80      	pop	{r7, pc}
 800064e:	bf00      	nop
 8000650:	40010400 	andmi	r0, r1, r0, lsl #8
 8000654:	20000024 	andcs	r0, r0, r4, lsr #32

08000658 <EXTI1_IRQHandler>:
 8000658:	b580      	push	{r7, lr}
 800065a:	af00      	add	r7, sp, #0
 800065c:	4b05      	ldr	r3, [pc, #20]	; (8000674 <EXTI1_IRQHandler+0x1c>)
 800065e:	695b      	ldr	r3, [r3, #20]
 8000660:	4a04      	ldr	r2, [pc, #16]	; (8000674 <EXTI1_IRQHandler+0x1c>)
 8000662:	f043 0302 	orr.w	r3, r3, #2
 8000666:	6153      	str	r3, [r2, #20]
 8000668:	4b03      	ldr	r3, [pc, #12]	; (8000678 <EXTI1_IRQHandler+0x20>)
 800066a:	685b      	ldr	r3, [r3, #4]
 800066c:	4798      	blx	r3
 800066e:	bf00      	nop
 8000670:	bd80      	pop	{r7, pc}
 8000672:	bf00      	nop
 8000674:	40010400 	andmi	r0, r1, r0, lsl #8
 8000678:	20000024 	andcs	r0, r0, r4, lsr #32

0800067c <EXTI2_IRQHandler>:
 800067c:	b580      	push	{r7, lr}
 800067e:	af00      	add	r7, sp, #0
 8000680:	4b05      	ldr	r3, [pc, #20]	; (8000698 <EXTI2_IRQHandler+0x1c>)
 8000682:	695b      	ldr	r3, [r3, #20]
 8000684:	4a04      	ldr	r2, [pc, #16]	; (8000698 <EXTI2_IRQHandler+0x1c>)
 8000686:	f043 0304 	orr.w	r3, r3, #4
 800068a:	6153      	str	r3, [r2, #20]
 800068c:	4b03      	ldr	r3, [pc, #12]	; (800069c <EXTI2_IRQHandler+0x20>)
 800068e:	689b      	ldr	r3, [r3, #8]
 8000690:	4798      	blx	r3
 8000692:	bf00      	nop
 8000694:	bd80      	pop	{r7, pc}
 8000696:	bf00      	nop
 8000698:	40010400 	andmi	r0, r1, r0, lsl #8
 800069c:	20000024 	andcs	r0, r0, r4, lsr #32

080006a0 <EXTI3_IRQHandler>:
 80006a0:	b580      	push	{r7, lr}
 80006a2:	af00      	add	r7, sp, #0
 80006a4:	4b05      	ldr	r3, [pc, #20]	; (80006bc <EXTI3_IRQHandler+0x1c>)
 80006a6:	695b      	ldr	r3, [r3, #20]
 80006a8:	4a04      	ldr	r2, [pc, #16]	; (80006bc <EXTI3_IRQHandler+0x1c>)
 80006aa:	f043 0308 	orr.w	r3, r3, #8
 80006ae:	6153      	str	r3, [r2, #20]
 80006b0:	4b03      	ldr	r3, [pc, #12]	; (80006c0 <EXTI3_IRQHandler+0x20>)
 80006b2:	68db      	ldr	r3, [r3, #12]
 80006b4:	4798      	blx	r3
 80006b6:	bf00      	nop
 80006b8:	bd80      	pop	{r7, pc}
 80006ba:	bf00      	nop
 80006bc:	40010400 	andmi	r0, r1, r0, lsl #8
 80006c0:	20000024 	andcs	r0, r0, r4, lsr #32

080006c4 <EXTI4_IRQHandler>:
 80006c4:	b580      	push	{r7, lr}
 80006c6:	af00      	add	r7, sp, #0
 80006c8:	4b05      	ldr	r3, [pc, #20]	; (80006e0 <EXTI4_IRQHandler+0x1c>)
 80006ca:	695b      	ldr	r3, [r3, #20]
 80006cc:	4a04      	ldr	r2, [pc, #16]	; (80006e0 <EXTI4_IRQHandler+0x1c>)
 80006ce:	f043 0310 	orr.w	r3, r3, #16
 80006d2:	6153      	str	r3, [r2, #20]
 80006d4:	4b03      	ldr	r3, [pc, #12]	; (80006e4 <EXTI4_IRQHandler+0x20>)
 80006d6:	691b      	ldr	r3, [r3, #16]
 80006d8:	4798      	blx	r3
 80006da:	bf00      	nop
 80006dc:	bd80      	pop	{r7, pc}
 80006de:	bf00      	nop
 80006e0:	40010400 	andmi	r0, r1, r0, lsl #8
 80006e4:	20000024 	andcs	r0, r0, r4, lsr #32

080006e8 <EXTI9_5_IRQHandler>:
 80006e8:	b580      	push	{r7, lr}
 80006ea:	af00      	add	r7, sp, #0
 80006ec:	4b26      	ldr	r3, [pc, #152]	; (8000788 <EXTI9_5_IRQHandler+0xa0>)
 80006ee:	695b      	ldr	r3, [r3, #20]
 80006f0:	f003 0320 	and.w	r3, r3, #32
 80006f4:	2b00      	cmp	r3, #0
 80006f6:	d008      	beq.n	800070a <EXTI9_5_IRQHandler+0x22>
 80006f8:	4b23      	ldr	r3, [pc, #140]	; (8000788 <EXTI9_5_IRQHandler+0xa0>)
 80006fa:	695b      	ldr	r3, [r3, #20]
 80006fc:	4a22      	ldr	r2, [pc, #136]	; (8000788 <EXTI9_5_IRQHandler+0xa0>)
 80006fe:	f043 0320 	orr.w	r3, r3, #32
 8000702:	6153      	str	r3, [r2, #20]
 8000704:	4b21      	ldr	r3, [pc, #132]	; (800078c <EXTI9_5_IRQHandler+0xa4>)
 8000706:	695b      	ldr	r3, [r3, #20]
 8000708:	4798      	blx	r3
 800070a:	4b1f      	ldr	r3, [pc, #124]	; (8000788 <EXTI9_5_IRQHandler+0xa0>)
 800070c:	695b      	ldr	r3, [r3, #20]
 800070e:	f003 0340 	and.w	r3, r3, #64	; 0x40
 8000712:	2b00      	cmp	r3, #0
 8000714:	d008      	beq.n	8000728 <EXTI9_5_IRQHandler+0x40>
 8000716:	4b1c      	ldr	r3, [pc, #112]	; (8000788 <EXTI9_5_IRQHandler+0xa0>)
 8000718:	695b      	ldr	r3, [r3, #20]
 800071a:	4a1b      	ldr	r2, [pc, #108]	; (8000788 <EXTI9_5_IRQHandler+0xa0>)
 800071c:	f043 0340 	orr.w	r3, r3, #64	; 0x40
 8000720:	6153      	str	r3, [r2, #20]
 8000722:	4b1a      	ldr	r3, [pc, #104]	; (800078c <EXTI9_5_IRQHandler+0xa4>)
 8000724:	699b      	ldr	r3, [r3, #24]
 8000726:	4798      	blx	r3
 8000728:	4b17      	ldr	r3, [pc, #92]	; (8000788 <EXTI9_5_IRQHandler+0xa0>)
 800072a:	695b      	ldr	r3, [r3, #20]
 800072c:	f003 0380 	and.w	r3, r3, #128	; 0x80
 8000730:	2b00      	cmp	r3, #0
 8000732:	d008      	beq.n	8000746 <EXTI9_5_IRQHandler+0x5e>
 8000734:	4b14      	ldr	r3, [pc, #80]	; (8000788 <EXTI9_5_IRQHandler+0xa0>)
 8000736:	695b      	ldr	r3, [r3, #20]
 8000738:	4a13      	ldr	r2, [pc, #76]	; (8000788 <EXTI9_5_IRQHandler+0xa0>)
 800073a:	f043 0380 	orr.w	r3, r3, #128	; 0x80
 800073e:	6153      	str	r3, [r2, #20]
 8000740:	4b12      	ldr	r3, [pc, #72]	; (800078c <EXTI9_5_IRQHandler+0xa4>)
 8000742:	69db      	ldr	r3, [r3, #28]
 8000744:	4798      	blx	r3
 8000746:	4b10      	ldr	r3, [pc, #64]	; (8000788 <EXTI9_5_IRQHandler+0xa0>)
 8000748:	695b      	ldr	r3, [r3, #20]
 800074a:	f403 7380 	and.w	r3, r3, #256	; 0x100
 800074e:	2b00      	cmp	r3, #0
 8000750:	d008      	beq.n	8000764 <EXTI9_5_IRQHandler+0x7c>
 8000752:	4b0d      	ldr	r3, [pc, #52]	; (8000788 <EXTI9_5_IRQHandler+0xa0>)
 8000754:	695b      	ldr	r3, [r3, #20]
 8000756:	4a0c      	ldr	r2, [pc, #48]	; (8000788 <EXTI9_5_IRQHandler+0xa0>)
 8000758:	f443 7380 	orr.w	r3, r3, #256	; 0x100
 800075c:	6153      	str	r3, [r2, #20]
 800075e:	4b0b      	ldr	r3, [pc, #44]	; (800078c <EXTI9_5_IRQHandler+0xa4>)
 8000760:	6a1b      	ldr	r3, [r3, #32]
 8000762:	4798      	blx	r3
 8000764:	4b08      	ldr	r3, [pc, #32]	; (8000788 <EXTI9_5_IRQHandler+0xa0>)
 8000766:	695b      	ldr	r3, [r3, #20]
 8000768:	f403 7300 	and.w	r3, r3, #512	; 0x200
 800076c:	2b00      	cmp	r3, #0
 800076e:	d008      	beq.n	8000782 <EXTI9_5_IRQHandler+0x9a>
 8000770:	4b05      	ldr	r3, [pc, #20]	; (8000788 <EXTI9_5_IRQHandler+0xa0>)
 8000772:	695b      	ldr	r3, [r3, #20]
 8000774:	4a04      	ldr	r2, [pc, #16]	; (8000788 <EXTI9_5_IRQHandler+0xa0>)
 8000776:	f443 7300 	orr.w	r3, r3, #512	; 0x200
 800077a:	6153      	str	r3, [r2, #20]
 800077c:	4b03      	ldr	r3, [pc, #12]	; (800078c <EXTI9_5_IRQHandler+0xa4>)
 800077e:	6a5b      	ldr	r3, [r3, #36]	; 0x24
 8000780:	4798      	blx	r3
 8000782:	bf00      	nop
 8000784:	bd80      	pop	{r7, pc}
 8000786:	bf00      	nop
 8000788:	40010400 	andmi	r0, r1, r0, lsl #8
 800078c:	20000024 	andcs	r0, r0, r4, lsr #32

08000790 <EXTI15_10_IRQHandler>:
 8000790:	b580      	push	{r7, lr}
 8000792:	af00      	add	r7, sp, #0
 8000794:	4b2d      	ldr	r3, [pc, #180]	; (800084c <EXTI15_10_IRQHandler+0xbc>)
 8000796:	695b      	ldr	r3, [r3, #20]
 8000798:	f403 6380 	and.w	r3, r3, #1024	; 0x400
 800079c:	2b00      	cmp	r3, #0
 800079e:	d008      	beq.n	80007b2 <EXTI15_10_IRQHandler+0x22>
 80007a0:	4b2a      	ldr	r3, [pc, #168]	; (800084c <EXTI15_10_IRQHandler+0xbc>)
 80007a2:	695b      	ldr	r3, [r3, #20]
 80007a4:	4a29      	ldr	r2, [pc, #164]	; (800084c <EXTI15_10_IRQHandler+0xbc>)
 80007a6:	f443 6380 	orr.w	r3, r3, #1024	; 0x400
 80007aa:	6153      	str	r3, [r2, #20]
 80007ac:	4b28      	ldr	r3, [pc, #160]	; (8000850 <EXTI15_10_IRQHandler+0xc0>)
 80007ae:	6a9b      	ldr	r3, [r3, #40]	; 0x28
 80007b0:	4798      	blx	r3
 80007b2:	4b26      	ldr	r3, [pc, #152]	; (800084c <EXTI15_10_IRQHandler+0xbc>)
 80007b4:	695b      	ldr	r3, [r3, #20]
 80007b6:	f403 6300 	and.w	r3, r3, #2048	; 0x800
 80007ba:	2b00      	cmp	r3, #0
 80007bc:	d008      	beq.n	80007d0 <EXTI15_10_IRQHandler+0x40>
 80007be:	4b23      	ldr	r3, [pc, #140]	; (800084c <EXTI15_10_IRQHandler+0xbc>)
 80007c0:	695b      	ldr	r3, [r3, #20]
 80007c2:	4a22      	ldr	r2, [pc, #136]	; (800084c <EXTI15_10_IRQHandler+0xbc>)
 80007c4:	f443 6300 	orr.w	r3, r3, #2048	; 0x800
 80007c8:	6153      	str	r3, [r2, #20]
 80007ca:	4b21      	ldr	r3, [pc, #132]	; (8000850 <EXTI15_10_IRQHandler+0xc0>)
 80007cc:	6adb      	ldr	r3, [r3, #44]	; 0x2c
 80007ce:	4798      	blx	r3
 80007d0:	4b1e      	ldr	r3, [pc, #120]	; (800084c <EXTI15_10_IRQHandler+0xbc>)
 80007d2:	695b      	ldr	r3, [r3, #20]
 80007d4:	f403 5380 	and.w	r3, r3, #4096	; 0x1000
 80007d8:	2b00      	cmp	r3, #0
 80007da:	d008      	beq.n	80007ee <EXTI15_10_IRQHandler+0x5e>
 80007dc:	4b1b      	ldr	r3, [pc, #108]	; (800084c <EXTI15_10_IRQHandler+0xbc>)
 80007de:	695b      	ldr	r3, [r3, #20]
 80007e0:	4a1a      	ldr	r2, [pc, #104]	; (800084c <EXTI15_10_IRQHandler+0xbc>)
 80007e2:	f443 5380 	orr.w	r3, r3, #4096	; 0x1000
 80007e6:	6153      	str	r3, [r2, #20]
 80007e8:	4b19      	ldr	r3, [pc, #100]	; (8000850 <EXTI15_10_IRQHandler+0xc0>)
 80007ea:	6b1b      	ldr	r3, [r3, #48]	; 0x30
 80007ec:	4798      	blx	r3
 80007ee:	4b17      	ldr	r3, [pc, #92]	; (800084c <EXTI15_10_IRQHandler+0xbc>)
 80007f0:	695b      	ldr	r3, [r3, #20]
 80007f2:	f403 5300 	and.w	r3, r3, #8192	; 0x2000
 80007f6:	2b00      	cmp	r3, #0
 80007f8:	d008      	beq.n	800080c <EXTI15_10_IRQHandler+0x7c>
 80007fa:	4b14      	ldr	r3, [pc, #80]	; (800084c <EXTI15_10_IRQHandler+0xbc>)
 80007fc:	695b      	ldr	r3, [r3, #20]
 80007fe:	4a13      	ldr	r2, [pc, #76]	; (800084c <EXTI15_10_IRQHandler+0xbc>)
 8000800:	f443 5300 	orr.w	r3, r3, #8192	; 0x2000
 8000804:	6153      	str	r3, [r2, #20]
 8000806:	4b12      	ldr	r3, [pc, #72]	; (8000850 <EXTI15_10_IRQHandler+0xc0>)
 8000808:	6b5b      	ldr	r3, [r3, #52]	; 0x34
 800080a:	4798      	blx	r3
 800080c:	4b0f      	ldr	r3, [pc, #60]	; (800084c <EXTI15_10_IRQHandler+0xbc>)
 800080e:	695b      	ldr	r3, [r3, #20]
 8000810:	f403 4380 	and.w	r3, r3, #16384	; 0x4000
 8000814:	2b00      	cmp	r3, #0
 8000816:	d008      	beq.n	800082a <EXTI15_10_IRQHandler+0x9a>
 8000818:	4b0c      	ldr	r3, [pc, #48]	; (800084c <EXTI15_10_IRQHandler+0xbc>)
 800081a:	695b      	ldr	r3, [r3, #20]
 800081c:	4a0b      	ldr	r2, [pc, #44]	; (800084c <EXTI15_10_IRQHandler+0xbc>)
 800081e:	f443 4380 	orr.w	r3, r3, #16384	; 0x4000
 8000822:	6153      	str	r3, [r2, #20]
 8000824:	4b0a      	ldr	r3, [pc, #40]	; (8000850 <EXTI15_10_IRQHandler+0xc0>)
 8000826:	6b9b      	ldr	r3, [r3, #56]	; 0x38
 8000828:	4798      	blx	r3
 800082a:	4b08      	ldr	r3, [pc, #32]	; (800084c <EXTI15_10_IRQHandler+0xbc>)
 800082c:	695b      	ldr	r3, [r3, #20]
 800082e:	f403 4300 	and.w	r3, r3, #32768	; 0x8000
 8000832:	2b00      	cmp	r3, #0
 8000834:	d008      	beq.n	8000848 <EXTI15_10_IRQHandler+0xb8>
 8000836:	4b05      	ldr	r3, [pc, #20]	; (800084c <EXTI15_10_IRQHandler+0xbc>)
 8000838:	695b      	ldr	r3, [r3, #20]
 800083a:	4a04      	ldr	r2, [pc, #16]	; (800084c <EXTI15_10_IRQHandler+0xbc>)
 800083c:	f443 4300 	orr.w	r3, r3, #32768	; 0x8000
 8000840:	6153      	str	r3, [r2, #20]
 8000842:	4b03      	ldr	r3, [pc, #12]	; (8000850 <EXTI15_10_IRQHandler+0xc0>)
 8000844:	6bdb      	ldr	r3, [r3, #60]	; 0x3c
 8000846:	4798      	blx	r3
 8000848:	bf00      	nop
 800084a:	bd80      	pop	{r7, pc}
 800084c:	40010400 	andmi	r0, r1, r0, lsl #8
 8000850:	20000024 	andcs	r0, r0, r4, lsr #32

08000854 <Get_CRLH_Position>:
 8000854:	b480      	push	{r7}
 8000856:	b083      	sub	sp, #12
 8000858:	af00      	add	r7, sp, #0
 800085a:	4603      	mov	r3, r0
 800085c:	80fb      	strh	r3, [r7, #6]
 800085e:	88fb      	ldrh	r3, [r7, #6]
 8000860:	f5b3 4f00 	cmp.w	r3, #32768	; 0x8000
 8000864:	f000 80a5 	beq.w	80009b2 <Get_CRLH_Position+0x15e>
 8000868:	f5b3 4f00 	cmp.w	r3, #32768	; 0x8000
 800086c:	f300 80a3 	bgt.w	80009b6 <Get_CRLH_Position+0x162>
 8000870:	f5b3 4f80 	cmp.w	r3, #16384	; 0x4000
 8000874:	f000 809b 	beq.w	80009ae <Get_CRLH_Position+0x15a>
 8000878:	f5b3 4f80 	cmp.w	r3, #16384	; 0x4000
 800087c:	f300 809b 	bgt.w	80009b6 <Get_CRLH_Position+0x162>
 8000880:	f5b3 5f00 	cmp.w	r3, #8192	; 0x2000
 8000884:	f000 8091 	beq.w	80009aa <Get_CRLH_Position+0x156>
 8000888:	f5b3 5f00 	cmp.w	r3, #8192	; 0x2000
 800088c:	f300 8093 	bgt.w	80009b6 <Get_CRLH_Position+0x162>
 8000890:	f5b3 5f80 	cmp.w	r3, #4096	; 0x1000
 8000894:	f000 8087 	beq.w	80009a6 <Get_CRLH_Position+0x152>
 8000898:	f5b3 5f80 	cmp.w	r3, #4096	; 0x1000
 800089c:	f300 808b 	bgt.w	80009b6 <Get_CRLH_Position+0x162>
 80008a0:	f5b3 6f00 	cmp.w	r3, #2048	; 0x800
 80008a4:	d07d      	beq.n	80009a2 <Get_CRLH_Position+0x14e>
 80008a6:	f5b3 6f00 	cmp.w	r3, #2048	; 0x800
 80008aa:	f300 8084 	bgt.w	80009b6 <Get_CRLH_Position+0x162>
 80008ae:	f5b3 6f80 	cmp.w	r3, #1024	; 0x400
 80008b2:	d074      	beq.n	800099e <Get_CRLH_Position+0x14a>
 80008b4:	f5b3 6f80 	cmp.w	r3, #1024	; 0x400
 80008b8:	dc7d      	bgt.n	80009b6 <Get_CRLH_Position+0x162>
 80008ba:	f5b3 7f00 	cmp.w	r3, #512	; 0x200
 80008be:	d06c      	beq.n	800099a <Get_CRLH_Position+0x146>
 80008c0:	f5b3 7f00 	cmp.w	r3, #512	; 0x200
 80008c4:	dc77      	bgt.n	80009b6 <Get_CRLH_Position+0x162>
 80008c6:	f5b3 7f80 	cmp.w	r3, #256	; 0x100
 80008ca:	d064      	beq.n	8000996 <Get_CRLH_Position+0x142>
 80008cc:	f5b3 7f80 	cmp.w	r3, #256	; 0x100
 80008d0:	dc71      	bgt.n	80009b6 <Get_CRLH_Position+0x162>
 80008d2:	2b80      	cmp	r3, #128	; 0x80
 80008d4:	d05d      	beq.n	8000992 <Get_CRLH_Position+0x13e>
 80008d6:	2b80      	cmp	r3, #128	; 0x80
 80008d8:	dc6d      	bgt.n	80009b6 <Get_CRLH_Position+0x162>
 80008da:	2b20      	cmp	r3, #32
 80008dc:	dc48      	bgt.n	8000970 <Get_CRLH_Position+0x11c>
 80008de:	2b00      	cmp	r3, #0
 80008e0:	dd69      	ble.n	80009b6 <Get_CRLH_Position+0x162>
 80008e2:	3b01      	subs	r3, #1
 80008e4:	2b1f      	cmp	r3, #31
 80008e6:	d866      	bhi.n	80009b6 <Get_CRLH_Position+0x162>
 80008e8:	a201      	add	r2, pc, #4	; (adr r2, 80008f0 <Get_CRLH_Position+0x9c>)
 80008ea:	f852 f023 	ldr.w	pc, [r2, r3, lsl #2]
 80008ee:	bf00      	nop
 80008f0:	08000977 	stmdaeq	r0, {r0, r1, r2, r4, r5, r6, r8, fp}
 80008f4:	0800097b 	stmdaeq	r0, {r0, r1, r3, r4, r5, r6, r8, fp}
 80008f8:	080009b7 	stmdaeq	r0, {r0, r1, r2, r4, r5, r7, r8, fp}
 80008fc:	0800097f 	stmdaeq	r0, {r0, r1, r2, r3, r4, r5, r6, r8, fp}
 8000900:	080009b7 	stmdaeq	r0, {r0, r1, r2, r4, r5, r7, r8, fp}
 8000904:	080009b7 	stmdaeq	r0, {r0, r1, r2, r4, r5, r7, r8, fp}
 8000908:	080009b7 	stmdaeq	r0, {r0, r1, r2, r4, r5, r7, r8, fp}
 800090c:	08000983 	stmdaeq	r0, {r0, r1, r7, r8, fp}
 8000910:	080009b7 	stmdaeq	r0, {r0, r1, r2, r4, r5, r7, r8, fp}
 8000914:	080009b7 	stmdaeq	r0, {r0, r1, r2, r4, r5, r7, r8, fp}
 8000918:	080009b7 	stmdaeq	r0, {r0, r1, r2, r4, r5, r7, r8, fp}
 800091c:	080009b7 	stmdaeq	r0, {r0, r1, r2, r4, r5, r7, r8, fp}
 8000920:	080009b7 	stmdaeq	r0, {r0, r1, r2, r4, r5, r7, r8, fp}
 8000924:	080009b7 	stmdaeq	r0, {r0, r1, r2, r4, r5, r7, r8, fp}
 8000928:	080009b7 	stmdaeq	r0, {r0, r1, r2, r4, r5, r7, r8, fp}
 800092c:	08000987 	stmdaeq	r0, {r0, r1, r2, r7, r8, fp}
 8000930:	080009b7 	stmdaeq	r0, {r0, r1, r2, r4, r5, r7, r8, fp}
 8000934:	080009b7 	stmdaeq	r0, {r0, r1, r2, r4, r5, r7, r8, fp}
 8000938:	080009b7 	stmdaeq	r0, {r0, r1, r2, r4, r5, r7, r8, fp}
 800093c:	080009b7 	stmdaeq	r0, {r0, r1, r2, r4, r5, r7, r8, fp}
 8000940:	080009b7 	stmdaeq	r0, {r0, r1, r2, r4, r5, r7, r8, fp}
 8000944:	080009b7 	stmdaeq	r0, {r0, r1, r2, r4, r5, r7, r8, fp}
 8000948:	080009b7 	stmdaeq	r0, {r0, r1, r2, r4, r5, r7, r8, fp}
 800094c:	080009b7 	stmdaeq	r0, {r0, r1, r2, r4, r5, r7, r8, fp}
 8000950:	080009b7 	stmdaeq	r0, {r0, r1, r2, r4, r5, r7, r8, fp}
 8000954:	080009b7 	stmdaeq	r0, {r0, r1, r2, r4, r5, r7, r8, fp}
 8000958:	080009b7 	stmdaeq	r0, {r0, r1, r2, r4, r5, r7, r8, fp}
 800095c:	080009b7 	stmdaeq	r0, {r0, r1, r2, r4, r5, r7, r8, fp}
 8000960:	080009b7 	stmdaeq	r0, {r0, r1, r2, r4, r5, r7, r8, fp}
 8000964:	080009b7 	stmdaeq	r0, {r0, r1, r2, r4, r5, r7, r8, fp}
 8000968:	080009b7 	stmdaeq	r0, {r0, r1, r2, r4, r5, r7, r8, fp}
 800096c:	0800098b 	stmdaeq	r0, {r0, r1, r3, r7, r8, fp}
 8000970:	2b40      	cmp	r3, #64	; 0x40
 8000972:	d00c      	beq.n	800098e <Get_CRLH_Position+0x13a>
 8000974:	e01f      	b.n	80009b6 <Get_CRLH_Position+0x162>
 8000976:	2300      	movs	r3, #0
 8000978:	e01e      	b.n	80009b8 <Get_CRLH_Position+0x164>
 800097a:	2304      	movs	r3, #4
 800097c:	e01c      	b.n	80009b8 <Get_CRLH_Position+0x164>
 800097e:	2308      	movs	r3, #8
 8000980:	e01a      	b.n	80009b8 <Get_CRLH_Position+0x164>
 8000982:	230c      	movs	r3, #12
 8000984:	e018      	b.n	80009b8 <Get_CRLH_Position+0x164>
 8000986:	2310      	movs	r3, #16
 8000988:	e016      	b.n	80009b8 <Get_CRLH_Position+0x164>
 800098a:	2314      	movs	r3, #20
 800098c:	e014      	b.n	80009b8 <Get_CRLH_Position+0x164>
 800098e:	2318      	movs	r3, #24
 8000990:	e012      	b.n	80009b8 <Get_CRLH_Position+0x164>
 8000992:	231c      	movs	r3, #28
 8000994:	e010      	b.n	80009b8 <Get_CRLH_Position+0x164>
 8000996:	2300      	movs	r3, #0
 8000998:	e00e      	b.n	80009b8 <Get_CRLH_Position+0x164>
 800099a:	2304      	movs	r3, #4
 800099c:	e00c      	b.n	80009b8 <Get_CRLH_Position+0x164>
 800099e:	2308      	movs	r3, #8
 80009a0:	e00a      	b.n	80009b8 <Get_CRLH_Position+0x164>
 80009a2:	230c      	movs	r3, #12
 80009a4:	e008      	b.n	80009b8 <Get_CRLH_Position+0x164>
 80009a6:	2310      	movs	r3, #16
 80009a8:	e006      	b.n	80009b8 <Get_CRLH_Position+0x164>
 80009aa:	2314      	movs	r3, #20
 80009ac:	e004      	b.n	80009b8 <Get_CRLH_Position+0x164>
 80009ae:	2318      	movs	r3, #24
 80009b0:	e002      	b.n	80009b8 <Get_CRLH_Position+0x164>
 80009b2:	231c      	movs	r3, #28
 80009b4:	e000      	b.n	80009b8 <Get_CRLH_Position+0x164>
 80009b6:	2300      	movs	r3, #0
 80009b8:	4618      	mov	r0, r3
 80009ba:	370c      	adds	r7, #12
 80009bc:	46bd      	mov	sp, r7
 80009be:	bc80      	pop	{r7}
 80009c0:	4770      	bx	lr
 80009c2:	bf00      	nop

080009c4 <MCAL_GPIO_Init>:
 80009c4:	b590      	push	{r4, r7, lr}
 80009c6:	b085      	sub	sp, #20
 80009c8:	af00      	add	r7, sp, #0
 80009ca:	6078      	str	r0, [r7, #4]
 80009cc:	6039      	str	r1, [r7, #0]
 80009ce:	2300      	movs	r3, #0
 80009d0:	60bb      	str	r3, [r7, #8]
 80009d2:	2300      	movs	r3, #0
 80009d4:	73fb      	strb	r3, [r7, #15]
 80009d6:	683b      	ldr	r3, [r7, #0]
 80009d8:	881b      	ldrh	r3, [r3, #0]
 80009da:	2bff      	cmp	r3, #255	; 0xff
 80009dc:	d801      	bhi.n	80009e2 <MCAL_GPIO_Init+0x1e>
 80009de:	687b      	ldr	r3, [r7, #4]
 80009e0:	e001      	b.n	80009e6 <MCAL_GPIO_Init+0x22>
 80009e2:	687b      	ldr	r3, [r7, #4]
 80009e4:	3304      	adds	r3, #4
 80009e6:	60bb      	str	r3, [r7, #8]
 80009e8:	683b      	ldr	r3, [r7, #0]
 80009ea:	881b      	ldrh	r3, [r3, #0]
 80009ec:	4618      	mov	r0, r3
 80009ee:	f7ff ff31 	bl	8000854 <Get_CRLH_Position>
 80009f2:	4603      	mov	r3, r0
 80009f4:	461a      	mov	r2, r3
 80009f6:	230f      	movs	r3, #15
 80009f8:	4093      	lsls	r3, r2
 80009fa:	43da      	mvns	r2, r3
 80009fc:	68bb      	ldr	r3, [r7, #8]
 80009fe:	681b      	ldr	r3, [r3, #0]
 8000a00:	401a      	ands	r2, r3
 8000a02:	68bb      	ldr	r3, [r7, #8]
 8000a04:	601a      	str	r2, [r3, #0]
 8000a06:	683b      	ldr	r3, [r7, #0]
 8000a08:	789b      	ldrb	r3, [r3, #2]
 8000a0a:	2b04      	cmp	r3, #4
 8000a0c:	d00b      	beq.n	8000a26 <MCAL_GPIO_Init+0x62>
 8000a0e:	683b      	ldr	r3, [r7, #0]
 8000a10:	789b      	ldrb	r3, [r3, #2]
 8000a12:	2b05      	cmp	r3, #5
 8000a14:	d007      	beq.n	8000a26 <MCAL_GPIO_Init+0x62>
 8000a16:	683b      	ldr	r3, [r7, #0]
 8000a18:	789b      	ldrb	r3, [r3, #2]
 8000a1a:	2b06      	cmp	r3, #6
 8000a1c:	d003      	beq.n	8000a26 <MCAL_GPIO_Init+0x62>
 8000a1e:	683b      	ldr	r3, [r7, #0]
 8000a20:	789b      	ldrb	r3, [r3, #2]
 8000a22:	2b07      	cmp	r3, #7
 8000a24:	d10e      	bne.n	8000a44 <MCAL_GPIO_Init+0x80>
 8000a26:	683b      	ldr	r3, [r7, #0]
 8000a28:	789b      	ldrb	r3, [r3, #2]
 8000a2a:	3b04      	subs	r3, #4
 8000a2c:	009b      	lsls	r3, r3, #2
 8000a2e:	b25a      	sxtb	r2, r3
 8000a30:	683b      	ldr	r3, [r7, #0]
 8000a32:	78db      	ldrb	r3, [r3, #3]
 8000a34:	b25b      	sxtb	r3, r3
 8000a36:	f003 030f 	and.w	r3, r3, #15
 8000a3a:	b25b      	sxtb	r3, r3
 8000a3c:	4313      	orrs	r3, r2
 8000a3e:	b25b      	sxtb	r3, r3
 8000a40:	73fb      	strb	r3, [r7, #15]
 8000a42:	e029      	b.n	8000a98 <MCAL_GPIO_Init+0xd4>
 8000a44:	683b      	ldr	r3, [r7, #0]
 8000a46:	789b      	ldrb	r3, [r3, #2]
 8000a48:	2b00      	cmp	r3, #0
 8000a4a:	d003      	beq.n	8000a54 <MCAL_GPIO_Init+0x90>
 8000a4c:	683b      	ldr	r3, [r7, #0]
 8000a4e:	789b      	ldrb	r3, [r3, #2]
 8000a50:	2b01      	cmp	r3, #1
 8000a52:	d104      	bne.n	8000a5e <MCAL_GPIO_Init+0x9a>
 8000a54:	683b      	ldr	r3, [r7, #0]
 8000a56:	789b      	ldrb	r3, [r3, #2]
 8000a58:	009b      	lsls	r3, r3, #2
 8000a5a:	73fb      	strb	r3, [r7, #15]
 8000a5c:	e01c      	b.n	8000a98 <MCAL_GPIO_Init+0xd4>
 8000a5e:	683b      	ldr	r3, [r7, #0]
 8000a60:	789b      	ldrb	r3, [r3, #2]
 8000a62:	2b08      	cmp	r3, #8
 8000a64:	d102      	bne.n	8000a6c <MCAL_GPIO_Init+0xa8>
 8000a66:	2304      	movs	r3, #4
 8000a68:	73fb      	strb	r3, [r7, #15]
 8000a6a:	e015      	b.n	8000a98 <MCAL_GPIO_Init+0xd4>
 8000a6c:	2308      	movs	r3, #8
 8000a6e:	73fb      	strb	r3, [r7, #15]
 8000a70:	683b      	ldr	r3, [r7, #0]
 8000a72:	789b      	ldrb	r3, [r3, #2]
 8000a74:	2b02      	cmp	r3, #2
 8000a76:	d107      	bne.n	8000a88 <MCAL_GPIO_Init+0xc4>
 8000a78:	687b      	ldr	r3, [r7, #4]
 8000a7a:	68db      	ldr	r3, [r3, #12]
 8000a7c:	683a      	ldr	r2, [r7, #0]
 8000a7e:	8812      	ldrh	r2, [r2, #0]
 8000a80:	431a      	orrs	r2, r3
 8000a82:	687b      	ldr	r3, [r7, #4]
 8000a84:	60da      	str	r2, [r3, #12]
 8000a86:	e007      	b.n	8000a98 <MCAL_GPIO_Init+0xd4>
 8000a88:	687b      	ldr	r3, [r7, #4]
 8000a8a:	68db      	ldr	r3, [r3, #12]
 8000a8c:	683a      	ldr	r2, [r7, #0]
 8000a8e:	8812      	ldrh	r2, [r2, #0]
 8000a90:	43d2      	mvns	r2, r2
 8000a92:	401a      	ands	r2, r3
 8000a94:	687b      	ldr	r3, [r7, #4]
 8000a96:	60da      	str	r2, [r3, #12]
 8000a98:	7bfc      	ldrb	r4, [r7, #15]
 8000a9a:	683b      	ldr	r3, [r7, #0]
 8000a9c:	881b      	ldrh	r3, [r3, #0]
 8000a9e:	4618      	mov	r0, r3
 8000aa0:	f7ff fed8 	bl	8000854 <Get_CRLH_Position>
 8000aa4:	4603      	mov	r3, r0
 8000aa6:	fa04 f203 	lsl.w	r2, r4, r3
 8000aaa:	68bb      	ldr	r3, [r7, #8]
 8000aac:	681b      	ldr	r3, [r3, #0]
 8000aae:	431a      	orrs	r2, r3
 8000ab0:	68bb      	ldr	r3, [r7, #8]
 8000ab2:	601a      	str	r2, [r3, #0]
 8000ab4:	bf00      	nop
 8000ab6:	3714      	adds	r7, #20
 8000ab8:	46bd      	mov	sp, r7
 8000aba:	bd90      	pop	{r4, r7, pc}

08000abc <__libc_init_array>:
 8000abc:	b570      	push	{r4, r5, r6, lr}
 8000abe:	2600      	movs	r6, #0
 8000ac0:	4d0c      	ldr	r5, [pc, #48]	; (8000af4 <__libc_init_array+0x38>)
 8000ac2:	4c0d      	ldr	r4, [pc, #52]	; (8000af8 <__libc_init_array+0x3c>)
 8000ac4:	1b64      	subs	r4, r4, r5
 8000ac6:	10a4      	asrs	r4, r4, #2
 8000ac8:	42a6      	cmp	r6, r4
 8000aca:	d109      	bne.n	8000ae0 <__libc_init_array+0x24>
 8000acc:	f000 f81a 	bl	8000b04 <_init>
 8000ad0:	2600      	movs	r6, #0
 8000ad2:	4d0a      	ldr	r5, [pc, #40]	; (8000afc <__libc_init_array+0x40>)
 8000ad4:	4c0a      	ldr	r4, [pc, #40]	; (8000b00 <__libc_init_array+0x44>)
 8000ad6:	1b64      	subs	r4, r4, r5
 8000ad8:	10a4      	asrs	r4, r4, #2
 8000ada:	42a6      	cmp	r6, r4
 8000adc:	d105      	bne.n	8000aea <__libc_init_array+0x2e>
 8000ade:	bd70      	pop	{r4, r5, r6, pc}
 8000ae0:	f855 3b04 	ldr.w	r3, [r5], #4
 8000ae4:	4798      	blx	r3
 8000ae6:	3601      	adds	r6, #1
 8000ae8:	e7ee      	b.n	8000ac8 <__libc_init_array+0xc>
 8000aea:	f855 3b04 	ldr.w	r3, [r5], #4
 8000aee:	4798      	blx	r3
 8000af0:	3601      	adds	r6, #1
 8000af2:	e7f2      	b.n	8000ada <__libc_init_array+0x1e>
 8000af4:	08000b28 	stmdaeq	r0, {r3, r5, r8, r9, fp}
 8000af8:	08000b28 	stmdaeq	r0, {r3, r5, r8, r9, fp}
 8000afc:	08000b28 	stmdaeq	r0, {r3, r5, r8, r9, fp}
 8000b00:	08000b2c 	stmdaeq	r0, {r2, r3, r5, r8, r9, fp}

08000b04 <_init>:
 8000b04:	b5f8      	push	{r3, r4, r5, r6, r7, lr}
 8000b06:	bf00      	nop
 8000b08:	bcf8      	pop	{r3, r4, r5, r6, r7}
 8000b0a:	bc08      	pop	{r3}
 8000b0c:	469e      	mov	lr, r3
 8000b0e:	4770      	bx	lr

08000b10 <_fini>:
 8000b10:	b5f8      	push	{r3, r4, r5, r6, r7, lr}
 8000b12:	bf00      	nop
 8000b14:	bcf8      	pop	{r3, r4, r5, r6, r7}
 8000b16:	bc08      	pop	{r3}
 8000b18:	469e      	mov	lr, r3
 8000b1a:	4770      	bx	lr
