
Drivers.axf:     file format elf32-littlearm


Disassembly of section .isr_vector:

08000000 <g_pfnVectors>:
 8000000:	20002800 	andcs	r2, r0, r0, lsl #16
 8000004:	08000269 	stmdaeq	r0, {r0, r3, r5, r6, r9}
 8000008:	080002b9 	stmdaeq	r0, {r0, r3, r4, r5, r7, r9}
 800000c:	080001b1 	stmdaeq	r0, {r0, r4, r5, r7, r8}
 8000010:	080002b9 	stmdaeq	r0, {r0, r3, r4, r5, r7, r9}
 8000014:	080002b9 	stmdaeq	r0, {r0, r3, r4, r5, r7, r9}
 8000018:	080002b9 	stmdaeq	r0, {r0, r3, r4, r5, r7, r9}
	...
 800002c:	080002b9 	stmdaeq	r0, {r0, r3, r4, r5, r7, r9}
 8000030:	080002b9 	stmdaeq	r0, {r0, r3, r4, r5, r7, r9}
 8000034:	00000000 	andeq	r0, r0, r0
 8000038:	080002b9 	stmdaeq	r0, {r0, r3, r4, r5, r7, r9}
 800003c:	080002b9 	stmdaeq	r0, {r0, r3, r4, r5, r7, r9}
 8000040:	080002b9 	stmdaeq	r0, {r0, r3, r4, r5, r7, r9}
 8000044:	080002b9 	stmdaeq	r0, {r0, r3, r4, r5, r7, r9}
 8000048:	080002b9 	stmdaeq	r0, {r0, r3, r4, r5, r7, r9}
 800004c:	080002b9 	stmdaeq	r0, {r0, r3, r4, r5, r7, r9}
 8000050:	080002b9 	stmdaeq	r0, {r0, r3, r4, r5, r7, r9}
 8000054:	080002b9 	stmdaeq	r0, {r0, r3, r4, r5, r7, r9}
 8000058:	08000635 	stmdaeq	r0, {r0, r2, r4, r5, r9, sl}
 800005c:	08000659 	stmdaeq	r0, {r0, r3, r4, r6, r9, sl}
 8000060:	0800067d 	stmdaeq	r0, {r0, r2, r3, r4, r5, r6, r9, sl}
 8000064:	080006a1 	stmdaeq	r0, {r0, r5, r7, r9, sl}
 8000068:	080006c5 	stmdaeq	r0, {r0, r2, r6, r7, r9, sl}
 800006c:	080002b9 	stmdaeq	r0, {r0, r3, r4, r5, r7, r9}
 8000070:	080002b9 	stmdaeq	r0, {r0, r3, r4, r5, r7, r9}
 8000074:	080002b9 	stmdaeq	r0, {r0, r3, r4, r5, r7, r9}
 8000078:	080002b9 	stmdaeq	r0, {r0, r3, r4, r5, r7, r9}
 800007c:	080002b9 	stmdaeq	r0, {r0, r3, r4, r5, r7, r9}
 8000080:	080002b9 	stmdaeq	r0, {r0, r3, r4, r5, r7, r9}
 8000084:	080002b9 	stmdaeq	r0, {r0, r3, r4, r5, r7, r9}
 8000088:	080002b9 	stmdaeq	r0, {r0, r3, r4, r5, r7, r9}
 800008c:	080002b9 	stmdaeq	r0, {r0, r3, r4, r5, r7, r9}
 8000090:	080002b9 	stmdaeq	r0, {r0, r3, r4, r5, r7, r9}
 8000094:	080002b9 	stmdaeq	r0, {r0, r3, r4, r5, r7, r9}
 8000098:	080002b9 	stmdaeq	r0, {r0, r3, r4, r5, r7, r9}
 800009c:	080006e9 	stmdaeq	r0, {r0, r3, r5, r6, r7, r9, sl}
 80000a0:	080002b9 	stmdaeq	r0, {r0, r3, r4, r5, r7, r9}
 80000a4:	080002b9 	stmdaeq	r0, {r0, r3, r4, r5, r7, r9}
 80000a8:	080002b9 	stmdaeq	r0, {r0, r3, r4, r5, r7, r9}
 80000ac:	080002b9 	stmdaeq	r0, {r0, r3, r4, r5, r7, r9}
 80000b0:	080002b9 	stmdaeq	r0, {r0, r3, r4, r5, r7, r9}
 80000b4:	080002b9 	stmdaeq	r0, {r0, r3, r4, r5, r7, r9}
 80000b8:	080002b9 	stmdaeq	r0, {r0, r3, r4, r5, r7, r9}
 80000bc:	080002b9 	stmdaeq	r0, {r0, r3, r4, r5, r7, r9}
 80000c0:	080002b9 	stmdaeq	r0, {r0, r3, r4, r5, r7, r9}
 80000c4:	080002b9 	stmdaeq	r0, {r0, r3, r4, r5, r7, r9}
 80000c8:	080002b9 	stmdaeq	r0, {r0, r3, r4, r5, r7, r9}
 80000cc:	080002b9 	stmdaeq	r0, {r0, r3, r4, r5, r7, r9}
 80000d0:	080002b9 	stmdaeq	r0, {r0, r3, r4, r5, r7, r9}
 80000d4:	080002b9 	stmdaeq	r0, {r0, r3, r4, r5, r7, r9}
 80000d8:	080002b9 	stmdaeq	r0, {r0, r3, r4, r5, r7, r9}
 80000dc:	080002b9 	stmdaeq	r0, {r0, r3, r4, r5, r7, r9}
 80000e0:	08000791 	stmdaeq	r0, {r0, r4, r7, r8, r9, sl}
 80000e4:	080002b9 	stmdaeq	r0, {r0, r3, r4, r5, r7, r9}
 80000e8:	00000000 	andeq	r0, r0, r0
 80000ec:	080002b9 	stmdaeq	r0, {r0, r3, r4, r5, r7, r9}
 80000f0:	080002b9 	stmdaeq	r0, {r0, r3, r4, r5, r7, r9}
 80000f4:	080002b9 	stmdaeq	r0, {r0, r3, r4, r5, r7, r9}
 80000f8:	080002b9 	stmdaeq	r0, {r0, r3, r4, r5, r7, r9}
 80000fc:	080002b9 	stmdaeq	r0, {r0, r3, r4, r5, r7, r9}
 8000100:	080002b9 	stmdaeq	r0, {r0, r3, r4, r5, r7, r9}
 8000104:	080002b9 	stmdaeq	r0, {r0, r3, r4, r5, r7, r9}
 8000108:	080002b9 	stmdaeq	r0, {r0, r3, r4, r5, r7, r9}
 800010c:	080002b9 	stmdaeq	r0, {r0, r3, r4, r5, r7, r9}
 8000110:	080002b9 	stmdaeq	r0, {r0, r3, r4, r5, r7, r9}
 8000114:	080002b9 	stmdaeq	r0, {r0, r3, r4, r5, r7, r9}
 8000118:	080002b9 	stmdaeq	r0, {r0, r3, r4, r5, r7, r9}
 800011c:	080002b9 	stmdaeq	r0, {r0, r3, r4, r5, r7, r9}
 8000120:	080002b9 	stmdaeq	r0, {r0, r3, r4, r5, r7, r9}
 8000124:	080002b9 	stmdaeq	r0, {r0, r3, r4, r5, r7, r9}
 8000128:	080002b9 	stmdaeq	r0, {r0, r3, r4, r5, r7, r9}
 800012c:	080002b9 	stmdaeq	r0, {r0, r3, r4, r5, r7, r9}

Disassembly of section .text:

08000130 <__do_global_dtors_aux>:
 8000130:	b510      	push	{r4, lr}
 8000132:	4c05      	ldr	r4, [pc, #20]	; (8000148 <__do_global_dtors_aux+0x18>)
 8000134:	7823      	ldrb	r3, [r4, #0]
 8000136:	b933      	cbnz	r3, 8000146 <__do_global_dtors_aux+0x16>
 8000138:	4b04      	ldr	r3, [pc, #16]	; (800014c <__do_global_dtors_aux+0x1c>)
 800013a:	b113      	cbz	r3, 8000142 <__do_global_dtors_aux+0x12>
 800013c:	4804      	ldr	r0, [pc, #16]	; (8000150 <__do_global_dtors_aux+0x20>)
 800013e:	f3af 8000 	nop.w
 8000142:	2301      	movs	r3, #1
 8000144:	7023      	strb	r3, [r4, #0]
 8000146:	bd10      	pop	{r4, pc}
 8000148:	20000000 	andcs	r0, r0, r0
 800014c:	00000000 	andeq	r0, r0, r0
 8000150:	08000b04 	stmdaeq	r0, {r2, r8, r9, fp}

08000154 <frame_dummy>:
 8000154:	b508      	push	{r3, lr}
 8000156:	4b03      	ldr	r3, [pc, #12]	; (8000164 <frame_dummy+0x10>)
 8000158:	b11b      	cbz	r3, 8000162 <frame_dummy+0xe>
 800015a:	4903      	ldr	r1, [pc, #12]	; (8000168 <frame_dummy+0x14>)
 800015c:	4803      	ldr	r0, [pc, #12]	; (800016c <frame_dummy+0x18>)
 800015e:	f3af 8000 	nop.w
 8000162:	bd08      	pop	{r3, pc}
 8000164:	00000000 	andeq	r0, r0, r0
 8000168:	20000004 	andcs	r0, r0, r4
 800016c:	08000b04 	stmdaeq	r0, {r2, r8, r9, fp}

08000170 <Switch_CPU_AccessLevel>:
 8000170:	b480      	push	{r7}
 8000172:	b083      	sub	sp, #12
 8000174:	af00      	add	r7, sp, #0
 8000176:	4603      	mov	r3, r0
 8000178:	71fb      	strb	r3, [r7, #7]
 800017a:	79fb      	ldrb	r3, [r7, #7]
 800017c:	2b00      	cmp	r3, #0
 800017e:	d002      	beq.n	8000186 <Switch_CPU_AccessLevel+0x16>
 8000180:	2b01      	cmp	r3, #1
 8000182:	d009      	beq.n	8000198 <Switch_CPU_AccessLevel+0x28>
 8000184:	e00f      	b.n	80001a6 <Switch_CPU_AccessLevel+0x36>
 8000186:	f3ef 8314 	mrs	r3, CONTROL
 800018a:	ea4f 0353 	mov.w	r3, r3, lsr #1
 800018e:	ea4f 0343 	mov.w	r3, r3, lsl #1
 8000192:	f383 8814 	msr	CONTROL, r3
 8000196:	e006      	b.n	80001a6 <Switch_CPU_AccessLevel+0x36>
 8000198:	f3ef 8314 	mrs	r3, CONTROL
 800019c:	f043 0301 	orr.w	r3, r3, #1
 80001a0:	f383 8814 	msr	CONTROL, r3
 80001a4:	bf00      	nop
 80001a6:	bf00      	nop
 80001a8:	370c      	adds	r7, #12
 80001aa:	46bd      	mov	sp, r7
 80001ac:	bc80      	pop	{r7}
 80001ae:	4770      	bx	lr

080001b0 <HardFault_Handler>:
 80001b0:	b580      	push	{r7, lr}
 80001b2:	af00      	add	r7, sp, #0
 80001b4:	2000      	movs	r0, #0
 80001b6:	f7ff ffdb 	bl	8000170 <Switch_CPU_AccessLevel>
 80001ba:	bf00      	nop
 80001bc:	bd80      	pop	{r7, pc}
	...

080001c0 <EXTI9_callBack>:
 80001c0:	b580      	push	{r7, lr}
 80001c2:	af00      	add	r7, sp, #0
 80001c4:	2000      	movs	r0, #0
 80001c6:	f7ff ffd3 	bl	8000170 <Switch_CPU_AccessLevel>
 80001ca:	f3ef 8405 	mrs	r4, IPSR
 80001ce:	4623      	mov	r3, r4
 80001d0:	4a03      	ldr	r2, [pc, #12]	; (80001e0 <EXTI9_callBack+0x20>)
 80001d2:	6013      	str	r3, [r2, #0]
 80001d4:	4b03      	ldr	r3, [pc, #12]	; (80001e4 <EXTI9_callBack+0x24>)
 80001d6:	2201      	movs	r2, #1
 80001d8:	601a      	str	r2, [r3, #0]
 80001da:	bf00      	nop
 80001dc:	bd80      	pop	{r7, pc}
 80001de:	bf00      	nop
 80001e0:	20000020 	andcs	r0, r0, r0, lsr #32
 80001e4:	2000001c 	andcs	r0, r0, ip, lsl r0

080001e8 <main>:
 80001e8:	b580      	push	{r7, lr}
 80001ea:	b08a      	sub	sp, #40	; 0x28
 80001ec:	af00      	add	r7, sp, #0
 80001ee:	4b1a      	ldr	r3, [pc, #104]	; (8000258 <main+0x70>)
 80001f0:	699b      	ldr	r3, [r3, #24]
 80001f2:	4a19      	ldr	r2, [pc, #100]	; (8000258 <main+0x70>)
 80001f4:	f043 0308 	orr.w	r3, r3, #8
 80001f8:	6193      	str	r3, [r2, #24]
 80001fa:	4b17      	ldr	r3, [pc, #92]	; (8000258 <main+0x70>)
 80001fc:	699b      	ldr	r3, [r3, #24]
 80001fe:	4a16      	ldr	r2, [pc, #88]	; (8000258 <main+0x70>)
 8000200:	f043 0301 	orr.w	r3, r3, #1
 8000204:	6193      	str	r3, [r2, #24]
 8000206:	2001      	movs	r0, #1
 8000208:	f7ff ffb2 	bl	8000170 <Switch_CPU_AccessLevel>
 800020c:	4a13      	ldr	r2, [pc, #76]	; (800025c <main+0x74>)
 800020e:	f107 0310 	add.w	r3, r7, #16
 8000212:	ca07      	ldmia	r2, {r0, r1, r2}
 8000214:	e883 0007 	stmia.w	r3, {r0, r1, r2}
 8000218:	2300      	movs	r3, #0
 800021a:	773b      	strb	r3, [r7, #28]
 800021c:	4b10      	ldr	r3, [pc, #64]	; (8000260 <main+0x78>)
 800021e:	623b      	str	r3, [r7, #32]
 8000220:	2301      	movs	r3, #1
 8000222:	777b      	strb	r3, [r7, #29]
 8000224:	f107 0310 	add.w	r3, r7, #16
 8000228:	4618      	mov	r0, r3
 800022a:	f000 f9f7 	bl	800061c <Mcal_EXTI_GPIO_init>
 800022e:	bf00      	nop
 8000230:	bf00      	nop
 8000232:	f3ef 8514 	mrs	r5, CONTROL
 8000236:	462b      	mov	r3, r5
 8000238:	627b      	str	r3, [r7, #36]	; 0x24
 800023a:	2001      	movs	r0, #1
 800023c:	f7ff ff98 	bl	8000170 <Switch_CPU_AccessLevel>
 8000240:	4b08      	ldr	r3, [pc, #32]	; (8000264 <main+0x7c>)
 8000242:	2201      	movs	r2, #1
 8000244:	601a      	str	r2, [r3, #0]
 8000246:	4b07      	ldr	r3, [pc, #28]	; (8000264 <main+0x7c>)
 8000248:	681b      	ldr	r3, [r3, #0]
 800024a:	2b00      	cmp	r3, #0
 800024c:	d0fb      	beq.n	8000246 <main+0x5e>
 800024e:	4b05      	ldr	r3, [pc, #20]	; (8000264 <main+0x7c>)
 8000250:	2200      	movs	r2, #0
 8000252:	601a      	str	r2, [r3, #0]
 8000254:	e7f7      	b.n	8000246 <main+0x5e>
 8000256:	bf00      	nop
 8000258:	40021000 	andmi	r1, r2, r0
 800025c:	08000b1c 	stmdaeq	r0, {r2, r3, r4, r8, r9, fp}
 8000260:	080001c1 	stmdaeq	r0, {r0, r6, r7, r8}
 8000264:	2000001c 	andcs	r0, r0, ip, lsl r0

08000268 <Reset_Handler>:
 8000268:	480d      	ldr	r0, [pc, #52]	; (80002a0 <LoopForever+0x2>)
 800026a:	4685      	mov	sp, r0
 800026c:	f3af 8000 	nop.w
 8000270:	480c      	ldr	r0, [pc, #48]	; (80002a4 <LoopForever+0x6>)
 8000272:	490d      	ldr	r1, [pc, #52]	; (80002a8 <LoopForever+0xa>)
 8000274:	4a0d      	ldr	r2, [pc, #52]	; (80002ac <LoopForever+0xe>)
 8000276:	2300      	movs	r3, #0
 8000278:	e002      	b.n	8000280 <LoopCopyDataInit>

0800027a <CopyDataInit>:
 800027a:	58d4      	ldr	r4, [r2, r3]
 800027c:	50c4      	str	r4, [r0, r3]
 800027e:	3304      	adds	r3, #4

08000280 <LoopCopyDataInit>:
 8000280:	18c4      	adds	r4, r0, r3
 8000282:	428c      	cmp	r4, r1
 8000284:	d3f9      	bcc.n	800027a <CopyDataInit>
 8000286:	4a0a      	ldr	r2, [pc, #40]	; (80002b0 <LoopForever+0x12>)
 8000288:	4c0a      	ldr	r4, [pc, #40]	; (80002b4 <LoopForever+0x16>)
 800028a:	2300      	movs	r3, #0
 800028c:	e001      	b.n	8000292 <LoopFillZerobss>

0800028e <FillZerobss>:
 800028e:	6013      	str	r3, [r2, #0]
 8000290:	3204      	adds	r2, #4

08000292 <LoopFillZerobss>:
 8000292:	42a2      	cmp	r2, r4
 8000294:	d3fb      	bcc.n	800028e <FillZerobss>
 8000296:	f000 fc11 	bl	8000abc <__libc_init_array>
 800029a:	f7ff ffa5 	bl	80001e8 <main>

0800029e <LoopForever>:
 800029e:	e7fe      	b.n	800029e <LoopForever>
 80002a0:	20002800 	andcs	r2, r0, r0, lsl #16
 80002a4:	20000000 	andcs	r0, r0, r0
 80002a8:	20000000 	andcs	r0, r0, r0
 80002ac:	08000b30 	stmdaeq	r0, {r4, r5, r8, r9, fp}
 80002b0:	20000000 	andcs	r0, r0, r0
 80002b4:	20000060 	andcs	r0, r0, r0, rrx

080002b8 <ADC1_2_IRQHandler>:
 80002b8:	e7fe      	b.n	80002b8 <ADC1_2_IRQHandler>
	...

080002bc <Enable_NVIC>:
 80002bc:	b480      	push	{r7}
 80002be:	b083      	sub	sp, #12
 80002c0:	af00      	add	r7, sp, #0
 80002c2:	4603      	mov	r3, r0
 80002c4:	80fb      	strh	r3, [r7, #6]
 80002c6:	88fb      	ldrh	r3, [r7, #6]
 80002c8:	2b0e      	cmp	r3, #14
 80002ca:	d852      	bhi.n	8000372 <Enable_NVIC+0xb6>
 80002cc:	a201      	add	r2, pc, #4	; (adr r2, 80002d4 <Enable_NVIC+0x18>)
 80002ce:	f852 f023 	ldr.w	pc, [r2, r3, lsl #2]
 80002d2:	bf00      	nop
 80002d4:	08000311 	stmdaeq	r0, {r0, r4, r8, r9}
 80002d8:	0800031f 	stmdaeq	r0, {r0, r1, r2, r3, r4, r8, r9}
 80002dc:	0800032d 	stmdaeq	r0, {r0, r2, r3, r5, r8, r9}
 80002e0:	0800033b 	stmdaeq	r0, {r0, r1, r3, r4, r5, r8, r9}
 80002e4:	08000349 	stmdaeq	r0, {r0, r3, r6, r8, r9}
 80002e8:	08000357 	stmdaeq	r0, {r0, r1, r2, r4, r6, r8, r9}
 80002ec:	08000357 	stmdaeq	r0, {r0, r1, r2, r4, r6, r8, r9}
 80002f0:	08000357 	stmdaeq	r0, {r0, r1, r2, r4, r6, r8, r9}
 80002f4:	08000357 	stmdaeq	r0, {r0, r1, r2, r4, r6, r8, r9}
 80002f8:	08000357 	stmdaeq	r0, {r0, r1, r2, r4, r6, r8, r9}
 80002fc:	08000365 	stmdaeq	r0, {r0, r2, r5, r6, r8, r9}
 8000300:	08000365 	stmdaeq	r0, {r0, r2, r5, r6, r8, r9}
 8000304:	08000365 	stmdaeq	r0, {r0, r2, r5, r6, r8, r9}
 8000308:	08000365 	stmdaeq	r0, {r0, r2, r5, r6, r8, r9}
 800030c:	08000365 	stmdaeq	r0, {r0, r2, r5, r6, r8, r9}
 8000310:	4b1a      	ldr	r3, [pc, #104]	; (800037c <Enable_NVIC+0xc0>)
 8000312:	681b      	ldr	r3, [r3, #0]
 8000314:	4a19      	ldr	r2, [pc, #100]	; (800037c <Enable_NVIC+0xc0>)
 8000316:	f043 0340 	orr.w	r3, r3, #64	; 0x40
 800031a:	6013      	str	r3, [r2, #0]
 800031c:	e029      	b.n	8000372 <Enable_NVIC+0xb6>
 800031e:	4b17      	ldr	r3, [pc, #92]	; (800037c <Enable_NVIC+0xc0>)
 8000320:	681b      	ldr	r3, [r3, #0]
 8000322:	4a16      	ldr	r2, [pc, #88]	; (800037c <Enable_NVIC+0xc0>)
 8000324:	f043 0380 	orr.w	r3, r3, #128	; 0x80
 8000328:	6013      	str	r3, [r2, #0]
 800032a:	e022      	b.n	8000372 <Enable_NVIC+0xb6>
 800032c:	4b13      	ldr	r3, [pc, #76]	; (800037c <Enable_NVIC+0xc0>)
 800032e:	681b      	ldr	r3, [r3, #0]
 8000330:	4a12      	ldr	r2, [pc, #72]	; (800037c <Enable_NVIC+0xc0>)
 8000332:	f443 7380 	orr.w	r3, r3, #256	; 0x100
 8000336:	6013      	str	r3, [r2, #0]
 8000338:	e01b      	b.n	8000372 <Enable_NVIC+0xb6>
 800033a:	4b10      	ldr	r3, [pc, #64]	; (800037c <Enable_NVIC+0xc0>)
 800033c:	681b      	ldr	r3, [r3, #0]
 800033e:	4a0f      	ldr	r2, [pc, #60]	; (800037c <Enable_NVIC+0xc0>)
 8000340:	f443 7300 	orr.w	r3, r3, #512	; 0x200
 8000344:	6013      	str	r3, [r2, #0]
 8000346:	e014      	b.n	8000372 <Enable_NVIC+0xb6>
 8000348:	4b0c      	ldr	r3, [pc, #48]	; (800037c <Enable_NVIC+0xc0>)
 800034a:	681b      	ldr	r3, [r3, #0]
 800034c:	4a0b      	ldr	r2, [pc, #44]	; (800037c <Enable_NVIC+0xc0>)
 800034e:	f443 7300 	orr.w	r3, r3, #512	; 0x200
 8000352:	6013      	str	r3, [r2, #0]
 8000354:	e00d      	b.n	8000372 <Enable_NVIC+0xb6>
 8000356:	4b09      	ldr	r3, [pc, #36]	; (800037c <Enable_NVIC+0xc0>)
 8000358:	681b      	ldr	r3, [r3, #0]
 800035a:	4a08      	ldr	r2, [pc, #32]	; (800037c <Enable_NVIC+0xc0>)
 800035c:	f443 0300 	orr.w	r3, r3, #8388608	; 0x800000
 8000360:	6013      	str	r3, [r2, #0]
 8000362:	e006      	b.n	8000372 <Enable_NVIC+0xb6>
 8000364:	4b06      	ldr	r3, [pc, #24]	; (8000380 <Enable_NVIC+0xc4>)
 8000366:	681b      	ldr	r3, [r3, #0]
 8000368:	4a05      	ldr	r2, [pc, #20]	; (8000380 <Enable_NVIC+0xc4>)
 800036a:	f443 7380 	orr.w	r3, r3, #256	; 0x100
 800036e:	6013      	str	r3, [r2, #0]
 8000370:	bf00      	nop
 8000372:	bf00      	nop
 8000374:	370c      	adds	r7, #12
 8000376:	46bd      	mov	sp, r7
 8000378:	bc80      	pop	{r7}
 800037a:	4770      	bx	lr
 800037c:	e000e100 	and	lr, r0, r0, lsl #2
 8000380:	e000e104 	and	lr, r0, r4, lsl #2

08000384 <Disable_NVIC>:
 8000384:	b480      	push	{r7}
 8000386:	b083      	sub	sp, #12
 8000388:	af00      	add	r7, sp, #0
 800038a:	4603      	mov	r3, r0
 800038c:	80fb      	strh	r3, [r7, #6]
 800038e:	88fb      	ldrh	r3, [r7, #6]
 8000390:	2b0e      	cmp	r3, #14
 8000392:	d852      	bhi.n	800043a <Disable_NVIC+0xb6>
 8000394:	a201      	add	r2, pc, #4	; (adr r2, 800039c <Disable_NVIC+0x18>)
 8000396:	f852 f023 	ldr.w	pc, [r2, r3, lsl #2]
 800039a:	bf00      	nop
 800039c:	080003d9 	stmdaeq	r0, {r0, r3, r4, r6, r7, r8, r9}
 80003a0:	080003e7 	stmdaeq	r0, {r0, r1, r2, r5, r6, r7, r8, r9}
 80003a4:	080003f5 	stmdaeq	r0, {r0, r2, r4, r5, r6, r7, r8, r9}
 80003a8:	08000403 	stmdaeq	r0, {r0, r1, sl}
 80003ac:	08000411 	stmdaeq	r0, {r0, r4, sl}
 80003b0:	0800041f 	stmdaeq	r0, {r0, r1, r2, r3, r4, sl}
 80003b4:	0800041f 	stmdaeq	r0, {r0, r1, r2, r3, r4, sl}
 80003b8:	0800041f 	stmdaeq	r0, {r0, r1, r2, r3, r4, sl}
 80003bc:	0800041f 	stmdaeq	r0, {r0, r1, r2, r3, r4, sl}
 80003c0:	0800041f 	stmdaeq	r0, {r0, r1, r2, r3, r4, sl}
 80003c4:	0800042d 	stmdaeq	r0, {r0, r2, r3, r5, sl}
 80003c8:	0800042d 	stmdaeq	r0, {r0, r2, r3, r5, sl}
 80003cc:	0800042d 	stmdaeq	r0, {r0, r2, r3, r5, sl}
 80003d0:	0800042d 	stmdaeq	r0, {r0, r2, r3, r5, sl}
 80003d4:	0800042d 	stmdaeq	r0, {r0, r2, r3, r5, sl}
 80003d8:	4b1a      	ldr	r3, [pc, #104]	; (8000444 <Disable_NVIC+0xc0>)
 80003da:	681b      	ldr	r3, [r3, #0]
 80003dc:	4a19      	ldr	r2, [pc, #100]	; (8000444 <Disable_NVIC+0xc0>)
 80003de:	f043 0340 	orr.w	r3, r3, #64	; 0x40
 80003e2:	6013      	str	r3, [r2, #0]
 80003e4:	e029      	b.n	800043a <Disable_NVIC+0xb6>
 80003e6:	4b17      	ldr	r3, [pc, #92]	; (8000444 <Disable_NVIC+0xc0>)
 80003e8:	681b      	ldr	r3, [r3, #0]
 80003ea:	4a16      	ldr	r2, [pc, #88]	; (8000444 <Disable_NVIC+0xc0>)
 80003ec:	f043 0380 	orr.w	r3, r3, #128	; 0x80
 80003f0:	6013      	str	r3, [r2, #0]
 80003f2:	e022      	b.n	800043a <Disable_NVIC+0xb6>
 80003f4:	4b13      	ldr	r3, [pc, #76]	; (8000444 <Disable_NVIC+0xc0>)
 80003f6:	681b      	ldr	r3, [r3, #0]
 80003f8:	4a12      	ldr	r2, [pc, #72]	; (8000444 <Disable_NVIC+0xc0>)
 80003fa:	f443 7380 	orr.w	r3, r3, #256	; 0x100
 80003fe:	6013      	str	r3, [r2, #0]
 8000400:	e01b      	b.n	800043a <Disable_NVIC+0xb6>
 8000402:	4b10      	ldr	r3, [pc, #64]	; (8000444 <Disable_NVIC+0xc0>)
 8000404:	681b      	ldr	r3, [r3, #0]
 8000406:	4a0f      	ldr	r2, [pc, #60]	; (8000444 <Disable_NVIC+0xc0>)
 8000408:	f443 7300 	orr.w	r3, r3, #512	; 0x200
 800040c:	6013      	str	r3, [r2, #0]
 800040e:	e014      	b.n	800043a <Disable_NVIC+0xb6>
 8000410:	4b0c      	ldr	r3, [pc, #48]	; (8000444 <Disable_NVIC+0xc0>)
 8000412:	681b      	ldr	r3, [r3, #0]
 8000414:	4a0b      	ldr	r2, [pc, #44]	; (8000444 <Disable_NVIC+0xc0>)
 8000416:	f443 7300 	orr.w	r3, r3, #512	; 0x200
 800041a:	6013      	str	r3, [r2, #0]
 800041c:	e00d      	b.n	800043a <Disable_NVIC+0xb6>
 800041e:	4b09      	ldr	r3, [pc, #36]	; (8000444 <Disable_NVIC+0xc0>)
 8000420:	681b      	ldr	r3, [r3, #0]
 8000422:	4a08      	ldr	r2, [pc, #32]	; (8000444 <Disable_NVIC+0xc0>)
 8000424:	f443 0300 	orr.w	r3, r3, #8388608	; 0x800000
 8000428:	6013      	str	r3, [r2, #0]
 800042a:	e006      	b.n	800043a <Disable_NVIC+0xb6>
 800042c:	4b06      	ldr	r3, [pc, #24]	; (8000448 <Disable_NVIC+0xc4>)
 800042e:	681b      	ldr	r3, [r3, #0]
 8000430:	4a05      	ldr	r2, [pc, #20]	; (8000448 <Disable_NVIC+0xc4>)
 8000432:	f443 7380 	orr.w	r3, r3, #256	; 0x100
 8000436:	6013      	str	r3, [r2, #0]
 8000438:	bf00      	nop
 800043a:	bf00      	nop
 800043c:	370c      	adds	r7, #12
 800043e:	46bd      	mov	sp, r7
 8000440:	bc80      	pop	{r7}
 8000442:	4770      	bx	lr
 8000444:	e000e180 	and	lr, r0, r0, lsl #3
 8000448:	e000e184 	and	lr, r0, r4, lsl #3

0800044c <update_EXTI>:
 800044c:	b580      	push	{r7, lr}
 800044e:	b084      	sub	sp, #16
 8000450:	af00      	add	r7, sp, #0
 8000452:	6078      	str	r0, [r7, #4]
 8000454:	687b      	ldr	r3, [r7, #4]
 8000456:	891b      	ldrh	r3, [r3, #8]
 8000458:	813b      	strh	r3, [r7, #8]
 800045a:	2301      	movs	r3, #1
 800045c:	72bb      	strb	r3, [r7, #10]
 800045e:	687b      	ldr	r3, [r7, #4]
 8000460:	685b      	ldr	r3, [r3, #4]
 8000462:	f107 0208 	add.w	r2, r7, #8
 8000466:	4611      	mov	r1, r2
 8000468:	4618      	mov	r0, r3
 800046a:	f000 faab 	bl	80009c4 <MCAL_GPIO_Init>
 800046e:	687b      	ldr	r3, [r7, #4]
 8000470:	881b      	ldrh	r3, [r3, #0]
 8000472:	089b      	lsrs	r3, r3, #2
 8000474:	b29b      	uxth	r3, r3
 8000476:	73fb      	strb	r3, [r7, #15]
 8000478:	687b      	ldr	r3, [r7, #4]
 800047a:	881b      	ldrh	r3, [r3, #0]
 800047c:	b2db      	uxtb	r3, r3
 800047e:	f003 0303 	and.w	r3, r3, #3
 8000482:	b2db      	uxtb	r3, r3
 8000484:	009b      	lsls	r3, r3, #2
 8000486:	73bb      	strb	r3, [r7, #14]
 8000488:	4a5d      	ldr	r2, [pc, #372]	; (8000600 <update_EXTI+0x1b4>)
 800048a:	7bfb      	ldrb	r3, [r7, #15]
 800048c:	3302      	adds	r3, #2
 800048e:	f852 2023 	ldr.w	r2, [r2, r3, lsl #2]
 8000492:	7bbb      	ldrb	r3, [r7, #14]
 8000494:	210f      	movs	r1, #15
 8000496:	fa01 f303 	lsl.w	r3, r1, r3
 800049a:	43db      	mvns	r3, r3
 800049c:	4618      	mov	r0, r3
 800049e:	4958      	ldr	r1, [pc, #352]	; (8000600 <update_EXTI+0x1b4>)
 80004a0:	7bfb      	ldrb	r3, [r7, #15]
 80004a2:	4002      	ands	r2, r0
 80004a4:	3302      	adds	r3, #2
 80004a6:	f841 2023 	str.w	r2, [r1, r3, lsl #2]
 80004aa:	4a55      	ldr	r2, [pc, #340]	; (8000600 <update_EXTI+0x1b4>)
 80004ac:	7bfb      	ldrb	r3, [r7, #15]
 80004ae:	3302      	adds	r3, #2
 80004b0:	f852 2023 	ldr.w	r2, [r2, r3, lsl #2]
 80004b4:	687b      	ldr	r3, [r7, #4]
 80004b6:	685b      	ldr	r3, [r3, #4]
 80004b8:	4952      	ldr	r1, [pc, #328]	; (8000604 <update_EXTI+0x1b8>)
 80004ba:	428b      	cmp	r3, r1
 80004bc:	d016      	beq.n	80004ec <update_EXTI+0xa0>
 80004be:	687b      	ldr	r3, [r7, #4]
 80004c0:	685b      	ldr	r3, [r3, #4]
 80004c2:	4951      	ldr	r1, [pc, #324]	; (8000608 <update_EXTI+0x1bc>)
 80004c4:	428b      	cmp	r3, r1
 80004c6:	d00f      	beq.n	80004e8 <update_EXTI+0x9c>
 80004c8:	687b      	ldr	r3, [r7, #4]
 80004ca:	685b      	ldr	r3, [r3, #4]
 80004cc:	494f      	ldr	r1, [pc, #316]	; (800060c <update_EXTI+0x1c0>)
 80004ce:	428b      	cmp	r3, r1
 80004d0:	d008      	beq.n	80004e4 <update_EXTI+0x98>
 80004d2:	687b      	ldr	r3, [r7, #4]
 80004d4:	685b      	ldr	r3, [r3, #4]
 80004d6:	494e      	ldr	r1, [pc, #312]	; (8000610 <update_EXTI+0x1c4>)
 80004d8:	428b      	cmp	r3, r1
 80004da:	d101      	bne.n	80004e0 <update_EXTI+0x94>
 80004dc:	2303      	movs	r3, #3
 80004de:	e006      	b.n	80004ee <update_EXTI+0xa2>
 80004e0:	2300      	movs	r3, #0
 80004e2:	e004      	b.n	80004ee <update_EXTI+0xa2>
 80004e4:	2302      	movs	r3, #2
 80004e6:	e002      	b.n	80004ee <update_EXTI+0xa2>
 80004e8:	2301      	movs	r3, #1
 80004ea:	e000      	b.n	80004ee <update_EXTI+0xa2>
 80004ec:	2300      	movs	r3, #0
 80004ee:	7bb9      	ldrb	r1, [r7, #14]
 80004f0:	408b      	lsls	r3, r1
 80004f2:	4618      	mov	r0, r3
 80004f4:	4942      	ldr	r1, [pc, #264]	; (8000600 <update_EXTI+0x1b4>)
 80004f6:	7bfb      	ldrb	r3, [r7, #15]
 80004f8:	4302      	orrs	r2, r0
 80004fa:	3302      	adds	r3, #2
 80004fc:	f841 2023 	str.w	r2, [r1, r3, lsl #2]
 8000500:	4b44      	ldr	r3, [pc, #272]	; (8000614 <update_EXTI+0x1c8>)
 8000502:	689b      	ldr	r3, [r3, #8]
 8000504:	687a      	ldr	r2, [r7, #4]
 8000506:	8812      	ldrh	r2, [r2, #0]
 8000508:	4611      	mov	r1, r2
 800050a:	2201      	movs	r2, #1
 800050c:	408a      	lsls	r2, r1
 800050e:	43d2      	mvns	r2, r2
 8000510:	4611      	mov	r1, r2
 8000512:	4a40      	ldr	r2, [pc, #256]	; (8000614 <update_EXTI+0x1c8>)
 8000514:	400b      	ands	r3, r1
 8000516:	6093      	str	r3, [r2, #8]
 8000518:	4b3e      	ldr	r3, [pc, #248]	; (8000614 <update_EXTI+0x1c8>)
 800051a:	68db      	ldr	r3, [r3, #12]
 800051c:	687a      	ldr	r2, [r7, #4]
 800051e:	8812      	ldrh	r2, [r2, #0]
 8000520:	4611      	mov	r1, r2
 8000522:	2201      	movs	r2, #1
 8000524:	408a      	lsls	r2, r1
 8000526:	43d2      	mvns	r2, r2
 8000528:	4611      	mov	r1, r2
 800052a:	4a3a      	ldr	r2, [pc, #232]	; (8000614 <update_EXTI+0x1c8>)
 800052c:	400b      	ands	r3, r1
 800052e:	60d3      	str	r3, [r2, #12]
 8000530:	687b      	ldr	r3, [r7, #4]
 8000532:	7b1b      	ldrb	r3, [r3, #12]
 8000534:	2b00      	cmp	r3, #0
 8000536:	d10b      	bne.n	8000550 <update_EXTI+0x104>
 8000538:	4b36      	ldr	r3, [pc, #216]	; (8000614 <update_EXTI+0x1c8>)
 800053a:	689b      	ldr	r3, [r3, #8]
 800053c:	687a      	ldr	r2, [r7, #4]
 800053e:	8812      	ldrh	r2, [r2, #0]
 8000540:	4611      	mov	r1, r2
 8000542:	2201      	movs	r2, #1
 8000544:	408a      	lsls	r2, r1
 8000546:	4611      	mov	r1, r2
 8000548:	4a32      	ldr	r2, [pc, #200]	; (8000614 <update_EXTI+0x1c8>)
 800054a:	430b      	orrs	r3, r1
 800054c:	6093      	str	r3, [r2, #8]
 800054e:	e025      	b.n	800059c <update_EXTI+0x150>
 8000550:	687b      	ldr	r3, [r7, #4]
 8000552:	7b1b      	ldrb	r3, [r3, #12]
 8000554:	2b01      	cmp	r3, #1
 8000556:	d10b      	bne.n	8000570 <update_EXTI+0x124>
 8000558:	4b2e      	ldr	r3, [pc, #184]	; (8000614 <update_EXTI+0x1c8>)
 800055a:	68db      	ldr	r3, [r3, #12]
 800055c:	687a      	ldr	r2, [r7, #4]
 800055e:	8812      	ldrh	r2, [r2, #0]
 8000560:	4611      	mov	r1, r2
 8000562:	2201      	movs	r2, #1
 8000564:	408a      	lsls	r2, r1
 8000566:	4611      	mov	r1, r2
 8000568:	4a2a      	ldr	r2, [pc, #168]	; (8000614 <update_EXTI+0x1c8>)
 800056a:	430b      	orrs	r3, r1
 800056c:	60d3      	str	r3, [r2, #12]
 800056e:	e015      	b.n	800059c <update_EXTI+0x150>
 8000570:	4b28      	ldr	r3, [pc, #160]	; (8000614 <update_EXTI+0x1c8>)
 8000572:	689b      	ldr	r3, [r3, #8]
 8000574:	687a      	ldr	r2, [r7, #4]
 8000576:	8812      	ldrh	r2, [r2, #0]
 8000578:	4611      	mov	r1, r2
 800057a:	2201      	movs	r2, #1
 800057c:	408a      	lsls	r2, r1
 800057e:	4611      	mov	r1, r2
 8000580:	4a24      	ldr	r2, [pc, #144]	; (8000614 <update_EXTI+0x1c8>)
 8000582:	430b      	orrs	r3, r1
 8000584:	6093      	str	r3, [r2, #8]
 8000586:	4b23      	ldr	r3, [pc, #140]	; (8000614 <update_EXTI+0x1c8>)
 8000588:	68db      	ldr	r3, [r3, #12]
 800058a:	687a      	ldr	r2, [r7, #4]
 800058c:	8812      	ldrh	r2, [r2, #0]
 800058e:	4611      	mov	r1, r2
 8000590:	2201      	movs	r2, #1
 8000592:	408a      	lsls	r2, r1
 8000594:	4611      	mov	r1, r2
 8000596:	4a1f      	ldr	r2, [pc, #124]	; (8000614 <update_EXTI+0x1c8>)
 8000598:	430b      	orrs	r3, r1
 800059a:	60d3      	str	r3, [r2, #12]
 800059c:	687b      	ldr	r3, [r7, #4]
 800059e:	881b      	ldrh	r3, [r3, #0]
 80005a0:	4619      	mov	r1, r3
 80005a2:	687b      	ldr	r3, [r7, #4]
 80005a4:	691b      	ldr	r3, [r3, #16]
 80005a6:	4a1c      	ldr	r2, [pc, #112]	; (8000618 <update_EXTI+0x1cc>)
 80005a8:	f842 3021 	str.w	r3, [r2, r1, lsl #2]
 80005ac:	687b      	ldr	r3, [r7, #4]
 80005ae:	7b5b      	ldrb	r3, [r3, #13]
 80005b0:	2b01      	cmp	r3, #1
 80005b2:	d110      	bne.n	80005d6 <update_EXTI+0x18a>
 80005b4:	4b17      	ldr	r3, [pc, #92]	; (8000614 <update_EXTI+0x1c8>)
 80005b6:	681b      	ldr	r3, [r3, #0]
 80005b8:	687a      	ldr	r2, [r7, #4]
 80005ba:	8812      	ldrh	r2, [r2, #0]
 80005bc:	4611      	mov	r1, r2
 80005be:	2201      	movs	r2, #1
 80005c0:	408a      	lsls	r2, r1
 80005c2:	4611      	mov	r1, r2
 80005c4:	4a13      	ldr	r2, [pc, #76]	; (8000614 <update_EXTI+0x1c8>)
 80005c6:	430b      	orrs	r3, r1
 80005c8:	6013      	str	r3, [r2, #0]
 80005ca:	687b      	ldr	r3, [r7, #4]
 80005cc:	881b      	ldrh	r3, [r3, #0]
 80005ce:	4618      	mov	r0, r3
 80005d0:	f7ff fe74 	bl	80002bc <Enable_NVIC>
 80005d4:	e010      	b.n	80005f8 <update_EXTI+0x1ac>
 80005d6:	4b0f      	ldr	r3, [pc, #60]	; (8000614 <update_EXTI+0x1c8>)
 80005d8:	681b      	ldr	r3, [r3, #0]
 80005da:	687a      	ldr	r2, [r7, #4]
 80005dc:	8812      	ldrh	r2, [r2, #0]
 80005de:	4611      	mov	r1, r2
 80005e0:	2201      	movs	r2, #1
 80005e2:	408a      	lsls	r2, r1
 80005e4:	43d2      	mvns	r2, r2
 80005e6:	4611      	mov	r1, r2
 80005e8:	4a0a      	ldr	r2, [pc, #40]	; (8000614 <update_EXTI+0x1c8>)
 80005ea:	400b      	ands	r3, r1
 80005ec:	6013      	str	r3, [r2, #0]
 80005ee:	687b      	ldr	r3, [r7, #4]
 80005f0:	881b      	ldrh	r3, [r3, #0]
 80005f2:	4618      	mov	r0, r3
 80005f4:	f7ff fec6 	bl	8000384 <Disable_NVIC>
 80005f8:	bf00      	nop
 80005fa:	3710      	adds	r7, #16
 80005fc:	46bd      	mov	sp, r7
 80005fe:	bd80      	pop	{r7, pc}
 8000600:	40010000 	andmi	r0, r1, r0
 8000604:	40010800 	andmi	r0, r1, r0, lsl #16
 8000608:	40010c00 	andmi	r0, r1, r0, lsl #24
 800060c:	40011000 	andmi	r1, r1, r0
 8000610:	40011400 	andmi	r1, r1, r0, lsl #8
 8000614:	40010400 	andmi	r0, r1, r0, lsl #8
 8000618:	20000024 	andcs	r0, r0, r4, lsr #32

0800061c <Mcal_EXTI_GPIO_init>:
 800061c:	b580      	push	{r7, lr}
 800061e:	b082      	sub	sp, #8
 8000620:	af00      	add	r7, sp, #0
 8000622:	6078      	str	r0, [r7, #4]
 8000624:	6878      	ldr	r0, [r7, #4]
 8000626:	f7ff ff11 	bl	800044c <update_EXTI>
 800062a:	bf00      	nop
 800062c:	3708      	adds	r7, #8
 800062e:	46bd      	mov	sp, r7
 8000630:	bd80      	pop	{r7, pc}
	...

08000634 <EXTI0_IRQHandler>:
 8000634:	b580      	push	{r7, lr}
 8000636:	af00      	add	r7, sp, #0
 8000638:	4b05      	ldr	r3, [pc, #20]	; (8000650 <EXTI0_IRQHandler+0x1c>)
 800063a:	695b      	ldr	r3, [r3, #20]
 800063c:	4a04      	ldr	r2, [pc, #16]	; (8000650 <EXTI0_IRQHandler+0x1c>)
 800063e:	f043 0301 	orr.w	r3, r3, #1
 8000642:	6153      	str	r3, [r2, #20]
 8000644:	4b03      	ldr	r3, [pc, #12]	; (8000654 <EXTI0_IRQHandler+0x20>)
 8000646:	681b      	ldr	r3, [r3, #0]
 8000648:	4798      	blx	r3
 800064a:	bf00      	nop
 800064c:	bd80      	pop	{r7, pc}
 800064e:	bf00      	nop
 8000650:	40010400 	andmi	r0, r1, r0, lsl #8
 8000654:	20000024 	andcs	r0, r0, r4, lsr #32

08000658 <EXTI1_IRQHandler>:
 8000658:	b580      	push	{r7, lr}
 800065a:	af00      	add	r7, sp, #0
 800065c:	4b05      	ldr	r3, [pc, #20]	; (8000674 <EXTI1_IRQHandler+0x1c>)
 800065e:	695b      	ldr	r3, [r3, #20]
 8000660:	4a04      	ldr	r2, [pc, #16]	; (8000674 <EXTI1_IRQHandler+0x1c>)
 8000662:	f043 0302 	orr.w	r3, r3, #2
 8000666:	6153      	str	r3, [r2, #20]
 8000668:	4b03      	ldr	r3, [pc, #12]	; (8000678 <EXTI1_IRQHandler+0x20>)
 800066a:	685b      	ldr	r3, [r3, #4]
 800066c:	4798      	blx	r3
 800066e:	bf00      	nop
 8000670:	bd80      	pop	{r7, pc}
 8000672:	bf00      	nop
 8000674:	40010400 	andmi	r0, r1, r0, lsl #8
 8000678:	20000024 	andcs	r0, r0, r4, lsr #32

0800067c <EXTI2_IRQHandler>:
 800067c:	b580      	push	{r7, lr}
 800067e:	af00      	add	r7, sp, #0
 8000680:	4b05      	ldr	r3, [pc, #20]	; (8000698 <EXTI2_IRQHandler+0x1c>)
 8000682:	695b      	ldr	r3, [r3, #20]
 8000684:	4a04      	ldr	r2, [pc, #16]	; (8000698 <EXTI2_IRQHandler+0x1c>)
 8000686:	f043 0304 	orr.w	r3, r3, #4
 800068a:	6153      	str	r3, [r2, #20]
 800068c:	4b03      	ldr	r3, [pc, #12]	; (800069c <EXTI2_IRQHandler+0x20>)
 800068e:	689b      	ldr	r3, [r3, #8]
 8000690:	4798      	blx	r3
 8000692:	bf00      	nop
 8000694:	bd80      	pop	{r7, pc}
 8000696:	bf00      	nop
 8000698:	40010400 	andmi	r0, r1, r0, lsl #8
 800069c:	20000024 	andcs	r0, r0, r4, lsr #32

080006a0 <EXTI3_IRQHandler>:
 80006a0:	b580      	push	{r7, lr}
 80006a2:	af00      	add	r7, sp, #0
 80006a4:	4b05      	ldr	r3, [pc, #20]	; (80006bc <EXTI3_IRQHandler+0x1c>)
 80006a6:	695b      	ldr	r3, [r3, #20]
 80006a8:	4a04      	ldr	r2, [pc, #16]	; (80006bc <EXTI3_IRQHandler+0x1c>)
 80006aa:	f043 0308 	orr.w	r3, r3, #8
 80006ae:	6153      	str	r3, [r2, #20]
 80006b0:	4b03      	ldr	r3, [pc, #12]	; (80006c0 <EXTI3_IRQHandler+0x20>)
 80006b2:	68db      	ldr	r3, [r3, #12]
 80006b4:	4798      	blx	r3
 80006b6:	bf00      	nop
 80006b8:	bd80      	pop	{r7, pc}
 80006ba:	bf00      	nop
 80006bc:	40010400 	andmi	r0, r1, r0, lsl #8
 80006c0:	20000024 	andcs	r0, r0, r4, lsr #32

080006c4 <EXTI4_IRQHandler>:
 80006c4:	b580      	push	{r7, lr}
 80006c6:	af00      	add	r7, sp, #0
 80006c8:	4b05      	ldr	r3, [pc, #20]	; (80006e0 <EXTI4_IRQHandler+0x1c>)
 80006ca:	695b      	ldr	r3, [r3, #20]
 80006cc:	4a04      	ldr	r2, [pc, #16]	; (80006e0 <EXTI4_IRQHandler+0x1c>)
 80006ce:	f043 0310 	orr.w	r3, r3, #16
 80006d2:	6153      	str	r3, [r2, #20]
 80006d4:	4b03      	ldr	r3, [pc, #12]	; (80006e4 <EXTI4_IRQHandler+0x20>)
 80006d6:	691b      	ldr	r3, [r3, #16]
 80006d8:	4798      	blx	r3
 80006da:	bf00      	nop
 80006dc:	bd80      	pop	{r7, pc}
 80006de:	bf00      	nop
 80006e0:	40010400 	andmi	r0, r1, r0, lsl #8
 80006e4:	20000024 	andcs	r0, r0, r4, lsr #32

080006e8 <EXTI9_5_IRQHandler>:
 80006e8:	b580      	push	{r7, lr}
 80006ea:	af00      	add	r7, sp, #0
 80006ec:	4b26      	ldr	r3, [pc, #152]	; (8000788 <EXTI9_5_IRQHandler+0xa0>)
 80006ee:	695b      	ldr	r3, [r3, #20]
 80006f0:	f003 0320 	and.w	r3, r3, #32
 80006f4:	2b00      	cmp	r3, #0
 80006f6:	d008      	beq.n	800070a <EXTI9_5_IRQHandler+0x22>
 80006f8:	4b23      	ldr	r3, [pc, #140]	; (8000788 <EXTI9_5_IRQHandler+0xa0>)
 80006fa:	695b      	ldr	r3, [r3, #20]
 80006fc:	4a22      	ldr	r2, [pc, #136]	; (8000788 <EXTI9_5_IRQHandler+0xa0>)
 80006fe:	f043 0320 	orr.w	r3, r3, #32
 8000702:	6153      	str	r3, [r2, #20]
 8000704:	4b21      	ldr	r3, [pc, #132]	; (800078c <EXTI9_5_IRQHandler+0xa4>)
 8000706:	695b      	ldr	r3, [r3, #20]
 8000708:	4798      	blx	r3
 800070a:	4b1f      	ldr	r3, [pc, #124]	; (8000788 <EXTI9_5_IRQHandler+0xa0>)
 800070c:	695b      	ldr	r3, [r3, #20]
 800070e:	f003 0340 	and.w	r3, r3, #64	; 0x40
 8000712:	2b00      	cmp	r3, #0
 8000714:	d008      	beq.n	8000728 <EXTI9_5_IRQHandler+0x40>
 8000716:	4b1c      	ldr	r3, [pc, #112]	; (8000788 <EXTI9_5_IRQHandler+0xa0>)
 8000718:	695b      	ldr	r3, [r3, #20]
 800071a:	4a1b      	ldr	r2, [pc, #108]	; (8000788 <EXTI9_5_IRQHandler+0xa0>)
 800071c:	f043 0340 	orr.w	r3, r3, #64	; 0x40
 8000720:	6153      	str	r3, [r2, #20]
 8000722:	4b1a      	ldr	r3, [pc, #104]	; (800078c <EXTI9_5_IRQHandler+0xa4>)
 8000724:	699b      	ldr	r3, [r3, #24]
 8000726:	4798      	blx	r3
 8000728:	4b17      	ldr	r3, [pc, #92]	; (8000788 <EXTI9_5_IRQHandler+0xa0>)
 800072a:	695b      	ldr	r3, [r3, #20]
 800072c:	f003 0380 	and.w	r3, r3, #128	; 0x80
 8000730:	2b00      	cmp	r3, #0
 8000732:	d008      	beq.n	8000746 <EXTI9_5_IRQHandler+0x5e>
 8000734:	4b14      	ldr	r3, [pc, #80]	; (8000788 <EXTI9_5_IRQHandler+0xa0>)
 8000736:	695b      	ldr	r3, [r3, #20]
 8000738:	4a13      	ldr	r2, [pc, #76]	; (8000788 <EXTI9_5_IRQHandler+0xa0>)
 800073a:	f043 0380 	orr.w	r3, r3, #128	; 0x80
 800073e:	6153      	str	r3, [r2, #20]
 8000740:	4b12      	ldr	r3, [pc, #72]	; (800078c <EXTI9_5_IRQHandler+0xa4>)
 8000742:	69db      	ldr	r3, [r3, #28]
 8000744:	4798      	blx	r3
 8000746:	4b10      	ldr	r3, [pc, #64]	; (8000788 <EXTI9_5_IRQHandler+0xa0>)
 8000748:	695b      	ldr	r3, [r3, #20]
 800074a:	f403 7380 	and.w	r3, r3, #256	; 0x100
 800074e:	2b00      	cmp	r3, #0
 8000750:	d008      	beq.n	8000764 <EXTI9_5_IRQHandler+0x7c>
 8000752:	4b0d      	ldr	r3, [pc, #52]	; (8000788 <EXTI9_5_IRQHandler+0xa0>)
 8000754:	695b      	ldr	r3, [r3, #20]
 8000756:	4a0c      	ldr	r2, [pc, #48]	; (8000788 <EXTI9_5_IRQHandler+0xa0>)
 8000758:	f443 7380 	orr.w	r3, r3, #256	; 0x100
 800075c:	6153      	str	r3, [r2, #20]
 800075e:	4b0b      	ldr	r3, [pc, #44]	; (800078c <EXTI9_5_IRQHandler+0xa4>)
 8000760:	6a1b      	ldr	r3, [r3, #32]
 8000762:	4798      	blx	r3
 8000764:	4b08      	ldr	r3, [pc, #32]	; (8000788 <EXTI9_5_IRQHandler+0xa0>)
 8000766:	695b      	ldr	r3, [r3, #20]
 8000768:	f403 7300 	and.w	r3, r3, #512	; 0x200
 800076c:	2b00      	cmp	r3, #0
 800076e:	d008      	beq.n	8000782 <EXTI9_5_IRQHandler+0x9a>
 8000770:	4b05      	ldr	r3, [pc, #20]	; (8000788 <EXTI9_5_IRQHandler+0xa0>)
 8000772:	695b      	ldr	r3, [r3, #20]
 8000774:	4a04      	ldr	r2, [pc, #16]	; (8000788 <EXTI9_5_IRQHandler+0xa0>)
 8000776:	f443 7300 	orr.w	r3, r3, #512	; 0x200
 800077a:	6153      	str	r3, [r2, #20]
 800077c:	4b03      	ldr	r3, [pc, #12]	; (800078c <EXTI9_5_IRQHandler+0xa4>)
 800077e:	6a5b      	ldr	r3, [r3, #36]	; 0x24
 8000780:	4798      	blx	r3
 8000782:	bf00      	nop
 8000784:	bd80      	pop	{r7, pc}
 8000786:	bf00      	nop
 8000788:	40010400 	andmi	r0, r1, r0, lsl #8
 800078c:	20000024 	andcs	r0, r0, r4, lsr #32

08000790 <EXTI15_10_IRQHandler>:
 8000790:	b580      	push	{r7, lr}
 8000792:	af00      	add	r7, sp, #0
 8000794:	4b2d      	ldr	r3, [pc, #180]	; (800084c <EXTI15_10_IRQHandler+0xbc>)
 8000796:	695b      	ldr	r3, [r3, #20]
 8000798:	f403 6380 	and.w	r3, r3, #1024	; 0x400
 800079c:	2b00      	cmp	r3, #0
 800079e:	d008      	beq.n	80007b2 <EXTI15_10_IRQHandler+0x22>
 80007a0:	4b2a      	ldr	r3, [pc, #168]	; (800084c <EXTI15_10_IRQHandler+0xbc>)
 80007a2:	695b      	ldr	r3, [r3, #20]
 80007a4:	4a29      	ldr	r2, [pc, #164]	; (800084c <EXTI15_10_IRQHandler+0xbc>)
 80007a6:	f443 6380 	orr.w	r3, r3, #1024	; 0x400
 80007aa:	6153      	str	r3, [r2, #20]
 80007ac:	4b28      	ldr	r3, [pc, #160]	; (8000850 <EXTI15_10_IRQHandler+0xc0>)
 80007ae:	6a9b      	ldr	r3, [r3, #40]	; 0x28
 80007b0:	4798      	blx	r3
 80007b2:	4b26      	ldr	r3, [pc, #152]	; (800084c <EXTI15_10_IRQHandler+0xbc>)
 80007b4:	695b      	ldr	r3, [r3, #20]
 80007b6:	f403 6300 	and.w	r3, r3, #2048	; 0x800
 80007ba:	2b00      	cmp	r3, #0
 80007bc:	d008      	beq.n	80007d0 <EXTI15_10_IRQHandler+0x40>
 80007be:	4b23      	ldr	r3, [pc, #140]	; (800084c <EXTI15_10_IRQHandler+0xbc>)
 80007c0:	695b      	ldr	r3, [r3, #20]
 80007c2:	4a22      	ldr	r2, [pc, #136]	; (800084c <EXTI15_10_IRQHandler+0xbc>)
 80007c4:	f443 6300 	orr.w	r3, r3, #2048	; 0x800
 80007c8:	6153      	str	r3, [r2, #20]
 80007ca:	4b21      	ldr	r3, [pc, #132]	; (8000850 <EXTI15_10_IRQHandler+0xc0>)
 80007cc:	6adb      	ldr	r3, [r3, #44]	; 0x2c
 80007ce:	4798      	blx	r3
 80007d0:	4b1e      	ldr	r3, [pc, #120]	; (800084c <EXTI15_10_IRQHandler+0xbc>)
 80007d2:	695b      	ldr	r3, [r3, #20]
 80007d4:	f403 5380 	and.w	r3, r3, #4096	; 0x1000
 80007d8:	2b00      	cmp	r3, #0
 80007da:	d008      	beq.n	80007ee <EXTI15_10_IRQHandler+0x5e>
 80007dc:	4b1b      	ldr	r3, [pc, #108]	; (800084c <EXTI15_10_IRQHandler+0xbc>)
 80007de:	695b      	ldr	r3, [r3, #20]
 80007e0:	4a1a      	ldr	r2, [pc, #104]	; (800084c <EXTI15_10_IRQHandler+0xbc>)
 80007e2:	f443 5380 	orr.w	r3, r3, #4096	; 0x1000
 80007e6:	6153      	str	r3, [r2, #20]
 80007e8:	4b19      	ldr	r3, [pc, #100]	; (8000850 <EXTI15_10_IRQHandler+0xc0>)
 80007ea:	6b1b      	ldr	r3, [r3, #48]	; 0x30
 80007ec:	4798      	blx	r3
 80007ee:	4b17      	ldr	r3, [pc, #92]	; (800084c <EXTI15_10_IRQHandler+0xbc>)
 80007f0:	695b      	ldr	r3, [r3, #20]
 80007f2:	f403 5300 	and.w	r3, r3, #8192	; 0x2000
 80007f6:	2b00      	cmp	r3, #0
 80007f8:	d008      	beq.n	800080c <EXTI15_10_IRQHandler+0x7c>
 80007fa:	4b14      	ldr	r3, [pc, #80]	; (800084c <EXTI15_10_IRQHandler+0xbc>)
 80007fc:	695b      	ldr	r3, [r3, #20]
 80007fe:	4a13      	ldr	r2, [pc, #76]	; (800084c <EXTI15_10_IRQHandler+0xbc>)
 8000800:	f443 5300 	orr.w	r3, r3, #8192	; 0x2000
 8000804:	6153      	str	r3, [r2, #20]
 8000806:	4b12      	ldr	r3, [pc, #72]	; (8000850 <EXTI15_10_IRQHandler+0xc0>)
 8000808:	6b5b      	ldr	r3, [r3, #52]	; 0x34
 800080a:	4798      	blx	r3
 800080c:	4b0f      	ldr	r3, [pc, #60]	; (800084c <EXTI15_10_IRQHandler+0xbc>)
 800080e:	695b      	ldr	r3, [r3, #20]
 8000810:	f403 4380 	and.w	r3, r3, #16384	; 0x4000
 8000814:	2b00      	cmp	r3, #0
 8000816:	d008      	beq.n	800082a <EXTI15_10_IRQHandler+0x9a>
 8000818:	4b0c      	ldr	r3, [pc, #48]	; (800084c <EXTI15_10_IRQHandler+0xbc>)
 800081a:	695b      	ldr	r3, [r3, #20]
 800081c:	4a0b      	ldr	r2, [pc, #44]	; (800084c <EXTI15_10_IRQHandler+0xbc>)
 800081e:	f443 4380 	orr.w	r3, r3, #16384	; 0x4000
 8000822:	6153      	str	r3, [r2, #20]
 8000824:	4b0a      	ldr	r3, [pc, #40]	; (8000850 <EXTI15_10_IRQHandler+0xc0>)
 8000826:	6b9b      	ldr	r3, [r3, #56]	; 0x38
 8000828:	4798      	blx	r3
 800082a:	4b08      	ldr	r3, [pc, #32]	; (800084c <EXTI15_10_IRQHandler+0xbc>)
 800082c:	695b      	ldr	r3, [r3, #20]
 800082e:	f403 4300 	and.w	r3, r3, #32768	; 0x8000
 8000832:	2b00      	cmp	r3, #0
 8000834:	d008      	beq.n	8000848 <EXTI15_10_IRQHandler+0xb8>
 8000836:	4b05      	ldr	r3, [pc, #20]	; (800084c <EXTI15_10_IRQHandler+0xbc>)
 8000838:	695b      	ldr	r3, [r3, #20]
 800083a:	4a04      	ldr	r2, [pc, #16]	; (800084c <EXTI15_10_IRQHandler+0xbc>)
 800083c:	f443 4300 	orr.w	r3, r3, #32768	; 0x8000
 8000840:	6153      	str	r3, [r2, #20]
 8000842:	4b03      	ldr	r3, [pc, #12]	; (8000850 <EXTI15_10_IRQHandler+0xc0>)
 8000844:	6bdb      	ldr	r3, [r3, #60]	; 0x3c
 8000846:	4798      	blx	r3
 8000848:	bf00      	nop
 800084a:	bd80      	pop	{r7, pc}
 800084c:	40010400 	andmi	r0, r1, r0, lsl #8
 8000850:	20000024 	andcs	r0, r0, r4, lsr #32

08000854 <Get_CRLH_Position>:
 8000854:	b480      	push	{r7}
 8000856:	b083      	sub	sp, #12
 8000858:	af00      	add	r7, sp, #0
 800085a:	4603      	mov	r3, r0
 800085c:	80fb      	strh	r3, [r7, #6]
 800085e:	88fb      	ldrh	r3, [r7, #6]
 8000860:	f5b3 4f00 	cmp.w	r3, #32768	; 0x8000
 8000864:	f000 80a5 	beq.w	80009b2 <Get_CRLH_Position+0x15e>
 8000868:	f5b3 4f00 	cmp.w	r3, #32768	; 0x8000
 800086c:	f300 80a3 	bgt.w	80009b6 <Get_CRLH_Position+0x162>
 8000870:	f5b3 4f80 	cmp.w	r3, #16384	; 0x4000
 8000874:	f000 809b 	beq.w	80009ae <Get_CRLH_Position+0x15a>
 8000878:	f5b3 4f80 	cmp.w	r3, #16384	; 0x4000
 800087c:	f300 809b 	bgt.w	80009b6 <Get_CRLH_Position+0x162>
 8000880:	f5b3 5f00 	cmp.w	r3, #8192	; 0x2000
 8000884:	f000 8091 	beq.w	80009aa <Get_CRLH_Position+0x156>
 8000888:	f5b3 5f00 	cmp.w	r3, #8192	; 0x2000
 800088c:	f300 8093 	bgt.w	80009b6 <Get_CRLH_Position+0x162>
 8000890:	f5b3 5f80 	cmp.w	r3, #4096	; 0x1000
 8000894:	f000 8087 	beq.w	80009a6 <Get_CRLH_Position+0x152>
 8000898:	f5b3 5f80 	cmp.w	r3, #4096	; 0x1000
 800089c:	f300 808b 	bgt.w	80009b6 <Get_CRLH_Position+0x162>
 80008a0:	f5b3 6f00 	cmp.w	r3, #2048	; 0x800
 80008a4:	d07d      	beq.n	80009a2 <Get_CRLH_Position+0x14e>
 80008a6:	f5b3 6f00 	cmp.w	r3, #2048	; 0x800
 80008aa:	f300 8084 	bgt.w	80009b6 <Get_CRLH_Position+0x162>
 80008ae:	f5b3 6f80 	cmp.w	r3, #1024	; 0x400
 80008b2:	d074      	beq.n	800099e <Get_CRLH_Position+0x14a>
 80008b4:	f5b3 6f80 	cmp.w	r3, #1024	; 0x400
 80008b8:	dc7d      	bgt.n	80009b6 <Get_CRLH_Position+0x162>
 80008ba:	f5b3 7f00 	cmp.w	r3, #512	; 0x200
 80008be:	d06c      	beq.n	800099a <Get_CRLH_Position+0x146>
 80008c0:	f5b3 7f00 	cmp.w	r3, #512	; 0x200
 80008c4:	dc77      	bgt.n	80009b6 <Get_CRLH_Position+0x162>
 80008c6:	f5b3 7f80 	cmp.w	r3, #256	; 0x100
 80008ca:	d064      	beq.n	8000996 <Get_CRLH_Position+0x142>
 80008cc:	f5b3 7f80 	cmp.w	r3, #256	; 0x100
 80008d0:	dc71      	bgt.n	80009b6 <Get_CRLH_Position+0x162>
 80008d2:	2b80      	cmp	r3, #128	; 0x80
 80008d4:	d05d      	beq.n	8000992 <Get_CRLH_Position+0x13e>
 80008d6:	2b80      	cmp	r3, #128	; 0x80
 80008d8:	dc6d      	bgt.n	80009b6 <Get_CRLH_Position+0x162>
 80008da:	2b20      	cmp	r3, #32
 80008dc:	dc48      	bgt.n	8000970 <Get_CRLH_Position+0x11c>
 80008de:	2b00      	cmp	r3, #0
 80008e0:	dd69      	ble.n	80009b6 <Get_CRLH_Position+0x162>
 80008e2:	3b01      	subs	r3, #1
 80008e4:	2b1f      	cmp	r3, #31
 80008e6:	d866      	bhi.n	80009b6 <Get_CRLH_Position+0x162>
 80008e8:	a201      	add	r2, pc, #4	; (adr r2, 80008f0 <Get_CRLH_Position+0x9c>)
 80008ea:	f852 f023 	ldr.w	pc, [r2, r3, lsl #2]
 80008ee:	bf00      	nop
 80008f0:	08000977 	stmdaeq	r0, {r0, r1, r2, r4, r5, r6, r8, fp}
 80008f4:	0800097b 	stmdaeq	r0, {r0, r1, r3, r4, r5, r6, r8, fp}
 80008f8:	080009b7 	stmdaeq	r0, {r0, r1, r2, r4, r5, r7, r8, fp}
 80008fc:	0800097f 	stmdaeq	r0, {r0, r1, r2, r3, r4, r5, r6, r8, fp}
 8000900:	080009b7 	stmdaeq	r0, {r0, r1, r2, r4, r5, r7, r8, fp}
 8000904:	080009b7 	stmdaeq	r0, {r0, r1, r2, r4, r5, r7, r8, fp}
 8000908:	080009b7 	stmdaeq	r0, {r0, r1, r2, r4, r5, r7, r8, fp}
 800090c:	08000983 	stmdaeq	r0, {r0, r1, r7, r8, fp}
 8000910:	080009b7 	stmdaeq	r0, {r0, r1, r2, r4, r5, r7, r8, fp}
 8000914:	080009b7 	stmdaeq	r0, {r0, r1, r2, r4, r5, r7, r8, fp}
 8000918:	080009b7 	stmdaeq	r0, {r0, r1, r2, r4, r5, r7, r8, fp}
 800091c:	080009b7 	stmdaeq	r0, {r0, r1, r2, r4, r5, r7, r8, fp}
 8000920:	080009b7 	stmdaeq	r0, {r0, r1, r2, r4, r5, r7, r8, fp}
 8000924:	080009b7 	stmdaeq	r0, {r0, r1, r2, r4, r5, r7, r8, fp}
 8000928:	080009b7 	stmdaeq	r0, {r0, r1, r2, r4, r5, r7, r8, fp}
 800092c:	08000987 	stmdaeq	r0, {r0, r1, r2, r7, r8, fp}
 8000930:	080009b7 	stmdaeq	r0, {r0, r1, r2, r4, r5, r7, r8, fp}
 8000934:	080009b7 	stmdaeq	r0, {r0, r1, r2, r4, r5, r7, r8, fp}
 8000938:	080009b7 	stmdaeq	r0, {r0, r1, r2, r4, r5, r7, r8, fp}
 800093c:	080009b7 	stmdaeq	r0, {r0, r1, r2, r4, r5, r7, r8, fp}
 8000940:	080009b7 	stmdaeq	r0, {r0, r1, r2, r4, r5, r7, r8, fp}
 8000944:	080009b7 	stmdaeq	r0, {r0, r1, r2, r4, r5, r7, r8, fp}
 8000948:	080009b7 	stmdaeq	r0, {r0, r1, r2, r4, r5, r7, r8, fp}
 800094c:	080009b7 	stmdaeq	r0, {r0, r1, r2, r4, r5, r7, r8, fp}
 8000950:	080009b7 	stmdaeq	r0, {r0, r1, r2, r4, r5, r7, r8, fp}
 8000954:	080009b7 	stmdaeq	r0, {r0, r1, r2, r4, r5, r7, r8, fp}
 8000958:	080009b7 	stmdaeq	r0, {r0, r1, r2, r4, r5, r7, r8, fp}
 800095c:	080009b7 	stmdaeq	r0, {r0, r1, r2, r4, r5, r7, r8, fp}
 8000960:	080009b7 	stmdaeq	r0, {r0, r1, r2, r4, r5, r7, r8, fp}
 8000964:	080009b7 	stmdaeq	r0, {r0, r1, r2, r4, r5, r7, r8, fp}
 8000968:	080009b7 	stmdaeq	r0, {r0, r1, r2, r4, r5, r7, r8, fp}
 800096c:	0800098b 	stmdaeq	r0, {r0, r1, r3, r7, r8, fp}
 8000970:	2b40      	cmp	r3, #64	; 0x40
 8000972:	d00c      	beq.n	800098e <Get_CRLH_Position+0x13a>
 8000974:	e01f      	b.n	80009b6 <Get_CRLH_Position+0x162>
 8000976:	2300      	movs	r3, #0
 8000978:	e01e      	b.n	80009b8 <Get_CRLH_Position+0x164>
 800097a:	2304      	movs	r3, #4
 800097c:	e01c      	b.n	80009b8 <Get_CRLH_Position+0x164>
 800097e:	2308      	movs	r3, #8
 8000980:	e01a      	b.n	80009b8 <Get_CRLH_Position+0x164>
 8000982:	230c      	movs	r3, #12
 8000984:	e018      	b.n	80009b8 <Get_CRLH_Position+0x164>
 8000986:	2310      	movs	r3, #16
 8000988:	e016      	b.n	80009b8 <Get_CRLH_Position+0x164>
 800098a:	2314      	movs	r3, #20
 800098c:	e014      	b.n	80009b8 <Get_CRLH_Position+0x164>
 800098e:	2318      	movs	r3, #24
 8000990:	e012      	b.n	80009b8 <Get_CRLH_Position+0x164>
 8000992:	231c      	movs	r3, #28
 8000994:	e010      	b.n	80009b8 <Get_CRLH_Position+0x164>
 8000996:	2300      	movs	r3, #0
 8000998:	e00e      	b.n	80009b8 <Get_CRLH_Position+0x164>
 800099a:	2304      	movs	r3, #4
 800099c:	e00c      	b.n	80009b8 <Get_CRLH_Position+0x164>
 800099e:	2308      	movs	r3, #8
 80009a0:	e00a      	b.n	80009b8 <Get_CRLH_Position+0x164>
 80009a2:	230c      	movs	r3, #12
 80009a4:	e008      	b.n	80009b8 <Get_CRLH_Position+0x164>
 80009a6:	2310      	movs	r3, #16
 80009a8:	e006      	b.n	80009b8 <Get_CRLH_Position+0x164>
 80009aa:	2314      	movs	r3, #20
 80009ac:	e004      	b.n	80009b8 <Get_CRLH_Position+0x164>
 80009ae:	2318      	movs	r3, #24
 80009b0:	e002      	b.n	80009b8 <Get_CRLH_Position+0x164>
 80009b2:	231c      	movs	r3, #28
 80009b4:	e000      	b.n	80009b8 <Get_CRLH_Position+0x164>
 80009b6:	2300      	movs	r3, #0
 80009b8:	4618      	mov	r0, r3
 80009ba:	370c      	adds	r7, #12
 80009bc:	46bd      	mov	sp, r7
 80009be:	bc80      	pop	{r7}
 80009c0:	4770      	bx	lr
 80009c2:	bf00      	nop

080009c4 <MCAL_GPIO_Init>:
 80009c4:	b590      	push	{r4, r7, lr}
 80009c6:	b085      	sub	sp, #20
 80009c8:	af00      	add	r7, sp, #0
 80009ca:	6078      	str	r0, [r7, #4]
 80009cc:	6039      	str	r1, [r7, #0]
 80009ce:	2300      	movs	r3, #0
 80009d0:	60bb      	str	r3, [r7, #8]
 80009d2:	2300      	movs	r3, #0
 80009d4:	73fb      	strb	r3, [r7, #15]
 80009d6:	683b      	ldr	r3, [r7, #0]
 80009d8:	881b      	ldrh	r3, [r3, #0]
 80009da:	2bff      	cmp	r3, #255	; 0xff
 80009dc:	d801      	bhi.n	80009e2 <MCAL_GPIO_Init+0x1e>
 80009de:	687b      	ldr	r3, [r7, #4]
 80009e0:	e001      	b.n	80009e6 <MCAL_GPIO_Init+0x22>
 80009e2:	687b      	ldr	r3, [r7, #4]
 80009e4:	3304      	adds	r3, #4
 80009e6:	60bb      	str	r3, [r7, #8]
 80009e8:	683b      	ldr	r3, [r7, #0]
 80009ea:	881b      	ldrh	r3, [r3, #0]
 80009ec:	4618      	mov	r0, r3
 80009ee:	f7ff ff31 	bl	8000854 <Get_CRLH_Position>
 80009f2:	4603      	mov	r3, r0
 80009f4:	461a      	mov	r2, r3
 80009f6:	230f      	movs	r3, #15
 80009f8:	4093      	lsls	r3, r2
 80009fa:	43da      	mvns	r2, r3
 80009fc:	68bb      	ldr	r3, [r7, #8]
 80009fe:	681b      	ldr	r3, [r3, #0]
 8000a00:	401a      	ands	r2, r3
 8000a02:	68bb      	ldr	r3, [r7, #8]
 8000a04:	601a      	str	r2, [r3, #0]
 8000a06:	683b      	ldr	r3, [r7, #0]
 8000a08:	789b      	ldrb	r3, [r3, #2]
 8000a0a:	2b04      	cmp	r3, #4
 8000a0c:	d00b      	beq.n	8000a26 <MCAL_GPIO_Init+0x62>
 8000a0e:	683b      	ldr	r3, [r7, #0]
 8000a10:	789b      	ldrb	r3, [r3, #2]
 8000a12:	2b05      	cmp	r3, #5
 8000a14:	d007      	beq.n	8000a26 <MCAL_GPIO_Init+0x62>
 8000a16:	683b      	ldr	r3, [r7, #0]
 8000a18:	789b      	ldrb	r3, [r3, #2]
 8000a1a:	2b06      	cmp	r3, #6
 8000a1c:	d003      	beq.n	8000a26 <MCAL_GPIO_Init+0x62>
 8000a1e:	683b      	ldr	r3, [r7, #0]
 8000a20:	789b      	ldrb	r3, [r3, #2]
 8000a22:	2b07      	cmp	r3, #7
 8000a24:	d10e      	bne.n	8000a44 <MCAL_GPIO_Init+0x80>
 8000a26:	683b      	ldr	r3, [r7, #0]
 8000a28:	789b      	ldrb	r3, [r3, #2]
 8000a2a:	3b04      	subs	r3, #4
 8000a2c:	009b      	lsls	r3, r3, #2
 8000a2e:	b25a      	sxtb	r2, r3
 8000a30:	683b      	ldr	r3, [r7, #0]
 8000a32:	78db      	ldrb	r3, [r3, #3]
 8000a34:	b25b      	sxtb	r3, r3
 8000a36:	f003 030f 	and.w	r3, r3, #15
 8000a3a:	b25b      	sxtb	r3, r3
 8000a3c:	4313      	orrs	r3, r2
 8000a3e:	b25b      	sxtb	r3, r3
 8000a40:	73fb      	strb	r3, [r7, #15]
 8000a42:	e029      	b.n	8000a98 <MCAL_GPIO_Init+0xd4>
 8000a44:	683b      	ldr	r3, [r7, #0]
 8000a46:	789b      	ldrb	r3, [r3, #2]
 8000a48:	2b00      	cmp	r3, #0
 8000a4a:	d003      	beq.n	8000a54 <MCAL_GPIO_Init+0x90>
 8000a4c:	683b      	ldr	r3, [r7, #0]
 8000a4e:	789b      	ldrb	r3, [r3, #2]
 8000a50:	2b01      	cmp	r3, #1
 8000a52:	d104      	bne.n	8000a5e <MCAL_GPIO_Init+0x9a>
 8000a54:	683b      	ldr	r3, [r7, #0]
 8000a56:	789b      	ldrb	r3, [r3, #2]
 8000a58:	009b      	lsls	r3, r3, #2
 8000a5a:	73fb      	strb	r3, [r7, #15]
 8000a5c:	e01c      	b.n	8000a98 <MCAL_GPIO_Init+0xd4>
 8000a5e:	683b      	ldr	r3, [r7, #0]
 8000a60:	789b      	ldrb	r3, [r3, #2]
 8000a62:	2b08      	cmp	r3, #8
 8000a64:	d102      	bne.n	8000a6c <MCAL_GPIO_Init+0xa8>
 8000a66:	2304      	movs	r3, #4
 8000a68:	73fb      	strb	r3, [r7, #15]
 8000a6a:	e015      	b.n	8000a98 <MCAL_GPIO_Init+0xd4>
 8000a6c:	2308      	movs	r3, #8
 8000a6e:	73fb      	strb	r3, [r7, #15]
 8000a70:	683b      	ldr	r3, [r7, #0]
 8000a72:	789b      	ldrb	r3, [r3, #2]
 8000a74:	2b02      	cmp	r3, #2
 8000a76:	d107      	bne.n	8000a88 <MCAL_GPIO_Init+0xc4>
 8000a78:	687b      	ldr	r3, [r7, #4]
 8000a7a:	68db      	ldr	r3, [r3, #12]
 8000a7c:	683a      	ldr	r2, [r7, #0]
 8000a7e:	8812      	ldrh	r2, [r2, #0]
 8000a80:	431a      	orrs	r2, r3
 8000a82:	687b      	ldr	r3, [r7, #4]
 8000a84:	60da      	str	r2, [r3, #12]
 8000a86:	e007      	b.n	8000a98 <MCAL_GPIO_Init+0xd4>
 8000a88:	687b      	ldr	r3, [r7, #4]
 8000a8a:	68db      	ldr	r3, [r3, #12]
 8000a8c:	683a      	ldr	r2, [r7, #0]
 8000a8e:	8812      	ldrh	r2, [r2, #0]
 8000a90:	43d2      	mvns	r2, r2
 8000a92:	401a      	ands	r2, r3
 8000a94:	687b      	ldr	r3, [r7, #4]
 8000a96:	60da      	str	r2, [r3, #12]
 8000a98:	7bfc      	ldrb	r4, [r7, #15]
 8000a9a:	683b      	ldr	r3, [r7, #0]
 8000a9c:	881b      	ldrh	r3, [r3, #0]
 8000a9e:	4618      	mov	r0, r3
 8000aa0:	f7ff fed8 	bl	8000854 <Get_CRLH_Position>
 8000aa4:	4603      	mov	r3, r0
 8000aa6:	fa04 f203 	lsl.w	r2, r4, r3
 8000aaa:	68bb      	ldr	r3, [r7, #8]
 8000aac:	681b      	ldr	r3, [r3, #0]
 8000aae:	431a      	orrs	r2, r3
 8000ab0:	68bb      	ldr	r3, [r7, #8]
 8000ab2:	601a      	str	r2, [r3, #0]
 8000ab4:	bf00      	nop
 8000ab6:	3714      	adds	r7, #20
 8000ab8:	46bd      	mov	sp, r7
 8000aba:	bd90      	pop	{r4, r7, pc}

08000abc <__libc_init_array>:
 8000abc:	b570      	push	{r4, r5, r6, lr}
 8000abe:	2600      	movs	r6, #0
 8000ac0:	4d0c      	ldr	r5, [pc, #48]	; (8000af4 <__libc_init_array+0x38>)
 8000ac2:	4c0d      	ldr	r4, [pc, #52]	; (8000af8 <__libc_init_array+0x3c>)
 8000ac4:	1b64      	subs	r4, r4, r5
 8000ac6:	10a4      	asrs	r4, r4, #2
 8000ac8:	42a6      	cmp	r6, r4
 8000aca:	d109      	bne.n	8000ae0 <__libc_init_array+0x24>
 8000acc:	f000 f81a 	bl	8000b04 <_init>
 8000ad0:	2600      	movs	r6, #0
 8000ad2:	4d0a      	ldr	r5, [pc, #40]	; (8000afc <__libc_init_array+0x40>)
 8000ad4:	4c0a      	ldr	r4, [pc, #40]	; (8000b00 <__libc_init_array+0x44>)
 8000ad6:	1b64      	subs	r4, r4, r5
 8000ad8:	10a4      	asrs	r4, r4, #2
 8000ada:	42a6      	cmp	r6, r4
 8000adc:	d105      	bne.n	8000aea <__libc_init_array+0x2e>
 8000ade:	bd70      	pop	{r4, r5, r6, pc}
 8000ae0:	f855 3b04 	ldr.w	r3, [r5], #4
 8000ae4:	4798      	blx	r3
 8000ae6:	3601      	adds	r6, #1
 8000ae8:	e7ee      	b.n	8000ac8 <__libc_init_array+0xc>
 8000aea:	f855 3b04 	ldr.w	r3, [r5], #4
 8000aee:	4798      	blx	r3
 8000af0:	3601      	adds	r6, #1
 8000af2:	e7f2      	b.n	8000ada <__libc_init_array+0x1e>
 8000af4:	08000b28 	stmdaeq	r0, {r3, r5, r8, r9, fp}
 8000af8:	08000b28 	stmdaeq	r0, {r3, r5, r8, r9, fp}
 8000afc:	08000b28 	stmdaeq	r0, {r3, r5, r8, r9, fp}
 8000b00:	08000b2c 	stmdaeq	r0, {r2, r3, r5, r8, r9, fp}

08000b04 <_init>:
 8000b04:	b5f8      	push	{r3, r4, r5, r6, r7, lr}
 8000b06:	bf00      	nop
 8000b08:	bcf8      	pop	{r3, r4, r5, r6, r7}
 8000b0a:	bc08      	pop	{r3}
 8000b0c:	469e      	mov	lr, r3
 8000b0e:	4770      	bx	lr

08000b10 <_fini>:
 8000b10:	b5f8      	push	{r3, r4, r5, r6, r7, lr}
 8000b12:	bf00      	nop
 8000b14:	bcf8      	pop	{r3, r4, r5, r6, r7}
 8000b16:	bc08      	pop	{r3}
 8000b18:	469e      	mov	lr, r3
 8000b1a:	4770      	bx	lr

Disassembly of section .rodata:

08000b1c <.rodata>:
 8000b1c:	00000009 	andeq	r0, r0, r9
 8000b20:	40010c00 	andmi	r0, r1, r0, lsl #24
 8000b24:	00170200 	andseq	r0, r7, r0, lsl #4

Disassembly of section .init_array:

08000b28 <__frame_dummy_init_array_entry>:
 8000b28:	08000155 	stmdaeq	r0, {r0, r2, r4, r6, r8}

Disassembly of section .fini_array:

08000b2c <__do_global_dtors_aux_fini_array_entry>:
 8000b2c:	08000131 	stmdaeq	r0, {r0, r4, r5, r8}

Disassembly of section .bss:

20000000 <__bss_start__>:
20000000:	00000000 	andeq	r0, r0, r0

20000004 <object.0>:
	...

2000001c <IRQ_Flag>:
2000001c:	00000000 	andeq	r0, r0, r0

20000020 <IPSR_out>:
20000020:	00000000 	andeq	r0, r0, r0

20000024 <GP_IRQ_CallBack>:
	...

Disassembly of section ._user_heap_stack:

20000060 <_end>:
	...

Disassembly of section .ARM.attributes:

00000000 <.ARM.attributes>:
   0:	00002841 	andeq	r2, r0, r1, asr #16
   4:	61656100 	cmnvs	r5, r0, lsl #2
   8:	01006962 	tsteq	r0, r2, ror #18
   c:	0000001e 	andeq	r0, r0, lr, lsl r0
  10:	4d2d3705 	stcmi	7, cr3, [sp, #-20]!	; 0xffffffec
  14:	070a0600 	streq	r0, [sl, -r0, lsl #12]
  18:	1202094d 	andne	r0, r2, #1261568	; 0x134000
  1c:	15011404 	strne	r1, [r1, #-1028]	; 0xfffffbfc
  20:	18031701 	stmdane	r3, {r0, r8, r9, sl, ip}
  24:	22011a01 	andcs	r1, r1, #4096	; 0x1000
  28:	Address 0x0000000000000028 is out of bounds.


Disassembly of section .debug_info:

00000000 <.debug_info>:
   0:	000003b6 			; <UNDEFINED> instruction: 0x000003b6
   4:	00000002 	andeq	r0, r0, r2
   8:	01040000 	mrseq	r0, (UNDEF: 4)
   c:	00002a5d 	andeq	r2, r0, sp, asr sl
  10:	00320a0c 	eorseq	r0, r2, ip, lsl #20
  14:	0034ae00 	eorseq	sl, r4, r0, lsl #28
	...
  2c:	07040200 	streq	r0, [r4, -r0, lsl #4]
  30:	000021ef 	andeq	r2, r0, pc, ror #3
  34:	69050403 	stmdbvs	r5, {r0, r1, sl}
  38:	0200746e 	andeq	r7, r0, #1845493760	; 0x6e000000
  3c:	511a0508 	tstpl	sl, r8, lsl #10
  40:	08020000 	stmdaeq	r2, {}	; <UNPREDICTABLE>
  44:	00031604 	andeq	r1, r3, r4, lsl #12
  48:	06010200 	streq	r0, [r1], -r0, lsl #4
  4c:	000006f1 	strdeq	r0, [r0], -r1
  50:	00127704 	andseq	r7, r2, r4, lsl #14
  54:	182b0200 	stmdane	fp!, {r9}
  58:	0000005c 	andeq	r0, r0, ip, asr r0
  5c:	ba080102 	blt	20046c <_Min_Stack_Size+0x20006c>
  60:	02000031 	andeq	r0, r0, #49	; 0x31
  64:	09fb0502 	ldmibeq	fp!, {r1, r8, sl}^
  68:	53040000 	movwpl	r0, #16384	; 0x4000
  6c:	0200002b 	andeq	r0, r0, #43	; 0x2b
  70:	00761939 	rsbseq	r1, r6, r9, lsr r9
  74:	02020000 	andeq	r0, r2, #0
  78:	00698007 	rsbeq	r8, r9, r7
  7c:	05040200 	streq	r0, [r4, #-512]	; 0xfffffe00
  80:	00006cef 	andeq	r6, r0, pc, ror #25
  84:	003f1004 	eorseq	r1, pc, r4
  88:	194f0200 	stmdbne	pc, {r9}^	; <UNPREDICTABLE>
  8c:	00000090 	muleq	r0, r0, r0
  90:	24070402 	strcs	r0, [r7], #-1026	; 0xfffffbfe
  94:	0200001b 	andeq	r0, r0, #27
  98:	3b320708 	blcc	c81cc0 <_Min_Stack_Size+0xc818c0>
  9c:	04050000 	streq	r0, [r5], #-0
  a0:	000000a4 	andeq	r0, r0, r4, lsr #1
  a4:	01020106 	tsteq	r2, r6, lsl #2
  a8:	0006f808 	andeq	pc, r6, r8, lsl #16
  ac:	12790400 	rsbsne	r0, r9, #0, 8
  b0:	18030000 	stmdane	r3, {}	; <UNPREDICTABLE>
  b4:	00005013 	andeq	r5, r0, r3, lsl r0
  b8:	2b550400 	blcs	15410c0 <_Min_Stack_Size+0x1540cc0>
  bc:	24030000 	strcs	r0, [r3], #-0
  c0:	00006a14 	andeq	r6, r0, r4, lsl sl
  c4:	3f120400 	svccc	0x00120400
  c8:	30030000 	andcc	r0, r3, r0
  cc:	00008414 	andeq	r8, r0, r4, lsl r4
  d0:	00c50700 	sbceq	r0, r5, r0, lsl #14
  d4:	1c080000 	stcne	0, cr0, [r8], {-0}
  d8:	49096404 	stmdbmi	r9, {r2, sl, sp, lr}
  dc:	09000001 	stmdbeq	r0, {r0}
  e0:	004c5243 	subeq	r5, ip, r3, asr #4
  e4:	d1146604 	tstle	r4, r4, lsl #12
  e8:	02000000 	andeq	r0, r0, #0
  ec:	43090023 	movwmi	r0, #36899	; 0x9023
  f0:	04004852 	streq	r4, [r0], #-2130	; 0xfffff7ae
  f4:	00d11467 	sbcseq	r1, r1, r7, ror #8
  f8:	23020000 	movwcs	r0, #8192	; 0x2000
  fc:	44490904 	strbmi	r0, [r9], #-2308	; 0xfffff6fc
 100:	68040052 	stmdavs	r4, {r1, r4, r6}
 104:	0000d114 	andeq	sp, r0, r4, lsl r1
 108:	08230200 	stmdaeq	r3!, {r9}
 10c:	52444f09 	subpl	r4, r4, #9, 30	; 0x24
 110:	14690400 	strbtne	r0, [r9], #-1024	; 0xfffffc00
 114:	000000d1 	ldrdeq	r0, [r0], -r1
 118:	0a0c2302 	beq	308d28 <_Min_Stack_Size+0x308928>
 11c:	00008035 	andeq	r8, r0, r5, lsr r0
 120:	d1146a04 	tstle	r4, r4, lsl #20
 124:	02000000 	andeq	r0, r0, #0
 128:	42091023 	andmi	r1, r9, #35	; 0x23
 12c:	04005252 	streq	r5, [r0], #-594	; 0xfffffdae
 130:	00d1146b 	sbcseq	r1, r1, fp, ror #8
 134:	23020000 	movwcs	r0, #8192	; 0x2000
 138:	44540a14 	ldrbmi	r0, [r4], #-2580	; 0xfffff5ec
 13c:	6c040000 	stcvs	0, cr0, [r4], {-0}
 140:	0000d114 	andeq	sp, r0, r4, lsl r1
 144:	18230200 	stmdane	r3!, {r9}
 148:	55d00400 	ldrbpl	r0, [r0, #1024]	; 0x400
 14c:	6d040000 	stcvs	0, cr0, [r4, #-0]
 150:	0000d602 	andeq	sp, r0, r2, lsl #12
 154:	04300800 	ldrteq	r0, [r0], #-2048	; 0xfffff800
 158:	0212097b 	andseq	r0, r2, #2015232	; 0x1ec000
 15c:	43090000 	movwmi	r0, #36864	; 0x9000
 160:	7d040052 	stcvc	0, cr0, [r4, #-328]	; 0xfffffeb8
 164:	0000d114 	andeq	sp, r0, r4, lsl r1
 168:	00230200 	eoreq	r0, r3, r0, lsl #4
 16c:	0037cc0a 	eorseq	ip, r7, sl, lsl #24
 170:	147e0400 	ldrbtne	r0, [lr], #-1024	; 0xfffffc00
 174:	000000d1 	ldrdeq	r0, [r0], -r1
 178:	09042302 	stmdbeq	r4, {r1, r8, r9, sp}
 17c:	00524943 	subseq	r4, r2, r3, asr #18
 180:	d1147f04 	tstle	r4, r4, lsl #30
 184:	02000000 	andeq	r0, r0, #0
 188:	b90a0823 	stmdblt	sl, {r0, r1, r5, fp}
 18c:	04000050 	streq	r0, [r0], #-80	; 0xffffffb0
 190:	00d11480 	sbcseq	r1, r1, r0, lsl #9
 194:	23020000 	movwcs	r0, #8192	; 0x2000
 198:	64eb0a0c 	strbtvs	r0, [fp], #2572	; 0xa0c
 19c:	81040000 	mrshi	r0, (UNDEF: 4)
 1a0:	0000d114 	andeq	sp, r0, r4, lsl r1
 1a4:	10230200 	eorne	r0, r3, r0, lsl #4
 1a8:	007e5f0a 	rsbseq	r5, lr, sl, lsl #30
 1ac:	14820400 	strne	r0, [r2], #1024	; 0x400
 1b0:	000000d1 	ldrdeq	r0, [r0], -r1
 1b4:	0a142302 	beq	508dc4 <_Min_Stack_Size+0x5089c4>
 1b8:	00001c1b 	andeq	r1, r0, fp, lsl ip
 1bc:	d1148304 	tstle	r4, r4, lsl #6
 1c0:	02000000 	andeq	r0, r0, #0
 1c4:	5e0a1823 	cdppl	8, 0, cr1, cr10, cr3, {1}
 1c8:	04000065 	streq	r0, [r0], #-101	; 0xffffff9b
 1cc:	00d11484 	sbcseq	r1, r1, r4, lsl #9
 1d0:	23020000 	movwcs	r0, #8192	; 0x2000
 1d4:	32d40a1c 	sbcscc	r0, r4, #28, 20	; 0x1c000
 1d8:	85040000 	strhi	r0, [r4, #-0]
 1dc:	0000d114 	andeq	sp, r0, r4, lsl r1
 1e0:	20230200 	eorcs	r0, r3, r0, lsl #4
 1e4:	52534309 	subspl	r4, r3, #603979776	; 0x24000000
 1e8:	14860400 	strne	r0, [r6], #1024	; 0x400
 1ec:	000000d1 	ldrdeq	r0, [r0], -r1
 1f0:	0a242302 	beq	908e00 <_Min_Stack_Size+0x908a00>
 1f4:	0000284c 	andeq	r2, r0, ip, asr #16
 1f8:	d1148704 	tstle	r4, r4, lsl #14
 1fc:	02000000 	andeq	r0, r0, #0
 200:	070a2823 	streq	r2, [sl, -r3, lsr #16]
 204:	04000057 	streq	r0, [r0], #-87	; 0xffffffa9
 208:	00d11488 	sbcseq	r1, r1, r8, lsl #9
 20c:	23020000 	movwcs	r0, #8192	; 0x2000
 210:	4f04002c 	svcmi	0x0004002c
 214:	04000086 	streq	r0, [r0], #-134	; 0xffffff7a
 218:	01550289 	cmpeq	r5, r9, lsl #5
 21c:	0c080000 	stceq	0, cr0, [r8], {-0}
 220:	64091405 	strvs	r1, [r9], #-1029	; 0xfffffbfb
 224:	0a000002 	beq	234 <_Min_Heap_Size+0x34>
 228:	00004fa9 	andeq	r4, r0, r9, lsr #31
 22c:	b91e1505 	ldmdblt	lr, {r0, r2, r8, sl, ip}
 230:	02000000 	andeq	r0, r0, #0
 234:	dc0a0023 	stcle	0, cr0, [sl], {35}	; 0x23
 238:	05000069 	streq	r0, [r0, #-105]	; 0xffffff97
 23c:	02641e16 	rsbeq	r1, r4, #352	; 0x160
 240:	23020000 	movwcs	r0, #8192	; 0x2000
 244:	6a940a04 	bvs	fe502a5c <_estack+0xde50025c>
 248:	17050000 	strne	r0, [r5, -r0]
 24c:	0000b91e 	andeq	fp, r0, lr, lsl r9
 250:	08230200 	stmdaeq	r3!, {r9}
 254:	008d610a 	addeq	r6, sp, sl, lsl #2
 258:	1e180500 	cfmul32ne	mvfx0, mvfx8, mvfx0
 25c:	000000ad 	andeq	r0, r0, sp, lsr #1
 260:	000a2302 	andeq	r2, sl, r2, lsl #6
 264:	01490405 	cmpeq	r9, r5, lsl #8
 268:	84040000 	strhi	r0, [r4], #-0
 26c:	05000019 	streq	r0, [r0, #-25]	; 0xffffffe7
 270:	021e0219 	andseq	r0, lr, #-1879048191	; 0x90000001
 274:	14080000 	strne	r0, [r8], #-0
 278:	bc091c05 	stclt	12, cr1, [r9], {5}
 27c:	0a000002 	beq	28c <_Min_Heap_Size+0x8c>
 280:	0000514a 	andeq	r5, r0, sl, asr #2
 284:	6a191d05 	bvs	6476a0 <_Min_Stack_Size+0x6472a0>
 288:	02000002 	andeq	r0, r0, #2
 28c:	c60a0023 	strgt	r0, [sl], -r3, lsr #32
 290:	05000085 	streq	r0, [r0, #-133]	; 0xffffff7b
 294:	00ad0b20 	adceq	r0, sp, r0, lsr #22
 298:	23020000 	movwcs	r0, #8192	; 0x2000
 29c:	71550a0c 	cmpvc	r5, ip, lsl #20
 2a0:	23050000 	movwcs	r0, #20480	; 0x5000
 2a4:	0000ad0b 	andeq	sl, r0, fp, lsl #26
 2a8:	0d230200 	sfmeq	f0, 4, [r3, #-0]
 2ac:	00950c0a 	addseq	r0, r5, sl, lsl #24
 2b0:	08260500 	stmdaeq	r6!, {r8, sl}
 2b4:	0000009e 	muleq	r0, lr, r0
 2b8:	00102302 	andseq	r2, r0, r2, lsl #6
 2bc:	002d0b04 	eoreq	r0, sp, r4, lsl #22
 2c0:	02270500 	eoreq	r0, r7, #0, 10
 2c4:	00000276 	andeq	r0, r0, r6, ror r2
 2c8:	0031620b 	eorseq	r6, r1, fp, lsl #4
 2cc:	051e0100 	ldreq	r0, [lr, #-256]	; 0xffffff00
 2d0:	00000034 	andeq	r0, r0, r4, lsr r0
 2d4:	1c030501 	cfstr32ne	mvfx0, [r3], {1}
 2d8:	0b200000 	bleq	8002e0 <_Min_Stack_Size+0x7ffee0>
 2dc:	0000792f 	andeq	r7, r0, pc, lsr #18
 2e0:	34051f01 	strcc	r1, [r5], #-3841	; 0xfffff0ff
 2e4:	01000000 	mrseq	r0, (UNDEF: 0)
 2e8:	00200305 	eoreq	r0, r0, r5, lsl #6
 2ec:	700c2000 	andvc	r2, ip, r0
 2f0:	07000084 	streq	r0, [r0, -r4, lsl #1]
 2f4:	00005c01 	andeq	r5, r0, r1, lsl #24
 2f8:	06200100 	strteq	r0, [r0], -r0, lsl #2
 2fc:	0000030d 	andeq	r0, r0, sp, lsl #6
 300:	0010160d 	andseq	r1, r0, sp, lsl #12
 304:	140d0000 	strne	r0, [sp], #-0
 308:	01000010 	tsteq	r0, r0, lsl r0
 30c:	c5010e00 	strgt	r0, [r1, #-3584]	; 0xfffff200
 310:	05000054 	streq	r0, [r0, #-84]	; 0xffffffac
 314:	010106db 	ldrdeq	r0, [r1, -fp]
 318:	00000322 	andeq	r0, r0, r2, lsr #6
 31c:	0003220f 	andeq	r2, r3, pc, lsl #4
 320:	04050000 	streq	r0, [r5], #-0
 324:	000002bc 			; <UNDEFINED> instruction: 0x000002bc
 328:	1a0d0110 	bne	340770 <_Min_Stack_Size+0x340370>
 32c:	42010000 	andmi	r0, r1, #0
 330:	00003405 	andeq	r3, r0, r5, lsl #8
 334:	0001e800 	andeq	lr, r1, r0, lsl #16
 338:	00026808 	andeq	r6, r2, r8, lsl #16
 33c:	00000008 	andeq	r0, r0, r8
 340:	03650100 	cmneq	r5, #0, 2
 344:	34110000 	ldrcc	r0, [r1], #-0
 348:	01000027 	tsteq	r0, r7, lsr #32
 34c:	00340644 	eorseq	r0, r4, r4, asr #12
 350:	91020000 	mrsls	r0, (UNDEF: 2)
 354:	77551174 			; <UNDEFINED> instruction: 0x77551174
 358:	4b010000 	blmi	40360 <_Min_Stack_Size+0x3ff60>
 35c:	0002bc13 	andeq	fp, r2, r3, lsl ip
 360:	60910200 	addsvs	r0, r1, r0, lsl #4
 364:	12011200 	andne	r1, r1, #0, 4
 368:	0100005b 	qaddeq	r0, fp, r0
 36c:	c0010638 	andgt	r0, r1, r8, lsr r6
 370:	e8080001 	stmda	r8, {r0}
 374:	38080001 	stmdacc	r8, {r0}
 378:	01000000 	mrseq	r0, (UNDEF: 0)
 37c:	5a9e0113 	bpl	fe7807d0 <_estack+0xde77dfd0>
 380:	34010000 	strcc	r0, [r1], #-0
 384:	0001b006 	andeq	fp, r1, r6
 388:	0001be08 	andeq	fp, r1, r8, lsl #28
 38c:	00006408 	andeq	r6, r0, r8, lsl #8
 390:	01140100 	tsteq	r4, r0, lsl #2
 394:	00008469 	andeq	r8, r0, r9, ror #8
 398:	01062101 	tsteq	r6, r1, lsl #2
 39c:	08000170 	stmdaeq	r0, {r4, r5, r6, r8}
 3a0:	080001b0 	stmdaeq	r0, {r4, r5, r7, r8}
 3a4:	00000090 	muleq	r0, r0, r0
 3a8:	00421501 	subeq	r1, r2, r1, lsl #10
 3ac:	21010000 	mrscs	r0, (UNDEF: 1)
 3b0:	0002ee32 	andeq	lr, r2, r2, lsr lr
 3b4:	77910200 	ldrvc	r0, [r1, r0, lsl #4]
 3b8:	001e0000 	andseq	r0, lr, r0
 3bc:	00020000 	andeq	r0, r2, r0
 3c0:	0000015d 	andeq	r0, r0, sp, asr r1
 3c4:	075a0104 	ldrbeq	r0, [sl, -r4, lsl #2]
 3c8:	00280000 	eoreq	r0, r8, r0
 3cc:	93a70000 			; <UNDEFINED> instruction: 0x93a70000
 3d0:	34ae0000 	strtcc	r0, [lr], #0
 3d4:	93ca0000 	bicls	r0, sl, #0
 3d8:	80010000 	andhi	r0, r1, r0
 3dc:	00000526 	andeq	r0, r0, r6, lsr #10
 3e0:	016f0002 	cmneq	pc, r2
 3e4:	01040000 	mrseq	r0, (UNDEF: 4)
 3e8:	00002a5d 	andeq	r2, r0, sp, asr sl
 3ec:	00947d0c 	addseq	r7, r4, ip, lsl #26
 3f0:	0034ae00 	eorseq	sl, r4, r0, lsl #28
 3f4:	00004800 	andeq	r4, r0, r0, lsl #16
	...
 400:	0007de00 	andeq	sp, r7, r0, lsl #28
 404:	001f0900 	andseq	r0, pc, r0, lsl #18
 408:	07040200 	streq	r0, [r4, -r0, lsl #4]
 40c:	000021ef 	andeq	r2, r0, pc, ror #3
 410:	69050403 	stmdbvs	r5, {r0, r1, sl}
 414:	0200746e 	andeq	r7, r0, #1845493760	; 0x6e000000
 418:	511a0508 	tstpl	sl, r8, lsl #10
 41c:	08020000 	stmdaeq	r2, {}	; <UNPREDICTABLE>
 420:	00031604 	andeq	r1, r3, r4, lsl #12
 424:	06010200 	streq	r0, [r1], -r0, lsl #4
 428:	000006f1 	strdeq	r0, [r0], -r1
 42c:	00127704 	andseq	r7, r2, r4, lsl #14
 430:	182b0200 	stmdane	fp!, {r9}
 434:	0000005c 	andeq	r0, r0, ip, asr r0
 438:	ba080102 	blt	200848 <_Min_Stack_Size+0x200448>
 43c:	02000031 	andeq	r0, r0, #49	; 0x31
 440:	09fb0502 	ldmibeq	fp!, {r1, r8, sl}^
 444:	53040000 	movwpl	r0, #16384	; 0x4000
 448:	0200002b 	andeq	r0, r0, #43	; 0x2b
 44c:	00761939 	rsbseq	r1, r6, r9, lsr r9
 450:	02020000 	andeq	r0, r2, #0
 454:	00698007 	rsbeq	r8, r9, r7
 458:	05040200 	streq	r0, [r4, #-512]	; 0xfffffe00
 45c:	00006cef 	andeq	r6, r0, pc, ror #25
 460:	003f1004 	eorseq	r1, pc, r4
 464:	194f0200 	stmdbne	pc, {r9}^	; <UNPREDICTABLE>
 468:	00000090 	muleq	r0, r0, r0
 46c:	24070402 	strcs	r0, [r7], #-1026	; 0xfffffbfe
 470:	0200001b 	andeq	r0, r0, #27
 474:	3b320708 	blcc	c8209c <_Min_Stack_Size+0xc81c9c>
 478:	04050000 	streq	r0, [r5], #-0
 47c:	000000a4 	andeq	r0, r0, r4, lsr #1
 480:	01020106 	tsteq	r2, r6, lsl #2
 484:	0006f808 	andeq	pc, r6, r8, lsl #16
 488:	12790400 	rsbsne	r0, r9, #0, 8
 48c:	18030000 	stmdane	r3, {}	; <UNPREDICTABLE>
 490:	00005013 	andeq	r5, r0, r3, lsl r0
 494:	2b550400 	blcs	154149c <_Min_Stack_Size+0x154109c>
 498:	24030000 	strcs	r0, [r3], #-0
 49c:	00006a14 	andeq	r6, r0, r4, lsl sl
 4a0:	3f120400 	svccc	0x00120400
 4a4:	30030000 	andcc	r0, r3, r0
 4a8:	00008414 	andeq	r8, r0, r4, lsl r4
 4ac:	00c50700 	sbceq	r0, r5, r0, lsl #14
 4b0:	1c080000 	stcne	0, cr0, [r8], {-0}
 4b4:	49096404 	stmdbmi	r9, {r2, sl, sp, lr}
 4b8:	09000001 	stmdbeq	r0, {r0}
 4bc:	004c5243 	subeq	r5, ip, r3, asr #4
 4c0:	d1146604 	tstle	r4, r4, lsl #12
 4c4:	02000000 	andeq	r0, r0, #0
 4c8:	43090023 	movwmi	r0, #36899	; 0x9023
 4cc:	04004852 	streq	r4, [r0], #-2130	; 0xfffff7ae
 4d0:	00d11467 	sbcseq	r1, r1, r7, ror #8
 4d4:	23020000 	movwcs	r0, #8192	; 0x2000
 4d8:	44490904 	strbmi	r0, [r9], #-2308	; 0xfffff6fc
 4dc:	68040052 	stmdavs	r4, {r1, r4, r6}
 4e0:	0000d114 	andeq	sp, r0, r4, lsl r1
 4e4:	08230200 	stmdaeq	r3!, {r9}
 4e8:	52444f09 	subpl	r4, r4, #9, 30	; 0x24
 4ec:	14690400 	strbtne	r0, [r9], #-1024	; 0xfffffc00
 4f0:	000000d1 	ldrdeq	r0, [r0], -r1
 4f4:	0a0c2302 	beq	309104 <_Min_Stack_Size+0x308d04>
 4f8:	00008035 	andeq	r8, r0, r5, lsr r0
 4fc:	d1146a04 	tstle	r4, r4, lsl #20
 500:	02000000 	andeq	r0, r0, #0
 504:	42091023 	andmi	r1, r9, #35	; 0x23
 508:	04005252 	streq	r5, [r0], #-594	; 0xfffffdae
 50c:	00d1146b 	sbcseq	r1, r1, fp, ror #8
 510:	23020000 	movwcs	r0, #8192	; 0x2000
 514:	44540a14 	ldrbmi	r0, [r4], #-2580	; 0xfffff5ec
 518:	6c040000 	stcvs	0, cr0, [r4], {-0}
 51c:	0000d114 	andeq	sp, r0, r4, lsl r1
 520:	18230200 	stmdane	r3!, {r9}
 524:	55d00400 	ldrbpl	r0, [r0, #1024]	; 0x400
 528:	6d040000 	stcvs	0, cr0, [r4, #-0]
 52c:	0000d602 	andeq	sp, r0, r2, lsl #12
 530:	04200800 	strteq	r0, [r0], #-2048	; 0xfffff800
 534:	01aa0970 			; <UNDEFINED> instruction: 0x01aa0970
 538:	d00a0000 	andle	r0, sl, r0
 53c:	04000095 	streq	r0, [r0], #-149	; 0xffffff6b
 540:	00d11472 	sbcseq	r1, r1, r2, ror r4
 544:	23020000 	movwcs	r0, #8192	; 0x2000
 548:	953a0a00 	ldrls	r0, [sl, #-2560]!	; 0xfffff600
 54c:	73040000 	movwvc	r0, #16384	; 0x4000
 550:	0000d114 	andeq	sp, r0, r4, lsl r1
 554:	04230200 	strteq	r0, [r3], #-512	; 0xfffffe00
 558:	0093e70a 	addseq	lr, r3, sl, lsl #14
 55c:	14740400 	ldrbtne	r0, [r4], #-1024	; 0xfffffc00
 560:	000001ba 			; <UNDEFINED> instruction: 0x000001ba
 564:	0a082302 	beq	209174 <_Min_Stack_Size+0x208d74>
 568:	000095ea 	andeq	r9, r0, sl, ror #11
 56c:	c50d7504 	strgt	r7, [sp, #-1284]	; 0xfffffafc
 570:	02000000 	andeq	r0, r0, #0
 574:	4f0a1823 	svcmi	0x000a1823
 578:	04000094 	streq	r0, [r0], #-148	; 0xffffff6c
 57c:	00d11476 	sbcseq	r1, r1, r6, ror r4
 580:	23020000 	movwcs	r0, #8192	; 0x2000
 584:	d10b001c 	tstle	fp, ip, lsl r0
 588:	ba000000 	blt	590 <_Min_Stack_Size+0x190>
 58c:	0c000001 	stceq	0, cr0, [r0], {1}
 590:	0000002d 	andeq	r0, r0, sp, lsr #32
 594:	aa070003 	bge	1c05a8 <_Min_Stack_Size+0x1c01a8>
 598:	04000001 	streq	r0, [r0], #-1
 59c:	0000956f 	andeq	r9, r0, pc, ror #10
 5a0:	55027704 	strpl	r7, [r2, #-1796]	; 0xfffff8fc
 5a4:	08000001 	stmdaeq	r0, {r0}
 5a8:	098c0418 	stmibeq	ip, {r3, r4, sl}
 5ac:	0000022e 	andeq	r0, r0, lr, lsr #4
 5b0:	524d4909 	subpl	r4, sp, #147456	; 0x24000
 5b4:	148e0400 	strne	r0, [lr], #1024	; 0x400
 5b8:	000000d1 	ldrdeq	r0, [r0], -r1
 5bc:	09002302 	stmdbeq	r0, {r1, r8, r9, sp}
 5c0:	00524d45 	subseq	r4, r2, r5, asr #26
 5c4:	d1148f04 	tstle	r4, r4, lsl #30
 5c8:	02000000 	andeq	r0, r0, #0
 5cc:	090a0423 	stmdbeq	sl, {r0, r1, r5, sl}
 5d0:	04000094 	streq	r0, [r0], #-148	; 0xffffff6c
 5d4:	00d11490 	smullseq	r1, r1, r0, r4	; <UNPREDICTABLE>
 5d8:	23020000 	movwcs	r0, #8192	; 0x2000
 5dc:	93ee0a08 	mvnls	r0, #8, 20	; 0x8000
 5e0:	91040000 	mrsls	r0, (UNDEF: 4)
 5e4:	0000d114 	andeq	sp, r0, r4, lsl r1
 5e8:	0c230200 	sfmeq	f0, 4, [r3], #-0
 5ec:	0095340a 	addseq	r3, r5, sl, lsl #8
 5f0:	14920400 	ldrne	r0, [r2], #1024	; 0x400
 5f4:	000000d1 	ldrdeq	r0, [r0], -r1
 5f8:	09102302 	ldmdbeq	r0, {r1, r8, r9, sp}
 5fc:	04005250 	streq	r5, [r0], #-592	; 0xfffffdb0
 600:	00d11493 	smullseq	r1, r1, r3, r4	; <UNPREDICTABLE>
 604:	23020000 	movwcs	r0, #8192	; 0x2000
 608:	1b040014 	blne	100660 <_Min_Stack_Size+0x100260>
 60c:	04000095 	streq	r0, [r0], #-149	; 0xffffff6b
 610:	01cb0294 			; <UNDEFINED> instruction: 0x01cb0294
 614:	04080000 	streq	r0, [r8], #-0
 618:	71091505 	tstvc	r9, r5, lsl #10
 61c:	0a000002 	beq	62c <_Min_Stack_Size+0x22c>
 620:	0000958d 	andeq	r9, r0, sp, lsl #11
 624:	b90c1605 	stmdblt	ip, {r0, r2, r9, sl, ip}
 628:	02000000 	andeq	r0, r0, #0
 62c:	0e0a0023 	cdpeq	0, 0, cr0, cr10, cr3, {1}
 630:	05000094 	streq	r0, [r0, #-148]	; 0xffffff6c
 634:	00ad0c18 	adceq	r0, sp, r8, lsl ip
 638:	23020000 	movwcs	r0, #8192	; 0x2000
 63c:	946b0a02 	strbtls	r0, [fp], #-2562	; 0xfffff5fe
 640:	19050000 	stmdbne	r5, {}	; <UNPREDICTABLE>
 644:	0000ad0c 	andeq	sl, r0, ip, lsl #26
 648:	03230200 			; <UNDEFINED> instruction: 0x03230200
 64c:	943e0400 	ldrtls	r0, [lr], #-1024	; 0xfffffc00
 650:	1b050000 	blne	140658 <_Min_Stack_Size+0x140258>
 654:	00023a02 	andeq	r3, r2, r2, lsl #20
 658:	060c0800 	streq	r0, [ip], -r0, lsl #16
 65c:	02c30914 	sbceq	r0, r3, #20, 18	; 0x50000
 660:	a90a0000 	stmdbge	sl, {}	; <UNPREDICTABLE>
 664:	0600004f 	streq	r0, [r0], -pc, asr #32
 668:	00b91e15 	adcseq	r1, r9, r5, lsl lr
 66c:	23020000 	movwcs	r0, #8192	; 0x2000
 670:	69dc0a00 	ldmibvs	ip, {r9, fp}^
 674:	16060000 	strne	r0, [r6], -r0
 678:	0002c31e 	andeq	ip, r2, lr, lsl r3
 67c:	04230200 	strteq	r0, [r3], #-512	; 0xfffffe00
 680:	006a940a 	rsbeq	r9, sl, sl, lsl #8
 684:	1e170600 	cfmsub32ne	mvax0, mvfx0, mvfx7, mvfx0
 688:	000000b9 	strheq	r0, [r0], -r9
 68c:	0a082302 	beq	20929c <_Min_Stack_Size+0x208e9c>
 690:	00008d61 	andeq	r8, r0, r1, ror #26
 694:	ad1e1806 	ldcge	8, cr1, [lr, #-24]	; 0xffffffe8
 698:	02000000 	andeq	r0, r0, #0
 69c:	05000a23 	streq	r0, [r0, #-2595]	; 0xfffff5dd
 6a0:	00014904 	andeq	r4, r1, r4, lsl #18
 6a4:	19840400 	stmibne	r4, {sl}
 6a8:	19060000 	stmdbne	r6, {}	; <UNPREDICTABLE>
 6ac:	00027d02 	andeq	r7, r2, r2, lsl #26
 6b0:	06140800 	ldreq	r0, [r4], -r0, lsl #16
 6b4:	031b091c 	tsteq	fp, #28, 18	; 0x70000
 6b8:	4a0a0000 	bmi	2806c0 <_Min_Stack_Size+0x2802c0>
 6bc:	06000051 			; <UNDEFINED> instruction: 0x06000051
 6c0:	02c9191d 	sbceq	r1, r9, #475136	; 0x74000
 6c4:	23020000 	movwcs	r0, #8192	; 0x2000
 6c8:	85c60a00 	strbhi	r0, [r6, #2560]	; 0xa00
 6cc:	20060000 	andcs	r0, r6, r0
 6d0:	0000ad0b 	andeq	sl, r0, fp, lsl #26
 6d4:	0c230200 	sfmeq	f0, 4, [r3], #-0
 6d8:	0071550a 	rsbseq	r5, r1, sl, lsl #10
 6dc:	0b230600 	bleq	8c1ee4 <_Min_Stack_Size+0x8c1ae4>
 6e0:	000000ad 	andeq	r0, r0, sp, lsr #1
 6e4:	0a0d2302 	beq	3492f4 <_Min_Stack_Size+0x348ef4>
 6e8:	0000950c 	andeq	r9, r0, ip, lsl #10
 6ec:	9e082606 	cfmadd32ls	mvax0, mvfx2, mvfx8, mvfx6
 6f0:	02000000 	andeq	r0, r0, #0
 6f4:	04001023 	streq	r1, [r0], #-35	; 0xffffffdd
 6f8:	00002d0b 	andeq	r2, r0, fp, lsl #26
 6fc:	d5022706 	strle	r2, [r2, #-1798]	; 0xfffff8fa
 700:	0b000002 	bleq	710 <_Min_Stack_Size+0x310>
 704:	0000009e 	muleq	r0, lr, r0
 708:	00000337 	andeq	r0, r0, r7, lsr r3
 70c:	00002d0c 	andeq	r2, r0, ip, lsl #26
 710:	0d000e00 	stceq	14, cr0, [r0, #-0]
 714:	0000950b 	andeq	r9, r0, fp, lsl #10
 718:	27090d01 	strcs	r0, [r9, -r1, lsl #26]
 71c:	01000003 	tsteq	r0, r3
 720:	00240305 	eoreq	r0, r4, r5, lsl #6
 724:	010e2000 	mrseq	r2, (UNDEF: 14)
 728:	000093d8 	ldrdeq	r9, [r0], -r8
 72c:	01066205 	tsteq	r6, r5, lsl #4
 730:	00036401 	andeq	r6, r3, r1, lsl #8
 734:	02c30f00 	sbceq	r0, r3, #0, 30
 738:	640f0000 	strvs	r0, [pc], #-0	; 740 <_Min_Stack_Size+0x340>
 73c:	00000003 	andeq	r0, r0, r3
 740:	02710405 	rsbseq	r0, r1, #83886080	; 0x5000000
 744:	01100000 	tsteq	r0, r0
 748:	000095d5 	ldrdeq	r9, [r0], -r5
 74c:	06010201 	streq	r0, [r1], -r1, lsl #4
 750:	00079001 	andeq	r9, r7, r1
 754:	00085408 	andeq	r5, r8, r8, lsl #8
 758:	0000ec08 	andeq	lr, r0, r8, lsl #24
 75c:	01110100 	tsteq	r1, r0, lsl #2
 760:	0000955c 	andeq	r9, r0, ip, asr r5
 764:	0106fa01 	tsteq	r6, r1, lsl #20	; <UNPREDICTABLE>
 768:	080006e8 	stmdaeq	r0, {r3, r5, r6, r7, r9, sl}
 76c:	08000790 	stmdaeq	r0, {r4, r7, r8, r9, sl}
 770:	00000118 	andeq	r0, r0, r8, lsl r1
 774:	18011101 	stmdane	r1, {r0, r8, ip}
 778:	01000094 	swpeq	r0, r4, [r0]	; <UNPREDICTABLE>
 77c:	c40106f4 	strgt	r0, [r1], #-1780	; 0xfffff90c
 780:	e8080006 	stmda	r8, {r1, r2}
 784:	44080006 	strmi	r0, [r8], #-6
 788:	01000001 	tsteq	r0, r1
 78c:	959c0111 	ldrls	r0, [ip, #273]	; 0x111
 790:	ef010000 	svc	0x00010000
 794:	06a00106 	strteq	r0, [r0], r6, lsl #2
 798:	06c40800 	strbeq	r0, [r4], r0, lsl #16
 79c:	01700800 	cmneq	r0, r0, lsl #16
 7a0:	11010000 	mrsne	r0, (UNDEF: 1)
 7a4:	00953f01 	addseq	r3, r5, r1, lsl #30
 7a8:	06ea0100 	strbteq	r0, [sl], r0, lsl #2
 7ac:	00067c01 	andeq	r7, r6, r1, lsl #24
 7b0:	0006a008 	andeq	sl, r6, r8
 7b4:	00019c08 	andeq	r9, r1, r8, lsl #24
 7b8:	01110100 	tsteq	r1, r0, lsl #2
 7bc:	00009600 	andeq	r9, r0, r0, lsl #12
 7c0:	0106e501 	tsteq	r6, r1, lsl #10
 7c4:	08000658 	stmdaeq	r0, {r3, r4, r6, r9, sl}
 7c8:	0800067c 	stmdaeq	r0, {r2, r3, r4, r5, r6, r9, sl}
 7cc:	000001c8 	andeq	r0, r0, r8, asr #3
 7d0:	bf011101 	svclt	0x00011101
 7d4:	01000095 	swpeq	r0, r5, [r0]	; <UNPREDICTABLE>
 7d8:	340106e0 	strcc	r0, [r1], #-1760	; 0xfffff920
 7dc:	58080006 	stmdapl	r8, {r1, r2}
 7e0:	f4080006 	vst4.8	{d0-d3}, [r8], r6
 7e4:	01000001 	tsteq	r0, r1
 7e8:	54c50112 	strbpl	r0, [r5], #274	; 0x112
 7ec:	d8010000 	stmdale	r1, {}	; <UNPREDICTABLE>
 7f0:	061c0106 	ldreq	r0, [ip], -r6, lsl #2
 7f4:	06320800 	ldrteq	r0, [r2], -r0, lsl #16
 7f8:	02200800 	eoreq	r0, r0, #0, 16
 7fc:	37010000 	strcc	r0, [r1, -r0]
 800:	13000004 	movwne	r0, #4
 804:	0000957e 	andeq	r9, r0, lr, ror r5
 808:	372dd801 	strcc	sp, [sp, -r1, lsl #16]!
 80c:	02000004 	andeq	r0, r0, #4
 810:	05007491 	streq	r7, [r0, #-1169]	; 0xfffffb6f
 814:	00031b04 	andeq	r1, r3, r4, lsl #22
 818:	f3011200 	vhsub.u8	d1, d1, d0
 81c:	01000093 	swpeq	r0, r3, [r0]	; <UNPREDICTABLE>
 820:	000106c9 	andeq	r0, r1, r9, asr #13
 824:	00000000 	andeq	r0, r0, r0
 828:	70000000 	andvc	r0, r0, r0
 82c:	01000002 	tsteq	r0, r2
 830:	00000468 	andeq	r0, r0, r8, ror #8
 834:	00957e13 	addseq	r7, r5, r3, lsl lr
 838:	2fc90100 	svccs	0x00c90100
 83c:	00000437 	andeq	r0, r0, r7, lsr r4
 840:	00749102 	rsbseq	r9, r4, r2, lsl #2
 844:	94550114 	ldrbls	r0, [r5], #-276	; 0xfffffeec
 848:	a7010000 	strge	r0, [r1, -r0]
 84c:	00000106 	andeq	r0, r0, r6, lsl #2
 850:	00000000 	andeq	r0, r0, r0
 854:	02c00000 	sbceq	r0, r0, #0
 858:	12010000 	andne	r0, r1, #0
 85c:	00955001 	addseq	r5, r5, r1
 860:	06650100 	strbteq	r0, [r5], -r0, lsl #2
 864:	00044c01 	andeq	r4, r4, r1, lsl #24
 868:	00061c08 	andeq	r1, r6, r8, lsl #24
 86c:	00030408 	andeq	r0, r3, r8, lsl #8
 870:	04d70100 	ldrbeq	r0, [r7], #256	; 0x100
 874:	7e130000 	cdpvc	0, 1, cr0, cr3, cr0, {0}
 878:	01000095 	swpeq	r0, r5, [r0]	; <UNPREDICTABLE>
 87c:	04372565 	ldrteq	r2, [r7], #-1381	; 0xfffffa9b
 880:	91020000 	mrsls	r0, (UNDEF: 2)
 884:	952a156c 	strls	r1, [sl, #-1388]!	; 0xfffffa94
 888:	67010000 	strvs	r0, [r1, -r0]
 88c:	00027113 	andeq	r7, r2, r3, lsl r1
 890:	70910200 	addsvc	r0, r1, r0, lsl #4
 894:	0095ad15 	addseq	sl, r5, r5, lsl sp
 898:	0a710100 	beq	1c40ca0 <_Min_Stack_Size+0x1c408a0>
 89c:	000000ad 	andeq	r0, r0, sp, lsr #1
 8a0:	15779102 	ldrbne	r9, [r7, #-258]!	; 0xfffffefe
 8a4:	00009429 	andeq	r9, r0, r9, lsr #8
 8a8:	ad0a7301 	stcge	3, cr7, [sl, #-4]
 8ac:	02000000 	andeq	r0, r0, #0
 8b0:	16007691 			; <UNDEFINED> instruction: 0x16007691
 8b4:	0095f301 	addseq	pc, r5, r1, lsl #6
 8b8:	06350100 	ldrteq	r0, [r5], -r0, lsl #2
 8bc:	00038401 	andeq	r8, r3, r1, lsl #8
 8c0:	00044c08 	andeq	r4, r4, r8, lsl #24
 8c4:	00035408 	andeq	r5, r3, r8, lsl #8
 8c8:	05020100 	streq	r0, [r2, #-256]	; 0xffffff00
 8cc:	b1130000 	tstlt	r3, r0
 8d0:	01000094 	swpeq	r0, r4, [r0]	; <UNPREDICTABLE>
 8d4:	00b91c35 	adcseq	r1, r9, r5, lsr ip
 8d8:	91020000 	mrsls	r0, (UNDEF: 2)
 8dc:	01170076 	tsteq	r7, r6, ror r0
 8e0:	00009611 	andeq	r9, r0, r1, lsl r6
 8e4:	01061101 	tsteq	r6, r1, lsl #2
 8e8:	080002bc 	stmdaeq	r0, {r2, r3, r4, r5, r7, r9}
 8ec:	08000384 	stmdaeq	r0, {r2, r7, r8, r9}
 8f0:	000003b0 			; <UNDEFINED> instruction: 0x000003b0
 8f4:	94b11301 	ldrtls	r1, [r1], #769	; 0x301
 8f8:	11010000 	mrsne	r0, (UNDEF: 1)
 8fc:	0000b91b 	andeq	fp, r0, fp, lsl r9
 900:	76910200 	ldrvc	r0, [r1], r0, lsl #4
 904:	04610000 	strbteq	r0, [r1], #-0
 908:	00020000 	andeq	r0, r2, r0
 90c:	000002f8 	strdeq	r0, [r0], -r8
 910:	2a5d0104 	bcs	1740d28 <_Min_Stack_Size+0x1740928>
 914:	1d0c0000 	stcne	0, cr0, [ip, #-0]
 918:	ae000096 	mcrge	0, 0, r0, cr0, cr6, {4}
 91c:	b8000034 	stmdalt	r0, {r2, r4, r5}
	...
 928:	f6000000 			; <UNDEFINED> instruction: 0xf6000000
 92c:	36000012 			; <UNDEFINED> instruction: 0x36000012
 930:	02000021 	andeq	r0, r0, #33	; 0x21
 934:	21ef0704 	mvncs	r0, r4, lsl #14
 938:	04030000 	streq	r0, [r3], #-0
 93c:	746e6905 	strbtvc	r6, [lr], #-2309	; 0xfffff6fb
 940:	05080200 	streq	r0, [r8, #-512]	; 0xfffffe00
 944:	0000511a 	andeq	r5, r0, sl, lsl r1
 948:	16040802 	strne	r0, [r4], -r2, lsl #16
 94c:	02000003 	andeq	r0, r0, #3
 950:	06f10601 	ldrbteq	r0, [r1], r1, lsl #12
 954:	77040000 	strvc	r0, [r4, -r0]
 958:	02000012 	andeq	r0, r0, #18
 95c:	005c182b 	subseq	r1, ip, fp, lsr #16
 960:	01020000 	mrseq	r0, (UNDEF: 2)
 964:	0031ba08 	eorseq	fp, r1, r8, lsl #20
 968:	05020200 	streq	r0, [r2, #-512]	; 0xfffffe00
 96c:	000009fb 	strdeq	r0, [r0], -fp
 970:	002b5304 	eoreq	r5, fp, r4, lsl #6
 974:	19390200 	ldmdbne	r9!, {r9}
 978:	00000076 	andeq	r0, r0, r6, ror r0
 97c:	80070202 	andhi	r0, r7, r2, lsl #4
 980:	02000069 	andeq	r0, r0, #105	; 0x69
 984:	6cef0504 	cfstr64vs	mvdx0, [pc], #16	; 99c <_Min_Stack_Size+0x59c>
 988:	10040000 	andne	r0, r4, r0
 98c:	0200003f 	andeq	r0, r0, #63	; 0x3f
 990:	0090194f 	addseq	r1, r0, pc, asr #18
 994:	04020000 	streq	r0, [r2], #-0
 998:	001b2407 	andseq	r2, fp, r7, lsl #8
 99c:	07080200 	streq	r0, [r8, -r0, lsl #4]
 9a0:	00003b32 	andeq	r3, r0, r2, lsr fp
 9a4:	f8080102 			; <UNDEFINED> instruction: 0xf8080102
 9a8:	04000006 	streq	r0, [r0], #-6
 9ac:	00001279 	andeq	r1, r0, r9, ror r2
 9b0:	50131803 	andspl	r1, r3, r3, lsl #16
 9b4:	04000000 	streq	r0, [r0], #-0
 9b8:	00002b55 	andeq	r2, r0, r5, asr fp
 9bc:	6a142403 	bvs	5099d0 <_Min_Stack_Size+0x5095d0>
 9c0:	04000000 	streq	r0, [r0], #-0
 9c4:	00003f12 	andeq	r3, r0, r2, lsl pc
 9c8:	84143003 	ldrhi	r3, [r4], #-3
 9cc:	05000000 	streq	r0, [r0, #-0]
 9d0:	000000bd 	strheq	r0, [r0], -sp
 9d4:	64041c06 	strvs	r1, [r4], #-3078	; 0xfffff3fa
 9d8:	00014109 	andeq	r4, r1, r9, lsl #2
 9dc:	52430700 	subpl	r0, r3, #0, 14
 9e0:	6604004c 	strvs	r0, [r4], -ip, asr #32
 9e4:	0000c914 	andeq	ip, r0, r4, lsl r9
 9e8:	00230200 	eoreq	r0, r3, r0, lsl #4
 9ec:	48524307 	ldmdami	r2, {r0, r1, r2, r8, r9, lr}^
 9f0:	14670400 	strbtne	r0, [r7], #-1024	; 0xfffffc00
 9f4:	000000c9 	andeq	r0, r0, r9, asr #1
 9f8:	07042302 	streq	r2, [r4, -r2, lsl #6]
 9fc:	00524449 	subseq	r4, r2, r9, asr #8
 a00:	c9146804 	ldmdbgt	r4, {r2, fp, sp, lr}
 a04:	02000000 	andeq	r0, r0, #0
 a08:	4f070823 	svcmi	0x00070823
 a0c:	04005244 	streq	r5, [r0], #-580	; 0xfffffdbc
 a10:	00c91469 	sbceq	r1, r9, r9, ror #8
 a14:	23020000 	movwcs	r0, #8192	; 0x2000
 a18:	8035080c 	eorshi	r0, r5, ip, lsl #16
 a1c:	6a040000 	bvs	100a24 <_Min_Stack_Size+0x100624>
 a20:	0000c914 	andeq	ip, r0, r4, lsl r9
 a24:	10230200 	eorne	r0, r3, r0, lsl #4
 a28:	52524207 	subspl	r4, r2, #1879048192	; 0x70000000
 a2c:	146b0400 	strbtne	r0, [fp], #-1024	; 0xfffffc00
 a30:	000000c9 	andeq	r0, r0, r9, asr #1
 a34:	08142302 	ldmdaeq	r4, {r1, r8, r9, sp}
 a38:	00004454 	andeq	r4, r0, r4, asr r4
 a3c:	c9146c04 	ldmdbgt	r4, {r2, sl, fp, sp, lr}
 a40:	02000000 	andeq	r0, r0, #0
 a44:	04001823 	streq	r1, [r0], #-2083	; 0xfffff7dd
 a48:	000055d0 	ldrdeq	r5, [r0], -r0
 a4c:	ce026d04 	cdpgt	13, 0, cr6, cr2, cr4, {0}
 a50:	06000000 	streq	r0, [r0], -r0
 a54:	097b0430 	ldmdbeq	fp!, {r4, r5, sl}^
 a58:	0000020a 	andeq	r0, r0, sl, lsl #4
 a5c:	00524307 	subseq	r4, r2, r7, lsl #6
 a60:	c9147d04 	ldmdbgt	r4, {r2, r8, sl, fp, ip, sp, lr}
 a64:	02000000 	andeq	r0, r0, #0
 a68:	cc080023 	stcgt	0, cr0, [r8], {35}	; 0x23
 a6c:	04000037 	streq	r0, [r0], #-55	; 0xffffffc9
 a70:	00c9147e 	sbceq	r1, r9, lr, ror r4
 a74:	23020000 	movwcs	r0, #8192	; 0x2000
 a78:	49430704 	stmdbmi	r3, {r2, r8, r9, sl}^
 a7c:	7f040052 	svcvc	0x00040052
 a80:	0000c914 	andeq	ip, r0, r4, lsl r9
 a84:	08230200 	stmdaeq	r3!, {r9}
 a88:	0050b908 	subseq	fp, r0, r8, lsl #18
 a8c:	14800400 	strne	r0, [r0], #1024	; 0x400
 a90:	000000c9 	andeq	r0, r0, r9, asr #1
 a94:	080c2302 	stmdaeq	ip, {r1, r8, r9, sp}
 a98:	000064eb 	andeq	r6, r0, fp, ror #9
 a9c:	c9148104 	ldmdbgt	r4, {r2, r8, pc}
 aa0:	02000000 	andeq	r0, r0, #0
 aa4:	5f081023 	svcpl	0x00081023
 aa8:	0400007e 	streq	r0, [r0], #-126	; 0xffffff82
 aac:	00c91482 	sbceq	r1, r9, r2, lsl #9
 ab0:	23020000 	movwcs	r0, #8192	; 0x2000
 ab4:	1c1b0814 	ldcne	8, cr0, [fp], {20}
 ab8:	83040000 	movwhi	r0, #16384	; 0x4000
 abc:	0000c914 	andeq	ip, r0, r4, lsl r9
 ac0:	18230200 	stmdane	r3!, {r9}
 ac4:	00655e08 	rsbeq	r5, r5, r8, lsl #28
 ac8:	14840400 	strne	r0, [r4], #1024	; 0x400
 acc:	000000c9 	andeq	r0, r0, r9, asr #1
 ad0:	081c2302 	ldmdaeq	ip, {r1, r8, r9, sp}
 ad4:	000032d4 	ldrdeq	r3, [r0], -r4
 ad8:	c9148504 	ldmdbgt	r4, {r2, r8, sl, pc}
 adc:	02000000 	andeq	r0, r0, #0
 ae0:	43072023 	movwmi	r2, #28707	; 0x7023
 ae4:	04005253 	streq	r5, [r0], #-595	; 0xfffffdad
 ae8:	00c91486 	sbceq	r1, r9, r6, lsl #9
 aec:	23020000 	movwcs	r0, #8192	; 0x2000
 af0:	284c0824 	stmdacs	ip, {r2, r5, fp}^
 af4:	87040000 	strhi	r0, [r4, -r0]
 af8:	0000c914 	andeq	ip, r0, r4, lsl r9
 afc:	28230200 	stmdacs	r3!, {r9}
 b00:	00570708 	subseq	r0, r7, r8, lsl #14
 b04:	14880400 	strne	r0, [r8], #1024	; 0x400
 b08:	000000c9 	andeq	r0, r0, r9, asr #1
 b0c:	002c2302 	eoreq	r2, ip, r2, lsl #6
 b10:	00864f04 	addeq	r4, r6, r4, lsl #30
 b14:	02890400 	addeq	r0, r9, #0, 8
 b18:	0000014d 	andeq	r0, r0, sp, asr #2
 b1c:	15050406 	strne	r0, [r5, #-1030]	; 0xfffffbfa
 b20:	00024d09 	andeq	r4, r2, r9, lsl #26
 b24:	958d0800 	strls	r0, [sp, #2048]	; 0x800
 b28:	16050000 	strne	r0, [r5], -r0
 b2c:	0000b10c 	andeq	fp, r0, ip, lsl #2
 b30:	00230200 	eoreq	r0, r3, r0, lsl #4
 b34:	00940e08 	addseq	r0, r4, r8, lsl #28
 b38:	0c180500 	cfldr32eq	mvfx0, [r8], {-0}
 b3c:	000000a5 	andeq	r0, r0, r5, lsr #1
 b40:	08022302 	stmdaeq	r2, {r1, r8, r9, sp}
 b44:	0000946b 	andeq	r9, r0, fp, ror #8
 b48:	a50c1905 	strge	r1, [ip, #-2309]	; 0xfffff6fb
 b4c:	02000000 	andeq	r0, r0, #0
 b50:	04000323 	streq	r0, [r0], #-803	; 0xfffffcdd
 b54:	0000943e 	andeq	r9, r0, lr, lsr r4
 b58:	16021b05 	strne	r1, [r2], -r5, lsl #22
 b5c:	09000002 	stmdbeq	r0, {r1}
 b60:	00967301 	addseq	r7, r6, r1, lsl #6
 b64:	010a0100 	mrseq	r0, (UNDEF: 26)
 b68:	00000106 	andeq	r0, r0, r6, lsl #2
 b6c:	00000000 	andeq	r0, r0, r0
 b70:	040c0000 	streq	r0, [ip], #-0
 b74:	96010000 	strls	r0, [r1], -r0
 b78:	0a000002 	beq	b88 <_Min_Stack_Size+0x788>
 b7c:	00009687 	andeq	r9, r0, r7, lsl #13
 b80:	2a010a01 	bcs	4338c <_Min_Stack_Size+0x42f8c>
 b84:	00000296 	muleq	r0, r6, r2
 b88:	0a749102 	beq	1d24f98 <_Min_Stack_Size+0x1d24b98>
 b8c:	00009592 	muleq	r0, r2, r5
 b90:	3a010a01 	bcc	4339c <_Min_Stack_Size+0x42f9c>
 b94:	000000b1 	strheq	r0, [r0], -r1
 b98:	00729102 	rsbseq	r9, r2, r2, lsl #2
 b9c:	0141040b 	cmpeq	r1, fp, lsl #8
 ba0:	010c0000 	mrseq	r0, (UNDEF: 12)
 ba4:	000096aa 	andeq	r9, r0, sl, lsr #13
 ba8:	0106eb01 	tsteq	r6, r1, lsl #22
	...
 bb4:	00000468 	andeq	r0, r0, r8, ror #8
 bb8:	0002e501 	andeq	lr, r2, r1, lsl #10
 bbc:	96870d00 	strls	r0, [r7], r0, lsl #26
 bc0:	eb010000 	bl	40bc8 <_Min_Stack_Size+0x407c8>
 bc4:	00029629 	andeq	r9, r2, r9, lsr #12
 bc8:	74910200 	ldrvc	r0, [r1], #512	; 0x200
 bcc:	0095920d 	addseq	r9, r5, sp, lsl #4
 bd0:	39eb0100 	stmibcc	fp!, {r8}^
 bd4:	000000b1 	strheq	r0, [r0], -r1
 bd8:	0d729102 	ldfeqp	f1, [r2, #-8]!
 bdc:	00009663 	andeq	r9, r0, r3, ror #12
 be0:	a54ceb01 	strbge	lr, [ip, #-2817]	; 0xfffff4ff
 be4:	02000000 	andeq	r0, r0, #0
 be8:	0c007191 	stfeqs	f7, [r0], {145}	; 0x91
 bec:	0096bd01 	addseq	fp, r6, r1, lsl #26
 bf0:	06dc0100 	ldrbeq	r0, [ip], r0, lsl #2
 bf4:	00000001 	andeq	r0, r0, r1
 bf8:	00000000 	andeq	r0, r0, r0
 bfc:	0004c400 	andeq	ip, r4, r0, lsl #8
 c00:	031f0100 	tsteq	pc, #0, 2
 c04:	870d0000 	strhi	r0, [sp, -r0]
 c08:	01000096 	swpeq	r0, r6, [r0]	; <UNPREDICTABLE>
 c0c:	02962adc 	addseq	r2, r6, #220, 20	; 0xdc000
 c10:	91020000 	mrsls	r0, (UNDEF: 2)
 c14:	96630d74 			; <UNDEFINED> instruction: 0x96630d74
 c18:	dc010000 	stcle	0, cr0, [r1], {-0}
 c1c:	0000a539 	andeq	sl, r0, r9, lsr r5
 c20:	73910200 	orrsvc	r0, r1, #0, 4
 c24:	ec010e00 	stc	14, cr0, [r1], {-0}
 c28:	01000096 	swpeq	r0, r6, [r0]	; <UNPREDICTABLE>
 c2c:	b1010ac9 	smlabtlt	r1, r9, sl, r0
	...
 c38:	20000000 	andcs	r0, r0, r0
 c3c:	01000005 	tsteq	r0, r5
 c40:	0000035d 	andeq	r0, r0, sp, asr r3
 c44:	0096870d 	addseq	r8, r6, sp, lsl #14
 c48:	2dc90100 	stfcse	f0, [r9]
 c4c:	00000296 	muleq	r0, r6, r2
 c50:	0f6c9102 	svceq	0x006c9102
 c54:	000096d1 	ldrdeq	r9, [r0], -r1
 c58:	b10bcb01 	tstlt	fp, r1, lsl #22
 c5c:	02000000 	andeq	r0, r0, #0
 c60:	0e007691 	mcreq	6, 0, r7, cr0, cr1, {4}
 c64:	00968d01 	addseq	r8, r6, r1, lsl #26
 c68:	09b20100 	ldmibeq	r2!, {r8}
 c6c:	0000a501 	andeq	sl, r0, r1, lsl #10
	...
 c78:	00057c00 	andeq	r7, r5, r0, lsl #24
 c7c:	03aa0100 			; <UNDEFINED> instruction: 0x03aa0100
 c80:	870d0000 	strhi	r0, [sp, -r0]
 c84:	01000096 	swpeq	r0, r6, [r0]	; <UNPREDICTABLE>
 c88:	02962bb2 	addseq	r2, r6, #182272	; 0x2c800
 c8c:	91020000 	mrsls	r0, (UNDEF: 2)
 c90:	95920d6c 	ldrls	r0, [r2, #3436]	; 0xd6c
 c94:	b2010000 	andlt	r0, r1, #0
 c98:	0000b13b 	andeq	fp, r0, fp, lsr r1
 c9c:	6a910200 	bvs	fe4414a4 <_estack+0xde43eca4>
 ca0:	0096ff0f 	addseq	pc, r6, pc, lsl #30
 ca4:	0ab40100 	beq	fed010ac <_estack+0xdecfe8ac>
 ca8:	000000a5 	andeq	r0, r0, r5, lsr #1
 cac:	00779102 	rsbseq	r9, r7, r2, lsl #2
 cb0:	96db010c 	ldrbls	r0, [fp], ip, lsl #2
 cb4:	8b010000 	blhi	40cbc <_Min_Stack_Size+0x408bc>
 cb8:	00000106 	andeq	r0, r0, r6, lsl #2
 cbc:	00000000 	andeq	r0, r0, r0
 cc0:	05d80000 	ldrbeq	r0, [r8]
 cc4:	d5010000 	strle	r0, [r1, #-0]
 cc8:	0d000003 	stceq	0, cr0, [r0, #-12]
 ccc:	00009687 	andeq	r9, r0, r7, lsl #13
 cd0:	96278b01 	strtls	r8, [r7], -r1, lsl #22
 cd4:	02000002 	andeq	r0, r0, #2
 cd8:	10007491 	mulne	r0, r1, r4
 cdc:	0093d801 	addseq	sp, r3, r1, lsl #16
 ce0:	06510100 	ldrbeq	r0, [r1], -r0, lsl #2
 ce4:	0009c401 	andeq	ip, r9, r1, lsl #8
 ce8:	000abc08 	andeq	fp, sl, r8, lsl #24
 cec:	00063408 	andeq	r3, r6, r8, lsl #8
 cf0:	042d0100 	strteq	r0, [sp], #-256	; 0xffffff00
 cf4:	870d0000 	strhi	r0, [sp, -r0]
 cf8:	01000096 	swpeq	r0, r6, [r0]	; <UNPREDICTABLE>
 cfc:	02962551 	addseq	r2, r6, #339738624	; 0x14400000
 d00:	91020000 	mrsls	r0, (UNDEF: 2)
 d04:	96690d64 	strbtls	r0, [r9], -r4, ror #26
 d08:	51010000 	mrspl	r0, (UNDEF: 1)
 d0c:	00042d3e 	andeq	r2, r4, lr, lsr sp
 d10:	60910200 	addsvs	r0, r1, r0, lsl #4
 d14:	0097090f 	addseq	r0, r7, pc, lsl #18
 d18:	16530100 	ldrbne	r0, [r3], -r0, lsl #2
 d1c:	00000433 	andeq	r0, r0, r3, lsr r4
 d20:	0f689102 	svceq	0x00689102
 d24:	0000969f 	muleq	r0, pc, r6	; <UNPREDICTABLE>
 d28:	a50a5401 	strge	r5, [sl, #-1025]	; 0xfffffbff
 d2c:	02000000 	andeq	r0, r0, #0
 d30:	0b006f91 	bleq	1cb7c <_Min_Stack_Size+0x1c77c>
 d34:	00024d04 	andeq	r4, r2, r4, lsl #26
 d38:	c9040b00 	stmdbgt	r4, {r8, r9, fp}
 d3c:	11000000 	mrsne	r0, (UNDEF: 0)
 d40:	00965101 	addseq	r5, r6, r1, lsl #2
 d44:	09170100 	ldmdbeq	r7, {r8}
 d48:	0000a501 	andeq	sl, r0, r1, lsl #10
 d4c:	00085400 	andeq	r5, r8, r0, lsl #8
 d50:	0009c208 	andeq	ip, r9, r8, lsl #4
 d54:	00068408 	andeq	r8, r6, r8, lsl #8
 d58:	920d0100 	andls	r0, sp, #0, 2
 d5c:	01000095 	swpeq	r0, r5, [r0]	; <UNPREDICTABLE>
 d60:	00b12417 	adcseq	r2, r1, r7, lsl r4
 d64:	91020000 	mrsls	r0, (UNDEF: 2)
 d68:	Address 0x0000000000000d68 is out of bounds.


Disassembly of section .debug_abbrev:

00000000 <.debug_abbrev>:
   0:	25011101 	strcs	r1, [r1, #-257]	; 0xfffffeff
   4:	030b130e 	movweq	r1, #45838	; 0xb30e
   8:	550e1b0e 	strpl	r1, [lr, #-2830]	; 0xfffff4f2
   c:	52011106 	andpl	r1, r1, #-2147483647	; 0x80000001
  10:	99061001 	stmdbls	r6, {r0, ip}
  14:	00000642 	andeq	r0, r0, r2, asr #12
  18:	0b002402 	bleq	9028 <_Min_Stack_Size+0x8c28>
  1c:	030b3e0b 	movweq	r3, #48651	; 0xbe0b
  20:	0300000e 	movweq	r0, #14
  24:	0b0b0024 	bleq	2c00bc <_Min_Stack_Size+0x2bfcbc>
  28:	08030b3e 	stmdaeq	r3, {r1, r2, r3, r4, r5, r8, r9, fp}
  2c:	16040000 	strne	r0, [r4], -r0
  30:	3a0e0300 	bcc	380c38 <_Min_Stack_Size+0x380838>
  34:	390b3b0b 	stmdbcc	fp, {r0, r1, r3, r8, r9, fp, ip, sp}
  38:	0013490b 	andseq	r4, r3, fp, lsl #18
  3c:	000f0500 	andeq	r0, pc, r0, lsl #10
  40:	13490b0b 	movtne	r0, #39691	; 0x9b0b
  44:	15060000 	strne	r0, [r6, #-0]
  48:	000c2700 	andeq	r2, ip, r0, lsl #14
  4c:	00350700 	eorseq	r0, r5, r0, lsl #14
  50:	00001349 	andeq	r1, r0, r9, asr #6
  54:	0b011308 	bleq	44c7c <_Min_Stack_Size+0x4487c>
  58:	3b0b3a0b 	blcc	2ce88c <_Min_Stack_Size+0x2ce48c>
  5c:	010b390b 	tsteq	fp, fp, lsl #18
  60:	09000013 	stmdbeq	r0, {r0, r1, r4}
  64:	0803000d 	stmdaeq	r3, {r0, r2, r3}
  68:	0b3b0b3a 	bleq	ec2d58 <_Min_Stack_Size+0xec2958>
  6c:	13490b39 	movtne	r0, #39737	; 0x9b39
  70:	00000a38 	andeq	r0, r0, r8, lsr sl
  74:	03000d0a 	movweq	r0, #3338	; 0xd0a
  78:	3b0b3a0e 	blcc	2ce8b8 <_Min_Stack_Size+0x2ce4b8>
  7c:	490b390b 	stmdbmi	fp, {r0, r1, r3, r8, fp, ip, sp}
  80:	000a3813 	andeq	r3, sl, r3, lsl r8
  84:	00340b00 	eorseq	r0, r4, r0, lsl #22
  88:	0b3a0e03 	bleq	e8389c <_Min_Stack_Size+0xe8349c>
  8c:	0b390b3b 	bleq	e42d80 <_Min_Stack_Size+0xe42980>
  90:	0c3f1349 	ldceq	3, cr1, [pc], #-292	; ffffff74 <_estack+0xdfffd774>
  94:	00000a02 	andeq	r0, r0, r2, lsl #20
  98:	0301040c 	movweq	r0, #5132	; 0x140c
  9c:	0b0b3e0e 	bleq	2cf8dc <_Min_Stack_Size+0x2cf4dc>
  a0:	3a13490b 	bcc	4d24d4 <_Min_Stack_Size+0x4d20d4>
  a4:	390b3b0b 	stmdbcc	fp, {r0, r1, r3, r8, r9, fp, ip, sp}
  a8:	0013010b 	andseq	r0, r3, fp, lsl #2
  ac:	00280d00 	eoreq	r0, r8, r0, lsl #26
  b0:	0b1c0e03 	bleq	7038c4 <_Min_Stack_Size+0x7034c4>
  b4:	2e0e0000 	cdpcs	0, 0, cr0, cr14, cr0, {0}
  b8:	030c3f01 	movweq	r3, #52993	; 0xcf01
  bc:	3b0b3a0e 	blcc	2ce8fc <_Min_Stack_Size+0x2ce4fc>
  c0:	270b390b 	strcs	r3, [fp, -fp, lsl #18]
  c4:	010c3c0c 	tsteq	ip, ip, lsl #24
  c8:	0f000013 	svceq	0x00000013
  cc:	13490005 	movtne	r0, #36869	; 0x9005
  d0:	2e100000 	cdpcs	0, 1, cr0, cr0, cr0, {0}
  d4:	030c3f01 	movweq	r3, #52993	; 0xcf01
  d8:	3b0b3a0e 	blcc	2ce918 <_Min_Stack_Size+0x2ce518>
  dc:	490b390b 	stmdbmi	fp, {r0, r1, r3, r8, fp, ip, sp}
  e0:	12011113 	andne	r1, r1, #-1073741820	; 0xc0000004
  e4:	96064001 	strls	r4, [r6], -r1
  e8:	13010c42 	movwne	r0, #7234	; 0x1c42
  ec:	34110000 	ldrcc	r0, [r1], #-0
  f0:	3a0e0300 	bcc	380cf8 <_Min_Stack_Size+0x3808f8>
  f4:	390b3b0b 	stmdbcc	fp, {r0, r1, r3, r8, r9, fp, ip, sp}
  f8:	0213490b 	andseq	r4, r3, #180224	; 0x2c000
  fc:	1200000a 	andne	r0, r0, #10
 100:	0c3f002e 	ldceq	0, cr0, [pc], #-184	; 50 <_Min_Heap_Size-0x1b0>
 104:	0b3a0e03 	bleq	e83918 <_Min_Stack_Size+0xe83518>
 108:	0b390b3b 	bleq	e42dfc <_Min_Stack_Size+0xe429fc>
 10c:	01110c27 	tsteq	r1, r7, lsr #24
 110:	06400112 			; <UNDEFINED> instruction: 0x06400112
 114:	000c4296 	muleq	ip, r6, r2
 118:	002e1300 	eoreq	r1, lr, r0, lsl #6
 11c:	0e030c3f 	mcreq	12, 0, r0, cr3, cr15, {1}
 120:	0b3b0b3a 	bleq	ec2e10 <_Min_Stack_Size+0xec2a10>
 124:	01110b39 	tsteq	r1, r9, lsr fp
 128:	06400112 			; <UNDEFINED> instruction: 0x06400112
 12c:	000c4296 	muleq	ip, r6, r2
 130:	012e1400 			; <UNDEFINED> instruction: 0x012e1400
 134:	0e030c3f 	mcreq	12, 0, r0, cr3, cr15, {1}
 138:	0b3b0b3a 	bleq	ec2e28 <_Min_Stack_Size+0xec2a28>
 13c:	0c270b39 			; <UNDEFINED> instruction: 0x0c270b39
 140:	01120111 	tsteq	r2, r1, lsl r1
 144:	42970640 	addsmi	r0, r7, #64, 12	; 0x4000000
 148:	1500000c 	strne	r0, [r0, #-12]
 14c:	0e030005 	cdpeq	0, 0, cr0, cr3, cr5, {0}
 150:	0b3b0b3a 	bleq	ec2e40 <_Min_Stack_Size+0xec2a40>
 154:	13490b39 	movtne	r0, #39737	; 0x9b39
 158:	00000a02 	andeq	r0, r0, r2, lsl #20
 15c:	00110100 	andseq	r0, r1, r0, lsl #2
 160:	06550610 			; <UNDEFINED> instruction: 0x06550610
 164:	0e1b0e03 	cdpeq	14, 1, cr0, cr11, cr3, {0}
 168:	05130e25 	ldreq	r0, [r3, #-3621]	; 0xfffff1db
 16c:	01000000 	mrseq	r0, (UNDEF: 0)
 170:	0e250111 	mcreq	1, 1, r0, cr5, cr1, {0}
 174:	0e030b13 	vmoveq.32	d3[0], r0
 178:	06550e1b 			; <UNDEFINED> instruction: 0x06550e1b
 17c:	01520111 	cmpeq	r2, r1, lsl r1
 180:	42990610 	addsmi	r0, r9, #16, 12	; 0x1000000
 184:	02000006 	andeq	r0, r0, #6
 188:	0b0b0024 	bleq	2c0220 <_Min_Stack_Size+0x2bfe20>
 18c:	0e030b3e 	vmoveq.16	d3[0], r0
 190:	24030000 	strcs	r0, [r3], #-0
 194:	3e0b0b00 	vmlacc.f64	d0, d11, d0
 198:	0008030b 	andeq	r0, r8, fp, lsl #6
 19c:	00160400 	andseq	r0, r6, r0, lsl #8
 1a0:	0b3a0e03 	bleq	e839b4 <_Min_Stack_Size+0xe835b4>
 1a4:	0b390b3b 	bleq	e42e98 <_Min_Stack_Size+0xe42a98>
 1a8:	00001349 	andeq	r1, r0, r9, asr #6
 1ac:	0b000f05 	bleq	3dc8 <_Min_Stack_Size+0x39c8>
 1b0:	0013490b 	andseq	r4, r3, fp, lsl #18
 1b4:	00150600 	andseq	r0, r5, r0, lsl #12
 1b8:	00000c27 	andeq	r0, r0, r7, lsr #24
 1bc:	49003507 	stmdbmi	r0, {r0, r1, r2, r8, sl, ip, sp}
 1c0:	08000013 	stmdaeq	r0, {r0, r1, r4}
 1c4:	0b0b0113 	bleq	2c0618 <_Min_Stack_Size+0x2c0218>
 1c8:	0b3b0b3a 	bleq	ec2eb8 <_Min_Stack_Size+0xec2ab8>
 1cc:	13010b39 	movwne	r0, #6969	; 0x1b39
 1d0:	0d090000 	stceq	0, cr0, [r9, #-0]
 1d4:	3a080300 	bcc	200ddc <_Min_Stack_Size+0x2009dc>
 1d8:	390b3b0b 	stmdbcc	fp, {r0, r1, r3, r8, r9, fp, ip, sp}
 1dc:	3813490b 	ldmdacc	r3, {r0, r1, r3, r8, fp, lr}
 1e0:	0a00000a 	beq	210 <_Min_Heap_Size+0x10>
 1e4:	0e03000d 	cdpeq	0, 0, cr0, cr3, cr13, {0}
 1e8:	0b3b0b3a 	bleq	ec2ed8 <_Min_Stack_Size+0xec2ad8>
 1ec:	13490b39 	movtne	r0, #39737	; 0x9b39
 1f0:	00000a38 	andeq	r0, r0, r8, lsr sl
 1f4:	4901010b 	stmdbmi	r1, {r0, r1, r3, r8}
 1f8:	00130113 	andseq	r0, r3, r3, lsl r1
 1fc:	00210c00 	eoreq	r0, r1, r0, lsl #24
 200:	0b2f1349 	bleq	bc4f2c <_Min_Stack_Size+0xbc4b2c>
 204:	340d0000 	strcc	r0, [sp], #-0
 208:	3a0e0300 	bcc	380e10 <_Min_Stack_Size+0x380a10>
 20c:	390b3b0b 	stmdbcc	fp, {r0, r1, r3, r8, r9, fp, ip, sp}
 210:	3f13490b 	svccc	0x0013490b
 214:	000a020c 	andeq	r0, sl, ip, lsl #4
 218:	012e0e00 			; <UNDEFINED> instruction: 0x012e0e00
 21c:	0e030c3f 	mcreq	12, 0, r0, cr3, cr15, {1}
 220:	0b3b0b3a 	bleq	ec2f10 <_Min_Stack_Size+0xec2b10>
 224:	0c270b39 			; <UNDEFINED> instruction: 0x0c270b39
 228:	13010c3c 	movwne	r0, #7228	; 0x1c3c
 22c:	050f0000 	streq	r0, [pc, #-0]	; 234 <_Min_Heap_Size+0x34>
 230:	00134900 	andseq	r4, r3, r0, lsl #18
 234:	002e1000 	eoreq	r1, lr, r0
 238:	0e030c3f 	mcreq	12, 0, r0, cr3, cr15, {1}
 23c:	053b0b3a 	ldreq	r0, [fp, #-2874]!	; 0xfffff4c6
 240:	0c270b39 			; <UNDEFINED> instruction: 0x0c270b39
 244:	01120111 	tsteq	r2, r1, lsl r1
 248:	42960640 	addsmi	r0, r6, #64, 12	; 0x4000000
 24c:	1100000c 	tstne	r0, ip
 250:	0c3f002e 	ldceq	0, cr0, [pc], #-184	; 1a0 <_Min_Heap_Size-0x60>
 254:	0b3a0e03 	bleq	e83a68 <_Min_Stack_Size+0xe83668>
 258:	0b390b3b 	bleq	e42f4c <_Min_Stack_Size+0xe42b4c>
 25c:	01110c27 	tsteq	r1, r7, lsr #24
 260:	06400112 			; <UNDEFINED> instruction: 0x06400112
 264:	000c4296 	muleq	ip, r6, r2
 268:	012e1200 			; <UNDEFINED> instruction: 0x012e1200
 26c:	0e030c3f 	mcreq	12, 0, r0, cr3, cr15, {1}
 270:	0b3b0b3a 	bleq	ec2f60 <_Min_Stack_Size+0xec2b60>
 274:	0c270b39 			; <UNDEFINED> instruction: 0x0c270b39
 278:	01120111 	tsteq	r2, r1, lsl r1
 27c:	42960640 	addsmi	r0, r6, #64, 12	; 0x4000000
 280:	0013010c 	andseq	r0, r3, ip, lsl #2
 284:	00051300 	andeq	r1, r5, r0, lsl #6
 288:	0b3a0e03 	bleq	e83a9c <_Min_Stack_Size+0xe8369c>
 28c:	0b390b3b 	bleq	e42f80 <_Min_Stack_Size+0xe42b80>
 290:	0a021349 	beq	84fbc <_Min_Stack_Size+0x84bbc>
 294:	2e140000 	cdpcs	0, 1, cr0, cr4, cr0, {0}
 298:	030c3f00 	movweq	r3, #52992	; 0xcf00
 29c:	3b0b3a0e 	blcc	2ceadc <_Min_Stack_Size+0x2ce6dc>
 2a0:	270b390b 	strcs	r3, [fp, -fp, lsl #18]
 2a4:	1201110c 	andne	r1, r1, #12, 2
 2a8:	97064001 	strls	r4, [r6, -r1]
 2ac:	00000c42 	andeq	r0, r0, r2, asr #24
 2b0:	03003415 	movweq	r3, #1045	; 0x415
 2b4:	3b0b3a0e 	blcc	2ceaf4 <_Min_Stack_Size+0x2ce6f4>
 2b8:	490b390b 	stmdbmi	fp, {r0, r1, r3, r8, fp, ip, sp}
 2bc:	000a0213 	andeq	r0, sl, r3, lsl r2
 2c0:	012e1600 			; <UNDEFINED> instruction: 0x012e1600
 2c4:	0e030c3f 	mcreq	12, 0, r0, cr3, cr15, {1}
 2c8:	0b3b0b3a 	bleq	ec2fb8 <_Min_Stack_Size+0xec2bb8>
 2cc:	0c270b39 			; <UNDEFINED> instruction: 0x0c270b39
 2d0:	01120111 	tsteq	r2, r1, lsl r1
 2d4:	42970640 	addsmi	r0, r7, #64, 12	; 0x4000000
 2d8:	0013010c 	andseq	r0, r3, ip, lsl #2
 2dc:	012e1700 			; <UNDEFINED> instruction: 0x012e1700
 2e0:	0e030c3f 	mcreq	12, 0, r0, cr3, cr15, {1}
 2e4:	0b3b0b3a 	bleq	ec2fd4 <_Min_Stack_Size+0xec2bd4>
 2e8:	0c270b39 			; <UNDEFINED> instruction: 0x0c270b39
 2ec:	01120111 	tsteq	r2, r1, lsl r1
 2f0:	42970640 	addsmi	r0, r7, #64, 12	; 0x4000000
 2f4:	0000000c 	andeq	r0, r0, ip
 2f8:	25011101 	strcs	r1, [r1, #-257]	; 0xfffffeff
 2fc:	030b130e 	movweq	r1, #45838	; 0xb30e
 300:	550e1b0e 	strpl	r1, [lr, #-2830]	; 0xfffff4f2
 304:	52011106 	andpl	r1, r1, #-2147483647	; 0x80000001
 308:	99061001 	stmdbls	r6, {r0, ip}
 30c:	00000642 	andeq	r0, r0, r2, asr #12
 310:	0b002402 	bleq	9320 <_Min_Stack_Size+0x8f20>
 314:	030b3e0b 	movweq	r3, #48651	; 0xbe0b
 318:	0300000e 	movweq	r0, #14
 31c:	0b0b0024 	bleq	2c03b4 <_Min_Stack_Size+0x2bffb4>
 320:	08030b3e 	stmdaeq	r3, {r1, r2, r3, r4, r5, r8, r9, fp}
 324:	16040000 	strne	r0, [r4], -r0
 328:	3a0e0300 	bcc	380f30 <_Min_Stack_Size+0x380b30>
 32c:	390b3b0b 	stmdbcc	fp, {r0, r1, r3, r8, r9, fp, ip, sp}
 330:	0013490b 	andseq	r4, r3, fp, lsl #18
 334:	00350500 	eorseq	r0, r5, r0, lsl #10
 338:	00001349 	andeq	r1, r0, r9, asr #6
 33c:	0b011306 	bleq	44f5c <_Min_Stack_Size+0x44b5c>
 340:	3b0b3a0b 	blcc	2ceb74 <_Min_Stack_Size+0x2ce774>
 344:	010b390b 	tsteq	fp, fp, lsl #18
 348:	07000013 	smladeq	r0, r3, r0, r0
 34c:	0803000d 	stmdaeq	r3, {r0, r2, r3}
 350:	0b3b0b3a 	bleq	ec3040 <_Min_Stack_Size+0xec2c40>
 354:	13490b39 	movtne	r0, #39737	; 0x9b39
 358:	00000a38 	andeq	r0, r0, r8, lsr sl
 35c:	03000d08 	movweq	r0, #3336	; 0xd08
 360:	3b0b3a0e 	blcc	2ceba0 <_Min_Stack_Size+0x2ce7a0>
 364:	490b390b 	stmdbmi	fp, {r0, r1, r3, r8, fp, ip, sp}
 368:	000a3813 	andeq	r3, sl, r3, lsl r8
 36c:	012e0900 			; <UNDEFINED> instruction: 0x012e0900
 370:	0e030c3f 	mcreq	12, 0, r0, cr3, cr15, {1}
 374:	053b0b3a 	ldreq	r0, [fp, #-2874]!	; 0xfffff4c6
 378:	0c270b39 			; <UNDEFINED> instruction: 0x0c270b39
 37c:	01120111 	tsteq	r2, r1, lsl r1
 380:	42970640 	addsmi	r0, r7, #64, 12	; 0x4000000
 384:	0013010c 	andseq	r0, r3, ip, lsl #2
 388:	00050a00 	andeq	r0, r5, r0, lsl #20
 38c:	0b3a0e03 	bleq	e83ba0 <_Min_Stack_Size+0xe837a0>
 390:	0b39053b 	bleq	e41884 <_Min_Stack_Size+0xe41484>
 394:	0a021349 	beq	850c0 <_Min_Stack_Size+0x84cc0>
 398:	0f0b0000 	svceq	0x000b0000
 39c:	490b0b00 	stmdbmi	fp, {r8, r9, fp}
 3a0:	0c000013 	stceq	0, cr0, [r0], {19}
 3a4:	0c3f012e 	ldfeqs	f0, [pc], #-184	; 2f4 <_Min_Heap_Size+0xf4>
 3a8:	0b3a0e03 	bleq	e83bbc <_Min_Stack_Size+0xe837bc>
 3ac:	0b390b3b 	bleq	e430a0 <_Min_Stack_Size+0xe42ca0>
 3b0:	01110c27 	tsteq	r1, r7, lsr #24
 3b4:	06400112 			; <UNDEFINED> instruction: 0x06400112
 3b8:	010c4297 			; <UNDEFINED> instruction: 0x010c4297
 3bc:	0d000013 	stceq	0, cr0, [r0, #-76]	; 0xffffffb4
 3c0:	0e030005 	cdpeq	0, 0, cr0, cr3, cr5, {0}
 3c4:	0b3b0b3a 	bleq	ec30b4 <_Min_Stack_Size+0xec2cb4>
 3c8:	13490b39 	movtne	r0, #39737	; 0x9b39
 3cc:	00000a02 	andeq	r0, r0, r2, lsl #20
 3d0:	3f012e0e 	svccc	0x00012e0e
 3d4:	3a0e030c 	bcc	38100c <_Min_Stack_Size+0x380c0c>
 3d8:	390b3b0b 	stmdbcc	fp, {r0, r1, r3, r8, r9, fp, ip, sp}
 3dc:	490c270b 	stmdbmi	ip, {r0, r1, r3, r8, r9, sl, sp}
 3e0:	12011113 	andne	r1, r1, #-1073741820	; 0xc0000004
 3e4:	97064001 	strls	r4, [r6, -r1]
 3e8:	13010c42 	movwne	r0, #7234	; 0x1c42
 3ec:	340f0000 	strcc	r0, [pc], #-0	; 3f4 <_Min_Heap_Size+0x1f4>
 3f0:	3a0e0300 	bcc	380ff8 <_Min_Stack_Size+0x380bf8>
 3f4:	390b3b0b 	stmdbcc	fp, {r0, r1, r3, r8, r9, fp, ip, sp}
 3f8:	0213490b 	andseq	r4, r3, #180224	; 0x2c000
 3fc:	1000000a 	andne	r0, r0, sl
 400:	0c3f012e 	ldfeqs	f0, [pc], #-184	; 350 <_Min_Heap_Size+0x150>
 404:	0b3a0e03 	bleq	e83c18 <_Min_Stack_Size+0xe83818>
 408:	0b390b3b 	bleq	e430fc <_Min_Stack_Size+0xe42cfc>
 40c:	01110c27 	tsteq	r1, r7, lsr #24
 410:	06400112 			; <UNDEFINED> instruction: 0x06400112
 414:	010c4296 			; <UNDEFINED> instruction: 0x010c4296
 418:	11000013 	tstne	r0, r3, lsl r0
 41c:	0c3f012e 	ldfeqs	f0, [pc], #-184	; 36c <_Min_Heap_Size+0x16c>
 420:	0b3a0e03 	bleq	e83c34 <_Min_Stack_Size+0xe83834>
 424:	0b390b3b 	bleq	e43118 <_Min_Stack_Size+0xe42d18>
 428:	13490c27 	movtne	r0, #39975	; 0x9c27
 42c:	01120111 	tsteq	r2, r1, lsl r1
 430:	42970640 	addsmi	r0, r7, #64, 12	; 0x4000000
 434:	0000000c 	andeq	r0, r0, ip

Disassembly of section .debug_loc:

00000000 <.debug_loc>:
   0:	080001e8 	stmdaeq	r0, {r3, r5, r6, r7, r8}
   4:	080001ea 	stmdaeq	r0, {r1, r3, r5, r6, r7, r8}
   8:	007d0002 	rsbseq	r0, sp, r2
   c:	080001ea 	stmdaeq	r0, {r1, r3, r5, r6, r7, r8}
  10:	080001ec 	stmdaeq	r0, {r2, r3, r5, r6, r7, r8}
  14:	087d0002 	ldmdaeq	sp!, {r1}^
  18:	080001ec 	stmdaeq	r0, {r2, r3, r5, r6, r7, r8}
  1c:	080001ee 	stmdaeq	r0, {r1, r2, r3, r5, r6, r7, r8}
  20:	307d0002 	rsbscc	r0, sp, r2
  24:	080001ee 	stmdaeq	r0, {r1, r2, r3, r5, r6, r7, r8}
  28:	08000268 	stmdaeq	r0, {r3, r5, r6, r9}
  2c:	30770002 	rsbscc	r0, r7, r2
	...
  38:	080001c0 	stmdaeq	r0, {r6, r7, r8}
  3c:	080001c2 	stmdaeq	r0, {r1, r6, r7, r8}
  40:	007d0002 	rsbseq	r0, sp, r2
  44:	080001c2 	stmdaeq	r0, {r1, r6, r7, r8}
  48:	080001c4 	stmdaeq	r0, {r2, r6, r7, r8}
  4c:	087d0002 	ldmdaeq	sp!, {r1}^
  50:	080001c4 	stmdaeq	r0, {r2, r6, r7, r8}
  54:	080001e8 	stmdaeq	r0, {r3, r5, r6, r7, r8}
  58:	08770002 	ldmdaeq	r7!, {r1}^
	...
  64:	080001b0 	stmdaeq	r0, {r4, r5, r7, r8}
  68:	080001b2 	stmdaeq	r0, {r1, r4, r5, r7, r8}
  6c:	007d0002 	rsbseq	r0, sp, r2
  70:	080001b2 	stmdaeq	r0, {r1, r4, r5, r7, r8}
  74:	080001b4 	stmdaeq	r0, {r2, r4, r5, r7, r8}
  78:	087d0002 	ldmdaeq	sp!, {r1}^
  7c:	080001b4 	stmdaeq	r0, {r2, r4, r5, r7, r8}
  80:	080001be 	stmdaeq	r0, {r1, r2, r3, r4, r5, r7, r8}
  84:	08770002 	ldmdaeq	r7!, {r1}^
	...
  90:	08000170 	stmdaeq	r0, {r4, r5, r6, r8}
  94:	08000172 	stmdaeq	r0, {r1, r4, r5, r6, r8}
  98:	007d0002 	rsbseq	r0, sp, r2
  9c:	08000172 	stmdaeq	r0, {r1, r4, r5, r6, r8}
  a0:	08000174 	stmdaeq	r0, {r2, r4, r5, r6, r8}
  a4:	047d0002 	ldrbteq	r0, [sp], #-2
  a8:	08000174 	stmdaeq	r0, {r2, r4, r5, r6, r8}
  ac:	08000176 	stmdaeq	r0, {r1, r2, r4, r5, r6, r8}
  b0:	107d0002 	rsbsne	r0, sp, r2
  b4:	08000176 	stmdaeq	r0, {r1, r2, r4, r5, r6, r8}
  b8:	080001aa 	stmdaeq	r0, {r1, r3, r5, r7, r8}
  bc:	10770002 	rsbsne	r0, r7, r2
  c0:	080001aa 	stmdaeq	r0, {r1, r3, r5, r7, r8}
  c4:	080001ac 	stmdaeq	r0, {r2, r3, r5, r7, r8}
  c8:	04770002 	ldrbteq	r0, [r7], #-2
  cc:	080001ac 	stmdaeq	r0, {r2, r3, r5, r7, r8}
  d0:	080001ae 	stmdaeq	r0, {r1, r2, r3, r5, r7, r8}
  d4:	047d0002 	ldrbteq	r0, [sp], #-2
  d8:	080001ae 	stmdaeq	r0, {r1, r2, r3, r5, r7, r8}
  dc:	080001b0 	stmdaeq	r0, {r4, r5, r7, r8}
  e0:	007d0002 	rsbseq	r0, sp, r2
	...
  ec:	08000790 	stmdaeq	r0, {r4, r7, r8, r9, sl}
  f0:	08000792 	stmdaeq	r0, {r1, r4, r7, r8, r9, sl}
  f4:	007d0002 	rsbseq	r0, sp, r2
  f8:	08000792 	stmdaeq	r0, {r1, r4, r7, r8, r9, sl}
  fc:	08000794 	stmdaeq	r0, {r2, r4, r7, r8, r9, sl}
 100:	087d0002 	ldmdaeq	sp!, {r1}^
 104:	08000794 	stmdaeq	r0, {r2, r4, r7, r8, r9, sl}
 108:	08000854 	stmdaeq	r0, {r2, r4, r6, fp}
 10c:	08770002 	ldmdaeq	r7!, {r1}^
	...
 118:	080006e8 	stmdaeq	r0, {r3, r5, r6, r7, r9, sl}
 11c:	080006ea 	stmdaeq	r0, {r1, r3, r5, r6, r7, r9, sl}
 120:	007d0002 	rsbseq	r0, sp, r2
 124:	080006ea 	stmdaeq	r0, {r1, r3, r5, r6, r7, r9, sl}
 128:	080006ec 	stmdaeq	r0, {r2, r3, r5, r6, r7, r9, sl}
 12c:	087d0002 	ldmdaeq	sp!, {r1}^
 130:	080006ec 	stmdaeq	r0, {r2, r3, r5, r6, r7, r9, sl}
 134:	08000790 	stmdaeq	r0, {r4, r7, r8, r9, sl}
 138:	08770002 	ldmdaeq	r7!, {r1}^
	...
 144:	080006c4 	stmdaeq	r0, {r2, r6, r7, r9, sl}
 148:	080006c6 	stmdaeq	r0, {r1, r2, r6, r7, r9, sl}
 14c:	007d0002 	rsbseq	r0, sp, r2
 150:	080006c6 	stmdaeq	r0, {r1, r2, r6, r7, r9, sl}
 154:	080006c8 	stmdaeq	r0, {r3, r6, r7, r9, sl}
 158:	087d0002 	ldmdaeq	sp!, {r1}^
 15c:	080006c8 	stmdaeq	r0, {r3, r6, r7, r9, sl}
 160:	080006e8 	stmdaeq	r0, {r3, r5, r6, r7, r9, sl}
 164:	08770002 	ldmdaeq	r7!, {r1}^
	...
 170:	080006a0 	stmdaeq	r0, {r5, r7, r9, sl}
 174:	080006a2 	stmdaeq	r0, {r1, r5, r7, r9, sl}
 178:	007d0002 	rsbseq	r0, sp, r2
 17c:	080006a2 	stmdaeq	r0, {r1, r5, r7, r9, sl}
 180:	080006a4 	stmdaeq	r0, {r2, r5, r7, r9, sl}
 184:	087d0002 	ldmdaeq	sp!, {r1}^
 188:	080006a4 	stmdaeq	r0, {r2, r5, r7, r9, sl}
 18c:	080006c4 	stmdaeq	r0, {r2, r6, r7, r9, sl}
 190:	08770002 	ldmdaeq	r7!, {r1}^
	...
 19c:	0800067c 	stmdaeq	r0, {r2, r3, r4, r5, r6, r9, sl}
 1a0:	0800067e 	stmdaeq	r0, {r1, r2, r3, r4, r5, r6, r9, sl}
 1a4:	007d0002 	rsbseq	r0, sp, r2
 1a8:	0800067e 	stmdaeq	r0, {r1, r2, r3, r4, r5, r6, r9, sl}
 1ac:	08000680 	stmdaeq	r0, {r7, r9, sl}
 1b0:	087d0002 	ldmdaeq	sp!, {r1}^
 1b4:	08000680 	stmdaeq	r0, {r7, r9, sl}
 1b8:	080006a0 	stmdaeq	r0, {r5, r7, r9, sl}
 1bc:	08770002 	ldmdaeq	r7!, {r1}^
	...
 1c8:	08000658 	stmdaeq	r0, {r3, r4, r6, r9, sl}
 1cc:	0800065a 	stmdaeq	r0, {r1, r3, r4, r6, r9, sl}
 1d0:	007d0002 	rsbseq	r0, sp, r2
 1d4:	0800065a 	stmdaeq	r0, {r1, r3, r4, r6, r9, sl}
 1d8:	0800065c 	stmdaeq	r0, {r2, r3, r4, r6, r9, sl}
 1dc:	087d0002 	ldmdaeq	sp!, {r1}^
 1e0:	0800065c 	stmdaeq	r0, {r2, r3, r4, r6, r9, sl}
 1e4:	0800067c 	stmdaeq	r0, {r2, r3, r4, r5, r6, r9, sl}
 1e8:	08770002 	ldmdaeq	r7!, {r1}^
	...
 1f4:	08000634 	stmdaeq	r0, {r2, r4, r5, r9, sl}
 1f8:	08000636 	stmdaeq	r0, {r1, r2, r4, r5, r9, sl}
 1fc:	007d0002 	rsbseq	r0, sp, r2
 200:	08000636 	stmdaeq	r0, {r1, r2, r4, r5, r9, sl}
 204:	08000638 	stmdaeq	r0, {r3, r4, r5, r9, sl}
 208:	087d0002 	ldmdaeq	sp!, {r1}^
 20c:	08000638 	stmdaeq	r0, {r3, r4, r5, r9, sl}
 210:	08000658 	stmdaeq	r0, {r3, r4, r6, r9, sl}
 214:	08770002 	ldmdaeq	r7!, {r1}^
	...
 220:	0800061c 	stmdaeq	r0, {r2, r3, r4, r9, sl}
 224:	0800061e 	stmdaeq	r0, {r1, r2, r3, r4, r9, sl}
 228:	007d0002 	rsbseq	r0, sp, r2
 22c:	0800061e 	stmdaeq	r0, {r1, r2, r3, r4, r9, sl}
 230:	08000620 	stmdaeq	r0, {r5, r9, sl}
 234:	087d0002 	ldmdaeq	sp!, {r1}^
 238:	08000620 	stmdaeq	r0, {r5, r9, sl}
 23c:	08000622 	stmdaeq	r0, {r1, r5, r9, sl}
 240:	107d0002 	rsbsne	r0, sp, r2
 244:	08000622 	stmdaeq	r0, {r1, r5, r9, sl}
 248:	0800062e 	stmdaeq	r0, {r1, r2, r3, r5, r9, sl}
 24c:	10770002 	rsbsne	r0, r7, r2
 250:	0800062e 	stmdaeq	r0, {r1, r2, r3, r5, r9, sl}
 254:	08000630 	stmdaeq	r0, {r4, r5, r9, sl}
 258:	08770002 	ldmdaeq	r7!, {r1}^
 25c:	08000630 	stmdaeq	r0, {r4, r5, r9, sl}
 260:	08000632 	stmdaeq	r0, {r1, r4, r5, r9, sl}
 264:	087d0002 	ldmdaeq	sp!, {r1}^
	...
 278:	007d0002 	rsbseq	r0, sp, r2
	...
 284:	087d0002 	ldmdaeq	sp!, {r1}^
	...
 290:	107d0002 	rsbsne	r0, sp, r2
	...
 29c:	10770002 	rsbsne	r0, r7, r2
	...
 2a8:	08770002 	ldmdaeq	r7!, {r1}^
	...
 2b4:	087d0002 	ldmdaeq	sp!, {r1}^
	...
 2c8:	007d0002 	rsbseq	r0, sp, r2
	...
 2d4:	047d0002 	ldrbteq	r0, [sp], #-2
	...
 2e0:	04770002 	ldrbteq	r0, [r7], #-2
	...
 2ec:	047d0002 	ldrbteq	r0, [sp], #-2
	...
 2f8:	007d0002 	rsbseq	r0, sp, r2
	...
 304:	0800044c 	stmdaeq	r0, {r2, r3, r6, sl}
 308:	0800044e 	stmdaeq	r0, {r1, r2, r3, r6, sl}
 30c:	007d0002 	rsbseq	r0, sp, r2
 310:	0800044e 	stmdaeq	r0, {r1, r2, r3, r6, sl}
 314:	08000450 	stmdaeq	r0, {r4, r6, sl}
 318:	087d0002 	ldmdaeq	sp!, {r1}^
 31c:	08000450 	stmdaeq	r0, {r4, r6, sl}
 320:	08000452 	stmdaeq	r0, {r1, r4, r6, sl}
 324:	187d0002 	ldmdane	sp!, {r1}^
 328:	08000452 	stmdaeq	r0, {r1, r4, r6, sl}
 32c:	080005fc 	stmdaeq	r0, {r2, r3, r4, r5, r6, r7, r8, sl}
 330:	18770002 	ldmdane	r7!, {r1}^
 334:	080005fc 	stmdaeq	r0, {r2, r3, r4, r5, r6, r7, r8, sl}
 338:	080005fe 	stmdaeq	r0, {r1, r2, r3, r4, r5, r6, r7, r8, sl}
 33c:	08770002 	ldmdaeq	r7!, {r1}^
 340:	080005fe 	stmdaeq	r0, {r1, r2, r3, r4, r5, r6, r7, r8, sl}
 344:	0800061c 	stmdaeq	r0, {r2, r3, r4, r9, sl}
 348:	087d0002 	ldmdaeq	sp!, {r1}^
	...
 354:	08000384 	stmdaeq	r0, {r2, r7, r8, r9}
 358:	08000386 	stmdaeq	r0, {r1, r2, r7, r8, r9}
 35c:	007d0002 	rsbseq	r0, sp, r2
 360:	08000386 	stmdaeq	r0, {r1, r2, r7, r8, r9}
 364:	08000388 	stmdaeq	r0, {r3, r7, r8, r9}
 368:	047d0002 	ldrbteq	r0, [sp], #-2
 36c:	08000388 	stmdaeq	r0, {r3, r7, r8, r9}
 370:	0800038a 	stmdaeq	r0, {r1, r3, r7, r8, r9}
 374:	107d0002 	rsbsne	r0, sp, r2
 378:	0800038a 	stmdaeq	r0, {r1, r3, r7, r8, r9}
 37c:	0800043e 	stmdaeq	r0, {r1, r2, r3, r4, r5, sl}
 380:	10770002 	rsbsne	r0, r7, r2
 384:	0800043e 	stmdaeq	r0, {r1, r2, r3, r4, r5, sl}
 388:	08000440 	stmdaeq	r0, {r6, sl}
 38c:	04770002 	ldrbteq	r0, [r7], #-2
 390:	08000440 	stmdaeq	r0, {r6, sl}
 394:	08000442 	stmdaeq	r0, {r1, r6, sl}
 398:	047d0002 	ldrbteq	r0, [sp], #-2
 39c:	08000442 	stmdaeq	r0, {r1, r6, sl}
 3a0:	0800044c 	stmdaeq	r0, {r2, r3, r6, sl}
 3a4:	007d0002 	rsbseq	r0, sp, r2
	...
 3b0:	080002bc 	stmdaeq	r0, {r2, r3, r4, r5, r7, r9}
 3b4:	080002be 	stmdaeq	r0, {r1, r2, r3, r4, r5, r7, r9}
 3b8:	007d0002 	rsbseq	r0, sp, r2
 3bc:	080002be 	stmdaeq	r0, {r1, r2, r3, r4, r5, r7, r9}
 3c0:	080002c0 	stmdaeq	r0, {r6, r7, r9}
 3c4:	047d0002 	ldrbteq	r0, [sp], #-2
 3c8:	080002c0 	stmdaeq	r0, {r6, r7, r9}
 3cc:	080002c2 	stmdaeq	r0, {r1, r6, r7, r9}
 3d0:	107d0002 	rsbsne	r0, sp, r2
 3d4:	080002c2 	stmdaeq	r0, {r1, r6, r7, r9}
 3d8:	08000376 	stmdaeq	r0, {r1, r2, r4, r5, r6, r8, r9}
 3dc:	10770002 	rsbsne	r0, r7, r2
 3e0:	08000376 	stmdaeq	r0, {r1, r2, r4, r5, r6, r8, r9}
 3e4:	08000378 	stmdaeq	r0, {r3, r4, r5, r6, r8, r9}
 3e8:	04770002 	ldrbteq	r0, [r7], #-2
 3ec:	08000378 	stmdaeq	r0, {r3, r4, r5, r6, r8, r9}
 3f0:	0800037a 	stmdaeq	r0, {r1, r3, r4, r5, r6, r8, r9}
 3f4:	047d0002 	ldrbteq	r0, [sp], #-2
 3f8:	0800037a 	stmdaeq	r0, {r1, r3, r4, r5, r6, r8, r9}
 3fc:	08000384 	stmdaeq	r0, {r2, r7, r8, r9}
 400:	007d0002 	rsbseq	r0, sp, r2
	...
 414:	007d0002 	rsbseq	r0, sp, r2
	...
 420:	047d0002 	ldrbteq	r0, [sp], #-2
	...
 42c:	107d0002 	rsbsne	r0, sp, r2
	...
 438:	10770002 	rsbsne	r0, r7, r2
	...
 444:	04770002 	ldrbteq	r0, [r7], #-2
	...
 450:	047d0002 	ldrbteq	r0, [sp], #-2
	...
 45c:	007d0002 	rsbseq	r0, sp, r2
	...
 470:	007d0002 	rsbseq	r0, sp, r2
	...
 47c:	047d0002 	ldrbteq	r0, [sp], #-2
	...
 488:	107d0002 	rsbsne	r0, sp, r2
	...
 494:	10770002 	rsbsne	r0, r7, r2
	...
 4a0:	04770002 	ldrbteq	r0, [r7], #-2
	...
 4ac:	047d0002 	ldrbteq	r0, [sp], #-2
	...
 4b8:	007d0002 	rsbseq	r0, sp, r2
	...
 4cc:	007d0002 	rsbseq	r0, sp, r2
	...
 4d8:	047d0002 	ldrbteq	r0, [sp], #-2
	...
 4e4:	107d0002 	rsbsne	r0, sp, r2
	...
 4f0:	10770002 	rsbsne	r0, r7, r2
	...
 4fc:	04770002 	ldrbteq	r0, [r7], #-2
	...
 508:	047d0002 	ldrbteq	r0, [sp], #-2
	...
 514:	007d0002 	rsbseq	r0, sp, r2
	...
 528:	007d0002 	rsbseq	r0, sp, r2
	...
 534:	047d0002 	ldrbteq	r0, [sp], #-2
	...
 540:	187d0002 	ldmdane	sp!, {r1}^
	...
 54c:	18770002 	ldmdane	r7!, {r1}^
	...
 558:	04770002 	ldrbteq	r0, [r7], #-2
	...
 564:	047d0002 	ldrbteq	r0, [sp], #-2
	...
 570:	007d0002 	rsbseq	r0, sp, r2
	...
 584:	007d0002 	rsbseq	r0, sp, r2
	...
 590:	047d0002 	ldrbteq	r0, [sp], #-2
	...
 59c:	187d0002 	ldmdane	sp!, {r1}^
	...
 5a8:	18770002 	ldmdane	r7!, {r1}^
	...
 5b4:	04770002 	ldrbteq	r0, [r7], #-2
	...
 5c0:	047d0002 	ldrbteq	r0, [sp], #-2
	...
 5cc:	007d0002 	rsbseq	r0, sp, r2
	...
 5e0:	007d0002 	rsbseq	r0, sp, r2
	...
 5ec:	047d0002 	ldrbteq	r0, [sp], #-2
	...
 5f8:	107d0002 	rsbsne	r0, sp, r2
	...
 604:	10770002 	rsbsne	r0, r7, r2
	...
 610:	04770002 	ldrbteq	r0, [r7], #-2
	...
 61c:	047d0002 	ldrbteq	r0, [sp], #-2
	...
 628:	007d0002 	rsbseq	r0, sp, r2
	...
 634:	080009c4 	stmdaeq	r0, {r2, r6, r7, r8, fp}
 638:	080009c6 	stmdaeq	r0, {r1, r2, r6, r7, r8, fp}
 63c:	007d0002 	rsbseq	r0, sp, r2
 640:	080009c6 	stmdaeq	r0, {r1, r2, r6, r7, r8, fp}
 644:	080009c8 	stmdaeq	r0, {r3, r6, r7, r8, fp}
 648:	0c7d0002 	ldcleq	0, cr0, [sp], #-8
 64c:	080009c8 	stmdaeq	r0, {r3, r6, r7, r8, fp}
 650:	080009ca 	stmdaeq	r0, {r1, r3, r6, r7, r8, fp}
 654:	207d0002 	rsbscs	r0, sp, r2
 658:	080009ca 	stmdaeq	r0, {r1, r3, r6, r7, r8, fp}
 65c:	08000ab8 	stmdaeq	r0, {r3, r4, r5, r7, r9, fp}
 660:	20770002 	rsbscs	r0, r7, r2
 664:	08000ab8 	stmdaeq	r0, {r3, r4, r5, r7, r9, fp}
 668:	08000aba 	stmdaeq	r0, {r1, r3, r4, r5, r7, r9, fp}
 66c:	0c770002 	ldcleq	0, cr0, [r7], #-8
 670:	08000aba 	stmdaeq	r0, {r1, r3, r4, r5, r7, r9, fp}
 674:	08000abc 	stmdaeq	r0, {r2, r3, r4, r5, r7, r9, fp}
 678:	0c7d0002 	ldcleq	0, cr0, [sp], #-8
	...
 684:	08000854 	stmdaeq	r0, {r2, r4, r6, fp}
 688:	08000856 	stmdaeq	r0, {r1, r2, r4, r6, fp}
 68c:	007d0002 	rsbseq	r0, sp, r2
 690:	08000856 	stmdaeq	r0, {r1, r2, r4, r6, fp}
 694:	08000858 	stmdaeq	r0, {r3, r4, r6, fp}
 698:	047d0002 	ldrbteq	r0, [sp], #-2
 69c:	08000858 	stmdaeq	r0, {r3, r4, r6, fp}
 6a0:	0800085a 	stmdaeq	r0, {r1, r3, r4, r6, fp}
 6a4:	107d0002 	rsbsne	r0, sp, r2
 6a8:	0800085a 	stmdaeq	r0, {r1, r3, r4, r6, fp}
 6ac:	080009bc 	stmdaeq	r0, {r2, r3, r4, r5, r7, r8, fp}
 6b0:	10770002 	rsbsne	r0, r7, r2
 6b4:	080009bc 	stmdaeq	r0, {r2, r3, r4, r5, r7, r8, fp}
 6b8:	080009be 	stmdaeq	r0, {r1, r2, r3, r4, r5, r7, r8, fp}
 6bc:	04770002 	ldrbteq	r0, [r7], #-2
 6c0:	080009be 	stmdaeq	r0, {r1, r2, r3, r4, r5, r7, r8, fp}
 6c4:	080009c0 	stmdaeq	r0, {r6, r7, r8, fp}
 6c8:	047d0002 	ldrbteq	r0, [sp], #-2
 6cc:	080009c0 	stmdaeq	r0, {r6, r7, r8, fp}
 6d0:	080009c2 	stmdaeq	r0, {r1, r6, r7, r8, fp}
 6d4:	007d0002 	rsbseq	r0, sp, r2
	...

Disassembly of section .debug_aranges:

00000000 <.debug_aranges>:
   0:	00000034 	andeq	r0, r0, r4, lsr r0
   4:	00000002 	andeq	r0, r0, r2
   8:	00040000 	andeq	r0, r4, r0
   c:	00000000 	andeq	r0, r0, r0
  10:	08000170 	stmdaeq	r0, {r4, r5, r6, r8}
  14:	00000040 	andeq	r0, r0, r0, asr #32
  18:	080001b0 	stmdaeq	r0, {r4, r5, r7, r8}
  1c:	0000000e 	andeq	r0, r0, lr
  20:	080001c0 	stmdaeq	r0, {r6, r7, r8}
  24:	00000028 	andeq	r0, r0, r8, lsr #32
  28:	080001e8 	stmdaeq	r0, {r3, r5, r6, r7, r8}
  2c:	00000080 	andeq	r0, r0, r0, lsl #1
	...
  38:	00000024 	andeq	r0, r0, r4, lsr #32
  3c:	03ba0002 			; <UNDEFINED> instruction: 0x03ba0002
  40:	00040000 	andeq	r0, r4, r0
  44:	00000000 	andeq	r0, r0, r0
  48:	08000268 	stmdaeq	r0, {r3, r5, r6, r9}
  4c:	00000050 	andeq	r0, r0, r0, asr r0
  50:	080002b8 	stmdaeq	r0, {r3, r4, r5, r7, r9}
  54:	00000002 	andeq	r0, r0, r2
	...
  60:	0000007c 	andeq	r0, r0, ip, ror r0
  64:	03dc0002 	bicseq	r0, ip, #2
  68:	00040000 	andeq	r0, r4, r0
  6c:	00000000 	andeq	r0, r0, r0
  70:	080002bc 	stmdaeq	r0, {r2, r3, r4, r5, r7, r9}
  74:	000000c8 	andeq	r0, r0, r8, asr #1
  78:	08000384 	stmdaeq	r0, {r2, r7, r8, r9}
  7c:	000000c8 	andeq	r0, r0, r8, asr #1
  80:	0800044c 	stmdaeq	r0, {r2, r3, r6, sl}
  84:	000001d0 	ldrdeq	r0, [r0], -r0	; <UNPREDICTABLE>
  88:	00000000 	andeq	r0, r0, r0
  8c:	00000094 	muleq	r0, r4, r0
  90:	00000000 	andeq	r0, r0, r0
  94:	00000016 	andeq	r0, r0, r6, lsl r0
  98:	0800061c 	stmdaeq	r0, {r2, r3, r4, r9, sl}
  9c:	00000016 	andeq	r0, r0, r6, lsl r0
  a0:	08000634 	stmdaeq	r0, {r2, r4, r5, r9, sl}
  a4:	00000024 	andeq	r0, r0, r4, lsr #32
  a8:	08000658 	stmdaeq	r0, {r3, r4, r6, r9, sl}
  ac:	00000024 	andeq	r0, r0, r4, lsr #32
  b0:	0800067c 	stmdaeq	r0, {r2, r3, r4, r5, r6, r9, sl}
  b4:	00000024 	andeq	r0, r0, r4, lsr #32
  b8:	080006a0 	stmdaeq	r0, {r5, r7, r9, sl}
  bc:	00000024 	andeq	r0, r0, r4, lsr #32
  c0:	080006c4 	stmdaeq	r0, {r2, r6, r7, r9, sl}
  c4:	00000024 	andeq	r0, r0, r4, lsr #32
  c8:	080006e8 	stmdaeq	r0, {r3, r5, r6, r7, r9, sl}
  cc:	000000a8 	andeq	r0, r0, r8, lsr #1
  d0:	08000790 	stmdaeq	r0, {r4, r7, r8, r9, sl}
  d4:	000000c4 	andeq	r0, r0, r4, asr #1
	...
  e0:	00000054 	andeq	r0, r0, r4, asr r0
  e4:	09060002 	stmdbeq	r6, {r1}
  e8:	00040000 	andeq	r0, r4, r0
  ec:	00000000 	andeq	r0, r0, r0
  f0:	08000854 	stmdaeq	r0, {r2, r4, r6, fp}
  f4:	0000016e 	andeq	r0, r0, lr, ror #2
  f8:	080009c4 	stmdaeq	r0, {r2, r6, r7, r8, fp}
  fc:	000000f8 	strdeq	r0, [r0], -r8
 100:	00000000 	andeq	r0, r0, r0
 104:	000000cc 	andeq	r0, r0, ip, asr #1
 108:	00000000 	andeq	r0, r0, r0
 10c:	0000002e 	andeq	r0, r0, lr, lsr #32
 110:	00000000 	andeq	r0, r0, r0
 114:	0000001a 	andeq	r0, r0, sl, lsl r0
 118:	00000000 	andeq	r0, r0, r0
 11c:	0000001c 	andeq	r0, r0, ip, lsl r0
 120:	00000000 	andeq	r0, r0, r0
 124:	0000002e 	andeq	r0, r0, lr, lsr #32
 128:	00000000 	andeq	r0, r0, r0
 12c:	00000022 	andeq	r0, r0, r2, lsr #32
	...

Disassembly of section .debug_ranges:

00000000 <.debug_ranges>:
   0:	08000170 	stmdaeq	r0, {r4, r5, r6, r8}
   4:	080001b0 	stmdaeq	r0, {r4, r5, r7, r8}
   8:	080001b0 	stmdaeq	r0, {r4, r5, r7, r8}
   c:	080001be 	stmdaeq	r0, {r1, r2, r3, r4, r5, r7, r8}
  10:	080001c0 	stmdaeq	r0, {r6, r7, r8}
  14:	080001e8 	stmdaeq	r0, {r3, r5, r6, r7, r8}
  18:	080001e8 	stmdaeq	r0, {r3, r5, r6, r7, r8}
  1c:	08000268 	stmdaeq	r0, {r3, r5, r6, r9}
	...
  28:	ffffffff 			; <UNDEFINED> instruction: 0xffffffff
  2c:	00000000 	andeq	r0, r0, r0
  30:	08000268 	stmdaeq	r0, {r3, r5, r6, r9}
  34:	080002b8 	stmdaeq	r0, {r3, r4, r5, r7, r9}
  38:	080002b8 	stmdaeq	r0, {r3, r4, r5, r7, r9}
  3c:	080002ba 	stmdaeq	r0, {r1, r3, r4, r5, r7, r9}
	...
  48:	080002bc 	stmdaeq	r0, {r2, r3, r4, r5, r7, r9}
  4c:	08000384 	stmdaeq	r0, {r2, r7, r8, r9}
  50:	08000384 	stmdaeq	r0, {r2, r7, r8, r9}
  54:	0800044c 	stmdaeq	r0, {r2, r3, r6, sl}
  58:	0800044c 	stmdaeq	r0, {r2, r3, r6, sl}
  5c:	0800061c 	stmdaeq	r0, {r2, r3, r4, r9, sl}
  60:	00000001 	andeq	r0, r0, r1
  64:	00000001 	andeq	r0, r0, r1
  68:	00000001 	andeq	r0, r0, r1
  6c:	00000001 	andeq	r0, r0, r1
  70:	0800061c 	stmdaeq	r0, {r2, r3, r4, r9, sl}
  74:	08000632 	stmdaeq	r0, {r1, r4, r5, r9, sl}
  78:	08000634 	stmdaeq	r0, {r2, r4, r5, r9, sl}
  7c:	08000658 	stmdaeq	r0, {r3, r4, r6, r9, sl}
  80:	08000658 	stmdaeq	r0, {r3, r4, r6, r9, sl}
  84:	0800067c 	stmdaeq	r0, {r2, r3, r4, r5, r6, r9, sl}
  88:	0800067c 	stmdaeq	r0, {r2, r3, r4, r5, r6, r9, sl}
  8c:	080006a0 	stmdaeq	r0, {r5, r7, r9, sl}
  90:	080006a0 	stmdaeq	r0, {r5, r7, r9, sl}
  94:	080006c4 	stmdaeq	r0, {r2, r6, r7, r9, sl}
  98:	080006c4 	stmdaeq	r0, {r2, r6, r7, r9, sl}
  9c:	080006e8 	stmdaeq	r0, {r3, r5, r6, r7, r9, sl}
  a0:	080006e8 	stmdaeq	r0, {r3, r5, r6, r7, r9, sl}
  a4:	08000790 	stmdaeq	r0, {r4, r7, r8, r9, sl}
  a8:	08000790 	stmdaeq	r0, {r4, r7, r8, r9, sl}
  ac:	08000854 	stmdaeq	r0, {r2, r4, r6, fp}
	...
  b8:	08000854 	stmdaeq	r0, {r2, r4, r6, fp}
  bc:	080009c2 	stmdaeq	r0, {r1, r6, r7, r8, fp}
  c0:	080009c4 	stmdaeq	r0, {r2, r6, r7, r8, fp}
  c4:	08000abc 	stmdaeq	r0, {r2, r3, r4, r5, r7, r9, fp}
  c8:	00000001 	andeq	r0, r0, r1
  cc:	00000001 	andeq	r0, r0, r1
  d0:	00000001 	andeq	r0, r0, r1
  d4:	00000001 	andeq	r0, r0, r1
  d8:	00000001 	andeq	r0, r0, r1
  dc:	00000001 	andeq	r0, r0, r1
  e0:	00000001 	andeq	r0, r0, r1
  e4:	00000001 	andeq	r0, r0, r1
  e8:	00000001 	andeq	r0, r0, r1
  ec:	00000001 	andeq	r0, r0, r1
  f0:	00000001 	andeq	r0, r0, r1
  f4:	00000001 	andeq	r0, r0, r1
	...

Disassembly of section .debug_macro:

00000000 <.debug_macro>:
       0:	00020004 	andeq	r0, r2, r4
       4:	07000000 	streq	r0, [r0, -r0]
       8:	00000162 	andeq	r0, r0, r2, ror #2
       c:	03010003 	movweq	r0, #4099	; 0x1003
      10:	d4070618 	strle	r0, [r7], #-1560	; 0xfffff9e8
      14:	0300000b 	movweq	r0, #11
      18:	09050410 	stmdbeq	r5, {r4, sl}
      1c:	000088e9 	andeq	r8, r0, r9, ror #17
      20:	05070d03 	streq	r0, [r7, #-3331]	; 0xfffff2fd
      24:	00802108 	addeq	r2, r0, r8, lsl #2
      28:	080a0300 	stmdaeq	sl, {r8, r9}
      2c:	000bea07 	andeq	lr, fp, r7, lsl #20
      30:	0b030400 	bleq	c1038 <_Min_Stack_Size+0xc0c38>
      34:	c7080509 	strgt	r0, [r8, -r9, lsl #10]
      38:	03000053 	movweq	r0, #83	; 0x53
      3c:	08050a0a 	stmdaeq	r5, {r1, r3, r9, fp}
      40:	0000128f 	andeq	r1, r0, pc, lsl #5
      44:	070b0e03 	streq	r0, [fp, -r3, lsl #28]
      48:	00000c02 	andeq	r0, r0, r2, lsl #24
      4c:	0c240704 	stceq	7, cr0, [r4], #-16
      50:	03040000 	movweq	r0, #16384	; 0x4000
      54:	02050c0b 	andeq	r0, r5, #2816	; 0xb00
      58:	00007f3d 	andeq	r7, r0, sp, lsr pc
      5c:	04080403 	streq	r0, [r8], #-1027	; 0xfffffbfd
      60:	070d0503 	streq	r0, [sp, -r3, lsl #10]
      64:	00000c70 	andeq	r0, r0, r0, ror ip
      68:	0d040704 	stceq	7, cr0, [r4, #-16]
      6c:	07040000 	streq	r0, [r4, -r0]
      70:	00000d40 	andeq	r0, r0, r0, asr #26
      74:	0d740704 	ldcleq	7, cr0, [r4, #-16]!
      78:	10030000 	andne	r0, r3, r0
      7c:	0d8a070e 	stceq	7, cr0, [sl, #56]	; 0x38
      80:	03040000 	movweq	r0, #16384	; 0x4000
      84:	0b050f12 	bleq	143cd4 <_Min_Stack_Size+0x1438d4>
      88:	00005744 	andeq	r5, r0, r4, asr #14
      8c:	04090d03 	streq	r0, [r9], #-3331	; 0xfffff2fd
      90:	070e0e03 	streq	r0, [lr, -r3, lsl #28]
      94:	00000e98 	muleq	r0, r8, lr
      98:	100f0304 	andne	r0, pc, r4, lsl #6
      9c:	000f2507 	andeq	r2, pc, r7, lsl #10
      a0:	0e180300 	cdpeq	3, 1, cr0, cr8, cr0, {0}
      a4:	000f3b07 	andeq	r3, pc, r7, lsl #22
      a8:	1b030400 	blne	c10b0 <_Min_Stack_Size+0xc0cb0>
      ac:	9f060511 	svcls	0x00060511
      b0:	0300005b 	movweq	r0, #91	; 0x5b
      b4:	7e070207 	cdpvc	2, 0, cr0, cr7, cr7, {0}
      b8:	0400000f 	streq	r0, [r0], #-15
      bc:	0fd50704 	svceq	0x00d50704
      c0:	07040000 	streq	r0, [r4, -r0]
      c4:	00001009 	andeq	r1, r0, r9
      c8:	07122203 	ldreq	r2, [r2, -r3, lsl #4]
      cc:	00001019 	andeq	r1, r0, r9, lsl r0
      d0:	10710704 	rsbsne	r0, r1, r4, lsl #14
      d4:	f7030000 			; <UNDEFINED> instruction: 0xf7030000
      d8:	e2071303 	and	r1, r7, #201326592	; 0xc000000
      dc:	04000010 	streq	r0, [r0], #-16
      e0:	0010fe07 	andseq	pc, r0, r7, lsl #28
      e4:	13030400 	movwne	r0, #13312	; 0x3400
      e8:	6b2b0514 	blvs	ac1540 <_Min_Stack_Size+0xac1140>
      ec:	03000083 	movweq	r0, #131	; 0x83
      f0:	07040e2f 	streq	r0, [r4, -pc, lsr #28]
      f4:	00001228 	andeq	r1, r0, r8, lsr #4
      f8:	15140304 	ldrne	r0, [r4, #-772]	; 0xfffffcfc
      fc:	26ec0205 	strbtcs	r0, [ip], r5, lsl #4
     100:	03040000 	movweq	r0, #16384	; 0x4000
     104:	69071616 	stmdbvs	r7, {r1, r2, r4, r9, sl, ip}
     108:	04000015 	streq	r0, [r0], #-21	; 0xffffffeb
     10c:	00157f07 	andseq	r7, r5, r7, lsl #30
     110:	0e030400 	cfcpyseq	mvf0, mvf3
     114:	18090317 	stmdane	r9, {r0, r1, r2, r4, r8, r9}
     118:	06c30a05 	strbeq	r0, [r3], r5, lsl #20
     11c:	0d030000 	stceq	0, cr0, [r3, #-0]
     120:	15a80719 	strne	r0, [r8, #1817]!	; 0x719
     124:	03040000 	movweq	r0, #16384	; 0x4000
     128:	ab07030e 	blge	1c0d68 <_Min_Stack_Size+0x1c0968>
     12c:	04000016 	streq	r0, [r0], #-22	; 0xffffffea
     130:	00171507 	andseq	r1, r7, r7, lsl #10
     134:	0d050400 	cfstrseq	mvf0, [r5, #-0]
     138:	000006ba 			; <UNDEFINED> instruction: 0x000006ba
     13c:	18f40704 	ldmne	r4!, {r2, r8, r9, sl}^
     140:	07040000 	streq	r0, [r4, -r0]
     144:	00001b9d 	muleq	r0, sp, fp
     148:	04190304 	ldreq	r0, [r9], #-772	; 0xfffffcfc
     14c:	051a0304 	ldreq	r0, [sl, #-772]	; 0xfffffcfc
     150:	78d80905 	ldmvc	r8, {r0, r2, r8, fp}^
     154:	0f030000 	svceq	0x00030000
     158:	55070406 	strpl	r0, [r7, #-1030]	; 0xfffffbfa
     15c:	0400001c 	streq	r0, [r0], #-28	; 0xffffffe4
     160:	00040004 	andeq	r0, r4, r4
     164:	24000500 	strcs	r0, [r0], #-1280	; 0xfffffb00
     168:	05000082 	streq	r0, [r0, #-130]	; 0xffffff7e
     16c:	0039b700 	eorseq	fp, r9, r0, lsl #14
     170:	ac000500 	cfstr32ge	mvfx0, [r0], {-0}
     174:	05000057 	streq	r0, [r0, #-87]	; 0xffffffa9
     178:	00220d00 	eoreq	r0, r2, r0, lsl #26
     17c:	1f000500 	svcne	0x00000500
     180:	0500000c 	streq	r0, [r0, #-12]
     184:	00478c00 	subeq	r8, r7, r0, lsl #24
     188:	36000500 	strcc	r0, [r0], -r0, lsl #10
     18c:	05000072 	streq	r0, [r0, #-114]	; 0xffffff8e
     190:	001fcf00 	andseq	ip, pc, r0, lsl #30
     194:	7f000500 	svcvc	0x00000500
     198:	05000093 	streq	r0, [r0, #-147]	; 0xffffff6d
     19c:	007b1d00 	rsbseq	r1, fp, r0, lsl #26
     1a0:	0e000500 	cfsh32eq	mvfx0, mvfx0, #0
     1a4:	05000023 	streq	r0, [r0, #-35]	; 0xffffffdd
     1a8:	003a7f00 	eorseq	r7, sl, r0, lsl #30
     1ac:	7c000500 	cfstr32vc	mvfx0, [r0], {-0}
     1b0:	05000044 	streq	r0, [r0, #-68]	; 0xffffffbc
     1b4:	008e6c00 	addeq	r6, lr, r0, lsl #24
     1b8:	cb000500 	blgt	15c0 <_Min_Stack_Size+0x11c0>
     1bc:	0500003c 	streq	r0, [r0, #-60]	; 0xffffffc4
     1c0:	006a3800 	rsbeq	r3, sl, r0, lsl #16
     1c4:	62000500 	andvs	r0, r0, #0, 10
     1c8:	05000085 	streq	r0, [r0, #-133]	; 0xffffff7b
     1cc:	001bca00 	andseq	ip, fp, r0, lsl #20
     1d0:	1b000500 	blne	15d8 <_Min_Stack_Size+0x11d8>
     1d4:	05000005 	streq	r0, [r0, #-5]
     1d8:	0025bb00 	eoreq	fp, r5, r0, lsl #22
     1dc:	1f000500 	svcne	0x00000500
     1e0:	05000022 	streq	r0, [r0, #-34]	; 0xffffffde
     1e4:	001cf100 	andseq	pc, ip, r0, lsl #2
     1e8:	fc000500 	stc2	5, cr0, [r0], {-0}
     1ec:	05000026 	streq	r0, [r0, #-38]	; 0xffffffda
     1f0:	00774100 	rsbseq	r4, r7, r0, lsl #2
     1f4:	3b000500 	blcc	15fc <_Min_Stack_Size+0x11fc>
     1f8:	05000051 	streq	r0, [r0, #-81]	; 0xffffffaf
     1fc:	005f7000 	subseq	r7, pc, r0
     200:	89000500 	stmdbhi	r0, {r8, sl}
     204:	05000066 	streq	r0, [r0, #-102]	; 0xffffff9a
     208:	00105400 	andseq	r5, r0, r0, lsl #8
     20c:	85000500 	strhi	r0, [r0, #-1280]	; 0xfffffb00
     210:	05000006 	streq	r0, [r0, #-6]
     214:	00535d00 	subseq	r5, r3, r0, lsl #26
     218:	df000500 	svcle	0x00000500
     21c:	05000059 	streq	r0, [r0, #-89]	; 0xffffffa7
     220:	00190000 	andseq	r0, r9, r0
     224:	9f000500 	svcls	0x00000500
     228:	05000006 	streq	r0, [r0, #-6]
     22c:	0067cd00 	rsbeq	ip, r7, r0, lsl #26
     230:	3b000500 	blcc	1638 <_Min_Stack_Size+0x1238>
     234:	05000027 	streq	r0, [r0, #-39]	; 0xffffffd9
     238:	0058b300 	subseq	fp, r8, r0, lsl #6
     23c:	e3000500 	movw	r0, #1280	; 0x500
     240:	05000072 	streq	r0, [r0, #-114]	; 0xffffff8e
     244:	001a1200 	andseq	r1, sl, r0, lsl #4
     248:	70000500 	andvc	r0, r0, r0, lsl #10
     24c:	05000069 	streq	r0, [r0, #-105]	; 0xffffff97
     250:	001b1400 	andseq	r1, fp, r0, lsl #8
     254:	b1000500 	tstlt	r0, r0, lsl #10
     258:	05000068 	streq	r0, [r0, #-104]	; 0xffffff98
     25c:	0006e300 	andeq	lr, r6, r0, lsl #6
     260:	ec000500 	cfstr32	mvfx0, [r0], {-0}
     264:	05000009 	streq	r0, [r0, #-9]
     268:	006ce000 	rsbeq	lr, ip, r0
     26c:	0b000500 	bleq	1674 <_Min_Stack_Size+0x1274>
     270:	05000051 	streq	r0, [r0, #-81]	; 0xffffffaf
     274:	0031ab00 	eorseq	sl, r1, r0, lsl #22
     278:	56000500 	strpl	r0, [r0], -r0, lsl #10
     27c:	0500000d 	streq	r0, [r0, #-13]
     280:	00842400 	addeq	r2, r4, r0, lsl #8
     284:	22000500 	andcs	r0, r0, #0, 10
     288:	0500003b 	streq	r0, [r0, #-59]	; 0xffffffc5
     28c:	00191500 	andseq	r1, r9, r0, lsl #10
     290:	bc000500 	cfstr32lt	mvfx0, [r0], {-0}
     294:	05000088 	streq	r0, [r0, #-136]	; 0xffffff78
     298:	00451a00 	subeq	r1, r5, r0, lsl #20
     29c:	fa000500 	blx	16a4 <_Min_Stack_Size+0x12a4>
     2a0:	05000092 	streq	r0, [r0, #-146]	; 0xffffff6e
     2a4:	005a6100 	subseq	r6, sl, r0, lsl #2
     2a8:	0d000500 	cfstr32eq	mvfx0, [r0, #-0]
     2ac:	05000069 	streq	r0, [r0, #-105]	; 0xffffff97
     2b0:	00726200 	rsbseq	r6, r2, r0, lsl #4
     2b4:	bb000500 	bllt	16bc <_Min_Stack_Size+0x12bc>
     2b8:	05000042 	streq	r0, [r0, #-66]	; 0xffffffbe
     2bc:	00187300 	andseq	r7, r8, r0, lsl #6
     2c0:	84000500 	strhi	r0, [r0], #-1280	; 0xfffffb00
     2c4:	05000068 	streq	r0, [r0, #-104]	; 0xffffff98
     2c8:	0055b800 	subseq	fp, r5, r0, lsl #16
     2cc:	96000500 	strls	r0, [r0], -r0, lsl #10
     2d0:	0500000c 	streq	r0, [r0, #-12]
     2d4:	00403900 	subeq	r3, r0, r0, lsl #18
     2d8:	99000500 	stmdbls	r0, {r8, sl}
     2dc:	05000086 	streq	r0, [r0, #-134]	; 0xffffff7a
     2e0:	0021da00 	eoreq	sp, r1, r0, lsl #20
     2e4:	d6000500 	strle	r0, [r0], -r0, lsl #10
     2e8:	05000028 	streq	r0, [r0, #-40]	; 0xffffffd8
     2ec:	0075f500 	rsbseq	pc, r5, r0, lsl #10
     2f0:	16000500 	strne	r0, [r0], -r0, lsl #10
     2f4:	05000076 	streq	r0, [r0, #-118]	; 0xffffff8a
     2f8:	002e6400 	eoreq	r6, lr, r0, lsl #8
     2fc:	82000500 	andhi	r0, r0, #0, 10
     300:	05000057 	streq	r0, [r0, #-87]	; 0xffffffa9
     304:	00679500 	rsbeq	r9, r7, r0, lsl #10
     308:	e3000500 	movw	r0, #1280	; 0x500
     30c:	05000092 	streq	r0, [r0, #-146]	; 0xffffff6e
     310:	008bed00 	addeq	lr, fp, r0, lsl #26
     314:	27000500 	strcs	r0, [r0, -r0, lsl #10]
     318:	05000061 	streq	r0, [r0, #-97]	; 0xffffff9f
     31c:	00049800 	andeq	r9, r4, r0, lsl #16
     320:	1c000500 	cfstr32ne	mvfx0, [r0], {-0}
     324:	05000049 	streq	r0, [r0, #-73]	; 0xffffffb7
     328:	00885100 	addeq	r5, r8, r0, lsl #2
     32c:	01000500 	tsteq	r0, r0, lsl #10
     330:	05000088 	streq	r0, [r0, #-136]	; 0xffffff78
     334:	0002ee00 	andeq	lr, r2, r0, lsl #28
     338:	e8000500 	stmda	r0, {r8, sl}
     33c:	0500008a 	streq	r0, [r0, #-138]	; 0xffffff76
     340:	003ff700 	eorseq	pc, pc, r0, lsl #14
     344:	b0000500 	andlt	r0, r0, r0, lsl #10
     348:	0500005a 	streq	r0, [r0, #-90]	; 0xffffffa6
     34c:	00662d00 	rsbeq	r2, r6, r0, lsl #26
     350:	04000500 	streq	r0, [r0], #-1280	; 0xfffffb00
     354:	05000048 	streq	r0, [r0, #-72]	; 0xffffffb8
     358:	004df700 	subeq	pc, sp, r0, lsl #14
     35c:	3f000500 	svccc	0x00000500
     360:	0500008d 	streq	r0, [r0, #-141]	; 0xffffff73
     364:	0084be00 	addeq	fp, r4, r0, lsl #28
     368:	76000500 	strvc	r0, [r0], -r0, lsl #10
     36c:	05000011 	streq	r0, [r0, #-17]	; 0xffffffef
     370:	00877a00 	addeq	r7, r7, r0, lsl #20
     374:	59000500 	stmdbpl	r0, {r8, sl}
     378:	05000003 	streq	r0, [r0, #-3]
     37c:	00032f00 	andeq	r2, r3, r0, lsl #30
     380:	98000500 	stmdals	r0, {r8, sl}
     384:	05000091 	streq	r0, [r0, #-145]	; 0xffffff6f
     388:	0018e800 	andseq	lr, r8, r0, lsl #16
     38c:	3e000500 	cfsh32cc	mvfx0, mvfx0, #0
     390:	05000006 	streq	r0, [r0, #-6]
     394:	007ba700 	rsbseq	sl, fp, r0, lsl #14
     398:	81000500 	tsthi	r0, r0, lsl #10
     39c:	05000034 	streq	r0, [r0, #-52]	; 0xffffffcc
     3a0:	00808800 	addeq	r8, r0, r0, lsl #16
     3a4:	43000500 	movwmi	r0, #1280	; 0x500
     3a8:	0500003d 	streq	r0, [r0, #-61]	; 0xffffffc3
     3ac:	007f2800 	rsbseq	r2, pc, r0, lsl #16
     3b0:	f5000500 			; <UNDEFINED> instruction: 0xf5000500
     3b4:	05000040 	streq	r0, [r0, #-64]	; 0xffffffc0
     3b8:	00469a00 	subeq	r9, r6, r0, lsl #20
     3bc:	8b000500 	blhi	17c4 <_Min_Stack_Size+0x13c4>
     3c0:	0500002c 	streq	r0, [r0, #-44]	; 0xffffffd4
     3c4:	00246200 	eoreq	r6, r4, r0, lsl #4
     3c8:	57000500 	strpl	r0, [r0, -r0, lsl #10]
     3cc:	05000039 	streq	r0, [r0, #-57]	; 0xffffffc7
     3d0:	0038ee00 	eorseq	lr, r8, r0, lsl #28
     3d4:	1d000500 	cfstr32ne	mvfx0, [r0, #-0]
     3d8:	0500003a 	streq	r0, [r0, #-58]	; 0xffffffc6
     3dc:	00626500 	rsbeq	r6, r2, r0, lsl #10
     3e0:	6a000500 	bvs	17e8 <_Min_Stack_Size+0x13e8>
     3e4:	05000088 	streq	r0, [r0, #-136]	; 0xffffff78
     3e8:	002e7b00 	eoreq	r7, lr, r0, lsl #22
     3ec:	52000500 	andpl	r0, r0, #0, 10
     3f0:	0500008d 	streq	r0, [r0, #-141]	; 0xffffff73
     3f4:	0036b900 	eorseq	fp, r6, r0, lsl #18
     3f8:	b6000500 	strlt	r0, [r0], -r0, lsl #10
     3fc:	0500001e 	streq	r0, [r0, #-30]	; 0xffffffe2
     400:	002b3f00 	eoreq	r3, fp, r0, lsl #30
     404:	05000500 	streq	r0, [r0, #-1280]	; 0xfffffb00
     408:	0500001d 	streq	r0, [r0, #-29]	; 0xffffffe3
     40c:	00415800 	subeq	r5, r1, r0, lsl #16
     410:	5e000500 	cfsh32pl	mvfx0, mvfx0, #0
     414:	05000077 	streq	r0, [r0, #-119]	; 0xffffff89
     418:	003cde00 	eorseq	sp, ip, r0, lsl #28
     41c:	f8000500 			; <UNDEFINED> instruction: 0xf8000500
     420:	0500006c 	streq	r0, [r0, #-108]	; 0xffffff94
     424:	00099900 	andeq	r9, r9, r0, lsl #18
     428:	03000500 	movweq	r0, #1280	; 0x500
     42c:	0500000c 	streq	r0, [r0, #-12]
     430:	00795e00 	rsbseq	r5, r9, r0, lsl #28
     434:	18000500 	stmdane	r0, {r8, sl}
     438:	0500003c 	streq	r0, [r0, #-60]	; 0xffffffc4
     43c:	00302000 	eorseq	r2, r0, r0
     440:	e3000500 	movw	r0, #1280	; 0x500
     444:	05000065 	streq	r0, [r0, #-101]	; 0xffffff9b
     448:	0042a400 	subeq	sl, r2, r0, lsl #8
     44c:	7c000500 	cfstr32vc	mvfx0, [r0], {-0}
     450:	05000082 	streq	r0, [r0, #-130]	; 0xffffff7e
     454:	00579500 	subseq	r9, r7, r0, lsl #10
     458:	4f000500 	svcmi	0x00000500
     45c:	0500006a 	streq	r0, [r0, #-106]	; 0xffffff96
     460:	00129e00 	andseq	r9, r2, r0, lsl #28
     464:	f0000500 			; <UNDEFINED> instruction: 0xf0000500
     468:	05000022 	streq	r0, [r0, #-34]	; 0xffffffde
     46c:	00218900 	eoreq	r8, r1, r0, lsl #18
     470:	40000500 	andmi	r0, r0, r0, lsl #10
     474:	05000017 	streq	r0, [r0, #-23]	; 0xffffffe9
     478:	000fa000 	andeq	sl, pc, r0
     47c:	e3000500 	movw	r0, #1280	; 0x500
     480:	05000011 	streq	r0, [r0, #-17]	; 0xffffffef
     484:	00136500 	andseq	r6, r3, r0, lsl #10
     488:	96000500 	strls	r0, [r0], -r0, lsl #10
     48c:	0500001b 	streq	r0, [r0, #-27]	; 0xffffffe5
     490:	004e5700 	subeq	r5, lr, r0, lsl #14
     494:	35000500 	strcc	r0, [r0, #-1280]	; 0xfffffb00
     498:	05000013 	streq	r0, [r0, #-19]	; 0xffffffed
     49c:	004ef700 	subeq	pc, lr, r0, lsl #14
     4a0:	26000500 	strcs	r0, [r0], -r0, lsl #10
     4a4:	0500000e 	streq	r0, [r0, #-14]
     4a8:	0058e500 	subseq	lr, r8, r0, lsl #10
     4ac:	45000500 	strmi	r0, [r0, #-1280]	; 0xfffffb00
     4b0:	0500003e 	streq	r0, [r0, #-62]	; 0xffffffc2
     4b4:	00575300 	subseq	r5, r7, r0, lsl #6
     4b8:	77000500 	strvc	r0, [r0, -r0, lsl #10]
     4bc:	0500003f 	streq	r0, [r0, #-63]	; 0xffffffc1
     4c0:	00370000 	eorseq	r0, r7, r0
     4c4:	e0000500 	and	r0, r0, r0, lsl #10
     4c8:	05000049 	streq	r0, [r0, #-73]	; 0xffffffb7
     4cc:	0044b300 	subeq	fp, r4, r0, lsl #6
     4d0:	37000500 	strcc	r0, [r0, -r0, lsl #10]
     4d4:	05000021 	streq	r0, [r0, #-33]	; 0xffffffdf
     4d8:	0050e100 	subseq	lr, r0, r0, lsl #2
     4dc:	68000500 	stmdavs	r0, {r8, sl}
     4e0:	05000067 	streq	r0, [r0, #-103]	; 0xffffff99
     4e4:	001bb600 	andseq	fp, fp, r0, lsl #12
     4e8:	84000500 	strhi	r0, [r0], #-1280	; 0xfffffb00
     4ec:	05000022 	streq	r0, [r0, #-34]	; 0xffffffde
     4f0:	001ea000 	andseq	sl, lr, r0
     4f4:	3a000500 	bcc	18fc <_Min_Stack_Size+0x14fc>
     4f8:	05000048 	streq	r0, [r0, #-72]	; 0xffffffb8
     4fc:	0066f800 	rsbeq	pc, r6, r0, lsl #16
     500:	5b000500 	blpl	1908 <_Min_Stack_Size+0x1508>
     504:	05000029 	streq	r0, [r0, #-41]	; 0xffffffd7
     508:	00309500 	eorseq	r9, r0, r0, lsl #10
     50c:	96000500 	strls	r0, [r0], -r0, lsl #10
     510:	0500002e 	streq	r0, [r0, #-46]	; 0xffffffd2
     514:	0006ce00 	andeq	ip, r6, r0, lsl #28
     518:	f7000500 			; <UNDEFINED> instruction: 0xf7000500
     51c:	0500003c 	streq	r0, [r0, #-60]	; 0xffffffc4
     520:	001f7300 	andseq	r7, pc, r0, lsl #6
     524:	fa000500 	blx	192c <_Min_Stack_Size+0x152c>
     528:	05000091 	streq	r0, [r0, #-145]	; 0xffffff6f
     52c:	0076b400 	rsbseq	fp, r6, r0, lsl #8
     530:	d1000500 	tstle	r0, r0, lsl #10
     534:	05000062 	streq	r0, [r0, #-98]	; 0xffffff9e
     538:	00102a00 	andseq	r2, r0, r0, lsl #20
     53c:	59000500 	stmdbpl	r0, {r8, sl}
     540:	05000044 	streq	r0, [r0, #-68]	; 0xffffffbc
     544:	00054800 	andeq	r4, r5, r0, lsl #16
     548:	a2000500 	andge	r0, r0, #0, 10
     54c:	0500007d 	streq	r0, [r0, #-125]	; 0xffffff83
     550:	0088fe00 	addeq	pc, r8, r0, lsl #28
     554:	75000500 	strvc	r0, [r0, #-1280]	; 0xfffffb00
     558:	05000054 	streq	r0, [r0, #-84]	; 0xffffffac
     55c:	00178200 	andseq	r8, r7, r0, lsl #4
     560:	7e000500 	cfsh32vc	mvfx0, mvfx0, #0
     564:	0500003c 	streq	r0, [r0, #-60]	; 0xffffffc4
     568:	00556c00 	subseq	r6, r5, r0, lsl #24
     56c:	94000500 	strls	r0, [r0], #-1280	; 0xfffffb00
     570:	0500002d 	streq	r0, [r0, #-45]	; 0xffffffd3
     574:	007b9000 	rsbseq	r9, fp, r0
     578:	66000500 	strvs	r0, [r0], -r0, lsl #10
     57c:	05000074 	streq	r0, [r0, #-116]	; 0xffffff8c
     580:	00091700 	andeq	r1, r9, r0, lsl #14
     584:	6a000500 	bvs	198c <_Min_Stack_Size+0x158c>
     588:	05000087 	streq	r0, [r0, #-135]	; 0xffffff79
     58c:	0007a400 	andeq	sl, r7, r0, lsl #8
     590:	c8000500 	stmdagt	r0, {r8, sl}
     594:	0500005b 	streq	r0, [r0, #-91]	; 0xffffffa5
     598:	0024ca00 	eoreq	ip, r4, r0, lsl #20
     59c:	d9000500 	stmdble	r0, {r8, sl}
     5a0:	05000054 	streq	r0, [r0, #-84]	; 0xffffffac
     5a4:	00002f00 	andeq	r2, r0, r0, lsl #30
     5a8:	2f000500 	svccs	0x00000500
     5ac:	05000082 	streq	r0, [r0, #-130]	; 0xffffff7e
     5b0:	0049ad00 	subeq	sl, r9, r0, lsl #26
     5b4:	01000500 	tsteq	r0, r0, lsl #10
     5b8:	0500005f 	streq	r0, [r0, #-95]	; 0xffffffa1
     5bc:	00780400 	rsbseq	r0, r8, r0, lsl #8
     5c0:	1a000500 	bne	19c8 <_Min_Stack_Size+0x15c8>
     5c4:	05000043 	streq	r0, [r0, #-67]	; 0xffffffbd
     5c8:	00466d00 	subeq	r6, r6, r0, lsl #26
     5cc:	52000500 	andpl	r0, r0, #0, 10
     5d0:	05000064 	streq	r0, [r0, #-100]	; 0xffffff9c
     5d4:	00334600 	eorseq	r4, r3, r0, lsl #12
     5d8:	68000500 	stmdavs	r0, {r8, sl}
     5dc:	05000015 	streq	r0, [r0, #-21]	; 0xffffffeb
     5e0:	0041fa00 	subeq	pc, r1, r0, lsl #20
     5e4:	79000500 	stmdbvc	r0, {r8, sl}
     5e8:	05000063 	streq	r0, [r0, #-99]	; 0xffffff9d
     5ec:	000e5100 	andeq	r5, lr, r0, lsl #2
     5f0:	f8000500 			; <UNDEFINED> instruction: 0xf8000500
     5f4:	0500005d 	streq	r0, [r0, #-93]	; 0xffffffa3
     5f8:	0019f700 	andseq	pc, r9, r0, lsl #14
     5fc:	3e000500 	cfsh32cc	mvfx0, mvfx0, #0
     600:	0500000d 	streq	r0, [r0, #-13]
     604:	00078c00 	andeq	r8, r7, r0, lsl #24
     608:	8c000500 	cfstr32hi	mvfx0, [r0], {-0}
     60c:	05000076 	streq	r0, [r0, #-118]	; 0xffffff8a
     610:	00909c00 	addseq	r9, r0, r0, lsl #24
     614:	fd000500 	stc2	5, cr0, [r0, #-0]
     618:	05000006 	streq	r0, [r0, #-6]
     61c:	00538400 	subseq	r8, r3, r0, lsl #8
     620:	10000500 	andne	r0, r0, r0, lsl #10
     624:	05000042 	streq	r0, [r0, #-66]	; 0xffffffbe
     628:	00829900 	addeq	r9, r2, r0, lsl #18
     62c:	41000500 	tstmi	r0, r0, lsl #10
     630:	05000089 	streq	r0, [r0, #-137]	; 0xffffff77
     634:	0032ea00 	eorseq	lr, r2, r0, lsl #20
     638:	e9000500 	stmdb	r0, {r8, sl}
     63c:	05000089 	streq	r0, [r0, #-137]	; 0xffffff77
     640:	00881100 	addeq	r1, r8, r0, lsl #2
     644:	6e000500 	cfsh32vs	mvfx0, mvfx0, #0
     648:	05000079 	streq	r0, [r0, #-121]	; 0xffffff87
     64c:	000f5600 	andeq	r5, pc, r0, lsl #12
     650:	38000500 	stmdacc	r0, {r8, sl}
     654:	05000050 	streq	r0, [r0, #-80]	; 0xffffffb0
     658:	0018cf00 	andseq	ip, r8, r0, lsl #30
     65c:	8b000500 	blhi	1a64 <_Min_Stack_Size+0x1664>
     660:	05000003 	streq	r0, [r0, #-3]
     664:	000a7600 	andeq	r7, sl, r0, lsl #12
     668:	e1000500 	tst	r0, r0, lsl #10
     66c:	05000045 	streq	r0, [r0, #-69]	; 0xffffffbb
     670:	00507b00 	subseq	r7, r0, r0, lsl #22
     674:	b7000500 	strlt	r0, [r0, -r0, lsl #10]
     678:	05000080 	streq	r0, [r0, #-128]	; 0xffffff80
     67c:	00007300 	andeq	r7, r0, r0, lsl #6
     680:	be000500 	cfsh32lt	mvfx0, mvfx0, #0
     684:	05000056 	streq	r0, [r0, #-86]	; 0xffffffaa
     688:	00016700 	andeq	r6, r1, r0, lsl #14
     68c:	20000500 	andcs	r0, r0, r0, lsl #10
     690:	05000056 	streq	r0, [r0, #-86]	; 0xffffffaa
     694:	008d0800 	addeq	r0, sp, r0, lsl #16
     698:	e6000500 	str	r0, [r0], -r0, lsl #10
     69c:	05000069 	streq	r0, [r0, #-105]	; 0xffffff97
     6a0:	00724700 	rsbseq	r4, r2, r0, lsl #14
     6a4:	e4000500 	str	r0, [r0], #-1280	; 0xfffffb00
     6a8:	05000071 	streq	r0, [r0, #-113]	; 0xffffff8f
     6ac:	003b7000 	eorseq	r7, fp, r0
     6b0:	22000500 	andcs	r0, r0, #0, 10
     6b4:	05000034 	streq	r0, [r0, #-52]	; 0xffffffcc
     6b8:	00176800 	andseq	r6, r7, r0, lsl #16
     6bc:	c2000500 	andgt	r0, r0, #0, 10
     6c0:	0500006f 	streq	r0, [r0, #-111]	; 0xffffff91
     6c4:	005d9900 	subseq	r9, sp, r0, lsl #18
     6c8:	e0000500 	and	r0, r0, r0, lsl #10
     6cc:	0500004f 	streq	r0, [r0, #-79]	; 0xffffffb1
     6d0:	00180d00 	andseq	r0, r8, r0, lsl #26
     6d4:	32000500 	andcc	r0, r0, #0, 10
     6d8:	05000022 	streq	r0, [r0, #-34]	; 0xffffffde
     6dc:	00449b00 	subeq	r9, r4, r0, lsl #22
     6e0:	b5000500 	strlt	r0, [r0, #-1280]	; 0xfffffb00
     6e4:	05000015 	streq	r0, [r0, #-21]	; 0xffffffeb
     6e8:	0017b100 	andseq	fp, r7, r0, lsl #2
     6ec:	2c000500 	cfstr32cs	mvfx0, [r0], {-0}
     6f0:	05000006 	streq	r0, [r0, #-6]
     6f4:	0052dd00 	subseq	sp, r2, r0, lsl #26
     6f8:	eb000500 	bl	1b00 <_Min_Stack_Size+0x1700>
     6fc:	0500003d 	streq	r0, [r0, #-61]	; 0xffffffc3
     700:	0028bd00 	eoreq	fp, r8, r0, lsl #26
     704:	e2000500 	and	r0, r0, #0, 10
     708:	0500000f 	streq	r0, [r0, #-15]
     70c:	00430700 	subeq	r0, r3, r0, lsl #14
     710:	2c000500 	cfstr32cs	mvfx0, [r0], {-0}
     714:	0500002b 	streq	r0, [r0, #-43]	; 0xffffffd5
     718:	002bbe00 	eoreq	fp, fp, r0, lsl #28
     71c:	01000500 	tsteq	r0, r0, lsl #10
     720:	0500000e 	streq	r0, [r0, #-14]
     724:	00375000 	eorseq	r5, r7, r0
     728:	61000500 	tstvs	r0, r0, lsl #10
     72c:	0500001f 	streq	r0, [r0, #-31]	; 0xffffffe1
     730:	00660e00 	rsbeq	r0, r6, r0, lsl #28
     734:	7f000500 	svcvc	0x00000500
     738:	05000005 	streq	r0, [r0, #-5]
     73c:	0022ab00 	eoreq	sl, r2, r0, lsl #22
     740:	dd000500 	cfstr32le	mvfx0, [r0, #-0]
     744:	0500005d 	streq	r0, [r0, #-93]	; 0xffffffa3
     748:	00545200 	subseq	r5, r4, r0, lsl #4
     74c:	3f000500 	svccc	0x00000500
     750:	05000062 	streq	r0, [r0, #-98]	; 0xffffff9e
     754:	0029a600 	eoreq	sl, r9, r0, lsl #12
     758:	d8000500 	stmdale	r0, {r8, sl}
     75c:	05000051 	streq	r0, [r0, #-81]	; 0xffffffaf
     760:	0048ff00 	subeq	pc, r8, r0, lsl #30
     764:	28000500 	stmdacs	r0, {r8, sl}
     768:	05000051 	streq	r0, [r0, #-81]	; 0xffffffaf
     76c:	00627300 	rsbeq	r7, r2, r0, lsl #6
     770:	7a000500 	bvc	1b78 <_Min_Stack_Size+0x1778>
     774:	05000004 	streq	r0, [r0, #-4]
     778:	00594a00 	subseq	r4, r9, r0, lsl #20
     77c:	20000500 	andcs	r0, r0, r0, lsl #10
     780:	0500005c 	streq	r0, [r0, #-92]	; 0xffffffa4
     784:	000f1900 	andeq	r1, pc, r0, lsl #18
     788:	52000500 	andpl	r0, r0, #0, 10
     78c:	05000092 	streq	r0, [r0, #-146]	; 0xffffff6e
     790:	006c8500 	rsbeq	r8, ip, r0, lsl #10
     794:	eb000500 	bl	1b9c <_Min_Stack_Size+0x179c>
     798:	05000068 	streq	r0, [r0, #-104]	; 0xffffff98
     79c:	0076c300 	rsbseq	ip, r6, r0, lsl #6
     7a0:	2d000500 	cfstr32cs	mvfx0, [r0, #-0]
     7a4:	05000089 	streq	r0, [r0, #-137]	; 0xffffff77
     7a8:	00859700 	addeq	r9, r5, r0, lsl #14
     7ac:	14000500 	strne	r0, [r0], #-1280	; 0xfffffb00
     7b0:	05000013 	streq	r0, [r0, #-19]	; 0xffffffed
     7b4:	0074c400 	rsbseq	ip, r4, r0, lsl #8
     7b8:	d4000500 	strle	r0, [r0], #-1280	; 0xfffffb00
     7bc:	0500008c 	streq	r0, [r0, #-140]	; 0xffffff74
     7c0:	000c3100 	andeq	r3, ip, r0, lsl #2
     7c4:	15000500 	strne	r0, [r0, #-1280]	; 0xfffffb00
     7c8:	05000047 	streq	r0, [r0, #-71]	; 0xffffffb9
     7cc:	0084d000 	addeq	sp, r4, r0
     7d0:	3a000500 	bcc	1bd8 <_Min_Stack_Size+0x17d8>
     7d4:	0500001a 	streq	r0, [r0, #-26]	; 0xffffffe6
     7d8:	0081bd00 	addeq	fp, r1, r0, lsl #26
     7dc:	88000500 	stmdahi	r0, {r8, sl}
     7e0:	05000064 	streq	r0, [r0, #-100]	; 0xffffff9c
     7e4:	00685600 	rsbeq	r5, r8, r0, lsl #12
     7e8:	c9000500 	stmdbgt	r0, {r8, sl}
     7ec:	05000068 	streq	r0, [r0, #-104]	; 0xffffff98
     7f0:	0075da00 	rsbseq	sp, r5, r0, lsl #20
     7f4:	f9000500 			; <UNDEFINED> instruction: 0xf9000500
     7f8:	05000085 	streq	r0, [r0, #-133]	; 0xffffff7b
     7fc:	00327d00 	eorseq	r7, r2, r0, lsl #26
     800:	54000500 	strpl	r0, [r0], #-1280	; 0xfffffb00
     804:	05000056 	streq	r0, [r0, #-86]	; 0xffffffaa
     808:	00074a00 	andeq	r4, r7, r0, lsl #20
     80c:	0f000500 	svceq	0x00000500
     810:	05000006 	streq	r0, [r0, #-6]
     814:	00744800 	rsbseq	r4, r4, r0, lsl #16
     818:	ba000500 	blt	1c20 <_Min_Stack_Size+0x1820>
     81c:	05000016 	streq	r0, [r0, #-22]	; 0xffffffea
     820:	00787400 	rsbseq	r7, r8, r0, lsl #8
     824:	f4000500 	vst3.8	{d0,d2,d4}, [r0], r0
     828:	05000064 	streq	r0, [r0, #-100]	; 0xffffff9c
     82c:	003d2500 	eorseq	r2, sp, r0, lsl #10
     830:	30000500 	andcc	r0, r0, r0, lsl #10
     834:	05000087 	streq	r0, [r0, #-135]	; 0xffffff79
     838:	00487500 	subeq	r7, r8, r0, lsl #10
     83c:	ff000500 			; <UNDEFINED> instruction: 0xff000500
     840:	05000016 	streq	r0, [r0, #-22]	; 0xffffffea
     844:	00303600 	eorseq	r3, r0, r0, lsl #12
     848:	a8000500 	stmdage	r0, {r8, sl}
     84c:	05000045 	streq	r0, [r0, #-69]	; 0xffffffbb
     850:	0056ea00 	subseq	lr, r6, r0, lsl #20
     854:	6a000500 	bvs	1c5c <_Min_Stack_Size+0x185c>
     858:	05000020 	streq	r0, [r0, #-32]	; 0xffffffe0
     85c:	00122000 	andseq	r2, r2, r0
     860:	58000500 	stmdapl	r0, {r8, sl}
     864:	05000082 	streq	r0, [r0, #-130]	; 0xffffff7e
     868:	00694800 	rsbeq	r4, r9, r0, lsl #16
     86c:	71000500 	tstvc	r0, r0, lsl #10
     870:	0500004a 	streq	r0, [r0, #-74]	; 0xffffffb6
     874:	007e2700 	rsbseq	r2, lr, r0, lsl #14
     878:	81000500 	tsthi	r0, r0, lsl #10
     87c:	05000067 	streq	r0, [r0, #-103]	; 0xffffff99
     880:	00497000 	subeq	r7, r9, r0
     884:	ac000500 	cfstr32ge	mvfx0, [r0], {-0}
     888:	0500006b 	streq	r0, [r0, #-107]	; 0xffffff95
     88c:	00874b00 	addeq	r4, r7, r0, lsl #22
     890:	b4000500 	strlt	r0, [r0], #-1280	; 0xfffffb00
     894:	05000071 	streq	r0, [r0, #-113]	; 0xffffff8f
     898:	00405a00 	subeq	r5, r0, r0, lsl #20
     89c:	33000500 	movwcc	r0, #1280	; 0x500
     8a0:	05000002 	streq	r0, [r0, #-2]
     8a4:	00382900 	eorseq	r2, r8, r0, lsl #18
     8a8:	19000500 	stmdbne	r0, {r8, sl}
     8ac:	0500006a 	streq	r0, [r0, #-106]	; 0xffffff96
     8b0:	0025ce00 	eoreq	ip, r5, r0, lsl #28
     8b4:	d5000500 	strle	r0, [r0, #-1280]	; 0xfffffb00
     8b8:	05000056 	streq	r0, [r0, #-86]	; 0xffffffaa
     8bc:	00831b00 	addeq	r1, r3, r0, lsl #22
     8c0:	9a000500 	bls	1cc8 <_Min_Stack_Size+0x18c8>
     8c4:	05000005 	streq	r0, [r0, #-5]
     8c8:	002f4400 	eoreq	r4, pc, r0, lsl #8
     8cc:	db000500 	blle	1cd4 <_Min_Stack_Size+0x18d4>
     8d0:	05000088 	streq	r0, [r0, #-136]	; 0xffffff78
     8d4:	00710f00 	rsbseq	r0, r1, r0, lsl #30
     8d8:	b9000500 	stmdblt	r0, {r8, sl}
     8dc:	0500008a 	streq	r0, [r0, #-138]	; 0xffffff76
     8e0:	008eac00 	addeq	sl, lr, r0, lsl #24
     8e4:	8e000500 	cfsh32hi	mvfx0, mvfx0, #0
     8e8:	05000010 	streq	r0, [r0, #-16]
     8ec:	00067700 	andeq	r7, r6, r0, lsl #14
     8f0:	f3000500 	vrshl.u8	d0, d0, d0
     8f4:	05000067 	streq	r0, [r0, #-103]	; 0xffffff99
     8f8:	006cb400 	rsbeq	fp, ip, r0, lsl #8
     8fc:	a4000500 	strge	r0, [r0], #-1280	; 0xfffffb00
     900:	05000024 	streq	r0, [r0, #-36]	; 0xffffffdc
     904:	00037d00 	andeq	r7, r3, r0, lsl #26
     908:	6b000500 	blvs	1d10 <_Min_Stack_Size+0x1910>
     90c:	05000058 	streq	r0, [r0, #-88]	; 0xffffffa8
     910:	00492d00 	subeq	r2, r9, r0, lsl #26
     914:	11000500 	tstne	r0, r0, lsl #10
     918:	05000011 	streq	r0, [r0, #-17]	; 0xffffffef
     91c:	00687500 	rsbeq	r7, r8, r0, lsl #10
     920:	44000500 	strmi	r0, [r0], #-1280	; 0xfffffb00
     924:	05000010 	streq	r0, [r0, #-16]
     928:	00722700 	rsbseq	r2, r2, r0, lsl #14
     92c:	65000500 	strvs	r0, [r0, #-1280]	; 0xfffffb00
     930:	05000054 	streq	r0, [r0, #-84]	; 0xffffffac
     934:	0044ed00 	subeq	lr, r4, r0, lsl #26
     938:	08000500 	stmdaeq	r0, {r8, sl}
     93c:	0500006a 	streq	r0, [r0, #-106]	; 0xffffff96
     940:	006f8b00 	rsbeq	r8, pc, r0, lsl #22
     944:	8e000500 	cfsh32hi	mvfx0, mvfx0, #0
     948:	05000029 	streq	r0, [r0, #-41]	; 0xffffffd7
     94c:	00128100 	andseq	r8, r2, r0, lsl #2
     950:	a2000500 	andge	r0, r0, #0, 10
     954:	0500006f 	streq	r0, [r0, #-111]	; 0xffffff91
     958:	003e0900 	eorseq	r0, lr, r0, lsl #18
     95c:	55000500 	strpl	r0, [r0, #-1280]	; 0xfffffb00
     960:	0500002e 	streq	r0, [r0, #-46]	; 0xffffffd2
     964:	008d7000 	addeq	r7, sp, r0
     968:	c8000500 	stmdagt	r0, {r8, sl}
     96c:	05000033 	streq	r0, [r0, #-51]	; 0xffffffcd
     970:	005fd500 	subseq	sp, pc, r0, lsl #10
     974:	48000500 	stmdami	r0, {r8, sl}
     978:	05000000 	streq	r0, [r0, #-0]
     97c:	00372d00 	eorseq	r2, r7, r0, lsl #26
     980:	7b000500 	blvc	1d88 <_Min_Stack_Size+0x1988>
     984:	0500005b 	streq	r0, [r0, #-91]	; 0xffffffa5
     988:	00280b00 	eoreq	r0, r8, r0, lsl #22
     98c:	b3000500 	movwlt	r0, #1280	; 0x500
     990:	05000018 	streq	r0, [r0, #-24]	; 0xffffffe8
     994:	0079ef00 	rsbseq	lr, r9, r0, lsl #30
     998:	6a000500 	bvs	1da0 <_Min_Stack_Size+0x19a0>
     99c:	0500001e 	streq	r0, [r0, #-30]	; 0xffffffe2
     9a0:	00812400 	addeq	r2, r1, r0, lsl #8
     9a4:	77000500 	strvc	r0, [r0, -r0, lsl #10]
     9a8:	05000076 	streq	r0, [r0, #-118]	; 0xffffff8a
     9ac:	0038d700 	eorseq	sp, r8, r0, lsl #14
     9b0:	0a000500 	beq	1db8 <_Min_Stack_Size+0x19b8>
     9b4:	05000087 	streq	r0, [r0, #-135]	; 0xffffff79
     9b8:	007a6c00 	rsbseq	r6, sl, r0, lsl #24
     9bc:	03000500 	movweq	r0, #1280	; 0x500
     9c0:	05000001 	streq	r0, [r0, #-1]
     9c4:	000bb800 	andeq	fp, fp, r0, lsl #16
     9c8:	27000500 	strcs	r0, [r0, -r0, lsl #10]
     9cc:	05000028 	streq	r0, [r0, #-40]	; 0xffffffd8
     9d0:	00649a00 	rsbeq	r9, r4, r0, lsl #20
     9d4:	8e000500 	cfsh32hi	mvfx0, mvfx0, #0
     9d8:	0500004a 	streq	r0, [r0, #-74]	; 0xffffffb6
     9dc:	007f4f00 	rsbseq	r4, pc, r0, lsl #30
     9e0:	d3000500 	movwle	r0, #1280	; 0x500
     9e4:	05000043 	streq	r0, [r0, #-67]	; 0xffffffbd
     9e8:	001fe500 	andseq	lr, pc, r0, lsl #10
     9ec:	e2000500 	and	r0, r0, #0, 10
     9f0:	05000000 	streq	r0, [r0, #-0]
     9f4:	0030e900 	eorseq	lr, r0, r0, lsl #18
     9f8:	6b000500 	blvs	1e00 <_Min_Stack_Size+0x1a00>
     9fc:	05000073 	streq	r0, [r0, #-115]	; 0xffffff8d
     a00:	00495200 	subeq	r5, r9, r0, lsl #4
     a04:	bb000500 	bllt	1e0c <_Min_Stack_Size+0x1a0c>
     a08:	05000029 	streq	r0, [r0, #-41]	; 0xffffffd7
     a0c:	0032a600 	eorseq	sl, r2, r0, lsl #12
     a10:	35000500 	strcc	r0, [r0, #-1280]	; 0xfffffb00
     a14:	0500003a 	streq	r0, [r0, #-58]	; 0xffffffc6
     a18:	00646800 	rsbeq	r6, r4, r0, lsl #16
     a1c:	bb000500 	bllt	1e24 <_Min_Stack_Size+0x1a24>
     a20:	0500003d 	streq	r0, [r0, #-61]	; 0xffffffc3
     a24:	00360400 	eorseq	r0, r6, r0, lsl #8
     a28:	49000500 	stmdbmi	r0, {r8, sl}
     a2c:	05000065 	streq	r0, [r0, #-101]	; 0xffffff9b
     a30:	0081f600 	addeq	pc, r1, r0, lsl #12
     a34:	6a000500 	bvs	1e3c <_Min_Stack_Size+0x1a3c>
     a38:	06000059 			; <UNDEFINED> instruction: 0x06000059
     a3c:	004ee500 	subeq	lr, lr, r0, lsl #10
     a40:	56000500 	strpl	r0, [r0], -r0, lsl #10
     a44:	0500003a 	streq	r0, [r0, #-58]	; 0xffffffc6
     a48:	007db900 	rsbseq	fp, sp, r0, lsl #18
     a4c:	34000600 	strcc	r0, [r0], #-1536	; 0xfffffa00
     a50:	05000065 	streq	r0, [r0, #-101]	; 0xffffff9b
     a54:	00820a00 	addeq	r0, r2, r0, lsl #20
     a58:	b2000600 	andlt	r0, r0, #0, 12
     a5c:	06000060 	streq	r0, [r0], -r0, rrx
     a60:	00813400 	addeq	r3, r1, r0, lsl #8
     a64:	46000600 	strmi	r0, [r0], -r0, lsl #12
     a68:	06000084 	streq	r0, [r0], -r4, lsl #1
     a6c:	003a9200 	eorseq	r9, sl, r0, lsl #4
     a70:	51000500 	tstpl	r0, r0, lsl #10
     a74:	06000062 	streq	r0, [r0], -r2, rrx
     a78:	003e5d00 	eorseq	r5, lr, r0, lsl #26
     a7c:	21000600 	tstcs	r0, r0, lsl #12
     a80:	0600004a 	streq	r0, [r0], -sl, asr #32
     a84:	0057d600 	subseq	sp, r7, r0, lsl #12
     a88:	8a000500 	bhi	1e90 <_Min_Stack_Size+0x1a90>
     a8c:	0500008c 	streq	r0, [r0, #-140]	; 0xffffff74
     a90:	003a6b00 	eorseq	r6, sl, r0, lsl #22
     a94:	ae000600 	cfmadd32ge	mvax0, mvfx0, mvfx0, mvfx0
     a98:	06000072 			; <UNDEFINED> instruction: 0x06000072
     a9c:	008cf300 	addeq	pc, ip, r0, lsl #6
     aa0:	6b000500 	blvs	1ea8 <_Min_Stack_Size+0x1aa8>
     aa4:	0500005d 	streq	r0, [r0, #-93]	; 0xffffffa3
     aa8:	003b5900 	eorseq	r5, fp, r0, lsl #18
     aac:	f8000600 			; <UNDEFINED> instruction: 0xf8000600
     ab0:	05000050 	streq	r0, [r0, #-80]	; 0xffffffb0
     ab4:	00205400 	eoreq	r5, r0, r0, lsl #8
     ab8:	d3000500 	movwle	r0, #1280	; 0x500
     abc:	0600005d 			; <UNDEFINED> instruction: 0x0600005d
     ac0:	008bc800 	addeq	ip, fp, r0, lsl #16
     ac4:	d3000500 	movwle	r0, #1280	; 0x500
     ac8:	05000049 	streq	r0, [r0, #-73]	; 0xffffffb7
     acc:	00418100 	subeq	r8, r1, r0, lsl #2
     ad0:	34000500 	strcc	r0, [r0], #-1280	; 0xfffffb00
     ad4:	05000086 	streq	r0, [r0, #-134]	; 0xffffff7a
     ad8:	00895a00 	addeq	r5, r9, r0, lsl #20
     adc:	5c000500 	cfstr32pl	mvfx0, [r0], {-0}
     ae0:	05000084 	streq	r0, [r0, #-132]	; 0xffffff7c
     ae4:	0070cc00 	rsbseq	ip, r0, r0, lsl #24
     ae8:	2a000600 	bcs	22f0 <_Min_Stack_Size+0x1ef0>
     aec:	05000031 	streq	r0, [r0, #-49]	; 0xffffffcf
     af0:	0060e900 	rsbeq	lr, r0, r0, lsl #18
     af4:	1d000500 	cfstr32ne	mvfx0, [r0, #-0]
     af8:	05000071 	streq	r0, [r0, #-113]	; 0xffffff8f
     afc:	003f3900 	eorseq	r3, pc, r0, lsl #18
     b00:	9e000500 	cfsh32ls	mvfx0, mvfx0, #0
     b04:	06000031 			; <UNDEFINED> instruction: 0x06000031
     b08:	004e8100 	subeq	r8, lr, r0, lsl #2
     b0c:	9a000600 	bls	2314 <_Min_Stack_Size+0x1f14>
     b10:	0600003e 			; <UNDEFINED> instruction: 0x0600003e
     b14:	005e8500 	subseq	r8, lr, r0, lsl #10
     b18:	d5000600 	strle	r0, [r0, #-1536]	; 0xfffffa00
     b1c:	06000058 			; <UNDEFINED> instruction: 0x06000058
     b20:	00742300 	rsbseq	r2, r4, r0, lsl #6
     b24:	36000600 	strcc	r0, [r0], -r0, lsl #12
     b28:	0600001b 			; <UNDEFINED> instruction: 0x0600001b
     b2c:	00371600 	eorseq	r1, r7, r0, lsl #12
     b30:	36000600 	strcc	r0, [r0], -r0, lsl #12
     b34:	06000069 	streq	r0, [r0], -r9, rrx
     b38:	0019cc00 	andseq	ip, r9, r0, lsl #24
     b3c:	33000600 	movwcc	r0, #1536	; 0x600
     b40:	0600002c 	streq	r0, [r0], -ip, lsr #32
     b44:	0053af00 	subseq	sl, r3, r0, lsl #30
     b48:	78000500 	stmdavc	r0, {r8, sl}
     b4c:	05000010 	streq	r0, [r0, #-16]
     b50:	00185600 	andseq	r5, r8, r0, lsl #12
     b54:	54000500 	strpl	r0, [r0], #-1280	; 0xfffffb00
     b58:	05000034 	streq	r0, [r0, #-52]	; 0xffffffcc
     b5c:	00706500 	rsbseq	r6, r0, r0, lsl #10
     b60:	9c000600 	stcls	6, cr0, [r0], {-0}
     b64:	05000029 	streq	r0, [r0, #-41]	; 0xffffffd7
     b68:	00343c00 	eorseq	r3, r4, r0, lsl #24
     b6c:	b2000500 	andlt	r0, r0, #0, 10
     b70:	05000059 	streq	r0, [r0, #-89]	; 0xffffffa7
     b74:	0083f800 	addeq	pc, r3, r0, lsl #16
     b78:	58000600 	stmdapl	r0, {r9, sl}
     b7c:	0500007b 	streq	r0, [r0, #-123]	; 0xffffff85
     b80:	000cb800 	andeq	fp, ip, r0, lsl #16
     b84:	62000600 	andvs	r0, r0, #0, 12
     b88:	06000078 			; <UNDEFINED> instruction: 0x06000078
     b8c:	00936600 	addseq	r6, r3, r0, lsl #12
     b90:	04000600 	streq	r0, [r0], #-1536	; 0xfffffa00
     b94:	06000033 			; <UNDEFINED> instruction: 0x06000033
     b98:	00065200 	andeq	r5, r6, r0, lsl #4
     b9c:	8f000600 	svchi	0x00000600
     ba0:	06000041 	streq	r0, [r0], -r1, asr #32
     ba4:	006cc200 	rsbeq	ip, ip, r0, lsl #4
     ba8:	28000500 	stmdacs	r0, {r8, sl}
     bac:	05000041 	streq	r0, [r0, #-65]	; 0xffffffbf
     bb0:	0032ca00 	eorseq	ip, r2, r0, lsl #20
     bb4:	65000500 	strvs	r0, [r0, #-1280]	; 0xfffffb00
     bb8:	0500007d 	streq	r0, [r0, #-125]	; 0xffffff83
     bbc:	00602800 	rsbeq	r2, r0, r0, lsl #16
     bc0:	f2000500 	vrshl.s8	d0, d0, d0
     bc4:	0500008e 	streq	r0, [r0, #-142]	; 0xffffff72
     bc8:	0055df00 	subseq	sp, r5, r0, lsl #30
     bcc:	36000500 	strcc	r0, [r0], -r0, lsl #10
     bd0:	00000016 	andeq	r0, r0, r6, lsl r0
     bd4:	05000004 	streq	r0, [r0, #-4]
     bd8:	003d5509 	eorseq	r5, sp, r9, lsl #10
     bdc:	1a0c0500 	bne	301fe4 <_Min_Stack_Size+0x301be4>
     be0:	05000024 	streq	r0, [r0, #-36]	; 0xffffffdc
     be4:	0032d90d 	eorseq	sp, r2, sp, lsl #18
     be8:	00040000 	andeq	r0, r4, r0
     bec:	b24d0500 	sublt	r0, sp, #0, 10
     bf0:	0500005b 	streq	r0, [r0, #-91]	; 0xffffffa5
     bf4:	5a8403f0 	bpl	fe101bbc <_estack+0xde0ff3bc>
     bf8:	f3050000 	vhadd.u8	d0, d5, d0
     bfc:	00331e03 	eorseq	r1, r3, r3, lsl #28
     c00:	00040000 	andeq	r0, r4, r0
     c04:	3c040500 	cfstr32cc	mvfx0, [r4], {-0}
     c08:	05000049 	streq	r0, [r0, #-73]	; 0xffffffb7
     c0c:	008d2706 	addeq	r2, sp, r6, lsl #14
     c10:	41070500 	tstmi	r7, r0, lsl #10
     c14:	0500001e 	streq	r0, [r0, #-30]	; 0xffffffe2
     c18:	0055f708 	subseq	pc, r5, r8, lsl #14
     c1c:	3e090500 	cfsh32cc	mvfx0, mvfx9, #0
     c20:	00000066 	andeq	r0, r0, r6, rrx
     c24:	05000004 	streq	r0, [r0, #-4]
     c28:	00525822 	subseq	r5, r2, r2, lsr #16
     c2c:	5d250500 	cfstr32pl	mvfx0, [r5, #-0]
     c30:	05000086 	streq	r0, [r0, #-134]	; 0xffffff7a
     c34:	002e112b 	eoreq	r1, lr, fp, lsr #2
     c38:	73350500 	teqvc	r5, #0, 10
     c3c:	05000077 	streq	r0, [r0, #-119]	; 0xffffff89
     c40:	00498739 	subeq	r8, r9, r9, lsr r7
     c44:	1c3c0500 	cfldr32ne	mvfx0, [ip], #-0
     c48:	0500001f 	streq	r0, [r0, #-31]	; 0xffffffe1
     c4c:	0060c63f 	rsbeq	ip, r0, pc, lsr r6
     c50:	68420500 	stmdavs	r2, {r8, sl}^
     c54:	0500000c 	streq	r0, [r0, #-12]
     c58:	007b1051 	rsbseq	r1, fp, r1, asr r0
     c5c:	0e540500 	cdpeq	5, 5, cr0, cr4, cr0, {0}
     c60:	0500003d 	streq	r0, [r0, #-61]	; 0xffffffc3
     c64:	0090635c 	addseq	r6, r0, ip, asr r3
     c68:	705f0500 	subsvc	r0, pc, r0, lsl #10
     c6c:	0000007c 	andeq	r0, r0, ip, ror r0
     c70:	05000004 	streq	r0, [r0, #-4]
     c74:	00266916 	eoreq	r6, r6, r6, lsl r9
     c78:	e6210500 	strt	r0, [r1], -r0, lsl #10
     c7c:	05000014 	streq	r0, [r0, #-20]	; 0xffffffec
     c80:	0080f728 	addeq	pc, r0, r8, lsr #14
     c84:	01830600 	orreq	r0, r3, r0, lsl #12
     c88:	00008480 	andeq	r8, r0, r0, lsl #9
     c8c:	e8018405 	stmda	r1, {r0, r2, sl, pc}
     c90:	06000041 	streq	r0, [r0], -r1, asr #32
     c94:	3eee0188 	cdpcc	1, 14, cr0, cr14, cr8, {4}
     c98:	89050000 	stmdbhi	r5, {}	; <UNPREDICTABLE>
     c9c:	00868901 	addeq	r8, r6, r1, lsl #18
     ca0:	018a0600 	orreq	r0, sl, r0, lsl #12
     ca4:	00009188 	andeq	r9, r0, r8, lsl #3
     ca8:	5b018b05 	blpl	638c4 <_Min_Stack_Size+0x634c4>
     cac:	0600001b 			; <UNDEFINED> instruction: 0x0600001b
     cb0:	398b019e 	stmibcc	fp, {r1, r2, r3, r4, r7, r8}
     cb4:	9f050000 	svcls	0x00050000
     cb8:	00531b01 	subseq	r1, r3, r1, lsl #22
     cbc:	01f70500 	mvnseq	r0, r0, lsl #10
     cc0:	00005be3 	andeq	r5, r0, r3, ror #23
     cc4:	5301fd05 	movwpl	pc, #7429	; 0x1d05	; <UNPREDICTABLE>
     cc8:	05000051 	streq	r0, [r0, #-81]	; 0xffffffaf
     ccc:	68020285 	stmdavs	r2, {r0, r2, r7, r9}
     cd0:	8a050000 	bhi	140cd8 <_Min_Stack_Size+0x1408d8>
     cd4:	005e4a02 	subseq	r4, lr, r2, lsl #20
     cd8:	02950500 	addseq	r0, r5, #0, 10
     cdc:	00001e13 	andeq	r1, r0, r3, lsl lr
     ce0:	26029905 	strcs	r9, [r2], -r5, lsl #18
     ce4:	05000064 	streq	r0, [r0, #-100]	; 0xffffff9c
     ce8:	5425029f 	strtpl	r0, [r5], #-671	; 0xfffffd61
     cec:	af050000 	svcge	0x00050000
     cf0:	00005702 	andeq	r5, r0, r2, lsl #14
     cf4:	02bf0500 	adcseq	r0, pc, #0, 10
     cf8:	00008011 	andeq	r8, r0, r1, lsl r0
     cfc:	df02ca05 	svcle	0x0002ca05
     d00:	0000007f 	andeq	r0, r0, pc, ror r0
     d04:	05000004 	streq	r0, [r0, #-4]
     d08:	5d8701e0 	stfpls	f0, [r7, #896]	; 0x380
     d0c:	e6060000 	str	r0, [r6], -r0
     d10:	003f0501 	eorseq	r0, pc, r1, lsl #10
     d14:	01ea0500 	mvneq	r0, r0, lsl #10
     d18:	0000134f 	andeq	r1, r0, pc, asr #6
     d1c:	5701fa05 	strpl	pc, [r1, -r5, lsl #20]
     d20:	0500005a 	streq	r0, [r0, #-90]	; 0xffffffa6
     d24:	5b3d01fe 	blpl	f41524 <_Min_Stack_Size+0xf41124>
     d28:	85050000 	strhi	r0, [r5, #-0]
     d2c:	00232102 	eoreq	r2, r3, r2, lsl #2
     d30:	028b0500 	addeq	r0, fp, #0, 10
     d34:	00005ac2 	andeq	r5, r0, r2, asr #21
     d38:	0d029805 	stceq	8, cr9, [r2, #-20]	; 0xffffffec
     d3c:	00000083 	andeq	r0, r0, r3, lsl #1
     d40:	05000004 	streq	r0, [r0, #-4]
     d44:	005c3d1f 	subseq	r3, ip, pc, lsl sp
     d48:	b0200500 	eorlt	r0, r0, r0, lsl #10
     d4c:	0500002f 	streq	r0, [r0, #-47]	; 0xffffffd1
     d50:	0053bd21 	subseq	fp, r3, r1, lsr #26
     d54:	09250500 	stmdbeq	r5!, {r8, sl}
     d58:	05000003 	streq	r0, [r0, #-3]
     d5c:	007b302b 	rsbseq	r3, fp, fp, lsr #32
     d60:	da450500 	ble	1142168 <_Min_Stack_Size+0x1141d68>
     d64:	05000010 	streq	r0, [r0, #-16]
     d68:	00188a49 	andseq	r8, r8, r9, asr #20
     d6c:	a24a0500 	subge	r0, sl, #0, 10
     d70:	00000074 	andeq	r0, r0, r4, ror r0
     d74:	05000004 	streq	r0, [r0, #-4]
     d78:	00297f0d 	eoreq	r7, r9, sp, lsl #30
     d7c:	540e0500 	strpl	r0, [lr], #-1280	; 0xfffffb00
     d80:	05000028 	streq	r0, [r0, #-40]	; 0xffffffd8
     d84:	0041c40f 	subeq	ip, r1, pc, lsl #8
     d88:	00040000 	andeq	r0, r4, r0
     d8c:	01b50500 			; <UNDEFINED> instruction: 0x01b50500
     d90:	000018c3 	andeq	r1, r0, r3, asr #17
     d94:	1401b605 	strne	fp, [r1], #-1541	; 0xfffff9fb
     d98:	0500000d 	streq	r0, [r0, #-13]
     d9c:	849d01b7 	ldrhi	r0, [sp], #439	; 0x1b7
     da0:	b8050000 	stmdalt	r5, {}	; <UNPREDICTABLE>
     da4:	0015f801 	andseq	pc, r5, r1, lsl #16
     da8:	01b90500 			; <UNDEFINED> instruction: 0x01b90500
     dac:	00003f6d 	andeq	r3, r0, sp, ror #30
     db0:	2101ba05 	tstcs	r1, r5, lsl #20
     db4:	05000010 	streq	r0, [r0, #-16]
     db8:	62e901bb 	rscvs	r0, r9, #-1073741778	; 0xc000002e
     dbc:	bc050000 	stclt	0, cr0, [r5], {-0}
     dc0:	006dea01 	rsbeq	lr, sp, r1, lsl #20
     dc4:	01bd0500 			; <UNDEFINED> instruction: 0x01bd0500
     dc8:	00006de6 	andeq	r6, r0, r6, ror #27
     dcc:	c801be05 	stmdagt	r1, {r0, r2, r9, sl, fp, ip, sp, pc}
     dd0:	05000021 	streq	r0, [r0, #-33]	; 0xffffffdf
     dd4:	67e201bf 			; <UNDEFINED> instruction: 0x67e201bf
     dd8:	c0050000 	andgt	r0, r5, r0
     ddc:	0021c401 	eoreq	ip, r1, r1, lsl #8
     de0:	01c10500 	biceq	r0, r1, r0, lsl #10
     de4:	00001b02 	andeq	r1, r0, r2, lsl #22
     de8:	fc01c205 	stc2	2, cr12, [r1], {5}
     dec:	05000021 	streq	r0, [r0, #-33]	; 0xffffffdf
     df0:	849901c3 	ldrhi	r0, [r9], #451	; 0x1c3
     df4:	c4050000 	strgt	r0, [r5], #-0
     df8:	00561701 	subseq	r1, r6, r1, lsl #14
     dfc:	01cb0500 	biceq	r0, fp, r0, lsl #10
     e00:	00000f72 	andeq	r0, r0, r2, ror pc
     e04:	9f01e706 	svcls	0x0001e706
     e08:	05000049 	streq	r0, [r0, #-73]	; 0xffffffb7
     e0c:	4aac0284 	bmi	feb01824 <_estack+0xdeaff024>
     e10:	85050000 	strhi	r0, [r5, #-0]
     e14:	00598b02 	subseq	r8, r9, r2, lsl #22
     e18:	02860500 	addeq	r0, r6, #0, 10
     e1c:	00005a10 	andeq	r5, r0, r0, lsl sl
     e20:	e9028705 	stmdb	r2, {r0, r2, r8, r9, sl, pc}
     e24:	05000084 	streq	r0, [r0, #-132]	; 0xffffff7c
     e28:	153a0288 	ldrne	r0, [sl, #-648]!	; 0xfffffd78
     e2c:	89050000 	stmdbhi	r5, {}	; <UNPREDICTABLE>
     e30:	00504f02 	subseq	r4, r0, r2, lsl #30
     e34:	028a0500 	addeq	r0, sl, #0, 10
     e38:	0000359f 	muleq	r0, pc, r5	; <UNPREDICTABLE>
     e3c:	9b028b05 	blls	a3a58 <_Min_Stack_Size+0xa3658>
     e40:	05000035 	streq	r0, [r0, #-53]	; 0xffffffcb
     e44:	8edf028c 	cdphi	2, 13, cr0, cr15, cr12, {4}
     e48:	8d050000 	stchi	0, cr0, [r5, #-0]
     e4c:	006b9a02 	rsbeq	r9, fp, r2, lsl #20
     e50:	028e0500 	addeq	r0, lr, #0, 10
     e54:	00006fb6 			; <UNDEFINED> instruction: 0x00006fb6
     e58:	b8028f05 	stmdalt	r2, {r0, r2, r8, r9, sl, fp, pc}
     e5c:	0500000f 	streq	r0, [r0, #-15]
     e60:	6fb10290 	svcvs	0x00b10290
     e64:	91050000 	mrsls	r0, (UNDEF: 5)
     e68:	005a0c02 	subseq	r0, sl, r2, lsl #24
     e6c:	02920500 	addseq	r0, r2, #0, 10
     e70:	0000570d 	andeq	r5, r0, sp, lsl #14
     e74:	73029f06 	movwvc	r9, #12038	; 0x2f06
     e78:	06000085 	streq	r0, [r0], -r5, lsl #1
     e7c:	0e4202d4 	mcreq	2, 2, r0, cr2, cr4, {6}
     e80:	86060000 	strhi	r0, [r6], -r0
     e84:	00385a03 	eorseq	r5, r8, r3, lsl #20
     e88:	038b0500 	orreq	r0, fp, #0, 10
     e8c:	0000376e 	andeq	r3, r0, lr, ror #14
     e90:	53039106 	movwpl	r9, #12550	; 0x3106
     e94:	00000038 	andeq	r0, r0, r8, lsr r0
     e98:	05000004 	streq	r0, [r0, #-4]
     e9c:	00472e27 	subeq	r2, r7, r7, lsr #28
     ea0:	85280500 	strhi	r0, [r8, #-1280]!	; 0xfffffb00
     ea4:	05000062 	streq	r0, [r0, #-98]	; 0xffffff9e
     ea8:	0047292a 	subeq	r2, r7, sl, lsr #18
     eac:	01830500 	orreq	r0, r3, r0, lsl #10
     eb0:	00005f8c 	andeq	r5, r0, ip, lsl #31
     eb4:	60018405 	andvs	r8, r1, r5, lsl #8
     eb8:	05000046 	streq	r0, [r0, #-70]	; 0xffffffba
     ebc:	585f0185 	ldmdapl	pc, {r0, r2, r7, r8}^	; <UNPREDICTABLE>
     ec0:	86050000 	strhi	r0, [r5], -r0
     ec4:	00686801 	rsbeq	r6, r8, r1, lsl #16
     ec8:	01870500 	orreq	r0, r7, r0, lsl #10
     ecc:	00000ef2 	strdeq	r0, [r0], -r2
     ed0:	ee018805 	cdp	8, 0, cr8, cr1, cr5, {0}
     ed4:	0500000e 	streq	r0, [r0, #-14]
     ed8:	1aee0189 	bne	ffb81504 <_estack+0xdfb7ed04>
     edc:	8a050000 	bhi	140ee4 <_Min_Stack_Size+0x140ae4>
     ee0:	005f8801 	subseq	r8, pc, r1, lsl #16
     ee4:	018b0500 	orreq	r0, fp, r0, lsl #10
     ee8:	00005b66 	andeq	r5, r0, r6, ror #22
     eec:	91019b06 	tstls	r1, r6, lsl #22
     ef0:	0600007d 			; <UNDEFINED> instruction: 0x0600007d
     ef4:	499f01e7 	ldmibmi	pc, {r0, r1, r2, r5, r6, r7, r8}	; <UNPREDICTABLE>
     ef8:	d4060000 	strle	r0, [r6], #-0
     efc:	000e4202 	andeq	r4, lr, r2, lsl #4
     f00:	03860600 	orreq	r0, r6, #0, 12
     f04:	0000385a 	andeq	r3, r0, sl, asr r8
     f08:	6e038b05 	vmlavs.f64	d8, d3, d5
     f0c:	06000037 			; <UNDEFINED> instruction: 0x06000037
     f10:	38530391 	ldmdacc	r3, {r0, r4, r7, r8, r9}^
     f14:	96050000 	strls	r0, [r5], -r0
     f18:	00426c03 	subeq	r6, r2, r3, lsl #24
     f1c:	039b0500 	orrseq	r0, fp, #0, 10
     f20:	00007405 	andeq	r7, r0, r5, lsl #8
     f24:	00000400 	andeq	r0, r0, r0, lsl #8
     f28:	83341405 	teqhi	r4, #83886080	; 0x5000000
     f2c:	16050000 	strne	r0, [r5], -r0
     f30:	0000297f 	andeq	r2, r0, pc, ror r9
     f34:	87211705 	strhi	r1, [r1, -r5, lsl #14]!
     f38:	04000000 	streq	r0, [r0], #-0
     f3c:	9b060000 	blls	180f44 <_Min_Stack_Size+0x180b44>
     f40:	007d9101 	rsbseq	r9, sp, r1, lsl #2
     f44:	01e70600 	mvneq	r0, r0, lsl #12
     f48:	0000499f 	muleq	r0, pc, r9	; <UNPREDICTABLE>
     f4c:	4202d406 	andmi	sp, r2, #100663296	; 0x6000000
     f50:	0500000e 	streq	r0, [r0, #-14]
     f54:	290202d9 	stmdbcs	r2, {r0, r3, r4, r6, r7, r9}
     f58:	e0060000 	and	r0, r6, r0
     f5c:	00238602 	eoreq	r8, r3, r2, lsl #12
     f60:	03860600 	orreq	r0, r6, #0, 12
     f64:	0000385a 	andeq	r3, r0, sl, asr r8
     f68:	6e038b05 	vmlavs.f64	d8, d3, d5
     f6c:	06000037 			; <UNDEFINED> instruction: 0x06000037
     f70:	38530391 	ldmdacc	r3, {r0, r4, r7, r8, r9}^
     f74:	96050000 	strls	r0, [r5], -r0
     f78:	00426c03 	subeq	r6, r2, r3, lsl #24
     f7c:	00040000 	andeq	r0, r4, r0
     f80:	55060500 	strpl	r0, [r6, #-1280]	; 0xfffffb00
     f84:	0500005f 	streq	r0, [r0, #-95]	; 0xffffffa1
     f88:	0053480f 	subseq	r4, r3, pc, lsl #16
     f8c:	6d1a0500 	cfldr32vs	mvfx0, [sl, #-0]
     f90:	0500006a 	streq	r0, [r0, #-106]	; 0xffffff96
     f94:	007dcd21 	rsbseq	ip, sp, r1, lsr #26
     f98:	d72f0500 	strle	r0, [pc, -r0, lsl #10]!
     f9c:	0500003d 	streq	r0, [r0, #-61]	; 0xffffffc3
     fa0:	0070363d 	rsbseq	r3, r0, sp, lsr r6
     fa4:	a4530500 	ldrbge	r0, [r3], #-1280	; 0xfffffb00
     fa8:	05000050 	streq	r0, [r0, #-80]	; 0xffffffb0
     fac:	00643d6d 	rsbeq	r3, r4, sp, ror #26
     fb0:	018c0500 	orreq	r0, ip, r0, lsl #10
     fb4:	00005998 	muleq	r0, r8, r9
     fb8:	3b01a605 	blcc	6a7d4 <_Min_Stack_Size+0x6a3d4>
     fbc:	05000018 	streq	r0, [r0, #-24]	; 0xffffffe8
     fc0:	380e01bc 	stmdacc	lr, {r2, r3, r4, r5, r7, r8}
     fc4:	ce050000 	cdpgt	0, 0, cr0, cr5, cr0, {0}
     fc8:	0051f401 	subseq	pc, r1, r1, lsl #8
     fcc:	01f40600 	mvnseq	r0, r0, lsl #12
     fd0:	00006437 	andeq	r6, r0, r7, lsr r4
     fd4:	00000400 	andeq	r0, r0, r0, lsl #8
     fd8:	66a67f06 	strtvs	r7, [r6], r6, lsl #30
     fdc:	92050000 	andls	r0, r5, #0
     fe0:	003afb01 	eorseq	pc, sl, r1, lsl #22
     fe4:	01940600 	orrseq	r0, r4, r0, lsl #12
     fe8:	000078cf 	andeq	r7, r0, pc, asr #17
     fec:	1e01b305 	cdpne	3, 0, cr11, cr1, cr5, {0}
     ff0:	0500001d 	streq	r0, [r0, #-29]	; 0xffffffe3
     ff4:	1d3601bb 	ldfnes	f0, [r6, #-748]!	; 0xfffffd14
     ff8:	c0050000 	andgt	r0, r5, r0
     ffc:	006f7101 	rsbeq	r7, pc, r1, lsl #2
    1000:	01c50500 	biceq	r0, r5, r0, lsl #10
    1004:	000081de 	ldrdeq	r8, [r0], -lr
    1008:	00000400 	andeq	r0, r0, r0, lsl #8
    100c:	7d251105 	stfvcs	f1, [r5, #-20]!	; 0xffffffec
    1010:	15050000 	strne	r0, [r5, #-0]
    1014:	00007417 	andeq	r7, r0, r7, lsl r4
    1018:	00000400 	andeq	r0, r0, r0, lsl #8
    101c:	92bf0205 	adcsls	r0, pc, #1342177280	; 0x50000000
    1020:	23050000 	movwcs	r0, #20480	; 0x5000
    1024:	00001ed6 	ldrdeq	r1, [r0], -r6
    1028:	028a2505 	addeq	r2, sl, #20971520	; 0x1400000
    102c:	27050000 	strcs	r0, [r5, -r0]
    1030:	0000717a 	andeq	r7, r0, sl, ror r1
    1034:	17122a05 	ldrne	r2, [r2, -r5, lsl #20]
    1038:	2c050000 	stccs	0, cr0, [r5], {-0}
    103c:	00008e2a 	andeq	r8, r0, sl, lsr #28
    1040:	8a8a2e05 	bhi	fe28c85c <_estack+0xde28a05c>
    1044:	30050000 	andcc	r0, r5, r0
    1048:	0000406e 	andeq	r4, r0, lr, rrx
    104c:	66563205 	ldrbvs	r3, [r6], -r5, lsl #4
    1050:	34050000 	strcc	r0, [r5], #-0
    1054:	00002c9e 	muleq	r0, lr, ip
    1058:	6acd3605 	bvs	ff34e874 <_estack+0xdf34c074>
    105c:	38050000 	stmdacc	r5, {}	; <UNPREDICTABLE>
    1060:	00002da9 	andeq	r2, r0, r9, lsr #27
    1064:	16cc3b05 	strbne	r3, [ip], r5, lsl #22
    1068:	3d050000 	stccc	0, cr0, [r5, #-0]
    106c:	000020f0 	strdeq	r2, [r0], -r0
    1070:	00000400 	andeq	r0, r0, r0, lsl #8
    1074:	6d114d05 	ldcvs	13, cr4, [r1, #-20]	; 0xffffffec
    1078:	60050000 	andvs	r0, r5, r0
    107c:	00008343 	andeq	r8, r0, r3, asr #6
    1080:	80e36d05 	rschi	r6, r3, r5, lsl #26
    1084:	af050000 	svcge	0x00050000
    1088:	008fe701 	addeq	lr, pc, r1, lsl #14
    108c:	02bd0500 	adcseq	r0, sp, #0, 10
    1090:	000073a9 	andeq	r7, r0, r9, lsr #7
    1094:	d502be05 	strle	fp, [r2, #-3589]	; 0xfffff1fb
    1098:	05000044 	streq	r0, [r0, #-68]	; 0xffffffbc
    109c:	203c02bf 	ldrhtcs	r0, [ip], -pc
    10a0:	c0050000 	andgt	r0, r5, r0
    10a4:	007bc502 	rsbseq	ip, fp, r2, lsl #10
    10a8:	02c10500 	sbceq	r0, r1, #0, 10
    10ac:	000072cb 	andeq	r7, r0, fp, asr #5
    10b0:	be02c205 	cdplt	2, 0, cr12, cr2, cr5, {0}
    10b4:	05000057 	streq	r0, [r0, #-87]	; 0xffffffa9
    10b8:	8c5c02c3 	lfmhi	f0, 2, [ip], {195}	; 0xc3
    10bc:	cf050000 	svcgt	0x00050000
    10c0:	00114702 	andseq	r4, r1, r2, lsl #14
    10c4:	02d00500 	sbcseq	r0, r0, #0, 10
    10c8:	00009105 	andeq	r9, r0, r5, lsl #2
    10cc:	ed02d105 	stfd	f5, [r2, #-20]	; 0xffffffec
    10d0:	05000003 	streq	r0, [r0, #-3]
    10d4:	5c7503d3 	ldclpl	3, cr0, [r5], #-844	; 0xfffffcb4
    10d8:	ed050000 	stc	0, cr0, [r5, #-0]
    10dc:	007e8003 	rsbseq	r8, lr, r3
    10e0:	00040000 	andeq	r0, r4, r0
    10e4:	730b0600 	movwvc	r0, #46592	; 0xb600
    10e8:	05000071 	streq	r0, [r0, #-113]	; 0xffffff8f
    10ec:	0046bd10 	subeq	fp, r6, r0, lsl sp
    10f0:	b31a0500 	tstlt	sl, #0, 10
    10f4:	05000051 	streq	r0, [r0, #-81]	; 0xffffffaf
    10f8:	00715d2d 	rsbseq	r5, r1, sp, lsr #26
    10fc:	00040000 	andeq	r0, r4, r0
    1100:	03f80500 	mvnseq	r0, #0, 10
    1104:	00006047 	andeq	r6, r0, r7, asr #32
    1108:	31048205 	tstcc	r4, r5, lsl #4
    110c:	05000014 	streq	r0, [r0, #-20]	; 0xffffffec
    1110:	0d98048b 	cfldrseq	mvf0, [r8, #556]	; 0x22c
    1114:	8f050000 	svchi	0x00050000
    1118:	0034c704 	eorseq	ip, r4, r4, lsl #14
    111c:	04940500 	ldreq	r0, [r4], #1280	; 0x500
    1120:	000007bd 			; <UNDEFINED> instruction: 0x000007bd
    1124:	fb049f05 	blx	128d42 <_Min_Stack_Size+0x128942>
    1128:	0500007b 	streq	r0, [r0, #-123]	; 0xffffff85
    112c:	4f0b04a2 	svcmi	0x000b04a2
    1130:	a8050000 	stmdage	r5, {}	; <UNPREDICTABLE>
    1134:	00527504 	subseq	r7, r2, r4, lsl #10
    1138:	04ab0500 	strteq	r0, [fp], #1280	; 0x500
    113c:	00004e8a 	andeq	r4, r0, sl, lsl #29
    1140:	b904ae05 	stmdblt	r4, {r0, r2, r9, sl, fp, sp, pc}
    1144:	0500004a 	streq	r0, [r0, #-74]	; 0xffffffb6
    1148:	57ea04c4 	strbpl	r0, [sl, r4, asr #9]!
    114c:	c7050000 	strgt	r0, [r5, -r0]
    1150:	00042004 	andeq	r2, r4, r4
    1154:	04ca0500 	strbeq	r0, [sl], #1280	; 0x500
    1158:	00002757 	andeq	r2, r0, r7, asr r7
    115c:	4904cb05 	stmdbmi	r4, {r0, r2, r8, r9, fp, lr, pc}
    1160:	0500006c 	streq	r0, [r0, #-108]	; 0xffffff94
    1164:	1de604cc 	cfstrdne	mvd0, [r6, #816]!	; 0x330
    1168:	cd050000 	stcgt	0, cr0, [r5, #-0]
    116c:	00500b04 	subseq	r0, r0, r4, lsl #22
    1170:	04ce0500 	strbeq	r0, [lr], #1280	; 0x500
    1174:	000001e9 	andeq	r0, r0, r9, ror #3
    1178:	d504cf05 	strle	ip, [r4, #-3845]	; 0xfffff0fb
    117c:	05000087 	streq	r0, [r0, #-135]	; 0xffffff79
    1180:	1cc104d0 	cfstrdne	mvd0, [r1], {208}	; 0xd0
    1184:	d1050000 	mrsle	r0, (UNDEF: 5)
    1188:	0035de04 	eorseq	sp, r5, r4, lsl #28
    118c:	04d20500 	ldrbeq	r0, [r2], #1280	; 0x500
    1190:	00006f1d 	andeq	r6, r0, sp, lsl pc
    1194:	3204d305 	andcc	sp, r4, #335544320	; 0x14000000
    1198:	05000046 	streq	r0, [r0, #-70]	; 0xffffffba
    119c:	3f4604d4 	svccc	0x004604d4
    11a0:	d5050000 	strle	r0, [r5, #-0]
    11a4:	002c3e04 	eoreq	r3, ip, r4, lsl #28
    11a8:	04d60500 	ldrbeq	r0, [r6], #1280	; 0x500
    11ac:	0000194f 	andeq	r1, r0, pc, asr #18
    11b0:	d504d705 	strle	sp, [r4, #-1797]	; 0xfffff8fb
    11b4:	05000086 	streq	r0, [r0, #-134]	; 0xffffff7a
    11b8:	304b04d8 	ldrdcc	r0, [fp], #-72	; 0xffffffb8
    11bc:	d9050000 	stmdble	r5, {}	; <UNPREDICTABLE>
    11c0:	005e1304 	subseq	r1, lr, r4, lsl #6
    11c4:	04da0500 	ldrbeq	r0, [sl], #1280	; 0x500
    11c8:	000054f1 	strdeq	r5, [r0], -r1
    11cc:	cd04db05 	vstrgt	d13, [r4, #-20]	; 0xffffffec
    11d0:	05000012 	streq	r0, [r0, #-18]	; 0xffffffee
    11d4:	3eb104dc 	mrccc	4, 5, r0, cr1, cr12, {6}
    11d8:	dd050000 	stcle	0, cr0, [r5, #-0]
    11dc:	00479804 	subeq	r9, r7, r4, lsl #16
    11e0:	04de0500 	ldrbeq	r0, [lr], #1280	; 0x500
    11e4:	00000aca 	andeq	r0, r0, sl, asr #21
    11e8:	1204df05 	andne	sp, r4, #5, 30
    11ec:	05000077 	streq	r0, [r0, #-119]	; 0xffffff89
    11f0:	672e04e0 	strvs	r0, [lr, -r0, ror #9]!
    11f4:	e1050000 	mrs	r0, (UNDEF: 5)
    11f8:	002b5e04 	eoreq	r5, fp, r4, lsl #28
    11fc:	06a00500 	strteq	r0, [r0], r0, lsl #10
    1200:	000061ca 	andeq	r6, r0, sl, asr #3
    1204:	0306a805 	movweq	sl, #26629	; 0x6805
    1208:	05000004 	streq	r0, [r0, #-4]
    120c:	7b7606b0 	blvc	1d82cd4 <_Min_Stack_Size+0x1d828d4>
    1210:	c0050000 	andgt	r0, r5, r0
    1214:	002ce506 	eoreq	lr, ip, r6, lsl #10
    1218:	06c30500 	strbeq	r0, [r3], r0, lsl #10
    121c:	00007e06 	andeq	r7, r0, r6, lsl #28
    1220:	fc06c705 	stc2	7, cr12, [r6], {5}
    1224:	00000044 	andeq	r0, r0, r4, asr #32
    1228:	05000004 	streq	r0, [r0, #-4]
    122c:	00229a31 	eoreq	r9, r2, r1, lsr sl
    1230:	21320500 	teqcs	r2, r0, lsl #10
    1234:	05000067 	streq	r0, [r0, #-103]	; 0xffffff99
    1238:	00526c33 	subseq	r6, r2, r3, lsr ip
    123c:	74360500 	ldrtvc	r0, [r6], #-1280	; 0xfffffb00
    1240:	05000070 	streq	r0, [r0, #-112]	; 0xffffff90
    1244:	001f0d39 	andseq	r0, pc, r9, lsr sp	; <UNPREDICTABLE>
    1248:	a03a0500 	eorsge	r0, sl, r0, lsl #10
    124c:	05000088 	streq	r0, [r0, #-136]	; 0xffffff78
    1250:	003f983c 	eorseq	r9, pc, ip, lsr r8	; <UNPREDICTABLE>
    1254:	d53d0500 	ldrle	r0, [sp, #-1280]!	; 0xfffffb00
    1258:	05000030 	streq	r0, [r0, #-48]	; 0xffffffd0
    125c:	0021a13e 	eoreq	sl, r1, lr, lsr r1
    1260:	3b3f0500 	blcc	fc2668 <_Min_Stack_Size+0xfc2268>
    1264:	0500007e 	streq	r0, [r0, #-126]	; 0xffffff82
    1268:	000f7c42 	andeq	r7, pc, r2, asr #24
    126c:	29430500 	stmdbcs	r3, {r8, sl}^
    1270:	0500000b 	streq	r0, [r0, #-11]
    1274:	00749644 	rsbseq	r9, r4, r4, asr #12
    1278:	024e0500 	subeq	r0, lr, #0, 10
    127c:	05000012 	streq	r0, [r0, #-18]	; 0xffffffee
    1280:	002cf851 	eoreq	pc, ip, r1, asr r8	; <UNPREDICTABLE>
    1284:	495e0500 	ldmdbmi	lr, {r8, sl}^
    1288:	05000041 	streq	r0, [r0, #-65]	; 0xffffffbf
    128c:	0077f75f 	rsbseq	pc, r7, pc, asr r7	; <UNPREDICTABLE>
    1290:	476b0500 	strbmi	r0, [fp, -r0, lsl #10]!
    1294:	05000082 	streq	r0, [r0, #-130]	; 0xffffff7e
    1298:	00460f6c 	subeq	r0, r6, ip, ror #30
    129c:	fb700500 	blx	1c026a6 <_Min_Stack_Size+0x1c022a6>
    12a0:	05000004 	streq	r0, [r0, #-4]
    12a4:	00794671 	rsbseq	r4, r9, r1, ror r6
    12a8:	00720500 	rsbseq	r0, r2, r0, lsl #10
    12ac:	05000000 	streq	r0, [r0, #-0]
    12b0:	002c6875 	eoreq	r6, ip, r5, ror r8
    12b4:	11780500 	cmnne	r8, r0, lsl #10
    12b8:	05000014 	streq	r0, [r0, #-20]	; 0xffffffec
    12bc:	00316b7f 	eorseq	r6, r1, pc, ror fp
    12c0:	01800500 	orreq	r0, r0, r0, lsl #10
    12c4:	00007ff5 	strdeq	r7, [r0], -r5
    12c8:	bd018105 	stfltd	f0, [r1, #-20]	; 0xffffffec
    12cc:	05000083 	streq	r0, [r0, #-131]	; 0xffffff7d
    12d0:	65150185 	ldrvs	r0, [r5, #-389]	; 0xfffffe7b
    12d4:	8c050000 	stchi	0, cr0, [r5], {-0}
    12d8:	008a5101 	addeq	r5, sl, r1, lsl #2
    12dc:	01900500 	orrseq	r0, r0, r0, lsl #10
    12e0:	00005f98 	muleq	r0, r8, pc	; <UNPREDICTABLE>
    12e4:	64019105 	strvs	r9, [r1], #-261	; 0xfffffefb
    12e8:	05000022 	streq	r0, [r0, #-34]	; 0xffffffde
    12ec:	54a90194 	strtpl	r0, [r9], #404	; 0x194
    12f0:	97050000 	strls	r0, [r5, -r0]
    12f4:	0000a301 	andeq	sl, r0, r1, lsl #6
    12f8:	01980500 	orrseq	r0, r8, r0, lsl #10
    12fc:	00002df8 	strdeq	r2, [r0], -r8
    1300:	d4019905 	strle	r9, [r1], #-2309	; 0xfffff6fb
    1304:	05000079 	streq	r0, [r0, #-121]	; 0xffffff87
    1308:	45c8019b 	strbmi	r0, [r8, #411]	; 0x19b
    130c:	9c050000 	stcls	0, cr0, [r5], {-0}
    1310:	0084a601 	addeq	sl, r4, r1, lsl #12
    1314:	019e0500 	orrseq	r0, lr, r0, lsl #10
    1318:	000085aa 	andeq	r8, r0, sl, lsr #11
    131c:	7301a005 	movwvc	sl, #4101	; 0x1005
    1320:	0500001b 	streq	r0, [r0, #-27]	; 0xffffffe5
    1324:	1bdc01b1 	blne	ff7019f0 <_estack+0xdf6ff1f0>
    1328:	b2050000 	andlt	r0, r5, #0
    132c:	000ffe01 	andeq	pc, pc, r1, lsl #28
    1330:	01b30500 			; <UNDEFINED> instruction: 0x01b30500
    1334:	000004de 	ldrdeq	r0, [r0], -lr
    1338:	b501b405 	strlt	fp, [r1, #-1029]	; 0xfffffbfb
    133c:	05000061 	streq	r0, [r0, #-97]	; 0xffffff9f
    1340:	30bc01b5 	ldrhtcc	r0, [ip], r5
    1344:	b7050000 	strlt	r0, [r5, -r0]
    1348:	0074ee01 	rsbseq	lr, r4, r1, lsl #28
    134c:	01b80500 			; <UNDEFINED> instruction: 0x01b80500
    1350:	000069f8 	strdeq	r6, [r0], -r8
    1354:	8b01b905 	blhi	6f770 <_Min_Stack_Size+0x6f370>
    1358:	0500005b 	streq	r0, [r0, #-91]	; 0xffffffa5
    135c:	011701e6 	tsteq	r7, r6, ror #3
    1360:	f3050000 	vhadd.u8	d0, d5, d0
    1364:	0063cd01 	rsbeq	ip, r3, r1, lsl #26
    1368:	01f40500 	mvnseq	r0, r0, lsl #10
    136c:	000043b0 			; <UNDEFINED> instruction: 0x000043b0
    1370:	8e01f505 	cfsh32hi	mvfx15, mvfx1, #5
    1374:	05000051 	streq	r0, [r0, #-81]	; 0xffffffaf
    1378:	2bd501f6 	blcs	ff541b58 <_estack+0xdf53f358>
    137c:	f7050000 			; <UNDEFINED> instruction: 0xf7050000
    1380:	008eba01 	addeq	fp, lr, r1, lsl #20
    1384:	01f80500 	mvnseq	r0, r0, lsl #10
    1388:	00000a05 	andeq	r0, r0, r5, lsl #20
    138c:	3f01f905 	svccc	0x0001f905
    1390:	05000042 	streq	r0, [r0, #-66]	; 0xffffffbe
    1394:	47d101fc 			; <UNDEFINED> instruction: 0x47d101fc
    1398:	fd050000 	stc2	0, cr0, [r5, #-0]
    139c:	00242901 	eoreq	r2, r4, r1, lsl #18
    13a0:	02830500 	addeq	r0, r3, #0, 10
    13a4:	00002007 	andeq	r2, r0, r7
    13a8:	f602dc05 			; <UNDEFINED> instruction: 0xf602dc05
    13ac:	0500002b 	streq	r0, [r0, #-43]	; 0xffffffd5
    13b0:	410f02ee 	smlattmi	pc, lr, r2, r0
    13b4:	f4050000 	vst4.8	{d0-d3}, [r5], r0
    13b8:	005c4b02 	subseq	r4, ip, r2, lsl #22
    13bc:	02f50500 	rscseq	r0, r5, #0, 10
    13c0:	00003460 	andeq	r3, r0, r0, ror #8
    13c4:	6a02fc05 	bvs	c03e0 <_Min_Stack_Size+0xbffe0>
    13c8:	0500008b 	streq	r0, [r0, #-139]	; 0xffffff75
    13cc:	26a20382 	strtcs	r0, [r2], r2, lsl #7
    13d0:	88050000 	stmdahi	r5, {}	; <UNPREDICTABLE>
    13d4:	008c3003 	addeq	r3, ip, r3
    13d8:	03890500 	orreq	r0, r9, #0, 10
    13dc:	00003e6f 	andeq	r3, r0, pc, ror #28
    13e0:	b4039005 	strlt	r9, [r3], #-5
    13e4:	0500007a 	streq	r0, [r0, #-122]	; 0xffffff86
    13e8:	0e6a0391 	mcreq	3, 3, r0, cr10, cr1, {4}
    13ec:	98050000 	stmdals	r5, {}	; <UNPREDICTABLE>
    13f0:	002f1103 	eoreq	r1, pc, r3, lsl #2
    13f4:	039e0500 	orrseq	r0, lr, #0, 10
    13f8:	000000ba 	strheq	r0, [r0], -sl
    13fc:	3c03b205 	sfmcc	f3, 1, [r3], {5}
    1400:	05000037 	streq	r0, [r0, #-55]	; 0xffffffc9
    1404:	207d03d3 	ldrsbtcs	r0, [sp], #-51	; 0xffffffcd
    1408:	d4050000 	strle	r0, [r5], #-0
    140c:	00568e03 	subseq	r8, r6, r3, lsl #28
    1410:	03db0500 	bicseq	r0, fp, #0, 10
    1414:	000017df 	ldrdeq	r1, [r0], -pc	; <UNPREDICTABLE>
    1418:	4403dc05 	strmi	sp, [r3], #-3077	; 0xfffff3fb
    141c:	0500002d 	streq	r0, [r0, #-45]	; 0xffffffd3
    1420:	286403df 	stmdacs	r4!, {r0, r1, r2, r3, r4, r6, r7, r8, r9}^
    1424:	e9050000 	stmdb	r5, {}	; <UNPREDICTABLE>
    1428:	003e1803 	eorseq	r1, lr, r3, lsl #16
    142c:	03ea0500 	mvneq	r0, #0, 10
    1430:	00007cd9 	ldrdeq	r7, [r0], -r9
    1434:	2103f405 	tstcs	r3, r5, lsl #8	; <UNPREDICTABLE>
    1438:	0500006d 	streq	r0, [r0, #-109]	; 0xffffff93
    143c:	7a0d048a 	bvc	34266c <_Min_Stack_Size+0x34226c>
    1440:	8c050000 	stchi	0, cr0, [r5], {-0}
    1444:	0082b004 	addeq	fp, r2, r4
    1448:	048e0500 	streq	r0, [lr], #1280	; 0x500
    144c:	00008a13 	andeq	r8, r0, r3, lsl sl
    1450:	23048f05 	movwcs	r8, #20229	; 0x4f05
    1454:	0500001c 	streq	r0, [r0, #-28]	; 0xffffffe4
    1458:	8d7f0491 	cfldrdhi	mvd0, [pc, #-580]!	; 121c <_Min_Stack_Size+0xe1c>
    145c:	9b050000 	blls	141464 <_Min_Stack_Size+0x141064>
    1460:	00633704 	rsbeq	r3, r3, r4, lsl #14
    1464:	04a00500 	strteq	r0, [r0], #1280	; 0x500
    1468:	00008148 	andeq	r8, r0, r8, asr #2
    146c:	8b04a505 	blhi	12a888 <_Min_Stack_Size+0x12a488>
    1470:	05000011 	streq	r0, [r0, #-17]	; 0xffffffef
    1474:	488804a8 	stmmi	r8, {r3, r5, r7, sl}
    1478:	ac050000 	stcge	0, cr0, [r5], {-0}
    147c:	00798804 	rsbseq	r8, r9, r4, lsl #16
    1480:	04ae0500 	strteq	r0, [lr], #1280	; 0x500
    1484:	00002394 	muleq	r0, r4, r3
    1488:	e704d105 	str	sp, [r4, -r5, lsl #2]
    148c:	0500005e 	streq	r0, [r0, #-94]	; 0xffffffa2
    1490:	76e204d5 	usatvc	r0, #2, r5, asr #9
    1494:	d9050000 	stmdble	r5, {}	; <UNPREDICTABLE>
    1498:	00055f04 	andeq	r5, r5, r4, lsl #30
    149c:	04dd0500 	ldrbeq	r0, [sp], #1280	; 0x500
    14a0:	00002d7a 	andeq	r2, r0, sl, ror sp
    14a4:	2204e105 	andcs	lr, r4, #1073741825	; 0x40000001
    14a8:	05000062 	streq	r0, [r0, #-98]	; 0xffffff9e
    14ac:	262c04e5 	strtcs	r0, [ip], -r5, ror #9
    14b0:	e9050000 	stmdb	r5, {}	; <UNPREDICTABLE>
    14b4:	007f9c04 	rsbseq	r9, pc, r4, lsl #24
    14b8:	04ed0500 	strbteq	r0, [sp], #1280	; 0x500
    14bc:	00008de2 	andeq	r8, r0, r2, ror #27
    14c0:	dc04f405 	cfstrsle	mvf15, [r4], {5}
    14c4:	05000014 	streq	r0, [r0, #-20]	; 0xffffffec
    14c8:	186804f5 	stmdane	r8!, {r0, r2, r4, r5, r6, r7, sl}^
    14cc:	f6050000 			; <UNDEFINED> instruction: 0xf6050000
    14d0:	00308204 	eorseq	r8, r0, r4, lsl #4
    14d4:	04f70500 	ldrbteq	r0, [r7], #1280	; 0x500
    14d8:	000043f5 	strdeq	r4, [r0], -r5
    14dc:	1f04f805 	svcne	0x0004f805
    14e0:	05000040 	streq	r0, [r0, #-64]	; 0xffffffc0
    14e4:	617a058d 	cmnvs	sl, sp, lsl #11
    14e8:	8e050000 	cdphi	0, 0, cr0, cr5, cr0, {0}
    14ec:	008ac805 	addeq	ip, sl, r5, lsl #16
    14f0:	05a00500 	streq	r0, [r0, #1280]!	; 0x500
    14f4:	00007afc 	strdeq	r7, [r0], -ip
    14f8:	8905a605 	stmdbhi	r5, {r0, r2, r9, sl, sp, pc}
    14fc:	05000077 	streq	r0, [r0, #-119]	; 0xffffff89
    1500:	166d05a9 	strbtne	r0, [sp], -r9, lsr #11
    1504:	ab050000 	blge	14150c <_Min_Stack_Size+0x14110c>
    1508:	003aa805 	eorseq	sl, sl, r5, lsl #16
    150c:	05af0500 	streq	r0, [pc, #1280]!	; 1a14 <_Min_Stack_Size+0x1614>
    1510:	00006bd6 	ldrdeq	r6, [r0], -r6	; <UNPREDICTABLE>
    1514:	d005b105 	andle	fp, r5, r5, lsl #2
    1518:	05000039 	streq	r0, [r0, #-57]	; 0xffffffc7
    151c:	5a1a05b5 	bpl	682bf8 <_Min_Stack_Size+0x6827f8>
    1520:	b8050000 	stmdalt	r5, {}	; <UNPREDICTABLE>
    1524:	00377f05 	eorseq	r7, r7, r5, lsl #30
    1528:	05ba0500 	ldreq	r0, [sl, #1280]!	; 0x500
    152c:	00008fa0 	andeq	r8, r0, r0, lsr #31
    1530:	9805be05 	stmdals	r5, {r0, r2, r9, sl, fp, ip, sp, pc}
    1534:	05000001 	streq	r0, [r0, #-1]
    1538:	2f6505c0 	svccs	0x006505c0
    153c:	c2050000 	andgt	r0, r5, #0
    1540:	0058f505 	subseq	pc, r8, r5, lsl #10
    1544:	05c60500 	strbeq	r0, [r6, #1280]	; 0x500
    1548:	00006e4a 	andeq	r6, r0, sl, asr #28
    154c:	c905d105 	stmdbgt	r5, {r0, r2, r8, ip, lr, pc}
    1550:	05000035 	streq	r0, [r0, #-53]	; 0xffffffcb
    1554:	92cf05d2 	sbcls	r0, pc, #880803840	; 0x34800000
    1558:	d6050000 	strle	r0, [r5], -r0
    155c:	00160705 	andseq	r0, r6, r5, lsl #14
    1560:	05d70500 	ldrbeq	r0, [r7, #1280]	; 0x500
    1564:	000078fa 	strdeq	r7, [r0], -sl
    1568:	00000400 	andeq	r0, r0, r0, lsl #8
    156c:	83da0805 	bicshi	r0, sl, #327680	; 0x50000
    1570:	0d060000 	stceq	0, cr0, [r6, #-0]
    1574:	00005943 	andeq	r5, r0, r3, asr #18
    1578:	6f4d1005 	svcvs	0x004d1005
    157c:	04000000 	streq	r0, [r0], #-0
    1580:	38050000 	stmdacc	r5, {}	; <UNPREDICTABLE>
    1584:	000063f3 	strdeq	r6, [r0], -r3
    1588:	8c713c05 	ldclhi	12, cr3, [r1], #-20	; 0xffffffec
    158c:	3d050000 	stccc	0, cr0, [r5, #-0]
    1590:	00001e4e 	andeq	r1, r0, lr, asr #28
    1594:	3efc3f05 	cdpcc	15, 15, cr3, cr12, cr5, {0}
    1598:	43050000 	movwmi	r0, #20480	; 0x5000
    159c:	0000505a 	andeq	r5, r0, sl, asr r0
    15a0:	1501a805 	strne	sl, [r1, #-2053]	; 0xfffff7fb
    15a4:	00000084 	andeq	r0, r0, r4, lsl #1
    15a8:	05000004 	streq	r0, [r0, #-4]
    15ac:	0085e90a 	addeq	lr, r5, sl, lsl #18
    15b0:	2c100500 	cfldr32cs	mvfx0, [r0], {-0}
    15b4:	06000053 			; <UNDEFINED> instruction: 0x06000053
    15b8:	006a012b 	rsbeq	r0, sl, fp, lsr #2
    15bc:	cf2c0600 	svcgt	0x002c0600
    15c0:	06000078 			; <UNDEFINED> instruction: 0x06000078
    15c4:	0006f82d 	andeq	pc, r6, sp, lsr #16
    15c8:	c42e0600 	strtgt	r0, [lr], #-1536	; 0xfffffa00
    15cc:	02000061 	andeq	r0, r0, #97	; 0x61
    15d0:	746e692f 	strbtvc	r6, [lr], #-2351	; 0xfffff6d1
    15d4:	45300600 	ldrmi	r0, [r0, #-1536]!	; 0xfffffa00
    15d8:	06000090 			; <UNDEFINED> instruction: 0x06000090
    15dc:	00051131 	andeq	r1, r5, r1, lsr r1
    15e0:	94320600 	ldrtls	r0, [r2], #-1536	; 0xfffffa00
    15e4:	0500005d 	streq	r0, [r0, #-93]	; 0xffffffa3
    15e8:	00449133 	subeq	r9, r4, r3, lsr r1
    15ec:	8f340500 	svchi	0x00340500
    15f0:	05000044 	streq	r0, [r0, #-68]	; 0xffffffbc
    15f4:	00593b35 	subseq	r3, r9, r5, lsr fp
    15f8:	90360500 	eorsls	r0, r6, r0, lsl #10
    15fc:	05000084 	streq	r0, [r0, #-132]	; 0xffffff7c
    1600:	00006837 	andeq	r6, r0, r7, lsr r8
    1604:	f4380500 			; <UNDEFINED> instruction: 0xf4380500
    1608:	0500006d 	streq	r0, [r0, #-109]	; 0xffffff93
    160c:	0058ce39 	subseq	ip, r8, r9, lsr lr
    1610:	203a0500 	eorscs	r0, sl, r0, lsl #10
    1614:	0500008c 	streq	r0, [r0, #-140]	; 0xffffff74
    1618:	003b4943 	eorseq	r4, fp, r3, asr #18
    161c:	224a0500 	subcs	r0, sl, #0, 10
    1620:	05000088 	streq	r0, [r0, #-136]	; 0xffffff78
    1624:	000b7f52 	andeq	r7, fp, r2, asr pc
    1628:	ef5d0500 	svc	0x005d0500
    162c:	0500003a 	streq	r0, [r0, #-58]	; 0xffffffc6
    1630:	0083ec68 	addeq	lr, r3, r8, ror #24
    1634:	5d710500 	cfldr64pl	mvdx0, [r1, #-0]
    1638:	0500008b 	streq	r0, [r0, #-139]	; 0xffffff75
    163c:	007b6d78 	rsbseq	r6, fp, r8, ror sp
    1640:	01810500 	orreq	r0, r1, r0, lsl #10
    1644:	00001d98 	muleq	r0, r8, sp
    1648:	7e018805 	cdpvc	8, 0, cr8, cr1, cr5, {0}
    164c:	05000080 	streq	r0, [r0, #-128]	; 0xffffff80
    1650:	446e0193 	strbtmi	r0, [lr], #-403	; 0xfffffe6d
    1654:	97050000 	strls	r0, [r5, -r0]
    1658:	002ec101 	eoreq	ip, lr, r1, lsl #2
    165c:	01a20500 			; <UNDEFINED> instruction: 0x01a20500
    1660:	000079ff 	strdeq	r7, [r0], -pc	; <UNPREDICTABLE>
    1664:	0601ad05 	streq	sl, [r1], -r5, lsl #26
    1668:	05000013 	streq	r0, [r0, #-19]	; 0xffffffed
    166c:	603001b6 	ldrhtvs	r0, [r0], -r6
    1670:	b8060000 	stmdalt	r6, {}	; <UNPREDICTABLE>
    1674:	006a0101 	rsbeq	r0, sl, r1, lsl #2
    1678:	01b90600 			; <UNDEFINED> instruction: 0x01b90600
    167c:	000078cf 	andeq	r7, r0, pc, asr #17
    1680:	f801ba06 			; <UNDEFINED> instruction: 0xf801ba06
    1684:	06000006 	streq	r0, [r0], -r6
    1688:	61c401bb 	strhvs	r0, [r4, #27]
    168c:	bc020000 	stclt	0, cr0, [r2], {-0}
    1690:	746e6901 	strbtvc	r6, [lr], #-2305	; 0xfffff6ff
    1694:	01bd0600 			; <UNDEFINED> instruction: 0x01bd0600
    1698:	00005d94 	muleq	r0, r4, sp
    169c:	4501c206 	strmi	ip, [r1, #-518]	; 0xfffffdfa
    16a0:	06000090 			; <UNDEFINED> instruction: 0x06000090
    16a4:	051101c3 	ldreq	r0, [r1, #-451]	; 0xfffffe3d
    16a8:	04000000 	streq	r0, [r0], #-0
    16ac:	0a050000 	beq	1416b4 <_Min_Stack_Size+0x1412b4>
    16b0:	000041b4 			; <UNDEFINED> instruction: 0x000041b4
    16b4:	853d1505 	ldrhi	r1, [sp, #-1285]!	; 0xfffffafb
    16b8:	19050000 	stmdbne	r5, {}	; <UNPREDICTABLE>
    16bc:	00006a81 	andeq	r6, r0, r1, lsl #21
    16c0:	3dd81b05 	vldrcc	d17, [r8, #20]
    16c4:	21050000 	mrscs	r0, (UNDEF: 5)
    16c8:	0000363a 	andeq	r3, r0, sl, lsr r6
    16cc:	10fd2505 	rscsne	r2, sp, r5, lsl #10
    16d0:	27050000 	strcs	r0, [r5, -r0]
    16d4:	00007037 	andeq	r7, r0, r7, lsr r0
    16d8:	854f2d05 	strbhi	r2, [pc, #-3333]	; 9db <_Min_Stack_Size+0x5db>
    16dc:	31050000 	mrscc	r0, (UNDEF: 5)
    16e0:	00000345 	andeq	r0, r0, r5, asr #6
    16e4:	50a53305 	adcpl	r3, r5, r5, lsl #6
    16e8:	39050000 	stmdbcc	r5, {}	; <UNPREDICTABLE>
    16ec:	00006ea8 	andeq	r6, r0, r8, lsr #29
    16f0:	25243d05 	strcs	r3, [r4, #-3333]!	; 0xfffff2fb
    16f4:	3f050000 	svccc	0x00050000
    16f8:	0000643e 	andeq	r6, r0, lr, lsr r4
    16fc:	89ff4405 	ldmibhi	pc!, {r0, r2, sl, lr}^	; <UNPREDICTABLE>
    1700:	49050000 	stmdbmi	r5, {}	; <UNPREDICTABLE>
    1704:	0000689c 	muleq	r0, ip, r8
    1708:	15814e05 	strne	r4, [r1, #3589]	; 0xe05
    170c:	53050000 	movwpl	r0, #20480	; 0x5000
    1710:	00006b08 	andeq	r6, r0, r8, lsl #22
    1714:	00000400 	andeq	r0, r0, r0, lsl #8
    1718:	59991705 	ldmibpl	r9, {r0, r2, r8, r9, sl, ip}
    171c:	1d050000 	stcne	0, cr0, [r5, #-0]
    1720:	0000183c 	andeq	r1, r0, ip, lsr r8
    1724:	380f2305 	stmdacc	pc, {r0, r2, r8, r9, sp}	; <UNPREDICTABLE>
    1728:	29050000 	stmdbcs	r5, {}	; <UNPREDICTABLE>
    172c:	000051f5 	strdeq	r5, [r0], -r5	; <UNPREDICTABLE>
    1730:	1e293505 	cfsh64ne	mvdx3, mvdx9, #5
    1734:	3f050000 	svccc	0x00050000
    1738:	00005769 	andeq	r5, r0, r9, ror #14
    173c:	0f874905 	svceq	0x00874905
    1740:	53050000 	movwpl	r0, #20480	; 0x5000
    1744:	00002538 	andeq	r2, r0, r8, lsr r5
    1748:	48018005 	stmdami	r1, {r0, r2, pc}
    174c:	05000091 	streq	r0, [r0, #-145]	; 0xffffff6f
    1750:	5b210181 	blpl	841d5c <_Min_Stack_Size+0x84195c>
    1754:	82050000 	andhi	r0, r5, #0
    1758:	0019d901 	andseq	sp, r9, r1, lsl #18
    175c:	01980500 	orrseq	r0, r8, r0, lsl #10
    1760:	0000399a 	muleq	r0, sl, r9
    1764:	fc019905 	stc2	9, cr9, [r1], {5}	; <UNPREDICTABLE>
    1768:	0500000c 	streq	r0, [r0, #-12]
    176c:	8bd3019a 	blhi	ff4c1ddc <_estack+0xdf4bf5dc>
    1770:	a2050000 	andge	r0, r5, #0
    1774:	007ddd01 	rsbseq	sp, sp, r1, lsl #26
    1778:	01a30500 			; <UNDEFINED> instruction: 0x01a30500
    177c:	0000290b 	andeq	r2, r0, fp, lsl #18
    1780:	0101a405 	tsteq	r1, r5, lsl #8
    1784:	05000072 	streq	r0, [r0, #-114]	; 0xffffff8e
    1788:	021401ae 	andseq	r0, r4, #-2147483605	; 0x8000002b
    178c:	af050000 	svcge	0x00050000
    1790:	000eff01 	andeq	pc, lr, r1, lsl #30
    1794:	01b00500 	lslseq	r0, r0, #10
    1798:	000071c8 	andeq	r7, r0, r8, asr #3
    179c:	6301b805 	movwvs	fp, #6149	; 0x1805
    17a0:	05000051 	streq	r0, [r0, #-81]	; 0xffffffaf
    17a4:	0bdd01b9 	bleq	ff741e90 <_estack+0xdf73f690>
    17a8:	ba050000 	blt	1417b0 <_Min_Stack_Size+0x1413b0>
    17ac:	002ff801 	eoreq	pc, pc, r1, lsl #16
    17b0:	01c40500 	biceq	r0, r4, r0, lsl #10
    17b4:	000070ad 	andeq	r7, r0, sp, lsr #1
    17b8:	3b01c505 	blcc	72bd4 <_Min_Stack_Size+0x727d4>
    17bc:	0500002e 	streq	r0, [r0, #-46]	; 0xffffffd2
    17c0:	321801c6 	andscc	r0, r8, #-2147483599	; 0x80000031
    17c4:	d4050000 	strle	r0, [r5], #-0
    17c8:	0031df01 	eorseq	sp, r1, r1, lsl #30
    17cc:	01d50500 	bicseq	r0, r5, r0, lsl #10
    17d0:	00002897 	muleq	r0, r7, r8
    17d4:	4001d605 	andmi	sp, r1, r5, lsl #12
    17d8:	05000075 	streq	r0, [r0, #-117]	; 0xffffff8b
    17dc:	7add01e6 	bvc	ff741f7c <_estack+0xdf73f77c>
    17e0:	e7050000 	str	r0, [r5, -r0]
    17e4:	004a0701 	subeq	r0, sl, r1, lsl #14
    17e8:	01e80500 	mvneq	r0, r0, lsl #10
    17ec:	00002a35 	andeq	r2, r0, r5, lsr sl
    17f0:	8501f605 	strhi	pc, [r1, #-1541]	; 0xfffff9fb
    17f4:	05000013 	streq	r0, [r0, #-19]	; 0xffffffed
    17f8:	112101f7 	strdne	r0, [r1, -r7]!
    17fc:	f8050000 			; <UNDEFINED> instruction: 0xf8050000
    1800:	00267a01 	eoreq	r7, r6, r1, lsl #20
    1804:	02860500 	addeq	r0, r6, #0, 10
    1808:	00005667 	andeq	r5, r0, r7, ror #12
    180c:	f8028705 			; <UNDEFINED> instruction: 0xf8028705
    1810:	05000023 	streq	r0, [r0, #-35]	; 0xffffffdd
    1814:	67a90288 	strvs	r0, [r9, r8, lsl #5]!
    1818:	96050000 	strls	r0, [r5], -r0
    181c:	00092c02 	andeq	r2, r9, r2, lsl #24
    1820:	02970500 	addseq	r0, r7, #0, 10
    1824:	00005720 	andeq	r5, r0, r0, lsr #14
    1828:	cf029805 	svcgt	0x00029805
    182c:	0500002e 	streq	r0, [r0, #-46]	; 0xffffffd2
    1830:	15cf02a6 	strbne	r0, [pc, #678]	; 1ade <_Min_Stack_Size+0x16de>
    1834:	a7050000 	strge	r0, [r5, -r0]
    1838:	00907802 	addseq	r7, r0, r2, lsl #16
    183c:	02a80500 	adceq	r0, r8, #0, 10
    1840:	00007345 	andeq	r7, r0, r5, asr #6
    1844:	2c02b605 	stccs	6, cr11, [r2], {5}
    1848:	0500005f 	streq	r0, [r0, #-95]	; 0xffffffa1
    184c:	438c02b7 	orrmi	r0, ip, #1879048203	; 0x7000000b
    1850:	b8050000 	stmdalt	r5, {}	; <UNPREDICTABLE>
    1854:	0033a202 	eorseq	sl, r3, r2, lsl #4
    1858:	02c60500 	sbceq	r0, r6, #0, 10
    185c:	00002e1f 	andeq	r2, r0, pc, lsl lr
    1860:	f002c705 			; <UNDEFINED> instruction: 0xf002c705
    1864:	0500001e 	streq	r0, [r0, #-30]	; 0xffffffe2
    1868:	453802cf 	ldrmi	r0, [r8, #-719]!	; 0xfffffd31
    186c:	d7050000 	strle	r0, [r5, -r0]
    1870:	006c9c02 	rsbeq	r9, ip, r2, lsl #24
    1874:	02dd0500 	sbcseq	r0, sp, #0, 10
    1878:	0000837a 	andeq	r8, r0, sl, ror r3
    187c:	da02de05 	ble	b9098 <_Min_Stack_Size+0xb8c98>
    1880:	05000029 	streq	r0, [r0, #-41]	; 0xffffffd7
    1884:	0d2002e2 	sfmeq	f0, 4, [r0, #-904]!	; 0xfffffc78
    1888:	e6050000 	str	r0, [r5], -r0
    188c:	00916902 	addseq	r6, r1, r2, lsl #18
    1890:	02eb0500 	rsceq	r0, fp, #0, 10
    1894:	00001f47 	andeq	r1, r0, r7, asr #30
    1898:	4b02f605 	blmi	bf0b4 <_Min_Stack_Size+0xbecb4>
    189c:	05000070 	streq	r0, [r0, #-112]	; 0xffffff90
    18a0:	4e1a0380 	cdpmi	3, 1, cr0, cr10, cr0, {4}
    18a4:	85050000 	strhi	r0, [r5, #-0]
    18a8:	00001703 	andeq	r1, r0, r3, lsl #14
    18ac:	038c0500 	orreq	r0, ip, #0, 10
    18b0:	00004009 	andeq	r4, r0, r9
    18b4:	79038d05 	stmdbvc	r3, {r0, r2, r8, sl, fp, pc}
    18b8:	0500007d 	streq	r0, [r0, #-125]	; 0xffffff83
    18bc:	0fca0398 	svceq	0x00ca0398
    18c0:	99050000 	stmdbls	r5, {}	; <UNPREDICTABLE>
    18c4:	00362003 	eorseq	r2, r6, r3
    18c8:	03a40500 			; <UNDEFINED> instruction: 0x03a40500
    18cc:	0000747e 	andeq	r7, r0, lr, ror r4
    18d0:	3a03a505 	bcc	eacec <_Min_Stack_Size+0xea8ec>
    18d4:	05000056 	streq	r0, [r0, #-86]	; 0xffffffaa
    18d8:	397303b1 	ldmdbcc	r3!, {r0, r4, r5, r7, r8, r9}^
    18dc:	b2050000 	andlt	r0, r5, #0
    18e0:	007e6603 	rsbseq	r6, lr, r3, lsl #12
    18e4:	03c10500 	biceq	r0, r1, #0, 10
    18e8:	00001935 	andeq	r1, r0, r5, lsr r9
    18ec:	0a03c205 	beq	f2108 <_Min_Stack_Size+0xf1d08>
    18f0:	00000064 	andeq	r0, r0, r4, rrx
    18f4:	05000004 	streq	r0, [r0, #-4]
    18f8:	00329011 	eorseq	r9, r2, r1, lsl r0
    18fc:	d1120500 	tstle	r2, r0, lsl #10
    1900:	05000041 	streq	r0, [r0, #-65]	; 0xffffffbf
    1904:	0035aa13 	eorseq	sl, r5, r3, lsl sl
    1908:	2d150500 	cfldr32cs	mvfx0, [r5, #-0]
    190c:	0500000f 	streq	r0, [r0, #-15]
    1910:	00025a16 	andeq	r5, r2, r6, lsl sl
    1914:	3f1c0500 	svccc	0x001c0500
    1918:	05000071 	streq	r0, [r0, #-113]	; 0xffffff8f
    191c:	0080a01f 	addeq	sl, r0, pc, lsl r0
    1920:	30200500 	eorcc	r0, r0, r0, lsl #10
    1924:	0500001f 	streq	r0, [r0, #-31]	; 0xffffffe1
    1928:	0083a621 	addeq	sl, r3, r1, lsr #12
    192c:	b6220500 	strtlt	r0, [r2], -r0, lsl #10
    1930:	05000012 	streq	r0, [r0, #-18]	; 0xffffffee
    1934:	0049f023 	subeq	pc, r9, r3, lsr #32
    1938:	5e240500 	cfsh64pl	mvdx0, mvdx4, #0
    193c:	05000048 	streq	r0, [r0, #-72]	; 0xffffffb8
    1940:	0076fb25 	rsbseq	pc, r6, r5, lsr #22
    1944:	73270500 			; <UNDEFINED> instruction: 0x73270500
    1948:	05000086 	streq	r0, [r0, #-134]	; 0xffffff7a
    194c:	00053228 	andeq	r3, r5, r8, lsr #4
    1950:	c7290500 	strgt	r0, [r9, -r0, lsl #10]!
    1954:	05000059 	streq	r0, [r0, #-89]	; 0xffffffa7
    1958:	007e492c 	rsbseq	r4, lr, ip, lsr #18
    195c:	582d0500 	stmdapl	sp!, {r8, sl}
    1960:	05000047 	streq	r0, [r0, #-71]	; 0xffffffb9
    1964:	006ee92e 	rsbeq	lr, lr, lr, lsr #18
    1968:	df2f0500 	svcle	0x002f0500
    196c:	0500005a 	streq	r0, [r0, #-90]	; 0xffffffa6
    1970:	002b8a30 	eoreq	r8, fp, r0, lsr sl
    1974:	01310500 	teqeq	r1, r0, lsl #10
    1978:	0500002a 	streq	r0, [r0, #-42]	; 0xffffffd6
    197c:	008ca032 	addeq	sl, ip, r2, lsr r0
    1980:	65340500 	ldrvs	r0, [r4, #-1280]!	; 0xfffffb00
    1984:	05000092 	streq	r0, [r0, #-146]	; 0xffffff6e
    1988:	00904d35 	addseq	r4, r0, r5, lsr sp
    198c:	88360500 	ldmdahi	r6!, {r8, sl}
    1990:	05000031 	streq	r0, [r0, #-49]	; 0xffffffcf
    1994:	0055a237 	subseq	sl, r5, r7, lsr r2
    1998:	a2380500 	eorsge	r0, r8, #0, 10
    199c:	0500000b 	streq	r0, [r0, #-11]
    19a0:	00858139 	addeq	r8, r5, r9, lsr r1
    19a4:	e23a0500 	eors	r0, sl, #0, 10
    19a8:	05000023 	streq	r0, [r0, #-35]	; 0xffffffdd
    19ac:	0071293b 	rsbseq	r2, r1, fp, lsr r9
    19b0:	603c0500 	eorsvs	r0, ip, r0, lsl #10
    19b4:	05000011 	streq	r0, [r0, #-17]	; 0xffffffef
    19b8:	003b0b3e 	eorseq	r0, fp, lr, lsr fp
    19bc:	0b3f0500 	bleq	fc2dc4 <_Min_Stack_Size+0xfc29c4>
    19c0:	05000034 	streq	r0, [r0, #-52]	; 0xffffffcc
    19c4:	008f8940 	addeq	r8, pc, r0, asr #18
    19c8:	3a410500 	bcc	1042dd0 <_Min_Stack_Size+0x10429d0>
    19cc:	0500008b 	streq	r0, [r0, #-139]	; 0xffffff75
    19d0:	0089af42 	addeq	sl, r9, r2, asr #30
    19d4:	d3440500 	movtle	r0, #17664	; 0x4500
    19d8:	05000085 	streq	r0, [r0, #-133]	; 0xffffff7b
    19dc:	0070da45 	rsbseq	sp, r0, r5, asr #20
    19e0:	b04a0500 	sublt	r0, sl, r0, lsl #10
    19e4:	05000013 	streq	r0, [r0, #-19]	; 0xffffffed
    19e8:	0001804b 	andeq	r8, r1, fp, asr #32
    19ec:	c84c0500 	stmdagt	ip, {r8, sl}^
    19f0:	05000031 	streq	r0, [r0, #-49]	; 0xffffffcf
    19f4:	001caa4d 	andseq	sl, ip, sp, asr #20
    19f8:	0f4f0500 	svceq	0x004f0500
    19fc:	05000054 	streq	r0, [r0, #-84]	; 0xffffffac
    1a00:	25730287 	ldrbcs	r0, [r3, #-647]!	; 0xfffffd79
    1a04:	88050000 	stmdahi	r5, {}	; <UNPREDICTABLE>
    1a08:	00765202 	rsbseq	r5, r6, r2, lsl #4
    1a0c:	02890500 	addeq	r0, r9, #0, 10
    1a10:	000062ac 	andeq	r6, r0, ip, lsr #5
    1a14:	32028a05 	andcc	r8, r2, #20480	; 0x5000
    1a18:	0500004e 	streq	r0, [r0, #-78]	; 0xffffffb2
    1a1c:	0725028b 	streq	r0, [r5, -fp, lsl #5]!
    1a20:	8e050000 	cdphi	0, 0, cr0, cr5, cr0, {0}
    1a24:	001e7a02 	andseq	r7, lr, r2, lsl #20
    1a28:	028f0500 	addeq	r0, pc, #0, 10
    1a2c:	0000728a 	andeq	r7, r0, sl, lsl #5
    1a30:	97029005 	strls	r9, [r2, -r5]
    1a34:	05000025 	streq	r0, [r0, #-37]	; 0xffffffdb
    1a38:	48160291 	ldmdami	r6, {r0, r4, r7, r9}
    1a3c:	92050000 	andls	r0, r5, #0
    1a40:	00154402 	andseq	r4, r5, r2, lsl #8
    1a44:	02980500 	addseq	r0, r8, #0, 10
    1a48:	000089c6 	andeq	r8, r0, r6, asr #19
    1a4c:	3f029a05 	svccc	0x00029a05
    1a50:	05000031 	streq	r0, [r0, #-49]	; 0xffffffcf
    1a54:	3bcc029c 	blcc	ff3024cc <_estack+0xdf2ffccc>
    1a58:	9f050000 	svcls	0x00050000
    1a5c:	00369102 	eorseq	r9, r6, r2, lsl #2
    1a60:	02a00500 	adceq	r0, r0, #0, 10
    1a64:	0000013f 	andeq	r0, r0, pc, lsr r1
    1a68:	1c02a105 	stfned	f2, [r2], {5}
    1a6c:	0500002d 	streq	r0, [r0, #-45]	; 0xffffffd3
    1a70:	1c8402a2 	sfmne	f0, 4, [r4], {162}	; 0xa2
    1a74:	a3050000 	movwge	r0, #20480	; 0x5000
    1a78:	005e5f02 	subseq	r5, lr, r2, lsl #30
    1a7c:	02a60500 	adceq	r0, r6, #0, 10
    1a80:	00003108 	andeq	r3, r0, r8, lsl #2
    1a84:	4602a705 	strmi	sl, [r2], -r5, lsl #14
    1a88:	0500000c 	streq	r0, [r0, #-12]
    1a8c:	0b0702a8 	bleq	1c2534 <_Min_Stack_Size+0x1c2134>
    1a90:	ac050000 	stcge	0, cr0, [r5], {-0}
    1a94:	00911c02 	addseq	r1, r1, r2, lsl #24
    1a98:	02ad0500 	adceq	r0, sp, #0, 10
    1a9c:	000004b2 			; <UNDEFINED> instruction: 0x000004b2
    1aa0:	d002ae05 	andle	sl, r2, r5, lsl #28
    1aa4:	0500000c 	streq	r0, [r0, #-12]
    1aa8:	614e02af 	smlaltbvs	r0, lr, pc, r2	; <UNPREDICTABLE>
    1aac:	b0050000 	andlt	r0, r5, r0
    1ab0:	0019a002 	andseq	sl, r9, r2
    1ab4:	02b20500 	adcseq	r0, r2, #0, 10
    1ab8:	00006100 	andeq	r6, r0, r0, lsl #2
    1abc:	d202b405 	andle	fp, r2, #83886080	; 0x5000000
    1ac0:	05000036 	streq	r0, [r0, #-54]	; 0xffffffca
    1ac4:	6ebb02b5 	mrcvs	2, 5, r0, cr11, cr5, {5}
    1ac8:	b6050000 	strlt	r0, [r5], -r0
    1acc:	0075ac02 	rsbseq	sl, r5, r2, lsl #24
    1ad0:	02b80500 	adcseq	r0, r8, #0, 10
    1ad4:	000053e3 	andeq	r5, r0, r3, ror #7
    1ad8:	7802b905 	stmdavc	r2, {r0, r2, r8, fp, ip, sp, pc}
    1adc:	05000024 	streq	r0, [r0, #-36]	; 0xffffffdc
    1ae0:	1bef02ba 	blne	ffbc25d0 <_estack+0xdfbbfdd0>
    1ae4:	c0050000 	andgt	r0, r5, r0
    1ae8:	006b1d02 	rsbeq	r1, fp, r2, lsl #26
    1aec:	02c10500 	sbceq	r0, r1, #0, 10
    1af0:	000022c5 	andeq	r2, r0, r5, asr #5
    1af4:	9f02c205 	svcls	0x0002c205
    1af8:	0500000a 	streq	r0, [r0, #-10]
    1afc:	076102c3 	strbeq	r0, [r1, -r3, asr #5]!
    1b00:	c4050000 	strgt	r0, [r5], #-0
    1b04:	003bec02 	eorseq	lr, fp, r2, lsl #24
    1b08:	02c50500 	sbceq	r0, r5, #0, 10
    1b0c:	0000163e 	andeq	r1, r0, lr, lsr r6
    1b10:	a802c605 	stmdage	r2, {r0, r2, r9, sl, lr, pc}
    1b14:	05000038 	streq	r0, [r0, #-56]	; 0xffffffc8
    1b18:	292f02c8 	stmdbcs	pc!, {r3, r6, r7, r9}	; <UNPREDICTABLE>
    1b1c:	c9050000 	stmdbgt	r5, {}	; <UNPREDICTABLE>
    1b20:	00657302 	rsbeq	r7, r5, r2, lsl #6
    1b24:	02ca0500 	sbceq	r0, sl, #0, 10
    1b28:	000064bf 			; <UNDEFINED> instruction: 0x000064bf
    1b2c:	ef02cb05 	svc	0x0002cb05
    1b30:	05000052 	streq	r0, [r0, #-82]	; 0xffffffae
    1b34:	8e7f02cc 	cdphi	2, 7, cr0, cr15, cr12, {6}
    1b38:	cd050000 	stcgt	0, cr0, [r5, #-0]
    1b3c:	007f6d02 	rsbseq	r6, pc, r2, lsl #26
    1b40:	02ce0500 	sbceq	r0, lr, #0, 10
    1b44:	00006a9d 	muleq	r0, sp, sl
    1b48:	c902d205 	stmdbgt	r2, {r0, r2, r9, ip, lr, pc}
    1b4c:	05000090 	streq	r0, [r0, #-144]	; 0xffffff70
    1b50:	91be02d3 			; <UNDEFINED> instruction: 0x91be02d3
    1b54:	d4050000 	strle	r0, [r5], #-0
    1b58:	002fbc02 	eoreq	fp, pc, r2, lsl #24
    1b5c:	02d70500 	sbcseq	r0, r7, #0, 10
    1b60:	000037d1 	ldrdeq	r3, [r0], -r1
    1b64:	9d02d805 	stcls	8, cr13, [r2, #-20]	; 0xffffffec
    1b68:	05000010 	streq	r0, [r0, #-16]
    1b6c:	4a3402d9 	bmi	d026d8 <_Min_Stack_Size+0xd022d8>
    1b70:	dd050000 	stcle	0, cr0, [r5, #-0]
    1b74:	007d2d02 	rsbseq	r2, sp, r2, lsl #26
    1b78:	02de0500 	sbcseq	r0, lr, #0, 10
    1b7c:	00007a7c 	andeq	r7, r0, ip, ror sl
    1b80:	2a02df05 	bcs	b979c <_Min_Stack_Size+0xb939c>
    1b84:	05000078 	streq	r0, [r0, #-120]	; 0xffffff88
    1b88:	6dad02e2 	sfmvs	f0, 4, [sp, #904]!	; 0x388
    1b8c:	e3050000 	movw	r0, #20480	; 0x5000
    1b90:	00587a02 	subseq	r7, r8, r2, lsl #20
    1b94:	02e40500 	rsceq	r0, r4, #0, 10
    1b98:	00008b01 	andeq	r8, r0, r1, lsl #22
    1b9c:	00000400 	andeq	r0, r0, r0, lsl #8
    1ba0:	5b472005 	blpl	11c9bbc <_Min_Stack_Size+0x11c97bc>
    1ba4:	21050000 	mrscs	r0, (UNDEF: 5)
    1ba8:	00005fb6 			; <UNDEFINED> instruction: 0x00005fb6
    1bac:	86152205 	ldrhi	r2, [r5], -r5, lsl #4
    1bb0:	23050000 	movwcs	r0, #20480	; 0x5000
    1bb4:	00008881 	andeq	r8, r0, r1, lsl #17
    1bb8:	0c772405 	cfldrdeq	mvd2, [r7], #-20	; 0xffffffec
    1bbc:	25050000 	strcs	r0, [r5, #-0]
    1bc0:	00002715 	andeq	r2, r0, r5, lsl r7
    1bc4:	47392605 	ldrmi	r2, [r9, -r5, lsl #12]!
    1bc8:	27050000 	strcs	r0, [r5, -r0]
    1bcc:	00000d79 	andeq	r0, r0, r9, ror sp
    1bd0:	50c22805 	sbcpl	r2, r2, r5, lsl #16
    1bd4:	29050000 	stmdbcs	r5, {}	; <UNPREDICTABLE>
    1bd8:	00008832 	andeq	r8, r0, r2, lsr r8
    1bdc:	8ba82a05 	blhi	fea0c3f8 <_estack+0xdea09bf8>
    1be0:	2b050000 	blcs	141be8 <_Min_Stack_Size+0x1417e8>
    1be4:	00006e88 	andeq	r6, r0, r8, lsl #29
    1be8:	26cc2c05 	strbcs	r2, [ip], r5, lsl #24
    1bec:	2d050000 	stccs	0, cr0, [r5, #-0]
    1bf0:	000033df 	ldrdeq	r3, [r0], -pc	; <UNPREDICTABLE>
    1bf4:	15952e05 	ldrne	r2, [r5, #3589]	; 0xe05
    1bf8:	2f050000 	svccs	0x00050000
    1bfc:	00006c29 	andeq	r6, r0, r9, lsr #24
    1c00:	73883005 	orrvc	r3, r8, #5
    1c04:	32050000 	andcc	r0, r5, #0
    1c08:	000086bb 			; <UNDEFINED> instruction: 0x000086bb
    1c0c:	2ef54405 	cdpcs	4, 15, cr4, cr5, cr5, {0}
    1c10:	45050000 	strmi	r0, [r5, #-0]
    1c14:	000042e8 	andeq	r4, r0, r8, ror #5
    1c18:	76344605 	ldrtvc	r4, [r4], -r5, lsl #12
    1c1c:	47050000 	strmi	r0, [r5, -r0]
    1c20:	00003f1b 	andeq	r3, r0, fp, lsl pc
    1c24:	635a4805 	cmpvs	sl, #327680	; 0x50000
    1c28:	49050000 	stmdbmi	r5, {}	; <UNPREDICTABLE>
    1c2c:	000070f0 	strdeq	r7, [r0], -r0
    1c30:	4fbe4a05 	svcmi	0x00be4a05
    1c34:	4b050000 	blmi	141c3c <_Min_Stack_Size+0x14183c>
    1c38:	00002551 	andeq	r2, r0, r1, asr r5
    1c3c:	7bdd4c05 	blvc	ff754c58 <_estack+0xdf752458>
    1c40:	57050000 	strpl	r0, [r5, -r0]
    1c44:	00006291 	muleq	r0, r1, r2
    1c48:	8c065805 	stchi	8, cr5, [r6], {5}
    1c4c:	59050000 	stmdbpl	r5, {}	; <UNPREDICTABLE>
    1c50:	00003cb0 			; <UNDEFINED> instruction: 0x00003cb0
    1c54:	00000400 	andeq	r0, r0, r0, lsl #8
    1c58:	6c792c05 	ldclvs	12, cr2, [r9], #-20	; 0xffffffec
    1c5c:	2d050000 	stccs	0, cr0, [r5, #-0]
    1c60:	0000281b 	andeq	r2, r0, fp, lsl r8
    1c64:	4e0e2e05 	cdpmi	14, 0, cr2, cr14, cr5, {0}
    1c68:	2f050000 	svccs	0x00050000
    1c6c:	000033ff 	strdeq	r3, [r0], -pc	; <UNPREDICTABLE>
    1c70:	65663005 	strbvs	r3, [r6, #-5]!
    1c74:	31050000 	mrscc	r0, (UNDEF: 5)
    1c78:	0000560a 	andeq	r5, r0, sl, lsl #12
    1c7c:	1e5d3205 	cdpne	2, 5, cr3, cr13, cr5, {0}
    1c80:	33050000 	movwcc	r0, #20480	; 0x5000
    1c84:	00007ccc 	andeq	r7, r0, ip, asr #25
    1c88:	76093405 	strvc	r3, [r9], -r5, lsl #8
    1c8c:	35050000 	strcc	r0, [r5, #-0]
    1c90:	00000322 	andeq	r0, r0, r2, lsr #6
    1c94:	53d53605 	bicspl	r3, r5, #5242880	; 0x500000
    1c98:	37050000 	strcc	r0, [r5, -r0]
    1c9c:	0000661f 	andeq	r6, r0, pc, lsl r6
    1ca0:	79383805 	ldmdbvc	r8!, {r0, r2, fp, ip, sp}
    1ca4:	39050000 	stmdbcc	r5, {}	; <UNPREDICTABLE>
    1ca8:	00002b1e 	andeq	r2, r0, lr, lsl fp
    1cac:	543c3a05 	ldrtpl	r3, [ip], #-2565	; 0xfffff5fb
    1cb0:	3b050000 	blcc	141cb8 <_Min_Stack_Size+0x1418b8>
    1cb4:	00006b48 	andeq	r6, r0, r8, asr #22
    1cb8:	44c73c05 	strbmi	r3, [r7], #3077	; 0xc05
    1cbc:	3d050000 	stccc	0, cr0, [r5, #-0]
    1cc0:	000051ca 	andeq	r5, r0, sl, asr #3
    1cc4:	45563e05 	ldrbmi	r3, [r6, #-3589]	; 0xfffff1fb
    1cc8:	3f050000 	svccc	0x00050000
    1ccc:	000061a9 	andeq	r6, r0, r9, lsr #3
    1cd0:	2a514005 	bcs	1451cec <_Min_Stack_Size+0x14518ec>
    1cd4:	41050000 	mrsmi	r0, (UNDEF: 5)
    1cd8:	00000f4a 	andeq	r0, r0, sl, asr #30
    1cdc:	33d74505 	bicscc	r4, r7, #20971520	; 0x1400000
    1ce0:	46050000 	strmi	r0, [r5], -r0
    1ce4:	0000544a 	andeq	r5, r0, sl, asr #8
    1ce8:	6f9a4705 	svcvs	0x009a4705
    1cec:	48050000 	stmdami	r5, {}	; <UNPREDICTABLE>
    1cf0:	00008c28 	andeq	r8, r0, r8, lsr #24
    1cf4:	603f4905 	eorsvs	r4, pc, r5, lsl #18
    1cf8:	4a050000 	bmi	141d00 <_Min_Stack_Size+0x141900>
    1cfc:	000034bf 			; <UNDEFINED> instruction: 0x000034bf
    1d00:	55ef4b05 	strbpl	r4, [pc, #2821]!	; 280d <_Min_Stack_Size+0x240d>
    1d04:	4c050000 	stcmi	0, cr0, [r5], {-0}
    1d08:	0000802d 	andeq	r8, r0, sp, lsr #32
    1d0c:	8d1f4d05 	ldchi	13, cr4, [pc, #-20]	; 1d00 <_Min_Stack_Size+0x1900>
    1d10:	4e050000 	cdpmi	0, 0, cr0, cr5, cr0, {0}
    1d14:	00001998 	muleq	r0, r8, r9
    1d18:	0e1c4f05 	cdpeq	15, 1, cr4, cr12, cr5, {0}
    1d1c:	50050000 	andpl	r0, r5, r0
    1d20:	00005981 	andeq	r5, r0, r1, lsl #19
    1d24:	5dc95105 	stfple	f5, [r9, #20]
    1d28:	52050000 	andpl	r0, r5, #0
    1d2c:	00008c80 	andeq	r8, r0, r0, lsl #25
    1d30:	106e5305 	rsbne	r5, lr, r5, lsl #6
    1d34:	54050000 	strpl	r0, [r5], #-0
    1d38:	00005c16 	andeq	r5, r0, r6, lsl ip
    1d3c:	6b565a05 	blvs	1598558 <_Min_Stack_Size+0x1598158>
    1d40:	5b050000 	blpl	141d48 <_Min_Stack_Size+0x141948>
    1d44:	00003557 	andeq	r3, r0, r7, asr r5
    1d48:	74fc5c05 	ldrbtvc	r5, [ip], #3077	; 0xc05
    1d4c:	5d050000 	stcpl	0, cr0, [r5, #-0]
    1d50:	000040b1 	strheq	r4, [r0], -r1
    1d54:	24e06105 	strbtcs	r6, [r0], #261	; 0x105
    1d58:	62050000 	andvs	r0, r5, #0
    1d5c:	000062f3 	strdeq	r6, [r0], -r3
    1d60:	75686305 	strbvc	r6, [r8, #-773]!	; 0xfffffcfb
    1d64:	64050000 	strvs	r0, [r5], #-0
    1d68:	0000920e 	andeq	r9, r0, lr, lsl #4
    1d6c:	44106805 	ldrmi	r6, [r0], #-2053	; 0xfffff7fb
    1d70:	69050000 	stmdbvs	r5, {}	; <UNPREDICTABLE>
    1d74:	0000927b 	andeq	r9, r0, fp, ror r2
    1d78:	335e6a05 	cmpcc	lr, #20480	; 0x5000
    1d7c:	6b050000 	blvs	141d84 <_Min_Stack_Size+0x141984>
    1d80:	000009a8 	andeq	r0, r0, r8, lsr #19
    1d84:	1da26f05 	stcne	15, cr6, [r2, #20]!
    1d88:	70050000 	andvc	r0, r5, r0
    1d8c:	00001aaa 	andeq	r1, r0, sl, lsr #21
    1d90:	3b887105 	blcc	fe21e1ac <_estack+0xde21b9ac>
    1d94:	72050000 	andvc	r0, r5, #0
    1d98:	00000955 	andeq	r0, r0, r5, asr r9
    1d9c:	5fe47605 	svcpl	0x00e47605
    1da0:	77050000 	strvc	r0, [r5, -r0]
    1da4:	00003913 	andeq	r3, r0, r3, lsl r9
    1da8:	803a7805 	eorshi	r7, sl, r5, lsl #16
    1dac:	79050000 	stmdbvc	r5, {}	; <UNPREDICTABLE>
    1db0:	00001f8b 	andeq	r1, r0, fp, lsl #31
    1db4:	3c3a7d05 	ldccc	13, cr7, [sl], #-20	; 0xffffffec
    1db8:	7e050000 	cdpvc	0, 0, cr0, cr5, cr0, {0}
    1dbc:	00004564 	andeq	r4, r0, r4, ror #10
    1dc0:	3d777f05 	ldclcc	15, cr7, [r7, #-20]!	; 0xffffffec
    1dc4:	80050000 	andhi	r0, r5, r0
    1dc8:	005ea301 	subseq	sl, lr, r1, lsl #6
    1dcc:	01840500 	orreq	r0, r4, r0, lsl #10
    1dd0:	00006389 	andeq	r6, r0, r9, lsl #7
    1dd4:	32018505 	andcc	r8, r1, #20971520	; 0x1400000
    1dd8:	0500000a 	streq	r0, [r0, #-10]
    1ddc:	1a660186 	bne	19823fc <_Min_Stack_Size+0x1981ffc>
    1de0:	87050000 	strhi	r0, [r5, -r0]
    1de4:	00278301 	eoreq	r8, r7, r1, lsl #6
    1de8:	018b0500 	orreq	r0, fp, r0, lsl #10
    1dec:	00006812 	andeq	r6, r0, r2, lsl r8
    1df0:	01018c05 	tsteq	r1, r5, lsl #24
    1df4:	05000073 	streq	r0, [r0, #-115]	; 0xffffff8d
    1df8:	2145018d 	smlalbbcs	r0, r5, sp, r1
    1dfc:	8e050000 	cdphi	0, 0, cr0, cr5, cr0, {0}
    1e00:	00659f01 	rsbeq	r9, r5, r1, lsl #30
    1e04:	01920500 	orrseq	r0, r2, r0, lsl #10
    1e08:	00005528 	andeq	r5, r0, r8, lsr #10
    1e0c:	c7019305 	strgt	r9, [r1, -r5, lsl #6]
    1e10:	05000027 	streq	r0, [r0, #-39]	; 0xffffffd9
    1e14:	8efc0194 	mrchi	1, 7, r0, cr12, cr4, {4}
    1e18:	95050000 	strls	r0, [r5, #-0]
    1e1c:	0020ac01 	eoreq	sl, r0, r1, lsl #24
    1e20:	01990500 	orrseq	r0, r9, r0, lsl #10
    1e24:	0000364d 	andeq	r3, r0, sp, asr #12
    1e28:	33019a05 	movwcc	r9, #6661	; 0x1a05
    1e2c:	05000012 	streq	r0, [r0, #-18]	; 0xffffffee
    1e30:	7c88019b 	stfvcs	f0, [r8], {155}	; 0x9b
    1e34:	9c050000 	stcls	0, cr0, [r5], {-0}
    1e38:	0073c101 	rsbseq	ip, r3, r1, lsl #2
    1e3c:	01a00500 	lsleq	r0, r0, #10
    1e40:	000003a4 	andeq	r0, r0, r4, lsr #7
    1e44:	0101a105 	tsteq	r1, r5, lsl #2
    1e48:	0500006e 	streq	r0, [r0, #-110]	; 0xffffff92
    1e4c:	520f01a2 	andpl	r0, pc, #-2147483608	; 0x80000028
    1e50:	a3050000 	movwge	r0, #20480	; 0x5000
    1e54:	001d4f01 	andseq	r4, sp, r1, lsl #30
    1e58:	01a70500 			; <UNDEFINED> instruction: 0x01a70500
    1e5c:	00006993 	muleq	r0, r3, r9
    1e60:	8c01a805 	stchi	8, cr10, [r1], {5}
    1e64:	05000087 	streq	r0, [r0, #-135]	; 0xffffff79
    1e68:	434301a9 	movtmi	r0, #12713	; 0x31a9
    1e6c:	aa050000 	bge	141e74 <_Min_Stack_Size+0x141a74>
    1e70:	008f4001 	addeq	r4, pc, r1
    1e74:	01ae0500 			; <UNDEFINED> instruction: 0x01ae0500
    1e78:	0000385f 	andeq	r3, r0, pc, asr r8
    1e7c:	a501af05 	strge	sl, [r1, #-3845]	; 0xfffff0fb
    1e80:	0500000e 	streq	r0, [r0, #-14]
    1e84:	13c801b0 	bicne	r0, r8, #176, 2	; 0x2c
    1e88:	b1050000 	mrslt	r0, (UNDEF: 5)
    1e8c:	0025e301 	eoreq	lr, r5, r1, lsl #6
    1e90:	01b50500 			; <UNDEFINED> instruction: 0x01b50500
    1e94:	000066af 	andeq	r6, r0, pc, lsr #13
    1e98:	8601b605 	strhi	fp, [r1], -r5, lsl #12
    1e9c:	05000078 	streq	r0, [r0, #-120]	; 0xffffff88
    1ea0:	896601b7 	stmdbhi	r6!, {r0, r1, r2, r4, r5, r7, r8}^
    1ea4:	b8050000 	stmdalt	r5, {}	; <UNPREDICTABLE>
    1ea8:	00931d01 	addseq	r1, r3, r1, lsl #26
    1eac:	01bc0500 			; <UNDEFINED> instruction: 0x01bc0500
    1eb0:	000084f4 	strdeq	r8, [r0], -r4
    1eb4:	ae01bd05 	cdpge	13, 0, cr11, cr1, cr5, {0}
    1eb8:	0500003f 	streq	r0, [r0, #-63]	; 0xffffffc1
    1ebc:	233d01be 	teqcs	sp, #-2147483601	; 0x8000002f
    1ec0:	bf050000 	svclt	0x00050000
    1ec4:	006fed01 	rsbeq	lr, pc, r1, lsl #26
    1ec8:	01c30500 	biceq	r0, r3, r0, lsl #10
    1ecc:	00000b36 	andeq	r0, r0, r6, lsr fp
    1ed0:	c601c405 	strgt	ip, [r1], -r5, lsl #8
    1ed4:	05000005 	streq	r0, [r0, #-5]
    1ed8:	77ae01c5 	strvc	r0, [lr, r5, asr #3]!
    1edc:	c6050000 	strgt	r0, [r5], -r0
    1ee0:	00323401 	eorseq	r3, r2, r1, lsl #8
    1ee4:	01cb0500 	biceq	r0, fp, r0, lsl #10
    1ee8:	000024b4 			; <UNDEFINED> instruction: 0x000024b4
    1eec:	8b01cc05 	blhi	74f08 <_Min_Stack_Size+0x74b08>
    1ef0:	0500000b 	streq	r0, [r0, #-11]
    1ef4:	5bf601cd 	blpl	ffd82630 <_estack+0xdfd7fe30>
    1ef8:	d1050000 	mrsle	r0, (UNDEF: 5)
    1efc:	0081ab01 	addeq	sl, r1, r1, lsl #22
    1f00:	01d20500 	bicseq	r0, r2, r0, lsl #10
    1f04:	000017cc 	andeq	r1, r0, ip, asr #15
    1f08:	02000400 	andeq	r0, r0, #0, 8
    1f0c:	000007de 	ldrdeq	r0, [r0], -lr
    1f10:	00016207 	andeq	r6, r1, r7, lsl #4
    1f14:	01000300 	mrseq	r0, LR_irq
    1f18:	05040903 	streq	r0, [r4, #-2307]	; 0xfffff6fd
    1f1c:	0088e909 	addeq	lr, r8, r9, lsl #18
    1f20:	070d0300 	streq	r0, [sp, -r0, lsl #6]
    1f24:	80210805 	eorhi	r0, r1, r5, lsl #16
    1f28:	0a030000 	beq	c1f30 <_Min_Stack_Size+0xc1b30>
    1f2c:	0bea0708 	bleq	ffa83b54 <_estack+0xdfa81354>
    1f30:	03040000 	movweq	r0, #16384	; 0x4000
    1f34:	0805090b 	stmdaeq	r5, {r0, r1, r3, r8, fp}
    1f38:	000053c7 	andeq	r5, r0, r7, asr #7
    1f3c:	050a0a03 	streq	r0, [sl, #-2563]	; 0xfffff5fd
    1f40:	00128f08 	andseq	r8, r2, r8, lsl #30
    1f44:	0b0e0300 	bleq	382b4c <_Min_Stack_Size+0x38274c>
    1f48:	000c0207 	andeq	r0, ip, r7, lsl #4
    1f4c:	24070400 	strcs	r0, [r7], #-1024	; 0xfffffc00
    1f50:	0400000c 	streq	r0, [r0], #-12
    1f54:	050c0b03 	streq	r0, [ip, #-2819]	; 0xfffff4fd
    1f58:	007f3d02 	rsbseq	r3, pc, r2, lsl #26
    1f5c:	08040300 	stmdaeq	r4, {r8, r9}
    1f60:	0d050304 	stceq	3, cr0, [r5, #-16]
    1f64:	000c7007 	andeq	r7, ip, r7
    1f68:	04070400 	streq	r0, [r7], #-1024	; 0xfffffc00
    1f6c:	0400000d 	streq	r0, [r0], #-13
    1f70:	000d4007 	andeq	r4, sp, r7
    1f74:	74070400 	strvc	r0, [r7], #-1024	; 0xfffffc00
    1f78:	0300000d 	movweq	r0, #13
    1f7c:	8a070e10 	bhi	1c57c4 <_Min_Stack_Size+0x1c53c4>
    1f80:	0400000d 	streq	r0, [r0], #-13
    1f84:	050f1203 	streq	r1, [pc, #-515]	; 1d89 <_Min_Stack_Size+0x1989>
    1f88:	0057440b 	subseq	r4, r7, fp, lsl #8
    1f8c:	090d0300 	stmdbeq	sp, {r8, r9}
    1f90:	0e0e0304 	cdpeq	3, 0, cr0, cr14, cr4, {0}
    1f94:	000e9807 	andeq	r9, lr, r7, lsl #16
    1f98:	0f030400 	svceq	0x00030400
    1f9c:	0f250710 	svceq	0x00250710
    1fa0:	18030000 	stmdane	r3, {}	; <UNPREDICTABLE>
    1fa4:	0f3b070e 	svceq	0x003b070e
    1fa8:	03040000 	movweq	r0, #16384	; 0x4000
    1fac:	0605111b 			; <UNDEFINED> instruction: 0x0605111b
    1fb0:	00005b9f 	muleq	r0, pc, fp	; <UNPREDICTABLE>
    1fb4:	07020703 	streq	r0, [r2, -r3, lsl #14]
    1fb8:	00000f7e 	andeq	r0, r0, lr, ror pc
    1fbc:	d5070404 	strle	r0, [r7, #-1028]	; 0xfffffbfc
    1fc0:	0400000f 	streq	r0, [r0], #-15
    1fc4:	00100907 	andseq	r0, r0, r7, lsl #18
    1fc8:	12220300 	eorne	r0, r2, #0, 6
    1fcc:	00101907 	andseq	r1, r0, r7, lsl #18
    1fd0:	71070400 	tstvc	r7, r0, lsl #8
    1fd4:	03000010 	movweq	r0, #16
    1fd8:	071303f7 			; <UNDEFINED> instruction: 0x071303f7
    1fdc:	000010e2 	andeq	r1, r0, r2, ror #1
    1fe0:	10fe0704 	rscsne	r0, lr, r4, lsl #14
    1fe4:	03040000 	movweq	r0, #16384	; 0x4000
    1fe8:	2b051413 	blcs	14703c <_Min_Stack_Size+0x146c3c>
    1fec:	0000836b 	andeq	r8, r0, fp, ror #6
    1ff0:	040e2f03 	streq	r2, [lr], #-3843	; 0xfffff0fd
    1ff4:	00122807 	andseq	r2, r2, r7, lsl #16
    1ff8:	14030400 	strne	r0, [r3], #-1024	; 0xfffffc00
    1ffc:	ec020515 	cfstr32	mvfx0, [r2], {21}
    2000:	04000026 	streq	r0, [r0], #-38	; 0xffffffda
    2004:	07161603 	ldreq	r1, [r6, -r3, lsl #12]
    2008:	00001569 	andeq	r1, r0, r9, ror #10
    200c:	157f0704 	ldrbne	r0, [pc, #-1796]!	; 1910 <_Min_Stack_Size+0x1510>
    2010:	03040000 	movweq	r0, #16384	; 0x4000
    2014:	0903170e 	stmdbeq	r3, {r1, r2, r3, r8, r9, sl, ip}
    2018:	c30a0518 	movwgt	r0, #42264	; 0xa518
    201c:	03000006 	movweq	r0, #6
    2020:	a807190d 	stmdage	r7, {r0, r2, r3, r8, fp, ip}
    2024:	04000015 	streq	r0, [r0], #-21	; 0xffffffeb
    2028:	07030e03 	streq	r0, [r3, -r3, lsl #28]
    202c:	000016ab 	andeq	r1, r0, fp, lsr #13
    2030:	17150704 	ldrne	r0, [r5, -r4, lsl #14]
    2034:	05040000 	streq	r0, [r4, #-0]
    2038:	0006ba0d 	andeq	fp, r6, sp, lsl #20
    203c:	f4070400 	vst3.8	{d0-d2}, [r7], r0
    2040:	04000018 	streq	r0, [r0], #-24	; 0xffffffe8
    2044:	05060a03 	streq	r0, [r6, #-2563]	; 0xfffff5fd
    2048:	0078d809 	rsbseq	sp, r8, r9, lsl #16
    204c:	040e0300 	streq	r0, [lr], #-768	; 0xfffffd00
    2050:	050f0304 	streq	r0, [pc, #-772]	; 1d54 <_Min_Stack_Size+0x1954>
    2054:	00206c07 	eoreq	r6, r0, r7, lsl #24
    2058:	55070400 	strpl	r0, [r7, #-1024]	; 0xfffffc00
    205c:	0400001c 	streq	r0, [r0], #-28	; 0xffffffe4
    2060:	04050b03 	streq	r0, [r5], #-2819	; 0xfffff4fd
    2064:	94b95b05 	ldrtls	r5, [r9], #2821	; 0xb05
    2068:	00040000 	andeq	r0, r4, r0
    206c:	05000004 	streq	r0, [r0, #-4]
    2070:	003d5509 	eorseq	r5, sp, r9, lsl #10
    2074:	1a0c0500 	bne	30347c <_Min_Stack_Size+0x30307c>
    2078:	05000024 	streq	r0, [r0, #-36]	; 0xffffffdc
    207c:	0032d90d 	eorseq	sp, r2, sp, lsl #18
    2080:	47200500 	strmi	r0, [r0, -r0, lsl #10]!
    2084:	0500005b 	streq	r0, [r0, #-91]	; 0xffffffa5
    2088:	005fb621 	subseq	fp, pc, r1, lsr #12
    208c:	15220500 	strne	r0, [r2, #-1280]!	; 0xfffffb00
    2090:	05000086 	streq	r0, [r0, #-134]	; 0xffffff7a
    2094:	00888123 	addeq	r8, r8, r3, lsr #2
    2098:	77240500 	strvc	r0, [r4, -r0, lsl #10]!
    209c:	0500000c 	streq	r0, [r0, #-12]
    20a0:	00271525 	eoreq	r1, r7, r5, lsr #10
    20a4:	39260500 	stmdbcc	r6!, {r8, sl}
    20a8:	05000047 	streq	r0, [r0, #-71]	; 0xffffffb9
    20ac:	000d7927 	andeq	r7, sp, r7, lsr #18
    20b0:	c2280500 	eorgt	r0, r8, #0, 10
    20b4:	05000050 	streq	r0, [r0, #-80]	; 0xffffffb0
    20b8:	00883229 	addeq	r3, r8, r9, lsr #4
    20bc:	a82a0500 	stmdage	sl!, {r8, sl}
    20c0:	0500008b 	streq	r0, [r0, #-139]	; 0xffffff75
    20c4:	006e882b 	rsbeq	r8, lr, fp, lsr #16
    20c8:	cc2c0500 	cfstr32gt	mvfx0, [ip], #-0
    20cc:	05000026 	streq	r0, [r0, #-38]	; 0xffffffda
    20d0:	0033df2d 	eorseq	sp, r3, sp, lsr #30
    20d4:	952e0500 	strls	r0, [lr, #-1280]!	; 0xfffffb00
    20d8:	05000015 	streq	r0, [r0, #-21]	; 0xffffffeb
    20dc:	006c292f 	rsbeq	r2, ip, pc, lsr #18
    20e0:	88300500 	ldmdahi	r0!, {r8, sl}
    20e4:	05000073 	streq	r0, [r0, #-115]	; 0xffffff8d
    20e8:	0086bb32 	addeq	fp, r6, r2, lsr fp
    20ec:	f5440500 			; <UNDEFINED> instruction: 0xf5440500
    20f0:	0500002e 	streq	r0, [r0, #-46]	; 0xffffffd2
    20f4:	0042e845 	subeq	lr, r2, r5, asr #16
    20f8:	34460500 	strbcc	r0, [r6], #-1280	; 0xfffffb00
    20fc:	05000076 	streq	r0, [r0, #-118]	; 0xffffff8a
    2100:	003f1b47 	eorseq	r1, pc, r7, asr #22
    2104:	5a480500 	bpl	120350c <_Min_Stack_Size+0x120310c>
    2108:	05000063 	streq	r0, [r0, #-99]	; 0xffffff9d
    210c:	0070f049 	rsbseq	pc, r0, r9, asr #32
    2110:	be4a0500 	cdplt	5, 4, cr0, cr10, cr0, {0}
    2114:	0500004f 	streq	r0, [r0, #-79]	; 0xffffffb1
    2118:	0025514b 	eoreq	r5, r5, fp, asr #2
    211c:	dd4c0500 	cfstr64le	mvdx0, [ip, #-0]
    2120:	0500007b 	streq	r0, [r0, #-123]	; 0xffffff85
    2124:	00629157 	rsbeq	r9, r2, r7, asr r1
    2128:	06580500 	ldrbeq	r0, [r8], -r0, lsl #10
    212c:	0500008c 	streq	r0, [r0, #-140]	; 0xffffff74
    2130:	003cb059 	eorseq	fp, ip, r9, asr r0
    2134:	00040000 	andeq	r0, r4, r0
    2138:	0012f602 	andseq	pc, r2, r2, lsl #12
    213c:	01620700 	cmneq	r2, r0, lsl #14
    2140:	00030000 	andeq	r0, r3, r0
    2144:	05120301 	ldreq	r0, [r2, #-769]	; 0xfffffcff
    2148:	000bd407 	andeq	sp, fp, r7, lsl #8
    214c:	04100300 	ldreq	r0, [r0], #-768	; 0xfffffd00
    2150:	88e90905 	stmiahi	r9!, {r0, r2, r8, fp}^
    2154:	0d030000 	stceq	0, cr0, [r3, #-0]
    2158:	21080506 	tstcs	r8, r6, lsl #10
    215c:	03000080 	movweq	r0, #128	; 0x80
    2160:	ea07070a 	b	1c3d90 <_Min_Stack_Size+0x1c3990>
    2164:	0400000b 	streq	r0, [r0], #-11
    2168:	05080b03 	streq	r0, [r8, #-2819]	; 0xfffff4fd
    216c:	0053c708 	subseq	ip, r3, r8, lsl #14
    2170:	090a0300 	stmdbeq	sl, {r8, r9}
    2174:	128f0805 	addne	r0, pc, #327680	; 0x50000
    2178:	0e030000 	cdpeq	0, 0, cr0, cr3, cr0, {0}
    217c:	0c02070a 	stceq	7, cr0, [r2], {10}
    2180:	07040000 	streq	r0, [r4, -r0]
    2184:	00000c24 	andeq	r0, r0, r4, lsr #24
    2188:	0b0b0304 	bleq	2c2da0 <_Min_Stack_Size+0x2c29a0>
    218c:	7f3d0205 	svcvc	0x003d0205
    2190:	04030000 	streq	r0, [r3], #-0
    2194:	05030407 	streq	r0, [r3, #-1031]	; 0xfffffbf9
    2198:	0c70070c 	ldcleq	7, cr0, [r0], #-48	; 0xffffffd0
    219c:	07040000 	streq	r0, [r4, -r0]
    21a0:	00000d04 	andeq	r0, r0, r4, lsl #26
    21a4:	0d400704 	stcleq	7, cr0, [r0, #-16]
    21a8:	07040000 	streq	r0, [r4, -r0]
    21ac:	00000d74 	andeq	r0, r0, r4, ror sp
    21b0:	070d1003 	streq	r1, [sp, -r3]
    21b4:	00000d8a 	andeq	r0, r0, sl, lsl #27
    21b8:	0e120304 	cdpeq	3, 1, cr0, cr2, cr4, {0}
    21bc:	57440b05 	strbpl	r0, [r4, -r5, lsl #22]
    21c0:	0d030000 	stceq	0, cr0, [r3, #-0]
    21c4:	0e030408 	cdpeq	4, 0, cr0, cr3, cr8, {0}
    21c8:	0e98070d 	cdpeq	7, 9, cr0, cr8, cr13, {0}
    21cc:	03040000 	movweq	r0, #16384	; 0x4000
    21d0:	25070f0f 	strcs	r0, [r7, #-3855]	; 0xfffff0f1
    21d4:	0300000f 	movweq	r0, #15
    21d8:	3b070d18 	blcc	1c5640 <_Min_Stack_Size+0x1c5240>
    21dc:	0400000f 	streq	r0, [r0], #-15
    21e0:	05101b03 	ldreq	r1, [r0, #-2819]	; 0xfffff4fd
    21e4:	005b9f06 	subseq	r9, fp, r6, lsl #30
    21e8:	02070300 	andeq	r0, r7, #0, 6
    21ec:	000f7e07 	andeq	r7, pc, r7, lsl #28
    21f0:	07040400 	streq	r0, [r4, -r0, lsl #8]
    21f4:	00000fd5 	ldrdeq	r0, [r0], -r5
    21f8:	10090704 	andne	r0, r9, r4, lsl #14
    21fc:	22030000 	andcs	r0, r3, #0
    2200:	10190711 	andsne	r0, r9, r1, lsl r7
    2204:	07040000 	streq	r0, [r4, -r0]
    2208:	00001071 	andeq	r1, r0, r1, ror r0
    220c:	1203f703 	andne	pc, r3, #786432	; 0xc0000
    2210:	0010e207 	andseq	lr, r0, r7, lsl #4
    2214:	fe070400 	cdp2	4, 0, cr0, cr7, cr0, {0}
    2218:	04000010 	streq	r0, [r0], #-16
    221c:	05131303 	ldreq	r1, [r3, #-771]	; 0xfffffcfd
    2220:	00836b2b 	addeq	r6, r3, fp, lsr #22
    2224:	0d2f0300 	stceq	3, cr0, [pc, #-0]	; 222c <_Min_Stack_Size+0x1e2c>
    2228:	12280704 	eorne	r0, r8, #4, 14	; 0x100000
    222c:	03040000 	movweq	r0, #16384	; 0x4000
    2230:	02051414 	andeq	r1, r5, #20, 8	; 0x14000000
    2234:	000026ec 	andeq	r2, r0, ip, ror #13
    2238:	15160304 	ldrne	r0, [r6, #-772]	; 0xfffffcfc
    223c:	00156907 	andseq	r6, r5, r7, lsl #18
    2240:	7f070400 	svcvc	0x00070400
    2244:	04000015 	streq	r0, [r0], #-21	; 0xffffffeb
    2248:	03160e03 	tsteq	r6, #3, 28	; 0x30
    224c:	0a051709 	beq	147e78 <_Min_Stack_Size+0x147a78>
    2250:	000006c3 	andeq	r0, r0, r3, asr #13
    2254:	07180d03 	ldreq	r0, [r8, -r3, lsl #26]
    2258:	000015a8 	andeq	r1, r0, r8, lsr #11
    225c:	030e0304 	movweq	r0, #58116	; 0xe304
    2260:	0016ab07 	andseq	sl, r6, r7, lsl #22
    2264:	15070400 	strne	r0, [r7, #-1024]	; 0xfffffc00
    2268:	04000017 	streq	r0, [r0], #-23	; 0xffffffe9
    226c:	06ba0d05 	ldrteq	r0, [sl], r5, lsl #26
    2270:	07040000 	streq	r0, [r4, -r0]
    2274:	000018f4 	strdeq	r1, [r0], -r4
    2278:	1b9d0704 	blne	fe743e90 <_estack+0xde741690>
    227c:	03040000 	movweq	r0, #16384	; 0x4000
    2280:	04040413 	streq	r0, [r4], #-1043	; 0xfffffbed
	...

Disassembly of section .debug_line:

00000000 <.debug_line>:
       0:	00000756 	andeq	r0, r0, r6, asr r7
       4:	06c00003 	strbeq	r0, [r0], r3
       8:	01020000 	mrseq	r0, (UNDEF: 2)
       c:	000d0efb 	strdeq	r0, [sp], -fp
      10:	01010101 	tsteq	r1, r1, lsl #2
      14:	01000000 	mrseq	r0, (UNDEF: 0)
      18:	2e010000 	cdpcs	0, 0, cr0, cr1, cr0, {0}
      1c:	72532f2e 	subsvc	r2, r3, #46, 30	; 0xb8
      20:	3a670063 	bcc	19c01b4 <_Min_Stack_Size+0x19bfdb4>
      24:	2e6e655c 	mcrcs	5, 3, r6, cr14, cr12, {2}
      28:	732d7473 			; <UNDEFINED> instruction: 0x732d7473
      2c:	32336d74 	eorscc	r6, r3, #116, 26	; 0x1d00
      30:	65627563 	strbvs	r7, [r2, #-1379]!	; 0xfffffa9d
      34:	5f656469 	svcpl	0x00656469
      38:	2e342e31 	mrccs	14, 1, r2, cr4, cr1, {1}
      3c:	35375f30 	ldrcc	r5, [r7, #-3888]!	; 0xfffff0d0
      40:	325f3131 	subscc	r3, pc, #1073741836	; 0x4000000c
      44:	30303230 	eorscc	r3, r0, r0, lsr r2
      48:	5f303237 	svcpl	0x00303237
      4c:	38323930 	ldmdacc	r2!, {r4, r5, r8, fp, ip, sp}
      50:	3638785f 			; <UNDEFINED> instruction: 0x3638785f
      54:	5f34365f 	svcpl	0x0034365f
      58:	5c657865 	stclpl	8, cr7, [r5], #-404	; 0xfffffe6c
      5c:	336d7473 	cmncc	sp, #1929379840	; 0x73000000
      60:	62756332 	rsbsvs	r6, r5, #-939524096	; 0xc8000000
      64:	65646965 	strbvs	r6, [r4, #-2405]!	; 0xfffff69b
      68:	342e315f 	strtcc	r3, [lr], #-351	; 0xfffffea1
      6c:	735c302e 	cmpvc	ip, #46	; 0x2e
      70:	32336d74 	eorscc	r6, r3, #116, 26	; 0x1d00
      74:	65627563 	strbvs	r7, [r2, #-1379]!	; 0xfffffa9d
      78:	5c656469 	cfstrdpl	mvd6, [r5], #-420	; 0xfffffe5c
      7c:	67756c70 			; <UNDEFINED> instruction: 0x67756c70
      80:	5c736e69 	ldclpl	14, cr6, [r3], #-420	; 0xfffffe5c
      84:	2e6d6f63 	cdpcs	15, 6, cr6, cr13, cr3, {3}
      88:	732e7473 			; <UNDEFINED> instruction: 0x732e7473
      8c:	32336d74 	eorscc	r6, r3, #116, 26	; 0x1d00
      90:	65627563 	strbvs	r7, [r2, #-1379]!	; 0xfffffa9d
      94:	6564692e 	strbvs	r6, [r4, #-2350]!	; 0xfffff6d2
      98:	75636d2e 	strbvc	r6, [r3, #-3374]!	; 0xfffff2d2
      9c:	7478652e 	ldrbtvc	r6, [r8], #-1326	; 0xfffffad2
      a0:	616e7265 	cmnvs	lr, r5, ror #4
      a4:	6f6f746c 	svcvs	0x006f746c
      a8:	672e736c 	strvs	r7, [lr, -ip, ror #6]!
      ac:	742d756e 	strtvc	r7, [sp], #-1390	; 0xfffffa92
      b0:	736c6f6f 	cmnvc	ip, #444	; 0x1bc
      b4:	726f662d 	rsbvc	r6, pc, #47185920	; 0x2d00000
      b8:	6d74732d 	ldclvs	3, cr7, [r4, #-180]!	; 0xffffff4c
      bc:	312e3233 			; <UNDEFINED> instruction: 0x312e3233
      c0:	2d332e30 	ldccs	14, cr2, [r3, #-192]!	; 0xffffff40
      c4:	31323032 	teqcc	r2, r2, lsr r0
      c8:	2e30312e 	rsfcssp	f3, f0, #0.5
      cc:	336e6977 	cmncc	lr, #1949696	; 0x1dc000
      d0:	2e315f32 	mrccs	15, 1, r5, cr1, cr2, {1}
      d4:	30322e30 	eorscc	r2, r2, r0, lsr lr
      d8:	30322e30 	eorscc	r2, r2, r0, lsr lr
      dc:	31303332 	teqcc	r0, r2, lsr r3
      e0:	30313631 	eorscc	r3, r1, r1, lsr r6
      e4:	745c3330 	ldrbvc	r3, [ip], #-816	; 0xfffffcd0
      e8:	736c6f6f 	cmnvc	ip, #444	; 0x1bc
      ec:	6e69625c 	mcrvs	2, 3, r6, cr9, cr12, {2}
      f0:	2f2e2e5c 	svccs	0x002e2e5c
      f4:	2f62696c 	svccs	0x0062696c
      f8:	2f636367 	svccs	0x00636367
      fc:	2d6d7261 	sfmcs	f7, 2, [sp, #-388]!	; 0xfffffe7c
     100:	656e6f6e 	strbvs	r6, [lr, #-3950]!	; 0xfffff092
     104:	6261652d 	rsbvs	r6, r1, #188743680	; 0xb400000
     108:	30312f69 	eorscc	r2, r1, r9, ror #30
     10c:	312e332e 			; <UNDEFINED> instruction: 0x312e332e
     110:	2f2e2e2f 	svccs	0x002e2e2f
     114:	2e2f2e2e 	cdpcs	14, 2, cr2, cr15, cr14, {1}
     118:	2e2e2f2e 	cdpcs	15, 2, cr2, cr14, cr14, {1}
     11c:	6d72612f 	ldfvse	f6, [r2, #-188]!	; 0xffffff44
     120:	6e6f6e2d 	cdpvs	14, 6, cr6, cr15, cr13, {1}
     124:	61652d65 	cmnvs	r5, r5, ror #26
     128:	692f6962 	stmdbvs	pc!, {r1, r5, r6, r8, fp, sp, lr}	; <UNPREDICTABLE>
     12c:	756c636e 	strbvc	r6, [ip, #-878]!	; 0xfffffc92
     130:	6d2f6564 	cfstr32vs	mvfx6, [pc, #-400]!	; ffffffa8 <_estack+0xdfffd7a8>
     134:	69686361 	stmdbvs	r8!, {r0, r5, r6, r8, r9, sp, lr}^
     138:	6700656e 	strvs	r6, [r0, -lr, ror #10]
     13c:	6e655c3a 	mcrvs	12, 3, r5, cr5, cr10, {1}
     140:	2d74732e 	ldclcs	3, cr7, [r4, #-184]!	; 0xffffff48
     144:	336d7473 	cmncc	sp, #1929379840	; 0x73000000
     148:	62756332 	rsbsvs	r6, r5, #-939524096	; 0xc8000000
     14c:	65646965 	strbvs	r6, [r4, #-2405]!	; 0xfffff69b
     150:	342e315f 	strtcc	r3, [lr], #-351	; 0xfffffea1
     154:	375f302e 	ldrbcc	r3, [pc, -lr, lsr #32]
     158:	5f313135 	svcpl	0x00313135
     15c:	30323032 	eorscc	r3, r2, r2, lsr r0
     160:	30323730 	eorscc	r3, r2, r0, lsr r7
     164:	3239305f 	eorscc	r3, r9, #95	; 0x5f
     168:	38785f38 	ldmdacc	r8!, {r3, r4, r5, r8, r9, sl, fp, ip, lr}^
     16c:	34365f36 	ldrtcc	r5, [r6], #-3894	; 0xfffff0ca
     170:	6578655f 	ldrbvs	r6, [r8, #-1375]!	; 0xfffffaa1
     174:	6d74735c 	ldclvs	3, cr7, [r4, #-368]!	; 0xfffffe90
     178:	75633233 	strbvc	r3, [r3, #-563]!	; 0xfffffdcd
     17c:	64696562 	strbtvs	r6, [r9], #-1378	; 0xfffffa9e
     180:	2e315f65 	cdpcs	15, 3, cr5, cr1, cr5, {3}
     184:	5c302e34 	ldcpl	14, cr2, [r0], #-208	; 0xffffff30
     188:	336d7473 	cmncc	sp, #1929379840	; 0x73000000
     18c:	62756332 	rsbsvs	r6, r5, #-939524096	; 0xc8000000
     190:	65646965 	strbvs	r6, [r4, #-2405]!	; 0xfffff69b
     194:	756c705c 	strbvc	r7, [ip, #-92]!	; 0xffffffa4
     198:	736e6967 	cmnvc	lr, #1687552	; 0x19c000
     19c:	6d6f635c 	stclvs	3, cr6, [pc, #-368]!	; 34 <_Min_Heap_Size-0x1cc>
     1a0:	2e74732e 	cdpcs	3, 7, cr7, cr4, cr14, {1}
     1a4:	336d7473 	cmncc	sp, #1929379840	; 0x73000000
     1a8:	62756332 	rsbsvs	r6, r5, #-939524096	; 0xc8000000
     1ac:	64692e65 	strbtvs	r2, [r9], #-3685	; 0xfffff19b
     1b0:	636d2e65 	cmnvs	sp, #1616	; 0x650
     1b4:	78652e75 	stmdavc	r5!, {r0, r2, r4, r5, r6, r9, sl, fp, sp}^
     1b8:	6e726574 	mrcvs	5, 3, r6, cr2, cr4, {3}
     1bc:	6f746c61 	svcvs	0x00746c61
     1c0:	2e736c6f 	cdpcs	12, 7, cr6, cr3, cr15, {3}
     1c4:	2d756e67 	ldclcs	14, cr6, [r5, #-412]!	; 0xfffffe64
     1c8:	6c6f6f74 	stclvs	15, cr6, [pc], #-464	; 0 <_Min_Heap_Size-0x200>
     1cc:	6f662d73 	svcvs	0x00662d73
     1d0:	74732d72 	ldrbtvc	r2, [r3], #-3442	; 0xfffff28e
     1d4:	2e32336d 	cdpcs	3, 3, cr3, cr2, cr13, {3}
     1d8:	332e3031 			; <UNDEFINED> instruction: 0x332e3031
     1dc:	3230322d 	eorscc	r3, r0, #-805306366	; 0xd0000002
     1e0:	30312e31 	eorscc	r2, r1, r1, lsr lr
     1e4:	6e69772e 	cdpvs	7, 6, cr7, cr9, cr14, {1}
     1e8:	315f3233 	cmpcc	pc, r3, lsr r2	; <UNPREDICTABLE>
     1ec:	322e302e 	eorcc	r3, lr, #46	; 0x2e
     1f0:	322e3030 	eorcc	r3, lr, #48	; 0x30
     1f4:	30333230 	eorscc	r3, r3, r0, lsr r2
     1f8:	31363131 	teqcc	r6, r1, lsr r1
     1fc:	5c333030 	ldcpl	0, cr3, [r3], #-192	; 0xffffff40
     200:	6c6f6f74 	stclvs	15, cr6, [pc], #-464	; 38 <_Min_Heap_Size-0x1c8>
     204:	69625c73 	stmdbvs	r2!, {r0, r1, r4, r5, r6, sl, fp, ip, lr}^
     208:	2e2e5c6e 	cdpcs	12, 2, cr5, cr14, cr14, {3}
     20c:	62696c2f 	rsbvs	r6, r9, #12032	; 0x2f00
     210:	6363672f 	cmnvs	r3, #12320768	; 0xbc0000
     214:	6d72612f 	ldfvse	f6, [r2, #-188]!	; 0xffffff44
     218:	6e6f6e2d 	cdpvs	14, 6, cr6, cr15, cr13, {1}
     21c:	61652d65 	cmnvs	r5, r5, ror #26
     220:	312f6962 			; <UNDEFINED> instruction: 0x312f6962
     224:	2e332e30 	mrccs	14, 1, r2, cr3, cr0, {1}
     228:	2e2e2f31 	mcrcs	15, 1, r2, cr14, cr1, {1}
     22c:	2f2e2e2f 	svccs	0x002e2e2f
     230:	2e2f2e2e 	cdpcs	14, 2, cr2, cr15, cr14, {1}
     234:	72612f2e 	rsbvc	r2, r1, #46, 30	; 0xb8
     238:	6f6e2d6d 	svcvs	0x006e2d6d
     23c:	652d656e 	strvs	r6, [sp, #-1390]!	; 0xfffffa92
     240:	2f696261 	svccs	0x00696261
     244:	6c636e69 	stclvs	14, cr6, [r3], #-420	; 0xfffffe5c
     248:	2f656475 	svccs	0x00656475
     24c:	00737973 	rsbseq	r7, r3, r3, ror r9
     250:	442f3a44 	strtmi	r3, [pc], #-2628	; 258 <_Min_Heap_Size+0x58>
     254:	65766972 	ldrbvs	r6, [r6, #-2418]!	; 0xfffff68e
     258:	732f7372 			; <UNDEFINED> instruction: 0x732f7372
     25c:	32336d74 	eorscc	r6, r3, #116, 26	; 0x1d00
     260:	3031665f 	eorscc	r6, r1, pc, asr r6
     264:	5f366333 	svcpl	0x00366333
     268:	76697264 	strbtvc	r7, [r9], -r4, ror #4
     26c:	2f737265 	svccs	0x00737265
     270:	00636e49 	rsbeq	r6, r3, r9, asr #28
     274:	655c3a67 	ldrbvs	r3, [ip, #-2663]	; 0xfffff599
     278:	74732e6e 	ldrbtvc	r2, [r3], #-3694	; 0xfffff192
     27c:	6d74732d 	ldclvs	3, cr7, [r4, #-180]!	; 0xffffff4c
     280:	75633233 	strbvc	r3, [r3, #-563]!	; 0xfffffdcd
     284:	64696562 	strbtvs	r6, [r9], #-1378	; 0xfffffa9e
     288:	2e315f65 	cdpcs	15, 3, cr5, cr1, cr5, {3}
     28c:	5f302e34 	svcpl	0x00302e34
     290:	31313537 	teqcc	r1, r7, lsr r5
     294:	3230325f 	eorscc	r3, r0, #-268435451	; 0xf0000005
     298:	32373030 	eorscc	r3, r7, #48	; 0x30
     29c:	39305f30 	ldmdbcc	r0!, {r4, r5, r8, r9, sl, fp, ip, lr}
     2a0:	785f3832 	ldmdavc	pc, {r1, r4, r5, fp, ip, sp}^	; <UNPREDICTABLE>
     2a4:	365f3638 			; <UNDEFINED> instruction: 0x365f3638
     2a8:	78655f34 	stmdavc	r5!, {r2, r4, r5, r8, r9, sl, fp, ip, lr}^
     2ac:	74735c65 	ldrbtvc	r5, [r3], #-3173	; 0xfffff39b
     2b0:	6332336d 	teqvs	r2, #-1275068415	; 0xb4000001
     2b4:	69656275 	stmdbvs	r5!, {r0, r2, r4, r5, r6, r9, sp, lr}^
     2b8:	315f6564 	cmpcc	pc, r4, ror #10
     2bc:	302e342e 	eorcc	r3, lr, lr, lsr #8
     2c0:	6d74735c 	ldclvs	3, cr7, [r4, #-368]!	; 0xfffffe90
     2c4:	75633233 	strbvc	r3, [r3, #-563]!	; 0xfffffdcd
     2c8:	64696562 	strbtvs	r6, [r9], #-1378	; 0xfffffa9e
     2cc:	6c705c65 	ldclvs	12, cr5, [r0], #-404	; 0xfffffe6c
     2d0:	6e696775 	mcrvs	7, 3, r6, cr9, cr5, {3}
     2d4:	6f635c73 	svcvs	0x00635c73
     2d8:	74732e6d 	ldrbtvc	r2, [r3], #-3693	; 0xfffff193
     2dc:	6d74732e 	ldclvs	3, cr7, [r4, #-184]!	; 0xffffff48
     2e0:	75633233 	strbvc	r3, [r3, #-563]!	; 0xfffffdcd
     2e4:	692e6562 	stmdbvs	lr!, {r1, r5, r6, r8, sl, sp, lr}
     2e8:	6d2e6564 	cfstr32vs	mvfx6, [lr, #-400]!	; 0xfffffe70
     2ec:	652e7563 	strvs	r7, [lr, #-1379]!	; 0xfffffa9d
     2f0:	72657478 	rsbvc	r7, r5, #120, 8	; 0x78000000
     2f4:	746c616e 	strbtvc	r6, [ip], #-366	; 0xfffffe92
     2f8:	736c6f6f 	cmnvc	ip, #444	; 0x1bc
     2fc:	756e672e 	strbvc	r6, [lr, #-1838]!	; 0xfffff8d2
     300:	6f6f742d 	svcvs	0x006f742d
     304:	662d736c 	strtvs	r7, [sp], -ip, ror #6
     308:	732d726f 			; <UNDEFINED> instruction: 0x732d726f
     30c:	32336d74 	eorscc	r6, r3, #116, 26	; 0x1d00
     310:	2e30312e 	rsfcssp	f3, f0, #0.5
     314:	30322d33 	eorscc	r2, r2, r3, lsr sp
     318:	312e3132 			; <UNDEFINED> instruction: 0x312e3132
     31c:	69772e30 	ldmdbvs	r7!, {r4, r5, r9, sl, fp, sp}^
     320:	5f32336e 	svcpl	0x0032336e
     324:	2e302e31 	mrccs	14, 1, r2, cr0, cr1, {1}
     328:	2e303032 	mrccs	0, 1, r3, cr0, cr2, {1}
     32c:	33323032 	teqcc	r2, #50	; 0x32
     330:	36313130 			; <UNDEFINED> instruction: 0x36313130
     334:	33303031 	teqcc	r0, #49	; 0x31
     338:	6f6f745c 	svcvs	0x006f745c
     33c:	625c736c 	subsvs	r7, ip, #108, 6	; 0xb0000001
     340:	2e5c6e69 	cdpcs	14, 5, cr6, cr12, cr9, {3}
     344:	696c2f2e 	stmdbvs	ip!, {r1, r2, r3, r5, r8, r9, sl, fp, sp}^
     348:	63672f62 	cmnvs	r7, #392	; 0x188
     34c:	72612f63 	rsbvc	r2, r1, #396	; 0x18c
     350:	6f6e2d6d 	svcvs	0x006e2d6d
     354:	652d656e 	strvs	r6, [sp, #-1390]!	; 0xfffffa92
     358:	2f696261 	svccs	0x00696261
     35c:	332e3031 			; <UNDEFINED> instruction: 0x332e3031
     360:	2e2f312e 	sufcsep	f3, f7, #0.5
     364:	2e2e2f2e 	cdpcs	15, 2, cr2, cr14, cr14, {1}
     368:	2f2e2e2f 	svccs	0x002e2e2f
     36c:	612f2e2e 			; <UNDEFINED> instruction: 0x612f2e2e
     370:	6e2d6d72 	mcrvs	13, 1, r6, cr13, cr2, {3}
     374:	2d656e6f 	stclcs	14, cr6, [r5, #-444]!	; 0xfffffe44
     378:	69626165 	stmdbvs	r2!, {r0, r2, r5, r6, r8, sp, lr}^
     37c:	636e692f 	cmnvs	lr, #770048	; 0xbc000
     380:	6564756c 	strbvs	r7, [r4, #-1388]!	; 0xfffffa94
     384:	5c3a6700 	ldcpl	7, cr6, [sl], #-0
     388:	732e6e65 			; <UNDEFINED> instruction: 0x732e6e65
     38c:	74732d74 	ldrbtvc	r2, [r3], #-3444	; 0xfffff28c
     390:	6332336d 	teqvs	r2, #-1275068415	; 0xb4000001
     394:	69656275 	stmdbvs	r5!, {r0, r2, r4, r5, r6, r9, sp, lr}^
     398:	315f6564 	cmpcc	pc, r4, ror #10
     39c:	302e342e 	eorcc	r3, lr, lr, lsr #8
     3a0:	3135375f 	teqcc	r5, pc, asr r7
     3a4:	30325f31 	eorscc	r5, r2, r1, lsr pc
     3a8:	37303032 			; <UNDEFINED> instruction: 0x37303032
     3ac:	305f3032 	subscc	r3, pc, r2, lsr r0	; <UNPREDICTABLE>
     3b0:	5f383239 	svcpl	0x00383239
     3b4:	5f363878 	svcpl	0x00363878
     3b8:	655f3436 	ldrbvs	r3, [pc, #-1078]	; ffffff8a <_estack+0xdfffd78a>
     3bc:	735c6578 	cmpvc	ip, #120, 10	; 0x1e000000
     3c0:	32336d74 	eorscc	r6, r3, #116, 26	; 0x1d00
     3c4:	65627563 	strbvs	r7, [r2, #-1379]!	; 0xfffffa9d
     3c8:	5f656469 	svcpl	0x00656469
     3cc:	2e342e31 	mrccs	14, 1, r2, cr4, cr1, {1}
     3d0:	74735c30 	ldrbtvc	r5, [r3], #-3120	; 0xfffff3d0
     3d4:	6332336d 	teqvs	r2, #-1275068415	; 0xb4000001
     3d8:	69656275 	stmdbvs	r5!, {r0, r2, r4, r5, r6, r9, sp, lr}^
     3dc:	705c6564 	subsvc	r6, ip, r4, ror #10
     3e0:	6967756c 	stmdbvs	r7!, {r2, r3, r5, r6, r8, sl, ip, sp, lr}^
     3e4:	635c736e 	cmpvs	ip, #-1207959551	; 0xb8000001
     3e8:	732e6d6f 			; <UNDEFINED> instruction: 0x732e6d6f
     3ec:	74732e74 	ldrbtvc	r2, [r3], #-3700	; 0xfffff18c
     3f0:	6332336d 	teqvs	r2, #-1275068415	; 0xb4000001
     3f4:	2e656275 	mcrcs	2, 3, r6, cr5, cr5, {3}
     3f8:	2e656469 	cdpcs	4, 6, cr6, cr5, cr9, {3}
     3fc:	2e75636d 	cdpcs	3, 7, cr6, cr5, cr13, {3}
     400:	65747865 	ldrbvs	r7, [r4, #-2149]!	; 0xfffff79b
     404:	6c616e72 	stclvs	14, cr6, [r1], #-456	; 0xfffffe38
     408:	6c6f6f74 	stclvs	15, cr6, [pc], #-464	; 240 <_Min_Heap_Size+0x40>
     40c:	6e672e73 	mcrvs	14, 3, r2, cr7, cr3, {3}
     410:	6f742d75 	svcvs	0x00742d75
     414:	2d736c6f 	ldclcs	12, cr6, [r3, #-444]!	; 0xfffffe44
     418:	2d726f66 	ldclcs	15, cr6, [r2, #-408]!	; 0xfffffe68
     41c:	336d7473 	cmncc	sp, #1929379840	; 0x73000000
     420:	30312e32 	eorscc	r2, r1, r2, lsr lr
     424:	322d332e 	eorcc	r3, sp, #-1207959552	; 0xb8000000
     428:	2e313230 	mrccs	2, 1, r3, cr1, cr0, {1}
     42c:	772e3031 			; <UNDEFINED> instruction: 0x772e3031
     430:	32336e69 	eorscc	r6, r3, #1680	; 0x690
     434:	302e315f 	eorcc	r3, lr, pc, asr r1
     438:	3030322e 	eorscc	r3, r0, lr, lsr #4
     43c:	3230322e 	eorscc	r3, r0, #-536870910	; 0xe0000002
     440:	31313033 	teqcc	r1, r3, lsr r0
     444:	30303136 	eorscc	r3, r0, r6, lsr r1
     448:	6f745c33 	svcvs	0x00745c33
     44c:	5c736c6f 	ldclpl	12, cr6, [r3], #-444	; 0xfffffe44
     450:	2d6d7261 	sfmcs	f7, 2, [sp, #-388]!	; 0xfffffe7c
     454:	656e6f6e 	strbvs	r6, [lr, #-3950]!	; 0xfffff092
     458:	6261652d 	rsbvs	r6, r1, #188743680	; 0xb400000
     45c:	6e695c69 	cdpvs	12, 6, cr5, cr9, cr9, {3}
     460:	64756c63 	ldrbtvs	r6, [r5], #-3171	; 0xfffff39d
     464:	656e5c65 	strbvs	r5, [lr, #-3173]!	; 0xfffff39b
     468:	62696c77 	rsbvs	r6, r9, #30464	; 0x7700
     46c:	6e616e2d 	cdpvs	14, 6, cr6, cr1, cr13, {1}
     470:	3a67006f 	bcc	19c0634 <_Min_Stack_Size+0x19c0234>
     474:	2e6e655c 	mcrcs	5, 3, r6, cr14, cr12, {2}
     478:	732d7473 			; <UNDEFINED> instruction: 0x732d7473
     47c:	32336d74 	eorscc	r6, r3, #116, 26	; 0x1d00
     480:	65627563 	strbvs	r7, [r2, #-1379]!	; 0xfffffa9d
     484:	5f656469 	svcpl	0x00656469
     488:	2e342e31 	mrccs	14, 1, r2, cr4, cr1, {1}
     48c:	35375f30 	ldrcc	r5, [r7, #-3888]!	; 0xfffff0d0
     490:	325f3131 	subscc	r3, pc, #1073741836	; 0x4000000c
     494:	30303230 	eorscc	r3, r0, r0, lsr r2
     498:	5f303237 	svcpl	0x00303237
     49c:	38323930 	ldmdacc	r2!, {r4, r5, r8, fp, ip, sp}
     4a0:	3638785f 			; <UNDEFINED> instruction: 0x3638785f
     4a4:	5f34365f 	svcpl	0x0034365f
     4a8:	5c657865 	stclpl	8, cr7, [r5], #-404	; 0xfffffe6c
     4ac:	336d7473 	cmncc	sp, #1929379840	; 0x73000000
     4b0:	62756332 	rsbsvs	r6, r5, #-939524096	; 0xc8000000
     4b4:	65646965 	strbvs	r6, [r4, #-2405]!	; 0xfffff69b
     4b8:	342e315f 	strtcc	r3, [lr], #-351	; 0xfffffea1
     4bc:	735c302e 	cmpvc	ip, #46	; 0x2e
     4c0:	32336d74 	eorscc	r6, r3, #116, 26	; 0x1d00
     4c4:	65627563 	strbvs	r7, [r2, #-1379]!	; 0xfffffa9d
     4c8:	5c656469 	cfstrdpl	mvd6, [r5], #-420	; 0xfffffe5c
     4cc:	67756c70 			; <UNDEFINED> instruction: 0x67756c70
     4d0:	5c736e69 	ldclpl	14, cr6, [r3], #-420	; 0xfffffe5c
     4d4:	2e6d6f63 	cdpcs	15, 6, cr6, cr13, cr3, {3}
     4d8:	732e7473 			; <UNDEFINED> instruction: 0x732e7473
     4dc:	32336d74 	eorscc	r6, r3, #116, 26	; 0x1d00
     4e0:	65627563 	strbvs	r7, [r2, #-1379]!	; 0xfffffa9d
     4e4:	6564692e 	strbvs	r6, [r4, #-2350]!	; 0xfffff6d2
     4e8:	75636d2e 	strbvc	r6, [r3, #-3374]!	; 0xfffff2d2
     4ec:	7478652e 	ldrbtvc	r6, [r8], #-1326	; 0xfffffad2
     4f0:	616e7265 	cmnvs	lr, r5, ror #4
     4f4:	6f6f746c 	svcvs	0x006f746c
     4f8:	672e736c 	strvs	r7, [lr, -ip, ror #6]!
     4fc:	742d756e 	strtvc	r7, [sp], #-1390	; 0xfffffa92
     500:	736c6f6f 	cmnvc	ip, #444	; 0x1bc
     504:	726f662d 	rsbvc	r6, pc, #47185920	; 0x2d00000
     508:	6d74732d 	ldclvs	3, cr7, [r4, #-180]!	; 0xffffff4c
     50c:	312e3233 			; <UNDEFINED> instruction: 0x312e3233
     510:	2d332e30 	ldccs	14, cr2, [r3, #-192]!	; 0xffffff40
     514:	31323032 	teqcc	r2, r2, lsr r0
     518:	2e30312e 	rsfcssp	f3, f0, #0.5
     51c:	336e6977 	cmncc	lr, #1949696	; 0x1dc000
     520:	2e315f32 	mrccs	15, 1, r5, cr1, cr2, {1}
     524:	30322e30 	eorscc	r2, r2, r0, lsr lr
     528:	30322e30 	eorscc	r2, r2, r0, lsr lr
     52c:	31303332 	teqcc	r0, r2, lsr r3
     530:	30313631 	eorscc	r3, r1, r1, lsr r6
     534:	745c3330 	ldrbvc	r3, [ip], #-816	; 0xfffffcd0
     538:	736c6f6f 	cmnvc	ip, #444	; 0x1bc
     53c:	62696c5c 	rsbvs	r6, r9, #92, 24	; 0x5c00
     540:	6363675c 	cmnvs	r3, #92, 14	; 0x1700000
     544:	6d72615c 	ldfvse	f6, [r2, #-368]!	; 0xfffffe90
     548:	6e6f6e2d 	cdpvs	14, 6, cr6, cr15, cr13, {1}
     54c:	61652d65 	cmnvs	r5, r5, ror #26
     550:	315c6962 	cmpcc	ip, r2, ror #18
     554:	2e332e30 	mrccs	14, 1, r2, cr3, cr0, {1}
     558:	6e695c31 	mcrvs	12, 3, r5, cr9, cr1, {1}
     55c:	64756c63 	ldrbtvs	r6, [r5], #-3171	; 0xfffff39d
     560:	6d000065 	stcvs	0, cr0, [r0, #-404]	; 0xfffffe6c
     564:	2e6e6961 	vnmulcs.f16	s13, s28, s3	; <UNPREDICTABLE>
     568:	00010063 	andeq	r0, r1, r3, rrx
     56c:	65645f00 	strbvs	r5, [r4, #-3840]!	; 0xfffff100
     570:	6c756166 	ldfvse	f6, [r5], #-408	; 0xfffffe68
     574:	79745f74 	ldmdbvc	r4!, {r2, r4, r5, r6, r8, r9, sl, fp, ip, lr}^
     578:	2e736570 	mrccs	5, 3, r6, cr3, cr0, {3}
     57c:	00020068 	andeq	r0, r2, r8, rrx
     580:	74735f00 	ldrbtvc	r5, [r3], #-3840	; 0xfffff100
     584:	746e6964 	strbtvc	r6, [lr], #-2404	; 0xfffff69c
     588:	0300682e 	movweq	r6, #2094	; 0x82e
     58c:	74730000 	ldrbtvc	r0, [r3], #-0
     590:	5f32336d 	svcpl	0x0032336d
     594:	33303166 	teqcc	r0, #-2147483623	; 0x80000019
     598:	682e3678 	stmdavs	lr!, {r3, r4, r5, r6, r9, sl, ip, sp}
     59c:	00000400 	andeq	r0, r0, r0, lsl #8
     5a0:	336d7473 	cmncc	sp, #1929379840	; 0x73000000
     5a4:	31665f32 	cmncc	r6, r2, lsr pc
     5a8:	36633330 			; <UNDEFINED> instruction: 0x36633330
     5ac:	6972645f 	ldmdbvs	r2!, {r0, r1, r2, r3, r4, r6, sl, sp, lr}^
     5b0:	73726576 	cmnvc	r2, #494927872	; 0x1d800000
     5b4:	5458455f 	ldrbpl	r4, [r8], #-1375	; 0xfffffaa1
     5b8:	00682e49 	rsbeq	r2, r8, r9, asr #28
     5bc:	73000004 	movwvc	r0, #4
     5c0:	32336d74 	eorscc	r6, r3, #116, 26	; 0x1d00
     5c4:	3031665f 	eorscc	r6, r1, pc, asr r6
     5c8:	5f366333 	svcpl	0x00366333
     5cc:	76697264 	strbtvc	r7, [r9], -r4, ror #4
     5d0:	5f737265 	svcpl	0x00737265
     5d4:	4f495047 	svcmi	0x00495047
     5d8:	0400682e 	streq	r6, [r0], #-2094	; 0xfffff7d2
     5dc:	74730000 	ldrbtvc	r0, [r3], #-0
     5e0:	62696c64 	rsbvs	r6, r9, #100, 24	; 0x6400
     5e4:	0500682e 	streq	r6, [r0, #-2094]	; 0xfffff7d2
     5e8:	65690000 	strbvs	r0, [r9, #-0]!
     5ec:	70666565 	rsbvc	r6, r6, r5, ror #10
     5f0:	0200682e 	andeq	r6, r0, #3014656	; 0x2e0000
     5f4:	615f0000 	cmpvs	pc, r0
     5f8:	2e69736e 	cdpcs	3, 6, cr7, cr9, cr14, {3}
     5fc:	00050068 	andeq	r0, r5, r8, rrx
     600:	77656e00 	strbvc	r6, [r5, -r0, lsl #28]!
     604:	2e62696c 	vnmulcs.f16	s13, s4, s25	; <UNPREDICTABLE>
     608:	00060068 	andeq	r0, r6, r8, rrx
     60c:	656e5f00 	strbvs	r5, [lr, #-3840]!	; 0xfffff100
     610:	62696c77 	rsbvs	r6, r9, #30464	; 0x7700
     614:	7265765f 	rsbvc	r7, r5, #99614720	; 0x5f00000
     618:	6e6f6973 			; <UNDEFINED> instruction: 0x6e6f6973
     61c:	0500682e 	streq	r6, [r0, #-2094]	; 0xfffff7d2
     620:	6f630000 	svcvs	0x00630000
     624:	6769666e 	strbvs	r6, [r9, -lr, ror #12]!
     628:	0300682e 	movweq	r6, #2094	; 0x82e
     62c:	65660000 	strbvs	r0, [r6, #-0]!
     630:	72757461 	rsbsvc	r7, r5, #1627389952	; 0x61000000
     634:	682e7365 	stmdavs	lr!, {r0, r2, r5, r6, r8, r9, ip, sp, lr}
     638:	00000300 	andeq	r0, r0, r0, lsl #6
     63c:	64647473 	strbtvs	r7, [r4], #-1139	; 0xfffffb8d
     640:	682e6665 	stmdavs	lr!, {r0, r2, r5, r6, r9, sl, sp, lr}
     644:	00000700 	andeq	r0, r0, r0, lsl #14
     648:	6e656572 	mcrvs	5, 3, r6, cr5, cr2, {3}
     64c:	00682e74 	rsbeq	r2, r8, r4, ror lr
     650:	5f000003 	svcpl	0x00000003
     654:	65707974 	ldrbvs	r7, [r0, #-2420]!	; 0xfffff68c
     658:	00682e73 	rsbeq	r2, r8, r3, ror lr
     65c:	5f000003 	svcpl	0x00000003
     660:	65707974 	ldrbvs	r7, [r0, #-2420]!	; 0xfffff68c
     664:	00682e73 	rsbeq	r2, r8, r3, ror lr
     668:	6c000002 	stcvs	0, cr0, [r0], {2}
     66c:	2e6b636f 	cdpcs	3, 6, cr6, cr11, cr15, {3}
     670:	00030068 	andeq	r0, r3, r8, rrx
     674:	73736100 	cmnvc	r3, #0, 2
     678:	2e747265 	cdpcs	2, 7, cr7, cr4, cr5, {3}
     67c:	00050068 	andeq	r0, r5, r8, rrx
     680:	65646300 	strbvs	r6, [r4, #-768]!	; 0xfffffd00
     684:	682e7366 	stmdavs	lr!, {r1, r2, r5, r6, r8, r9, ip, sp, lr}
     688:	00000300 	andeq	r0, r0, r0, lsl #6
     68c:	6c647473 	cfstrdvs	mvd7, [r4], #-460	; 0xfffffe34
     690:	682e6269 	stmdavs	lr!, {r0, r3, r5, r6, r9, sp, lr}
     694:	00000200 	andeq	r0, r0, r0, lsl #4
     698:	6f6c6c61 	svcvs	0x006c6c61
     69c:	682e6163 	stmdavs	lr!, {r0, r1, r5, r6, r8, sp, lr}
     6a0:	00000500 	andeq	r0, r0, r0, lsl #10
     6a4:	69647473 	stmdbvs	r4!, {r0, r1, r4, r5, r6, sl, ip, sp, lr}^
     6a8:	682e746e 	stmdavs	lr!, {r1, r2, r3, r5, r6, sl, ip, sp, lr}
     6ac:	00000700 	andeq	r0, r0, r0, lsl #14
     6b0:	69647473 	stmdbvs	r4!, {r0, r1, r4, r5, r6, sl, ip, sp, lr}^
     6b4:	682e746e 	stmdavs	lr!, {r1, r2, r3, r5, r6, sl, ip, sp, lr}
     6b8:	00000500 	andeq	r0, r0, r0, lsl #10
     6bc:	746e695f 	strbtvc	r6, [lr], #-2399	; 0xfffff6a1
     6c0:	2e707573 	mrccs	5, 3, r7, cr0, cr3, {3}
     6c4:	00030068 	andeq	r0, r3, r8, rrx
     6c8:	01050000 	mrseq	r0, (UNDEF: 5)
     6cc:	70020500 	andvc	r0, r2, r0, lsl #10
     6d0:	03080001 	movweq	r0, #32769	; 0x8001
     6d4:	02050121 	andeq	r0, r5, #1073741832	; 0x40000008
     6d8:	03010559 	movweq	r0, #5465	; 0x1559
     6dc:	04055810 	streq	r5, [r5], #-2064	; 0xfffff7f0
     6e0:	86207203 	strthi	r7, [r0], -r3, lsl #4
     6e4:	01056923 	tsteq	r5, r3, lsr #18
     6e8:	00050224 	andeq	r0, r5, r4, lsr #4
     6ec:	01050101 	tsteq	r5, r1, lsl #2
     6f0:	b0020500 	andlt	r0, r2, r0, lsl #10
     6f4:	03080001 	movweq	r0, #32769	; 0x8001
     6f8:	02050134 	andeq	r0, r5, #52, 2
     6fc:	3d01052f 	cfstr32cc	mvfx0, [r1, #-188]	; 0xffffff44
     700:	01000202 	tsteq	r0, r2, lsl #4
     704:	00010501 	andeq	r0, r1, r1, lsl #10
     708:	01c00205 	biceq	r0, r0, r5, lsl #4
     70c:	38030800 	stmdacc	r3, {fp}
     710:	2f020501 	svccs	0x00020501
     714:	0b05303d 	bleq	14c810 <_Min_Stack_Size+0x14c410>
     718:	3d01053e 	cfstr32cc	mvfx0, [r1, #-248]	; 0xffffff08
     71c:	01000702 	tsteq	r0, r2, lsl #14
     720:	00010501 	andeq	r0, r1, r1, lsl #10
     724:	01e80205 	mvneq	r0, r5, lsl #4
     728:	c2030800 	andgt	r0, r3, #0, 16
     72c:	02050100 	andeq	r0, r5, #0, 2
     730:	0568673f 	strbeq	r6, [r8, #-1855]!	; 0xfffff8c1
     734:	18053f14 	stmdane	r5, {r2, r4, r8, r9, sl, fp, ip, sp}
     738:	2f1a0567 	svccs	0x001a0567
     73c:	052f1305 	streq	r1, [pc, #-773]!	; 43f <_Min_Stack_Size+0x3f>
     740:	2f5a2f05 	svccs	0x005a2f05
     744:	0e053130 	flteqsp	f5, r3
     748:	3f06053e 	svccc	0x0006053e
     74c:	052e0505 	streq	r0, [lr, #-1285]!	; 0xfffffafb
     750:	0505310c 	streq	r3, [r5, #-268]	; 0xfffffef4
     754:	000a0239 	andeq	r0, sl, r9, lsr r2
     758:	00800101 	addeq	r0, r0, r1, lsl #2
     75c:	00030000 	andeq	r0, r3, r0
     760:	00000039 	andeq	r0, r0, r9, lsr r0
     764:	0efb0102 	cdpeq	1, 15, cr0, cr11, cr2, {0}
     768:	0101000d 	tsteq	r1, sp
     76c:	00000101 	andeq	r0, r0, r1, lsl #2
     770:	00000100 	andeq	r0, r0, r0, lsl #2
     774:	2f2e2e01 	svccs	0x002e2e01
     778:	72617453 	rsbvc	r7, r1, #1392508928	; 0x53000000
     77c:	00707574 	rsbseq	r7, r0, r4, ror r5
     780:	61747300 	cmnvs	r4, r0, lsl #6
     784:	70757472 	rsbsvc	r7, r5, r2, ror r4
     788:	6d74735f 	ldclvs	3, cr7, [r4, #-380]!	; 0xfffffe84
     78c:	31663233 	cmncc	r6, r3, lsr r2
     790:	36633330 			; <UNDEFINED> instruction: 0x36633330
     794:	732e7874 			; <UNDEFINED> instruction: 0x732e7874
     798:	00000100 	andeq	r0, r0, r0, lsl #2
     79c:	02050000 	andeq	r0, r5, #0
     7a0:	08000268 	stmdaeq	r0, {r3, r5, r6, r9}
     7a4:	21013a03 	tstcs	r1, r3, lsl #20
     7a8:	21213122 			; <UNDEFINED> instruction: 0x21213122
     7ac:	21232121 			; <UNDEFINED> instruction: 0x21232121
     7b0:	21212321 			; <UNDEFINED> instruction: 0x21212321
     7b4:	21212123 			; <UNDEFINED> instruction: 0x21212123
     7b8:	21232123 			; <UNDEFINED> instruction: 0x21232123
     7bc:	03313023 	teqeq	r1, #35	; 0x23
     7c0:	2f342056 	svccs	0x00342056
     7c4:	2e0f032f 	cdpcs	3, 0, cr0, cr15, cr15, {1}
     7c8:	0002022f 	andeq	r0, r2, pc, lsr #4
     7cc:	05000101 	streq	r0, [r0, #-257]	; 0xfffffeff
     7d0:	0002b802 	andeq	fp, r2, r2, lsl #16
     7d4:	00f30308 	rscseq	r0, r3, r8, lsl #6
     7d8:	00010201 	andeq	r0, r1, r1, lsl #4
     7dc:	0b140101 	bleq	500be8 <_Min_Stack_Size+0x5007e8>
     7e0:	00030000 	andeq	r0, r3, r0
     7e4:	000006e6 	andeq	r0, r0, r6, ror #13
     7e8:	0efb0102 	cdpeq	1, 15, cr0, cr11, cr2, {0}
     7ec:	0101000d 	tsteq	r1, sp
     7f0:	00000101 	andeq	r0, r0, r1, lsl #2
     7f4:	00000100 	andeq	r0, r0, r0, lsl #2
     7f8:	2f2e2e01 	svccs	0x002e2e01
     7fc:	336d7473 	cmncc	sp, #1929379840	; 0x73000000
     800:	31665f32 	cmncc	r6, r2, lsr pc
     804:	36633330 			; <UNDEFINED> instruction: 0x36633330
     808:	6972645f 	ldmdbvs	r2!, {r0, r1, r2, r3, r4, r6, sl, sp, lr}^
     80c:	73726576 	cmnvc	r2, #494927872	; 0x1d800000
     810:	5c3a6700 	ldcpl	7, cr6, [sl], #-0
     814:	732e6e65 			; <UNDEFINED> instruction: 0x732e6e65
     818:	74732d74 	ldrbtvc	r2, [r3], #-3444	; 0xfffff28c
     81c:	6332336d 	teqvs	r2, #-1275068415	; 0xb4000001
     820:	69656275 	stmdbvs	r5!, {r0, r2, r4, r5, r6, r9, sp, lr}^
     824:	315f6564 	cmpcc	pc, r4, ror #10
     828:	302e342e 	eorcc	r3, lr, lr, lsr #8
     82c:	3135375f 	teqcc	r5, pc, asr r7
     830:	30325f31 	eorscc	r5, r2, r1, lsr pc
     834:	37303032 			; <UNDEFINED> instruction: 0x37303032
     838:	305f3032 	subscc	r3, pc, r2, lsr r0	; <UNPREDICTABLE>
     83c:	5f383239 	svcpl	0x00383239
     840:	5f363878 	svcpl	0x00363878
     844:	655f3436 	ldrbvs	r3, [pc, #-1078]	; 416 <_Min_Stack_Size+0x16>
     848:	735c6578 	cmpvc	ip, #120, 10	; 0x1e000000
     84c:	32336d74 	eorscc	r6, r3, #116, 26	; 0x1d00
     850:	65627563 	strbvs	r7, [r2, #-1379]!	; 0xfffffa9d
     854:	5f656469 	svcpl	0x00656469
     858:	2e342e31 	mrccs	14, 1, r2, cr4, cr1, {1}
     85c:	74735c30 	ldrbtvc	r5, [r3], #-3120	; 0xfffff3d0
     860:	6332336d 	teqvs	r2, #-1275068415	; 0xb4000001
     864:	69656275 	stmdbvs	r5!, {r0, r2, r4, r5, r6, r9, sp, lr}^
     868:	705c6564 	subsvc	r6, ip, r4, ror #10
     86c:	6967756c 	stmdbvs	r7!, {r2, r3, r5, r6, r8, sl, ip, sp, lr}^
     870:	635c736e 	cmpvs	ip, #-1207959551	; 0xb8000001
     874:	732e6d6f 			; <UNDEFINED> instruction: 0x732e6d6f
     878:	74732e74 	ldrbtvc	r2, [r3], #-3700	; 0xfffff18c
     87c:	6332336d 	teqvs	r2, #-1275068415	; 0xb4000001
     880:	2e656275 	mcrcs	2, 3, r6, cr5, cr5, {3}
     884:	2e656469 	cdpcs	4, 6, cr6, cr5, cr9, {3}
     888:	2e75636d 	cdpcs	3, 7, cr6, cr5, cr13, {3}
     88c:	65747865 	ldrbvs	r7, [r4, #-2149]!	; 0xfffff79b
     890:	6c616e72 	stclvs	14, cr6, [r1], #-456	; 0xfffffe38
     894:	6c6f6f74 	stclvs	15, cr6, [pc], #-464	; 6cc <_Min_Stack_Size+0x2cc>
     898:	6e672e73 	mcrvs	14, 3, r2, cr7, cr3, {3}
     89c:	6f742d75 	svcvs	0x00742d75
     8a0:	2d736c6f 	ldclcs	12, cr6, [r3, #-444]!	; 0xfffffe44
     8a4:	2d726f66 	ldclcs	15, cr6, [r2, #-408]!	; 0xfffffe68
     8a8:	336d7473 	cmncc	sp, #1929379840	; 0x73000000
     8ac:	30312e32 	eorscc	r2, r1, r2, lsr lr
     8b0:	322d332e 	eorcc	r3, sp, #-1207959552	; 0xb8000000
     8b4:	2e313230 	mrccs	2, 1, r3, cr1, cr0, {1}
     8b8:	772e3031 			; <UNDEFINED> instruction: 0x772e3031
     8bc:	32336e69 	eorscc	r6, r3, #1680	; 0x690
     8c0:	302e315f 	eorcc	r3, lr, pc, asr r1
     8c4:	3030322e 	eorscc	r3, r0, lr, lsr #4
     8c8:	3230322e 	eorscc	r3, r0, #-536870910	; 0xe0000002
     8cc:	31313033 	teqcc	r1, r3, lsr r0
     8d0:	30303136 	eorscc	r3, r0, r6, lsr r1
     8d4:	6f745c33 	svcvs	0x00745c33
     8d8:	5c736c6f 	ldclpl	12, cr6, [r3], #-444	; 0xfffffe44
     8dc:	5c6e6962 			; <UNDEFINED> instruction: 0x5c6e6962
     8e0:	6c2f2e2e 	stcvs	14, cr2, [pc], #-184	; 830 <_Min_Stack_Size+0x430>
     8e4:	672f6269 	strvs	r6, [pc, -r9, ror #4]!
     8e8:	612f6363 			; <UNDEFINED> instruction: 0x612f6363
     8ec:	6e2d6d72 	mcrvs	13, 1, r6, cr13, cr2, {3}
     8f0:	2d656e6f 	stclcs	14, cr6, [r5, #-444]!	; 0xfffffe44
     8f4:	69626165 	stmdbvs	r2!, {r0, r2, r5, r6, r8, sp, lr}^
     8f8:	2e30312f 	rsfcssp	f3, f0, #10.0
     8fc:	2f312e33 	svccs	0x00312e33
     900:	2e2f2e2e 	cdpcs	14, 2, cr2, cr15, cr14, {1}
     904:	2e2e2f2e 	cdpcs	15, 2, cr2, cr14, cr14, {1}
     908:	2f2e2e2f 	svccs	0x002e2e2f
     90c:	2d6d7261 	sfmcs	f7, 2, [sp, #-388]!	; 0xfffffe7c
     910:	656e6f6e 	strbvs	r6, [lr, #-3950]!	; 0xfffff092
     914:	6261652d 	rsbvs	r6, r1, #188743680	; 0xb400000
     918:	6e692f69 	cdpvs	15, 6, cr2, cr9, cr9, {3}
     91c:	64756c63 	ldrbtvs	r6, [r5], #-3171	; 0xfffff39d
     920:	616d2f65 	cmnvs	sp, r5, ror #30
     924:	6e696863 	cdpvs	8, 6, cr6, cr9, cr3, {3}
     928:	3a670065 	bcc	19c0ac4 <_Min_Stack_Size+0x19c06c4>
     92c:	2e6e655c 	mcrcs	5, 3, r6, cr14, cr12, {2}
     930:	732d7473 			; <UNDEFINED> instruction: 0x732d7473
     934:	32336d74 	eorscc	r6, r3, #116, 26	; 0x1d00
     938:	65627563 	strbvs	r7, [r2, #-1379]!	; 0xfffffa9d
     93c:	5f656469 	svcpl	0x00656469
     940:	2e342e31 	mrccs	14, 1, r2, cr4, cr1, {1}
     944:	35375f30 	ldrcc	r5, [r7, #-3888]!	; 0xfffff0d0
     948:	325f3131 	subscc	r3, pc, #1073741836	; 0x4000000c
     94c:	30303230 	eorscc	r3, r0, r0, lsr r2
     950:	5f303237 	svcpl	0x00303237
     954:	38323930 	ldmdacc	r2!, {r4, r5, r8, fp, ip, sp}
     958:	3638785f 			; <UNDEFINED> instruction: 0x3638785f
     95c:	5f34365f 	svcpl	0x0034365f
     960:	5c657865 	stclpl	8, cr7, [r5], #-404	; 0xfffffe6c
     964:	336d7473 	cmncc	sp, #1929379840	; 0x73000000
     968:	62756332 	rsbsvs	r6, r5, #-939524096	; 0xc8000000
     96c:	65646965 	strbvs	r6, [r4, #-2405]!	; 0xfffff69b
     970:	342e315f 	strtcc	r3, [lr], #-351	; 0xfffffea1
     974:	735c302e 	cmpvc	ip, #46	; 0x2e
     978:	32336d74 	eorscc	r6, r3, #116, 26	; 0x1d00
     97c:	65627563 	strbvs	r7, [r2, #-1379]!	; 0xfffffa9d
     980:	5c656469 	cfstrdpl	mvd6, [r5], #-420	; 0xfffffe5c
     984:	67756c70 			; <UNDEFINED> instruction: 0x67756c70
     988:	5c736e69 	ldclpl	14, cr6, [r3], #-420	; 0xfffffe5c
     98c:	2e6d6f63 	cdpcs	15, 6, cr6, cr13, cr3, {3}
     990:	732e7473 			; <UNDEFINED> instruction: 0x732e7473
     994:	32336d74 	eorscc	r6, r3, #116, 26	; 0x1d00
     998:	65627563 	strbvs	r7, [r2, #-1379]!	; 0xfffffa9d
     99c:	6564692e 	strbvs	r6, [r4, #-2350]!	; 0xfffff6d2
     9a0:	75636d2e 	strbvc	r6, [r3, #-3374]!	; 0xfffff2d2
     9a4:	7478652e 	ldrbtvc	r6, [r8], #-1326	; 0xfffffad2
     9a8:	616e7265 	cmnvs	lr, r5, ror #4
     9ac:	6f6f746c 	svcvs	0x006f746c
     9b0:	672e736c 	strvs	r7, [lr, -ip, ror #6]!
     9b4:	742d756e 	strtvc	r7, [sp], #-1390	; 0xfffffa92
     9b8:	736c6f6f 	cmnvc	ip, #444	; 0x1bc
     9bc:	726f662d 	rsbvc	r6, pc, #47185920	; 0x2d00000
     9c0:	6d74732d 	ldclvs	3, cr7, [r4, #-180]!	; 0xffffff4c
     9c4:	312e3233 			; <UNDEFINED> instruction: 0x312e3233
     9c8:	2d332e30 	ldccs	14, cr2, [r3, #-192]!	; 0xffffff40
     9cc:	31323032 	teqcc	r2, r2, lsr r0
     9d0:	2e30312e 	rsfcssp	f3, f0, #0.5
     9d4:	336e6977 	cmncc	lr, #1949696	; 0x1dc000
     9d8:	2e315f32 	mrccs	15, 1, r5, cr1, cr2, {1}
     9dc:	30322e30 	eorscc	r2, r2, r0, lsr lr
     9e0:	30322e30 	eorscc	r2, r2, r0, lsr lr
     9e4:	31303332 	teqcc	r0, r2, lsr r3
     9e8:	30313631 	eorscc	r3, r1, r1, lsr r6
     9ec:	745c3330 	ldrbvc	r3, [ip], #-816	; 0xfffffcd0
     9f0:	736c6f6f 	cmnvc	ip, #444	; 0x1bc
     9f4:	6e69625c 	mcrvs	2, 3, r6, cr9, cr12, {2}
     9f8:	2f2e2e5c 	svccs	0x002e2e5c
     9fc:	2f62696c 	svccs	0x0062696c
     a00:	2f636367 	svccs	0x00636367
     a04:	2d6d7261 	sfmcs	f7, 2, [sp, #-388]!	; 0xfffffe7c
     a08:	656e6f6e 	strbvs	r6, [lr, #-3950]!	; 0xfffff092
     a0c:	6261652d 	rsbvs	r6, r1, #188743680	; 0xb400000
     a10:	30312f69 	eorscc	r2, r1, r9, ror #30
     a14:	312e332e 			; <UNDEFINED> instruction: 0x312e332e
     a18:	2f2e2e2f 	svccs	0x002e2e2f
     a1c:	2e2f2e2e 	cdpcs	14, 2, cr2, cr15, cr14, {1}
     a20:	2e2e2f2e 	cdpcs	15, 2, cr2, cr14, cr14, {1}
     a24:	6d72612f 	ldfvse	f6, [r2, #-188]!	; 0xffffff44
     a28:	6e6f6e2d 	cdpvs	14, 6, cr6, cr15, cr13, {1}
     a2c:	61652d65 	cmnvs	r5, r5, ror #26
     a30:	692f6962 	stmdbvs	pc!, {r1, r5, r6, r8, fp, sp, lr}	; <UNPREDICTABLE>
     a34:	756c636e 	strbvc	r6, [ip, #-878]!	; 0xfffffc92
     a38:	732f6564 			; <UNDEFINED> instruction: 0x732f6564
     a3c:	44007379 	strmi	r7, [r0], #-889	; 0xfffffc87
     a40:	72442f3a 	subvc	r2, r4, #58, 30	; 0xe8
     a44:	72657669 	rsbvc	r7, r5, #110100480	; 0x6900000
     a48:	74732f73 	ldrbtvc	r2, [r3], #-3955	; 0xfffff08d
     a4c:	5f32336d 	svcpl	0x0032336d
     a50:	33303166 	teqcc	r0, #-2147483623	; 0x80000019
     a54:	645f3663 	ldrbvs	r3, [pc], #-1635	; a5c <_Min_Stack_Size+0x65c>
     a58:	65766972 	ldrbvs	r6, [r6, #-2418]!	; 0xfffff68e
     a5c:	492f7372 	stmdbmi	pc!, {r1, r4, r5, r6, r8, r9, ip, sp, lr}	; <UNPREDICTABLE>
     a60:	6700636e 	strvs	r6, [r0, -lr, ror #6]
     a64:	6e655c3a 	mcrvs	12, 3, r5, cr5, cr10, {1}
     a68:	2d74732e 	ldclcs	3, cr7, [r4, #-184]!	; 0xffffff48
     a6c:	336d7473 	cmncc	sp, #1929379840	; 0x73000000
     a70:	62756332 	rsbsvs	r6, r5, #-939524096	; 0xc8000000
     a74:	65646965 	strbvs	r6, [r4, #-2405]!	; 0xfffff69b
     a78:	342e315f 	strtcc	r3, [lr], #-351	; 0xfffffea1
     a7c:	375f302e 	ldrbcc	r3, [pc, -lr, lsr #32]
     a80:	5f313135 	svcpl	0x00313135
     a84:	30323032 	eorscc	r3, r2, r2, lsr r0
     a88:	30323730 	eorscc	r3, r2, r0, lsr r7
     a8c:	3239305f 	eorscc	r3, r9, #95	; 0x5f
     a90:	38785f38 	ldmdacc	r8!, {r3, r4, r5, r8, r9, sl, fp, ip, lr}^
     a94:	34365f36 	ldrtcc	r5, [r6], #-3894	; 0xfffff0ca
     a98:	6578655f 	ldrbvs	r6, [r8, #-1375]!	; 0xfffffaa1
     a9c:	6d74735c 	ldclvs	3, cr7, [r4, #-368]!	; 0xfffffe90
     aa0:	75633233 	strbvc	r3, [r3, #-563]!	; 0xfffffdcd
     aa4:	64696562 	strbtvs	r6, [r9], #-1378	; 0xfffffa9e
     aa8:	2e315f65 	cdpcs	15, 3, cr5, cr1, cr5, {3}
     aac:	5c302e34 	ldcpl	14, cr2, [r0], #-208	; 0xffffff30
     ab0:	336d7473 	cmncc	sp, #1929379840	; 0x73000000
     ab4:	62756332 	rsbsvs	r6, r5, #-939524096	; 0xc8000000
     ab8:	65646965 	strbvs	r6, [r4, #-2405]!	; 0xfffff69b
     abc:	756c705c 	strbvc	r7, [ip, #-92]!	; 0xffffffa4
     ac0:	736e6967 	cmnvc	lr, #1687552	; 0x19c000
     ac4:	6d6f635c 	stclvs	3, cr6, [pc, #-368]!	; 95c <_Min_Stack_Size+0x55c>
     ac8:	2e74732e 	cdpcs	3, 7, cr7, cr4, cr14, {1}
     acc:	336d7473 	cmncc	sp, #1929379840	; 0x73000000
     ad0:	62756332 	rsbsvs	r6, r5, #-939524096	; 0xc8000000
     ad4:	64692e65 	strbtvs	r2, [r9], #-3685	; 0xfffff19b
     ad8:	636d2e65 	cmnvs	sp, #1616	; 0x650
     adc:	78652e75 	stmdavc	r5!, {r0, r2, r4, r5, r6, r9, sl, fp, sp}^
     ae0:	6e726574 	mrcvs	5, 3, r6, cr2, cr4, {3}
     ae4:	6f746c61 	svcvs	0x00746c61
     ae8:	2e736c6f 	cdpcs	12, 7, cr6, cr3, cr15, {3}
     aec:	2d756e67 	ldclcs	14, cr6, [r5, #-412]!	; 0xfffffe64
     af0:	6c6f6f74 	stclvs	15, cr6, [pc], #-464	; 928 <_Min_Stack_Size+0x528>
     af4:	6f662d73 	svcvs	0x00662d73
     af8:	74732d72 	ldrbtvc	r2, [r3], #-3442	; 0xfffff28e
     afc:	2e32336d 	cdpcs	3, 3, cr3, cr2, cr13, {3}
     b00:	332e3031 			; <UNDEFINED> instruction: 0x332e3031
     b04:	3230322d 	eorscc	r3, r0, #-805306366	; 0xd0000002
     b08:	30312e31 	eorscc	r2, r1, r1, lsr lr
     b0c:	6e69772e 	cdpvs	7, 6, cr7, cr9, cr14, {1}
     b10:	315f3233 	cmpcc	pc, r3, lsr r2	; <UNPREDICTABLE>
     b14:	322e302e 	eorcc	r3, lr, #46	; 0x2e
     b18:	322e3030 	eorcc	r3, lr, #48	; 0x30
     b1c:	30333230 	eorscc	r3, r3, r0, lsr r2
     b20:	31363131 	teqcc	r6, r1, lsr r1
     b24:	5c333030 	ldcpl	0, cr3, [r3], #-192	; 0xffffff40
     b28:	6c6f6f74 	stclvs	15, cr6, [pc], #-464	; 960 <_Min_Stack_Size+0x560>
     b2c:	69625c73 	stmdbvs	r2!, {r0, r1, r4, r5, r6, sl, fp, ip, lr}^
     b30:	2e2e5c6e 	cdpcs	12, 2, cr5, cr14, cr14, {3}
     b34:	62696c2f 	rsbvs	r6, r9, #12032	; 0x2f00
     b38:	6363672f 	cmnvs	r3, #12320768	; 0xbc0000
     b3c:	6d72612f 	ldfvse	f6, [r2, #-188]!	; 0xffffff44
     b40:	6e6f6e2d 	cdpvs	14, 6, cr6, cr15, cr13, {1}
     b44:	61652d65 	cmnvs	r5, r5, ror #26
     b48:	312f6962 			; <UNDEFINED> instruction: 0x312f6962
     b4c:	2e332e30 	mrccs	14, 1, r2, cr3, cr0, {1}
     b50:	2e2e2f31 	mcrcs	15, 1, r2, cr14, cr1, {1}
     b54:	2f2e2e2f 	svccs	0x002e2e2f
     b58:	2e2f2e2e 	cdpcs	14, 2, cr2, cr15, cr14, {1}
     b5c:	72612f2e 	rsbvc	r2, r1, #46, 30	; 0xb8
     b60:	6f6e2d6d 	svcvs	0x006e2d6d
     b64:	652d656e 	strvs	r6, [sp, #-1390]!	; 0xfffffa92
     b68:	2f696261 	svccs	0x00696261
     b6c:	6c636e69 	stclvs	14, cr6, [r3], #-420	; 0xfffffe5c
     b70:	00656475 	rsbeq	r6, r5, r5, ror r4
     b74:	655c3a67 	ldrbvs	r3, [ip, #-2663]	; 0xfffff599
     b78:	74732e6e 	ldrbtvc	r2, [r3], #-3694	; 0xfffff192
     b7c:	6d74732d 	ldclvs	3, cr7, [r4, #-180]!	; 0xffffff4c
     b80:	75633233 	strbvc	r3, [r3, #-563]!	; 0xfffffdcd
     b84:	64696562 	strbtvs	r6, [r9], #-1378	; 0xfffffa9e
     b88:	2e315f65 	cdpcs	15, 3, cr5, cr1, cr5, {3}
     b8c:	5f302e34 	svcpl	0x00302e34
     b90:	31313537 	teqcc	r1, r7, lsr r5
     b94:	3230325f 	eorscc	r3, r0, #-268435451	; 0xf0000005
     b98:	32373030 	eorscc	r3, r7, #48	; 0x30
     b9c:	39305f30 	ldmdbcc	r0!, {r4, r5, r8, r9, sl, fp, ip, lr}
     ba0:	785f3832 	ldmdavc	pc, {r1, r4, r5, fp, ip, sp}^	; <UNPREDICTABLE>
     ba4:	365f3638 			; <UNDEFINED> instruction: 0x365f3638
     ba8:	78655f34 	stmdavc	r5!, {r2, r4, r5, r8, r9, sl, fp, ip, lr}^
     bac:	74735c65 	ldrbtvc	r5, [r3], #-3173	; 0xfffff39b
     bb0:	6332336d 	teqvs	r2, #-1275068415	; 0xb4000001
     bb4:	69656275 	stmdbvs	r5!, {r0, r2, r4, r5, r6, r9, sp, lr}^
     bb8:	315f6564 	cmpcc	pc, r4, ror #10
     bbc:	302e342e 	eorcc	r3, lr, lr, lsr #8
     bc0:	6d74735c 	ldclvs	3, cr7, [r4, #-368]!	; 0xfffffe90
     bc4:	75633233 	strbvc	r3, [r3, #-563]!	; 0xfffffdcd
     bc8:	64696562 	strbtvs	r6, [r9], #-1378	; 0xfffffa9e
     bcc:	6c705c65 	ldclvs	12, cr5, [r0], #-404	; 0xfffffe6c
     bd0:	6e696775 	mcrvs	7, 3, r6, cr9, cr5, {3}
     bd4:	6f635c73 	svcvs	0x00635c73
     bd8:	74732e6d 	ldrbtvc	r2, [r3], #-3693	; 0xfffff193
     bdc:	6d74732e 	ldclvs	3, cr7, [r4, #-184]!	; 0xffffff48
     be0:	75633233 	strbvc	r3, [r3, #-563]!	; 0xfffffdcd
     be4:	692e6562 	stmdbvs	lr!, {r1, r5, r6, r8, sl, sp, lr}
     be8:	6d2e6564 	cfstr32vs	mvfx6, [lr, #-400]!	; 0xfffffe70
     bec:	652e7563 	strvs	r7, [lr, #-1379]!	; 0xfffffa9d
     bf0:	72657478 	rsbvc	r7, r5, #120, 8	; 0x78000000
     bf4:	746c616e 	strbtvc	r6, [ip], #-366	; 0xfffffe92
     bf8:	736c6f6f 	cmnvc	ip, #444	; 0x1bc
     bfc:	756e672e 	strbvc	r6, [lr, #-1838]!	; 0xfffff8d2
     c00:	6f6f742d 	svcvs	0x006f742d
     c04:	662d736c 	strtvs	r7, [sp], -ip, ror #6
     c08:	732d726f 			; <UNDEFINED> instruction: 0x732d726f
     c0c:	32336d74 	eorscc	r6, r3, #116, 26	; 0x1d00
     c10:	2e30312e 	rsfcssp	f3, f0, #0.5
     c14:	30322d33 	eorscc	r2, r2, r3, lsr sp
     c18:	312e3132 			; <UNDEFINED> instruction: 0x312e3132
     c1c:	69772e30 	ldmdbvs	r7!, {r4, r5, r9, sl, fp, sp}^
     c20:	5f32336e 	svcpl	0x0032336e
     c24:	2e302e31 	mrccs	14, 1, r2, cr0, cr1, {1}
     c28:	2e303032 	mrccs	0, 1, r3, cr0, cr2, {1}
     c2c:	33323032 	teqcc	r2, #50	; 0x32
     c30:	36313130 			; <UNDEFINED> instruction: 0x36313130
     c34:	33303031 	teqcc	r0, #49	; 0x31
     c38:	6f6f745c 	svcvs	0x006f745c
     c3c:	615c736c 	cmpvs	ip, ip, ror #6
     c40:	6e2d6d72 	mcrvs	13, 1, r6, cr13, cr2, {3}
     c44:	2d656e6f 	stclcs	14, cr6, [r5, #-444]!	; 0xfffffe44
     c48:	69626165 	stmdbvs	r2!, {r0, r2, r5, r6, r8, sp, lr}^
     c4c:	636e695c 	cmnvs	lr, #92, 18	; 0x170000
     c50:	6564756c 	strbvs	r7, [r4, #-1388]!	; 0xfffffa94
     c54:	77656e5c 			; <UNDEFINED> instruction: 0x77656e5c
     c58:	2d62696c 			; <UNDEFINED> instruction: 0x2d62696c
     c5c:	6f6e616e 	svcvs	0x006e616e
     c60:	5c3a6700 	ldcpl	7, cr6, [sl], #-0
     c64:	732e6e65 			; <UNDEFINED> instruction: 0x732e6e65
     c68:	74732d74 	ldrbtvc	r2, [r3], #-3444	; 0xfffff28c
     c6c:	6332336d 	teqvs	r2, #-1275068415	; 0xb4000001
     c70:	69656275 	stmdbvs	r5!, {r0, r2, r4, r5, r6, r9, sp, lr}^
     c74:	315f6564 	cmpcc	pc, r4, ror #10
     c78:	302e342e 	eorcc	r3, lr, lr, lsr #8
     c7c:	3135375f 	teqcc	r5, pc, asr r7
     c80:	30325f31 	eorscc	r5, r2, r1, lsr pc
     c84:	37303032 			; <UNDEFINED> instruction: 0x37303032
     c88:	305f3032 	subscc	r3, pc, r2, lsr r0	; <UNPREDICTABLE>
     c8c:	5f383239 	svcpl	0x00383239
     c90:	5f363878 	svcpl	0x00363878
     c94:	655f3436 	ldrbvs	r3, [pc, #-1078]	; 866 <_Min_Stack_Size+0x466>
     c98:	735c6578 	cmpvc	ip, #120, 10	; 0x1e000000
     c9c:	32336d74 	eorscc	r6, r3, #116, 26	; 0x1d00
     ca0:	65627563 	strbvs	r7, [r2, #-1379]!	; 0xfffffa9d
     ca4:	5f656469 	svcpl	0x00656469
     ca8:	2e342e31 	mrccs	14, 1, r2, cr4, cr1, {1}
     cac:	74735c30 	ldrbtvc	r5, [r3], #-3120	; 0xfffff3d0
     cb0:	6332336d 	teqvs	r2, #-1275068415	; 0xb4000001
     cb4:	69656275 	stmdbvs	r5!, {r0, r2, r4, r5, r6, r9, sp, lr}^
     cb8:	705c6564 	subsvc	r6, ip, r4, ror #10
     cbc:	6967756c 	stmdbvs	r7!, {r2, r3, r5, r6, r8, sl, ip, sp, lr}^
     cc0:	635c736e 	cmpvs	ip, #-1207959551	; 0xb8000001
     cc4:	732e6d6f 			; <UNDEFINED> instruction: 0x732e6d6f
     cc8:	74732e74 	ldrbtvc	r2, [r3], #-3700	; 0xfffff18c
     ccc:	6332336d 	teqvs	r2, #-1275068415	; 0xb4000001
     cd0:	2e656275 	mcrcs	2, 3, r6, cr5, cr5, {3}
     cd4:	2e656469 	cdpcs	4, 6, cr6, cr5, cr9, {3}
     cd8:	2e75636d 	cdpcs	3, 7, cr6, cr5, cr13, {3}
     cdc:	65747865 	ldrbvs	r7, [r4, #-2149]!	; 0xfffff79b
     ce0:	6c616e72 	stclvs	14, cr6, [r1], #-456	; 0xfffffe38
     ce4:	6c6f6f74 	stclvs	15, cr6, [pc], #-464	; b1c <_Min_Stack_Size+0x71c>
     ce8:	6e672e73 	mcrvs	14, 3, r2, cr7, cr3, {3}
     cec:	6f742d75 	svcvs	0x00742d75
     cf0:	2d736c6f 	ldclcs	12, cr6, [r3, #-444]!	; 0xfffffe44
     cf4:	2d726f66 	ldclcs	15, cr6, [r2, #-408]!	; 0xfffffe68
     cf8:	336d7473 	cmncc	sp, #1929379840	; 0x73000000
     cfc:	30312e32 	eorscc	r2, r1, r2, lsr lr
     d00:	322d332e 	eorcc	r3, sp, #-1207959552	; 0xb8000000
     d04:	2e313230 	mrccs	2, 1, r3, cr1, cr0, {1}
     d08:	772e3031 			; <UNDEFINED> instruction: 0x772e3031
     d0c:	32336e69 	eorscc	r6, r3, #1680	; 0x690
     d10:	302e315f 	eorcc	r3, lr, pc, asr r1
     d14:	3030322e 	eorscc	r3, r0, lr, lsr #4
     d18:	3230322e 	eorscc	r3, r0, #-536870910	; 0xe0000002
     d1c:	31313033 	teqcc	r1, r3, lsr r0
     d20:	30303136 	eorscc	r3, r0, r6, lsr r1
     d24:	6f745c33 	svcvs	0x00745c33
     d28:	5c736c6f 	ldclpl	12, cr6, [r3], #-444	; 0xfffffe44
     d2c:	5c62696c 			; <UNDEFINED> instruction: 0x5c62696c
     d30:	5c636367 	stclpl	3, cr6, [r3], #-412	; 0xfffffe64
     d34:	2d6d7261 	sfmcs	f7, 2, [sp, #-388]!	; 0xfffffe7c
     d38:	656e6f6e 	strbvs	r6, [lr, #-3950]!	; 0xfffff092
     d3c:	6261652d 	rsbvs	r6, r1, #188743680	; 0xb400000
     d40:	30315c69 	eorscc	r5, r1, r9, ror #24
     d44:	312e332e 			; <UNDEFINED> instruction: 0x312e332e
     d48:	636e695c 	cmnvs	lr, #92, 18	; 0x170000
     d4c:	6564756c 	strbvs	r7, [r4, #-1388]!	; 0xfffffa94
     d50:	74730000 	ldrbtvc	r0, [r3], #-0
     d54:	5f32336d 	svcpl	0x0032336d
     d58:	33303166 	teqcc	r0, #-2147483623	; 0x80000019
     d5c:	645f3663 	ldrbvs	r3, [pc], #-1635	; d64 <_Min_Stack_Size+0x964>
     d60:	65766972 	ldrbvs	r6, [r6, #-2418]!	; 0xfffff68e
     d64:	455f7372 	ldrbmi	r7, [pc, #-882]	; 9fa <_Min_Stack_Size+0x5fa>
     d68:	2e495458 	mcrcs	4, 2, r5, cr9, cr8, {2}
     d6c:	00010063 	andeq	r0, r1, r3, rrx
     d70:	65645f00 	strbvs	r5, [r4, #-3840]!	; 0xfffff100
     d74:	6c756166 	ldfvse	f6, [r5], #-408	; 0xfffffe68
     d78:	79745f74 	ldmdbvc	r4!, {r2, r4, r5, r6, r8, r9, sl, fp, ip, lr}^
     d7c:	2e736570 	mrccs	5, 3, r6, cr3, cr0, {3}
     d80:	00020068 	andeq	r0, r2, r8, rrx
     d84:	74735f00 	ldrbtvc	r5, [r3], #-3840	; 0xfffff100
     d88:	746e6964 	strbtvc	r6, [lr], #-2404	; 0xfffff69c
     d8c:	0300682e 	movweq	r6, #2094	; 0x82e
     d90:	74730000 	ldrbtvc	r0, [r3], #-0
     d94:	5f32336d 	svcpl	0x0032336d
     d98:	33303166 	teqcc	r0, #-2147483623	; 0x80000019
     d9c:	682e3678 	stmdavs	lr!, {r3, r4, r5, r6, r9, sl, ip, sp}
     da0:	00000400 	andeq	r0, r0, r0, lsl #8
     da4:	336d7473 	cmncc	sp, #1929379840	; 0x73000000
     da8:	31665f32 	cmncc	r6, r2, lsr pc
     dac:	36633330 			; <UNDEFINED> instruction: 0x36633330
     db0:	6972645f 	ldmdbvs	r2!, {r0, r1, r2, r3, r4, r6, sl, sp, lr}^
     db4:	73726576 	cmnvc	r2, #494927872	; 0x1d800000
     db8:	4950475f 	ldmdbmi	r0, {r0, r1, r2, r3, r4, r6, r8, r9, sl, lr}^
     dbc:	00682e4f 	rsbeq	r2, r8, pc, asr #28
     dc0:	73000004 	movwvc	r0, #4
     dc4:	32336d74 	eorscc	r6, r3, #116, 26	; 0x1d00
     dc8:	3031665f 	eorscc	r6, r1, pc, asr r6
     dcc:	5f366333 	svcpl	0x00366333
     dd0:	76697264 	strbtvc	r7, [r9], -r4, ror #4
     dd4:	5f737265 	svcpl	0x00737265
     dd8:	49545845 	ldmdbmi	r4, {r0, r2, r6, fp, ip, lr}^
     ddc:	0400682e 	streq	r6, [r0], #-2094	; 0xfffff7d2
     de0:	74730000 	ldrbtvc	r0, [r3], #-0
     de4:	62696c64 	rsbvs	r6, r9, #100, 24	; 0x6400
     de8:	0500682e 	streq	r6, [r0, #-2094]	; 0xfffff7d2
     dec:	65690000 	strbvs	r0, [r9, #-0]!
     df0:	70666565 	rsbvc	r6, r6, r5, ror #10
     df4:	0200682e 	andeq	r6, r0, #3014656	; 0x2e0000
     df8:	615f0000 	cmpvs	pc, r0
     dfc:	2e69736e 	cdpcs	3, 6, cr7, cr9, cr14, {3}
     e00:	00050068 	andeq	r0, r5, r8, rrx
     e04:	77656e00 	strbvc	r6, [r5, -r0, lsl #28]!
     e08:	2e62696c 	vnmulcs.f16	s13, s4, s25	; <UNPREDICTABLE>
     e0c:	00060068 	andeq	r0, r6, r8, rrx
     e10:	656e5f00 	strbvs	r5, [lr, #-3840]!	; 0xfffff100
     e14:	62696c77 	rsbvs	r6, r9, #30464	; 0x7700
     e18:	7265765f 	rsbvc	r7, r5, #99614720	; 0x5f00000
     e1c:	6e6f6973 			; <UNDEFINED> instruction: 0x6e6f6973
     e20:	0500682e 	streq	r6, [r0, #-2094]	; 0xfffff7d2
     e24:	6f630000 	svcvs	0x00630000
     e28:	6769666e 	strbvs	r6, [r9, -lr, ror #12]!
     e2c:	0300682e 	movweq	r6, #2094	; 0x82e
     e30:	65660000 	strbvs	r0, [r6, #-0]!
     e34:	72757461 	rsbsvc	r7, r5, #1627389952	; 0x61000000
     e38:	682e7365 	stmdavs	lr!, {r0, r2, r5, r6, r8, r9, ip, sp, lr}
     e3c:	00000300 	andeq	r0, r0, r0, lsl #6
     e40:	64647473 	strbtvs	r7, [r4], #-1139	; 0xfffffb8d
     e44:	682e6665 	stmdavs	lr!, {r0, r2, r5, r6, r9, sl, sp, lr}
     e48:	00000700 	andeq	r0, r0, r0, lsl #14
     e4c:	6e656572 	mcrvs	5, 3, r6, cr5, cr2, {3}
     e50:	00682e74 	rsbeq	r2, r8, r4, ror lr
     e54:	5f000003 	svcpl	0x00000003
     e58:	65707974 	ldrbvs	r7, [r0, #-2420]!	; 0xfffff68c
     e5c:	00682e73 	rsbeq	r2, r8, r3, ror lr
     e60:	5f000003 	svcpl	0x00000003
     e64:	65707974 	ldrbvs	r7, [r0, #-2420]!	; 0xfffff68c
     e68:	00682e73 	rsbeq	r2, r8, r3, ror lr
     e6c:	6c000002 	stcvs	0, cr0, [r0], {2}
     e70:	2e6b636f 	cdpcs	3, 6, cr6, cr11, cr15, {3}
     e74:	00030068 	andeq	r0, r3, r8, rrx
     e78:	73736100 	cmnvc	r3, #0, 2
     e7c:	2e747265 	cdpcs	2, 7, cr7, cr4, cr5, {3}
     e80:	00050068 	andeq	r0, r5, r8, rrx
     e84:	65646300 	strbvs	r6, [r4, #-768]!	; 0xfffffd00
     e88:	682e7366 	stmdavs	lr!, {r1, r2, r5, r6, r8, r9, ip, sp, lr}
     e8c:	00000300 	andeq	r0, r0, r0, lsl #6
     e90:	6c647473 	cfstrdvs	mvd7, [r4], #-460	; 0xfffffe34
     e94:	682e6269 	stmdavs	lr!, {r0, r3, r5, r6, r9, sp, lr}
     e98:	00000200 	andeq	r0, r0, r0, lsl #4
     e9c:	6f6c6c61 	svcvs	0x006c6c61
     ea0:	682e6163 	stmdavs	lr!, {r0, r1, r5, r6, r8, sp, lr}
     ea4:	00000500 	andeq	r0, r0, r0, lsl #10
     ea8:	69647473 	stmdbvs	r4!, {r0, r1, r4, r5, r6, sl, ip, sp, lr}^
     eac:	682e746e 	stmdavs	lr!, {r1, r2, r3, r5, r6, sl, ip, sp, lr}
     eb0:	00000700 	andeq	r0, r0, r0, lsl #14
     eb4:	69647473 	stmdbvs	r4!, {r0, r1, r4, r5, r6, sl, ip, sp, lr}^
     eb8:	682e746e 	stmdavs	lr!, {r1, r2, r3, r5, r6, sl, ip, sp, lr}
     ebc:	00000500 	andeq	r0, r0, r0, lsl #10
     ec0:	746e695f 	strbtvc	r6, [lr], #-2399	; 0xfffff6a1
     ec4:	2e707573 	mrccs	5, 3, r7, cr0, cr3, {3}
     ec8:	00030068 	andeq	r0, r3, r8, rrx
     ecc:	02050000 	andeq	r0, r5, #0
     ed0:	bc020500 	cfstr32lt	mvfx0, [r2], {-0}
     ed4:	03080002 	movweq	r0, #32770	; 0x8002
     ed8:	03050111 	movweq	r0, #20753	; 0x5111
     edc:	02040559 	andeq	r0, r4, #373293056	; 0x16400000
     ee0:	05671525 	strbeq	r1, [r7, #-1317]!	; 0xfffffadb
     ee4:	22672206 	rsbcs	r2, r7, #1610612736	; 0x60000000
     ee8:	05672267 	strbeq	r2, [r7, #-615]!	; 0xfffffd99
     eec:	05672205 	strbeq	r2, [r7, #-517]!	; 0xfffffdfb
     ef0:	26672607 	strbtcs	r2, [r7], -r7, lsl #12
     ef4:	22020567 	andcs	r0, r2, #432013312	; 0x19c00000
     ef8:	01000902 	tsteq	r0, r2, lsl #18
     efc:	00020501 	andeq	r0, r2, r1, lsl #10
     f00:	03840205 	orreq	r0, r4, #1342177280	; 0x50000000
     f04:	35030800 	strcc	r0, [r3, #-2048]	; 0xfffff800
     f08:	59030501 	stmdbpl	r3, {r0, r8, sl}
     f0c:	25020405 	strcs	r0, [r2, #-1029]	; 0xfffffbfb
     f10:	06056715 			; <UNDEFINED> instruction: 0x06056715
     f14:	67226722 	strvs	r6, [r2, -r2, lsr #14]!
     f18:	05056722 	streq	r6, [r5, #-1826]	; 0xfffff8de
     f1c:	08056722 	stmdaeq	r5, {r1, r5, r8, r9, sl, sp, lr}
     f20:	06056726 	streq	r6, [r5], -r6, lsr #14
     f24:	67080526 	strvs	r0, [r8, -r6, lsr #10]
     f28:	02220205 	eoreq	r0, r2, #1342177280	; 0x50000000
     f2c:	01010009 	tsteq	r1, r9
     f30:	05000105 	streq	r0, [r0, #-261]	; 0xfffffefb
     f34:	00044c02 	andeq	r4, r4, r2, lsl #24
     f38:	00e50308 	rsceq	r0, r5, r8, lsl #6
     f3c:	4f350501 	svcmi	0x00350501
     f40:	052e1b05 	streq	r1, [lr, #-2821]!	; 0xfffff4fb
     f44:	02052116 	andeq	r2, r5, #-2147483643	; 0x80000005
     f48:	8636052f 	ldrthi	r0, [r6], -pc, lsr #10
     f4c:	052e0a05 	streq	r0, [lr, #-2565]!	; 0xfffff5fb
     f50:	0a053e3a 	beq	150840 <_Min_Stack_Size+0x150440>
     f54:	6822052e 	stmdavs	r2!, {r1, r2, r3, r5, r8, sl}
     f58:	05582b05 	ldrbeq	r2, [r8, #-2821]	; 0xfffff4fb
     f5c:	22054a25 	andcs	r4, r5, #151552	; 0x25000
     f60:	2905682e 	stmdbcs	r5, {r1, r2, r3, r5, fp, sp, lr}
     f64:	2e5f0558 	mrccs	5, 2, r0, cr15, cr8, {2}
     f68:	02002905 	andeq	r2, r0, #81920	; 0x14000
     f6c:	053c0104 	ldreq	r0, [ip, #-260]!	; 0xfffffefc
     f70:	0402005f 	streq	r0, [r2], #-95	; 0xffffffa1
     f74:	29052e01 	stmdbcs	r5, {r0, r9, sl, fp, sp}
     f78:	03040200 	movweq	r0, #16896	; 0x4200
     f7c:	005f053c 	subseq	r0, pc, ip, lsr r5	; <UNPREDICTABLE>
     f80:	2e030402 	cdpcs	4, 0, cr0, cr3, cr2, {0}
     f84:	02002905 	andeq	r2, r0, #81920	; 0x14000
     f88:	053c0504 	ldreq	r0, [ip, #-1284]!	; 0xfffffafc
     f8c:	0402005f 	streq	r0, [r2], #-95	; 0xffffffa1
     f90:	02002e05 	andeq	r2, r0, #5, 28	; 0x50
     f94:	3c060704 	stccc	7, cr0, [r6], {4}
     f98:	08040200 	stmdaeq	r4, {r9}
     f9c:	0402002e 	streq	r0, [r2], #-46	; 0xffffffd2
     fa0:	02002e06 	andeq	r2, r0, #6, 28	; 0x60
     fa4:	002e0404 	eoreq	r0, lr, r4, lsl #8
     fa8:	2e020402 	cdpcs	4, 0, cr0, cr2, cr2, {0}
     fac:	02006605 	andeq	r6, r0, #5242880	; 0x500000
     fb0:	20061004 	andcs	r1, r6, r4
     fb4:	02002205 	andeq	r2, r0, #1342177280	; 0x50000000
     fb8:	053c1004 	ldreq	r1, [ip, #-4]!
     fbc:	0402000d 	streq	r0, [r2], #-13
     fc0:	2c056a10 			; <UNDEFINED> instruction: 0x2c056a10
     fc4:	10040200 	andne	r0, r4, r0, lsl #4
     fc8:	0012052e 	andseq	r0, r2, lr, lsr #10
     fcc:	3c100402 	cfldrscc	mvf0, [r0], {2}
     fd0:	02000f05 	andeq	r0, r0, #5, 30
     fd4:	052e1004 	streq	r1, [lr, #-4]!
     fd8:	0402000d 	streq	r0, [r2], #-13
     fdc:	02002e10 	andeq	r2, r0, #16, 28	; 0x100
     fe0:	053d1004 	ldreq	r1, [sp, #-4]!
     fe4:	0402002c 	streq	r0, [r2], #-44	; 0xffffffd4
     fe8:	12052e10 	andne	r2, r5, #16, 28	; 0x100
     fec:	10040200 	andne	r0, r4, r0, lsl #4
     ff0:	000f053c 	andeq	r0, pc, ip, lsr r5	; <UNPREDICTABLE>
     ff4:	2e100402 	cfmulscs	mvf0, mvf0, mvf2
     ff8:	02000d05 	andeq	r0, r0, #320	; 0x140
     ffc:	052e1004 	streq	r1, [lr, #-4]!
    1000:	04020013 	streq	r0, [r2], #-19	; 0xffffffed
    1004:	04053e10 	streq	r3, [r5], #-3600	; 0xfffff1f0
    1008:	10040200 	andne	r0, r4, r0, lsl #4
    100c:	300e052e 	andcc	r0, lr, lr, lsr #10
    1010:	052e2d05 	streq	r2, [lr, #-3333]!	; 0xfffff2fb
    1014:	0e053c13 	mcreq	12, 0, r3, cr5, cr3, {0}
    1018:	4b19053c 	blmi	642510 <_Min_Stack_Size+0x642110>
    101c:	052e0a05 	streq	r0, [lr, #-2565]!	; 0xfffff5fb
    1020:	2d05300e 	stccs	0, cr3, [r5, #-56]	; 0xffffffc8
    1024:	3c13052e 	cfldr32cc	mvfx0, [r3], {46}	; 0x2e
    1028:	4d3c0e05 	ldcmi	14, cr0, [ip, #-20]!	; 0xffffffec
    102c:	052e2d05 	streq	r2, [lr, #-3333]!	; 0xfffff2fb
    1030:	0e053c13 	mcreq	12, 0, r3, cr5, cr3, {0}
    1034:	2d053d3c 	stccs	13, cr3, [r5, #-240]	; 0xffffff10
    1038:	3c13052e 	cfldr32cc	mvfx0, [r3], {46}	; 0x2e
    103c:	053c0e05 	ldreq	r0, [ip, #-3589]!	; 0xfffff1fb
    1040:	5105402a 	tstpl	r5, sl, lsr #32
    1044:	2e41053c 	mcrcs	5, 2, r0, cr1, cr12, {1}
    1048:	05411305 	strbeq	r1, [r1, #-773]	; 0xfffffcfb
    104c:	0d052e04 	stceq	14, cr2, [r5, #-16]
    1050:	2e2b0530 	mcrcs	5, 1, r0, cr11, cr0, {1}
    1054:	053c1105 	ldreq	r1, [ip, #-261]!	; 0xfffffefb
    1058:	03053c0d 	movweq	r3, #23565	; 0x5c0d
    105c:	6001053d 	andvs	r0, r1, sp, lsr r5
    1060:	051b0d05 	ldreq	r0, [fp, #-3333]	; 0xfffff2fb
    1064:	12052e2c 	andne	r2, r5, #44, 28	; 0x2c0
    1068:	2e0f053c 	mcrcs	5, 0, r0, cr15, cr12, {1}
    106c:	052e0d05 	streq	r0, [lr, #-3333]!	; 0xfffff2fb
    1070:	01053d03 	tsteq	r5, r3, lsl #26
    1074:	0012025c 	andseq	r0, r2, ip, asr r2
    1078:	01050101 	tsteq	r5, r1, lsl #2
    107c:	00020500 	andeq	r0, r2, r0, lsl #10
    1080:	03000000 	movweq	r0, #0
    1084:	050101a7 	streq	r0, [r1, #-423]	; 0xfffffe59
    1088:	0c053006 	stceq	0, cr3, [r5], {6}
    108c:	2f060520 	svccs	0x00060520
    1090:	05200c05 	streq	r0, [r0, #-3077]!	; 0xfffff3fb
    1094:	0d052f06 	stceq	15, cr2, [r5, #-24]	; 0xffffffe8
    1098:	2f060520 	svccs	0x00060520
    109c:	05200d05 	streq	r0, [r0, #-3333]!	; 0xfffff2fb
    10a0:	0d052f06 	stceq	15, cr2, [r5, #-24]	; 0xffffffe8
    10a4:	32060520 	andcc	r0, r6, #32, 10	; 0x8000000
    10a8:	05200b05 	streq	r0, [r0, #-2821]!	; 0xfffff4fb
    10ac:	67673f02 	strbvs	r3, [r7, -r2, lsl #30]!
    10b0:	67676767 	strbvs	r6, [r7, -r7, ror #14]!
    10b4:	02670105 	rsbeq	r0, r7, #1073741825	; 0x40000001
    10b8:	0101000b 	tsteq	r1, fp
    10bc:	05000105 	streq	r0, [r0, #-261]	; 0xfffffefb
    10c0:	00000002 	andeq	r0, r0, r2
    10c4:	01c90300 	biceq	r0, r9, r0, lsl #6
    10c8:	4b020501 	blmi	824d4 <_Min_Stack_Size+0x820d4>
    10cc:	023d0105 	eorseq	r0, sp, #1073741825	; 0x40000001
    10d0:	01010004 	tsteq	r1, r4
    10d4:	05000105 	streq	r0, [r0, #-261]	; 0xfffffefb
    10d8:	00061c02 	andeq	r1, r6, r2, lsl #24
    10dc:	01d80308 	bicseq	r0, r8, r8, lsl #6
    10e0:	4b020501 	blmi	824ec <_Min_Stack_Size+0x820ec>
    10e4:	023d0105 	eorseq	r0, sp, #1073741825	; 0x40000001
    10e8:	01010004 	tsteq	r1, r4
    10ec:	05000105 	streq	r0, [r0, #-261]	; 0xfffffefb
    10f0:	00063402 	andeq	r3, r6, r2, lsl #8
    10f4:	01e00308 	mvneq	r0, r8, lsl #6
    10f8:	2f0b0501 	svccs	0x000b0501
    10fc:	05671105 	strbeq	r1, [r7, #-261]!	; 0xfffffefb
    1100:	01052e02 	tsteq	r5, r2, lsl #28
    1104:	00070221 	andeq	r0, r7, r1, lsr #4
    1108:	01050101 	tsteq	r5, r1, lsl #2
    110c:	58020500 	stmdapl	r2, {r8, sl}
    1110:	03080006 	movweq	r0, #32774	; 0x8006
    1114:	050101e5 	streq	r0, [r1, #-485]	; 0xfffffe1b
    1118:	11052f0b 	tstne	r5, fp, lsl #30
    111c:	2e020567 	cfsh32cs	mvfx0, mvfx2, #55
    1120:	02210105 	eoreq	r0, r1, #1073741825	; 0x40000001
    1124:	01010007 	tsteq	r1, r7
    1128:	05000105 	streq	r0, [r0, #-261]	; 0xfffffefb
    112c:	00067c02 	andeq	r7, r6, r2, lsl #24
    1130:	01ea0308 	mvneq	r0, r8, lsl #6
    1134:	2f0b0501 	svccs	0x000b0501
    1138:	05671105 	strbeq	r1, [r7, #-261]!	; 0xfffffefb
    113c:	01052e02 	tsteq	r5, r2, lsl #28
    1140:	00070221 	andeq	r0, r7, r1, lsr #4
    1144:	01050101 	tsteq	r5, r1, lsl #2
    1148:	a0020500 	andge	r0, r2, r0, lsl #10
    114c:	03080006 	movweq	r0, #32774	; 0x8006
    1150:	050101ef 	streq	r0, [r1, #-495]	; 0xfffffe11
    1154:	11052f0b 	tstne	r5, fp, lsl #30
    1158:	2e020567 	cfsh32cs	mvfx0, mvfx2, #55
    115c:	02210105 	eoreq	r0, r1, #1073741825	; 0x40000001
    1160:	01010007 	tsteq	r1, r7
    1164:	05000105 	streq	r0, [r0, #-261]	; 0xfffffefb
    1168:	0006c402 	andeq	ip, r6, r2, lsl #8
    116c:	01f40308 	mvnseq	r0, r8, lsl #6
    1170:	2f0b0501 	svccs	0x000b0501
    1174:	05671105 	strbeq	r1, [r7, #-261]!	; 0xfffffefb
    1178:	01052e02 	tsteq	r5, r2, lsl #28
    117c:	00070221 	andeq	r0, r7, r1, lsr #4
    1180:	01050101 	tsteq	r5, r1, lsl #2
    1184:	e8020500 	stmda	r2, {r8, sl}
    1188:	03080006 	movweq	r0, #32774	; 0x8006
    118c:	050101fa 	streq	r0, [r1, #-506]	; 0xfffffe06
    1190:	0e052f09 	cdpeq	15, 0, cr2, cr5, cr9, {0}
    1194:	2e04052e 	cfsh32cs	mvfx0, mvfx4, #30
    1198:	02002105 	andeq	r2, r0, #1073741825	; 0x40000001
    119c:	052e0104 	streq	r0, [lr, #-260]!	; 0xfffffefc
    11a0:	0402003c 	streq	r0, [r2], #-60	; 0xffffffc4
    11a4:	2d056601 	stccs	6, cr6, [r5, #-4]
    11a8:	01040200 	mrseq	r0, R12_usr
    11ac:	2109052e 	tstcs	r9, lr, lsr #10
    11b0:	052e0e05 	streq	r0, [lr, #-3589]!	; 0xfffff1fb
    11b4:	21052e04 	tstcs	r5, r4, lsl #28
    11b8:	01040200 	mrseq	r0, R12_usr
    11bc:	003c052e 	eorseq	r0, ip, lr, lsr #10
    11c0:	66010402 	strvs	r0, [r1], -r2, lsl #8
    11c4:	02002d05 	andeq	r2, r0, #320	; 0x140
    11c8:	052e0104 	streq	r0, [lr, #-260]!	; 0xfffffefc
    11cc:	0e052109 	adfeqs	f2, f5, #1.0
    11d0:	2e04052e 	cfsh32cs	mvfx0, mvfx4, #30
    11d4:	02002105 	andeq	r2, r0, #1073741825	; 0x40000001
    11d8:	052e0104 	streq	r0, [lr, #-260]!	; 0xfffffefc
    11dc:	0402003c 	streq	r0, [r2], #-60	; 0xffffffc4
    11e0:	2d056601 	stccs	6, cr6, [r5, #-4]
    11e4:	01040200 	mrseq	r0, R12_usr
    11e8:	2109052e 	tstcs	r9, lr, lsr #10
    11ec:	052e0e05 	streq	r0, [lr, #-3589]!	; 0xfffff1fb
    11f0:	21052e04 	tstcs	r5, r4, lsl #28
    11f4:	01040200 	mrseq	r0, R12_usr
    11f8:	003c052e 	eorseq	r0, ip, lr, lsr #10
    11fc:	66010402 	strvs	r0, [r1], -r2, lsl #8
    1200:	02002d05 	andeq	r2, r0, #320	; 0x140
    1204:	052e0104 	streq	r0, [lr, #-260]!	; 0xfffffefc
    1208:	0e052109 	adfeqs	f2, f5, #1.0
    120c:	2e04052e 	cfsh32cs	mvfx0, mvfx4, #30
    1210:	02002105 	andeq	r2, r0, #1073741825	; 0x40000001
    1214:	052e0104 	streq	r0, [lr, #-260]!	; 0xfffffefc
    1218:	0402003c 	streq	r0, [r2], #-60	; 0xffffffc4
    121c:	2d056601 	stccs	6, cr6, [r5, #-4]
    1220:	01040200 	mrseq	r0, R12_usr
    1224:	2101052e 	tstcs	r1, lr, lsr #10
    1228:	01000702 	tsteq	r0, r2, lsl #14
    122c:	00010501 	andeq	r0, r1, r1, lsl #10
    1230:	07900205 	ldreq	r0, [r0, r5, lsl #4]
    1234:	82030800 	andhi	r0, r3, #0, 16
    1238:	09050102 	stmdbeq	r5, {r1, r8}
    123c:	2e0e052f 	cfsh32cs	mvfx0, mvfx14, #31
    1240:	052e0405 	streq	r0, [lr, #-1029]!	; 0xfffffbfb
    1244:	04020022 	streq	r0, [r2], #-34	; 0xffffffde
    1248:	3e052e01 	cdpcc	14, 0, cr2, cr5, cr1, {0}
    124c:	01040200 	mrseq	r0, R12_usr
    1250:	002f0566 	eoreq	r0, pc, r6, ror #10
    1254:	2e010402 	cdpcs	4, 0, cr0, cr1, cr2, {0}
    1258:	05210905 	streq	r0, [r1, #-2309]!	; 0xfffff6fb
    125c:	04052e0e 	streq	r2, [r5], #-3598	; 0xfffff1f2
    1260:	0022052e 	eoreq	r0, r2, lr, lsr #10
    1264:	2e010402 	cdpcs	4, 0, cr0, cr1, cr2, {0}
    1268:	02003e05 	andeq	r3, r0, #5, 28	; 0x50
    126c:	05660104 	strbeq	r0, [r6, #-260]!	; 0xfffffefc
    1270:	0402002f 	streq	r0, [r2], #-47	; 0xffffffd1
    1274:	09052e01 	stmdbeq	r5, {r0, r9, sl, fp, sp}
    1278:	2e0e0521 	cfsh32cs	mvfx0, mvfx14, #17
    127c:	052e0405 	streq	r0, [lr, #-1029]!	; 0xfffffbfb
    1280:	04020022 	streq	r0, [r2], #-34	; 0xffffffde
    1284:	3e052e01 	cdpcc	14, 0, cr2, cr5, cr1, {0}
    1288:	01040200 	mrseq	r0, R12_usr
    128c:	002f0566 	eoreq	r0, pc, r6, ror #10
    1290:	2e010402 	cdpcs	4, 0, cr0, cr1, cr2, {0}
    1294:	05210905 	streq	r0, [r1, #-2309]!	; 0xfffff6fb
    1298:	04052e0e 	streq	r2, [r5], #-3598	; 0xfffff1f2
    129c:	0022052e 	eoreq	r0, r2, lr, lsr #10
    12a0:	2e010402 	cdpcs	4, 0, cr0, cr1, cr2, {0}
    12a4:	02003e05 	andeq	r3, r0, #5, 28	; 0x50
    12a8:	05660104 	strbeq	r0, [r6, #-260]!	; 0xfffffefc
    12ac:	0402002f 	streq	r0, [r2], #-47	; 0xffffffd1
    12b0:	09052e01 	stmdbeq	r5, {r0, r9, sl, fp, sp}
    12b4:	2e0e0521 	cfsh32cs	mvfx0, mvfx14, #17
    12b8:	052e0405 	streq	r0, [lr, #-1029]!	; 0xfffffbfb
    12bc:	04020022 	streq	r0, [r2], #-34	; 0xffffffde
    12c0:	3e052e01 	cdpcc	14, 0, cr2, cr5, cr1, {0}
    12c4:	01040200 	mrseq	r0, R12_usr
    12c8:	002f0566 	eoreq	r0, pc, r6, ror #10
    12cc:	2e010402 	cdpcs	4, 0, cr0, cr1, cr2, {0}
    12d0:	05210905 	streq	r0, [r1, #-2309]!	; 0xfffff6fb
    12d4:	04052e0e 	streq	r2, [r5], #-3598	; 0xfffff1f2
    12d8:	0022052e 	eoreq	r0, r2, lr, lsr #10
    12dc:	2e010402 	cdpcs	4, 0, cr0, cr1, cr2, {0}
    12e0:	02003e05 	andeq	r3, r0, #5, 28	; 0x50
    12e4:	05660104 	strbeq	r0, [r6, #-260]!	; 0xfffffefc
    12e8:	0402002f 	streq	r0, [r2], #-47	; 0xffffffd1
    12ec:	01052e01 	tsteq	r5, r1, lsl #28
    12f0:	00060221 	andeq	r0, r6, r1, lsr #4
    12f4:	08be0101 	ldmeq	lr!, {r0, r8}
    12f8:	00030000 	andeq	r0, r3, r0
    12fc:	000006c7 	andeq	r0, r0, r7, asr #13
    1300:	0efb0102 	cdpeq	1, 15, cr0, cr11, cr2, {0}
    1304:	0101000d 	tsteq	r1, sp
    1308:	00000101 	andeq	r0, r0, r1, lsl #2
    130c:	00000100 	andeq	r0, r0, r0, lsl #2
    1310:	2f2e2e01 	svccs	0x002e2e01
    1314:	336d7473 	cmncc	sp, #1929379840	; 0x73000000
    1318:	31665f32 	cmncc	r6, r2, lsr pc
    131c:	36633330 			; <UNDEFINED> instruction: 0x36633330
    1320:	6972645f 	ldmdbvs	r2!, {r0, r1, r2, r3, r4, r6, sl, sp, lr}^
    1324:	73726576 	cmnvc	r2, #494927872	; 0x1d800000
    1328:	5c3a6700 	ldcpl	7, cr6, [sl], #-0
    132c:	732e6e65 			; <UNDEFINED> instruction: 0x732e6e65
    1330:	74732d74 	ldrbtvc	r2, [r3], #-3444	; 0xfffff28c
    1334:	6332336d 	teqvs	r2, #-1275068415	; 0xb4000001
    1338:	69656275 	stmdbvs	r5!, {r0, r2, r4, r5, r6, r9, sp, lr}^
    133c:	315f6564 	cmpcc	pc, r4, ror #10
    1340:	302e342e 	eorcc	r3, lr, lr, lsr #8
    1344:	3135375f 	teqcc	r5, pc, asr r7
    1348:	30325f31 	eorscc	r5, r2, r1, lsr pc
    134c:	37303032 			; <UNDEFINED> instruction: 0x37303032
    1350:	305f3032 	subscc	r3, pc, r2, lsr r0	; <UNPREDICTABLE>
    1354:	5f383239 	svcpl	0x00383239
    1358:	5f363878 	svcpl	0x00363878
    135c:	655f3436 	ldrbvs	r3, [pc, #-1078]	; f2e <_Min_Stack_Size+0xb2e>
    1360:	735c6578 	cmpvc	ip, #120, 10	; 0x1e000000
    1364:	32336d74 	eorscc	r6, r3, #116, 26	; 0x1d00
    1368:	65627563 	strbvs	r7, [r2, #-1379]!	; 0xfffffa9d
    136c:	5f656469 	svcpl	0x00656469
    1370:	2e342e31 	mrccs	14, 1, r2, cr4, cr1, {1}
    1374:	74735c30 	ldrbtvc	r5, [r3], #-3120	; 0xfffff3d0
    1378:	6332336d 	teqvs	r2, #-1275068415	; 0xb4000001
    137c:	69656275 	stmdbvs	r5!, {r0, r2, r4, r5, r6, r9, sp, lr}^
    1380:	705c6564 	subsvc	r6, ip, r4, ror #10
    1384:	6967756c 	stmdbvs	r7!, {r2, r3, r5, r6, r8, sl, ip, sp, lr}^
    1388:	635c736e 	cmpvs	ip, #-1207959551	; 0xb8000001
    138c:	732e6d6f 			; <UNDEFINED> instruction: 0x732e6d6f
    1390:	74732e74 	ldrbtvc	r2, [r3], #-3700	; 0xfffff18c
    1394:	6332336d 	teqvs	r2, #-1275068415	; 0xb4000001
    1398:	2e656275 	mcrcs	2, 3, r6, cr5, cr5, {3}
    139c:	2e656469 	cdpcs	4, 6, cr6, cr5, cr9, {3}
    13a0:	2e75636d 	cdpcs	3, 7, cr6, cr5, cr13, {3}
    13a4:	65747865 	ldrbvs	r7, [r4, #-2149]!	; 0xfffff79b
    13a8:	6c616e72 	stclvs	14, cr6, [r1], #-456	; 0xfffffe38
    13ac:	6c6f6f74 	stclvs	15, cr6, [pc], #-464	; 11e4 <_Min_Stack_Size+0xde4>
    13b0:	6e672e73 	mcrvs	14, 3, r2, cr7, cr3, {3}
    13b4:	6f742d75 	svcvs	0x00742d75
    13b8:	2d736c6f 	ldclcs	12, cr6, [r3, #-444]!	; 0xfffffe44
    13bc:	2d726f66 	ldclcs	15, cr6, [r2, #-408]!	; 0xfffffe68
    13c0:	336d7473 	cmncc	sp, #1929379840	; 0x73000000
    13c4:	30312e32 	eorscc	r2, r1, r2, lsr lr
    13c8:	322d332e 	eorcc	r3, sp, #-1207959552	; 0xb8000000
    13cc:	2e313230 	mrccs	2, 1, r3, cr1, cr0, {1}
    13d0:	772e3031 			; <UNDEFINED> instruction: 0x772e3031
    13d4:	32336e69 	eorscc	r6, r3, #1680	; 0x690
    13d8:	302e315f 	eorcc	r3, lr, pc, asr r1
    13dc:	3030322e 	eorscc	r3, r0, lr, lsr #4
    13e0:	3230322e 	eorscc	r3, r0, #-536870910	; 0xe0000002
    13e4:	31313033 	teqcc	r1, r3, lsr r0
    13e8:	30303136 	eorscc	r3, r0, r6, lsr r1
    13ec:	6f745c33 	svcvs	0x00745c33
    13f0:	5c736c6f 	ldclpl	12, cr6, [r3], #-444	; 0xfffffe44
    13f4:	5c6e6962 			; <UNDEFINED> instruction: 0x5c6e6962
    13f8:	6c2f2e2e 	stcvs	14, cr2, [pc], #-184	; 1348 <_Min_Stack_Size+0xf48>
    13fc:	672f6269 	strvs	r6, [pc, -r9, ror #4]!
    1400:	612f6363 			; <UNDEFINED> instruction: 0x612f6363
    1404:	6e2d6d72 	mcrvs	13, 1, r6, cr13, cr2, {3}
    1408:	2d656e6f 	stclcs	14, cr6, [r5, #-444]!	; 0xfffffe44
    140c:	69626165 	stmdbvs	r2!, {r0, r2, r5, r6, r8, sp, lr}^
    1410:	2e30312f 	rsfcssp	f3, f0, #10.0
    1414:	2f312e33 	svccs	0x00312e33
    1418:	2e2f2e2e 	cdpcs	14, 2, cr2, cr15, cr14, {1}
    141c:	2e2e2f2e 	cdpcs	15, 2, cr2, cr14, cr14, {1}
    1420:	2f2e2e2f 	svccs	0x002e2e2f
    1424:	2d6d7261 	sfmcs	f7, 2, [sp, #-388]!	; 0xfffffe7c
    1428:	656e6f6e 	strbvs	r6, [lr, #-3950]!	; 0xfffff092
    142c:	6261652d 	rsbvs	r6, r1, #188743680	; 0xb400000
    1430:	6e692f69 	cdpvs	15, 6, cr2, cr9, cr9, {3}
    1434:	64756c63 	ldrbtvs	r6, [r5], #-3171	; 0xfffff39d
    1438:	616d2f65 	cmnvs	sp, r5, ror #30
    143c:	6e696863 	cdpvs	8, 6, cr6, cr9, cr3, {3}
    1440:	3a670065 	bcc	19c15dc <_Min_Stack_Size+0x19c11dc>
    1444:	2e6e655c 	mcrcs	5, 3, r6, cr14, cr12, {2}
    1448:	732d7473 			; <UNDEFINED> instruction: 0x732d7473
    144c:	32336d74 	eorscc	r6, r3, #116, 26	; 0x1d00
    1450:	65627563 	strbvs	r7, [r2, #-1379]!	; 0xfffffa9d
    1454:	5f656469 	svcpl	0x00656469
    1458:	2e342e31 	mrccs	14, 1, r2, cr4, cr1, {1}
    145c:	35375f30 	ldrcc	r5, [r7, #-3888]!	; 0xfffff0d0
    1460:	325f3131 	subscc	r3, pc, #1073741836	; 0x4000000c
    1464:	30303230 	eorscc	r3, r0, r0, lsr r2
    1468:	5f303237 	svcpl	0x00303237
    146c:	38323930 	ldmdacc	r2!, {r4, r5, r8, fp, ip, sp}
    1470:	3638785f 			; <UNDEFINED> instruction: 0x3638785f
    1474:	5f34365f 	svcpl	0x0034365f
    1478:	5c657865 	stclpl	8, cr7, [r5], #-404	; 0xfffffe6c
    147c:	336d7473 	cmncc	sp, #1929379840	; 0x73000000
    1480:	62756332 	rsbsvs	r6, r5, #-939524096	; 0xc8000000
    1484:	65646965 	strbvs	r6, [r4, #-2405]!	; 0xfffff69b
    1488:	342e315f 	strtcc	r3, [lr], #-351	; 0xfffffea1
    148c:	735c302e 	cmpvc	ip, #46	; 0x2e
    1490:	32336d74 	eorscc	r6, r3, #116, 26	; 0x1d00
    1494:	65627563 	strbvs	r7, [r2, #-1379]!	; 0xfffffa9d
    1498:	5c656469 	cfstrdpl	mvd6, [r5], #-420	; 0xfffffe5c
    149c:	67756c70 			; <UNDEFINED> instruction: 0x67756c70
    14a0:	5c736e69 	ldclpl	14, cr6, [r3], #-420	; 0xfffffe5c
    14a4:	2e6d6f63 	cdpcs	15, 6, cr6, cr13, cr3, {3}
    14a8:	732e7473 			; <UNDEFINED> instruction: 0x732e7473
    14ac:	32336d74 	eorscc	r6, r3, #116, 26	; 0x1d00
    14b0:	65627563 	strbvs	r7, [r2, #-1379]!	; 0xfffffa9d
    14b4:	6564692e 	strbvs	r6, [r4, #-2350]!	; 0xfffff6d2
    14b8:	75636d2e 	strbvc	r6, [r3, #-3374]!	; 0xfffff2d2
    14bc:	7478652e 	ldrbtvc	r6, [r8], #-1326	; 0xfffffad2
    14c0:	616e7265 	cmnvs	lr, r5, ror #4
    14c4:	6f6f746c 	svcvs	0x006f746c
    14c8:	672e736c 	strvs	r7, [lr, -ip, ror #6]!
    14cc:	742d756e 	strtvc	r7, [sp], #-1390	; 0xfffffa92
    14d0:	736c6f6f 	cmnvc	ip, #444	; 0x1bc
    14d4:	726f662d 	rsbvc	r6, pc, #47185920	; 0x2d00000
    14d8:	6d74732d 	ldclvs	3, cr7, [r4, #-180]!	; 0xffffff4c
    14dc:	312e3233 			; <UNDEFINED> instruction: 0x312e3233
    14e0:	2d332e30 	ldccs	14, cr2, [r3, #-192]!	; 0xffffff40
    14e4:	31323032 	teqcc	r2, r2, lsr r0
    14e8:	2e30312e 	rsfcssp	f3, f0, #0.5
    14ec:	336e6977 	cmncc	lr, #1949696	; 0x1dc000
    14f0:	2e315f32 	mrccs	15, 1, r5, cr1, cr2, {1}
    14f4:	30322e30 	eorscc	r2, r2, r0, lsr lr
    14f8:	30322e30 	eorscc	r2, r2, r0, lsr lr
    14fc:	31303332 	teqcc	r0, r2, lsr r3
    1500:	30313631 	eorscc	r3, r1, r1, lsr r6
    1504:	745c3330 	ldrbvc	r3, [ip], #-816	; 0xfffffcd0
    1508:	736c6f6f 	cmnvc	ip, #444	; 0x1bc
    150c:	6e69625c 	mcrvs	2, 3, r6, cr9, cr12, {2}
    1510:	2f2e2e5c 	svccs	0x002e2e5c
    1514:	2f62696c 	svccs	0x0062696c
    1518:	2f636367 	svccs	0x00636367
    151c:	2d6d7261 	sfmcs	f7, 2, [sp, #-388]!	; 0xfffffe7c
    1520:	656e6f6e 	strbvs	r6, [lr, #-3950]!	; 0xfffff092
    1524:	6261652d 	rsbvs	r6, r1, #188743680	; 0xb400000
    1528:	30312f69 	eorscc	r2, r1, r9, ror #30
    152c:	312e332e 			; <UNDEFINED> instruction: 0x312e332e
    1530:	2f2e2e2f 	svccs	0x002e2e2f
    1534:	2e2f2e2e 	cdpcs	14, 2, cr2, cr15, cr14, {1}
    1538:	2e2e2f2e 	cdpcs	15, 2, cr2, cr14, cr14, {1}
    153c:	6d72612f 	ldfvse	f6, [r2, #-188]!	; 0xffffff44
    1540:	6e6f6e2d 	cdpvs	14, 6, cr6, cr15, cr13, {1}
    1544:	61652d65 	cmnvs	r5, r5, ror #26
    1548:	692f6962 	stmdbvs	pc!, {r1, r5, r6, r8, fp, sp, lr}	; <UNPREDICTABLE>
    154c:	756c636e 	strbvc	r6, [ip, #-878]!	; 0xfffffc92
    1550:	732f6564 			; <UNDEFINED> instruction: 0x732f6564
    1554:	44007379 	strmi	r7, [r0], #-889	; 0xfffffc87
    1558:	72442f3a 	subvc	r2, r4, #58, 30	; 0xe8
    155c:	72657669 	rsbvc	r7, r5, #110100480	; 0x6900000
    1560:	74732f73 	ldrbtvc	r2, [r3], #-3955	; 0xfffff08d
    1564:	5f32336d 	svcpl	0x0032336d
    1568:	33303166 	teqcc	r0, #-2147483623	; 0x80000019
    156c:	645f3663 	ldrbvs	r3, [pc], #-1635	; 1574 <_Min_Stack_Size+0x1174>
    1570:	65766972 	ldrbvs	r6, [r6, #-2418]!	; 0xfffff68e
    1574:	492f7372 	stmdbmi	pc!, {r1, r4, r5, r6, r8, r9, ip, sp, lr}	; <UNPREDICTABLE>
    1578:	6700636e 	strvs	r6, [r0, -lr, ror #6]
    157c:	6e655c3a 	mcrvs	12, 3, r5, cr5, cr10, {1}
    1580:	2d74732e 	ldclcs	3, cr7, [r4, #-184]!	; 0xffffff48
    1584:	336d7473 	cmncc	sp, #1929379840	; 0x73000000
    1588:	62756332 	rsbsvs	r6, r5, #-939524096	; 0xc8000000
    158c:	65646965 	strbvs	r6, [r4, #-2405]!	; 0xfffff69b
    1590:	342e315f 	strtcc	r3, [lr], #-351	; 0xfffffea1
    1594:	375f302e 	ldrbcc	r3, [pc, -lr, lsr #32]
    1598:	5f313135 	svcpl	0x00313135
    159c:	30323032 	eorscc	r3, r2, r2, lsr r0
    15a0:	30323730 	eorscc	r3, r2, r0, lsr r7
    15a4:	3239305f 	eorscc	r3, r9, #95	; 0x5f
    15a8:	38785f38 	ldmdacc	r8!, {r3, r4, r5, r8, r9, sl, fp, ip, lr}^
    15ac:	34365f36 	ldrtcc	r5, [r6], #-3894	; 0xfffff0ca
    15b0:	6578655f 	ldrbvs	r6, [r8, #-1375]!	; 0xfffffaa1
    15b4:	6d74735c 	ldclvs	3, cr7, [r4, #-368]!	; 0xfffffe90
    15b8:	75633233 	strbvc	r3, [r3, #-563]!	; 0xfffffdcd
    15bc:	64696562 	strbtvs	r6, [r9], #-1378	; 0xfffffa9e
    15c0:	2e315f65 	cdpcs	15, 3, cr5, cr1, cr5, {3}
    15c4:	5c302e34 	ldcpl	14, cr2, [r0], #-208	; 0xffffff30
    15c8:	336d7473 	cmncc	sp, #1929379840	; 0x73000000
    15cc:	62756332 	rsbsvs	r6, r5, #-939524096	; 0xc8000000
    15d0:	65646965 	strbvs	r6, [r4, #-2405]!	; 0xfffff69b
    15d4:	756c705c 	strbvc	r7, [ip, #-92]!	; 0xffffffa4
    15d8:	736e6967 	cmnvc	lr, #1687552	; 0x19c000
    15dc:	6d6f635c 	stclvs	3, cr6, [pc, #-368]!	; 1474 <_Min_Stack_Size+0x1074>
    15e0:	2e74732e 	cdpcs	3, 7, cr7, cr4, cr14, {1}
    15e4:	336d7473 	cmncc	sp, #1929379840	; 0x73000000
    15e8:	62756332 	rsbsvs	r6, r5, #-939524096	; 0xc8000000
    15ec:	64692e65 	strbtvs	r2, [r9], #-3685	; 0xfffff19b
    15f0:	636d2e65 	cmnvs	sp, #1616	; 0x650
    15f4:	78652e75 	stmdavc	r5!, {r0, r2, r4, r5, r6, r9, sl, fp, sp}^
    15f8:	6e726574 	mrcvs	5, 3, r6, cr2, cr4, {3}
    15fc:	6f746c61 	svcvs	0x00746c61
    1600:	2e736c6f 	cdpcs	12, 7, cr6, cr3, cr15, {3}
    1604:	2d756e67 	ldclcs	14, cr6, [r5, #-412]!	; 0xfffffe64
    1608:	6c6f6f74 	stclvs	15, cr6, [pc], #-464	; 1440 <_Min_Stack_Size+0x1040>
    160c:	6f662d73 	svcvs	0x00662d73
    1610:	74732d72 	ldrbtvc	r2, [r3], #-3442	; 0xfffff28e
    1614:	2e32336d 	cdpcs	3, 3, cr3, cr2, cr13, {3}
    1618:	332e3031 			; <UNDEFINED> instruction: 0x332e3031
    161c:	3230322d 	eorscc	r3, r0, #-805306366	; 0xd0000002
    1620:	30312e31 	eorscc	r2, r1, r1, lsr lr
    1624:	6e69772e 	cdpvs	7, 6, cr7, cr9, cr14, {1}
    1628:	315f3233 	cmpcc	pc, r3, lsr r2	; <UNPREDICTABLE>
    162c:	322e302e 	eorcc	r3, lr, #46	; 0x2e
    1630:	322e3030 	eorcc	r3, lr, #48	; 0x30
    1634:	30333230 	eorscc	r3, r3, r0, lsr r2
    1638:	31363131 	teqcc	r6, r1, lsr r1
    163c:	5c333030 	ldcpl	0, cr3, [r3], #-192	; 0xffffff40
    1640:	6c6f6f74 	stclvs	15, cr6, [pc], #-464	; 1478 <_Min_Stack_Size+0x1078>
    1644:	69625c73 	stmdbvs	r2!, {r0, r1, r4, r5, r6, sl, fp, ip, lr}^
    1648:	2e2e5c6e 	cdpcs	12, 2, cr5, cr14, cr14, {3}
    164c:	62696c2f 	rsbvs	r6, r9, #12032	; 0x2f00
    1650:	6363672f 	cmnvs	r3, #12320768	; 0xbc0000
    1654:	6d72612f 	ldfvse	f6, [r2, #-188]!	; 0xffffff44
    1658:	6e6f6e2d 	cdpvs	14, 6, cr6, cr15, cr13, {1}
    165c:	61652d65 	cmnvs	r5, r5, ror #26
    1660:	312f6962 			; <UNDEFINED> instruction: 0x312f6962
    1664:	2e332e30 	mrccs	14, 1, r2, cr3, cr0, {1}
    1668:	2e2e2f31 	mcrcs	15, 1, r2, cr14, cr1, {1}
    166c:	2f2e2e2f 	svccs	0x002e2e2f
    1670:	2e2f2e2e 	cdpcs	14, 2, cr2, cr15, cr14, {1}
    1674:	72612f2e 	rsbvc	r2, r1, #46, 30	; 0xb8
    1678:	6f6e2d6d 	svcvs	0x006e2d6d
    167c:	652d656e 	strvs	r6, [sp, #-1390]!	; 0xfffffa92
    1680:	2f696261 	svccs	0x00696261
    1684:	6c636e69 	stclvs	14, cr6, [r3], #-420	; 0xfffffe5c
    1688:	00656475 	rsbeq	r6, r5, r5, ror r4
    168c:	655c3a67 	ldrbvs	r3, [ip, #-2663]	; 0xfffff599
    1690:	74732e6e 	ldrbtvc	r2, [r3], #-3694	; 0xfffff192
    1694:	6d74732d 	ldclvs	3, cr7, [r4, #-180]!	; 0xffffff4c
    1698:	75633233 	strbvc	r3, [r3, #-563]!	; 0xfffffdcd
    169c:	64696562 	strbtvs	r6, [r9], #-1378	; 0xfffffa9e
    16a0:	2e315f65 	cdpcs	15, 3, cr5, cr1, cr5, {3}
    16a4:	5f302e34 	svcpl	0x00302e34
    16a8:	31313537 	teqcc	r1, r7, lsr r5
    16ac:	3230325f 	eorscc	r3, r0, #-268435451	; 0xf0000005
    16b0:	32373030 	eorscc	r3, r7, #48	; 0x30
    16b4:	39305f30 	ldmdbcc	r0!, {r4, r5, r8, r9, sl, fp, ip, lr}
    16b8:	785f3832 	ldmdavc	pc, {r1, r4, r5, fp, ip, sp}^	; <UNPREDICTABLE>
    16bc:	365f3638 			; <UNDEFINED> instruction: 0x365f3638
    16c0:	78655f34 	stmdavc	r5!, {r2, r4, r5, r8, r9, sl, fp, ip, lr}^
    16c4:	74735c65 	ldrbtvc	r5, [r3], #-3173	; 0xfffff39b
    16c8:	6332336d 	teqvs	r2, #-1275068415	; 0xb4000001
    16cc:	69656275 	stmdbvs	r5!, {r0, r2, r4, r5, r6, r9, sp, lr}^
    16d0:	315f6564 	cmpcc	pc, r4, ror #10
    16d4:	302e342e 	eorcc	r3, lr, lr, lsr #8
    16d8:	6d74735c 	ldclvs	3, cr7, [r4, #-368]!	; 0xfffffe90
    16dc:	75633233 	strbvc	r3, [r3, #-563]!	; 0xfffffdcd
    16e0:	64696562 	strbtvs	r6, [r9], #-1378	; 0xfffffa9e
    16e4:	6c705c65 	ldclvs	12, cr5, [r0], #-404	; 0xfffffe6c
    16e8:	6e696775 	mcrvs	7, 3, r6, cr9, cr5, {3}
    16ec:	6f635c73 	svcvs	0x00635c73
    16f0:	74732e6d 	ldrbtvc	r2, [r3], #-3693	; 0xfffff193
    16f4:	6d74732e 	ldclvs	3, cr7, [r4, #-184]!	; 0xffffff48
    16f8:	75633233 	strbvc	r3, [r3, #-563]!	; 0xfffffdcd
    16fc:	692e6562 	stmdbvs	lr!, {r1, r5, r6, r8, sl, sp, lr}
    1700:	6d2e6564 	cfstr32vs	mvfx6, [lr, #-400]!	; 0xfffffe70
    1704:	652e7563 	strvs	r7, [lr, #-1379]!	; 0xfffffa9d
    1708:	72657478 	rsbvc	r7, r5, #120, 8	; 0x78000000
    170c:	746c616e 	strbtvc	r6, [ip], #-366	; 0xfffffe92
    1710:	736c6f6f 	cmnvc	ip, #444	; 0x1bc
    1714:	756e672e 	strbvc	r6, [lr, #-1838]!	; 0xfffff8d2
    1718:	6f6f742d 	svcvs	0x006f742d
    171c:	662d736c 	strtvs	r7, [sp], -ip, ror #6
    1720:	732d726f 			; <UNDEFINED> instruction: 0x732d726f
    1724:	32336d74 	eorscc	r6, r3, #116, 26	; 0x1d00
    1728:	2e30312e 	rsfcssp	f3, f0, #0.5
    172c:	30322d33 	eorscc	r2, r2, r3, lsr sp
    1730:	312e3132 			; <UNDEFINED> instruction: 0x312e3132
    1734:	69772e30 	ldmdbvs	r7!, {r4, r5, r9, sl, fp, sp}^
    1738:	5f32336e 	svcpl	0x0032336e
    173c:	2e302e31 	mrccs	14, 1, r2, cr0, cr1, {1}
    1740:	2e303032 	mrccs	0, 1, r3, cr0, cr2, {1}
    1744:	33323032 	teqcc	r2, #50	; 0x32
    1748:	36313130 			; <UNDEFINED> instruction: 0x36313130
    174c:	33303031 	teqcc	r0, #49	; 0x31
    1750:	6f6f745c 	svcvs	0x006f745c
    1754:	615c736c 	cmpvs	ip, ip, ror #6
    1758:	6e2d6d72 	mcrvs	13, 1, r6, cr13, cr2, {3}
    175c:	2d656e6f 	stclcs	14, cr6, [r5, #-444]!	; 0xfffffe44
    1760:	69626165 	stmdbvs	r2!, {r0, r2, r5, r6, r8, sp, lr}^
    1764:	636e695c 	cmnvs	lr, #92, 18	; 0x170000
    1768:	6564756c 	strbvs	r7, [r4, #-1388]!	; 0xfffffa94
    176c:	77656e5c 			; <UNDEFINED> instruction: 0x77656e5c
    1770:	2d62696c 			; <UNDEFINED> instruction: 0x2d62696c
    1774:	6f6e616e 	svcvs	0x006e616e
    1778:	5c3a6700 	ldcpl	7, cr6, [sl], #-0
    177c:	732e6e65 			; <UNDEFINED> instruction: 0x732e6e65
    1780:	74732d74 	ldrbtvc	r2, [r3], #-3444	; 0xfffff28c
    1784:	6332336d 	teqvs	r2, #-1275068415	; 0xb4000001
    1788:	69656275 	stmdbvs	r5!, {r0, r2, r4, r5, r6, r9, sp, lr}^
    178c:	315f6564 	cmpcc	pc, r4, ror #10
    1790:	302e342e 	eorcc	r3, lr, lr, lsr #8
    1794:	3135375f 	teqcc	r5, pc, asr r7
    1798:	30325f31 	eorscc	r5, r2, r1, lsr pc
    179c:	37303032 			; <UNDEFINED> instruction: 0x37303032
    17a0:	305f3032 	subscc	r3, pc, r2, lsr r0	; <UNPREDICTABLE>
    17a4:	5f383239 	svcpl	0x00383239
    17a8:	5f363878 	svcpl	0x00363878
    17ac:	655f3436 	ldrbvs	r3, [pc, #-1078]	; 137e <_Min_Stack_Size+0xf7e>
    17b0:	735c6578 	cmpvc	ip, #120, 10	; 0x1e000000
    17b4:	32336d74 	eorscc	r6, r3, #116, 26	; 0x1d00
    17b8:	65627563 	strbvs	r7, [r2, #-1379]!	; 0xfffffa9d
    17bc:	5f656469 	svcpl	0x00656469
    17c0:	2e342e31 	mrccs	14, 1, r2, cr4, cr1, {1}
    17c4:	74735c30 	ldrbtvc	r5, [r3], #-3120	; 0xfffff3d0
    17c8:	6332336d 	teqvs	r2, #-1275068415	; 0xb4000001
    17cc:	69656275 	stmdbvs	r5!, {r0, r2, r4, r5, r6, r9, sp, lr}^
    17d0:	705c6564 	subsvc	r6, ip, r4, ror #10
    17d4:	6967756c 	stmdbvs	r7!, {r2, r3, r5, r6, r8, sl, ip, sp, lr}^
    17d8:	635c736e 	cmpvs	ip, #-1207959551	; 0xb8000001
    17dc:	732e6d6f 			; <UNDEFINED> instruction: 0x732e6d6f
    17e0:	74732e74 	ldrbtvc	r2, [r3], #-3700	; 0xfffff18c
    17e4:	6332336d 	teqvs	r2, #-1275068415	; 0xb4000001
    17e8:	2e656275 	mcrcs	2, 3, r6, cr5, cr5, {3}
    17ec:	2e656469 	cdpcs	4, 6, cr6, cr5, cr9, {3}
    17f0:	2e75636d 	cdpcs	3, 7, cr6, cr5, cr13, {3}
    17f4:	65747865 	ldrbvs	r7, [r4, #-2149]!	; 0xfffff79b
    17f8:	6c616e72 	stclvs	14, cr6, [r1], #-456	; 0xfffffe38
    17fc:	6c6f6f74 	stclvs	15, cr6, [pc], #-464	; 1634 <_Min_Stack_Size+0x1234>
    1800:	6e672e73 	mcrvs	14, 3, r2, cr7, cr3, {3}
    1804:	6f742d75 	svcvs	0x00742d75
    1808:	2d736c6f 	ldclcs	12, cr6, [r3, #-444]!	; 0xfffffe44
    180c:	2d726f66 	ldclcs	15, cr6, [r2, #-408]!	; 0xfffffe68
    1810:	336d7473 	cmncc	sp, #1929379840	; 0x73000000
    1814:	30312e32 	eorscc	r2, r1, r2, lsr lr
    1818:	322d332e 	eorcc	r3, sp, #-1207959552	; 0xb8000000
    181c:	2e313230 	mrccs	2, 1, r3, cr1, cr0, {1}
    1820:	772e3031 			; <UNDEFINED> instruction: 0x772e3031
    1824:	32336e69 	eorscc	r6, r3, #1680	; 0x690
    1828:	302e315f 	eorcc	r3, lr, pc, asr r1
    182c:	3030322e 	eorscc	r3, r0, lr, lsr #4
    1830:	3230322e 	eorscc	r3, r0, #-536870910	; 0xe0000002
    1834:	31313033 	teqcc	r1, r3, lsr r0
    1838:	30303136 	eorscc	r3, r0, r6, lsr r1
    183c:	6f745c33 	svcvs	0x00745c33
    1840:	5c736c6f 	ldclpl	12, cr6, [r3], #-444	; 0xfffffe44
    1844:	5c62696c 			; <UNDEFINED> instruction: 0x5c62696c
    1848:	5c636367 	stclpl	3, cr6, [r3], #-412	; 0xfffffe64
    184c:	2d6d7261 	sfmcs	f7, 2, [sp, #-388]!	; 0xfffffe7c
    1850:	656e6f6e 	strbvs	r6, [lr, #-3950]!	; 0xfffff092
    1854:	6261652d 	rsbvs	r6, r1, #188743680	; 0xb400000
    1858:	30315c69 	eorscc	r5, r1, r9, ror #24
    185c:	312e332e 			; <UNDEFINED> instruction: 0x312e332e
    1860:	636e695c 	cmnvs	lr, #92, 18	; 0x170000
    1864:	6564756c 	strbvs	r7, [r4, #-1388]!	; 0xfffffa94
    1868:	74730000 	ldrbtvc	r0, [r3], #-0
    186c:	5f32336d 	svcpl	0x0032336d
    1870:	33303166 	teqcc	r0, #-2147483623	; 0x80000019
    1874:	645f3663 	ldrbvs	r3, [pc], #-1635	; 187c <_Min_Stack_Size+0x147c>
    1878:	65766972 	ldrbvs	r6, [r6, #-2418]!	; 0xfffff68e
    187c:	675f7372 			; <UNDEFINED> instruction: 0x675f7372
    1880:	2e6f6970 			; <UNDEFINED> instruction: 0x2e6f6970
    1884:	00010063 	andeq	r0, r1, r3, rrx
    1888:	65645f00 	strbvs	r5, [r4, #-3840]!	; 0xfffff100
    188c:	6c756166 	ldfvse	f6, [r5], #-408	; 0xfffffe68
    1890:	79745f74 	ldmdbvc	r4!, {r2, r4, r5, r6, r8, r9, sl, fp, ip, lr}^
    1894:	2e736570 	mrccs	5, 3, r6, cr3, cr0, {3}
    1898:	00020068 	andeq	r0, r2, r8, rrx
    189c:	74735f00 	ldrbtvc	r5, [r3], #-3840	; 0xfffff100
    18a0:	746e6964 	strbtvc	r6, [lr], #-2404	; 0xfffff69c
    18a4:	0300682e 	movweq	r6, #2094	; 0x82e
    18a8:	74730000 	ldrbtvc	r0, [r3], #-0
    18ac:	5f32336d 	svcpl	0x0032336d
    18b0:	33303166 	teqcc	r0, #-2147483623	; 0x80000019
    18b4:	682e3678 	stmdavs	lr!, {r3, r4, r5, r6, r9, sl, ip, sp}
    18b8:	00000400 	andeq	r0, r0, r0, lsl #8
    18bc:	336d7473 	cmncc	sp, #1929379840	; 0x73000000
    18c0:	31665f32 	cmncc	r6, r2, lsr pc
    18c4:	36633330 			; <UNDEFINED> instruction: 0x36633330
    18c8:	6972645f 	ldmdbvs	r2!, {r0, r1, r2, r3, r4, r6, sl, sp, lr}^
    18cc:	73726576 	cmnvc	r2, #494927872	; 0x1d800000
    18d0:	4950475f 	ldmdbmi	r0, {r0, r1, r2, r3, r4, r6, r8, r9, sl, lr}^
    18d4:	00682e4f 	rsbeq	r2, r8, pc, asr #28
    18d8:	73000004 	movwvc	r0, #4
    18dc:	696c6474 	stmdbvs	ip!, {r2, r4, r5, r6, sl, sp, lr}^
    18e0:	00682e62 	rsbeq	r2, r8, r2, ror #28
    18e4:	69000005 	stmdbvs	r0, {r0, r2}
    18e8:	66656565 	strbtvs	r6, [r5], -r5, ror #10
    18ec:	00682e70 	rsbeq	r2, r8, r0, ror lr
    18f0:	5f000002 	svcpl	0x00000002
    18f4:	69736e61 	ldmdbvs	r3!, {r0, r5, r6, r9, sl, fp, sp, lr}^
    18f8:	0500682e 	streq	r6, [r0, #-2094]	; 0xfffff7d2
    18fc:	656e0000 	strbvs	r0, [lr, #-0]!
    1900:	62696c77 	rsbvs	r6, r9, #30464	; 0x7700
    1904:	0600682e 	streq	r6, [r0], -lr, lsr #16
    1908:	6e5f0000 	cdpvs	0, 5, cr0, cr15, cr0, {0}
    190c:	696c7765 	stmdbvs	ip!, {r0, r2, r5, r6, r8, r9, sl, ip, sp, lr}^
    1910:	65765f62 	ldrbvs	r5, [r6, #-3938]!	; 0xfffff09e
    1914:	6f697372 	svcvs	0x00697372
    1918:	00682e6e 	rsbeq	r2, r8, lr, ror #28
    191c:	63000005 	movwvs	r0, #5
    1920:	69666e6f 	stmdbvs	r6!, {r0, r1, r2, r3, r5, r6, r9, sl, fp, sp, lr}^
    1924:	00682e67 	rsbeq	r2, r8, r7, ror #28
    1928:	66000003 	strvs	r0, [r0], -r3
    192c:	75746165 	ldrbvc	r6, [r4, #-357]!	; 0xfffffe9b
    1930:	2e736572 	mrccs	5, 3, r6, cr3, cr2, {3}
    1934:	00030068 	andeq	r0, r3, r8, rrx
    1938:	64747300 	ldrbtvs	r7, [r4], #-768	; 0xfffffd00
    193c:	2e666564 	cdpcs	5, 6, cr6, cr6, cr4, {3}
    1940:	00070068 	andeq	r0, r7, r8, rrx
    1944:	65657200 	strbvs	r7, [r5, #-512]!	; 0xfffffe00
    1948:	682e746e 	stmdavs	lr!, {r1, r2, r3, r5, r6, sl, ip, sp, lr}
    194c:	00000300 	andeq	r0, r0, r0, lsl #6
    1950:	7079745f 	rsbsvc	r7, r9, pc, asr r4
    1954:	682e7365 	stmdavs	lr!, {r0, r2, r5, r6, r8, r9, ip, sp, lr}
    1958:	00000300 	andeq	r0, r0, r0, lsl #6
    195c:	7079745f 	rsbsvc	r7, r9, pc, asr r4
    1960:	682e7365 	stmdavs	lr!, {r0, r2, r5, r6, r8, r9, ip, sp, lr}
    1964:	00000200 	andeq	r0, r0, r0, lsl #4
    1968:	6b636f6c 	blvs	18dd720 <_Min_Stack_Size+0x18dd320>
    196c:	0300682e 	movweq	r6, #2094	; 0x82e
    1970:	73610000 	cmnvc	r1, #0
    1974:	74726573 	ldrbtvc	r6, [r2], #-1395	; 0xfffffa8d
    1978:	0500682e 	streq	r6, [r0, #-2094]	; 0xfffff7d2
    197c:	64630000 	strbtvs	r0, [r3], #-0
    1980:	2e736665 	cdpcs	6, 7, cr6, cr3, cr5, {3}
    1984:	00030068 	andeq	r0, r3, r8, rrx
    1988:	64747300 	ldrbtvs	r7, [r4], #-768	; 0xfffffd00
    198c:	2e62696c 	vnmulcs.f16	s13, s4, s25	; <UNPREDICTABLE>
    1990:	00020068 	andeq	r0, r2, r8, rrx
    1994:	6c6c6100 	stfvse	f6, [ip], #-0
    1998:	2e61636f 	cdpcs	3, 6, cr6, cr1, cr15, {3}
    199c:	00050068 	andeq	r0, r5, r8, rrx
    19a0:	64747300 	ldrbtvs	r7, [r4], #-768	; 0xfffffd00
    19a4:	2e746e69 	cdpcs	14, 7, cr6, cr4, cr9, {3}
    19a8:	00070068 	andeq	r0, r7, r8, rrx
    19ac:	64747300 	ldrbtvs	r7, [r4], #-768	; 0xfffffd00
    19b0:	2e746e69 	cdpcs	14, 7, cr6, cr4, cr9, {3}
    19b4:	00050068 	andeq	r0, r5, r8, rrx
    19b8:	6e695f00 	cdpvs	15, 6, cr5, cr9, cr0, {0}
    19bc:	70757374 	rsbsvc	r7, r5, r4, ror r3
    19c0:	0300682e 	movweq	r6, #2094	; 0x82e
    19c4:	05000000 	streq	r0, [r0, #-0]
    19c8:	02050001 	andeq	r0, r5, #1
    19cc:	08000854 	stmdaeq	r0, {r2, r4, r6, fp}
    19d0:	05011703 	streq	r1, [r1, #-1795]	; 0xfffff8fd
    19d4:	0a055902 	beq	157de4 <_Min_Stack_Size+0x1579e4>
    19d8:	15018c02 	strne	r8, [r1, #-3074]	; 0xfffff3fe
    19dc:	31313131 	teqcc	r1, r1, lsr r1
    19e0:	31313131 	teqcc	r1, r1, lsr r1
    19e4:	31313131 	teqcc	r1, r1, lsr r1
    19e8:	05313131 	ldreq	r3, [r1, #-305]!	; 0xfffffecf
    19ec:	01053109 	tsteq	r5, r9, lsl #2
    19f0:	00050221 	andeq	r0, r5, r1, lsr #4
    19f4:	01050101 	tsteq	r5, r1, lsl #2
    19f8:	c4020500 	strgt	r0, [r2], #-1280	; 0xfffffb00
    19fc:	03080009 	movweq	r0, #32777	; 0x8009
    1a00:	050100d1 	streq	r0, [r1, #-209]	; 0xffffff2f
    1a04:	0a055916 	beq	157e64 <_Min_Stack_Size+0x157a64>
    1a08:	2f1e052f 	svccs	0x001e052f
    1a0c:	002e4d05 	eoreq	r4, lr, r5, lsl #26
    1a10:	06010402 	streq	r0, [r1], -r2, lsl #8
    1a14:	0402002e 	streq	r0, [r2], #-46	; 0xffffffd2
    1a18:	11052e02 	tstne	r5, r2, lsl #28
    1a1c:	04040200 	streq	r0, [r4], #-512	; 0xfffffe00
    1a20:	20052e06 	andcs	r2, r5, r6, lsl #28
    1a24:	04040200 	streq	r0, [r4], #-512	; 0xfffffe00
    1a28:	001c0523 	andseq	r0, ip, r3, lsr #10
    1a2c:	74040402 	strvc	r0, [r4], #-1026	; 0xfffffbfe
    1a30:	02001605 	andeq	r1, r0, #5242880	; 0x500000
    1a34:	052e0404 	streq	r0, [lr, #-1028]!	; 0xfffffbfc
    1a38:	04020013 	streq	r0, [r2], #-19	; 0xffffffed
    1a3c:	0f052004 	svceq	0x00052004
    1a40:	04040200 	streq	r0, [r4], #-512	; 0xfffffe00
    1a44:	0004055b 	andeq	r0, r4, fp, asr r5
    1a48:	2e040402 	cdpcs	4, 0, cr0, cr4, cr2, {0}
    1a4c:	02003f05 	andeq	r3, r0, #5, 30
    1a50:	052e0104 	streq	r0, [lr, #-260]!	; 0xfffffefc
    1a54:	04020033 	streq	r0, [r2], #-51	; 0xffffffcd
    1a58:	6e052e01 	cdpvs	14, 0, cr2, cr5, cr1, {0}
    1a5c:	02040200 	andeq	r0, r4, #0, 4
    1a60:	0062052e 	rsbeq	r0, r2, lr, lsr #10
    1a64:	2e020402 	cdpcs	4, 0, cr0, cr2, cr2, {0}
    1a68:	0001a005 	andeq	sl, r1, r5
    1a6c:	2e030402 	cdpcs	4, 0, cr0, cr3, cr2, {0}
    1a70:	00019405 	andeq	r9, r1, r5, lsl #8
    1a74:	2e030402 	cdpcs	4, 0, cr0, cr3, cr2, {0}
    1a78:	05311d05 	ldreq	r1, [r1, #-3333]!	; 0xfffff2fb
    1a7c:	2e052e29 	cdpcs	14, 0, cr2, cr5, cr9, {1}
    1a80:	20330520 	eorscs	r0, r3, r0, lsr #10
    1a84:	05204005 	streq	r4, [r0, #-5]!
    1a88:	33053c56 	movwcc	r3, #23638	; 0x5c56
    1a8c:	2e0e053c 	mcrcs	5, 0, r0, cr14, cr12, {1}
    1a90:	05361105 	ldreq	r1, [r6, #-261]!	; 0xfffffefb
    1a94:	3f052e05 	svccc	0x00052e05
    1a98:	01040200 	mrseq	r0, R12_usr
    1a9c:	0032052e 	eorseq	r0, r2, lr, lsr #10
    1aa0:	2e010402 	cdpcs	4, 0, cr0, cr1, cr2, {0}
    1aa4:	05301d05 	ldreq	r1, [r0, #-3333]!	; 0xfffff2fb
    1aa8:	15052e0f 	strne	r2, [r5, #-3599]	; 0xfffff1f1
    1aac:	2e0a053f 	mcrcs	5, 0, r0, cr10, cr15, {1}
    1ab0:	41300f05 	teqmi	r0, r5, lsl #30
    1ab4:	052f1005 	streq	r1, [pc, #-5]!	; 1ab7 <_Min_Stack_Size+0x16b7>
    1ab8:	10052e06 	andne	r2, r5, r6, lsl #28
    1abc:	2e1c0531 	mrccs	5, 0, r0, cr12, cr1, {1}
    1ac0:	4d2e1005 	stcmi	0, cr1, [lr, #-20]!	; 0xffffffec
    1ac4:	052e1e05 	streq	r1, [lr, #-3589]!	; 0xfffff1fb
    1ac8:	10052e13 	andne	r2, r5, r3, lsl lr
    1acc:	41260520 			; <UNDEFINED> instruction: 0x41260520
    1ad0:	05202905 	streq	r2, [r0, #-2309]!	; 0xfffff6fb
    1ad4:	14056626 	strne	r6, [r5], #-1574	; 0xfffff9da
    1ad8:	5a01052e 	bpl	42f98 <_Min_Stack_Size+0x42b98>
    1adc:	01000402 	tsteq	r0, r2, lsl #8
    1ae0:	00010501 	andeq	r0, r1, r1, lsl #10
    1ae4:	00000205 	andeq	r0, r0, r5, lsl #4
    1ae8:	8b030000 	blhi	c1af0 <_Min_Stack_Size+0xc16f0>
    1aec:	04050101 	streq	r0, [r5], #-257	; 0xfffffeff
    1af0:	4b11054b 	blmi	443024 <_Min_Stack_Size+0x442c24>
    1af4:	69040567 	stmdbvs	r4, {r0, r1, r2, r5, r6, r8, sl}
    1af8:	674b1105 	strbvs	r1, [fp, -r5, lsl #2]
    1afc:	05690405 	strbeq	r0, [r9, #-1029]!	; 0xfffffbfb
    1b00:	05674b11 	strbeq	r4, [r7, #-2833]!	; 0xfffff4ef
    1b04:	11056904 	tstne	r5, r4, lsl #18
    1b08:	0405674b 	streq	r6, [r5], #-1867	; 0xfffff8b5
    1b0c:	4b110569 	blmi	4430b8 <_Min_Stack_Size+0x442cb8>
    1b10:	68010567 	stmdavs	r1, {r0, r1, r2, r5, r6, r8, sl}
    1b14:	01001202 	tsteq	r0, r2, lsl #4
    1b18:	00010501 	andeq	r0, r1, r1, lsl #10
    1b1c:	00000205 	andeq	r0, r0, r5, lsl #4
    1b20:	b2030000 	andlt	r0, r3, #0
    1b24:	0c050101 	stfeqs	f0, [r5], {1}
    1b28:	2e120568 	cfmsc32cs	mvfx0, mvfx2, mvfx8
    1b2c:	052e0405 	streq	r0, [lr, #-1029]!	; 0xfffffbfb
    1b30:	053e2f0d 	ldreq	r2, [lr, #-3853]!	; 0xfffff0f3
    1b34:	01053109 	tsteq	r5, r9, lsl #2
    1b38:	00050221 	andeq	r0, r5, r1, lsr #4
    1b3c:	01050101 	tsteq	r5, r1, lsl #2
    1b40:	00020500 	andeq	r0, r2, r0, lsl #10
    1b44:	03000000 	movweq	r0, #0
    1b48:	050101c9 	streq	r0, [r1, #-457]	; 0xfffffe37
    1b4c:	0c054c1e 	stceq	12, cr4, [r5], {30}
    1b50:	2109052e 	tstcs	r9, lr, lsr #10
    1b54:	02210105 	eoreq	r0, r1, #1073741825	; 0x40000001
    1b58:	01010005 	tsteq	r1, r5
    1b5c:	05000105 	streq	r0, [r0, #-261]	; 0xfffffefb
    1b60:	00000002 	andeq	r0, r0, r2
    1b64:	01dc0300 	bicseq	r0, ip, r0, lsl #6
    1b68:	670f0501 	strvs	r0, [pc, -r1, lsl #10]
    1b6c:	05200d05 	streq	r0, [r0, #-3333]!	; 0xfffff2fb
    1b70:	05022f01 	streq	r2, [r2, #-3841]	; 0xfffff0ff
    1b74:	05010100 	streq	r0, [r1, #-256]	; 0xffffff00
    1b78:	02050001 	andeq	r0, r5, #1
    1b7c:	00000000 	andeq	r0, r0, r0
    1b80:	0101eb03 	tsteq	r1, r3, lsl #22
    1b84:	05830405 	streq	r0, [r3, #1029]	; 0x405
    1b88:	0f054410 	svceq	0x00054410
    1b8c:	03010520 	movweq	r0, #5408	; 0x1520
    1b90:	0f052e09 	svceq	0x00052e09
    1b94:	200e051e 	andcs	r0, lr, lr, lsl r5
    1b98:	02300105 	eorseq	r0, r0, #1073741825	; 0x40000001
    1b9c:	01010005 	tsteq	r1, r5
    1ba0:	05000105 	streq	r0, [r0, #-261]	; 0xfffffefb
    1ba4:	00000002 	andeq	r0, r0, r2
    1ba8:	028a0300 	addeq	r0, sl, #0, 6
    1bac:	670d0501 	strvs	r0, [sp, -r1, lsl #10]
    1bb0:	02670105 	rsbeq	r0, r7, #1073741825	; 0x40000001
    1bb4:	01010005 	tsteq	r1, r5

Disassembly of section .debug_str:

00000000 <.debug_str>:
       0:	4e475f5f 	mcrmi	15, 2, r5, cr7, cr15, {2}
       4:	494c4355 	stmdbmi	ip, {r0, r2, r4, r6, r8, r9, lr}^
       8:	5f5f454b 	svcpl	0x005f454b
       c:	4345535f 	movtmi	r5, #21343	; 0x535f
      10:	4e4f4954 			; <UNDEFINED> instruction: 0x4e4f4954
      14:	57003120 	strpl	r3, [r0, -r0, lsr #2]
      18:	5f544e49 	svcpl	0x00544e49
      1c:	204e494d 	subcs	r4, lr, sp, asr #18
      20:	575f5f28 	ldrbpl	r5, [pc, -r8, lsr #30]
      24:	5f544e49 	svcpl	0x00544e49
      28:	5f4e494d 	svcpl	0x004e494d
      2c:	5f00295f 	svcpl	0x0000295f
      30:	4345445f 	movtmi	r4, #21599	; 0x545f
      34:	4c414d49 	mcrrmi	13, 4, r4, r1, cr9
      38:	4749445f 	smlsldmi	r4, r9, pc, r4	; <UNPREDICTABLE>
      3c:	31205f5f 			; <UNDEFINED> instruction: 0x31205f5f
      40:	656c0037 	strbvs	r0, [ip, #-55]!	; 0xffffffc9
      44:	006c6576 	rsbeq	r6, ip, r6, ror r5
      48:	48555f5f 	ldmdami	r5, {r0, r1, r2, r3, r4, r6, r8, r9, sl, fp, ip, lr}^
      4c:	42465f41 	submi	r5, r6, #260	; 0x104
      50:	5f5f5449 	svcpl	0x005f5449
      54:	5f003820 	svcpl	0x00003820
      58:	4956535f 	ldmdbmi	r6, {r0, r1, r2, r3, r4, r6, r8, r9, ip, lr}^
      5c:	49565f44 	ldmdbmi	r6, {r2, r6, r8, r9, sl, fp, ip, lr}^
      60:	4c424953 	mcrrmi	9, 5, r4, r2, cr3	; <UNPREDICTABLE>
      64:	00312045 	eorseq	r2, r1, r5, asr #32
      68:	6e695f5f 	mcrvs	15, 3, r5, cr9, cr15, {2}
      6c:	20303274 	eorscs	r3, r0, r4, ror r2
      70:	5f00322b 	svcpl	0x0000322b
      74:	544c465f 	strbpl	r4, [ip], #-1631	; 0xfffff9a1
      78:	445f3436 	ldrbmi	r3, [pc], #-1078	; 80 <_Min_Heap_Size-0x180>
      7c:	524f4e45 	subpl	r4, pc, #1104	; 0x450
      80:	494d5f4d 	stmdbmi	sp, {r0, r2, r3, r6, r8, r9, sl, fp, ip, lr}^
      84:	205f5f4e 	subscs	r5, pc, lr, asr #30
      88:	34392e34 	ldrtcc	r2, [r9], #-3636	; 0xfffff1cc
      8c:	36353630 			; <UNDEFINED> instruction: 0x36353630
      90:	34383534 	ldrtcc	r3, [r8], #-1332	; 0xfffffacc
      94:	36343231 			; <UNDEFINED> instruction: 0x36343231
      98:	2d653435 	cfstrdcs	mvd3, [r5, #-212]!	; 0xffffff2c
      9c:	46343233 			; <UNDEFINED> instruction: 0x46343233
      a0:	5f003436 	svcpl	0x00003436
      a4:	5f43435f 	svcpl	0x0043435f
      a8:	50505553 	subspl	r5, r0, r3, asr r5
      ac:	5354524f 	cmppl	r4, #-268435452	; 0xf0000004
      b0:	4c4e495f 	mcrrmi	9, 5, r4, lr, cr15	; <UNPREDICTABLE>
      b4:	20454e49 	subcs	r4, r5, r9, asr #28
      b8:	5f5f0031 	svcpl	0x005f0031
      bc:	65726e75 	ldrbvs	r6, [r2, #-3701]!	; 0xfffff18b
      c0:	61686361 	cmnvs	r8, r1, ror #6
      c4:	28656c62 	stmdacs	r5!, {r1, r5, r6, sl, fp, sp, lr}^
      c8:	5f5f2029 	svcpl	0x005f2029
      cc:	6c697562 	cfstr64vs	mvdx7, [r9], #-392	; 0xfffffe78
      d0:	5f6e6974 	svcpl	0x006e6974
      d4:	65726e75 	ldrbvs	r6, [r2, #-3701]!	; 0xfffff18b
      d8:	61686361 	cmnvs	r8, r1, ror #6
      dc:	28656c62 	stmdacs	r5!, {r1, r5, r6, sl, fp, sp, lr}^
      e0:	5f5f0029 	svcpl	0x005f0029
      e4:	5f434347 	svcpl	0x00434347
      e8:	4d4f5441 	cfstrdmi	mvd5, [pc, #-260]	; ffffffec <_estack+0xdfffd7ec>
      ec:	575f4349 	ldrbpl	r4, [pc, -r9, asr #6]
      f0:	52414843 	subpl	r4, r1, #4390912	; 0x430000
      f4:	4c5f545f 	cfldrdmi	mvd5, [pc], {95}	; 0x5f
      f8:	5f4b434f 	svcpl	0x004b434f
      fc:	45455246 	strbmi	r5, [r5, #-582]	; 0xfffffdba
     100:	5f003220 	svcpl	0x00003220
     104:	4148435f 	cmpmi	r8, pc, asr r3
     108:	4e555f52 	mrcmi	15, 2, r5, cr5, cr2, {2}
     10c:	4e474953 			; <UNDEFINED> instruction: 0x4e474953
     110:	5f5f4445 	svcpl	0x005f4445
     114:	5f003120 	svcpl	0x00003120
     118:	6165775f 	cmnvs	r5, pc, asr r7
     11c:	79735f6b 	ldmdbvc	r3!, {r0, r1, r3, r5, r6, r8, r9, sl, fp, ip, lr}^
     120:	6c6f626d 	sfmvs	f6, 2, [pc], #-436	; ffffff74 <_estack+0xdfffd774>
     124:	615f5f20 	cmpvs	pc, r0, lsr #30
     128:	69727474 	ldmdbvs	r2!, {r2, r4, r5, r6, sl, ip, sp, lr}^
     12c:	65747562 	ldrbvs	r7, [r4, #-1378]!	; 0xfffffa9e
     130:	28285f5f 	stmdacs	r8!, {r0, r1, r2, r3, r4, r6, r8, r9, sl, fp, ip, lr}
     134:	65775f5f 	ldrbvs	r5, [r7, #-3935]!	; 0xfffff0a1
     138:	5f5f6b61 	svcpl	0x005f6b61
     13c:	55002929 	strpl	r2, [r0, #-2345]	; 0xfffff6d7
     140:	54524153 	ldrbpl	r4, [r2], #-339	; 0xfffffead
     144:	28282032 	stmdacs	r8!, {r1, r4, r5, sp}
     148:	52415355 	subpl	r5, r1, #1409286145	; 0x54000001
     14c:	79545f54 	ldmdbvc	r4, {r2, r4, r6, r8, r9, sl, fp, ip, lr}^
     150:	65646570 	strbvs	r6, [r4, #-1392]!	; 0xfffffa90
     154:	20745f66 	rsbscs	r5, r4, r6, ror #30
     158:	5355292a 	cmppl	r5, #688128	; 0xa8000
     15c:	32545241 	subscc	r5, r4, #268435460	; 0x10000004
     160:	5341425f 	movtpl	r4, #4703	; 0x125f
     164:	5f002945 	svcpl	0x00002945
     168:	544c465f 	strbpl	r4, [ip], #-1631	; 0xfffff9a1
     16c:	485f3436 	ldmdami	pc, {r1, r2, r4, r5, sl, ip, sp}^	; <UNPREDICTABLE>
     170:	495f5341 	ldmdbmi	pc, {r0, r6, r8, r9, ip, lr}^	; <UNPREDICTABLE>
     174:	4e49464e 	cdpmi	6, 4, cr4, cr9, cr14, {2}
     178:	5f595449 	svcpl	0x00595449
     17c:	0031205f 	eorseq	r2, r1, pc, asr r0
     180:	52415355 	subpl	r5, r1, #1409286145	; 0x54000001
     184:	425f3354 	subsmi	r3, pc, #84, 6	; 0x50000001
     188:	20455341 	subcs	r5, r5, r1, asr #6
     18c:	30347830 	eorscc	r7, r4, r0, lsr r8
     190:	34343030 	ldrtcc	r3, [r4], #-48	; 0xffffffd0
     194:	00753030 	rsbseq	r3, r5, r0, lsr r0
     198:	65725f5f 	ldrbvs	r5, [r2, #-3935]!	; 0xfffff0a1
     19c:	72697571 	rsbvc	r7, r9, #473956352	; 0x1c400000
     1a0:	655f7365 	ldrbvs	r7, [pc, #-869]	; fffffe43 <_estack+0xdfffd643>
     1a4:	756c6378 	strbvc	r6, [ip, #-888]!	; 0xfffffc88
     1a8:	65766973 	ldrbvs	r6, [r6, #-2419]!	; 0xfffff68d
     1ac:	2e2e2e28 	cdpcs	14, 2, cr2, cr14, cr8, {1}
     1b0:	5f5f2029 	svcpl	0x005f2029
     1b4:	6b636f6c 	blvs	18dbf6c <_Min_Stack_Size+0x18dbb6c>
     1b8:	6e6e615f 	mcrvs	1, 3, r6, cr14, cr15, {2}
     1bc:	7461746f 	strbtvc	r7, [r1], #-1135	; 0xfffffb91
     1c0:	78652865 	stmdavc	r5!, {r0, r2, r5, r6, fp, sp}^
     1c4:	73756c63 	cmnvc	r5, #25344	; 0x6300
     1c8:	5f657669 	svcpl	0x00657669
     1cc:	6b636f6c 	blvs	18dbf84 <_Min_Stack_Size+0x18dbb84>
     1d0:	65725f73 	ldrbvs	r5, [r2, #-3955]!	; 0xfffff08d
     1d4:	72697571 	rsbvc	r7, r9, #473956352	; 0x1c400000
     1d8:	5f286465 	svcpl	0x00286465
     1dc:	5f41565f 	svcpl	0x0041565f
     1e0:	53475241 	movtpl	r5, #29249	; 0x7241
     1e4:	29295f5f 	stmdbcs	r9!, {r0, r1, r2, r3, r4, r6, r8, r9, sl, fp, ip, lr}
     1e8:	45525f00 	ldrbmi	r5, [r2, #-3840]	; 0xfffff100
     1ec:	5f544e45 	svcpl	0x00544e45
     1f0:	444e4152 	strbmi	r4, [lr], #-338	; 0xfffffeae
     1f4:	415f3834 	cmpmi	pc, r4, lsr r8	; <UNPREDICTABLE>
     1f8:	70284444 	eorvc	r4, r8, r4, asr #8
     1fc:	20297274 	eorcs	r7, r9, r4, ror r2
     200:	74702828 	ldrbtvc	r2, [r0], #-2088	; 0xfffff7d8
     204:	3e2d2972 			; <UNDEFINED> instruction: 0x3e2d2972
     208:	3834725f 	ldmdacc	r4!, {r0, r1, r2, r3, r4, r6, r9, ip, sp, lr}
     20c:	615f3e2d 	cmpvs	pc, sp, lsr #28
     210:	00296464 	eoreq	r6, r9, r4, ror #8
     214:	31544e49 	cmpcc	r4, r9, asr #28
     218:	494d5f36 	stmdbmi	sp, {r1, r2, r4, r5, r8, r9, sl, fp, ip, lr}^
     21c:	2d28204e 	stccs	0, cr2, [r8, #-312]!	; 0xfffffec8
     220:	4e495f5f 	mcrmi	15, 2, r5, cr9, cr15, {2}
     224:	5f363154 	svcpl	0x00363154
     228:	5f58414d 	svcpl	0x0058414d
     22c:	202d205f 	eorcs	r2, sp, pc, asr r0
     230:	5f002931 	svcpl	0x00002931
     234:	414c4c5f 	cmpmi	ip, pc, asr ip
     238:	4d554343 	ldclmi	3, cr4, [r5, #-268]	; 0xfffffef4
     23c:	4e494d5f 	mcrmi	13, 2, r4, cr9, cr15, {2}
     240:	28205f5f 	stmdacs	r0!, {r0, r1, r2, r3, r4, r6, r8, r9, sl, fp, ip, lr}
     244:	3158302d 	cmpcc	r8, sp, lsr #32
     248:	4c313350 	ldcmi	3, cr3, [r1], #-320	; 0xfffffec0
     24c:	302d4b4c 	eorcc	r4, sp, ip, asr #22
     250:	33503158 	cmpcc	r0, #88, 2
     254:	4b4c4c31 	blmi	1313320 <_Min_Stack_Size+0x1312f20>
     258:	4f430029 	svcmi	0x00430029
     25c:	58455452 	stmdapl	r5, {r1, r4, r6, sl, ip, lr}^
     260:	5f334d5f 	svcpl	0x00334d5f
     264:	45544e49 	ldrbmi	r4, [r4, #-3657]	; 0xfffff1b7
     268:	4c414e52 	mcrrmi	14, 5, r4, r1, cr2
     26c:	5245505f 	subpl	r5, r5, #95	; 0x5f
     270:	45485049 	strbmi	r5, [r8, #-73]	; 0xffffffb7
     274:	534c4152 	movtpl	r4, #49490	; 0xc152
     278:	5341425f 	movtpl	r4, #4703	; 0x125f
     27c:	78302045 	ldmdavc	r0!, {r0, r2, r6, sp}
     280:	30303045 	eorscc	r3, r0, r5, asr #32
     284:	30303030 	eorscc	r3, r0, r0, lsr r0
     288:	5f5f0075 	svcpl	0x005f0075
     28c:	4b434f4c 	blmi	10d3fc4 <_Min_Stack_Size+0x10d3bc4>
     290:	494e495f 	stmdbmi	lr, {r0, r1, r2, r3, r4, r6, r8, fp, lr}^
     294:	6c632854 	stclvs	8, cr2, [r3], #-336	; 0xfffffeb0
     298:	2c737361 	ldclcs	3, cr7, [r3], #-388	; 0xfffffe7c
     29c:	6b636f6c 	blvs	18dc054 <_Min_Stack_Size+0x18dbc54>
     2a0:	78652029 	stmdavc	r5!, {r0, r3, r5, sp}^
     2a4:	6e726574 	mrcvs	5, 3, r6, cr2, cr4, {3}
     2a8:	72747320 	rsbsvc	r7, r4, #32, 6	; 0x80000000
     2ac:	20746375 	rsbscs	r6, r4, r5, ror r3
     2b0:	6f6c5f5f 	svcvs	0x006c5f5f
     2b4:	5f206b63 	svcpl	0x00206b63
     2b8:	636f6c5f 	cmnvs	pc, #24320	; 0x5f00
     2bc:	23205f6b 			; <UNDEFINED> instruction: 0x23205f6b
     2c0:	6f6c2023 	svcvs	0x006c2023
     2c4:	203b6b63 	eorscs	r6, fp, r3, ror #22
     2c8:	73616c63 	cmnvc	r1, #25344	; 0x6300
     2cc:	4c5f2073 	mrrcmi	0, 7, r2, pc, cr3	; <UNPREDICTABLE>
     2d0:	5f4b434f 	svcpl	0x004b434f
     2d4:	6f6c2054 	svcvs	0x006c2054
     2d8:	3d206b63 	fstmdbxcc	r0!, {d6-d54}	;@ Deprecated
     2dc:	5f5f2620 	svcpl	0x005f2620
     2e0:	6b636f6c 	blvs	18dc098 <_Min_Stack_Size+0x18dbc98>
     2e4:	2323205f 			; <UNDEFINED> instruction: 0x2323205f
     2e8:	636f6c20 	cmnvs	pc, #32, 24	; 0x2000
     2ec:	5f5f006b 	svcpl	0x005f006b
     2f0:	44525450 	ldrbmi	r5, [r2], #-1104	; 0xfffffbb0
     2f4:	5f464649 	svcpl	0x00464649
     2f8:	5f58414d 	svcpl	0x0058414d
     2fc:	7830205f 	ldmdavc	r0!, {r0, r1, r2, r3, r4, r6, sp}
     300:	66666637 			; <UNDEFINED> instruction: 0x66666637
     304:	66666666 	strbtvs	r6, [r6], -r6, ror #12
     308:	4f4c5f00 	svcmi	0x004c5f00
     30c:	445f474e 	ldrbmi	r4, [pc], #-1870	; 314 <_Min_Heap_Size+0x114>
     310:	4c42554f 	cfstr64mi	mvdx5, [r2], {79}	; 0x4f
     314:	6f6c2045 	svcvs	0x006c2045
     318:	6420676e 	strtvs	r6, [r0], #-1902	; 0xfffff892
     31c:	6c62756f 	cfstr64vs	mvdx7, [r2], #-444	; 0xfffffe44
     320:	58450065 	stmdapl	r5, {r0, r2, r5, r6}^
     324:	5f394954 	svcpl	0x00394954
     328:	20515249 	subscs	r5, r1, r9, asr #4
     32c:	5f003332 	svcpl	0x00003332
     330:	544e495f 	strbpl	r4, [lr], #-2399	; 0xfffff6a1
     334:	5f58414d 	svcpl	0x0058414d
     338:	29632843 	stmdbcs	r3!, {r0, r1, r6, fp, sp}^
     33c:	23206320 			; <UNDEFINED> instruction: 0x23206320
     340:	4c4c2023 	mcrrmi	0, 2, r2, ip, cr3
     344:	49555f00 	ldmdbmi	r5, {r8, r9, sl, fp, ip, lr}^
     348:	3233544e 	eorscc	r5, r3, #1308622848	; 0x4e000000
     34c:	445f545f 	ldrbmi	r5, [pc], #-1119	; 354 <_Min_Heap_Size+0x154>
     350:	414c4345 	cmpmi	ip, r5, asr #6
     354:	20444552 	subcs	r4, r4, r2, asr r5
     358:	495f5f00 	ldmdbmi	pc, {r8, r9, sl, fp, ip, lr}^	; <UNPREDICTABLE>
     35c:	414d544e 	cmpmi	sp, lr, asr #8
     360:	414d5f58 	cmpmi	sp, r8, asr pc
     364:	205f5f58 	subscs	r5, pc, r8, asr pc	; <UNPREDICTABLE>
     368:	66377830 			; <UNDEFINED> instruction: 0x66377830
     36c:	66666666 	strbtvs	r6, [r6], -r6, ror #12
     370:	66666666 	strbtvs	r6, [r6], -r6, ror #12
     374:	66666666 	strbtvs	r6, [r6], -r6, ror #12
     378:	4c4c6666 	mcrrmi	6, 6, r6, ip, cr6
     37c:	545f5f00 	ldrbpl	r5, [pc], #-3840	; 384 <_Min_Heap_Size+0x184>
     380:	42495f51 	submi	r5, r9, #324	; 0x144
     384:	5f5f5449 	svcpl	0x005f5449
     388:	5f003020 	svcpl	0x00003020
     38c:	544c465f 	strbpl	r4, [ip], #-1631	; 0xfffff9a1
     390:	445f3436 	ldrbmi	r3, [pc], #-1078	; 398 <_Min_Heap_Size+0x198>
     394:	4d494345 	stclmi	3, cr4, [r9, #-276]	; 0xfffffeec
     398:	445f4c41 	ldrbmi	r4, [pc], #-3137	; 3a0 <_Min_Heap_Size+0x1a0>
     39c:	5f5f4749 	svcpl	0x005f4749
     3a0:	00373120 	eorseq	r3, r7, r0, lsr #2
     3a4:	49545845 	ldmdbmi	r4, {r0, r2, r6, fp, ip, lr}^
     3a8:	41503031 	cmpmi	r0, r1, lsr r0
     3ac:	28203031 	stmdacs	r0!, {r0, r4, r5, ip, sp}
     3b0:	49545845 	ldmdbmi	r4, {r0, r2, r6, fp, ip, lr}^
     3b4:	4950475f 	ldmdbmi	r0, {r0, r1, r2, r3, r4, r6, r8, r9, sl, lr}^
     3b8:	614d5f4f 	cmpvs	sp, pc, asr #30
     3bc:	6e697070 	mcrvs	0, 3, r7, cr9, cr0, {3}
     3c0:	29745f67 	ldmdbcs	r4!, {r0, r1, r2, r5, r6, r8, r9, sl, fp, ip, lr}^
     3c4:	5458457b 	ldrbpl	r4, [r8], #-1403	; 0xfffffa85
     3c8:	2c303149 	ldfcss	f3, [r0], #-292	; 0xfffffedc
     3cc:	49504720 	ldmdbmi	r0, {r5, r8, r9, sl, lr}^
     3d0:	202c414f 	eorcs	r4, ip, pc, asr #2
     3d4:	4f495047 	svcmi	0x00495047
     3d8:	4e49505f 	mcrmi	0, 2, r5, cr9, cr15, {2}
     3dc:	2c30315f 	ldfcss	f3, [r0], #-380	; 0xfffffe84
     3e0:	54584520 	ldrbpl	r4, [r8], #-1312	; 0xfffffae0
     3e4:	5f303149 	svcpl	0x00303149
     3e8:	7d515249 	lfmvc	f5, 2, [r1, #-292]	; 0xfffffedc
     3ec:	45525f00 	ldrbmi	r5, [r2, #-3840]	; 0xfffff100
     3f0:	5f544e45 	svcpl	0x00544e45
     3f4:	4e474953 			; <UNDEFINED> instruction: 0x4e474953
     3f8:	535f4c41 	cmppl	pc, #16640	; 0x4100
     3fc:	20455a49 	subcs	r5, r5, r9, asr #20
     400:	5f003432 	svcpl	0x00003432
     404:	78616d4b 	stmdavc	r1!, {r0, r1, r3, r6, r8, sl, fp, sp, lr}^
     408:	69732820 	ldmdbvs	r3!, {r5, fp, sp}^
     40c:	666f657a 			; <UNDEFINED> instruction: 0x666f657a
     410:	69732820 	ldmdbvs	r3!, {r5, fp, sp}^
     414:	745f657a 	ldrbvc	r6, [pc], #-1402	; 41c <_Min_Stack_Size+0x1c>
     418:	3c3c2029 	ldccc	0, cr2, [ip], #-164	; 0xffffff5c
     41c:	00293320 	eoreq	r3, r9, r0, lsr #6
     420:	4545525f 	strbmi	r5, [r5, #-607]	; 0xfffffda1
     424:	435f544e 	cmpmi	pc, #1308622848	; 0x4e000000
     428:	4b434548 	blmi	10d1950 <_Min_Stack_Size+0x10d1550>
     42c:	4749535f 	smlsldmi	r5, r9, pc, r3	; <UNPREDICTABLE>
     430:	5f4c414e 	svcpl	0x004c414e
     434:	28465542 	stmdacs	r6, {r1, r6, r8, sl, ip, lr}^
     438:	29726176 	ldmdbcs	r2!, {r1, r2, r4, r5, r6, r8, sp, lr}^
     43c:	45525f20 	ldrbmi	r5, [r2, #-3872]	; 0xfffff0e0
     440:	5f544e45 	svcpl	0x00544e45
     444:	43454843 	movtmi	r4, #22595	; 0x5843
     448:	6176284b 	cmnvs	r6, fp, asr #16
     44c:	5f202c72 	svcpl	0x00202c72
     450:	6e676973 			; <UNDEFINED> instruction: 0x6e676973
     454:	625f6c61 	subsvs	r6, pc, #24832	; 0x6100
     458:	202c6675 	eorcs	r6, ip, r5, ror r6
     45c:	72616863 	rsbvc	r6, r1, #6488064	; 0x630000
     460:	202c2a20 	eorcs	r2, ip, r0, lsr #20
     464:	4545525f 	strbmi	r5, [r5, #-607]	; 0xfffffda1
     468:	535f544e 	cmppl	pc, #1308622848	; 0x4e000000
     46c:	414e4749 	cmpmi	lr, r9, asr #14
     470:	49535f4c 	ldmdbmi	r3, {r2, r3, r6, r8, r9, sl, fp, ip, lr}^
     474:	202c455a 	eorcs	r4, ip, sl, asr r5
     478:	5f5f0029 	svcpl	0x005f0029
     47c:	4152464c 	cmpmi	r2, ip, asr #12
     480:	4d5f5443 	cfldrdmi	mvd5, [pc, #-268]	; 37c <_Min_Heap_Size+0x17c>
     484:	5f5f4e49 	svcpl	0x005f4e49
     488:	302d2820 	eorcc	r2, sp, r0, lsr #16
     48c:	524c352e 	subpl	r3, ip, #192937984	; 0xb800000
     490:	352e302d 	strcc	r3, [lr, #-45]!	; 0xffffffd3
     494:	0029524c 	eoreq	r5, r9, ip, asr #4
     498:	43575f5f 	cmpmi	r7, #380	; 0x17c
     49c:	5f524148 	svcpl	0x00524148
     4a0:	5f58414d 	svcpl	0x0058414d
     4a4:	7830205f 	ldmdavc	r0!, {r0, r1, r2, r3, r4, r6, sp}
     4a8:	66666666 	strbtvs	r6, [r6], -r6, ror #12
     4ac:	66666666 	strbtvs	r6, [r6], -r6, ror #12
     4b0:	43520055 	cmpmi	r2, #85	; 0x55
     4b4:	50475f43 	subpl	r5, r7, r3, asr #30
     4b8:	5f424f49 	svcpl	0x00424f49
     4bc:	5f4b4c43 	svcpl	0x004b4c43
     4c0:	29284e45 	stmdbcs	r8!, {r0, r2, r6, r9, sl, fp, lr}
     4c4:	43522820 	cmpmi	r2, #32, 16	; 0x200000
     4c8:	413e2d43 	teqmi	lr, r3, asr #26
     4cc:	45324250 	ldrmi	r4, [r2, #-592]!	; 0xfffffdb0
     4d0:	7c20524e 	sfmvc	f5, 4, [r0], #-312	; 0xfffffec8
     4d4:	3128203d 			; <UNDEFINED> instruction: 0x3128203d
     4d8:	29333c3c 	ldmdbcs	r3!, {r2, r3, r4, r5, sl, fp, ip, sp}
     4dc:	5f5f0029 	svcpl	0x005f0029
     4e0:	434e4f43 	movtmi	r4, #61251	; 0xef43
     4e4:	78285441 	stmdavc	r8!, {r0, r6, sl, ip, lr}
     4e8:	2029792c 	eorcs	r7, r9, ip, lsr #18
     4ec:	4f435f5f 	svcmi	0x00435f5f
     4f0:	5441434e 	strbpl	r4, [r1], #-846	; 0xfffffcb2
     4f4:	2c782831 	ldclcs	8, cr2, [r8], #-196	; 0xffffff3c
     4f8:	5f002979 	svcpl	0x00002979
     4fc:	554e475f 	strbpl	r4, [lr, #-1887]	; 0xfffff8a1
     500:	4b494c43 	blmi	1253614 <_Min_Stack_Size+0x1253214>
     504:	5f5f5f45 	svcpl	0x005f5f45
     508:	45505954 	ldrbmi	r5, [r0, #-2388]	; 0xfffff6ac
     50c:	3120464f 			; <UNDEFINED> instruction: 0x3120464f
     510:	695f5f00 	ldmdbvs	pc, {r8, r9, sl, fp, ip, lr}^	; <UNPREDICTABLE>
     514:	3032746e 	eorscc	r7, r2, lr, ror #8
     518:	5f005f5f 	svcpl	0x00005f5f
     51c:	5a49535f 	bpl	12552a0 <_Min_Stack_Size+0x1254ea0>
     520:	5f464f45 	svcpl	0x00464f45
     524:	474e4f4c 	strbmi	r4, [lr, -ip, asr #30]
     528:	4e4f4c5f 	mcrmi	12, 2, r4, cr15, cr15, {2}
     52c:	205f5f47 	subscs	r5, pc, r7, asr #30
     530:	58450038 	stmdapl	r5, {r3, r4, r5}^
     534:	425f4954 	subsmi	r4, pc, #84, 18	; 0x150000
     538:	20455341 	subcs	r5, r5, r1, asr #6
     53c:	30347830 	eorscc	r7, r4, r0, lsr r8
     540:	34303130 	ldrtcc	r3, [r0], #-304	; 0xfffffed0
     544:	00753030 	rsbseq	r3, r5, r0, lsr r0
     548:	42445f5f 	submi	r5, r4, #380	; 0x17c
     54c:	414d5f4c 	cmpmi	sp, ip, asr #30
     550:	30315f58 	eorscc	r5, r1, r8, asr pc
     554:	5058455f 	subspl	r4, r8, pc, asr r5
     558:	33205f5f 			; <UNDEFINED> instruction: 0x33205f5f
     55c:	5f003830 	svcpl	0x00003830
     560:	5343525f 	movtpl	r5, #12895	; 0x325f
     564:	535f4449 	cmppl	pc, #1224736768	; 0x49000000
     568:	4352554f 	cmpmi	r2, #331350016	; 0x13c00000
     56c:	29732845 	ldmdbcs	r3!, {r0, r2, r6, fp, sp}^
     570:	72747320 	rsbsvc	r7, r4, #32, 6	; 0x80000000
     574:	20746375 	rsbscs	r6, r4, r5, ror r3
     578:	61685f5f 	cmnvs	r8, pc, asr pc
     57c:	5f006b63 	svcpl	0x00006b63
     580:	4152465f 	cmpmi	r2, pc, asr r6
     584:	4d5f5443 	cfldrdmi	mvd5, [pc, #-268]	; 480 <_Min_Stack_Size+0x80>
     588:	5f5f4e49 	svcpl	0x005f4e49
     58c:	302d2820 	eorcc	r2, sp, r0, lsr #16
     590:	2d52352e 	cfldr64cs	mvdx3, [r2, #-184]	; 0xffffff48
     594:	52352e30 	eorspl	r2, r5, #48, 28	; 0x300
     598:	5f5f0029 	svcpl	0x005f0029
     59c:	414c4c55 	cmpmi	ip, r5, asr ip
     5a0:	4d554343 	ldclmi	3, cr4, [r5, #-268]	; 0xfffffef4
     5a4:	58414d5f 	stmdapl	r1, {r0, r1, r2, r3, r4, r6, r8, sl, fp, lr}^
     5a8:	30205f5f 	eorcc	r5, r0, pc, asr pc
     5ac:	46464658 			; <UNDEFINED> instruction: 0x46464658
     5b0:	46464646 	strbmi	r4, [r6], -r6, asr #12
     5b4:	46464646 	strbmi	r4, [r6], -r6, asr #12
     5b8:	46464646 	strbmi	r4, [r6], -r6, asr #12
     5bc:	332d5046 			; <UNDEFINED> instruction: 0x332d5046
     5c0:	4c4c5532 	cfstr64mi	mvdx5, [ip], {50}	; 0x32
     5c4:	5845004b 	stmdapl	r5, {r0, r1, r3, r6}^
     5c8:	35314954 	ldrcc	r4, [r1, #-2388]!	; 0xfffff6ac
     5cc:	35314250 	ldrcc	r4, [r1, #-592]!	; 0xfffffdb0
     5d0:	58452820 	stmdapl	r5, {r5, fp, sp}^
     5d4:	475f4954 			; <UNDEFINED> instruction: 0x475f4954
     5d8:	5f4f4950 	svcpl	0x004f4950
     5dc:	7070614d 	rsbsvc	r6, r0, sp, asr #2
     5e0:	5f676e69 	svcpl	0x00676e69
     5e4:	457b2974 	ldrbmi	r2, [fp, #-2420]!	; 0xfffff68c
     5e8:	31495458 	cmpcc	r9, r8, asr r4
     5ec:	47202c35 			; <UNDEFINED> instruction: 0x47202c35
     5f0:	424f4950 	submi	r4, pc, #80, 18	; 0x140000
     5f4:	5047202c 	subpl	r2, r7, ip, lsr #32
     5f8:	505f4f49 	subspl	r4, pc, r9, asr #30
     5fc:	315f4e49 	cmpcc	pc, r9, asr #28
     600:	45202c35 	strmi	r2, [r0, #-3125]!	; 0xfffff3cb
     604:	31495458 	cmpcc	r9, r8, asr r4
     608:	52495f35 	subpl	r5, r9, #53, 30	; 0xd4
     60c:	5f007d51 	svcpl	0x00007d51
     610:	4153555f 	cmpmi	r3, pc, asr r5
     614:	4d554343 	ldclmi	3, cr4, [r5, #-268]	; 0xfffffef4
     618:	58414d5f 	stmdapl	r1, {r0, r1, r2, r3, r4, r6, r8, sl, fp, lr}^
     61c:	30205f5f 	eorcc	r5, r0, pc, asr pc
     620:	46464658 			; <UNDEFINED> instruction: 0x46464658
     624:	382d5046 	stmdacc	sp!, {r1, r2, r6, ip, lr}
     628:	004b4855 	subeq	r4, fp, r5, asr r8
     62c:	46535f5f 	usaxmi	r5, r3, pc	; <UNPREDICTABLE>
     630:	54434152 	strbpl	r4, [r3], #-338	; 0xfffffeae
     634:	4942465f 	stmdbmi	r2, {r0, r1, r2, r3, r4, r6, r9, sl, lr}^
     638:	205f5f54 	subscs	r5, pc, r4, asr pc	; <UNPREDICTABLE>
     63c:	5f5f0037 	svcpl	0x005f0037
     640:	4d544e49 	ldclmi	14, cr4, [r4, #-292]	; 0xfffffedc
     644:	575f5841 	ldrbpl	r5, [pc, -r1, asr #16]
     648:	48544449 	ldmdami	r4, {r0, r3, r6, sl, lr}^
     64c:	36205f5f 	qsaxcc	r5, r0, pc	; <UNPREDICTABLE>
     650:	5f5f0034 	svcpl	0x005f0034
     654:	5f4d5241 	svcpl	0x004d5241
     658:	54414546 	strbpl	r4, [r1], #-1350	; 0xfffffaba
     65c:	5f455255 	svcpl	0x00455255
     660:	36314642 	ldrtcc	r4, [r1], -r2, asr #12
     664:	4143535f 	cmpmi	r3, pc, asr r3
     668:	5f52414c 	svcpl	0x0052414c
     66c:	54495241 	strbpl	r5, [r9], #-577	; 0xfffffdbf
     670:	54454d48 	strbpl	r4, [r5], #-3400	; 0xfffff2b8
     674:	5f004349 	svcpl	0x00004349
     678:	5f51535f 	svcpl	0x0051535f
     67c:	54494249 	strbpl	r4, [r9], #-585	; 0xfffffdb7
     680:	30205f5f 	eorcc	r5, r0, pc, asr pc
     684:	4f5f5f00 	svcmi	0x005f5f00
     688:	52454452 	subpl	r4, r5, #1375731712	; 0x52000000
     68c:	5044505f 	subpl	r5, r4, pc, asr r0
     690:	444e455f 	strbmi	r4, [lr], #-1375	; 0xfffffaa1
     694:	5f4e4149 	svcpl	0x004e4149
     698:	3433205f 	ldrtcc	r2, [r3], #-95	; 0xffffffa1
     69c:	5f003231 	svcpl	0x00003231
     6a0:	5a49535f 	bpl	1255424 <_Min_Stack_Size+0x1255024>
     6a4:	59545f45 	ldmdbpl	r4, {r0, r2, r6, r8, r9, sl, fp, ip, lr}^
     6a8:	5f5f4550 	svcpl	0x005f4550
     6ac:	736e7520 	cmnvc	lr, #32, 10	; 0x8000000
     6b0:	656e6769 	strbvs	r6, [lr, #-1897]!	; 0xfffff897
     6b4:	6e692064 	cdpvs	0, 6, cr2, cr9, cr4, {3}
     6b8:	475f0074 			; <UNDEFINED> instruction: 0x475f0074
     6bc:	575f4343 	ldrbpl	r4, [pc, -r3, asr #6]
     6c0:	5f504152 	svcpl	0x00504152
     6c4:	49445453 	stmdbmi	r4, {r0, r1, r4, r6, sl, ip, lr}^
     6c8:	485f544e 	ldmdami	pc, {r1, r2, r3, r6, sl, ip, lr}^	; <UNPREDICTABLE>
     6cc:	5f5f0020 	svcpl	0x005f0020
     6d0:	5f544c46 	svcpl	0x00544c46
     6d4:	5f534148 	svcpl	0x00534148
     6d8:	4f4e4544 	svcmi	0x004e4544
     6dc:	5f5f4d52 	svcpl	0x005f4d52
     6e0:	5f003120 	svcpl	0x00003120
     6e4:	544e495f 	strbpl	r4, [lr], #-2399	; 0xfffff6a1
     6e8:	59545f38 	ldmdbpl	r4, {r3, r4, r5, r8, r9, sl, fp, ip, lr}^
     6ec:	5f5f4550 	svcpl	0x005f4550
     6f0:	67697320 	strbvs	r7, [r9, -r0, lsr #6]!
     6f4:	2064656e 	rsbcs	r6, r4, lr, ror #10
     6f8:	72616863 	rsbvc	r6, r1, #6488064	; 0x630000
     6fc:	465f5f00 	ldrbmi	r5, [pc], -r0, lsl #30
     700:	3233544c 	eorscc	r5, r3, #76, 8	; 0x4c000000
     704:	4e494d5f 	mcrmi	13, 2, r4, cr9, cr15, {2}
     708:	31205f5f 			; <UNDEFINED> instruction: 0x31205f5f
     70c:	3537312e 	ldrcc	r3, [r7, #-302]!	; 0xfffffed2
     710:	33343934 	teqcc	r4, #52, 18	; 0xd0000
     714:	32383035 	eorscc	r3, r8, #53	; 0x35
     718:	37383232 			; <UNDEFINED> instruction: 0x37383232
     71c:	332d6535 			; <UNDEFINED> instruction: 0x332d6535
     720:	32334638 	eorscc	r4, r3, #56, 12	; 0x3800000
     724:	49504700 	ldmdbmi	r0, {r8, r9, sl, lr}^
     728:	2820454f 	stmdacs	r0!, {r0, r1, r2, r3, r6, r8, sl, lr}
     72c:	49504728 	ldmdbmi	r0, {r3, r5, r8, r9, sl, lr}^
     730:	79545f4f 	ldmdbvc	r4, {r0, r1, r2, r3, r6, r8, r9, sl, fp, ip, lr}^
     734:	65646570 	strbvs	r6, [r4, #-1392]!	; 0xfffffa90
     738:	20745f66 	rsbscs	r5, r4, r6, ror #30
     73c:	5047292a 	subpl	r2, r7, sl, lsr #18
     740:	5f454f49 	svcpl	0x00454f49
     744:	45534142 	ldrbmi	r4, [r3, #-322]	; 0xfffffebe
     748:	5f5f0029 	svcpl	0x005f0029
     74c:	43415355 	movtmi	r5, #4949	; 0x1355
     750:	5f4d5543 	svcpl	0x004d5543
     754:	5f4e494d 	svcpl	0x004e494d
     758:	2e30205f 	mrccs	0, 1, r2, cr0, cr15, {2}
     75c:	4b485530 	blmi	1215c24 <_Min_Stack_Size+0x1215824>
     760:	49564e00 	ldmdbmi	r6, {r9, sl, fp, lr}^
     764:	58455f43 	stmdapl	r5, {r0, r1, r6, r8, r9, sl, fp, ip, lr}^
     768:	5f334954 	svcpl	0x00334954
     76c:	5f515249 	svcpl	0x00515249
     770:	62616e45 	rsbvs	r6, r1, #1104	; 0x450
     774:	2820656c 	stmdacs	r0!, {r2, r3, r5, r6, r8, sl, sp, lr}
     778:	4349564e 	movtmi	r5, #38478	; 0x964e
     77c:	4553495f 	ldrbmi	r4, [r3, #-2399]	; 0xfffff6a1
     780:	7c203052 	stcvc	0, cr3, [r0], #-328	; 0xfffffeb8
     784:	3c31203d 	ldccc	0, cr2, [r1], #-244	; 0xffffff0c
     788:	0029393c 	eoreq	r3, r9, ip, lsr r9
     78c:	4c465f5f 	mcrrmi	15, 5, r5, r6, cr15
     790:	5f323354 	svcpl	0x00323354
     794:	49434544 	stmdbmi	r3, {r2, r6, r8, sl, lr}^
     798:	5f4c414d 	svcpl	0x004c414d
     79c:	5f474944 	svcpl	0x00474944
     7a0:	0039205f 	eorseq	r2, r9, pc, asr r0
     7a4:	444c5f5f 	strbmi	r5, [ip], #-3935	; 0xfffff0a1
     7a8:	4d5f4c42 	ldclmi	12, cr4, [pc, #-264]	; 6a8 <_Min_Stack_Size+0x2a8>
     7ac:	455f4e49 	ldrbmi	r4, [pc, #-3657]	; fffff96b <_estack+0xdfffd16b>
     7b0:	5f5f5058 	svcpl	0x005f5058
     7b4:	312d2820 			; <UNDEFINED> instruction: 0x312d2820
     7b8:	29313230 	ldmdbcs	r1!, {r4, r5, r9, ip, sp}
     7bc:	45525f00 	ldrbmi	r5, [r2, #-3840]	; 0xfffff100
     7c0:	5f544e45 	svcpl	0x00544e45
     7c4:	54494e49 	strbpl	r4, [r9], #-3657	; 0xfffff1b7
     7c8:	4e41525f 	mcrmi	2, 2, r5, cr1, cr15, {2}
     7cc:	28383444 	ldmdacs	r8!, {r2, r6, sl, ip, sp}
     7d0:	29726176 	ldmdbcs	r2!, {r1, r2, r4, r5, r6, r8, sp, lr}^
     7d4:	206f6420 	rsbcs	r6, pc, r0, lsr #8
     7d8:	7473207b 	ldrbtvc	r2, [r3], #-123	; 0xffffff85
     7dc:	74637572 	strbtvc	r7, [r3], #-1394	; 0xfffffa8e
     7e0:	65725f20 	ldrbvs	r5, [r2, #-3872]!	; 0xfffff0e0
     7e4:	20746e65 	rsbscs	r6, r4, r5, ror #28
     7e8:	20725f2a 	rsbscs	r5, r2, sl, lsr #30
     7ec:	7628203d 			; <UNDEFINED> instruction: 0x7628203d
     7f0:	3b297261 	blcc	a5d17c <_Min_Stack_Size+0xa5cd7c>
     7f4:	2d725f20 	ldclcs	15, cr5, [r2, #-128]!	; 0xffffff80
     7f8:	34725f3e 	ldrbtcc	r5, [r2], #-3902	; 0xfffff0c2
     7fc:	5f3e2d38 	svcpl	0x003e2d38
     800:	64656573 	strbtvs	r6, [r5], #-1395	; 0xfffffa8d
     804:	205d305b 	subscs	r3, sp, fp, asr r0
     808:	525f203d 	subspl	r2, pc, #61	; 0x3d
     80c:	34444e41 	strbcc	r4, [r4], #-3649	; 0xfffff1bf
     810:	45535f38 	ldrbmi	r5, [r3, #-3896]	; 0xfffff0c8
     814:	305f4445 	subscc	r4, pc, r5, asr #8
     818:	725f203b 	subsvc	r2, pc, #59	; 0x3b
     81c:	725f3e2d 	subsvc	r3, pc, #720	; 0x2d0
     820:	3e2d3834 	mcrcc	8, 1, r3, cr13, cr4, {1}
     824:	6565735f 	strbvs	r7, [r5, #-863]!	; 0xfffffca1
     828:	5d315b64 	vldmdbpl	r1!, {d5-<overflow reg d54>}
     82c:	5f203d20 	svcpl	0x00203d20
     830:	444e4152 	strbmi	r4, [lr], #-338	; 0xfffffeae
     834:	535f3834 	cmppl	pc, #52, 16	; 0x340000
     838:	5f444545 	svcpl	0x00444545
     83c:	5f203b31 	svcpl	0x00203b31
     840:	5f3e2d72 	svcpl	0x003e2d72
     844:	2d383472 	cfldrscs	mvf3, [r8, #-456]!	; 0xfffffe38
     848:	65735f3e 	ldrbvs	r5, [r3, #-3902]!	; 0xfffff0c2
     84c:	325b6465 	subscc	r6, fp, #1694498816	; 0x65000000
     850:	203d205d 	eorscs	r2, sp, sp, asr r0
     854:	4e41525f 	mcrmi	2, 2, r5, cr1, cr15, {2}
     858:	5f383444 	svcpl	0x00383444
     85c:	44454553 	strbmi	r4, [r5], #-1363	; 0xfffffaad
     860:	203b325f 	eorscs	r3, fp, pc, asr r2
     864:	3e2d725f 	mcrcc	2, 1, r7, cr13, cr15, {2}
     868:	3834725f 	ldmdacc	r4!, {r0, r1, r2, r3, r4, r6, r9, ip, sp, lr}
     86c:	6d5f3e2d 	ldclvs	14, cr3, [pc, #-180]	; 7c0 <_Min_Stack_Size+0x3c0>
     870:	5b746c75 	blpl	1d1ba4c <_Min_Stack_Size+0x1d1b64c>
     874:	3d205d30 	stccc	13, cr5, [r0, #-192]!	; 0xffffff40
     878:	41525f20 	cmpmi	r2, r0, lsr #30
     87c:	3834444e 	ldmdacc	r4!, {r1, r2, r3, r6, sl, lr}
     880:	4c554d5f 	mrrcmi	13, 5, r4, r5, cr15
     884:	3b305f54 	blcc	c185dc <_Min_Stack_Size+0xc181dc>
     888:	2d725f20 	ldclcs	15, cr5, [r2, #-128]!	; 0xffffff80
     88c:	34725f3e 	ldrbtcc	r5, [r2], #-3902	; 0xfffff0c2
     890:	5f3e2d38 	svcpl	0x003e2d38
     894:	746c756d 	strbtvc	r7, [ip], #-1389	; 0xfffffa93
     898:	205d315b 	subscs	r3, sp, fp, asr r1
     89c:	525f203d 	subspl	r2, pc, #61	; 0x3d
     8a0:	34444e41 	strbcc	r4, [r4], #-3649	; 0xfffff1bf
     8a4:	554d5f38 	strbpl	r5, [sp, #-3896]	; 0xfffff0c8
     8a8:	315f544c 	cmpcc	pc, ip, asr #8
     8ac:	725f203b 	subsvc	r2, pc, #59	; 0x3b
     8b0:	725f3e2d 	subsvc	r3, pc, #720	; 0x2d0
     8b4:	3e2d3834 	mcrcc	8, 1, r3, cr13, cr4, {1}
     8b8:	6c756d5f 	ldclvs	13, cr6, [r5], #-380	; 0xfffffe84
     8bc:	5d325b74 	vldmdbpl	r2!, {d5-<overflow reg d62>}
     8c0:	5f203d20 	svcpl	0x00203d20
     8c4:	444e4152 	strbmi	r4, [lr], #-338	; 0xfffffeae
     8c8:	4d5f3834 	ldclmi	8, cr3, [pc, #-208]	; 800 <_Min_Stack_Size+0x400>
     8cc:	5f544c55 	svcpl	0x00544c55
     8d0:	5f203b32 	svcpl	0x00203b32
     8d4:	5f3e2d72 	svcpl	0x003e2d72
     8d8:	2d383472 	cfldrscs	mvf3, [r8, #-456]!	; 0xfffffe38
     8dc:	64615f3e 	strbtvs	r5, [r1], #-3902	; 0xfffff0c2
     8e0:	203d2064 	eorscs	r2, sp, r4, rrx
     8e4:	4e41525f 	mcrmi	2, 2, r5, cr1, cr15, {2}
     8e8:	5f383444 	svcpl	0x00383444
     8ec:	3b444441 	blcc	11119f8 <_Min_Stack_Size+0x11115f8>
     8f0:	2d725f20 	ldclcs	15, cr5, [r2, #-128]!	; 0xffffff80
     8f4:	34725f3e 	ldrbtcc	r5, [r2], #-3902	; 0xfffff0c2
     8f8:	5f3e2d38 	svcpl	0x003e2d38
     8fc:	646e6172 	strbtvs	r6, [lr], #-370	; 0xfffffe8e
     900:	78656e5f 	stmdavc	r5!, {r0, r1, r2, r3, r4, r6, r9, sl, fp, sp, lr}^
     904:	203d2074 	eorscs	r2, sp, r4, ror r0
     908:	7d203b31 	fstmdbxvc	r0!, {d3-d26}	;@ Deprecated
     90c:	69687720 	stmdbvs	r8!, {r5, r8, r9, sl, ip, sp, lr}^
     910:	2820656c 	stmdacs	r0!, {r2, r3, r5, r6, r8, sl, sp, lr}
     914:	5f002930 	svcpl	0x00002930
     918:	42444c5f 	submi	r4, r4, #24320	; 0x5f00
     91c:	414d5f4c 	cmpmi	sp, ip, asr #30
     920:	445f544e 	ldrbmi	r5, [pc], #-1102	; 928 <_Min_Stack_Size+0x528>
     924:	5f5f4749 	svcpl	0x005f4749
     928:	00333520 	eorseq	r3, r3, r0, lsr #10
     92c:	5f544e49 	svcpl	0x00544e49
     930:	54534146 	ldrbpl	r4, [r3], #-326	; 0xfffffeba
     934:	4d5f3631 	ldclmi	6, cr3, [pc, #-196]	; 878 <_Min_Stack_Size+0x478>
     938:	28204e49 	stmdacs	r0!, {r0, r3, r6, r9, sl, fp, lr}
     93c:	495f5f2d 	ldmdbmi	pc, {r0, r2, r3, r5, r8, r9, sl, fp, ip, lr}^	; <UNPREDICTABLE>
     940:	465f544e 	ldrbmi	r5, [pc], -lr, asr #8
     944:	31545341 	cmpcc	r4, r1, asr #6
     948:	414d5f36 	cmpmi	sp, r6, lsr pc
     94c:	205f5f58 	subscs	r5, pc, r8, asr pc	; <UNPREDICTABLE>
     950:	2931202d 	ldmdbcs	r1!, {r0, r2, r3, r5, sp}
     954:	54584500 	ldrbpl	r4, [r8], #-1280	; 0xfffffb00
     958:	44503349 	ldrbmi	r3, [r0], #-841	; 0xfffffcb7
     95c:	45282033 	strmi	r2, [r8, #-51]!	; 0xffffffcd
     960:	5f495458 	svcpl	0x00495458
     964:	4f495047 	svcmi	0x00495047
     968:	70614d5f 	rsbvc	r4, r1, pc, asr sp
     96c:	676e6970 			; <UNDEFINED> instruction: 0x676e6970
     970:	7b29745f 	blvc	a5daf4 <_Min_Stack_Size+0xa5d6f4>
     974:	49545845 	ldmdbmi	r4, {r0, r2, r6, fp, ip, lr}^
     978:	47202c33 			; <UNDEFINED> instruction: 0x47202c33
     97c:	444f4950 	strbmi	r4, [pc], #-2384	; 984 <_Min_Stack_Size+0x584>
     980:	5047202c 	subpl	r2, r7, ip, lsr #32
     984:	505f4f49 	subspl	r4, pc, r9, asr #30
     988:	335f4e49 	cmpcc	pc, #1168	; 0x490
     98c:	5845202c 	stmdapl	r5, {r2, r3, r5, sp}^
     990:	5f334954 	svcpl	0x00334954
     994:	7d515249 	lfmvc	f5, 2, [r1, #-292]	; 0xfffffedc
     998:	555f5f00 	ldrbpl	r5, [pc, #-3840]	; fffffaa0 <_estack+0xdfffd2a0>
     99c:	38544e49 	ldmdacc	r4, {r0, r3, r6, r9, sl, fp, lr}^
     9a0:	6328435f 			; <UNDEFINED> instruction: 0x6328435f
     9a4:	00632029 	rsbeq	r2, r3, r9, lsr #32
     9a8:	49545845 	ldmdbmi	r4, {r0, r2, r6, fp, ip, lr}^
     9ac:	32445032 	subcc	r5, r4, #50	; 0x32
     9b0:	58452820 	stmdapl	r5, {r5, fp, sp}^
     9b4:	475f4954 			; <UNDEFINED> instruction: 0x475f4954
     9b8:	5f4f4950 	svcpl	0x004f4950
     9bc:	7070614d 	rsbsvc	r6, r0, sp, asr #2
     9c0:	5f676e69 	svcpl	0x00676e69
     9c4:	457b2974 	ldrbmi	r2, [fp, #-2420]!	; 0xfffff68c
     9c8:	32495458 	subcc	r5, r9, #88, 8	; 0x58000000
     9cc:	5047202c 	subpl	r2, r7, ip, lsr #32
     9d0:	2c444f49 	mcrrcs	15, 4, r4, r4, cr9
     9d4:	49504720 	ldmdbmi	r0, {r5, r8, r9, sl, lr}^
     9d8:	49505f4f 	ldmdbmi	r0, {r0, r1, r2, r3, r6, r8, r9, sl, fp, ip, lr}^
     9dc:	2c325f4e 	ldccs	15, cr5, [r2], #-312	; 0xfffffec8
     9e0:	54584520 	ldrbpl	r4, [r8], #-1312	; 0xfffffae0
     9e4:	495f3249 	ldmdbmi	pc, {r0, r3, r6, r9, ip, sp}^	; <UNPREDICTABLE>
     9e8:	007d5152 	rsbseq	r5, sp, r2, asr r1
     9ec:	4e495f5f 	mcrmi	15, 2, r5, cr9, cr15, {2}
     9f0:	5f363154 	svcpl	0x00363154
     9f4:	45505954 	ldrbmi	r5, [r0, #-2388]	; 0xfffff6ac
     9f8:	73205f5f 			; <UNDEFINED> instruction: 0x73205f5f
     9fc:	74726f68 	ldrbtvc	r6, [r2], #-3944	; 0xfffff098
     a00:	746e6920 	strbtvc	r6, [lr], #-2336	; 0xfffff6e0
     a04:	615f5f00 	cmpvs	pc, r0, lsl #30
     a08:	6e67696c 	vnmulvs.f16	s13, s14, s25	; <UNPREDICTABLE>
     a0c:	78286465 	stmdavc	r8!, {r0, r2, r5, r6, sl, sp, lr}
     a10:	5f5f2029 	svcpl	0x005f2029
     a14:	72747461 	rsbsvc	r7, r4, #1627389952	; 0x61000000
     a18:	74756269 	ldrbtvc	r6, [r5], #-617	; 0xfffffd97
     a1c:	285f5f65 	ldmdacs	pc, {r0, r2, r5, r6, r8, r9, sl, fp, ip, lr}^	; <UNPREDICTABLE>
     a20:	615f5f28 	cmpvs	pc, r8, lsr #30
     a24:	6e67696c 	vnmulvs.f16	s13, s14, s25	; <UNPREDICTABLE>
     a28:	5f5f6465 	svcpl	0x005f6465
     a2c:	29297828 	stmdbcs	r9!, {r3, r5, fp, ip, sp, lr}
     a30:	58450029 	stmdapl	r5, {r0, r3, r5}^
     a34:	50364954 	eorspl	r4, r6, r4, asr r9
     a38:	28203642 	stmdacs	r0!, {r1, r6, r9, sl, ip, sp}
     a3c:	49545845 	ldmdbmi	r4, {r0, r2, r6, fp, ip, lr}^
     a40:	4950475f 	ldmdbmi	r0, {r0, r1, r2, r3, r4, r6, r8, r9, sl, lr}^
     a44:	614d5f4f 	cmpvs	sp, pc, asr #30
     a48:	6e697070 	mcrvs	0, 3, r7, cr9, cr0, {3}
     a4c:	29745f67 	ldmdbcs	r4!, {r0, r1, r2, r5, r6, r8, r9, sl, fp, ip, lr}^
     a50:	5458457b 	ldrbpl	r4, [r8], #-1403	; 0xfffffa85
     a54:	202c3649 	eorcs	r3, ip, r9, asr #12
     a58:	4f495047 	svcmi	0x00495047
     a5c:	47202c42 	strmi	r2, [r0, -r2, asr #24]!
     a60:	5f4f4950 	svcpl	0x004f4950
     a64:	5f4e4950 	svcpl	0x004e4950
     a68:	45202c36 	strmi	r2, [r0, #-3126]!	; 0xfffff3ca
     a6c:	36495458 			; <UNDEFINED> instruction: 0x36495458
     a70:	5152495f 	cmppl	r2, pc, asr r9
     a74:	5f5f007d 	svcpl	0x005f007d
     a78:	36544c46 	ldrbcc	r4, [r4], -r6, asr #24
     a7c:	414d5f34 	cmpmi	sp, r4, lsr pc
     a80:	205f5f58 	subscs	r5, pc, r8, asr pc	; <UNPREDICTABLE>
     a84:	39372e31 	ldmdbcc	r7!, {r0, r4, r5, r9, sl, fp, sp}
     a88:	33393637 	teqcc	r9, #57671680	; 0x3700000
     a8c:	38343331 	ldmdacc	r4!, {r0, r4, r5, r8, r9, ip, sp}
     a90:	31333236 	teqcc	r3, r6, lsr r2
     a94:	2b653735 	blcs	194e770 <_Min_Stack_Size+0x194e370>
     a98:	46383033 			; <UNDEFINED> instruction: 0x46383033
     a9c:	4e003436 	cfmvdhrmi	mvd0, r3
     aa0:	5f434956 	svcpl	0x00434956
     aa4:	49545845 	ldmdbmi	r4, {r0, r2, r6, fp, ip, lr}^
     aa8:	52495f32 	subpl	r5, r9, #50, 30	; 0xc8
     aac:	6e455f51 	mcrvs	15, 2, r5, cr5, cr1, {2}
     ab0:	656c6261 	strbvs	r6, [ip, #-609]!	; 0xfffffd9f
     ab4:	564e2820 	strbpl	r2, [lr], -r0, lsr #16
     ab8:	495f4349 	ldmdbmi	pc, {r0, r3, r6, r8, r9, lr}^	; <UNPREDICTABLE>
     abc:	30524553 	subscc	r4, r2, r3, asr r5
     ac0:	203d7c20 	eorscs	r7, sp, r0, lsr #24
     ac4:	383c3c31 	ldmdacc	ip!, {r0, r4, r5, sl, fp, ip, sp}
     ac8:	525f0029 	subspl	r0, pc, #41	; 0x29
     acc:	544e4545 	strbpl	r4, [lr], #-1349	; 0xfffffabb
     ad0:	5343575f 	movtpl	r5, #14175	; 0x375f
     ad4:	4d4f5452 	cfstrdmi	mvd5, [pc, #-328]	; 994 <_Min_Stack_Size+0x594>
     ad8:	535f5342 	cmppl	pc, #134217729	; 0x8000001
     adc:	45544154 	ldrbmi	r4, [r4, #-340]	; 0xfffffeac
     ae0:	72747028 	rsbsvc	r7, r4, #40	; 0x28
     ae4:	28282029 	stmdacs	r8!, {r0, r3, r5, sp}
     ae8:	29727470 	ldmdbcs	r2!, {r4, r5, r6, sl, ip, sp, lr}^
     aec:	6d5f3e2d 	ldclvs	14, cr3, [pc, #-180]	; a40 <_Min_Stack_Size+0x640>
     af0:	2d637369 	stclcs	3, cr7, [r3, #-420]!	; 0xfffffe5c
     af4:	63775f3e 	cmnvs	r7, #62, 30	; 0xf8
     af8:	6f747273 	svcvs	0x00747273
     afc:	5f73626d 	svcpl	0x0073626d
     b00:	74617473 	strbtvc	r7, [r1], #-1139	; 0xfffffb8d
     b04:	53002965 	movwpl	r2, #2405	; 0x965
     b08:	20334950 	eorscs	r4, r3, r0, asr r9
     b0c:	50532828 	subspl	r2, r3, r8, lsr #16
     b10:	79545f49 	ldmdbvc	r4, {r0, r3, r6, r8, r9, sl, fp, ip, lr}^
     b14:	65646570 	strbvs	r6, [r4, #-1392]!	; 0xfffffa90
     b18:	20745f66 	rsbscs	r5, r4, r6, ror #30
     b1c:	5053292a 	subspl	r2, r3, sl, lsr #18
     b20:	425f3349 	subsmi	r3, pc, #603979777	; 0x24000001
     b24:	29455341 	stmdbcs	r5, {r0, r6, r8, r9, ip, lr}^
     b28:	755f5f00 	ldrbvc	r5, [pc, #-3840]	; fffffc30 <_estack+0xdfffd430>
     b2c:	756f626e 	strbvc	r6, [pc, #-622]!	; 8c6 <_Min_Stack_Size+0x4c6>
     b30:	6465646e 	strbtvs	r6, [r5], #-1134	; 0xfffffb92
     b34:	58450020 	stmdapl	r5, {r5}^
     b38:	35314954 	ldrcc	r4, [r1, #-2388]!	; 0xfffff6ac
     b3c:	35314150 	ldrcc	r4, [r1, #-336]!	; 0xfffffeb0
     b40:	58452820 	stmdapl	r5, {r5, fp, sp}^
     b44:	475f4954 			; <UNDEFINED> instruction: 0x475f4954
     b48:	5f4f4950 	svcpl	0x004f4950
     b4c:	7070614d 	rsbsvc	r6, r0, sp, asr #2
     b50:	5f676e69 	svcpl	0x00676e69
     b54:	457b2974 	ldrbmi	r2, [fp, #-2420]!	; 0xfffff68c
     b58:	31495458 	cmpcc	r9, r8, asr r4
     b5c:	47202c35 			; <UNDEFINED> instruction: 0x47202c35
     b60:	414f4950 	cmpmi	pc, r0, asr r9	; <UNPREDICTABLE>
     b64:	5047202c 	subpl	r2, r7, ip, lsr #32
     b68:	505f4f49 	subspl	r4, pc, r9, asr #30
     b6c:	315f4e49 	cmpcc	pc, r9, asr #28
     b70:	45202c35 	strmi	r2, [r0, #-3125]!	; 0xfffff3cb
     b74:	31495458 	cmpcc	r9, r8, asr r4
     b78:	52495f35 	subpl	r5, r9, #53, 30	; 0xd4
     b7c:	5f007d51 	svcpl	0x00007d51
     b80:	544e495f 	strbpl	r4, [lr], #-2399	; 0xfffff6a1
     b84:	68222038 	stmdavs	r2!, {r3, r4, r5, sp}
     b88:	45002268 	strmi	r2, [r0, #-616]	; 0xfffffd98
     b8c:	5f495458 	svcpl	0x00495458
     b90:	67697274 			; <UNDEFINED> instruction: 0x67697274
     b94:	5f726567 	svcpl	0x00726567
     b98:	6c6c6166 	stfvse	f6, [ip], #-408	; 0xfffffe68
     b9c:	20676e69 	rsbcs	r6, r7, r9, ror #28
     ba0:	49540031 	ldmdbmi	r4, {r0, r4, r5}^
     ba4:	425f354d 	subsmi	r3, pc, #322961408	; 0x13400000
     ba8:	20455341 	subcs	r5, r5, r1, asr #6
     bac:	30347830 	eorscc	r7, r4, r0, lsr r8
     bb0:	43303030 	teqmi	r0, #48	; 0x30
     bb4:	00753030 	rsbseq	r3, r5, r0, lsr r0
     bb8:	43475f5f 	movtmi	r5, #32607	; 0x7f5f
     bbc:	41485f43 	cmpmi	r8, r3, asr #30
     bc0:	535f4556 	cmppl	pc, #360710144	; 0x15800000
     bc4:	5f434e59 	svcpl	0x00434e59
     bc8:	504d4f43 	subpl	r4, sp, r3, asr #30
     bcc:	5f455241 	svcpl	0x00455241
     bd0:	5f444e41 	svcpl	0x00444e41
     bd4:	50415753 	subpl	r5, r1, r3, asr r7
     bd8:	3120315f 			; <UNDEFINED> instruction: 0x3120315f
     bdc:	544e4900 	strbpl	r4, [lr], #-2304	; 0xfffff700
     be0:	41454c5f 	cmpmi	r5, pc, asr ip
     be4:	36315453 			; <UNDEFINED> instruction: 0x36315453
     be8:	58414d5f 	stmdapl	r1, {r0, r1, r2, r3, r4, r6, r8, sl, fp, lr}^
     bec:	5f5f2820 	svcpl	0x005f2820
     bf0:	5f544e49 	svcpl	0x00544e49
     bf4:	5341454c 	movtpl	r4, #5452	; 0x154c
     bf8:	5f363154 	svcpl	0x00363154
     bfc:	5f58414d 	svcpl	0x0058414d
     c00:	5f00295f 	svcpl	0x0000295f
     c04:	4e49555f 	mcrmi	5, 2, r5, cr9, cr15, {2}
     c08:	454c5f54 	strbmi	r5, [ip, #-3924]	; 0xfffff0ac
     c0c:	31545341 	cmpcc	r4, r1, asr #6
     c10:	414d5f36 	cmpmi	sp, r6, lsr pc
     c14:	205f5f58 	subscs	r5, pc, r8, asr pc	; <UNPREDICTABLE>
     c18:	66667830 			; <UNDEFINED> instruction: 0x66667830
     c1c:	5f006666 	svcpl	0x00006666
     c20:	4454535f 	ldrbmi	r5, [r4], #-863	; 0xfffffca1
     c24:	4f485f43 	svcmi	0x00485f43
     c28:	44455453 	strbmi	r5, [r5], #-1107	; 0xfffffbad
     c2c:	31205f5f 			; <UNDEFINED> instruction: 0x31205f5f
     c30:	555f5f00 	ldrbpl	r5, [pc, #-3840]	; fffffd38 <_estack+0xdfffd538>
     c34:	52464c4c 	subpl	r4, r6, #76, 24	; 0x4c00
     c38:	5f544341 	svcpl	0x00544341
     c3c:	54494246 	strbpl	r4, [r9], #-582	; 0xfffffdba
     c40:	36205f5f 	qsaxcc	r5, r0, pc	; <UNPREDICTABLE>
     c44:	50530034 	subspl	r0, r3, r4, lsr r0
     c48:	28203249 	stmdacs	r0!, {r0, r3, r6, r9, ip, sp}
     c4c:	49505328 	ldmdbmi	r0, {r3, r5, r8, r9, ip, lr}^
     c50:	7079545f 	rsbsvc	r5, r9, pc, asr r4
     c54:	66656465 	strbtvs	r6, [r5], -r5, ror #8
     c58:	2a20745f 	bcs	81dddc <_Min_Stack_Size+0x81d9dc>
     c5c:	49505329 	ldmdbmi	r0, {r0, r3, r5, r8, r9, ip, lr}^
     c60:	41425f32 	cmpmi	r2, r2, lsr pc
     c64:	00294553 	eoreq	r4, r9, r3, asr r5
     c68:	42444c5f 	submi	r4, r4, #24320	; 0x5f00
     c6c:	51455f4c 	cmppl	r5, ip, asr #30
     c70:	4c42445f 	cfstrdmi	mvd4, [r2], {95}	; 0x5f
     c74:	47003120 	strmi	r3, [r0, -r0, lsr #2]
     c78:	5f4f4950 	svcpl	0x004f4950
     c7c:	5f4e4950 	svcpl	0x004e4950
     c80:	28282034 	stmdacs	r8!, {r2, r4, r5, sp}
     c84:	746e6975 	strbtvc	r6, [lr], #-2421	; 0xfffff68b
     c88:	745f3631 	ldrbvc	r3, [pc], #-1585	; c90 <_Min_Stack_Size+0x890>
     c8c:	78302029 	ldmdavc	r0!, {r0, r3, r5, sp}
     c90:	30313030 	eorscc	r3, r1, r0, lsr r0
     c94:	5f5f0029 	svcpl	0x005f0029
     c98:	5f544e49 	svcpl	0x00544e49
     c9c:	54534146 	ldrbpl	r4, [r3], #-326	; 0xfffffeba
     ca0:	545f3436 	ldrbpl	r3, [pc], #-1078	; ca8 <_Min_Stack_Size+0x8a8>
     ca4:	5f455059 	svcpl	0x00455059
     ca8:	6f6c205f 	svcvs	0x006c205f
     cac:	6c20676e 	stcvs	7, cr6, [r0], #-440	; 0xfffffe48
     cb0:	20676e6f 	rsbcs	r6, r7, pc, ror #28
     cb4:	00746e69 	rsbseq	r6, r4, r9, ror #28
     cb8:	52415f5f 	subpl	r5, r1, #380	; 0x17c
     cbc:	45465f4d 	strbmi	r5, [r6, #-3917]	; 0xfffff0b3
     cc0:	52555441 	subspl	r5, r5, #1090519040	; 0x41000000
     cc4:	4f435f45 	svcmi	0x00435f45
     cc8:	434f5250 	movtmi	r5, #62032	; 0xf250
     ccc:	00353120 	eorseq	r3, r5, r0, lsr #2
     cd0:	5f434352 	svcpl	0x00434352
     cd4:	4f495047 	svcmi	0x00495047
     cd8:	4c435f43 	mcrrmi	15, 4, r5, r3, cr3
     cdc:	4e455f4b 	cdpmi	15, 4, cr5, cr5, cr11, {2}
     ce0:	28202928 	stmdacs	r0!, {r3, r5, r8, fp, sp}
     ce4:	2d434352 	stclcs	3, cr4, [r3, #-328]	; 0xfffffeb8
     ce8:	4250413e 	subsmi	r4, r0, #-2147483633	; 0x8000000f
     cec:	524e4532 	subpl	r4, lr, #209715200	; 0xc800000
     cf0:	203d7c20 	eorscs	r7, sp, r0, lsr #24
     cf4:	3c3c3128 	ldfccs	f3, [ip], #-160	; 0xffffff60
     cf8:	00292934 	eoreq	r2, r9, r4, lsr r9
     cfc:	38544e49 	ldmdacc	r4, {r0, r3, r6, r9, sl, fp, lr}^
     d00:	58414d5f 	stmdapl	r1, {r0, r1, r2, r3, r4, r6, r8, sl, fp, lr}^
     d04:	5f5f2820 	svcpl	0x005f2820
     d08:	38544e49 	ldmdacc	r4, {r0, r3, r6, r9, sl, fp, lr}^
     d0c:	58414d5f 	stmdapl	r1, {r0, r1, r2, r3, r4, r6, r8, sl, fp, lr}^
     d10:	00295f5f 	eoreq	r5, r9, pc, asr pc
     d14:	49535f5f 	ldmdbmi	r3, {r0, r1, r2, r3, r4, r6, r8, r9, sl, fp, ip, lr}^
     d18:	545f455a 	ldrbpl	r4, [pc], #-1370	; d20 <_Min_Stack_Size+0x920>
     d1c:	00205f5f 	eoreq	r5, r0, pc, asr pc
     d20:	44525450 	ldrbmi	r5, [r2], #-1104	; 0xfffffbb0
     d24:	5f464649 	svcpl	0x00464649
     d28:	2058414d 	subscs	r4, r8, sp, asr #2
     d2c:	505f5f28 	subspl	r5, pc, r8, lsr #30
     d30:	49445254 	stmdbmi	r4, {r2, r4, r6, r9, ip, lr}^
     d34:	4d5f4646 	ldclmi	6, cr4, [pc, #-280]	; c24 <_Min_Stack_Size+0x824>
     d38:	5f5f5841 	svcpl	0x005f5841
     d3c:	5f5f0029 	svcpl	0x005f0029
     d40:	33544c46 	cmpcc	r4, #17920	; 0x4600
     d44:	414d5f32 	cmpmi	sp, r2, lsr pc
     d48:	30315f58 	eorscc	r5, r1, r8, asr pc
     d4c:	5058455f 	subspl	r4, r8, pc, asr r5
     d50:	33205f5f 			; <UNDEFINED> instruction: 0x33205f5f
     d54:	5f5f0038 	svcpl	0x005f0038
     d58:	544e4955 	strbpl	r4, [lr], #-2389	; 0xfffff6ab
     d5c:	545f3631 	ldrbpl	r3, [pc], #-1585	; d64 <_Min_Stack_Size+0x964>
     d60:	5f455059 	svcpl	0x00455059
     d64:	6873205f 	ldmdavs	r3!, {r0, r1, r2, r3, r4, r6, sp}^
     d68:	2074726f 	rsbscs	r7, r4, pc, ror #4
     d6c:	69736e75 	ldmdbvs	r3!, {r0, r2, r4, r5, r6, r9, sl, fp, sp, lr}^
     d70:	64656e67 	strbtvs	r6, [r5], #-3687	; 0xfffff199
     d74:	746e6920 	strbtvc	r6, [lr], #-2336	; 0xfffff6e0
     d78:	49504700 	ldmdbmi	r0, {r8, r9, sl, lr}^
     d7c:	49505f4f 	ldmdbmi	r0, {r0, r1, r2, r3, r6, r8, r9, sl, fp, ip, lr}^
     d80:	20375f4e 	eorscs	r5, r7, lr, asr #30
     d84:	69752828 	ldmdbvs	r5!, {r3, r5, fp, sp}^
     d88:	3631746e 	ldrtcc	r7, [r1], -lr, ror #8
     d8c:	2029745f 	eorcs	r7, r9, pc, asr r4
     d90:	30307830 	eorscc	r7, r0, r0, lsr r8
     d94:	00293038 	eoreq	r3, r9, r8, lsr r0
     d98:	4545525f 	strbmi	r5, [r5, #-607]	; 0xfffffda1
     d9c:	435f544e 	cmpmi	pc, #1308622848	; 0x4e000000
     da0:	4b434548 	blmi	10d22c8 <_Min_Stack_Size+0x10d1ec8>
     da4:	284d545f 	stmdacs	sp, {r0, r1, r2, r3, r4, r6, sl, ip, lr}^
     da8:	29726176 	ldmdbcs	r2!, {r1, r2, r4, r5, r6, r8, sp, lr}^
     dac:	45525f20 	ldrbmi	r5, [r2, #-3872]	; 0xfffff0e0
     db0:	5f544e45 	svcpl	0x00544e45
     db4:	43454843 	movtmi	r4, #22595	; 0x5843
     db8:	6176284b 	cmnvs	r6, fp, asr #16
     dbc:	5f202c72 	svcpl	0x00202c72
     dc0:	61636f6c 	cmnvs	r3, ip, ror #30
     dc4:	6d69746c 	cfstrdvs	mvd7, [r9, #-432]!	; 0xfffffe50
     dc8:	75625f65 	strbvc	r5, [r2, #-3941]!	; 0xfffff09b
     dcc:	73202c66 			; <UNDEFINED> instruction: 0x73202c66
     dd0:	63757274 	cmnvs	r5, #116, 4	; 0x40000007
     dd4:	5f5f2074 	svcpl	0x005f2074
     dd8:	2a206d74 	bcs	81c3b0 <_Min_Stack_Size+0x81bfb0>
     ddc:	6973202c 	ldmdbvs	r3!, {r2, r3, r5, sp}^
     de0:	666f657a 			; <UNDEFINED> instruction: 0x666f657a
     de4:	28282a20 	stmdacs	r8!, {r5, r9, fp, sp}
     de8:	29726176 	ldmdbcs	r2!, {r1, r2, r4, r5, r6, r8, sp, lr}^
     dec:	6c5f3e2d 	mrrcvs	14, 2, r3, pc, cr13	; <UNPREDICTABLE>
     df0:	6c61636f 	stclvs	3, cr6, [r1], #-444	; 0xfffffe44
     df4:	656d6974 	strbvs	r6, [sp, #-2420]!	; 0xfffff68c
     df8:	6675625f 			; <UNDEFINED> instruction: 0x6675625f
     dfc:	29202c29 	stmdbcs	r0!, {r0, r3, r5, sl, fp, sp}
     e00:	555f5f00 	ldrbpl	r5, [pc, #-3840]	; ffffff08 <_estack+0xdfffd708>
     e04:	41524653 	cmpmi	r2, r3, asr r6
     e08:	4d5f5443 	cfldrdmi	mvd5, [pc, #-268]	; d04 <_Min_Stack_Size+0x904>
     e0c:	5f5f5841 	svcpl	0x005f5841
     e10:	46583020 	ldrbmi	r3, [r8], -r0, lsr #32
     e14:	382d5046 	stmdacc	sp!, {r1, r2, r6, ip, lr}
     e18:	00524855 	subseq	r4, r2, r5, asr r8
     e1c:	49545845 	ldmdbmi	r4, {r0, r2, r6, fp, ip, lr}^
     e20:	31203031 			; <UNDEFINED> instruction: 0x31203031
     e24:	5f5f0030 	svcpl	0x005f0030
     e28:	544e4955 	strbpl	r4, [lr], #-2389	; 0xfffff6ab
     e2c:	5f525450 	svcpl	0x00525450
     e30:	5f58414d 	svcpl	0x0058414d
     e34:	7830205f 	ldmdavc	r0!, {r0, r1, r2, r3, r4, r6, sp}
     e38:	66666666 	strbtvs	r6, [r6], -r6, ror #12
     e3c:	66666666 	strbtvs	r6, [r6], -r6, ror #12
     e40:	5f5f0055 	svcpl	0x005f0055
     e44:	6465656e 	strbtvs	r6, [r5], #-1390	; 0xfffffa92
     e48:	6863775f 	stmdavs	r3!, {r0, r1, r2, r3, r4, r6, r8, r9, sl, ip, sp, lr}^
     e4c:	745f7261 	ldrbvc	r7, [pc], #-609	; e54 <_Min_Stack_Size+0xa54>
     e50:	465f5f00 	ldrbmi	r5, [pc], -r0, lsl #30
     e54:	3233544c 	eorscc	r5, r3, #76, 8	; 0x4c000000
     e58:	4e494d5f 	mcrmi	13, 2, r4, cr9, cr15, {2}
     e5c:	5058455f 	subspl	r4, r8, pc, asr r5
     e60:	28205f5f 	stmdacs	r0!, {r0, r1, r2, r3, r4, r6, r8, r9, sl, fp, ip, lr}
     e64:	3532312d 	ldrcc	r3, [r2, #-301]!	; 0xfffffed3
     e68:	5f5f0029 	svcpl	0x005f0029
     e6c:	75736572 	ldrbvc	r6, [r3, #-1394]!	; 0xfffffa8e
     e70:	755f746c 	ldrbvc	r7, [pc, #-1132]	; a0c <_Min_Stack_Size+0x60c>
     e74:	635f6573 	cmpvs	pc, #482344960	; 0x1cc00000
     e78:	6b636568 	blvs	18da420 <_Min_Stack_Size+0x18da020>
     e7c:	615f5f20 	cmpvs	pc, r0, lsr #30
     e80:	69727474 	ldmdbvs	r2!, {r2, r4, r5, r6, sl, ip, sp, lr}^
     e84:	65747562 	ldrbvs	r7, [r4, #-1378]!	; 0xfffffa9e
     e88:	28285f5f 	stmdacs	r8!, {r0, r1, r2, r3, r4, r6, r8, r9, sl, fp, ip, lr}
     e8c:	61775f5f 	cmnvs	r7, pc, asr pc
     e90:	755f6e72 	ldrbvc	r6, [pc, #-3698]	; 26 <_Min_Heap_Size-0x1da>
     e94:	6573756e 	ldrbvs	r7, [r3, #-1390]!	; 0xfffffa92
     e98:	65725f64 	ldrbvs	r5, [r2, #-3940]!	; 0xfffff09c
     e9c:	746c7573 	strbtvc	r7, [ip], #-1395	; 0xfffffa8d
     ea0:	29295f5f 	stmdbcs	r9!, {r0, r1, r2, r3, r4, r6, r8, r9, sl, fp, ip, lr}
     ea4:	54584500 	ldrbpl	r4, [r8], #-1280	; 0xfffffb00
     ea8:	50323149 	eorspl	r3, r2, r9, asr #2
     eac:	20323142 	eorscs	r3, r2, r2, asr #2
     eb0:	54584528 	ldrbpl	r4, [r8], #-1320	; 0xfffffad8
     eb4:	50475f49 	subpl	r5, r7, r9, asr #30
     eb8:	4d5f4f49 	ldclmi	15, cr4, [pc, #-292]	; d9c <_Min_Stack_Size+0x99c>
     ebc:	69707061 	ldmdbvs	r0!, {r0, r5, r6, ip, sp, lr}^
     ec0:	745f676e 	ldrbvc	r6, [pc], #-1902	; ec8 <_Min_Stack_Size+0xac8>
     ec4:	58457b29 	stmdapl	r5, {r0, r3, r5, r8, r9, fp, ip, sp, lr}^
     ec8:	32314954 	eorscc	r4, r1, #84, 18	; 0x150000
     ecc:	5047202c 	subpl	r2, r7, ip, lsr #32
     ed0:	2c424f49 	mcrrcs	15, 4, r4, r2, cr9
     ed4:	49504720 	ldmdbmi	r0, {r5, r8, r9, sl, lr}^
     ed8:	49505f4f 	ldmdbmi	r0, {r0, r1, r2, r3, r6, r8, r9, sl, fp, ip, lr}^
     edc:	32315f4e 	eorscc	r5, r1, #312	; 0x138
     ee0:	5845202c 	stmdapl	r5, {r2, r3, r5, sp}^
     ee4:	32314954 	eorscc	r4, r1, #84, 18	; 0x150000
     ee8:	5152495f 	cmppl	r2, pc, asr r9
     eec:	425f007d 	subsmi	r0, pc, #125	; 0x7d
     ef0:	505f4453 	subspl	r4, pc, r3, asr r4	; <UNPREDICTABLE>
     ef4:	49445254 	stmdbmi	r4, {r2, r4, r6, r9, ip, lr}^
     ef8:	545f4646 	ldrbpl	r4, [pc], #-1606	; f00 <_Min_Stack_Size+0xb00>
     efc:	4900205f 	stmdbmi	r0, {r0, r1, r2, r3, r4, r6, sp}
     f00:	3631544e 	ldrtcc	r5, [r1], -lr, asr #8
     f04:	58414d5f 	stmdapl	r1, {r0, r1, r2, r3, r4, r6, r8, sl, fp, lr}^
     f08:	5f5f2820 	svcpl	0x005f2820
     f0c:	31544e49 	cmpcc	r4, r9, asr #28
     f10:	414d5f36 	cmpmi	sp, r6, lsr pc
     f14:	295f5f58 	ldmdbcs	pc, {r3, r4, r6, r8, r9, sl, fp, ip, lr}^	; <UNPREDICTABLE>
     f18:	555f5f00 	ldrbpl	r5, [pc, #-3840]	; 20 <_Min_Heap_Size-0x1e0>
     f1c:	4152464c 	cmpmi	r2, ip, asr #12
     f20:	465f5443 	ldrbmi	r5, [pc], -r3, asr #8
     f24:	5f544942 	svcpl	0x00544942
     f28:	3233205f 	eorscc	r2, r3, #95	; 0x5f
     f2c:	52455000 	subpl	r5, r5, #0
     f30:	45485049 	strbmi	r5, [r8, #-73]	; 0xffffffb7
     f34:	534c4152 	movtpl	r4, #49490	; 0xc152
     f38:	5341425f 	movtpl	r4, #4703	; 0x125f
     f3c:	78302045 	ldmdavc	r0!, {r0, r2, r6, sp}
     f40:	30303034 	eorscc	r3, r0, r4, lsr r0
     f44:	30303030 	eorscc	r3, r0, r0, lsr r0
     f48:	50530075 	subspl	r0, r3, r5, ror r0
     f4c:	495f3349 	ldmdbmi	pc, {r0, r3, r6, r8, r9, ip, sp}^	; <UNPREDICTABLE>
     f50:	35205152 	strcc	r5, [r0, #-338]!	; 0xfffffeae
     f54:	5f5f0031 	svcpl	0x005f0031
     f58:	36544c46 	ldrbcc	r4, [r4], -r6, asr #24
     f5c:	494d5f34 	stmdbmi	sp, {r2, r4, r5, r8, r9, sl, fp, ip, lr}^
     f60:	30315f4e 	eorscc	r5, r1, lr, asr #30
     f64:	5058455f 	subspl	r4, r8, pc, asr r5
     f68:	28205f5f 	stmdacs	r0!, {r0, r1, r2, r3, r4, r6, r8, r9, sl, fp, ip, lr}
     f6c:	3730332d 	ldrcc	r3, [r0, -sp, lsr #6]!
     f70:	5f5f0029 	svcpl	0x005f0029
     f74:	657a6973 	ldrbvs	r6, [sl, #-2419]!	; 0xfffff68d
     f78:	0020745f 	eoreq	r7, r0, pc, asr r4
     f7c:	6f625f5f 	svcvs	0x00625f5f
     f80:	65646e75 	strbvs	r6, [r4, #-3701]!	; 0xfffff18b
     f84:	5f002064 	svcpl	0x00002064
     f88:	746e695f 	strbtvc	r6, [lr], #-2399	; 0xfffff6a1
     f8c:	7361665f 	cmnvc	r1, #99614720	; 0x5f00000
     f90:	5f323374 	svcpl	0x00323374
     f94:	65645f74 	strbvs	r5, [r4, #-3956]!	; 0xfffff08c
     f98:	656e6966 	strbvs	r6, [lr, #-2406]!	; 0xfffff69a
     f9c:	00312064 	eorseq	r2, r1, r4, rrx
     fa0:	4e495f5f 	mcrmi	15, 2, r5, cr9, cr15, {2}
     fa4:	41465f54 	cmpmi	r6, r4, asr pc
     fa8:	34365453 	ldrtcc	r5, [r6], #-1107	; 0xfffffbad
     fac:	4449575f 	strbmi	r5, [r9], #-1887	; 0xfffff8a1
     fb0:	5f5f4854 	svcpl	0x005f4854
     fb4:	00343620 	eorseq	r3, r4, r0, lsr #12
     fb8:	695f5f5f 	ldmdbvs	pc, {r0, r1, r2, r3, r4, r6, r8, r9, sl, fp, ip, lr}^	; <UNPREDICTABLE>
     fbc:	775f746e 	ldrbvc	r7, [pc, -lr, ror #8]
     fc0:	72616863 	rsbvc	r6, r1, #6488064	; 0x630000
     fc4:	685f745f 	ldmdavs	pc, {r0, r1, r2, r3, r4, r6, sl, ip, sp, lr}^	; <UNPREDICTABLE>
     fc8:	4e490020 	cdpmi	0, 4, cr0, cr9, cr0, {1}
     fcc:	5f363154 	svcpl	0x00363154
     fd0:	29782843 	ldmdbcs	r8!, {r0, r1, r6, fp, sp}^
     fd4:	495f5f20 	ldmdbmi	pc, {r5, r8, r9, sl, fp, ip, lr}^	; <UNPREDICTABLE>
     fd8:	3631544e 	ldrtcc	r5, [r1], -lr, asr #8
     fdc:	7828435f 	stmdavc	r8!, {r0, r1, r2, r3, r4, r6, r8, r9, lr}
     fe0:	5f5f0029 	svcpl	0x005f0029
     fe4:	41524653 	cmpmi	r2, r3, asr r6
     fe8:	455f5443 	ldrbmi	r5, [pc, #-1091]	; bad <_Min_Stack_Size+0x7ad>
     fec:	4c495350 	mcrrmi	3, 5, r5, r9, cr0
     ff0:	5f5f4e4f 	svcpl	0x005f4e4f
     ff4:	31783020 	cmncc	r8, r0, lsr #32
     ff8:	48372d50 	ldmdami	r7!, {r4, r6, r8, sl, fp, sp}
     ffc:	5f5f0052 	svcpl	0x005f0052
    1000:	434e4f43 	movtmi	r4, #61251	; 0xef43
    1004:	28315441 	ldmdacs	r1!, {r0, r6, sl, ip, lr}
    1008:	29792c78 	ldmdbcs	r9!, {r3, r4, r5, r6, sl, fp, sp}^
    100c:	23207820 			; <UNDEFINED> instruction: 0x23207820
    1010:	00792023 	rsbseq	r2, r9, r3, lsr #32
    1014:	72706e75 	rsbsvc	r6, r0, #1872	; 0x750
    1018:	6c697669 	stclvs	6, cr7, [r9], #-420	; 0xfffffe5c
    101c:	64656765 	strbtvs	r6, [r5], #-1893	; 0xfffff89b
    1020:	5f545f00 	svcpl	0x00545f00
    1024:	455a4953 	ldrbmi	r4, [sl, #-2387]	; 0xfffff6ad
    1028:	5f5f0020 	svcpl	0x005f0020
    102c:	5f4c4244 	svcpl	0x004c4244
    1030:	5f4e494d 	svcpl	0x004e494d
    1034:	455f3031 	ldrbmi	r3, [pc, #-49]	; 100b <_Min_Stack_Size+0xc0b>
    1038:	5f5f5058 	svcpl	0x005f5058
    103c:	332d2820 			; <UNDEFINED> instruction: 0x332d2820
    1040:	00293730 	eoreq	r3, r9, r0, lsr r7
    1044:	53555f5f 	cmppl	r5, #380	; 0x17c
    1048:	42465f51 	submi	r5, r6, #324	; 0x144
    104c:	5f5f5449 	svcpl	0x005f5449
    1050:	00323320 	eorseq	r3, r2, r0, lsr #6
    1054:	524f5f5f 	subpl	r5, pc, #380	; 0x17c
    1058:	5f524544 	svcpl	0x00524544
    105c:	5f474942 	svcpl	0x00474942
    1060:	49444e45 	stmdbmi	r4, {r0, r2, r6, r9, sl, fp, lr}^
    1064:	5f5f4e41 	svcpl	0x005f4e41
    1068:	32333420 	eorscc	r3, r3, #32, 8	; 0x20000000
    106c:	58450031 	stmdapl	r5, {r0, r4, r5}^
    1070:	34314954 	ldrtcc	r4, [r1], #-2388	; 0xfffff6ac
    1074:	00343120 	eorseq	r3, r4, r0, lsr #2
    1078:	48545f5f 	ldmdami	r4, {r0, r1, r2, r3, r4, r6, r8, r9, sl, fp, ip, lr}^
    107c:	5f424d55 	svcpl	0x00424d55
    1080:	45544e49 	ldrbmi	r4, [r4, #-3657]	; 0xfffff1b7
    1084:	524f5752 	subpl	r5, pc, #21495808	; 0x1480000
    1088:	205f5f4b 	subscs	r5, pc, fp, asr #30
    108c:	5f5f0031 	svcpl	0x005f0031
    1090:	465f5153 			; <UNDEFINED> instruction: 0x465f5153
    1094:	5f544942 	svcpl	0x00544942
    1098:	3133205f 	teqcc	r3, pc, asr r0
    109c:	49564e00 	ldmdbmi	r6, {r9, sl, fp, lr}^
    10a0:	53555f43 	cmppl	r5, #268	; 0x10c
    10a4:	32545241 	subscc	r5, r4, #268435460	; 0x10000004
    10a8:	5152495f 	cmppl	r2, pc, asr r9
    10ac:	7369445f 	cmnvc	r9, #1593835520	; 0x5f000000
    10b0:	656c6261 	strbvs	r6, [ip, #-609]!	; 0xfffffd9f
    10b4:	564e2820 	strbpl	r2, [lr], -r0, lsr #16
    10b8:	495f4349 	ldmdbmi	pc, {r0, r3, r6, r8, r9, lr}^	; <UNPREDICTABLE>
    10bc:	31524543 	cmpcc	r2, r3, asr #10
    10c0:	203d7c20 	eorscs	r7, sp, r0, lsr #24
    10c4:	283c3c31 	ldmdacs	ip!, {r0, r4, r5, sl, fp, ip, sp}
    10c8:	52415355 	subpl	r5, r1, #1409286145	; 0x54000001
    10cc:	495f3254 	ldmdbmi	pc, {r2, r4, r6, r9, ip, sp}^	; <UNPREDICTABLE>
    10d0:	2d205152 	stfcss	f5, [r0, #-328]!	; 0xfffffeb8
    10d4:	29323320 	ldmdbcs	r2!, {r5, r8, r9, ip, sp}
    10d8:	455f0029 	ldrbmi	r0, [pc, #-41]	; 10b7 <_Min_Stack_Size+0xcb7>
    10dc:	4144494c 	cmpmi	r4, ip, asr #18
    10e0:	5f454c42 	svcpl	0x00454c42
    10e4:	494c4e49 	stmdbmi	ip, {r0, r3, r6, r9, sl, fp, lr}^
    10e8:	7320454e 			; <UNDEFINED> instruction: 0x7320454e
    10ec:	69746174 	ldmdbvs	r4!, {r2, r4, r5, r6, r8, sp, lr}^
    10f0:	5f5f2063 	svcpl	0x005f2063
    10f4:	696c6e69 	stmdbvs	ip!, {r0, r3, r5, r6, r9, sl, fp, sp, lr}^
    10f8:	5f5f656e 	svcpl	0x005f656e
    10fc:	49555f00 	ldmdbmi	r5, {r8, r9, sl, fp, ip, lr}^
    1100:	3631544e 	ldrtcc	r5, [r1], -lr, asr #8
    1104:	445f545f 	ldrbmi	r5, [pc], #-1119	; 110c <_Min_Stack_Size+0xd0c>
    1108:	414c4345 	cmpmi	ip, r5, asr #6
    110c:	20444552 	subcs	r4, r4, r2, asr r5
    1110:	555f5f00 	ldrbpl	r5, [pc, #-3840]	; 218 <_Min_Heap_Size+0x18>
    1114:	465f5148 	ldrbmi	r5, [pc], -r8, asr #2
    1118:	5f544942 	svcpl	0x00544942
    111c:	3631205f 			; <UNDEFINED> instruction: 0x3631205f
    1120:	544e4900 	strbpl	r4, [lr], #-2304	; 0xfffff700
    1124:	41454c5f 	cmpmi	r5, pc, asr ip
    1128:	34365453 	ldrtcc	r5, [r6], #-1107	; 0xfffffbad
    112c:	58414d5f 	stmdapl	r1, {r0, r1, r2, r3, r4, r6, r8, sl, fp, lr}^
    1130:	5f5f2820 	svcpl	0x005f2820
    1134:	5f544e49 	svcpl	0x00544e49
    1138:	5341454c 	movtpl	r4, #5452	; 0x154c
    113c:	5f343654 	svcpl	0x00343654
    1140:	5f58414d 	svcpl	0x0058414d
    1144:	5f00295f 	svcpl	0x0000295f
    1148:	4e454552 	mcrmi	5, 2, r4, cr5, cr2, {2}
    114c:	4d455f54 	stclmi	15, cr5, [r5, #-336]	; 0xfffffeb0
    1150:	45475245 	strbmi	r5, [r7, #-581]	; 0xfffffdbb
    1154:	5f59434e 	svcpl	0x0059434e
    1158:	455a4953 	ldrbmi	r4, [sl, #-2387]	; 0xfffff6ad
    115c:	00353220 	eorseq	r3, r5, r0, lsr #4
    1160:	394d4954 	stmdbcc	sp, {r2, r4, r6, r8, fp, lr}^
    1164:	5341425f 	movtpl	r4, #4703	; 0x125f
    1168:	78302045 	ldmdavc	r0!, {r0, r2, r6, sp}
    116c:	31303034 	teqcc	r0, r4, lsr r0
    1170:	30304334 	eorscc	r4, r0, r4, lsr r3
    1174:	5f5f0075 	svcpl	0x005f0075
    1178:	44525450 	ldrbmi	r5, [r2], #-1104	; 0xfffffbb0
    117c:	5f464649 	svcpl	0x00464649
    1180:	54444957 	strbpl	r4, [r4], #-2391	; 0xfffff6a9
    1184:	205f5f48 	subscs	r5, pc, r8, asr #30
    1188:	5f003233 	svcpl	0x00003233
    118c:	6165775f 	cmnvs	r5, pc, asr r7
    1190:	65725f6b 	ldrbvs	r5, [r2, #-3947]!	; 0xfffff095
    1194:	65726566 	ldrbvs	r6, [r2, #-1382]!	; 0xfffffa9a
    1198:	2865636e 	stmdacs	r5!, {r1, r2, r3, r5, r6, r8, r9, sp, lr}^
    119c:	2c6d7973 			; <UNDEFINED> instruction: 0x2c6d7973
    11a0:	61696c61 	cmnvs	r9, r1, ror #24
    11a4:	5f202973 	svcpl	0x00202973
    11a8:	6d73615f 	ldfvse	f6, [r3, #-380]!	; 0xfffffe84
    11ac:	22285f5f 	eorcs	r5, r8, #380	; 0x17c
    11b0:	6165772e 	cmnvs	r5, lr, lsr #14
    11b4:	2022206b 	eorcs	r2, r2, fp, rrx
    11b8:	696c6123 	stmdbvs	ip!, {r0, r1, r5, r8, sp, lr}^
    11bc:	3b297361 	blcc	a5df48 <_Min_Stack_Size+0xa5db48>
    11c0:	615f5f20 	cmpvs	pc, r0, lsr #30
    11c4:	5f5f6d73 	svcpl	0x005f6d73
    11c8:	652e2228 	strvs	r2, [lr, #-552]!	; 0xfffffdd8
    11cc:	22207571 	eorcs	r7, r0, #473956352	; 0x1c400000
    11d0:	6c612320 	stclvs	3, cr2, [r1], #-128	; 0xffffff80
    11d4:	20736169 	rsbscs	r6, r3, r9, ror #2
    11d8:	22202c22 	eorcs	r2, r0, #8704	; 0x2200
    11dc:	79732320 	ldmdbvc	r3!, {r5, r8, r9, sp}^
    11e0:	5f00296d 	svcpl	0x0000296d
    11e4:	4e49555f 	mcrmi	5, 2, r5, cr9, cr15, {2}
    11e8:	41465f54 	cmpmi	r6, r4, asr pc
    11ec:	5f385453 	svcpl	0x00385453
    11f0:	5f58414d 	svcpl	0x0058414d
    11f4:	7830205f 	ldmdavc	r0!, {r0, r1, r2, r3, r4, r6, sp}
    11f8:	66666666 	strbtvs	r6, [r6], -r6, ror #12
    11fc:	66666666 	strbtvs	r6, [r6], -r6, ror #12
    1200:	5f5f0055 	svcpl	0x005f0055
    1204:	5f736168 	svcpl	0x00736168
    1208:	65747865 	ldrbvs	r7, [r4, #-2149]!	; 0xfffff79b
    120c:	6f69736e 	svcvs	0x0069736e
    1210:	5f5f206e 	svcpl	0x005f206e
    1214:	5f736168 	svcpl	0x00736168
    1218:	74616566 	strbtvc	r6, [r1], #-1382	; 0xfffffa9a
    121c:	00657275 	rsbeq	r7, r5, r5, ror r2
    1220:	414c5f5f 	cmpmi	ip, pc, asr pc
    1224:	4d554343 	ldclmi	3, cr4, [r5, #-268]	; 0xfffffef4
    1228:	4942495f 	stmdbmi	r2, {r0, r1, r2, r3, r4, r6, r8, fp, lr}^
    122c:	205f5f54 	subscs	r5, pc, r4, asr pc	; <UNPREDICTABLE>
    1230:	45003233 	strmi	r3, [r0, #-563]	; 0xfffffdcd
    1234:	39495458 	stmdbcc	r9, {r3, r4, r6, sl, ip, lr}^
    1238:	20394250 	eorscs	r4, r9, r0, asr r2
    123c:	54584528 	ldrbpl	r4, [r8], #-1320	; 0xfffffad8
    1240:	50475f49 	subpl	r5, r7, r9, asr #30
    1244:	4d5f4f49 	ldclmi	15, cr4, [pc, #-292]	; 1128 <_Min_Stack_Size+0xd28>
    1248:	69707061 	ldmdbvs	r0!, {r0, r5, r6, ip, sp, lr}^
    124c:	745f676e 	ldrbvc	r6, [pc], #-1902	; 1254 <_Min_Stack_Size+0xe54>
    1250:	58457b29 	stmdapl	r5, {r0, r3, r5, r8, r9, fp, ip, sp, lr}^
    1254:	2c394954 			; <UNDEFINED> instruction: 0x2c394954
    1258:	49504720 	ldmdbmi	r0, {r5, r8, r9, sl, lr}^
    125c:	202c424f 	eorcs	r4, ip, pc, asr #4
    1260:	4f495047 	svcmi	0x00495047
    1264:	4e49505f 	mcrmi	0, 2, r5, cr9, cr15, {2}
    1268:	202c395f 	eorcs	r3, ip, pc, asr r9
    126c:	49545845 	ldmdbmi	r4, {r0, r2, r6, fp, ip, lr}^
    1270:	52495f39 	subpl	r5, r9, #57, 30	; 0xe4
    1274:	5f007d51 	svcpl	0x00007d51
    1278:	6e69755f 	mcrvs	5, 3, r7, cr9, cr15, {2}
    127c:	745f3874 	ldrbvc	r3, [pc], #-2164	; 1284 <_Min_Stack_Size+0xe84>
    1280:	485f5f00 	ldmdami	pc, {r8, r9, sl, fp, ip, lr}^	; <UNPREDICTABLE>
    1284:	42495f41 	submi	r5, r9, #260	; 0x104
    1288:	5f5f5449 	svcpl	0x005f5449
    128c:	5f003820 	svcpl	0x00003820
    1290:	57454e5f 	smlsldpl	r4, r5, pc, lr	; <UNPREDICTABLE>
    1294:	5f42494c 	svcpl	0x0042494c
    1298:	205f5f48 	subscs	r5, pc, r8, asr #30
    129c:	5f5f0031 	svcpl	0x005f0031
    12a0:	5f544e49 	svcpl	0x00544e49
    12a4:	54534146 	ldrbpl	r4, [r3], #-326	; 0xfffffeba
    12a8:	575f3631 	smmlarpl	pc, r1, r6, r3	; <UNPREDICTABLE>
    12ac:	48544449 	ldmdami	r4, {r0, r3, r6, sl, lr}^
    12b0:	33205f5f 			; <UNDEFINED> instruction: 0x33205f5f
    12b4:	50470032 	subpl	r0, r7, r2, lsr r0
    12b8:	5f444f49 	svcpl	0x00444f49
    12bc:	45534142 	ldrbmi	r4, [r3, #-322]	; 0xfffffebe
    12c0:	34783020 	ldrbtcc	r3, [r8], #-32	; 0xffffffe0
    12c4:	31313030 	teqcc	r1, r0, lsr r0
    12c8:	75303034 	ldrvc	r3, [r0, #-52]!	; 0xffffffcc
    12cc:	45525f00 	ldrbmi	r5, [r2, #-3840]	; 0xfffff100
    12d0:	5f544e45 	svcpl	0x00544e45
    12d4:	5452424d 	ldrbpl	r4, [r2], #-589	; 0xfffffdb3
    12d8:	5f43574f 	svcpl	0x0043574f
    12dc:	54415453 	strbpl	r5, [r1], #-1107	; 0xfffffbad
    12e0:	74702845 	ldrbtvc	r2, [r0], #-2117	; 0xfffff7bb
    12e4:	28202972 	stmdacs	r0!, {r1, r4, r5, r6, r8, fp, sp}
    12e8:	72747028 	rsbsvc	r7, r4, #40	; 0x28
    12ec:	5f3e2d29 	svcpl	0x003e2d29
    12f0:	6373696d 	cmnvs	r3, #1785856	; 0x1b4000
    12f4:	6d5f3e2d 	ldclvs	14, cr3, [pc, #-180]	; 1248 <_Min_Stack_Size+0xe48>
    12f8:	6f747262 	svcvs	0x00747262
    12fc:	735f6377 	cmpvc	pc, #-603979775	; 0xdc000001
    1300:	65746174 	ldrbvs	r6, [r4, #-372]!	; 0xfffffe8c
    1304:	5f5f0029 	svcpl	0x005f0029
    1308:	5341454c 	movtpl	r4, #5452	; 0x154c
    130c:	20323354 	eorscs	r3, r2, r4, asr r3
    1310:	00226c22 	eoreq	r6, r2, r2, lsr #24
    1314:	4c4c5f5f 	mcrrmi	15, 5, r5, ip, cr15
    1318:	43415246 	movtmi	r5, #4678	; 0x1246
    131c:	494d5f54 	stmdbmi	sp, {r2, r4, r6, r8, r9, sl, fp, ip, lr}^
    1320:	205f5f4e 	subscs	r5, pc, lr, asr #30
    1324:	2e302d28 	cdpcs	13, 3, cr2, cr0, cr8, {1}
    1328:	524c4c35 	subpl	r4, ip, #13568	; 0x3500
    132c:	352e302d 	strcc	r3, [lr, #-45]!	; 0xffffffd3
    1330:	29524c4c 	ldmdbcs	r2, {r2, r3, r6, sl, fp, lr}^
    1334:	495f5f00 	ldmdbmi	pc, {r8, r9, sl, fp, ip, lr}^	; <UNPREDICTABLE>
    1338:	5450544e 	ldrbpl	r5, [r0], #-1102	; 0xfffffbb2
    133c:	414d5f52 	cmpmi	sp, r2, asr pc
    1340:	205f5f58 	subscs	r5, pc, r8, asr pc	; <UNPREDICTABLE>
    1344:	66377830 			; <UNDEFINED> instruction: 0x66377830
    1348:	66666666 	strbtvs	r6, [r6], -r6, ror #12
    134c:	5f006666 	svcpl	0x00006666
    1350:	4e41525f 	mcrmi	2, 2, r5, cr1, cr15, {2}
    1354:	414d5f44 	cmpmi	sp, r4, asr #30
    1358:	78302058 	ldmdavc	r0!, {r3, r4, r6, sp}
    135c:	66666637 			; <UNDEFINED> instruction: 0x66666637
    1360:	66666666 	strbtvs	r6, [r6], -r6, ror #12
    1364:	555f5f00 	ldrbpl	r5, [pc, #-3840]	; 46c <_Min_Stack_Size+0x6c>
    1368:	5f544e49 	svcpl	0x00544e49
    136c:	54534146 	ldrbpl	r4, [r3], #-326	; 0xfffffeba
    1370:	4d5f3631 	ldclmi	6, cr3, [pc, #-196]	; 12b4 <_Min_Stack_Size+0xeb4>
    1374:	5f5f5841 	svcpl	0x005f5841
    1378:	66783020 	ldrbtvs	r3, [r8], -r0, lsr #32
    137c:	66666666 	strbtvs	r6, [r6], -r6, ror #12
    1380:	55666666 	strbpl	r6, [r6, #-1638]!	; 0xfffff99a
    1384:	544e4900 	strbpl	r4, [lr], #-2304	; 0xfffff700
    1388:	41454c5f 	cmpmi	r5, pc, asr ip
    138c:	34365453 	ldrtcc	r5, [r6], #-1107	; 0xfffffbad
    1390:	4e494d5f 	mcrmi	13, 2, r4, cr9, cr15, {2}
    1394:	5f2d2820 	svcpl	0x002d2820
    1398:	544e495f 	strbpl	r4, [lr], #-2399	; 0xfffff6a1
    139c:	41454c5f 	cmpmi	r5, pc, asr ip
    13a0:	34365453 	ldrtcc	r5, [r6], #-1107	; 0xfffffbad
    13a4:	58414d5f 	stmdapl	r1, {r0, r1, r2, r3, r4, r6, r8, sl, fp, lr}^
    13a8:	2d205f5f 	stccs	15, cr5, [r0, #-380]!	; 0xfffffe84
    13ac:	00293120 	eoreq	r3, r9, r0, lsr #2
    13b0:	52415355 	subpl	r5, r1, #1409286145	; 0x54000001
    13b4:	425f3254 	subsmi	r3, pc, #84, 4	; 0x40000005
    13b8:	20455341 	subcs	r5, r5, r1, asr #6
    13bc:	30347830 	eorscc	r7, r4, r0, lsr r8
    13c0:	34343030 	ldrtcc	r3, [r4], #-48	; 0xffffffd0
    13c4:	00753030 	rsbseq	r3, r5, r0, lsr r0
    13c8:	49545845 	ldmdbmi	r4, {r0, r2, r6, fp, ip, lr}^
    13cc:	43503231 	cmpmi	r0, #268435459	; 0x10000003
    13d0:	28203231 	stmdacs	r0!, {r0, r4, r5, r9, ip, sp}
    13d4:	49545845 	ldmdbmi	r4, {r0, r2, r6, fp, ip, lr}^
    13d8:	4950475f 	ldmdbmi	r0, {r0, r1, r2, r3, r4, r6, r8, r9, sl, lr}^
    13dc:	614d5f4f 	cmpvs	sp, pc, asr #30
    13e0:	6e697070 	mcrvs	0, 3, r7, cr9, cr0, {3}
    13e4:	29745f67 	ldmdbcs	r4!, {r0, r1, r2, r5, r6, r8, r9, sl, fp, ip, lr}^
    13e8:	5458457b 	ldrbpl	r4, [r8], #-1403	; 0xfffffa85
    13ec:	2c323149 	ldfcss	f3, [r2], #-292	; 0xfffffedc
    13f0:	49504720 	ldmdbmi	r0, {r5, r8, r9, sl, lr}^
    13f4:	202c434f 	eorcs	r4, ip, pc, asr #6
    13f8:	4f495047 	svcmi	0x00495047
    13fc:	4e49505f 	mcrmi	0, 2, r5, cr9, cr15, {2}
    1400:	2c32315f 	ldfcss	f3, [r2], #-380	; 0xfffffe84
    1404:	54584520 	ldrbpl	r4, [r8], #-1312	; 0xfffffae0
    1408:	5f323149 	svcpl	0x00323149
    140c:	7d515249 	lfmvc	f5, 2, [r1, #-292]	; 0xfffffedc
    1410:	475f5f00 	ldrbmi	r5, [pc, -r0, lsl #30]
    1414:	4c43554e 	cfstr64mi	mvdx5, [r3], {78}	; 0x4e
    1418:	5f454b49 	svcpl	0x00454b49
    141c:	4c495542 	cfstr64mi	mvdx5, [r9], {66}	; 0x42
    1420:	5f4e4954 	svcpl	0x004e4954
    1424:	534e4f43 	movtpl	r4, #61251	; 0xef43
    1428:	544e4154 	strbpl	r4, [lr], #-340	; 0xfffffeac
    142c:	3120505f 	qsubcc	r5, pc, r0	; <UNPREDICTABLE>
    1430:	45525f00 	ldrbmi	r5, [r2, #-3840]	; 0xfffff100
    1434:	5f544e45 	svcpl	0x00544e45
    1438:	43454843 	movtmi	r4, #22595	; 0x5843
    143c:	6176284b 	cmnvs	r6, fp, asr #16
    1440:	68772c72 	ldmdavs	r7!, {r1, r4, r5, r6, sl, fp, sp}^
    1444:	742c7461 	strtvc	r7, [ip], #-1121	; 0xfffffb9f
    1448:	2c657079 	stclcs	0, cr7, [r5], #-484	; 0xfffffe1c
    144c:	657a6973 	ldrbvs	r6, [sl, #-2419]!	; 0xfffff68d
    1450:	696e692c 	stmdbvs	lr!, {r2, r3, r5, r8, fp, sp, lr}^
    1454:	64202974 	strtvs	r2, [r0], #-2420	; 0xfffff68c
    1458:	207b206f 	rsbscs	r2, fp, pc, rrx
    145c:	75727473 	ldrbvc	r7, [r2, #-1139]!	; 0xfffffb8d
    1460:	5f207463 	svcpl	0x00207463
    1464:	6e656572 	mcrvs	5, 3, r6, cr5, cr2, {3}
    1468:	5f2a2074 	svcpl	0x002a2074
    146c:	203d2072 	eorscs	r2, sp, r2, ror r0
    1470:	72617628 	rsbvc	r7, r1, #40, 12	; 0x2800000
    1474:	69203b29 	stmdbvs	r0!, {r0, r3, r5, r8, r9, fp, ip, sp}
    1478:	5f282066 	svcpl	0x00282066
    147c:	773e2d72 			; <UNDEFINED> instruction: 0x773e2d72
    1480:	20746168 	rsbscs	r6, r4, r8, ror #2
    1484:	4e203d3d 	mcrmi	13, 1, r3, cr0, cr13, {1}
    1488:	294c4c55 	stmdbcs	ip, {r0, r2, r4, r6, sl, fp, lr}^
    148c:	5f207b20 	svcpl	0x00207b20
    1490:	773e2d72 			; <UNDEFINED> instruction: 0x773e2d72
    1494:	20746168 	rsbscs	r6, r4, r8, ror #2
    1498:	7428203d 	strtvc	r2, [r8], #-61	; 0xffffffc3
    149c:	29657079 	stmdbcs	r5!, {r0, r3, r4, r5, r6, ip, sp, lr}^
    14a0:	6c6c616d 	stfvse	f6, [ip], #-436	; 0xfffffe4c
    14a4:	7328636f 			; <UNDEFINED> instruction: 0x7328636f
    14a8:	29657a69 	stmdbcs	r5!, {r0, r3, r5, r6, r9, fp, ip, sp, lr}^
    14ac:	5f5f203b 	svcpl	0x005f203b
    14b0:	6e656572 	mcrvs	5, 3, r6, cr5, cr2, {3}
    14b4:	73615f74 	cmnvc	r1, #116, 30	; 0x1d0
    14b8:	74726573 	ldrbtvc	r6, [r2], #-1395	; 0xfffffa8d
    14bc:	2d725f28 	ldclcs	15, cr5, [r2, #-160]!	; 0xffffff60
    14c0:	6168773e 	cmnvs	r8, lr, lsr r7
    14c4:	203b2974 	eorscs	r2, fp, r4, ror r9
    14c8:	74696e69 	strbtvc	r6, [r9], #-3689	; 0xfffff197
    14cc:	207d203b 	rsbscs	r2, sp, fp, lsr r0
    14d0:	6877207d 	ldmdavs	r7!, {r0, r2, r3, r4, r5, r6, sp}^
    14d4:	20656c69 	rsbcs	r6, r5, r9, ror #24
    14d8:	00293028 	eoreq	r3, r9, r8, lsr #32
    14dc:	6e6f4e5f 	mcrvs	14, 3, r4, cr15, cr15, {2}
    14e0:	6c6c756e 	cfstr64vs	mvdx7, [ip], #-440	; 0xfffffe48
    14e4:	5f5f0020 	svcpl	0x005f0020
    14e8:	43554e47 	cmpmi	r5, #1136	; 0x470
    14ec:	4552505f 	ldrbmi	r5, [r2, #-95]	; 0xffffffa1
    14f0:	28514552 	ldmdacs	r1, {r1, r4, r6, r8, sl, lr}^
    14f4:	2c6a616d 	stfcse	f6, [sl], #-436	; 0xfffffe4c
    14f8:	296e696d 	stmdbcs	lr!, {r0, r2, r3, r5, r6, r8, fp, sp, lr}^
    14fc:	5f282820 	svcpl	0x00282820
    1500:	554e475f 	strbpl	r4, [lr, #-1887]	; 0xfffff8a1
    1504:	205f5f43 	subscs	r5, pc, r3, asr #30
    1508:	31203c3c 			; <UNDEFINED> instruction: 0x31203c3c
    150c:	2b202936 	blcs	80b9ec <_Min_Stack_Size+0x80b5ec>
    1510:	475f5f20 	ldrbmi	r5, [pc, -r0, lsr #30]
    1514:	5f43554e 	svcpl	0x0043554e
    1518:	4f4e494d 	svcmi	0x004e494d
    151c:	205f5f52 	subscs	r5, pc, r2, asr pc	; <UNPREDICTABLE>
    1520:	28203d3e 	stmdacs	r0!, {r1, r2, r3, r4, r5, r8, sl, fp, ip, sp}
    1524:	6a616d28 	bvs	185c9cc <_Min_Stack_Size+0x185c5cc>
    1528:	3c3c2029 	ldccc	0, cr2, [ip], #-164	; 0xffffff5c
    152c:	29363120 	ldmdbcs	r6!, {r5, r8, ip, sp}
    1530:	28202b20 	stmdacs	r0!, {r5, r8, r9, fp, sp}
    1534:	296e696d 	stmdbcs	lr!, {r0, r2, r3, r5, r6, r8, fp, sp, lr}^
    1538:	545f0029 	ldrbpl	r0, [pc], #-41	; 1540 <_Min_Stack_Size+0x1140>
    153c:	4843575f 	stmdami	r3, {r0, r1, r2, r3, r4, r6, r8, r9, sl, ip, lr}^
    1540:	00205241 	eoreq	r5, r0, r1, asr #4
    1544:	356d6954 	strbcc	r6, [sp, #-2388]!	; 0xfffff6ac
    1548:	54282820 	strtpl	r2, [r8], #-2080	; 0xfffff7e0
    154c:	74324d49 	ldrtvc	r4, [r2], #-3401	; 0xfffff2b7
    1550:	79545f35 	ldmdbvc	r4, {r0, r2, r4, r5, r8, r9, sl, fp, ip, lr}^
    1554:	65446570 	strbvs	r6, [r4, #-1392]	; 0xfffffa90
    1558:	2a745f66 	bcs	1d192f8 <_Min_Stack_Size+0x1d18ef8>
    155c:	4d495429 	cfstrdmi	mvd5, [r9, #-164]	; 0xffffff5c
    1560:	41425f35 	cmpmi	r2, r5, lsr pc
    1564:	00294553 	eoreq	r4, r9, r3, asr r5
    1568:	444c5f5f 	strbmi	r5, [ip], #-3935	; 0xfffff0a1
    156c:	485f4c42 	ldmdami	pc, {r1, r6, sl, fp, lr}^	; <UNPREDICTABLE>
    1570:	515f5341 	cmppl	pc, r1, asr #6
    1574:	54454955 	strbpl	r4, [r5], #-2389	; 0xfffff6ab
    1578:	4e414e5f 	mcrmi	14, 2, r4, cr1, cr15, {2}
    157c:	31205f5f 			; <UNDEFINED> instruction: 0x31205f5f
    1580:	4e495f00 	cdpmi	15, 4, cr5, cr9, cr0, {0}
    1584:	52545054 	subspl	r5, r4, #84	; 0x54
    1588:	445f545f 	ldrbmi	r5, [pc], #-1119	; 1590 <_Min_Stack_Size+0x1190>
    158c:	414c4345 	cmpmi	ip, r5, asr #6
    1590:	20444552 	subcs	r4, r4, r2, asr r5
    1594:	49504700 	ldmdbmi	r0, {r8, r9, sl, lr}^
    1598:	49505f4f 	ldmdbmi	r0, {r0, r1, r2, r3, r6, r8, r9, sl, fp, ip, lr}^
    159c:	34315f4e 	ldrtcc	r5, [r1], #-3918	; 0xfffff0b2
    15a0:	75282820 	strvc	r2, [r8, #-2080]!	; 0xfffff7e0
    15a4:	31746e69 	cmncc	r4, r9, ror #28
    15a8:	29745f36 	ldmdbcs	r4!, {r1, r2, r4, r5, r8, r9, sl, fp, ip, lr}^
    15ac:	34783020 	ldrbtcc	r3, [r8], #-32	; 0xffffffe0
    15b0:	29303030 	ldmdbcs	r0!, {r4, r5, ip, sp}
    15b4:	465f5f00 	ldrbmi	r5, [pc], -r0, lsl #30
    15b8:	3233544c 	eorscc	r5, r3, #76, 8	; 0x4c000000
    15bc:	41485f58 	cmpmi	r8, r8, asr pc
    15c0:	4e495f53 	mcrmi	15, 2, r5, cr9, cr3, {2}
    15c4:	494e4946 	stmdbmi	lr, {r1, r2, r6, r8, fp, lr}^
    15c8:	5f5f5954 	svcpl	0x005f5954
    15cc:	49003120 	stmdbmi	r0, {r5, r8, ip, sp}
    15d0:	465f544e 	ldrbmi	r5, [pc], -lr, asr #8
    15d4:	33545341 	cmpcc	r4, #67108865	; 0x4000001
    15d8:	494d5f32 	stmdbmi	sp, {r1, r4, r5, r8, r9, sl, fp, ip, lr}^
    15dc:	2d28204e 	stccs	0, cr2, [r8, #-312]!	; 0xfffffec8
    15e0:	4e495f5f 	mcrmi	15, 2, r5, cr9, cr15, {2}
    15e4:	41465f54 	cmpmi	r6, r4, asr pc
    15e8:	32335453 	eorscc	r5, r3, #1392508928	; 0x53000000
    15ec:	58414d5f 	stmdapl	r1, {r0, r1, r2, r3, r4, r6, r8, sl, fp, lr}^
    15f0:	2d205f5f 	stccs	15, cr5, [r0, #-380]!	; 0xfffffe84
    15f4:	00293120 	eoreq	r3, r9, r0, lsr #2
    15f8:	5359535f 	cmppl	r9, #2080374785	; 0x7c000001
    15fc:	5a49535f 	bpl	1256380 <_Min_Stack_Size+0x1255f80>
    1600:	5f545f45 	svcpl	0x00545f45
    1604:	5f002048 	svcpl	0x00002048
    1608:	6175675f 	cmnvs	r5, pc, asr r7
    160c:	64656472 	strbtvs	r6, [r5], #-1138	; 0xfffffb8e
    1610:	2879625f 	ldmdacs	r9!, {r0, r1, r2, r3, r4, r6, r9, sp, lr}^
    1614:	5f202978 	svcpl	0x00202978
    1618:	636f6c5f 	cmnvs	pc, #24320	; 0x5f00
    161c:	6e615f6b 	cdpvs	15, 6, cr5, cr1, cr11, {3}
    1620:	61746f6e 	cmnvs	r4, lr, ror #30
    1624:	67286574 			; <UNDEFINED> instruction: 0x67286574
    1628:	64726175 	ldrbtvs	r6, [r2], #-373	; 0xfffffe8b
    162c:	625f6465 	subsvs	r6, pc, #1694498816	; 0x65000000
    1630:	29782879 	ldmdbcs	r8!, {r0, r3, r4, r5, r6, fp, sp}^
    1634:	45440029 	strbmi	r0, [r4, #-41]	; 0xffffffd7
    1638:	20475542 	subcs	r5, r7, r2, asr #10
    163c:	564e0031 			; <UNDEFINED> instruction: 0x564e0031
    1640:	455f4349 	ldrbmi	r4, [pc, #-841]	; 12ff <_Min_Stack_Size+0xeff>
    1644:	31495458 	cmpcc	r9, r8, asr r4
    1648:	5f355f30 	svcpl	0x00355f30
    164c:	5f515249 	svcpl	0x00515249
    1650:	62616e45 	rsbvs	r6, r1, #1104	; 0x450
    1654:	2820656c 	stmdacs	r0!, {r2, r3, r5, r6, r8, sl, sp, lr}
    1658:	4349564e 	movtmi	r5, #38478	; 0x964e
    165c:	4553495f 	ldrbmi	r4, [r3, #-2399]	; 0xfffff6a1
    1660:	7c203052 	stcvc	0, cr3, [r0], #-328	; 0xfffffeb8
    1664:	3c31203d 	ldccc	0, cr2, [r1], #-244	; 0xffffff0c
    1668:	2933323c 	ldmdbcs	r3!, {r2, r3, r4, r5, r9, ip, sp}
    166c:	6c5f5f00 	mrrcvs	15, 0, r5, pc, cr0	; <UNPREDICTABLE>
    1670:	736b636f 	cmnvc	fp, #-1140850687	; 0xbc000001
    1674:	6378655f 	cmnvs	r8, #398458880	; 0x17c00000
    1678:	6973756c 	ldmdbvs	r3!, {r2, r3, r5, r6, r8, sl, ip, sp, lr}^
    167c:	2e286576 	mcrcs	5, 1, r6, cr8, cr6, {3}
    1680:	20292e2e 	eorcs	r2, r9, lr, lsr #28
    1684:	6f6c5f5f 	svcvs	0x006c5f5f
    1688:	615f6b63 	cmpvs	pc, r3, ror #22
    168c:	746f6e6e 	strbtvc	r6, [pc], #-3694	; 1694 <_Min_Stack_Size+0x1294>
    1690:	28657461 	stmdacs	r5!, {r0, r5, r6, sl, ip, sp, lr}^
    1694:	6c637865 	stclvs	8, cr7, [r3], #-404	; 0xfffffe6c
    1698:	76697375 			; <UNDEFINED> instruction: 0x76697375
    169c:	6f6c5f65 	svcvs	0x006c5f65
    16a0:	665f6b63 	ldrbvs	r6, [pc], -r3, ror #22
    16a4:	74636e75 	strbtvc	r6, [r3], #-3701	; 0xfffff18b
    16a8:	286e6f69 	stmdacs	lr!, {r0, r3, r5, r6, r8, r9, sl, fp, sp, lr}^
    16ac:	41565f5f 	cmpmi	r6, pc, asr pc
    16b0:	4752415f 			; <UNDEFINED> instruction: 0x4752415f
    16b4:	295f5f53 	ldmdbcs	pc, {r0, r1, r4, r6, r8, r9, sl, fp, ip, lr}^	; <UNPREDICTABLE>
    16b8:	5f5f0029 	svcpl	0x005f0029
    16bc:	55434341 	strbpl	r4, [r3, #-833]	; 0xfffffcbf
    16c0:	42465f4d 	submi	r5, r6, #308	; 0x134
    16c4:	5f5f5449 	svcpl	0x005f5449
    16c8:	00353120 	eorseq	r3, r5, r0, lsr #2
    16cc:	6f6c5f5f 	svcvs	0x006c5f5f
    16d0:	725f6b63 	subsvc	r6, pc, #101376	; 0x18c00
    16d4:	61656c65 	cmnvs	r5, r5, ror #24
    16d8:	6c286573 	cfstr32vs	mvfx6, [r8], #-460	; 0xfffffe34
    16dc:	296b636f 	stmdbcs	fp!, {r0, r1, r2, r3, r5, r6, r8, r9, sp, lr}^
    16e0:	725f5f20 	subsvc	r5, pc, #32, 30	; 0x80
    16e4:	72617465 	rsbvc	r7, r1, #1694498816	; 0x65000000
    16e8:	5f746567 	svcpl	0x00746567
    16ec:	6b636f6c 	blvs	18dd4a4 <_Min_Stack_Size+0x18dd0a4>
    16f0:	6c65725f 	sfmvs	f7, 2, [r5], #-380	; 0xfffffe84
    16f4:	65736165 	ldrbvs	r6, [r3, #-357]!	; 0xfffffe9b
    16f8:	636f6c28 	cmnvs	pc, #40, 24	; 0x2800
    16fc:	5f00296b 	svcpl	0x0000296b
    1700:	4341555f 	movtmi	r5, #5471	; 0x155f
    1704:	5f4d5543 	svcpl	0x004d5543
    1708:	54494249 	strbpl	r4, [r9], #-585	; 0xfffffdb7
    170c:	31205f5f 			; <UNDEFINED> instruction: 0x31205f5f
    1710:	5f5f0036 	svcpl	0x005f0036
    1714:	6b636f6c 	blvs	18dd4cc <_Min_Stack_Size+0x18dd0cc>
    1718:	696e695f 	stmdbvs	lr!, {r0, r1, r2, r3, r4, r6, r8, fp, sp, lr}^
    171c:	6f6c2874 	svcvs	0x006c2874
    1720:	20296b63 	eorcs	r6, r9, r3, ror #22
    1724:	65725f5f 	ldrbvs	r5, [r2, #-3935]!	; 0xfffff0a1
    1728:	67726174 			; <UNDEFINED> instruction: 0x67726174
    172c:	6c5f7465 	cfldrdvs	mvd7, [pc], {101}	; 0x65
    1730:	5f6b636f 	svcpl	0x006b636f
    1734:	74696e69 	strbtvc	r6, [r9], #-3689	; 0xfffff197
    1738:	6f6c2628 	svcvs	0x006c2628
    173c:	00296b63 	eoreq	r6, r9, r3, ror #22
    1740:	4e495f5f 	mcrmi	15, 2, r5, cr9, cr15, {2}
    1744:	41465f54 	cmpmi	r6, r4, asr pc
    1748:	34365453 	ldrtcc	r5, [r6], #-1107	; 0xfffffbad
    174c:	58414d5f 	stmdapl	r1, {r0, r1, r2, r3, r4, r6, r8, sl, fp, lr}^
    1750:	30205f5f 	eorcc	r5, r0, pc, asr pc
    1754:	66663778 			; <UNDEFINED> instruction: 0x66663778
    1758:	66666666 	strbtvs	r6, [r6], -r6, ror #12
    175c:	66666666 	strbtvs	r6, [r6], -r6, ror #12
    1760:	66666666 	strbtvs	r6, [r6], -r6, ror #12
    1764:	004c4c66 	subeq	r4, ip, r6, ror #24
    1768:	4c465f5f 	mcrrmi	15, 5, r5, r6, cr15
    176c:	58323354 	ldmdapl	r2!, {r2, r4, r6, r8, r9, ip, sp}
    1770:	4345445f 	movtmi	r4, #21599	; 0x545f
    1774:	4c414d49 	mcrrmi	13, 4, r4, r1, cr9
    1778:	4749445f 	smlsldmi	r4, r9, pc, r4	; <UNPREDICTABLE>
    177c:	31205f5f 			; <UNDEFINED> instruction: 0x31205f5f
    1780:	5f5f0037 	svcpl	0x005f0037
    1784:	5f4c4244 	svcpl	0x004c4244
    1788:	5f4e494d 	svcpl	0x004e494d
    178c:	2828205f 	stmdacs	r8!, {r0, r1, r2, r3, r4, r6, sp}
    1790:	62756f64 	rsbsvs	r6, r5, #100, 30	; 0x190
    1794:	3229656c 	eorcc	r6, r9, #108, 10	; 0x1b000000
    1798:	3532322e 	ldrcc	r3, [r2, #-558]!	; 0xfffffdd2
    179c:	38333730 	ldmdacc	r3!, {r4, r5, r8, r9, sl, ip, sp}
    17a0:	30353835 	eorscc	r3, r5, r5, lsr r8
    17a4:	31303237 	teqcc	r0, r7, lsr r2
    17a8:	332d6534 			; <UNDEFINED> instruction: 0x332d6534
    17ac:	294c3830 	stmdbcs	ip, {r4, r5, fp, ip, sp}^
    17b0:	465f5f00 	ldrbmi	r5, [pc], -r0, lsl #30
    17b4:	3233544c 	eorscc	r5, r3, #76, 8	; 0x4c000000
    17b8:	41485f58 	cmpmi	r8, r8, asr pc
    17bc:	55515f53 	ldrbpl	r5, [r1, #-3923]	; 0xfffff0ad
    17c0:	5f544549 	svcpl	0x00544549
    17c4:	5f4e414e 	svcpl	0x004e414e
    17c8:	0031205f 	eorseq	r2, r1, pc, asr r0
    17cc:	49545845 	ldmdbmi	r4, {r0, r2, r6, fp, ip, lr}^
    17d0:	5152495f 	cmppl	r2, pc, asr r9
    17d4:	7369645f 	cmnvc	r9, #1593835520	; 0x5f000000
    17d8:	656c6261 	strbvs	r6, [ip, #-609]!	; 0xfffffd9f
    17dc:	5f003020 	svcpl	0x00003020
    17e0:	6c756e5f 	ldclvs	14, cr6, [r5], #-380	; 0xfffffe84
    17e4:	65735f6c 	ldrbvs	r5, [r3, #-3948]!	; 0xfffff094
    17e8:	6e69746e 	cdpvs	4, 6, cr7, cr9, cr14, {3}
    17ec:	5f206c65 	svcpl	0x00206c65
    17f0:	7474615f 	ldrbtvc	r6, [r4], #-351	; 0xfffffea1
    17f4:	75626972 	strbvc	r6, [r2, #-2418]!	; 0xfffff68e
    17f8:	5f5f6574 	svcpl	0x005f6574
    17fc:	5f5f2828 	svcpl	0x005f2828
    1800:	746e6573 	strbtvc	r6, [lr], #-1395	; 0xfffffa8d
    1804:	6c656e69 	stclvs	14, cr6, [r5], #-420	; 0xfffffe5c
    1808:	29295f5f 	stmdbcs	r9!, {r0, r1, r2, r3, r4, r6, r8, r9, sl, fp, ip, lr}
    180c:	465f5f00 	ldrbmi	r5, [pc], -r0, lsl #30
    1810:	3233544c 	eorscc	r5, r3, #76, 8	; 0x4c000000
    1814:	50455f58 	subpl	r5, r5, r8, asr pc
    1818:	4f4c4953 	svcmi	0x004c4953
    181c:	205f5f4e 	subscs	r5, pc, lr, asr #30
    1820:	32322e32 	eorscc	r2, r2, #800	; 0x320
    1824:	36343430 			; <UNDEFINED> instruction: 0x36343430
    1828:	32393430 	eorscc	r3, r9, #48, 8	; 0x30000000
    182c:	31333035 	teqcc	r3, r5, lsr r0
    1830:	2d653133 	stfcse	f3, [r5, #-204]!	; 0xffffff34
    1834:	33463631 	movtcc	r3, #26161	; 0x6631
    1838:	5f007832 	svcpl	0x00007832
    183c:	6e695f5f 	mcrvs	15, 3, r5, cr9, cr15, {2}
    1840:	656c5f74 	strbvs	r5, [ip, #-3956]!	; 0xfffff08c
    1844:	31747361 	cmncc	r4, r1, ror #6
    1848:	5f745f36 	svcpl	0x00745f36
    184c:	69666564 	stmdbvs	r6!, {r2, r5, r6, r8, sl, sp, lr}^
    1850:	2064656e 	rsbcs	r6, r4, lr, ror #10
    1854:	5f5f0031 	svcpl	0x005f0031
    1858:	5f4d5241 	svcpl	0x004d5241
    185c:	48435241 	stmdami	r3, {r0, r6, r9, ip, lr}^
    1860:	5f4d375f 	svcpl	0x004d375f
    1864:	0031205f 	eorseq	r2, r1, pc, asr r0
    1868:	6c754e5f 	ldclvs	14, cr4, [r5], #-380	; 0xfffffe84
    186c:	6c62616c 	stfvse	f6, [r2], #-432	; 0xfffffe50
    1870:	5f002065 	svcpl	0x00002065
    1874:	544e495f 	strbpl	r4, [lr], #-2399	; 0xfffff6a1
    1878:	5341465f 	movtpl	r4, #5727	; 0x165f
    187c:	545f3854 	ldrbpl	r3, [pc], #-2132	; 1884 <_Min_Stack_Size+0x1484>
    1880:	5f455059 	svcpl	0x00455059
    1884:	6e69205f 	mcrvs	0, 3, r2, cr9, cr15, {2}
    1888:	4e5f0074 	mrcmi	0, 2, r0, cr15, cr4, {3}
    188c:	4c4e494f 	mcrrmi	9, 4, r4, lr, cr15	; <UNPREDICTABLE>
    1890:	20454e49 	subcs	r4, r5, r9, asr #28
    1894:	74615f5f 	strbtvc	r5, [r1], #-3935	; 0xfffff0a1
    1898:	62697274 	rsbvs	r7, r9, #116, 4	; 0x40000007
    189c:	5f657475 	svcpl	0x00657475
    18a0:	2828205f 	stmdacs	r8!, {r0, r1, r2, r3, r4, r6, sp}
    18a4:	6f6e5f5f 	svcvs	0x006e5f5f
    18a8:	696c6e69 	stmdbvs	ip!, {r0, r3, r5, r6, r9, sl, fp, sp, lr}^
    18ac:	5f5f656e 	svcpl	0x005f656e
    18b0:	5f002929 	svcpl	0x00002929
    18b4:	4144555f 	cmpmi	r4, pc, asr r5
    18b8:	4942465f 	stmdbmi	r2, {r0, r1, r2, r3, r4, r6, r9, sl, lr}^
    18bc:	205f5f54 	subscs	r5, pc, r4, asr pc	; <UNPREDICTABLE>
    18c0:	5f003233 	svcpl	0x00003233
    18c4:	7a69735f 	bvc	1a5e648 <_Min_Stack_Size+0x1a5e248>
    18c8:	5f745f65 	svcpl	0x00745f65
    18cc:	5f00205f 	svcpl	0x0000205f
    18d0:	544c465f 	strbpl	r4, [ip], #-1631	; 0xfffff9a1
    18d4:	4d5f3436 	cfldrdmi	mvd3, [pc, #-216]	; 1804 <_Min_Stack_Size+0x1404>
    18d8:	315f5841 	cmpcc	pc, r1, asr #16
    18dc:	58455f30 	stmdapl	r5, {r4, r5, r8, r9, sl, fp, ip, lr}^
    18e0:	205f5f50 	subscs	r5, pc, r0, asr pc	; <UNPREDICTABLE>
    18e4:	00383033 	eorseq	r3, r8, r3, lsr r0
    18e8:	49555f5f 	ldmdbmi	r5, {r0, r1, r2, r3, r4, r6, r8, r9, sl, fp, ip, lr}^
    18ec:	414d544e 	cmpmi	sp, lr, asr #8
    18f0:	28435f58 	stmdacs	r3, {r3, r4, r6, r8, r9, sl, fp, ip, lr}^
    18f4:	63202963 			; <UNDEFINED> instruction: 0x63202963
    18f8:	20232320 	eorcs	r2, r3, r0, lsr #6
    18fc:	004c4c55 	subeq	r4, ip, r5, asr ip
    1900:	49535f5f 	ldmdbmi	r3, {r0, r1, r2, r3, r4, r6, r8, r9, sl, fp, ip, lr}^
    1904:	464f455a 			; <UNDEFINED> instruction: 0x464f455a
    1908:	494f505f 	stmdbmi	pc, {r0, r1, r2, r3, r4, r6, ip, lr}^	; <UNPREDICTABLE>
    190c:	5245544e 	subpl	r5, r5, #1308622848	; 0x4e000000
    1910:	34205f5f 	strtcc	r5, [r0], #-3935	; 0xfffff0a1
    1914:	495f5f00 	ldmdbmi	pc, {r8, r9, sl, fp, ip, lr}^	; <UNPREDICTABLE>
    1918:	4c5f544e 	cfldrdmi	mvd5, [pc], {78}	; 0x4e
    191c:	54534145 	ldrbpl	r4, [r3], #-325	; 0xfffffebb
    1920:	59545f38 	ldmdbpl	r4, {r3, r4, r5, r8, r9, sl, fp, ip, lr}^
    1924:	5f5f4550 	svcpl	0x005f4550
    1928:	67697320 	strbvs	r7, [r9, -r0, lsr #6]!
    192c:	2064656e 	rsbcs	r6, r4, lr, ror #10
    1930:	72616863 	rsbvc	r6, r1, #6488064	; 0x630000
    1934:	544e4900 	strbpl	r4, [lr], #-2304	; 0xfffff700
    1938:	5f58414d 	svcpl	0x0058414d
    193c:	29782843 	ldmdbcs	r8!, {r0, r1, r6, fp, sp}^
    1940:	495f5f20 	ldmdbmi	pc, {r5, r8, r9, sl, fp, ip, lr}^	; <UNPREDICTABLE>
    1944:	414d544e 	cmpmi	sp, lr, asr #8
    1948:	28435f58 	stmdacs	r3, {r3, r4, r6, r8, r9, sl, fp, ip, lr}^
    194c:	5f002978 	svcpl	0x00002978
    1950:	4e454552 	mcrmi	5, 2, r4, cr5, cr2, {2}
    1954:	54535f54 	ldrbpl	r5, [r3], #-3924	; 0xfffff0ac
    1958:	4b4f5452 	blmi	13d6aa8 <_Min_Stack_Size+0x13d66a8>
    195c:	53414c5f 	movtpl	r4, #7263	; 0x1c5f
    1960:	74702854 	ldrbtvc	r2, [r0], #-2132	; 0xfffff7ac
    1964:	28202972 	stmdacs	r0!, {r1, r4, r5, r6, r8, fp, sp}
    1968:	72747028 	rsbsvc	r7, r4, #40	; 0x28
    196c:	5f3e2d29 	svcpl	0x003e2d29
    1970:	6373696d 	cmnvs	r3, #1785856	; 0x1b4000
    1974:	735f3e2d 	cmpvc	pc, #720	; 0x2d0
    1978:	6f747274 	svcvs	0x00747274
    197c:	616c5f6b 	cmnvs	ip, fp, ror #30
    1980:	00297473 	eoreq	r7, r9, r3, ror r4
    1984:	49545845 	ldmdbmi	r4, {r0, r2, r6, fp, ip, lr}^
    1988:	4950475f 	ldmdbmi	r0, {r0, r1, r2, r3, r4, r6, r8, r9, sl, lr}^
    198c:	614d5f4f 	cmpvs	sp, pc, asr #30
    1990:	6e697070 	mcrvs	0, 3, r7, cr9, cr0, {3}
    1994:	00745f67 	rsbseq	r5, r4, r7, ror #30
    1998:	49545845 	ldmdbmi	r4, {r0, r2, r6, fp, ip, lr}^
    199c:	00392039 	eorseq	r2, r9, r9, lsr r0
    19a0:	5f434352 	svcpl	0x00434352
    19a4:	4f495047 	svcmi	0x00495047
    19a8:	4c435f45 	mcrrmi	15, 4, r5, r3, cr5
    19ac:	4e455f4b 	cdpmi	15, 4, cr5, cr5, cr11, {2}
    19b0:	28202928 	stmdacs	r0!, {r3, r5, r8, fp, sp}
    19b4:	2d434352 	stclcs	3, cr4, [r3, #-328]	; 0xfffffeb8
    19b8:	4250413e 	subsmi	r4, r0, #-2147483633	; 0x8000000f
    19bc:	524e4532 	subpl	r4, lr, #209715200	; 0xc800000
    19c0:	203d7c20 	eorscs	r7, sp, r0, lsr #24
    19c4:	3c3c3128 	ldfccs	f3, [ip], #-160	; 0xffffff60
    19c8:	00292936 	eoreq	r2, r9, r6, lsr r9
    19cc:	52415f5f 	subpl	r5, r1, #380	; 0x17c
    19d0:	454e5f4d 	strbmi	r5, [lr, #-3917]	; 0xfffff0b3
    19d4:	5f5f4e4f 	svcpl	0x005f4e4f
    19d8:	4e495500 	cdpmi	5, 4, cr5, cr9, cr0, {0}
    19dc:	52545054 	subspl	r5, r4, #84	; 0x54
    19e0:	58414d5f 	stmdapl	r1, {r0, r1, r2, r3, r4, r6, r8, sl, fp, lr}^
    19e4:	5f5f2820 	svcpl	0x005f2820
    19e8:	544e4955 	strbpl	r4, [lr], #-2389	; 0xfffff6ab
    19ec:	5f525450 	svcpl	0x00525450
    19f0:	5f58414d 	svcpl	0x0058414d
    19f4:	5f00295f 	svcpl	0x0000295f
    19f8:	544c465f 	strbpl	r4, [ip], #-1631	; 0xfffff9a1
    19fc:	4d5f3233 	lfmmi	f3, 2, [pc, #-204]	; 1938 <_Min_Stack_Size+0x1538>
    1a00:	455f5841 	ldrbmi	r5, [pc, #-2113]	; 11c7 <_Min_Stack_Size+0xdc7>
    1a04:	5f5f5058 	svcpl	0x005f5058
    1a08:	38323120 	ldmdacc	r2!, {r5, r8, ip, sp}
    1a0c:	69616d00 	stmdbvs	r1!, {r8, sl, fp, sp, lr}^
    1a10:	5f5f006e 	svcpl	0x005f006e
    1a14:	544e4955 	strbpl	r4, [lr], #-2389	; 0xfffff6ab
    1a18:	5f58414d 	svcpl	0x0058414d
    1a1c:	45505954 	ldrbmi	r5, [r0, #-2388]	; 0xfffff6ac
    1a20:	6c205f5f 	stcvs	15, cr5, [r0], #-380	; 0xfffffe84
    1a24:	20676e6f 	rsbcs	r6, r7, pc, ror #28
    1a28:	676e6f6c 	strbvs	r6, [lr, -ip, ror #30]!
    1a2c:	736e7520 	cmnvc	lr, #32, 10	; 0x8000000
    1a30:	656e6769 	strbvs	r6, [lr, #-1897]!	; 0xfffff897
    1a34:	6e692064 	cdpvs	0, 6, cr2, cr9, cr4, {3}
    1a38:	5f5f0074 	svcpl	0x005f0074
    1a3c:	464c4c55 			; <UNDEFINED> instruction: 0x464c4c55
    1a40:	54434152 	strbpl	r4, [r3], #-338	; 0xfffffeae
    1a44:	58414d5f 	stmdapl	r1, {r0, r1, r2, r3, r4, r6, r8, sl, fp, lr}^
    1a48:	30205f5f 	eorcc	r5, r0, pc, asr pc
    1a4c:	46464658 			; <UNDEFINED> instruction: 0x46464658
    1a50:	46464646 	strbmi	r4, [r6], -r6, asr #12
    1a54:	46464646 	strbmi	r4, [r6], -r6, asr #12
    1a58:	46464646 	strbmi	r4, [r6], -r6, asr #12
    1a5c:	362d5046 	strtcc	r5, [sp], -r6, asr #32
    1a60:	4c4c5534 	cfstr64mi	mvdx5, [ip], {52}	; 0x34
    1a64:	58450052 	stmdapl	r5, {r1, r4, r6}^
    1a68:	50364954 	eorspl	r4, r6, r4, asr r9
    1a6c:	28203643 	stmdacs	r0!, {r0, r1, r6, r9, sl, ip, sp}
    1a70:	49545845 	ldmdbmi	r4, {r0, r2, r6, fp, ip, lr}^
    1a74:	4950475f 	ldmdbmi	r0, {r0, r1, r2, r3, r4, r6, r8, r9, sl, lr}^
    1a78:	614d5f4f 	cmpvs	sp, pc, asr #30
    1a7c:	6e697070 	mcrvs	0, 3, r7, cr9, cr0, {3}
    1a80:	29745f67 	ldmdbcs	r4!, {r0, r1, r2, r5, r6, r8, r9, sl, fp, ip, lr}^
    1a84:	5458457b 	ldrbpl	r4, [r8], #-1403	; 0xfffffa85
    1a88:	202c3649 	eorcs	r3, ip, r9, asr #12
    1a8c:	4f495047 	svcmi	0x00495047
    1a90:	47202c43 	strmi	r2, [r0, -r3, asr #24]!
    1a94:	5f4f4950 	svcpl	0x004f4950
    1a98:	5f4e4950 	svcpl	0x004e4950
    1a9c:	45202c36 	strmi	r2, [r0, #-3126]!	; 0xfffff3ca
    1aa0:	36495458 			; <UNDEFINED> instruction: 0x36495458
    1aa4:	5152495f 	cmppl	r2, pc, asr r9
    1aa8:	5845007d 	stmdapl	r5, {r0, r2, r3, r4, r5, r6}^
    1aac:	50334954 	eorspl	r4, r3, r4, asr r9
    1ab0:	28203342 	stmdacs	r0!, {r1, r6, r8, r9, ip, sp}
    1ab4:	49545845 	ldmdbmi	r4, {r0, r2, r6, fp, ip, lr}^
    1ab8:	4950475f 	ldmdbmi	r0, {r0, r1, r2, r3, r4, r6, r8, r9, sl, lr}^
    1abc:	614d5f4f 	cmpvs	sp, pc, asr #30
    1ac0:	6e697070 	mcrvs	0, 3, r7, cr9, cr0, {3}
    1ac4:	29745f67 	ldmdbcs	r4!, {r0, r1, r2, r5, r6, r8, r9, sl, fp, ip, lr}^
    1ac8:	5458457b 	ldrbpl	r4, [r8], #-1403	; 0xfffffa85
    1acc:	202c3349 	eorcs	r3, ip, r9, asr #6
    1ad0:	4f495047 	svcmi	0x00495047
    1ad4:	47202c42 	strmi	r2, [r0, -r2, asr #24]!
    1ad8:	5f4f4950 	svcpl	0x004f4950
    1adc:	5f4e4950 	svcpl	0x004e4950
    1ae0:	45202c33 	strmi	r2, [r0, #-3123]!	; 0xfffff3cd
    1ae4:	33495458 	movtcc	r5, #37976	; 0x9458
    1ae8:	5152495f 	cmppl	r2, pc, asr r9
    1aec:	5f5f007d 	svcpl	0x005f007d
    1af0:	746e695f 	strbtvc	r6, [lr], #-2399	; 0xfffff6a1
    1af4:	7274705f 	rsbsvc	r7, r4, #95	; 0x5f
    1af8:	66666964 	strbtvs	r6, [r6], -r4, ror #18
    1afc:	685f745f 	ldmdavs	pc, {r0, r1, r2, r3, r4, r6, sl, ip, sp, lr}^	; <UNPREDICTABLE>
    1b00:	535f0020 	cmppl	pc, #32
    1b04:	5f455a49 	svcpl	0x00455a49
    1b08:	45445f54 	strbmi	r5, [r4, #-3924]	; 0xfffff0ac
    1b0c:	52414c43 	subpl	r4, r1, #17152	; 0x4300
    1b10:	00204445 	eoreq	r4, r0, r5, asr #8
    1b14:	48435f5f 	stmdami	r3, {r0, r1, r2, r3, r4, r6, r8, r9, sl, fp, ip, lr}^
    1b18:	32335241 	eorscc	r5, r3, #268435460	; 0x10000004
    1b1c:	5059545f 	subspl	r5, r9, pc, asr r4
    1b20:	205f5f45 	subscs	r5, pc, r5, asr #30
    1b24:	676e6f6c 	strbvs	r6, [lr, -ip, ror #30]!
    1b28:	736e7520 	cmnvc	lr, #32, 10	; 0x8000000
    1b2c:	656e6769 	strbvs	r6, [lr, #-1897]!	; 0xfffff897
    1b30:	6e692064 	cdpvs	0, 6, cr2, cr9, cr4, {3}
    1b34:	5f5f0074 	svcpl	0x005f0074
    1b38:	5f4d5241 	svcpl	0x004d5241
    1b3c:	54414546 	strbpl	r4, [r1], #-1350	; 0xfffffaba
    1b40:	5f455255 	svcpl	0x00455255
    1b44:	36315046 	ldrtcc	r5, [r1], -r6, asr #32
    1b48:	4345565f 	movtmi	r5, #22111	; 0x565f
    1b4c:	5f524f54 	svcpl	0x00524f54
    1b50:	54495241 	strbpl	r5, [r9], #-577	; 0xfffffdbf
    1b54:	54454d48 	strbpl	r4, [r5], #-3400	; 0xfffff2b8
    1b58:	5f004349 	svcpl	0x00004349
    1b5c:	49534f50 	ldmdbmi	r3, {r4, r6, r8, r9, sl, fp, lr}^
    1b60:	5f435f58 	svcpl	0x00435f58
    1b64:	52554f53 	subspl	r4, r5, #332	; 0x14c
    1b68:	32204543 	eorcc	r4, r0, #281018368	; 0x10c00000
    1b6c:	30383030 	eorscc	r3, r8, r0, lsr r0
    1b70:	5f004c39 	svcpl	0x00004c39
    1b74:	5f43435f 	svcpl	0x0043435f
    1b78:	50505553 	subspl	r5, r0, r3, asr r5
    1b7c:	5354524f 	cmppl	r4, #-268435452	; 0xf0000004
    1b80:	4e59445f 	mrcmi	4, 2, r4, cr9, cr15, {2}
    1b84:	43494d41 	movtmi	r4, #40257	; 0x9d41
    1b88:	5252415f 	subspl	r4, r2, #-1073741801	; 0xc0000017
    1b8c:	495f5941 	ldmdbmi	pc, {r0, r6, r8, fp, ip, lr}^	; <UNPREDICTABLE>
    1b90:	2054494e 	subscs	r4, r4, lr, asr #18
    1b94:	5f5f0031 	svcpl	0x005f0031
    1b98:	544e4955 	strbpl	r4, [lr], #-2389	; 0xfffff6ab
    1b9c:	5341465f 	movtpl	r4, #5727	; 0x165f
    1ba0:	5f323354 	svcpl	0x00323354
    1ba4:	5f58414d 	svcpl	0x0058414d
    1ba8:	7830205f 	ldmdavc	r0!, {r0, r1, r2, r3, r4, r6, sp}
    1bac:	66666666 	strbtvs	r6, [r6], -r6, ror #12
    1bb0:	66666666 	strbtvs	r6, [r6], -r6, ror #12
    1bb4:	5f5f0055 	svcpl	0x005f0055
    1bb8:	5f544c46 	svcpl	0x00544c46
    1bbc:	5f58414d 	svcpl	0x0058414d
    1bc0:	5f505845 	svcpl	0x00505845
    1bc4:	3231205f 	eorscc	r2, r1, #95	; 0x5f
    1bc8:	5f5f0038 	svcpl	0x005f0038
    1bcc:	455a4953 	ldrbmi	r4, [sl, #-2387]	; 0xfffff6ad
    1bd0:	4c5f464f 	mrrcmi	6, 4, r4, pc, cr15	; <UNPREDICTABLE>
    1bd4:	5f474e4f 	svcpl	0x00474e4f
    1bd8:	0034205f 	eorseq	r2, r4, pc, asr r0
    1bdc:	28505f5f 	ldmdacs	r0, {r0, r1, r2, r3, r4, r6, r8, r9, sl, fp, ip, lr}^
    1be0:	746f7270 	strbtvc	r7, [pc], #-624	; 1be8 <_Min_Stack_Size+0x17e8>
    1be4:	2029736f 	eorcs	r7, r9, pc, ror #6
    1be8:	746f7270 	strbtvc	r7, [pc], #-624	; 1bf0 <_Min_Stack_Size+0x17f0>
    1bec:	5200736f 	andpl	r7, r0, #-1140850687	; 0xbc000001
    1bf0:	535f4343 	cmppl	pc, #201326593	; 0xc000001
    1bf4:	5f334950 	svcpl	0x00334950
    1bf8:	5f4b4c43 	svcpl	0x004b4c43
    1bfc:	29284e45 	stmdbcs	r8!, {r0, r2, r6, r9, sl, fp, lr}
    1c00:	43522820 	cmpmi	r2, #32, 16	; 0x200000
    1c04:	413e2d43 	teqmi	lr, r3, asr #26
    1c08:	45314250 	ldrmi	r4, [r1, #-592]!	; 0xfffffdb0
    1c0c:	7c20524e 	sfmvc	f5, 4, [r0], #-312	; 0xfffffec8
    1c10:	3128203d 			; <UNDEFINED> instruction: 0x3128203d
    1c14:	35313c3c 	ldrcc	r3, [r1, #-3132]!	; 0xfffff3c4
    1c18:	41002929 	tstmi	r0, r9, lsr #18
    1c1c:	45324250 	ldrmi	r4, [r2, #-592]!	; 0xfffffdb0
    1c20:	5f00524e 	svcpl	0x0000524e
    1c24:	7274735f 	rsbsvc	r7, r4, #2080374785	; 0x7c000001
    1c28:	6e6f6d66 	cdpvs	13, 6, cr6, cr15, cr6, {3}
    1c2c:	656b696c 	strbvs	r6, [fp, #-2412]!	; 0xfffff694
    1c30:	746d6628 	strbtvc	r6, [sp], #-1576	; 0xfffff9d8
    1c34:	2c677261 	sfmcs	f7, 2, [r7], #-388	; 0xfffffe7c
    1c38:	73726966 	cmnvc	r2, #1671168	; 0x198000
    1c3c:	72617674 	rsbvc	r7, r1, #116, 12	; 0x7400000
    1c40:	29677261 	stmdbcs	r7!, {r0, r5, r6, r9, ip, sp, lr}^
    1c44:	615f5f20 	cmpvs	pc, r0, lsr #30
    1c48:	69727474 	ldmdbvs	r2!, {r2, r4, r5, r6, sl, ip, sp, lr}^
    1c4c:	65747562 	ldrbvs	r7, [r4, #-1378]!	; 0xfffffa9e
    1c50:	28285f5f 	stmdacs	r8!, {r0, r1, r2, r3, r4, r6, r8, r9, sl, fp, ip, lr}
    1c54:	6f665f5f 	svcvs	0x00665f5f
    1c58:	74616d72 	strbtvc	r6, [r1], #-3442	; 0xfffff28e
    1c5c:	28205f5f 	stmdacs	r0!, {r0, r1, r2, r3, r4, r6, r8, r9, sl, fp, ip, lr}
    1c60:	74735f5f 	ldrbtvc	r5, [r3], #-3935	; 0xfffff0a1
    1c64:	6f6d6672 	svcvs	0x006d6672
    1c68:	2c5f5f6e 	mrrccs	15, 6, r5, pc, cr14	; <UNPREDICTABLE>
    1c6c:	746d6620 	strbtvc	r6, [sp], #-1568	; 0xfffff9e0
    1c70:	2c677261 	sfmcs	f7, 2, [r7], #-388	; 0xfffffe7c
    1c74:	72696620 	rsbvc	r6, r9, #32, 12	; 0x2000000
    1c78:	61767473 	cmnvs	r6, r3, ror r4
    1c7c:	67726172 			; <UNDEFINED> instruction: 0x67726172
    1c80:	00292929 	eoreq	r2, r9, r9, lsr #18
    1c84:	54524155 	ldrbpl	r4, [r2], #-341	; 0xfffffeab
    1c88:	28282034 	stmdacs	r8!, {r2, r4, r5, sp}
    1c8c:	52415355 	subpl	r5, r1, #1409286145	; 0x54000001
    1c90:	79545f54 	ldmdbvc	r4, {r2, r4, r6, r8, r9, sl, fp, ip, lr}^
    1c94:	65646570 	strbvs	r6, [r4, #-1392]!	; 0xfffffa90
    1c98:	20745f66 	rsbscs	r5, r4, r6, ror #30
    1c9c:	4155292a 	cmpmi	r5, sl, lsr #18
    1ca0:	5f345452 	svcpl	0x00345452
    1ca4:	45534142 	ldrbmi	r4, [r3, #-322]	; 0xfffffebe
    1ca8:	41550029 	cmpmi	r5, r9, lsr #32
    1cac:	5f355452 	svcpl	0x00355452
    1cb0:	45534142 	ldrbmi	r4, [r3, #-322]	; 0xfffffebe
    1cb4:	34783020 	ldrbtcc	r3, [r8], #-32	; 0xffffffe0
    1cb8:	35303030 	ldrcc	r3, [r0, #-48]!	; 0xffffffd0
    1cbc:	75303030 	ldrvc	r3, [r0, #-48]!	; 0xffffffd0
    1cc0:	45525f00 	ldrbmi	r5, [r2, #-3840]	; 0xfffff100
    1cc4:	5f544e45 	svcpl	0x00544e45
    1cc8:	525f504d 	subspl	r5, pc, #77	; 0x4d
    1ccc:	4c555345 	mrrcmi	3, 4, r5, r5, cr5	; <UNPREDICTABLE>
    1cd0:	284b5f54 	stmdacs	fp, {r2, r4, r6, r8, r9, sl, fp, ip, lr}^
    1cd4:	29727470 	ldmdbcs	r2!, {r4, r5, r6, sl, ip, sp, lr}^
    1cd8:	70282820 	eorvc	r2, r8, r0, lsr #16
    1cdc:	2d297274 	sfmcs	f7, 4, [r9, #-464]!	; 0xfffffe30
    1ce0:	706d5f3e 	rsbvc	r5, sp, lr, lsr pc
    1ce4:	725f3e2d 	subsvc	r3, pc, #720	; 0x2d0
    1ce8:	6c757365 	ldclvs	3, cr7, [r5], #-404	; 0xfffffe6c
    1cec:	296b5f74 	stmdbcs	fp!, {r2, r4, r5, r6, r8, r9, sl, fp, ip, lr}^
    1cf0:	535f5f00 	cmppl	pc, #0, 30
    1cf4:	4f455a49 	svcmi	0x00455a49
    1cf8:	4f445f46 	svcmi	0x00445f46
    1cfc:	454c4255 	strbmi	r4, [ip, #-597]	; 0xfffffdab
    1d00:	38205f5f 	stmdacc	r0!, {r0, r1, r2, r3, r4, r6, r8, r9, sl, fp, ip, lr}
    1d04:	495f5f00 	ldmdbmi	pc, {r8, r9, sl, fp, ip, lr}^	; <UNPREDICTABLE>
    1d08:	4c5f544e 	cfldrdmi	mvd5, [pc], {78}	; 0x4e
    1d0c:	54534145 	ldrbpl	r4, [r3], #-325	; 0xfffffebb
    1d10:	575f3233 	smmlarpl	pc, r3, r2, r3	; <UNPREDICTABLE>
    1d14:	48544449 	ldmdami	r4, {r0, r3, r6, sl, lr}^
    1d18:	33205f5f 			; <UNDEFINED> instruction: 0x33205f5f
    1d1c:	435f0032 	cmpmi	pc, #50	; 0x32
    1d20:	4b434f4c 	blmi	10d5a58 <_Min_Stack_Size+0x10d5658>
    1d24:	205f545f 	subscs	r5, pc, pc, asr r4	; <UNPREDICTABLE>
    1d28:	69736e75 	ldmdbvs	r3!, {r0, r2, r4, r5, r6, r9, sl, fp, sp, lr}^
    1d2c:	64656e67 	strbtvs	r6, [r5], #-3687	; 0xfffff199
    1d30:	6e6f6c20 	cdpvs	12, 6, cr6, cr15, cr0, {1}
    1d34:	545f0067 	ldrbpl	r0, [pc], #-103	; 1d3c <_Min_Stack_Size+0x193c>
    1d38:	5f454d49 	svcpl	0x00454d49
    1d3c:	5f205f54 	svcpl	0x00205f54
    1d40:	746e695f 	strbtvc	r6, [lr], #-2399	; 0xfffff6a1
    1d44:	61656c5f 	cmnvs	r5, pc, asr ip
    1d48:	34367473 	ldrtcc	r7, [r6], #-1139	; 0xfffffb8d
    1d4c:	4500745f 	strmi	r7, [r0, #-1119]	; 0xfffffba1
    1d50:	31495458 	cmpcc	r9, r8, asr r4
    1d54:	31445030 	cmpcc	r4, r0, lsr r0
    1d58:	45282030 	strmi	r2, [r8, #-48]!	; 0xffffffd0
    1d5c:	5f495458 	svcpl	0x00495458
    1d60:	4f495047 	svcmi	0x00495047
    1d64:	70614d5f 	rsbvc	r4, r1, pc, asr sp
    1d68:	676e6970 			; <UNDEFINED> instruction: 0x676e6970
    1d6c:	7b29745f 	blvc	a5eef0 <_Min_Stack_Size+0xa5eaf0>
    1d70:	49545845 	ldmdbmi	r4, {r0, r2, r6, fp, ip, lr}^
    1d74:	202c3031 	eorcs	r3, ip, r1, lsr r0
    1d78:	4f495047 	svcmi	0x00495047
    1d7c:	47202c44 	strmi	r2, [r0, -r4, asr #24]!
    1d80:	5f4f4950 	svcpl	0x004f4950
    1d84:	5f4e4950 	svcpl	0x004e4950
    1d88:	202c3031 	eorcs	r3, ip, r1, lsr r0
    1d8c:	49545845 	ldmdbmi	r4, {r0, r2, r6, fp, ip, lr}^
    1d90:	495f3031 	ldmdbmi	pc, {r0, r4, r5, ip, sp}^	; <UNPREDICTABLE>
    1d94:	007d5152 	rsbseq	r5, sp, r2, asr r1
    1d98:	41465f5f 	cmpmi	r6, pc, asr pc
    1d9c:	36315453 			; <UNDEFINED> instruction: 0x36315453
    1da0:	58450020 	stmdapl	r5, {r5}^
    1da4:	50334954 	eorspl	r4, r3, r4, asr r9
    1da8:	28203341 	stmdacs	r0!, {r0, r6, r8, r9, ip, sp}
    1dac:	49545845 	ldmdbmi	r4, {r0, r2, r6, fp, ip, lr}^
    1db0:	4950475f 	ldmdbmi	r0, {r0, r1, r2, r3, r4, r6, r8, r9, sl, lr}^
    1db4:	614d5f4f 	cmpvs	sp, pc, asr #30
    1db8:	6e697070 	mcrvs	0, 3, r7, cr9, cr0, {3}
    1dbc:	29745f67 	ldmdbcs	r4!, {r0, r1, r2, r5, r6, r8, r9, sl, fp, ip, lr}^
    1dc0:	5458457b 	ldrbpl	r4, [r8], #-1403	; 0xfffffa85
    1dc4:	202c3349 	eorcs	r3, ip, r9, asr #6
    1dc8:	4f495047 	svcmi	0x00495047
    1dcc:	47202c41 	strmi	r2, [r0, -r1, asr #24]!
    1dd0:	5f4f4950 	svcpl	0x004f4950
    1dd4:	5f4e4950 	svcpl	0x004e4950
    1dd8:	45202c33 	strmi	r2, [r0, #-3123]!	; 0xfffff3cd
    1ddc:	33495458 	movtcc	r5, #37976	; 0x9458
    1de0:	5152495f 	cmppl	r2, pc, asr r9
    1de4:	525f007d 	subspl	r0, pc, #125	; 0x7d
    1de8:	544e4545 	strbpl	r4, [lr], #-1349	; 0xfffffabb
    1dec:	4e41525f 	mcrmi	2, 2, r5, cr1, cr15, {2}
    1df0:	5f383444 	svcpl	0x00383444
    1df4:	44454553 	strbmi	r4, [r5], #-1363	; 0xfffffaad
    1df8:	72747028 	rsbsvc	r7, r4, #40	; 0x28
    1dfc:	28282029 	stmdacs	r8!, {r0, r3, r5, sp}
    1e00:	29727470 	ldmdbcs	r2!, {r4, r5, r6, sl, ip, sp, lr}^
    1e04:	725f3e2d 	subsvc	r3, pc, #720	; 0x2d0
    1e08:	3e2d3834 	mcrcc	8, 1, r3, cr13, cr4, {1}
    1e0c:	6565735f 	strbvs	r7, [r5, #-863]!	; 0xfffffca1
    1e10:	5f002964 	svcpl	0x00002964
    1e14:	52414c5f 	subpl	r4, r1, #24320	; 0x5f00
    1e18:	49464547 	stmdbmi	r6, {r0, r1, r2, r6, r8, sl, lr}^
    1e1c:	565f454c 	ldrbpl	r4, [pc], -ip, asr #10
    1e20:	42495349 	submi	r5, r9, #603979777	; 0x24000001
    1e24:	3020454c 	eorcc	r4, r0, ip, asr #10
    1e28:	695f5f00 	ldmdbvs	pc, {r8, r9, sl, fp, ip, lr}^	; <UNPREDICTABLE>
    1e2c:	665f746e 	ldrbvs	r7, [pc], -lr, ror #8
    1e30:	38747361 	ldmdacc	r4!, {r0, r5, r6, r8, r9, ip, sp, lr}^
    1e34:	645f745f 	ldrbvs	r7, [pc], #-1119	; 1e3c <_Min_Stack_Size+0x1a3c>
    1e38:	6e696665 	cdpvs	6, 6, cr6, cr9, cr5, {3}
    1e3c:	31206465 			; <UNDEFINED> instruction: 0x31206465
    1e40:	4e5f5f00 	cdpmi	15, 5, cr5, cr15, cr0, {0}
    1e44:	494c5745 	stmdbmi	ip, {r0, r2, r6, r8, r9, sl, ip, lr}^
    1e48:	205f5f42 	subscs	r5, pc, r2, asr #30
    1e4c:	58450034 	stmdapl	r5, {r2, r4, r5}^
    1e50:	535f5449 	cmppl	pc, #1224736768	; 0x49000000
    1e54:	45434355 	strbmi	r4, [r3, #-853]	; 0xfffffcab
    1e58:	30205353 	eorcc	r5, r0, r3, asr r3
    1e5c:	54584500 	ldrbpl	r4, [r8], #-1280	; 0xfffffb00
    1e60:	495f3649 	ldmdbmi	pc, {r0, r3, r6, r9, sl, ip, sp}^	; <UNPREDICTABLE>
    1e64:	32205152 	eorcc	r5, r0, #-2147483628	; 0x80000014
    1e68:	5f5f0033 	svcpl	0x005f0033
    1e6c:	5f415455 	svcpl	0x00415455
    1e70:	54494246 	strbpl	r4, [r9], #-582	; 0xfffffdba
    1e74:	36205f5f 	qsaxcc	r5, r0, pc	; <UNPREDICTABLE>
    1e78:	69540034 	ldmdbvs	r4, {r2, r4, r5}^
    1e7c:	2820316d 	stmdacs	r0!, {r0, r2, r3, r5, r6, r8, ip, sp}
    1e80:	4d495428 	cfstrdmi	mvd5, [r9, #-160]	; 0xffffff60
    1e84:	5f315245 	svcpl	0x00315245
    1e88:	79545f38 	ldmdbvc	r4, {r3, r4, r5, r8, r9, sl, fp, ip, lr}^
    1e8c:	65646570 	strbvs	r6, [r4, #-1392]!	; 0xfffffa90
    1e90:	2a745f66 	bcs	1d19c30 <_Min_Stack_Size+0x1d19830>
    1e94:	4d495429 	cfstrdmi	mvd5, [r9, #-164]	; 0xffffff5c
    1e98:	41425f31 	cmpmi	r2, r1, lsr pc
    1e9c:	00294553 	eoreq	r4, r9, r3, asr r5
    1ea0:	4c465f5f 	mcrrmi	15, 5, r5, r6, cr15
    1ea4:	45445f54 	strbmi	r5, [r4, #-3924]	; 0xfffff0ac
    1ea8:	414d4943 	cmpmi	sp, r3, asr #18
    1eac:	49445f4c 	stmdbmi	r4, {r2, r3, r6, r8, r9, sl, fp, ip, lr}^
    1eb0:	205f5f47 	subscs	r5, pc, r7, asr #30
    1eb4:	5f5f0039 	svcpl	0x005f0039
    1eb8:	5f544e49 	svcpl	0x00544e49
    1ebc:	5341454c 	movtpl	r4, #5452	; 0x154c
    1ec0:	5f323354 	svcpl	0x00323354
    1ec4:	5f58414d 	svcpl	0x0058414d
    1ec8:	7830205f 	ldmdavc	r0!, {r0, r1, r2, r3, r4, r6, sp}
    1ecc:	66666637 			; <UNDEFINED> instruction: 0x66666637
    1ed0:	66666666 	strbtvs	r6, [r6], -r6, ror #12
    1ed4:	4c5f004c 	mrrcmi	0, 4, r0, pc, cr12	; <UNPREDICTABLE>
    1ed8:	5f4b434f 	svcpl	0x004b434f
    1edc:	55434552 	strbpl	r4, [r3, #-1362]	; 0xfffffaae
    1ee0:	56495352 			; <UNDEFINED> instruction: 0x56495352
    1ee4:	20545f45 	subscs	r5, r4, r5, asr #30
    1ee8:	434f4c5f 	movtmi	r4, #64607	; 0xfc5f
    1eec:	00545f4b 	subseq	r5, r4, fp, asr #30
    1ef0:	4d544e49 	ldclmi	14, cr4, [r4, #-292]	; 0xfffffedc
    1ef4:	4d5f5841 	ldclmi	8, cr5, [pc, #-260]	; 1df8 <_Min_Stack_Size+0x19f8>
    1ef8:	28204e49 	stmdacs	r0!, {r0, r3, r6, r9, sl, fp, lr}
    1efc:	544e492d 	strbpl	r4, [lr], #-2349	; 0xfffff6d3
    1f00:	5f58414d 	svcpl	0x0058414d
    1f04:	2058414d 	subscs	r4, r8, sp, asr #2
    1f08:	2931202d 	ldmdbcs	r1!, {r0, r2, r3, r5, sp}
    1f0c:	705f5f00 	subsvc	r5, pc, r0, lsl #30
    1f10:	745f7274 	ldrbvc	r7, [pc], #-628	; 1f18 <_Min_Stack_Size+0x1b18>
    1f14:	696f7620 	stmdbvs	pc!, {r5, r9, sl, ip, sp, lr}^	; <UNPREDICTABLE>
    1f18:	002a2064 	eoreq	r2, sl, r4, rrx
    1f1c:	5641485f 			; <UNDEFINED> instruction: 0x5641485f
    1f20:	4f4c5f45 	svcmi	0x004c5f45
    1f24:	445f474e 	ldrbmi	r4, [pc], #-1870	; 1f2c <_Min_Stack_Size+0x1b2c>
    1f28:	4c42554f 	cfstr64mi	mvdx5, [r2], {79}	; 0x4f
    1f2c:	00312045 	eorseq	r2, r1, r5, asr #32
    1f30:	4f495047 	svcmi	0x00495047
    1f34:	41425f42 	cmpmi	r2, r2, asr #30
    1f38:	30204553 	eorcc	r4, r0, r3, asr r5
    1f3c:	30303478 	eorscc	r3, r0, r8, ror r4
    1f40:	30433031 	subcc	r3, r3, r1, lsr r0
    1f44:	57007530 	smladxpl	r0, r0, r5, r7
    1f48:	52414843 	subpl	r4, r1, #4390912	; 0x430000
    1f4c:	4e494d5f 	mcrmi	13, 2, r4, cr9, cr15, {2}
    1f50:	5f5f2820 	svcpl	0x005f2820
    1f54:	41484357 	cmpmi	r8, r7, asr r3
    1f58:	494d5f52 	stmdbmi	sp, {r1, r4, r6, r8, r9, sl, fp, ip, lr}^
    1f5c:	295f5f4e 	ldmdbcs	pc, {r1, r2, r3, r6, r8, r9, sl, fp, ip, lr}^	; <UNPREDICTABLE>
    1f60:	465f5f00 	ldrbmi	r5, [pc], -r0, lsl #30
    1f64:	54434152 	strbpl	r4, [r3], #-338	; 0xfffffeae
    1f68:	4942465f 	stmdbmi	r2, {r0, r1, r2, r3, r4, r6, r9, sl, lr}^
    1f6c:	205f5f54 	subscs	r5, pc, r4, asr pc	; <UNPREDICTABLE>
    1f70:	5f003531 	svcpl	0x00003531
    1f74:	544c465f 	strbpl	r4, [ip], #-1631	; 0xfffff9a1
    1f78:	5341485f 	movtpl	r4, #6239	; 0x185f
    1f7c:	4955515f 	ldmdbmi	r5, {r0, r1, r2, r3, r4, r6, r8, ip, lr}^
    1f80:	4e5f5445 	cdpmi	4, 5, cr5, cr15, cr5, {2}
    1f84:	5f5f4e41 	svcpl	0x005f4e41
    1f88:	45003120 	strmi	r3, [r0, #-288]	; 0xfffffee0
    1f8c:	34495458 	strbcc	r5, [r9], #-1112	; 0xfffffba8
    1f90:	20344450 	eorscs	r4, r4, r0, asr r4
    1f94:	54584528 	ldrbpl	r4, [r8], #-1320	; 0xfffffad8
    1f98:	50475f49 	subpl	r5, r7, r9, asr #30
    1f9c:	4d5f4f49 	ldclmi	15, cr4, [pc, #-292]	; 1e80 <_Min_Stack_Size+0x1a80>
    1fa0:	69707061 	ldmdbvs	r0!, {r0, r5, r6, ip, sp, lr}^
    1fa4:	745f676e 	ldrbvc	r6, [pc], #-1902	; 1fac <_Min_Stack_Size+0x1bac>
    1fa8:	58457b29 	stmdapl	r5, {r0, r3, r5, r8, r9, fp, ip, sp, lr}^
    1fac:	2c344954 			; <UNDEFINED> instruction: 0x2c344954
    1fb0:	49504720 	ldmdbmi	r0, {r5, r8, r9, sl, lr}^
    1fb4:	202c444f 	eorcs	r4, ip, pc, asr #8
    1fb8:	4f495047 	svcmi	0x00495047
    1fbc:	4e49505f 	mcrmi	0, 2, r5, cr9, cr15, {2}
    1fc0:	202c345f 	eorcs	r3, ip, pc, asr r4
    1fc4:	49545845 	ldmdbmi	r4, {r0, r2, r6, fp, ip, lr}^
    1fc8:	52495f34 	subpl	r5, r9, #52, 30	; 0xd0
    1fcc:	5f007d51 	svcpl	0x00007d51
    1fd0:	554e475f 	strbpl	r4, [lr, #-1887]	; 0xfffff8a1
    1fd4:	41505f43 	cmpmi	r0, r3, asr #30
    1fd8:	4c484354 	mcrrmi	3, 5, r4, r8, cr4
    1fdc:	4c455645 	mcrrmi	6, 4, r5, r5, cr5
    1fe0:	31205f5f 			; <UNDEFINED> instruction: 0x31205f5f
    1fe4:	475f5f00 	ldrbmi	r5, [pc, -r0, lsl #30]
    1fe8:	415f4343 	cmpmi	pc, r3, asr #6
    1fec:	494d4f54 	stmdbmi	sp, {r2, r4, r6, r8, r9, sl, fp, lr}^
    1ff0:	48435f43 	stmdami	r3, {r0, r1, r6, r8, r9, sl, fp, ip, lr}^
    1ff4:	32335241 	eorscc	r5, r3, #268435460	; 0x10000004
    1ff8:	4c5f545f 	cfldrdmi	mvd5, [pc], {95}	; 0x5f
    1ffc:	5f4b434f 	svcpl	0x004b434f
    2000:	45455246 	strbmi	r5, [r5, #-582]	; 0xfffffdba
    2004:	5f003220 	svcpl	0x00003220
    2008:	6c6c615f 	stfvse	f6, [ip], #-380	; 0xfffffe84
    200c:	615f636f 	cmpvs	pc, pc, ror #6
    2010:	6e67696c 	vnmulvs.f16	s13, s14, s25	; <UNPREDICTABLE>
    2014:	20297828 	eorcs	r7, r9, r8, lsr #16
    2018:	74615f5f 	strbtvc	r5, [r1], #-3935	; 0xfffff0a1
    201c:	62697274 	rsbvs	r7, r9, #116, 4	; 0x40000007
    2020:	5f657475 	svcpl	0x00657475
    2024:	5f28285f 	svcpl	0x0028285f
    2028:	6c6c615f 	stfvse	f6, [ip], #-380	; 0xfffffe84
    202c:	615f636f 	cmpvs	pc, pc, ror #6
    2030:	6e67696c 	vnmulvs.f16	s13, s14, s25	; <UNPREDICTABLE>
    2034:	78285f5f 	stmdavc	r8!, {r0, r1, r2, r3, r4, r6, r8, r9, sl, fp, ip, lr}
    2038:	00292929 	eoreq	r2, r9, r9, lsr #18
    203c:	4e41525f 	mcrmi	2, 2, r5, cr1, cr15, {2}
    2040:	5f383444 	svcpl	0x00383444
    2044:	44454553 	strbmi	r4, [r5], #-1363	; 0xfffffaad
    2048:	2820325f 	stmdacs	r0!, {r0, r1, r2, r3, r4, r6, r9, ip, sp}
    204c:	32317830 	eorscc	r7, r1, #48, 16	; 0x300000
    2050:	00293433 	eoreq	r3, r9, r3, lsr r4
    2054:	52415f5f 	subpl	r5, r1, #380	; 0x17c
    2058:	52415f4d 	subpl	r5, r1, #308	; 0x134
    205c:	505f4843 	subspl	r4, pc, r3, asr #16
    2060:	49464f52 	stmdbmi	r6, {r1, r4, r6, r8, r9, sl, fp, lr}^
    2064:	3720454c 	strcc	r4, [r0, -ip, asr #10]!
    2068:	5f5f0037 	svcpl	0x005f0037
    206c:	4343414c 	movtmi	r4, #12620	; 0x314c
    2070:	465f4d55 			; <UNDEFINED> instruction: 0x465f4d55
    2074:	5f544942 	svcpl	0x00544942
    2078:	3133205f 	teqcc	r3, pc, asr r0
    207c:	705f5f00 	subsvc	r5, pc, r0, lsl #30
    2080:	69646572 	stmdbvs	r4!, {r1, r4, r5, r6, r8, sl, sp, lr}^
    2084:	745f7463 	ldrbvc	r7, [pc], #-1123	; 208c <_Min_Stack_Size+0x1c8c>
    2088:	28657572 	stmdacs	r5!, {r1, r4, r5, r6, r8, sl, ip, sp, lr}^
    208c:	29707865 	ldmdbcs	r0!, {r0, r2, r5, r6, fp, ip, sp, lr}^
    2090:	625f5f20 	subsvs	r5, pc, #32, 30	; 0x80
    2094:	746c6975 	strbtvc	r6, [ip], #-2421	; 0xfffff68b
    2098:	655f6e69 	ldrbvs	r6, [pc, #-3689]	; 1237 <_Min_Stack_Size+0xe37>
    209c:	63657078 	cmnvs	r5, #120	; 0x78
    20a0:	65282874 	strvs	r2, [r8, #-2164]!	; 0xfffff78c
    20a4:	2c297078 	stccs	0, cr7, [r9], #-480	; 0xfffffe20
    20a8:	00293120 	eoreq	r3, r9, r0, lsr #2
    20ac:	49545845 	ldmdbmi	r4, {r0, r2, r6, fp, ip, lr}^
    20b0:	38445038 	stmdacc	r4, {r3, r4, r5, ip, lr}^
    20b4:	58452820 	stmdapl	r5, {r5, fp, sp}^
    20b8:	475f4954 			; <UNDEFINED> instruction: 0x475f4954
    20bc:	5f4f4950 	svcpl	0x004f4950
    20c0:	7070614d 	rsbsvc	r6, r0, sp, asr #2
    20c4:	5f676e69 	svcpl	0x00676e69
    20c8:	457b2974 	ldrbmi	r2, [fp, #-2420]!	; 0xfffff68c
    20cc:	38495458 	stmdacc	r9, {r3, r4, r6, sl, ip, lr}^
    20d0:	5047202c 	subpl	r2, r7, ip, lsr #32
    20d4:	2c444f49 	mcrrcs	15, 4, r4, r4, cr9
    20d8:	49504720 	ldmdbmi	r0, {r5, r8, r9, sl, lr}^
    20dc:	49505f4f 	ldmdbmi	r0, {r0, r1, r2, r3, r6, r8, r9, sl, fp, ip, lr}^
    20e0:	2c385f4e 	ldccs	15, cr5, [r8], #-312	; 0xfffffec8
    20e4:	54584520 	ldrbpl	r4, [r8], #-1312	; 0xfffffae0
    20e8:	495f3849 	ldmdbmi	pc, {r0, r3, r6, fp, ip, sp}^	; <UNPREDICTABLE>
    20ec:	007d5152 	rsbseq	r5, sp, r2, asr r1
    20f0:	6f6c5f5f 	svcvs	0x006c5f5f
    20f4:	725f6b63 	subsvc	r6, pc, #101376	; 0x18c00
    20f8:	61656c65 	cmnvs	r5, r5, ror #24
    20fc:	725f6573 	subsvc	r6, pc, #482344960	; 0x1cc00000
    2100:	72756365 	rsbsvc	r6, r5, #-1811939327	; 0x94000001
    2104:	65766973 	ldrbvs	r6, [r6, #-2419]!	; 0xfffff68d
    2108:	636f6c28 	cmnvs	pc, #40, 24	; 0x2800
    210c:	5f20296b 	svcpl	0x0020296b
    2110:	7465725f 	strbtvc	r7, [r5], #-607	; 0xfffffda1
    2114:	65677261 	strbvs	r7, [r7, #-609]!	; 0xfffffd9f
    2118:	6f6c5f74 	svcvs	0x006c5f74
    211c:	725f6b63 	subsvc	r6, pc, #101376	; 0x18c00
    2120:	61656c65 	cmnvs	r5, r5, ror #24
    2124:	725f6573 	subsvc	r6, pc, #482344960	; 0x1cc00000
    2128:	72756365 	rsbsvc	r6, r5, #-1811939327	; 0x94000001
    212c:	65766973 	ldrbvs	r6, [r6, #-2419]!	; 0xfffff68d
    2130:	636f6c28 	cmnvs	pc, #40, 24	; 0x2800
    2134:	5f00296b 	svcpl	0x0000296b
    2138:	544c465f 	strbpl	r4, [ip], #-1631	; 0xfffff9a1
    213c:	4749445f 	smlsldmi	r4, r9, pc, r4	; <UNPREDICTABLE>
    2140:	36205f5f 	qsaxcc	r5, r0, pc	; <UNPREDICTABLE>
    2144:	54584500 	ldrbpl	r4, [r8], #-1280	; 0xfffffb00
    2148:	43503749 	cmpmi	r0, #19136512	; 0x1240000
    214c:	45282037 	strmi	r2, [r8, #-55]!	; 0xffffffc9
    2150:	5f495458 	svcpl	0x00495458
    2154:	4f495047 	svcmi	0x00495047
    2158:	70614d5f 	rsbvc	r4, r1, pc, asr sp
    215c:	676e6970 			; <UNDEFINED> instruction: 0x676e6970
    2160:	7b29745f 	blvc	a5f2e4 <_Min_Stack_Size+0xa5eee4>
    2164:	49545845 	ldmdbmi	r4, {r0, r2, r6, fp, ip, lr}^
    2168:	47202c37 			; <UNDEFINED> instruction: 0x47202c37
    216c:	434f4950 	movtmi	r4, #63824	; 0xf950
    2170:	5047202c 	subpl	r2, r7, ip, lsr #32
    2174:	505f4f49 	subspl	r4, pc, r9, asr #30
    2178:	375f4e49 	ldrbcc	r4, [pc, -r9, asr #28]
    217c:	5845202c 	stmdapl	r5, {r2, r3, r5, sp}^
    2180:	5f374954 	svcpl	0x00374954
    2184:	7d515249 	lfmvc	f5, 2, [r1, #-292]	; 0xfffffedc
    2188:	495f5f00 	ldmdbmi	pc, {r8, r9, sl, fp, ip, lr}^	; <UNPREDICTABLE>
    218c:	465f544e 	ldrbmi	r5, [pc], -lr, asr #8
    2190:	33545341 	cmpcc	r4, #67108865	; 0x4000001
    2194:	49575f32 	ldmdbmi	r7, {r1, r4, r5, r8, r9, sl, fp, ip, lr}^
    2198:	5f485444 	svcpl	0x00485444
    219c:	3233205f 	eorscc	r2, r3, #95	; 0x5f
    21a0:	615f5f00 	cmpvs	pc, r0, lsl #30
    21a4:	69727474 	ldmdbvs	r2!, {r2, r4, r5, r6, sl, ip, sp, lr}^
    21a8:	65747562 	ldrbvs	r7, [r4, #-1378]!	; 0xfffffa9e
    21ac:	726f665f 	rsbvc	r6, pc, #99614720	; 0x5f00000
    21b0:	5f74616d 	svcpl	0x0074616d
    21b4:	66727473 			; <UNDEFINED> instruction: 0x66727473
    21b8:	5f6e6f6d 	svcpl	0x006e6f6d
    21bc:	2c61285f 	stclcs	8, cr2, [r1], #-380	; 0xfffffe84
    21c0:	00202962 	eoreq	r2, r0, r2, ror #18
    21c4:	4453425f 	ldrbmi	r4, [r3], #-607	; 0xfffffda1
    21c8:	5a49535f 	bpl	1256f4c <_Min_Stack_Size+0x1256b4c>
    21cc:	5f545f45 	svcpl	0x00545f45
    21d0:	49464544 	stmdbmi	r6, {r2, r6, r8, sl, lr}^
    21d4:	5f44454e 	svcpl	0x0044454e
    21d8:	5f5f0020 	svcpl	0x005f0020
    21dc:	544e4955 	strbpl	r4, [lr], #-2389	; 0xfffff6ab
    21e0:	5341465f 	movtpl	r4, #5727	; 0x165f
    21e4:	5f323354 	svcpl	0x00323354
    21e8:	45505954 	ldrbmi	r5, [r0, #-2388]	; 0xfffff6ac
    21ec:	75205f5f 	strvc	r5, [r0, #-3935]!	; 0xfffff0a1
    21f0:	6769736e 	strbvs	r7, [r9, -lr, ror #6]!
    21f4:	2064656e 	rsbcs	r6, r4, lr, ror #10
    21f8:	00746e69 	rsbseq	r6, r4, r9, ror #28
    21fc:	695f5f5f 	ldmdbvs	pc, {r0, r1, r2, r3, r4, r6, r8, r9, sl, fp, ip, lr}^	; <UNPREDICTABLE>
    2200:	735f746e 	cmpvc	pc, #1845493760	; 0x6e000000
    2204:	5f657a69 	svcpl	0x00657a69
    2208:	20685f74 	rsbcs	r5, r8, r4, ror pc
    220c:	535f5f00 	cmppl	pc, #0, 30
    2210:	5f434454 	svcpl	0x00434454
    2214:	5f465455 	svcpl	0x00465455
    2218:	5f5f3233 	svcpl	0x005f3233
    221c:	5f003120 	svcpl	0x00003120
    2220:	5a49535f 	bpl	1256fa4 <_Min_Stack_Size+0x1256ba4>
    2224:	5f464f45 	svcpl	0x00464f45
    2228:	414f4c46 	cmpmi	pc, r6, asr #24
    222c:	205f5f54 	subscs	r5, pc, r4, asr pc	; <UNPREDICTABLE>
    2230:	5f5f0034 	svcpl	0x005f0034
    2234:	33544c46 	cmpcc	r4, #17920	; 0x4600
    2238:	445f5832 	ldrbmi	r5, [pc], #-2098	; 2240 <_Min_Stack_Size+0x1e40>
    223c:	524f4e45 	subpl	r4, pc, #1104	; 0x450
    2240:	494d5f4d 	stmdbmi	sp, {r0, r2, r3, r6, r8, r9, sl, fp, ip, lr}^
    2244:	205f5f4e 	subscs	r5, pc, lr, asr #30
    2248:	34392e34 	ldrtcc	r2, [r9], #-3636	; 0xfffff1cc
    224c:	36353630 			; <UNDEFINED> instruction: 0x36353630
    2250:	34383534 	ldrtcc	r3, [r8], #-1332	; 0xfffffacc
    2254:	36343231 			; <UNDEFINED> instruction: 0x36343231
    2258:	2d653435 	cfstrdcs	mvd3, [r5, #-212]!	; 0xffffff2c
    225c:	46343233 			; <UNDEFINED> instruction: 0x46343233
    2260:	00783233 	rsbseq	r3, r8, r3, lsr r2
    2264:	4e475f5f 	mcrmi	15, 2, r5, cr7, cr15, {2}
    2268:	494c4355 	stmdbmi	ip, {r0, r2, r4, r6, r8, r9, lr}^
    226c:	4d5f454b 	cfldr64mi	mvdx4, [pc, #-300]	; 2148 <_Min_Stack_Size+0x1d48>
    2270:	5f485441 	svcpl	0x00485441
    2274:	4c495542 	cfstr64mi	mvdx5, [r9], {66}	; 0x42
    2278:	5f4e4954 	svcpl	0x004e4954
    227c:	4f4c4552 	svcmi	0x004c4552
    2280:	00205350 	eoreq	r5, r0, r0, asr r3
    2284:	4c465f5f 	mcrrmi	15, 5, r5, r6, cr15
    2288:	414d5f54 	cmpmi	sp, r4, asr pc
    228c:	30315f58 	eorscc	r5, r1, r8, asr pc
    2290:	5058455f 	subspl	r4, r8, pc, asr r5
    2294:	33205f5f 			; <UNDEFINED> instruction: 0x33205f5f
    2298:	5f5f0038 	svcpl	0x005f0038
    229c:	28544d50 	ldmdacs	r4, {r4, r6, r8, sl, fp, lr}^
    22a0:	73677261 	cmnvc	r7, #268435462	; 0x10000006
    22a4:	72612029 	rsbvc	r2, r1, #41	; 0x29
    22a8:	5f007367 	svcpl	0x00007367
    22ac:	4152465f 	cmpmi	r2, pc, asr r6
    22b0:	4d5f5443 	cfldrdmi	mvd5, [pc, #-268]	; 21ac <_Min_Stack_Size+0x1dac>
    22b4:	5f5f5841 	svcpl	0x005f5841
    22b8:	37583020 	ldrbcc	r3, [r8, -r0, lsr #32]
    22bc:	50464646 	subpl	r4, r6, r6, asr #12
    22c0:	5235312d 	eorspl	r3, r5, #1073741835	; 0x4000000b
    22c4:	49564e00 	ldmdbmi	r6, {r9, sl, fp, lr}^
    22c8:	58455f43 	stmdapl	r5, {r0, r1, r6, r8, r9, sl, fp, ip, lr}^
    22cc:	5f314954 	svcpl	0x00314954
    22d0:	5f515249 	svcpl	0x00515249
    22d4:	62616e45 	rsbvs	r6, r1, #1104	; 0x450
    22d8:	2820656c 	stmdacs	r0!, {r2, r3, r5, r6, r8, sl, sp, lr}
    22dc:	4349564e 	movtmi	r5, #38478	; 0x964e
    22e0:	4553495f 	ldrbmi	r4, [r3, #-2399]	; 0xfffff6a1
    22e4:	7c203052 	stcvc	0, cr3, [r0], #-328	; 0xfffffeb8
    22e8:	3c31203d 	ldccc	0, cr2, [r1], #-244	; 0xffffff0c
    22ec:	0029373c 	eoreq	r3, r9, ip, lsr r7
    22f0:	4e495f5f 	mcrmi	15, 2, r5, cr9, cr15, {2}
    22f4:	41465f54 	cmpmi	r6, r4, asr pc
    22f8:	32335453 	eorscc	r5, r3, #1392508928	; 0x53000000
    22fc:	58414d5f 	stmdapl	r1, {r0, r1, r2, r3, r4, r6, r8, sl, fp, lr}^
    2300:	30205f5f 	eorcc	r5, r0, pc, asr pc
    2304:	66663778 			; <UNDEFINED> instruction: 0x66663778
    2308:	66666666 	strbtvs	r6, [r6], -r6, ror #12
    230c:	5f5f0066 	svcpl	0x005f0066
    2310:	4d4f5441 	cfstrdmi	mvd5, [pc, #-260]	; 2214 <_Min_Stack_Size+0x1e14>
    2314:	535f4349 	cmppl	pc, #603979777	; 0x24000001
    2318:	435f5145 	cmpmi	pc, #1073741841	; 0x40000011
    231c:	35205453 	strcc	r5, [r0, #-1107]!	; 0xfffffbad
    2320:	45525f00 	ldrbmi	r5, [r2, #-3840]	; 0xfffff100
    2324:	575f4441 	ldrbpl	r4, [pc, -r1, asr #8]
    2328:	45544952 	ldrbmi	r4, [r4, #-2386]	; 0xfffff6ae
    232c:	5445525f 	strbpl	r5, [r5], #-607	; 0xfffffda1
    2330:	5f4e5255 	svcpl	0x004e5255
    2334:	45505954 	ldrbmi	r5, [r0, #-2388]	; 0xfffff6ac
    2338:	746e6920 	strbtvc	r6, [lr], #-2336	; 0xfffff6e0
    233c:	54584500 	ldrbpl	r4, [r8], #-1280	; 0xfffffb00
    2340:	50343149 	eorspl	r3, r4, r9, asr #2
    2344:	20343143 	eorscs	r3, r4, r3, asr #2
    2348:	54584528 	ldrbpl	r4, [r8], #-1320	; 0xfffffad8
    234c:	50475f49 	subpl	r5, r7, r9, asr #30
    2350:	4d5f4f49 	ldclmi	15, cr4, [pc, #-292]	; 2234 <_Min_Stack_Size+0x1e34>
    2354:	69707061 	ldmdbvs	r0!, {r0, r5, r6, ip, sp, lr}^
    2358:	745f676e 	ldrbvc	r6, [pc], #-1902	; 2360 <_Min_Stack_Size+0x1f60>
    235c:	58457b29 	stmdapl	r5, {r0, r3, r5, r8, r9, fp, ip, sp, lr}^
    2360:	34314954 	ldrtcc	r4, [r1], #-2388	; 0xfffff6ac
    2364:	5047202c 	subpl	r2, r7, ip, lsr #32
    2368:	2c434f49 	mcrrcs	15, 4, r4, r3, cr9
    236c:	49504720 	ldmdbmi	r0, {r5, r8, r9, sl, lr}^
    2370:	49505f4f 	ldmdbmi	r0, {r0, r1, r2, r3, r6, r8, r9, sl, fp, ip, lr}^
    2374:	34315f4e 	ldrtcc	r5, [r1], #-3918	; 0xfffff0b2
    2378:	5845202c 	stmdapl	r5, {r2, r3, r5, sp}^
    237c:	34314954 	ldrtcc	r4, [r1], #-2388	; 0xfffff6ac
    2380:	5152495f 	cmppl	r2, pc, asr r9
    2384:	5f5f007d 	svcpl	0x005f007d
    2388:	6465656e 	strbtvs	r6, [r5], #-1390	; 0xfffffa92
    238c:	6e69775f 	mcrvs	7, 3, r7, cr9, cr15, {2}
    2390:	00745f74 	rsbseq	r5, r4, r4, ror pc
    2394:	79735f5f 	ldmdbvc	r3!, {r0, r1, r2, r3, r4, r6, r8, r9, sl, fp, ip, lr}^
    2398:	65645f6d 	strbvs	r5, [r4, #-3949]!	; 0xfffff093
    239c:	6c756166 	ldfvse	f6, [r5], #-408	; 0xfffffe68
    23a0:	79732874 	ldmdbvc	r3!, {r2, r4, r5, r6, fp, sp}^
    23a4:	6d692c6d 	stclvs	12, cr2, [r9, #-436]!	; 0xfffffe4c
    23a8:	762c6c70 			; <UNDEFINED> instruction: 0x762c6c70
    23ac:	64697265 	strbtvs	r7, [r9], #-613	; 0xfffffd9b
    23b0:	5f5f2029 	svcpl	0x005f2029
    23b4:	5f6d7361 	svcpl	0x006d7361
    23b8:	2e22285f 	mcrcs	8, 1, r2, cr2, cr15, {2}
    23bc:	766d7973 			; <UNDEFINED> instruction: 0x766d7973
    23c0:	22207265 	eorcs	r7, r0, #1342177286	; 0x50000006
    23c4:	6d692320 	stclvs	3, cr2, [r9, #-128]!	; 0xffffff80
    23c8:	22206c70 	eorcs	r6, r0, #112, 24	; 0x7000
    23cc:	2022202c 	eorcs	r2, r2, ip, lsr #32
    23d0:	6d797323 	ldclvs	3, cr7, [r9, #-140]!	; 0xffffff74
    23d4:	40402220 	submi	r2, r0, r0, lsr #4
    23d8:	76232022 	strtvc	r2, [r3], -r2, lsr #32
    23dc:	64697265 	strbtvs	r7, [r9], #-613	; 0xfffffd9b
    23e0:	49540029 	ldmdbmi	r4, {r0, r3, r5}^
    23e4:	425f374d 	subsmi	r3, pc, #20185088	; 0x1340000
    23e8:	20455341 	subcs	r5, r5, r1, asr #6
    23ec:	30347830 	eorscc	r7, r4, r0, lsr r8
    23f0:	34313030 	ldrtcc	r3, [r1], #-48	; 0xffffffd0
    23f4:	00753030 	rsbseq	r3, r5, r0, lsr r0
    23f8:	5f544e49 	svcpl	0x00544e49
    23fc:	54534146 	ldrbpl	r4, [r3], #-326	; 0xfffffeba
    2400:	414d5f38 	cmpmi	sp, r8, lsr pc
    2404:	5f282058 	svcpl	0x00282058
    2408:	544e495f 	strbpl	r4, [lr], #-2399	; 0xfffff6a1
    240c:	5341465f 	movtpl	r4, #5727	; 0x165f
    2410:	4d5f3854 	ldclmi	8, cr3, [pc, #-336]	; 22c8 <_Min_Stack_Size+0x1ec8>
    2414:	5f5f5841 	svcpl	0x005f5841
    2418:	50470029 	subpl	r0, r7, r9, lsr #32
    241c:	505f4f49 	subspl	r4, pc, r9, asr #30
    2420:	535f4e49 	cmppl	pc, #1168	; 0x490
    2424:	31205445 			; <UNDEFINED> instruction: 0x31205445
    2428:	615f5f00 	cmpvs	pc, r0, lsl #30
    242c:	636f6c6c 	cmnvs	pc, #108, 24	; 0x6c00
    2430:	7a69735f 	bvc	1a5f1b4 <_Min_Stack_Size+0x1a5edb4>
    2434:	6e283265 	cdpvs	2, 2, cr3, cr8, cr5, {3}
    2438:	2029782c 	eorcs	r7, r9, ip, lsr #16
    243c:	74615f5f 	strbtvc	r5, [r1], #-3935	; 0xfffff0a1
    2440:	62697274 	rsbvs	r7, r9, #116, 4	; 0x40000007
    2444:	5f657475 	svcpl	0x00657475
    2448:	5f28285f 	svcpl	0x0028285f
    244c:	6c6c615f 	stfvse	f6, [ip], #-380	; 0xfffffe84
    2450:	735f636f 	cmpvc	pc, #-1140850687	; 0xbc000001
    2454:	5f657a69 	svcpl	0x00657a69
    2458:	2c6e285f 	stclcs	8, cr2, [lr], #-380	; 0xfffffe84
    245c:	29297820 	stmdbcs	r9!, {r5, fp, ip, sp, lr}
    2460:	5f5f0029 	svcpl	0x005f0029
    2464:	544e4955 	strbpl	r4, [lr], #-2389	; 0xfffff6ab
    2468:	4d5f3631 	ldclmi	6, cr3, [pc, #-196]	; 23ac <_Min_Stack_Size+0x1fac>
    246c:	5f5f5841 	svcpl	0x005f5841
    2470:	66783020 	ldrbtvs	r3, [r8], -r0, lsr #32
    2474:	00666666 	rsbeq	r6, r6, r6, ror #12
    2478:	5f434352 	svcpl	0x00434352
    247c:	32495053 	subcc	r5, r9, #83	; 0x53
    2480:	4b4c435f 	blmi	1313204 <_Min_Stack_Size+0x1312e04>
    2484:	284e455f 	stmdacs	lr, {r0, r1, r2, r3, r4, r6, r8, sl, lr}^
    2488:	52282029 	eorpl	r2, r8, #41	; 0x29
    248c:	3e2d4343 	cdpcc	3, 2, cr4, cr13, cr3, {2}
    2490:	31425041 	cmpcc	r2, r1, asr #32
    2494:	20524e45 	subscs	r4, r2, r5, asr #28
    2498:	28203d7c 	stmdacs	r0!, {r2, r3, r4, r5, r6, r8, sl, fp, ip, sp}
    249c:	313c3c31 	teqcc	ip, r1, lsr ip
    24a0:	00292934 	eoreq	r2, r9, r4, lsr r9
    24a4:	51545f5f 	cmppl	r4, pc, asr pc
    24a8:	4942465f 	stmdbmi	r2, {r0, r1, r2, r3, r4, r6, r9, sl, lr}^
    24ac:	205f5f54 	subscs	r5, pc, r4, asr pc	; <UNPREDICTABLE>
    24b0:	00373231 	eorseq	r3, r7, r1, lsr r2
    24b4:	49545845 	ldmdbmi	r4, {r0, r2, r6, fp, ip, lr}^
    24b8:	6972745f 	ldmdbvs	r2!, {r0, r1, r2, r3, r4, r6, sl, ip, sp, lr}^
    24bc:	72656767 	rsbvc	r6, r5, #27000832	; 0x19c0000
    24c0:	7369725f 	cmnvc	r9, #-268435451	; 0xf0000005
    24c4:	20676e69 	rsbcs	r6, r7, r9, ror #28
    24c8:	5f5f0030 	svcpl	0x005f0030
    24cc:	4c42444c 	cfstrdmi	mvd4, [r2], {76}	; 0x4c
    24d0:	58414d5f 	stmdapl	r1, {r0, r1, r2, r3, r4, r6, r8, sl, fp, lr}^
    24d4:	5058455f 	subspl	r4, r8, pc, asr r5
    24d8:	31205f5f 			; <UNDEFINED> instruction: 0x31205f5f
    24dc:	00343230 	eorseq	r3, r4, r0, lsr r2
    24e0:	49545845 	ldmdbmi	r4, {r0, r2, r6, fp, ip, lr}^
    24e4:	31415031 	cmpcc	r1, r1, lsr r0
    24e8:	58452820 	stmdapl	r5, {r5, fp, sp}^
    24ec:	475f4954 			; <UNDEFINED> instruction: 0x475f4954
    24f0:	5f4f4950 	svcpl	0x004f4950
    24f4:	7070614d 	rsbsvc	r6, r0, sp, asr #2
    24f8:	5f676e69 	svcpl	0x00676e69
    24fc:	457b2974 	ldrbmi	r2, [fp, #-2420]!	; 0xfffff68c
    2500:	31495458 	cmpcc	r9, r8, asr r4
    2504:	5047202c 	subpl	r2, r7, ip, lsr #32
    2508:	2c414f49 	mcrrcs	15, 4, r4, r1, cr9
    250c:	49504720 	ldmdbmi	r0, {r5, r8, r9, sl, lr}^
    2510:	49505f4f 	ldmdbmi	r0, {r0, r1, r2, r3, r6, r8, r9, sl, fp, ip, lr}^
    2514:	2c315f4e 	ldccs	15, cr5, [r1], #-312	; 0xfffffec8
    2518:	54584520 	ldrbpl	r4, [r8], #-1312	; 0xfffffae0
    251c:	495f3149 	ldmdbmi	pc, {r0, r3, r6, r8, ip, sp}^	; <UNPREDICTABLE>
    2520:	007d5152 	rsbseq	r5, sp, r2, asr r1
    2524:	4e49555f 	mcrmi	5, 2, r5, cr9, cr15, {2}
    2528:	5f343654 	svcpl	0x00343654
    252c:	45445f54 	strbmi	r5, [r4, #-3924]	; 0xfffff0ac
    2530:	52414c43 	subpl	r4, r1, #17152	; 0x4300
    2534:	00204445 	eoreq	r4, r0, r5, asr #8
    2538:	6e695f5f 	mcrvs	15, 3, r5, cr9, cr15, {2}
    253c:	61665f74 	smcvs	26100	; 0x65f4
    2540:	34367473 	ldrtcc	r7, [r6], #-1139	; 0xfffffb8d
    2544:	645f745f 	ldrbvs	r7, [pc], #-1119	; 254c <_Min_Stack_Size+0x214c>
    2548:	6e696665 	cdpvs	6, 6, cr6, cr9, cr5, {3}
    254c:	31206465 			; <UNDEFINED> instruction: 0x31206465
    2550:	49504700 	ldmdbmi	r0, {r8, r9, sl, lr}^
    2554:	4f4d5f4f 	svcmi	0x004d5f4f
    2558:	4f5f4544 	svcmi	0x005f4544
    255c:	55505455 	ldrbpl	r5, [r0, #-1109]	; 0xfffffbab
    2560:	46415f54 			; <UNDEFINED> instruction: 0x46415f54
    2564:	20444f5f 	subcs	r4, r4, pc, asr pc
    2568:	30307830 	eorscc	r7, r0, r0, lsr r8
    256c:	30303030 	eorscc	r3, r0, r0, lsr r0
    2570:	47003730 	smladxmi	r0, r0, r7, r3
    2574:	414f4950 	cmpmi	pc, r0, asr r9	; <UNPREDICTABLE>
    2578:	47282820 	strmi	r2, [r8, -r0, lsr #16]!
    257c:	5f4f4950 	svcpl	0x004f4950
    2580:	65707954 	ldrbvs	r7, [r0, #-2388]!	; 0xfffff6ac
    2584:	5f666564 	svcpl	0x00666564
    2588:	47292a74 			; <UNDEFINED> instruction: 0x47292a74
    258c:	414f4950 	cmpmi	pc, r0, asr r9	; <UNPREDICTABLE>
    2590:	5341425f 	movtpl	r4, #4703	; 0x125f
    2594:	54002945 	strpl	r2, [r0], #-2373	; 0xfffff6bb
    2598:	20336d69 	eorscs	r6, r3, r9, ror #26
    259c:	49542828 	ldmdbmi	r4, {r3, r5, fp, sp}^
    25a0:	3574324d 	ldrbcc	r3, [r4, #-589]!	; 0xfffffdb3
    25a4:	7079545f 	rsbsvc	r5, r9, pc, asr r4
    25a8:	66654465 	strbtvs	r4, [r5], -r5, ror #8
    25ac:	292a745f 	stmdbcs	sl!, {r0, r1, r2, r3, r4, r6, sl, ip, sp, lr}
    25b0:	334d4954 	movtcc	r4, #55636	; 0xd954
    25b4:	5341425f 	movtpl	r4, #4703	; 0x125f
    25b8:	5f002945 	svcpl	0x00002945
    25bc:	5a49535f 	bpl	1257340 <_Min_Stack_Size+0x1256f40>
    25c0:	5f464f45 	svcpl	0x00464f45
    25c4:	524f4853 	subpl	r4, pc, #5439488	; 0x530000
    25c8:	205f5f54 	subscs	r5, pc, r4, asr pc	; <UNPREDICTABLE>
    25cc:	5f5f0032 	svcpl	0x005f0032
    25d0:	414c4c55 	cmpmi	ip, r5, asr ip
    25d4:	4d554343 	ldclmi	3, cr4, [r5, #-268]	; 0xfffffef4
    25d8:	4942465f 	stmdbmi	r2, {r0, r1, r2, r3, r4, r6, r9, sl, lr}^
    25dc:	205f5f54 	subscs	r5, pc, r4, asr pc	; <UNPREDICTABLE>
    25e0:	45003233 	strmi	r3, [r0, #-563]	; 0xfffffdcd
    25e4:	31495458 	cmpcc	r9, r8, asr r4
    25e8:	31445032 	cmpcc	r4, r2, lsr r0
    25ec:	45282032 	strmi	r2, [r8, #-50]!	; 0xffffffce
    25f0:	5f495458 	svcpl	0x00495458
    25f4:	4f495047 	svcmi	0x00495047
    25f8:	70614d5f 	rsbvc	r4, r1, pc, asr sp
    25fc:	676e6970 			; <UNDEFINED> instruction: 0x676e6970
    2600:	7b29745f 	blvc	a5f784 <_Min_Stack_Size+0xa5f384>
    2604:	49545845 	ldmdbmi	r4, {r0, r2, r6, fp, ip, lr}^
    2608:	202c3231 	eorcs	r3, ip, r1, lsr r2
    260c:	4f495047 	svcmi	0x00495047
    2610:	47202c44 	strmi	r2, [r0, -r4, asr #24]!
    2614:	5f4f4950 	svcpl	0x004f4950
    2618:	5f4e4950 	svcpl	0x004e4950
    261c:	202c3231 	eorcs	r3, ip, r1, lsr r2
    2620:	49545845 	ldmdbmi	r4, {r0, r2, r6, fp, ip, lr}^
    2624:	495f3231 	ldmdbmi	pc, {r0, r4, r5, r9, ip, sp}^	; <UNPREDICTABLE>
    2628:	007d5152 	rsbseq	r5, sp, r2, asr r1
    262c:	45445f5f 	strbmi	r5, [r4, #-3935]	; 0xfffff0a1
    2630:	534e4f43 	movtpl	r4, #61251	; 0xef43
    2634:	79742854 	ldmdbvc	r4!, {r2, r4, r6, fp, sp}^
    2638:	762c6570 			; <UNDEFINED> instruction: 0x762c6570
    263c:	20297261 	eorcs	r7, r9, r1, ror #4
    2640:	79742828 	ldmdbvc	r4!, {r3, r5, fp, sp}^
    2644:	28296570 	stmdacs	r9!, {r4, r5, r6, r8, sl, sp, lr}
    2648:	69755f5f 	ldmdbvs	r5!, {r0, r1, r2, r3, r4, r6, r8, r9, sl, fp, ip, lr}^
    264c:	7470746e 	ldrbtvc	r7, [r0], #-1134	; 0xfffffb92
    2650:	29745f72 	ldmdbcs	r4!, {r1, r4, r5, r6, r8, r9, sl, fp, ip, lr}^
    2654:	6e6f6328 	cdpvs	3, 6, cr6, cr15, cr8, {1}
    2658:	76207473 			; <UNDEFINED> instruction: 0x76207473
    265c:	2064696f 	rsbcs	r6, r4, pc, ror #18
    2660:	7628292a 	strtvc	r2, [r8], -sl, lsr #18
    2664:	29297261 	stmdbcs	r9!, {r0, r5, r6, r9, ip, sp, lr}
    2668:	59535f00 	ldmdbpl	r3, {r8, r9, sl, fp, ip, lr}^
    266c:	45465f53 	strbmi	r5, [r6, #-3923]	; 0xfffff0ad
    2670:	52555441 	subspl	r5, r5, #1090519040	; 0x41000000
    2674:	485f5345 	ldmdami	pc, {r0, r2, r6, r8, r9, ip, lr}^	; <UNPREDICTABLE>
    2678:	49550020 	ldmdbmi	r5, {r5}^
    267c:	4c5f544e 	cfldrdmi	mvd5, [pc], {78}	; 0x4e
    2680:	54534145 	ldrbpl	r4, [r3], #-325	; 0xfffffebb
    2684:	4d5f3436 	cfldrdmi	mvd3, [pc, #-216]	; 25b4 <_Min_Stack_Size+0x21b4>
    2688:	28205841 	stmdacs	r0!, {r0, r6, fp, ip, lr}
    268c:	49555f5f 	ldmdbmi	r5, {r0, r1, r2, r3, r4, r6, r8, r9, sl, fp, ip, lr}^
    2690:	4c5f544e 	cfldrdmi	mvd5, [pc], {78}	; 0x4e
    2694:	54534145 	ldrbpl	r4, [r3], #-325	; 0xfffffebb
    2698:	4d5f3436 	cfldrdmi	mvd3, [pc, #-216]	; 25c8 <_Min_Stack_Size+0x21c8>
    269c:	5f5f5841 	svcpl	0x005f5841
    26a0:	5f5f0029 	svcpl	0x005f0029
    26a4:	6e696f6e 	cdpvs	15, 6, cr6, cr9, cr14, {3}
    26a8:	656e696c 	strbvs	r6, [lr, #-2412]!	; 0xfffff694
    26ac:	615f5f20 	cmpvs	pc, r0, lsr #30
    26b0:	69727474 	ldmdbvs	r2!, {r2, r4, r5, r6, sl, ip, sp, lr}^
    26b4:	65747562 	ldrbvs	r7, [r4, #-1378]!	; 0xfffffa9e
    26b8:	28205f5f 	stmdacs	r0!, {r0, r1, r2, r3, r4, r6, r8, r9, sl, fp, ip, lr}
    26bc:	6e5f5f28 	cdpvs	15, 5, cr5, cr15, cr8, {1}
    26c0:	6c6e696f 			; <UNDEFINED> instruction: 0x6c6e696f
    26c4:	5f656e69 	svcpl	0x00656e69
    26c8:	0029295f 	eoreq	r2, r9, pc, asr r9
    26cc:	4f495047 	svcmi	0x00495047
    26d0:	4e49505f 	mcrmi	0, 2, r5, cr9, cr15, {2}
    26d4:	2032315f 	eorscs	r3, r2, pc, asr r1
    26d8:	69752828 	ldmdbvs	r5!, {r3, r5, fp, sp}^
    26dc:	3631746e 	ldrtcc	r7, [r1], -lr, ror #8
    26e0:	2029745f 	eorcs	r7, r9, pc, asr r4
    26e4:	30317830 	eorscc	r7, r1, r0, lsr r8
    26e8:	00293030 	eoreq	r3, r9, r0, lsr r0
    26ec:	43414d5f 	movtmi	r4, #7519	; 0x1d5f
    26f0:	44545348 	ldrbmi	r5, [r4], #-840	; 0xfffffcb8
    26f4:	5f42494c 	svcpl	0x0042494c
    26f8:	00205f48 	eoreq	r5, r0, r8, asr #30
    26fc:	49535f5f 	ldmdbmi	r3, {r0, r1, r2, r3, r4, r6, r8, r9, sl, fp, ip, lr}^
    2700:	464f455a 			; <UNDEFINED> instruction: 0x464f455a
    2704:	4e4f4c5f 	mcrmi	12, 2, r4, cr15, cr15, {2}
    2708:	4f445f47 	svcmi	0x00445f47
    270c:	454c4255 	strbmi	r4, [ip, #-597]	; 0xfffffdab
    2710:	38205f5f 	stmdacc	r0!, {r0, r1, r2, r3, r4, r6, r8, r9, sl, fp, ip, lr}
    2714:	49504700 	ldmdbmi	r0, {r8, r9, sl, lr}^
    2718:	49505f4f 	ldmdbmi	r0, {r0, r1, r2, r3, r6, r8, r9, sl, fp, ip, lr}^
    271c:	20355f4e 	eorscs	r5, r5, lr, asr #30
    2720:	69752828 	ldmdbvs	r5!, {r3, r5, fp, sp}^
    2724:	3631746e 	ldrtcc	r7, [r1], -lr, ror #8
    2728:	2029745f 	eorcs	r7, r9, pc, asr r4
    272c:	30307830 	eorscc	r7, r0, r0, lsr r8
    2730:	00293032 	eoreq	r3, r9, r2, lsr r0
    2734:	6f5f5243 	svcvs	0x005f5243
    2738:	5f007475 	svcpl	0x00007475
    273c:	4843575f 	stmdami	r3, {r0, r1, r2, r3, r4, r6, r8, r9, sl, ip, lr}^
    2740:	545f5241 	ldrbpl	r5, [pc], #-577	; 2748 <_Min_Stack_Size+0x2348>
    2744:	5f455059 	svcpl	0x00455059
    2748:	6e75205f 	mrcvs	0, 3, r2, cr5, cr15, {2}
    274c:	6e676973 			; <UNDEFINED> instruction: 0x6e676973
    2750:	69206465 	stmdbvs	r0!, {r0, r2, r5, r6, sl, sp, lr}
    2754:	5f00746e 	svcpl	0x0000746e
    2758:	4e454552 	mcrmi	5, 2, r4, cr5, cr2, {2}
    275c:	49535f54 	ldmdbmi	r3, {r2, r4, r6, r8, r9, sl, fp, ip, lr}^
    2760:	41474e47 	cmpmi	r7, r7, asr #28
    2764:	7470284d 	ldrbtvc	r2, [r0], #-2125	; 0xfffff7b3
    2768:	28202972 	stmdacs	r0!, {r1, r4, r5, r6, r8, fp, sp}
    276c:	72747028 	rsbsvc	r7, r4, #40	; 0x28
    2770:	5f3e2d29 	svcpl	0x003e2d29
    2774:	6d6d6167 	stfvse	f6, [sp, #-412]!	; 0xfffffe64
    2778:	69735f61 	ldmdbvs	r3!, {r0, r5, r6, r8, r9, sl, fp, ip, lr}^
    277c:	61676e67 	cmnvs	r7, r7, ror #28
    2780:	4500296d 	strmi	r2, [r0, #-2413]	; 0xfffff693
    2784:	36495458 			; <UNDEFINED> instruction: 0x36495458
    2788:	20364450 	eorscs	r4, r6, r0, asr r4
    278c:	54584528 	ldrbpl	r4, [r8], #-1320	; 0xfffffad8
    2790:	50475f49 	subpl	r5, r7, r9, asr #30
    2794:	4d5f4f49 	ldclmi	15, cr4, [pc, #-292]	; 2678 <_Min_Stack_Size+0x2278>
    2798:	69707061 	ldmdbvs	r0!, {r0, r5, r6, ip, sp, lr}^
    279c:	745f676e 	ldrbvc	r6, [pc], #-1902	; 27a4 <_Min_Stack_Size+0x23a4>
    27a0:	58457b29 	stmdapl	r5, {r0, r3, r5, r8, r9, fp, ip, sp, lr}^
    27a4:	2c364954 			; <UNDEFINED> instruction: 0x2c364954
    27a8:	49504720 	ldmdbmi	r0, {r5, r8, r9, sl, lr}^
    27ac:	202c444f 	eorcs	r4, ip, pc, asr #8
    27b0:	4f495047 	svcmi	0x00495047
    27b4:	4e49505f 	mcrmi	0, 2, r5, cr9, cr15, {2}
    27b8:	202c365f 	eorcs	r3, ip, pc, asr r6
    27bc:	49545845 	ldmdbmi	r4, {r0, r2, r6, fp, ip, lr}^
    27c0:	52495f36 	subpl	r5, r9, #54, 30	; 0xd8
    27c4:	45007d51 	strmi	r7, [r0, #-3409]	; 0xfffff2af
    27c8:	38495458 	stmdacc	r9, {r3, r4, r6, sl, ip, lr}^
    27cc:	20384250 	eorscs	r4, r8, r0, asr r2
    27d0:	54584528 	ldrbpl	r4, [r8], #-1320	; 0xfffffad8
    27d4:	50475f49 	subpl	r5, r7, r9, asr #30
    27d8:	4d5f4f49 	ldclmi	15, cr4, [pc, #-292]	; 26bc <_Min_Stack_Size+0x22bc>
    27dc:	69707061 	ldmdbvs	r0!, {r0, r5, r6, ip, sp, lr}^
    27e0:	745f676e 	ldrbvc	r6, [pc], #-1902	; 27e8 <_Min_Stack_Size+0x23e8>
    27e4:	58457b29 	stmdapl	r5, {r0, r3, r5, r8, r9, fp, ip, sp, lr}^
    27e8:	2c384954 			; <UNDEFINED> instruction: 0x2c384954
    27ec:	49504720 	ldmdbmi	r0, {r5, r8, r9, sl, lr}^
    27f0:	202c424f 	eorcs	r4, ip, pc, asr #4
    27f4:	4f495047 	svcmi	0x00495047
    27f8:	4e49505f 	mcrmi	0, 2, r5, cr9, cr15, {2}
    27fc:	202c385f 	eorcs	r3, ip, pc, asr r8
    2800:	49545845 	ldmdbmi	r4, {r0, r2, r6, fp, ip, lr}^
    2804:	52495f38 	subpl	r5, r9, #56, 30	; 0xe0
    2808:	5f007d51 	svcpl	0x00007d51
    280c:	4153555f 	cmpmi	r3, pc, asr r5
    2810:	4942495f 	stmdbmi	r2, {r0, r1, r2, r3, r4, r6, r8, fp, lr}^
    2814:	205f5f54 	subscs	r5, pc, r4, asr pc	; <UNPREDICTABLE>
    2818:	45003631 	strmi	r3, [r0, #-1585]	; 0xfffff9cf
    281c:	31495458 	cmpcc	r9, r8, asr r4
    2820:	5152495f 	cmppl	r2, pc, asr r9
    2824:	5f003720 	svcpl	0x00003720
    2828:	4343475f 	movtmi	r4, #14175	; 0x375f
    282c:	5641485f 			; <UNDEFINED> instruction: 0x5641485f
    2830:	59535f45 	ldmdbpl	r3, {r0, r2, r6, r8, r9, sl, fp, ip, lr}^
    2834:	435f434e 	cmpmi	pc, #939524097	; 0x38000001
    2838:	41504d4f 	cmpmi	r0, pc, asr #26
    283c:	415f4552 	cmpmi	pc, r2, asr r5	; <UNPREDICTABLE>
    2840:	535f444e 	cmppl	pc, #1308622848	; 0x4e000000
    2844:	5f504157 	svcpl	0x00504157
    2848:	00312032 	eorseq	r2, r1, r2, lsr r0
    284c:	52424841 	subpl	r4, r2, #4259840	; 0x410000
    2850:	00525453 	subseq	r5, r2, r3, asr r4
    2854:	656e5f5f 	strbvs	r5, [lr, #-3935]!	; 0xfffff0a1
    2858:	775f6465 	ldrbvc	r6, [pc, -r5, ror #8]
    285c:	72616863 	rsbvc	r6, r1, #6488064	; 0x630000
    2860:	0020745f 	eoreq	r7, r0, pc, asr r4
    2864:	69685f5f 	stmdbvs	r8!, {r0, r1, r2, r3, r4, r6, r8, r9, sl, fp, ip, lr}^
    2868:	6e656464 	cdpvs	4, 6, cr6, cr5, cr4, {3}
    286c:	615f5f20 	cmpvs	pc, r0, lsr #30
    2870:	69727474 	ldmdbvs	r2!, {r2, r4, r5, r6, sl, ip, sp, lr}^
    2874:	65747562 	ldrbvs	r7, [r4, #-1378]!	; 0xfffffa9e
    2878:	28285f5f 	stmdacs	r8!, {r0, r1, r2, r3, r4, r6, r8, r9, sl, fp, ip, lr}
    287c:	69765f5f 	ldmdbvs	r6!, {r0, r1, r2, r3, r4, r6, r8, r9, sl, fp, ip, lr}^
    2880:	69626973 	stmdbvs	r2!, {r0, r1, r4, r5, r6, r8, fp, sp, lr}^
    2884:	7974696c 	ldmdbvc	r4!, {r2, r3, r5, r6, r8, fp, sp, lr}^
    2888:	22285f5f 	eorcs	r5, r8, #380	; 0x17c
    288c:	64646968 	strbtvs	r6, [r4], #-2408	; 0xfffff698
    2890:	29226e65 	stmdbcs	r2!, {r0, r2, r5, r6, r9, sl, fp, sp, lr}
    2894:	49002929 	stmdbmi	r0, {r0, r3, r5, r8, fp, sp}
    2898:	4c5f544e 	cfldrdmi	mvd5, [pc], {78}	; 0x4e
    289c:	54534145 	ldrbpl	r4, [r3], #-325	; 0xfffffebb
    28a0:	4d5f3233 	lfmmi	f3, 2, [pc, #-204]	; 27dc <_Min_Stack_Size+0x23dc>
    28a4:	28205841 	stmdacs	r0!, {r0, r6, fp, ip, lr}
    28a8:	4e495f5f 	mcrmi	15, 2, r5, cr9, cr15, {2}
    28ac:	454c5f54 	strbmi	r5, [ip, #-3924]	; 0xfffff0ac
    28b0:	33545341 	cmpcc	r4, #67108865	; 0x4000001
    28b4:	414d5f32 	cmpmi	sp, r2, lsr pc
    28b8:	295f5f58 	ldmdbcs	pc, {r3, r4, r6, r8, r9, sl, fp, ip, lr}^	; <UNPREDICTABLE>
    28bc:	535f5f00 	cmppl	pc, #0, 30
    28c0:	43415246 	movtmi	r5, #4678	; 0x1246
    28c4:	414d5f54 	cmpmi	sp, r4, asr pc
    28c8:	205f5f58 	subscs	r5, pc, r8, asr pc	; <UNPREDICTABLE>
    28cc:	46375830 			; <UNDEFINED> instruction: 0x46375830
    28d0:	48372d50 	ldmdami	r7!, {r4, r6, r8, sl, fp, sp}
    28d4:	5f5f0052 	svcpl	0x005f0052
    28d8:	544e4955 	strbpl	r4, [lr], #-2389	; 0xfffff6ab
    28dc:	5341465f 	movtpl	r4, #5727	; 0x165f
    28e0:	5f343654 	svcpl	0x00343654
    28e4:	45505954 	ldrbmi	r5, [r0, #-2388]	; 0xfffff6ac
    28e8:	6c205f5f 	stcvs	15, cr5, [r0], #-380	; 0xfffffe84
    28ec:	20676e6f 	rsbcs	r6, r7, pc, ror #28
    28f0:	676e6f6c 	strbvs	r6, [lr, -ip, ror #30]!
    28f4:	736e7520 	cmnvc	lr, #32, 10	; 0x8000000
    28f8:	656e6769 	strbvs	r6, [lr, #-1897]!	; 0xfffff897
    28fc:	6e692064 	cdpvs	0, 6, cr2, cr9, cr4, {3}
    2900:	575f0074 			; <UNDEFINED> instruction: 0x575f0074
    2904:	5f544e49 	svcpl	0x00544e49
    2908:	49002054 	stmdbmi	r0, {r2, r4, r6, sp}
    290c:	4c5f544e 	cfldrdmi	mvd5, [pc], {78}	; 0x4e
    2910:	54534145 	ldrbpl	r4, [r3], #-325	; 0xfffffebb
    2914:	414d5f38 	cmpmi	sp, r8, lsr pc
    2918:	5f282058 	svcpl	0x00282058
    291c:	544e495f 	strbpl	r4, [lr], #-2399	; 0xfffff6a1
    2920:	41454c5f 	cmpmi	r5, pc, asr ip
    2924:	5f385453 	svcpl	0x00385453
    2928:	5f58414d 	svcpl	0x0058414d
    292c:	4e00295f 			; <UNDEFINED> instruction: 0x4e00295f
    2930:	5f434956 	svcpl	0x00434956
    2934:	49545845 	ldmdbmi	r4, {r0, r2, r6, fp, ip, lr}^
    2938:	52495f30 	subpl	r5, r9, #48, 30	; 0xc0
    293c:	69445f51 	stmdbvs	r4, {r0, r4, r6, r8, r9, sl, fp, ip, lr}^
    2940:	6c626173 	stfvse	f6, [r2], #-460	; 0xfffffe34
    2944:	4e282065 	cdpmi	0, 2, cr2, cr8, cr5, {3}
    2948:	5f434956 	svcpl	0x00434956
    294c:	52454349 	subpl	r4, r5, #603979777	; 0x24000001
    2950:	3d7c2030 	ldclcc	0, cr2, [ip, #-192]!	; 0xffffff40
    2954:	3c3c3120 	ldfccs	f3, [ip], #-128	; 0xffffff80
    2958:	5f002936 	svcpl	0x00002936
    295c:	544c465f 	strbpl	r4, [ip], #-1631	; 0xfffff9a1
    2960:	4e494d5f 	mcrmi	13, 2, r4, cr9, cr15, {2}
    2964:	31205f5f 			; <UNDEFINED> instruction: 0x31205f5f
    2968:	3537312e 	ldrcc	r3, [r7, #-302]!	; 0xfffffed2
    296c:	33343934 	teqcc	r4, #52, 18	; 0xd0000
    2970:	32383035 	eorscc	r3, r8, #53	; 0x35
    2974:	37383232 			; <UNDEFINED> instruction: 0x37383232
    2978:	332d6535 			; <UNDEFINED> instruction: 0x332d6535
    297c:	5f004638 	svcpl	0x00004638
    2980:	65656e5f 	strbvs	r6, [r5, #-3679]!	; 0xfffff1a1
    2984:	69735f64 	ldmdbvs	r3!, {r2, r5, r6, r8, r9, sl, fp, ip, lr}^
    2988:	745f657a 	ldrbvc	r6, [pc], #-1402	; 2990 <_Min_Stack_Size+0x2590>
    298c:	5f5f0020 	svcpl	0x005f0020
    2990:	465f4148 	ldrbmi	r4, [pc], -r8, asr #2
    2994:	5f544942 	svcpl	0x00544942
    2998:	0037205f 	eorseq	r2, r7, pc, asr r0
    299c:	44465f5f 	strbmi	r5, [r6], #-3935	; 0xfffff0a1
    29a0:	5f434950 	svcpl	0x00434950
    29a4:	5f5f005f 	svcpl	0x005f005f
    29a8:	41524655 	cmpmi	r2, r5, asr r6
    29ac:	4d5f5443 	cfldrdmi	mvd5, [pc, #-268]	; 28a8 <_Min_Stack_Size+0x24a8>
    29b0:	5f5f4e49 	svcpl	0x005f4e49
    29b4:	302e3020 	eorcc	r3, lr, r0, lsr #32
    29b8:	5f005255 	svcpl	0x00005255
    29bc:	4343475f 	movtmi	r4, #14175	; 0x375f
    29c0:	4f54415f 	svcmi	0x0054415f
    29c4:	5f43494d 	svcpl	0x0043494d
    29c8:	4e4f4c4c 	cdpmi	12, 4, cr4, cr15, cr12, {2}
    29cc:	4f4c5f47 	svcmi	0x004c5f47
    29d0:	465f4b43 	ldrbmi	r4, [pc], -r3, asr #22
    29d4:	20454552 	subcs	r4, r5, r2, asr r5
    29d8:	49530031 	ldmdbmi	r3, {r0, r4, r5}^
    29dc:	54415f47 	strbpl	r5, [r1], #-3911	; 0xfffff0b9
    29e0:	43494d4f 	movtmi	r4, #40271	; 0x9d4f
    29e4:	58414d5f 	stmdapl	r1, {r0, r1, r2, r3, r4, r6, r8, sl, fp, lr}^
    29e8:	5f5f2820 	svcpl	0x005f2820
    29ec:	49445453 	stmdbmi	r4, {r0, r1, r4, r6, sl, ip, lr}^
    29f0:	455f544e 	ldrbmi	r5, [pc, #-1102]	; 25aa <_Min_Stack_Size+0x21aa>
    29f4:	49285058 	stmdbmi	r8!, {r3, r4, r6, ip, lr}
    29f8:	4d5f544e 	cfldrdmi	mvd5, [pc, #-312]	; 28c8 <_Min_Stack_Size+0x24c8>
    29fc:	29295841 	stmdbcs	r9!, {r0, r6, fp, ip, lr}
    2a00:	49564e00 	ldmdbmi	r6, {r9, sl, fp, lr}^
    2a04:	43495f43 	movtmi	r5, #40771	; 0x9f43
    2a08:	20315245 	eorscs	r5, r1, r5, asr #4
    2a0c:	6f76282a 	svcvs	0x0076282a
    2a10:	6974616c 	ldmdbvs	r4!, {r2, r3, r5, r6, r8, sp, lr}^
    2a14:	7520656c 	strvc	r6, [r0, #-1388]!	; 0xfffffa94
    2a18:	33746e69 	cmncc	r4, #1680	; 0x690
    2a1c:	2a745f32 	bcs	1d1a6ec <_Min_Stack_Size+0x1d1a2ec>
    2a20:	4e282920 	vmulmi.f16	s4, s16, s1	; <UNPREDICTABLE>
    2a24:	5f434956 	svcpl	0x00434956
    2a28:	65736142 	ldrbvs	r6, [r3, #-322]!	; 0xfffffebe
    2a2c:	78302b20 	ldmdavc	r0!, {r5, r8, r9, fp, sp}
    2a30:	29343830 	ldmdbcs	r4!, {r4, r5, fp, ip, sp}
    2a34:	4e495500 	cdpmi	5, 4, cr5, cr9, cr0, {0}
    2a38:	5f343654 	svcpl	0x00343654
    2a3c:	2058414d 	subscs	r4, r8, sp, asr #2
    2a40:	555f5f28 	ldrbpl	r5, [pc, #-3880]	; 1b20 <_Min_Stack_Size+0x1720>
    2a44:	36544e49 	ldrbcc	r4, [r4], -r9, asr #28
    2a48:	414d5f34 	cmpmi	sp, r4, lsr pc
    2a4c:	295f5f58 	ldmdbcs	pc, {r3, r4, r6, r8, r9, sl, fp, ip, lr}^	; <UNPREDICTABLE>
    2a50:	49505300 	ldmdbmi	r0, {r8, r9, ip, lr}^
    2a54:	52495f32 	subpl	r5, r9, #50, 30	; 0xc8
    2a58:	36332051 			; <UNDEFINED> instruction: 0x36332051
    2a5c:	554e4700 	strbpl	r4, [lr, #-1792]	; 0xfffff900
    2a60:	31314320 	teqcc	r1, r0, lsr #6
    2a64:	2e303120 	rsfcssp	f3, f0, f0
    2a68:	20312e33 	eorscs	r2, r1, r3, lsr lr
    2a6c:	31323032 	teqcc	r2, r2, lsr r0
    2a70:	34323830 	ldrtcc	r3, [r2], #-2096	; 0xfffff7d0
    2a74:	65722820 	ldrbvs	r2, [r2, #-2080]!	; 0xfffff7e0
    2a78:	7361656c 	cmnvc	r1, #108, 10	; 0x1b000000
    2a7c:	2d202965 			; <UNDEFINED> instruction: 0x2d202965
    2a80:	7570636d 	ldrbvc	r6, [r0, #-877]!	; 0xfffffc93
    2a84:	726f633d 	rsbvc	r6, pc, #-201326592	; 0xf4000000
    2a88:	2d786574 	cfldr64cs	mvdx6, [r8, #-464]!	; 0xfffffe30
    2a8c:	2d20336d 	stccs	3, cr3, [r0, #-436]!	; 0xfffffe4c
    2a90:	6f6c666d 	svcvs	0x006c666d
    2a94:	612d7461 			; <UNDEFINED> instruction: 0x612d7461
    2a98:	733d6962 	teqvc	sp, #1605632	; 0x188000
    2a9c:	2074666f 	rsbscs	r6, r4, pc, ror #12
    2aa0:	68746d2d 	ldmdavs	r4!, {r0, r2, r3, r5, r8, sl, fp, sp, lr}^
    2aa4:	20626d75 	rsbcs	r6, r2, r5, ror sp
    2aa8:	72616d2d 	rsbvc	r6, r1, #2880	; 0xb40
    2aac:	613d6863 	teqvs	sp, r3, ror #16
    2ab0:	37766d72 			; <UNDEFINED> instruction: 0x37766d72
    2ab4:	2d206d2d 	stccs	13, cr6, [r0, #-180]!	; 0xffffff4c
    2ab8:	61776467 	cmnvs	r7, r7, ror #8
    2abc:	322d6672 	eorcc	r6, sp, #119537664	; 0x7200000
    2ac0:	33672d20 	cmncc	r7, #32, 26	; 0x800
    2ac4:	304f2d20 	subcc	r2, pc, r0, lsr #26
    2ac8:	74732d20 	ldrbtvc	r2, [r3], #-3360	; 0xfffff2e0
    2acc:	6e673d64 	cdpvs	13, 6, cr3, cr7, cr4, {3}
    2ad0:	20313175 	eorscs	r3, r1, r5, ror r1
    2ad4:	7566662d 	strbvc	r6, [r6, #-1581]!	; 0xfffff9d3
    2ad8:	6974636e 	ldmdbvs	r4!, {r1, r2, r3, r5, r6, r8, r9, sp, lr}^
    2adc:	732d6e6f 			; <UNDEFINED> instruction: 0x732d6e6f
    2ae0:	69746365 	ldmdbvs	r4!, {r0, r2, r5, r6, r8, r9, sp, lr}^
    2ae4:	20736e6f 	rsbscs	r6, r3, pc, ror #28
    2ae8:	6164662d 	cmnvs	r4, sp, lsr #12
    2aec:	732d6174 			; <UNDEFINED> instruction: 0x732d6174
    2af0:	69746365 	ldmdbvs	r4!, {r0, r2, r5, r6, r8, r9, sp, lr}^
    2af4:	20736e6f 	rsbscs	r6, r3, pc, ror #28
    2af8:	7473662d 	ldrbtvc	r6, [r3], #-1581	; 0xfffff9d3
    2afc:	2d6b6361 	stclcs	3, cr6, [fp, #-388]!	; 0xfffffe7c
    2b00:	67617375 			; <UNDEFINED> instruction: 0x67617375
    2b04:	662d2065 	strtvs	r2, [sp], -r5, rrx
    2b08:	6c637963 			; <UNDEFINED> instruction: 0x6c637963
    2b0c:	74616d6f 	strbtvc	r6, [r1], #-3439	; 0xfffff291
    2b10:	632d6369 			; <UNDEFINED> instruction: 0x632d6369
    2b14:	6c706d6f 	ldclvs	13, cr6, [r0], #-444	; 0xfffffe44
    2b18:	74697865 	strbtvc	r7, [r9], #-2149	; 0xfffff79b
    2b1c:	58450079 	stmdapl	r5, {r0, r3, r4, r5, r6}^
    2b20:	33314954 	teqcc	r1, #84, 18	; 0x150000
    2b24:	5152495f 	cmppl	r2, pc, asr r9
    2b28:	00303420 	eorseq	r3, r0, r0, lsr #8
    2b2c:	53555f5f 	cmppl	r5, #380	; 0x17c
    2b30:	43415246 	movtmi	r5, #4678	; 0x1246
    2b34:	42495f54 	submi	r5, r9, #84, 30	; 0x150
    2b38:	5f5f5449 	svcpl	0x005f5449
    2b3c:	5f003020 	svcpl	0x00003020
    2b40:	544e495f 	strbpl	r4, [lr], #-2399	; 0xfffff6a1
    2b44:	435f3233 	cmpmi	pc, #805306371	; 0x30000003
    2b48:	20296328 	eorcs	r6, r9, r8, lsr #6
    2b4c:	23232063 			; <UNDEFINED> instruction: 0x23232063
    2b50:	5f004c20 	svcpl	0x00004c20
    2b54:	6e69755f 	mcrvs	5, 3, r7, cr9, cr15, {2}
    2b58:	5f363174 	svcpl	0x00363174
    2b5c:	525f0074 	subspl	r0, pc, #116	; 0x74
    2b60:	544e4545 	strbpl	r4, [lr], #-1349	; 0xfffffabb
    2b64:	4749535f 	smlsldmi	r5, r9, pc, r3	; <UNPREDICTABLE>
    2b68:	5f4c414e 	svcpl	0x004c414e
    2b6c:	28465542 	stmdacs	r6, {r1, r6, r8, sl, ip, lr}^
    2b70:	29727470 	ldmdbcs	r2!, {r4, r5, r6, sl, ip, sp, lr}^
    2b74:	70282820 	eorvc	r2, r8, r0, lsr #16
    2b78:	2d297274 	sfmcs	f7, 4, [r9, #-464]!	; 0xfffffe30
    2b7c:	69735f3e 	ldmdbvs	r3!, {r1, r2, r3, r4, r5, r8, r9, sl, fp, ip, lr}^
    2b80:	6c616e67 	stclvs	14, cr6, [r1], #-412	; 0xfffffe64
    2b84:	6675625f 			; <UNDEFINED> instruction: 0x6675625f
    2b88:	564e0029 	strbpl	r0, [lr], -r9, lsr #32
    2b8c:	495f4349 	ldmdbmi	pc, {r0, r3, r6, r8, r9, lr}^	; <UNPREDICTABLE>
    2b90:	30524543 	subscc	r4, r2, r3, asr #10
    2b94:	76282a20 	strtvc	r2, [r8], -r0, lsr #20
    2b98:	74616c6f 	strbtvc	r6, [r1], #-3183	; 0xfffff391
    2b9c:	20656c69 	rsbcs	r6, r5, r9, ror #24
    2ba0:	746e6975 	strbtvc	r6, [lr], #-2421	; 0xfffff68b
    2ba4:	745f3233 	ldrbvc	r3, [pc], #-563	; 2bac <_Min_Stack_Size+0x27ac>
    2ba8:	2829202a 	stmdacs	r9!, {r1, r3, r5, sp}
    2bac:	4349564e 	movtmi	r5, #38478	; 0x964e
    2bb0:	7361425f 	cmnvc	r1, #-268435451	; 0xf0000005
    2bb4:	302b2065 	eorcc	r2, fp, r5, rrx
    2bb8:	30383078 	eorscc	r3, r8, r8, ror r0
    2bbc:	5f5f0029 	svcpl	0x005f0029
    2bc0:	52465355 	subpl	r5, r6, #1409286145	; 0x54000001
    2bc4:	5f544341 	svcpl	0x00544341
    2bc8:	5f4e494d 	svcpl	0x004e494d
    2bcc:	2e30205f 	mrccs	0, 1, r2, cr0, cr15, {2}
    2bd0:	52485530 	subpl	r5, r8, #48, 10	; 0xc000000
    2bd4:	755f5f00 	ldrbvc	r5, [pc, #-3840]	; 1cdc <_Min_Stack_Size+0x18dc>
    2bd8:	20646573 	rsbcs	r6, r4, r3, ror r5
    2bdc:	74615f5f 	strbtvc	r5, [r1], #-3935	; 0xfffff0a1
    2be0:	62697274 	rsbvs	r7, r9, #116, 4	; 0x40000007
    2be4:	5f657475 	svcpl	0x00657475
    2be8:	5f28285f 	svcpl	0x0028285f
    2bec:	6573755f 	ldrbvs	r7, [r3, #-1375]!	; 0xfffffaa1
    2bf0:	295f5f64 	ldmdbcs	pc, {r2, r5, r6, r8, r9, sl, fp, ip, lr}^	; <UNPREDICTABLE>
    2bf4:	5f5f0029 	svcpl	0x005f0029
    2bf8:	656e6567 	strbvs	r6, [lr, #-1383]!	; 0xfffffa99
    2bfc:	28636972 	stmdacs	r3!, {r1, r4, r5, r6, r8, fp, sp, lr}^
    2c00:	72707865 	rsbsvc	r7, r0, #6619136	; 0x650000
    2c04:	792c742c 	stmdbvc	ip!, {r2, r3, r5, sl, ip, sp, lr}
    2c08:	6e2c7365 	cdpvs	3, 2, cr7, cr12, cr5, {3}
    2c0c:	5f20296f 	svcpl	0x0020296f
    2c10:	656e6547 	strbvs	r6, [lr, #-1351]!	; 0xfffffab9
    2c14:	28636972 	stmdacs	r3!, {r1, r4, r5, r6, r8, fp, sp, lr}^
    2c18:	72707865 	rsbsvc	r7, r0, #6619136	; 0x650000
    2c1c:	3a74202c 	bcc	1d0acd4 <_Min_Stack_Size+0x1d0a8d4>
    2c20:	73657920 	cmnvc	r5, #32, 18	; 0x80000
    2c24:	6564202c 	strbvs	r2, [r4, #-44]!	; 0xffffffd4
    2c28:	6c756166 	ldfvse	f6, [r5], #-408	; 0xfffffe68
    2c2c:	6e203a74 			; <UNDEFINED> instruction: 0x6e203a74
    2c30:	5f00296f 	svcpl	0x0000296f
    2c34:	4d52415f 	ldfmie	f4, [r2, #-380]	; 0xfffffe84
    2c38:	4f454e5f 	svcmi	0x00454e5f
    2c3c:	525f004e 	subspl	r0, pc, #78	; 0x4e
    2c40:	544e4545 	strbpl	r4, [lr], #-1349	; 0xfffffabb
    2c44:	454d455f 	strbmi	r4, [sp, #-1375]	; 0xfffffaa1
    2c48:	4e454752 	mcrmi	7, 2, r4, cr5, cr2, {2}
    2c4c:	70285943 	eorvc	r5, r8, r3, asr #18
    2c50:	20297274 	eorcs	r7, r9, r4, ror r2
    2c54:	74702828 	ldrbtvc	r2, [r0], #-2088	; 0xfffff7d8
    2c58:	3e2d2972 			; <UNDEFINED> instruction: 0x3e2d2972
    2c5c:	656d655f 	strbvs	r6, [sp, #-1375]!	; 0xfffffaa1
    2c60:	6e656772 	mcrvs	7, 3, r6, cr5, cr2, {3}
    2c64:	00297963 	eoreq	r7, r9, r3, ror #18
    2c68:	4e475f5f 	mcrmi	15, 2, r5, cr7, cr15, {2}
    2c6c:	494c4355 	stmdbmi	ip, {r0, r2, r4, r6, r8, r9, lr}^
    2c70:	435f454b 	cmpmi	pc, #314572800	; 0x12c00000
    2c74:	5f524f54 	svcpl	0x00524f54
    2c78:	54434553 	strbpl	r4, [r3], #-1363	; 0xfffffaad
    2c7c:	5f4e4f49 	svcpl	0x004e4f49
    2c80:	444e4148 	strbmi	r4, [lr], #-328	; 0xfffffeb8
    2c84:	474e494c 	strbmi	r4, [lr, -ip, asr #18]
    2c88:	5f003120 	svcpl	0x00003120
    2c8c:	4e49555f 	mcrmi	5, 2, r5, cr9, cr15, {2}
    2c90:	4d5f3854 	ldclmi	8, cr3, [pc, #-336]	; 2b48 <_Min_Stack_Size+0x2748>
    2c94:	5f5f5841 	svcpl	0x005f5841
    2c98:	66783020 	ldrbtvs	r3, [r8], -r0, lsr #32
    2c9c:	5f5f0066 	svcpl	0x005f0066
    2ca0:	6b636f6c 	blvs	18dea58 <_Min_Stack_Size+0x18de658>
    2ca4:	7163615f 	cmnvc	r3, pc, asr r1
    2ca8:	65726975 	ldrbvs	r6, [r2, #-2421]!	; 0xfffff68b
    2cac:	6365725f 	cmnvs	r5, #-268435451	; 0xf0000005
    2cb0:	69737275 	ldmdbvs	r3!, {r0, r2, r4, r5, r6, r9, ip, sp, lr}^
    2cb4:	6c286576 	cfstr32vs	mvfx6, [r8], #-472	; 0xfffffe28
    2cb8:	296b636f 	stmdbcs	fp!, {r0, r1, r2, r3, r5, r6, r8, r9, sp, lr}^
    2cbc:	725f5f20 	subsvc	r5, pc, #32, 30	; 0x80
    2cc0:	72617465 	rsbvc	r7, r1, #1694498816	; 0x65000000
    2cc4:	5f746567 	svcpl	0x00746567
    2cc8:	6b636f6c 	blvs	18dea80 <_Min_Stack_Size+0x18de680>
    2ccc:	7163615f 	cmnvc	r3, pc, asr r1
    2cd0:	65726975 	ldrbvs	r6, [r2, #-2421]!	; 0xfffff68b
    2cd4:	6365725f 	cmnvs	r5, #-268435451	; 0xf0000005
    2cd8:	69737275 	ldmdbvs	r3!, {r0, r2, r4, r5, r6, r9, ip, sp, lr}^
    2cdc:	6c286576 	cfstr32vs	mvfx6, [r8], #-472	; 0xfffffe28
    2ce0:	296b636f 	stmdbcs	fp!, {r0, r1, r2, r3, r5, r6, r8, r9, sp, lr}^
    2ce4:	45525f00 	ldrbmi	r5, [r2, #-3840]	; 0xfffff100
    2ce8:	20544e45 	subscs	r4, r4, r5, asr #28
    2cec:	706d695f 	rsbvc	r6, sp, pc, asr r9
    2cf0:	5f657275 	svcpl	0x00657275
    2cf4:	00727470 	rsbseq	r7, r2, r0, ror r4
    2cf8:	61685f5f 	cmnvs	r8, pc, asr pc
    2cfc:	65665f73 	strbvs	r5, [r6, #-3955]!	; 0xfffff08d
    2d00:	72757461 	rsbsvc	r7, r5, #1627389952	; 0x61000000
    2d04:	29782865 	ldmdbcs	r8!, {r0, r2, r5, r6, fp, sp}^
    2d08:	45003020 	strmi	r3, [r0, #-32]	; 0xffffffe0
    2d0c:	5f495458 	svcpl	0x00495458
    2d10:	436e6950 	cmnmi	lr, #80, 18	; 0x140000
    2d14:	69666e6f 	stmdbvs	r6!, {r0, r1, r2, r3, r5, r6, r9, sl, fp, sp, lr}^
    2d18:	00745f67 	rsbseq	r5, r4, r7, ror #30
    2d1c:	52415355 	subpl	r5, r1, #1409286145	; 0x54000001
    2d20:	28203354 	stmdacs	r0!, {r2, r4, r6, r8, r9, ip, sp}
    2d24:	41535528 	cmpmi	r3, r8, lsr #10
    2d28:	545f5452 	ldrbpl	r5, [pc], #-1106	; 2d30 <_Min_Stack_Size+0x2930>
    2d2c:	64657079 	strbtvs	r7, [r5], #-121	; 0xffffff87
    2d30:	745f6665 	ldrbvc	r6, [pc], #-1637	; 2d38 <_Min_Stack_Size+0x2938>
    2d34:	55292a20 	strpl	r2, [r9, #-2592]!	; 0xfffff5e0
    2d38:	54524153 	ldrbpl	r4, [r2], #-339	; 0xfffffead
    2d3c:	41425f33 	cmpmi	r2, r3, lsr pc
    2d40:	00294553 	eoreq	r4, r9, r3, asr r5
    2d44:	78655f5f 	stmdavc	r5!, {r0, r1, r2, r3, r4, r6, r8, r9, sl, fp, ip, lr}^
    2d48:	74726f70 	ldrbtvc	r6, [r2], #-3952	; 0xfffff090
    2d4c:	5f206465 	svcpl	0x00206465
    2d50:	7474615f 	ldrbtvc	r6, [r4], #-351	; 0xfffffea1
    2d54:	75626972 	strbvc	r6, [r2, #-2418]!	; 0xfffff68e
    2d58:	5f5f6574 	svcpl	0x005f6574
    2d5c:	5f5f2828 	svcpl	0x005f2828
    2d60:	69736976 	ldmdbvs	r3!, {r1, r2, r4, r5, r6, r8, fp, sp, lr}^
    2d64:	696c6962 	stmdbvs	ip!, {r1, r5, r6, r8, fp, sp, lr}^
    2d68:	5f5f7974 	svcpl	0x005f7974
    2d6c:	65642228 	strbvs	r2, [r4, #-552]!	; 0xfffffdd8
    2d70:	6c756166 	ldfvse	f6, [r5], #-408	; 0xfffffe68
    2d74:	29292274 	stmdbcs	r9!, {r2, r4, r5, r6, r9, sp}
    2d78:	5f5f0029 	svcpl	0x005f0029
    2d7c:	53434353 	movtpl	r4, #13139	; 0x3353
    2d80:	73284449 			; <UNDEFINED> instruction: 0x73284449
    2d84:	74732029 	ldrbtvc	r2, [r3], #-41	; 0xffffffd7
    2d88:	74637572 	strbtvc	r7, [r3], #-1394	; 0xfffffa8e
    2d8c:	685f5f20 	ldmdavs	pc, {r5, r8, r9, sl, fp, ip, lr}^	; <UNPREDICTABLE>
    2d90:	006b6361 	rsbeq	r6, fp, r1, ror #6
    2d94:	42445f5f 	submi	r5, r4, #380	; 0x17c
    2d98:	41485f4c 	cmpmi	r8, ip, asr #30
    2d9c:	45445f53 	strbmi	r5, [r4, #-3923]	; 0xfffff0ad
    2da0:	4d524f4e 	ldclmi	15, cr4, [r2, #-312]	; 0xfffffec8
    2da4:	31205f5f 			; <UNDEFINED> instruction: 0x31205f5f
    2da8:	6c5f5f00 	mrrcvs	15, 0, r5, pc, cr0	; <UNPREDICTABLE>
    2dac:	5f6b636f 	svcpl	0x006b636f
    2db0:	5f797274 	svcpl	0x00797274
    2db4:	75716361 	ldrbvc	r6, [r1, #-865]!	; 0xfffffc9f
    2db8:	5f657269 	svcpl	0x00657269
    2dbc:	75636572 	strbvc	r6, [r3, #-1394]!	; 0xfffffa8e
    2dc0:	76697372 			; <UNDEFINED> instruction: 0x76697372
    2dc4:	6f6c2865 	svcvs	0x006c2865
    2dc8:	20296b63 	eorcs	r6, r9, r3, ror #22
    2dcc:	65725f5f 	ldrbvs	r5, [r2, #-3935]!	; 0xfffff0a1
    2dd0:	67726174 			; <UNDEFINED> instruction: 0x67726174
    2dd4:	6c5f7465 	cfldrdvs	mvd7, [pc], {101}	; 0x65
    2dd8:	5f6b636f 	svcpl	0x006b636f
    2ddc:	5f797274 	svcpl	0x00797274
    2de0:	75716361 	ldrbvc	r6, [r1, #-865]!	; 0xfffffc9f
    2de4:	5f657269 	svcpl	0x00657269
    2de8:	75636572 	strbvc	r6, [r3, #-1394]!	; 0xfffffa8e
    2dec:	76697372 			; <UNDEFINED> instruction: 0x76697372
    2df0:	6f6c2865 	svcvs	0x006c2865
    2df4:	00296b63 	eoreq	r6, r9, r3, ror #22
    2df8:	43435f5f 	movtmi	r5, #16223	; 0x3f5f
    2dfc:	5055535f 	subspl	r5, r5, pc, asr r3
    2e00:	54524f50 	ldrbpl	r4, [r2], #-3920	; 0xfffff0b0
    2e04:	5f5f5f53 	svcpl	0x005f5f53
    2e08:	494c4e49 	stmdbmi	ip, {r0, r3, r6, r9, sl, fp, lr}^
    2e0c:	3120454e 			; <UNDEFINED> instruction: 0x3120454e
    2e10:	424d5f00 	submi	r5, sp, #0, 30
    2e14:	4e454c5f 	mcrmi	12, 2, r4, cr5, cr15, {2}
    2e18:	58414d5f 	stmdapl	r1, {r0, r1, r2, r3, r4, r6, r8, sl, fp, lr}^
    2e1c:	49003120 	stmdbmi	r0, {r5, r8, ip, sp}
    2e20:	414d544e 	cmpmi	sp, lr, asr #8
    2e24:	414d5f58 	cmpmi	sp, r8, asr pc
    2e28:	5f282058 	svcpl	0x00282058
    2e2c:	544e495f 	strbpl	r4, [lr], #-2399	; 0xfffff6a1
    2e30:	5f58414d 	svcpl	0x0058414d
    2e34:	5f58414d 	svcpl	0x0058414d
    2e38:	4900295f 	stmdbmi	r0, {r0, r1, r2, r3, r4, r6, r8, fp, sp}
    2e3c:	3233544e 	eorscc	r5, r3, #1308622848	; 0x4e000000
    2e40:	58414d5f 	stmdapl	r1, {r0, r1, r2, r3, r4, r6, r8, sl, fp, lr}^
    2e44:	5f5f2820 	svcpl	0x005f2820
    2e48:	33544e49 	cmpcc	r4, #1168	; 0x490
    2e4c:	414d5f32 	cmpmi	sp, r2, lsr pc
    2e50:	295f5f58 	ldmdbcs	pc, {r3, r4, r6, r8, r9, sl, fp, ip, lr}^	; <UNPREDICTABLE>
    2e54:	445f5f00 	ldrbmi	r5, [pc], #-3840	; 2e5c <_Min_Stack_Size+0x2a5c>
    2e58:	42465f41 	submi	r5, r6, #260	; 0x104
    2e5c:	5f5f5449 	svcpl	0x005f5449
    2e60:	00313320 	eorseq	r3, r1, r0, lsr #6
    2e64:	58475f5f 	stmdapl	r7, {r0, r1, r2, r3, r4, r6, r8, r9, sl, fp, ip, lr}^
    2e68:	42415f58 	submi	r5, r1, #88, 30	; 0x160
    2e6c:	45565f49 	ldrbmi	r5, [r6, #-3913]	; 0xfffff0b7
    2e70:	4f495352 	svcmi	0x00495352
    2e74:	3031204e 	eorscc	r2, r1, lr, asr #32
    2e78:	5f003431 	svcpl	0x00003431
    2e7c:	544e495f 	strbpl	r4, [lr], #-2399	; 0xfffff6a1
    2e80:	41454c5f 	cmpmi	r5, pc, asr ip
    2e84:	36315453 			; <UNDEFINED> instruction: 0x36315453
    2e88:	58414d5f 	stmdapl	r1, {r0, r1, r2, r3, r4, r6, r8, sl, fp, lr}^
    2e8c:	30205f5f 	eorcc	r5, r0, pc, asr pc
    2e90:	66663778 			; <UNDEFINED> instruction: 0x66663778
    2e94:	5f5f0066 	svcpl	0x005f0066
    2e98:	5f544c46 	svcpl	0x00544c46
    2e9c:	4f4e4544 	svcmi	0x004e4544
    2ea0:	4d5f4d52 	ldclmi	13, cr4, [pc, #-328]	; 2d60 <_Min_Stack_Size+0x2960>
    2ea4:	5f5f4e49 	svcpl	0x005f4e49
    2ea8:	342e3120 	strtcc	r3, [lr], #-288	; 0xfffffee0
    2eac:	39323130 	ldmdbcc	r2!, {r4, r5, r8, ip, sp}
    2eb0:	34363438 	ldrtcc	r3, [r6], #-1080	; 0xfffffbc8
    2eb4:	38343233 	ldmdacc	r4!, {r0, r1, r4, r5, r9, ip, sp}
    2eb8:	65313731 	ldrvs	r3, [r1, #-1841]!	; 0xfffff8cf
    2ebc:	4635342d 	ldrtmi	r3, [r5], -sp, lsr #8
    2ec0:	4c5f5f00 	mrrcmi	15, 0, r5, pc, cr0	; <UNPREDICTABLE>
    2ec4:	54534145 	ldrbpl	r4, [r3], #-325	; 0xfffffebb
    2ec8:	68222038 	stmdavs	r2!, {r3, r4, r5, sp}
    2ecc:	55002268 	strpl	r2, [r0, #-616]	; 0xfffffd98
    2ed0:	5f544e49 	svcpl	0x00544e49
    2ed4:	54534146 	ldrbpl	r4, [r3], #-326	; 0xfffffeba
    2ed8:	4d5f3631 	ldclmi	6, cr3, [pc, #-196]	; 2e1c <_Min_Stack_Size+0x2a1c>
    2edc:	28205841 	stmdacs	r0!, {r0, r6, fp, ip, lr}
    2ee0:	49555f5f 	ldmdbmi	r5, {r0, r1, r2, r3, r4, r6, r8, r9, sl, fp, ip, lr}^
    2ee4:	465f544e 	ldrbmi	r5, [pc], -lr, asr #8
    2ee8:	31545341 	cmpcc	r4, r1, asr #6
    2eec:	414d5f36 	cmpmi	sp, r6, lsr pc
    2ef0:	295f5f58 	ldmdbcs	pc, {r3, r4, r6, r8, r9, sl, fp, ip, lr}^	; <UNPREDICTABLE>
    2ef4:	49504700 	ldmdbmi	r0, {r8, r9, sl, lr}^
    2ef8:	4f4d5f4f 	svcmi	0x004d5f4f
    2efc:	415f4544 	cmpmi	pc, r4, asr #10
    2f00:	6f6c616e 	svcvs	0x006c616e
    2f04:	78302067 	ldmdavc	r0!, {r0, r1, r2, r5, r6, sp}
    2f08:	30303030 	eorscc	r3, r0, r0, lsr r0
    2f0c:	30303030 	eorscc	r3, r0, r0, lsr r0
    2f10:	725f5f00 	subsvc	r5, pc, #0, 30
    2f14:	72757465 	rsbsvc	r7, r5, #1694498816	; 0x65000000
    2f18:	745f736e 	ldrbvc	r7, [pc], #-878	; 2f20 <_Min_Stack_Size+0x2b20>
    2f1c:	65636977 	strbvs	r6, [r3, #-2423]!	; 0xfffff689
    2f20:	615f5f20 	cmpvs	pc, r0, lsr #30
    2f24:	69727474 	ldmdbvs	r2!, {r2, r4, r5, r6, sl, ip, sp, lr}^
    2f28:	65747562 	ldrbvs	r7, [r4, #-1378]!	; 0xfffffa9e
    2f2c:	28285f5f 	stmdacs	r8!, {r0, r1, r2, r3, r4, r6, r8, r9, sl, fp, ip, lr}
    2f30:	65725f5f 	ldrbvs	r5, [r2, #-3935]!	; 0xfffff0a1
    2f34:	6e727574 	mrcvs	5, 3, r7, cr2, cr4, {3}
    2f38:	77745f73 			; <UNDEFINED> instruction: 0x77745f73
    2f3c:	5f656369 	svcpl	0x00656369
    2f40:	0029295f 	eoreq	r2, r9, pc, asr r9
    2f44:	4c555f5f 	mrrcmi	15, 5, r5, r5, cr15	; <UNPREDICTABLE>
    2f48:	4343414c 	movtmi	r4, #12620	; 0x314c
    2f4c:	455f4d55 	ldrbmi	r4, [pc, #-3413]	; 21ff <_Min_Stack_Size+0x1dff>
    2f50:	4c495350 	mcrrmi	3, 5, r5, r9, cr0
    2f54:	5f5f4e4f 	svcpl	0x005f4e4f
    2f58:	31783020 	cmncc	r8, r0, lsr #32
    2f5c:	32332d50 	eorscc	r2, r3, #80, 26	; 0x1400
    2f60:	4b4c4c55 	blmi	13160bc <_Min_Stack_Size+0x1315cbc>
    2f64:	725f5f00 	subsvc	r5, pc, #0, 30
    2f68:	69757165 	ldmdbvs	r5!, {r0, r2, r5, r6, r8, ip, sp, lr}^
    2f6c:	5f736572 	svcpl	0x00736572
    2f70:	72616873 	rsbvc	r6, r1, #7536640	; 0x730000
    2f74:	2e286465 	cdpcs	4, 2, cr6, cr8, cr5, {3}
    2f78:	20292e2e 	eorcs	r2, r9, lr, lsr #28
    2f7c:	6f6c5f5f 	svcvs	0x006c5f5f
    2f80:	615f6b63 	cmpvs	pc, r3, ror #22
    2f84:	746f6e6e 	strbtvc	r6, [pc], #-3694	; 2f8c <_Min_Stack_Size+0x2b8c>
    2f88:	28657461 	stmdacs	r5!, {r0, r5, r6, sl, ip, sp, lr}^
    2f8c:	72616873 	rsbvc	r6, r1, #7536640	; 0x730000
    2f90:	6c5f6465 	cfldrdvs	mvd6, [pc], {101}	; 0x65
    2f94:	736b636f 	cmnvc	fp, #-1140850687	; 0xbc000001
    2f98:	7165725f 	cmnvc	r5, pc, asr r2
    2f9c:	65726975 	ldrbvs	r6, [r2, #-2421]!	; 0xfffff68b
    2fa0:	5f5f2864 	svcpl	0x005f2864
    2fa4:	415f4156 	cmpmi	pc, r6, asr r1	; <UNPREDICTABLE>
    2fa8:	5f534752 	svcpl	0x00534752
    2fac:	0029295f 	eoreq	r2, r9, pc, asr r9
    2fb0:	444e455f 	strbmi	r4, [lr], #-1375	; 0xfffffaa1
    2fb4:	4454535f 	ldrbmi	r5, [r4], #-863	; 0xfffffca1
    2fb8:	0020435f 	eoreq	r4, r0, pc, asr r3
    2fbc:	4349564e 	movtmi	r5, #38478	; 0x964e
    2fc0:	4153555f 	cmpmi	r3, pc, asr r5
    2fc4:	5f335452 	svcpl	0x00335452
    2fc8:	5f515249 	svcpl	0x00515249
    2fcc:	62616e45 	rsbvs	r6, r1, #1104	; 0x450
    2fd0:	2820656c 	stmdacs	r0!, {r2, r3, r5, r6, r8, sl, sp, lr}
    2fd4:	4349564e 	movtmi	r5, #38478	; 0x964e
    2fd8:	4553495f 	ldrbmi	r4, [r3, #-2399]	; 0xfffff6a1
    2fdc:	7c203152 	stfvcs	f3, [r0], #-328	; 0xfffffeb8
    2fe0:	3c31203d 	ldccc	0, cr2, [r1], #-244	; 0xffffff0c
    2fe4:	5355283c 	cmppl	r5, #60, 16	; 0x3c0000
    2fe8:	33545241 	cmpcc	r4, #268435460	; 0x10000004
    2fec:	5152495f 	cmppl	r2, pc, asr r9
    2ff0:	33202d20 			; <UNDEFINED> instruction: 0x33202d20
    2ff4:	00292932 	eoreq	r2, r9, r2, lsr r9
    2ff8:	544e4955 	strbpl	r4, [lr], #-2389	; 0xfffff6ab
    2ffc:	41454c5f 	cmpmi	r5, pc, asr ip
    3000:	36315453 			; <UNDEFINED> instruction: 0x36315453
    3004:	58414d5f 	stmdapl	r1, {r0, r1, r2, r3, r4, r6, r8, sl, fp, lr}^
    3008:	5f5f2820 	svcpl	0x005f2820
    300c:	544e4955 	strbpl	r4, [lr], #-2389	; 0xfffff6ab
    3010:	41454c5f 	cmpmi	r5, pc, asr ip
    3014:	36315453 			; <UNDEFINED> instruction: 0x36315453
    3018:	58414d5f 	stmdapl	r1, {r0, r1, r2, r3, r4, r6, r8, sl, fp, lr}^
    301c:	00295f5f 	eoreq	r5, r9, pc, asr pc
    3020:	49555f5f 	ldmdbmi	r5, {r0, r1, r2, r3, r4, r6, r8, r9, sl, fp, ip, lr}^
    3024:	3233544e 	eorscc	r5, r3, #1308622848	; 0x4e000000
    3028:	6328435f 			; <UNDEFINED> instruction: 0x6328435f
    302c:	20632029 	rsbcs	r2, r3, r9, lsr #32
    3030:	55202323 	strpl	r2, [r0, #-803]!	; 0xfffffcdd
    3034:	5f5f004c 	svcpl	0x005f004c
    3038:	43434155 	movtmi	r4, #12629	; 0x3155
    303c:	4d5f4d55 	ldclmi	13, cr4, [pc, #-340]	; 2ef0 <_Min_Stack_Size+0x2af0>
    3040:	5f5f4e49 	svcpl	0x005f4e49
    3044:	302e3020 	eorcc	r3, lr, r0, lsr #32
    3048:	5f004b55 	svcpl	0x00004b55
    304c:	4e454552 	mcrmi	5, 2, r4, cr5, cr2, {2}
    3050:	424d5f54 	submi	r5, sp, #84, 30	; 0x150
    3054:	43574f54 	cmpmi	r7, #84, 30	; 0x150
    3058:	4154535f 	cmpmi	r4, pc, asr r3
    305c:	70284554 	eorvc	r4, r8, r4, asr r5
    3060:	20297274 	eorcs	r7, r9, r4, ror r2
    3064:	74702828 	ldrbtvc	r2, [r0], #-2088	; 0xfffff7d8
    3068:	3e2d2972 			; <UNDEFINED> instruction: 0x3e2d2972
    306c:	73696d5f 	cmnvc	r9, #6080	; 0x17c0
    3070:	5f3e2d63 	svcpl	0x003e2d63
    3074:	6f74626d 	svcvs	0x0074626d
    3078:	735f6377 	cmpvc	pc, #-603979775	; 0xdc000001
    307c:	65746174 	ldrbvs	r6, [r4, #-372]!	; 0xfffffe8c
    3080:	4e5f0029 	cdpmi	0, 5, cr0, cr15, cr9, {1}
    3084:	5f6c6c75 	svcpl	0x006c6c75
    3088:	70736e75 	rsbsvc	r6, r3, r5, ror lr
    308c:	66696365 	strbtvs	r6, [r9], -r5, ror #6
    3090:	20646569 	rsbcs	r6, r4, r9, ror #10
    3094:	465f5f00 	ldrbmi	r5, [pc], -r0, lsl #30
    3098:	455f544c 	ldrbmi	r5, [pc, #-1100]	; 2c54 <_Min_Stack_Size+0x2854>
    309c:	4c495350 	mcrrmi	3, 5, r5, r9, cr0
    30a0:	5f5f4e4f 	svcpl	0x005f4e4f
    30a4:	312e3120 			; <UNDEFINED> instruction: 0x312e3120
    30a8:	39303239 	ldmdbcc	r0!, {r0, r3, r4, r5, r9, ip, sp}
    30ac:	35393832 	ldrcc	r3, [r9, #-2098]!	; 0xfffff7ce
    30b0:	38373035 	ldmdacc	r7!, {r0, r2, r4, r5, ip, sp}
    30b4:	65353231 	ldrvs	r3, [r5, #-561]!	; 0xfffffdcf
    30b8:	0046372d 	subeq	r3, r6, sp, lsr #14
    30bc:	53585f5f 	cmppl	r8, #380	; 0x17c
    30c0:	4e495254 	mcrmi	2, 2, r5, cr9, cr4, {2}
    30c4:	29782847 	ldmdbcs	r8!, {r0, r1, r2, r6, fp, sp}^
    30c8:	535f5f20 	cmppl	pc, #32, 30	; 0x80
    30cc:	4e495254 	mcrmi	2, 2, r5, cr9, cr4, {2}
    30d0:	29782847 	ldmdbcs	r8!, {r0, r1, r2, r6, fp, sp}^
    30d4:	615f5f00 	cmpvs	pc, r0, lsl #30
    30d8:	69727474 	ldmdbvs	r2!, {r2, r4, r5, r6, sl, ip, sp, lr}^
    30dc:	65747562 	ldrbvs	r7, [r4, #-1378]!	; 0xfffffa9e
    30e0:	7275705f 	rsbsvc	r7, r5, #95	; 0x5f
    30e4:	205f5f65 	subscs	r5, pc, r5, ror #30
    30e8:	475f5f00 	ldrbmi	r5, [pc, -r0, lsl #30]
    30ec:	415f4343 	cmpmi	pc, r3, asr #6
    30f0:	494d4f54 	stmdbmi	sp, {r2, r4, r6, r8, r9, sl, fp, lr}^
    30f4:	48535f43 	ldmdami	r3, {r0, r1, r6, r8, r9, sl, fp, ip, lr}^
    30f8:	5f54524f 	svcpl	0x0054524f
    30fc:	4b434f4c 	blmi	10d6e34 <_Min_Stack_Size+0x10d6a34>
    3100:	4552465f 	ldrbmi	r4, [r2, #-1631]	; 0xfffff9a1
    3104:	00322045 	eorseq	r2, r2, r5, asr #32
    3108:	31495053 	qdaddcc	r5, r3, r9
    310c:	53282820 			; <UNDEFINED> instruction: 0x53282820
    3110:	545f4950 	ldrbpl	r4, [pc], #-2384	; 3118 <_Min_Stack_Size+0x2d18>
    3114:	64657079 	strbtvs	r7, [r5], #-121	; 0xffffff87
    3118:	745f6665 	ldrbvc	r6, [pc], #-1637	; 3120 <_Min_Stack_Size+0x2d20>
    311c:	53292a20 			; <UNDEFINED> instruction: 0x53292a20
    3120:	5f314950 	svcpl	0x00314950
    3124:	45534142 	ldrbmi	r4, [r3, #-322]	; 0xfffffebe
    3128:	5f5f0029 	svcpl	0x005f0029
    312c:	5f4d5241 	svcpl	0x004d5241
    3130:	48435241 	stmdami	r3, {r0, r6, r9, ip, lr}^
    3134:	4153495f 	cmpmi	r3, pc, asr r9
    3138:	5548545f 	strbpl	r5, [r8, #-1119]	; 0xfffffba1
    313c:	4500424d 	strmi	r4, [r0, #-589]	; 0xfffffdb3
    3140:	20495458 	subcs	r5, r9, r8, asr r4
    3144:	58452828 	stmdapl	r5, {r3, r5, fp, sp}^
    3148:	545f4954 	ldrbpl	r4, [pc], #-2388	; 3150 <_Min_Stack_Size+0x2d50>
    314c:	64657079 	strbtvs	r7, [r5], #-121	; 0xffffff87
    3150:	745f6665 	ldrbvc	r6, [pc], #-1637	; 3158 <_Min_Stack_Size+0x2d58>
    3154:	45292a20 	strmi	r2, [r9, #-2592]!	; 0xfffff5e0
    3158:	5f495458 	svcpl	0x00495458
    315c:	45534142 	ldrbmi	r4, [r3, #-322]	; 0xfffffebe
    3160:	52490029 	subpl	r0, r9, #41	; 0x29
    3164:	6c465f51 	mcrrvs	15, 5, r5, r6, cr1
    3168:	5f006761 	svcpl	0x00006761
    316c:	554e475f 	strbpl	r4, [lr, #-1887]	; 0xfffff8a1
    3170:	4b494c43 	blmi	1256284 <_Min_Stack_Size+0x1255e84>
    3174:	55425f45 	strbpl	r5, [r2, #-3909]	; 0xfffff0bb
    3178:	49544c49 	ldmdbmi	r4, {r0, r3, r6, sl, fp, lr}^
    317c:	41565f4e 	cmpmi	r6, lr, asr #30
    3180:	47524152 			; <UNDEFINED> instruction: 0x47524152
    3184:	00312053 	eorseq	r2, r1, r3, asr r0
    3188:	334d4954 	movtcc	r4, #55636	; 0xd954
    318c:	5341425f 	movtpl	r4, #4703	; 0x125f
    3190:	78302045 	ldmdavc	r0!, {r0, r2, r6, sp}
    3194:	30303034 	eorscc	r3, r0, r4, lsr r0
    3198:	30303430 	eorscc	r3, r0, r0, lsr r4
    319c:	5f5f0075 	svcpl	0x005f0075
    31a0:	5f504656 	svcpl	0x00504656
    31a4:	5f5f5046 	svcpl	0x005f5046
    31a8:	5f003120 	svcpl	0x00003120
    31ac:	4e49555f 	mcrmi	5, 2, r5, cr9, cr15, {2}
    31b0:	545f3854 	ldrbpl	r3, [pc], #-2132	; 31b8 <_Min_Stack_Size+0x2db8>
    31b4:	5f455059 	svcpl	0x00455059
    31b8:	6e75205f 	mrcvs	0, 3, r2, cr5, cr15, {2}
    31bc:	6e676973 			; <UNDEFINED> instruction: 0x6e676973
    31c0:	63206465 			; <UNDEFINED> instruction: 0x63206465
    31c4:	00726168 	rsbseq	r6, r2, r8, ror #2
    31c8:	54524155 	ldrbpl	r4, [r2], #-341	; 0xfffffeab
    31cc:	41425f34 	cmpmi	r2, r4, lsr pc
    31d0:	30204553 	eorcc	r4, r0, r3, asr r5
    31d4:	30303478 	eorscc	r3, r0, r8, ror r4
    31d8:	30433430 	subcc	r3, r3, r0, lsr r4
    31dc:	49007530 	stmdbmi	r0, {r4, r5, r8, sl, ip, sp, lr}
    31e0:	4c5f544e 	cfldrdmi	mvd5, [pc], {78}	; 0x4e
    31e4:	54534145 	ldrbpl	r4, [r3], #-325	; 0xfffffebb
    31e8:	4d5f3233 	lfmmi	f3, 2, [pc, #-204]	; 3124 <_Min_Stack_Size+0x2d24>
    31ec:	28204e49 	stmdacs	r0!, {r0, r3, r6, r9, sl, fp, lr}
    31f0:	495f5f2d 	ldmdbmi	pc, {r0, r2, r3, r5, r8, r9, sl, fp, ip, lr}^	; <UNPREDICTABLE>
    31f4:	4c5f544e 	cfldrdmi	mvd5, [pc], {78}	; 0x4e
    31f8:	54534145 	ldrbpl	r4, [r3], #-325	; 0xfffffebb
    31fc:	4d5f3233 	lfmmi	f3, 2, [pc, #-204]	; 3138 <_Min_Stack_Size+0x2d38>
    3200:	5f5f5841 	svcpl	0x005f5841
    3204:	31202d20 			; <UNDEFINED> instruction: 0x31202d20
    3208:	2e2e0029 	cdpcs	0, 2, cr0, cr14, cr9, {1}
    320c:	6372532f 	cmnvs	r2, #-1140850688	; 0xbc000000
    3210:	69616d2f 	stmdbvs	r1!, {r0, r1, r2, r3, r5, r8, sl, fp, sp, lr}^
    3214:	00632e6e 	rsbeq	r2, r3, lr, ror #28
    3218:	544e4955 	strbpl	r4, [lr], #-2389	; 0xfffff6ab
    321c:	4d5f3233 	lfmmi	f3, 2, [pc, #-204]	; 3158 <_Min_Stack_Size+0x2d58>
    3220:	28205841 	stmdacs	r0!, {r0, r6, fp, ip, lr}
    3224:	49555f5f 	ldmdbmi	r5, {r0, r1, r2, r3, r4, r6, r8, r9, sl, fp, ip, lr}^
    3228:	3233544e 	eorscc	r5, r3, #1308622848	; 0x4e000000
    322c:	58414d5f 	stmdapl	r1, {r0, r1, r2, r3, r4, r6, r8, sl, fp, lr}^
    3230:	00295f5f 	eoreq	r5, r9, pc, asr pc
    3234:	49545845 	ldmdbmi	r4, {r0, r2, r6, fp, ip, lr}^
    3238:	44503531 	ldrbmi	r3, [r0], #-1329	; 0xfffffacf
    323c:	28203531 	stmdacs	r0!, {r0, r4, r5, r8, sl, ip, sp}
    3240:	49545845 	ldmdbmi	r4, {r0, r2, r6, fp, ip, lr}^
    3244:	4950475f 	ldmdbmi	r0, {r0, r1, r2, r3, r4, r6, r8, r9, sl, lr}^
    3248:	614d5f4f 	cmpvs	sp, pc, asr #30
    324c:	6e697070 	mcrvs	0, 3, r7, cr9, cr0, {3}
    3250:	29745f67 	ldmdbcs	r4!, {r0, r1, r2, r5, r6, r8, r9, sl, fp, ip, lr}^
    3254:	5458457b 	ldrbpl	r4, [r8], #-1403	; 0xfffffa85
    3258:	2c353149 	ldfcss	f3, [r5], #-292	; 0xfffffedc
    325c:	49504720 	ldmdbmi	r0, {r5, r8, r9, sl, lr}^
    3260:	202c444f 	eorcs	r4, ip, pc, asr #8
    3264:	4f495047 	svcmi	0x00495047
    3268:	4e49505f 	mcrmi	0, 2, r5, cr9, cr15, {2}
    326c:	2c35315f 	ldfcss	f3, [r5], #-380	; 0xfffffe84
    3270:	54584520 	ldrbpl	r4, [r8], #-1312	; 0xfffffae0
    3274:	5f353149 	svcpl	0x00353149
    3278:	7d515249 	lfmvc	f5, 2, [r1, #-292]	; 0xfffffedc
    327c:	555f5f00 	ldrbpl	r5, [pc, #-3840]	; 2384 <_Min_Stack_Size+0x1f84>
    3280:	43434153 	movtmi	r4, #12627	; 0x3153
    3284:	465f4d55 			; <UNDEFINED> instruction: 0x465f4d55
    3288:	5f544942 	svcpl	0x00544942
    328c:	0038205f 	eorseq	r2, r8, pc, asr r0
    3290:	4d415253 	sfmmi	f5, 2, [r1, #-332]	; 0xfffffeb4
    3294:	5341425f 	movtpl	r4, #4703	; 0x125f
    3298:	78302045 	ldmdavc	r0!, {r0, r2, r6, sp}
    329c:	30303032 	eorscc	r3, r0, r2, lsr r0
    32a0:	30303030 	eorscc	r3, r0, r0, lsr r0
    32a4:	5f5f0075 	svcpl	0x005f0075
    32a8:	5f434347 	svcpl	0x00434347
    32ac:	4d4f5441 	cfstrdmi	mvd5, [pc, #-260]	; 31b0 <_Min_Stack_Size+0x2db0>
    32b0:	545f4349 	ldrbpl	r4, [pc], #-841	; 32b8 <_Min_Stack_Size+0x2eb8>
    32b4:	5f545345 	svcpl	0x00545345
    32b8:	5f444e41 	svcpl	0x00444e41
    32bc:	5f544553 	svcpl	0x00544553
    32c0:	45555254 	ldrbmi	r5, [r5, #-596]	; 0xfffffdac
    32c4:	204c4156 	subcs	r4, ip, r6, asr r1
    32c8:	5f5f0031 	svcpl	0x005f0031
    32cc:	5f464c45 	svcpl	0x00464c45
    32d0:	0031205f 	eorseq	r2, r1, pc, asr r0
    32d4:	52434442 	subpl	r4, r3, #1107296256	; 0x42000000
    32d8:	49504700 	ldmdbmi	r0, {r8, r9, sl, lr}^
    32dc:	49505f4f 	ldmdbmi	r0, {r0, r1, r2, r3, r6, r8, r9, sl, fp, ip, lr}^
    32e0:	45525f4e 	ldrbmi	r5, [r2, #-3918]	; 0xfffff0b2
    32e4:	20544553 	subscs	r4, r4, r3, asr r5
    32e8:	5f5f0030 	svcpl	0x005f0030
    32ec:	33544c46 	cmpcc	r4, #17920	; 0x4600
    32f0:	41485f32 	cmpmi	r8, r2, lsr pc
    32f4:	55515f53 	ldrbpl	r5, [r1, #-3923]	; 0xfffff0ad
    32f8:	5f544549 	svcpl	0x00544549
    32fc:	5f4e414e 	svcpl	0x004e414e
    3300:	0031205f 	eorseq	r2, r1, pc, asr r0
    3304:	52415f5f 	subpl	r5, r1, #380	; 0x17c
    3308:	45465f4d 	strbmi	r5, [r6, #-3917]	; 0xfffff0b3
    330c:	52555441 	subspl	r5, r5, #1090519040	; 0x41000000
    3310:	414d5f45 	cmpmi	sp, r5, asr #30
    3314:	4c554d54 	mrrcmi	13, 5, r4, r5, cr4
    3318:	544e495f 	strbpl	r4, [lr], #-2399	; 0xfffff6a1
    331c:	5f5f0038 	svcpl	0x005f0038
    3320:	4f53424f 	svcmi	0x0053424f
    3324:	4554454c 	ldrbmi	r4, [r4, #-1356]	; 0xfffffab4
    3328:	54414d5f 	strbpl	r4, [r1], #-3423	; 0xfffff2a1
    332c:	5f5f2048 	svcpl	0x005f2048
    3330:	4f53424f 	svcmi	0x0053424f
    3334:	4554454c 	ldrbmi	r4, [r4, #-1356]	; 0xfffffab4
    3338:	54414d5f 	strbpl	r4, [r1], #-3423	; 0xfffff2a1
    333c:	45445f48 	strbmi	r5, [r4, #-3912]	; 0xfffff0b8
    3340:	4c554146 	ldfmie	f4, [r5], {70}	; 0x46
    3344:	5f5f0054 	svcpl	0x005f0054
    3348:	4c42444c 	cfstrdmi	mvd4, [r2], {76}	; 0x4c
    334c:	5341485f 	movtpl	r4, #6239	; 0x185f
    3350:	464e495f 			; <UNDEFINED> instruction: 0x464e495f
    3354:	54494e49 	strbpl	r4, [r9], #-3657	; 0xfffff1b7
    3358:	205f5f59 	subscs	r5, pc, r9, asr pc	; <UNPREDICTABLE>
    335c:	58450031 	stmdapl	r5, {r0, r4, r5}^
    3360:	50324954 	eorspl	r4, r2, r4, asr r9
    3364:	28203243 	stmdacs	r0!, {r0, r1, r6, r9, ip, sp}
    3368:	49545845 	ldmdbmi	r4, {r0, r2, r6, fp, ip, lr}^
    336c:	4950475f 	ldmdbmi	r0, {r0, r1, r2, r3, r4, r6, r8, r9, sl, lr}^
    3370:	614d5f4f 	cmpvs	sp, pc, asr #30
    3374:	6e697070 	mcrvs	0, 3, r7, cr9, cr0, {3}
    3378:	29745f67 	ldmdbcs	r4!, {r0, r1, r2, r5, r6, r8, r9, sl, fp, ip, lr}^
    337c:	5458457b 	ldrbpl	r4, [r8], #-1403	; 0xfffffa85
    3380:	202c3249 	eorcs	r3, ip, r9, asr #4
    3384:	4f495047 	svcmi	0x00495047
    3388:	47202c43 	strmi	r2, [r0, -r3, asr #24]!
    338c:	5f4f4950 	svcpl	0x004f4950
    3390:	5f4e4950 	svcpl	0x004e4950
    3394:	45202c32 	strmi	r2, [r0, #-3122]!	; 0xfffff3ce
    3398:	32495458 	subcc	r5, r9, #88, 8	; 0x58000000
    339c:	5152495f 	cmppl	r2, pc, asr r9
    33a0:	4955007d 	ldmdbmi	r5, {r0, r2, r3, r4, r5, r6}^
    33a4:	465f544e 	ldrbmi	r5, [pc], -lr, asr #8
    33a8:	36545341 	ldrbcc	r5, [r4], -r1, asr #6
    33ac:	414d5f34 	cmpmi	sp, r4, lsr pc
    33b0:	5f282058 	svcpl	0x00282058
    33b4:	4e49555f 	mcrmi	5, 2, r5, cr9, cr15, {2}
    33b8:	41465f54 	cmpmi	r6, r4, asr pc
    33bc:	34365453 	ldrtcc	r5, [r6], #-1107	; 0xfffffbad
    33c0:	58414d5f 	stmdapl	r1, {r0, r1, r2, r3, r4, r6, r8, sl, fp, lr}^
    33c4:	00295f5f 	eoreq	r5, r9, pc, asr pc
    33c8:	41545f5f 	cmpmi	r4, pc, asr pc
    33cc:	4942465f 	stmdbmi	r2, {r0, r1, r2, r3, r4, r6, r9, sl, lr}^
    33d0:	205f5f54 	subscs	r5, pc, r4, asr pc	; <UNPREDICTABLE>
    33d4:	45003336 	strmi	r3, [r0, #-822]	; 0xfffffcca
    33d8:	30495458 	subcc	r5, r9, r8, asr r4
    33dc:	47003020 	strmi	r3, [r0, -r0, lsr #32]
    33e0:	5f4f4950 	svcpl	0x004f4950
    33e4:	5f4e4950 	svcpl	0x004e4950
    33e8:	28203331 	stmdacs	r0!, {r0, r4, r5, r8, r9, ip, sp}
    33ec:	6e697528 	cdpvs	5, 6, cr7, cr9, cr8, {1}
    33f0:	5f363174 	svcpl	0x00363174
    33f4:	30202974 	eorcc	r2, r0, r4, ror r9
    33f8:	30303278 	eorscc	r3, r0, r8, ror r2
    33fc:	45002930 	strmi	r2, [r0, #-2352]	; 0xfffff6d0
    3400:	33495458 	movtcc	r5, #37976	; 0x9458
    3404:	5152495f 	cmppl	r2, pc, asr r9
    3408:	54003920 	strpl	r3, [r0], #-2336	; 0xfffff6e0
    340c:	31314d49 	teqcc	r1, r9, asr #26
    3410:	5341425f 	movtpl	r4, #4703	; 0x125f
    3414:	78302045 	ldmdavc	r0!, {r0, r2, r6, sp}
    3418:	31303034 	teqcc	r0, r4, lsr r0
    341c:	30303435 	eorscc	r3, r0, r5, lsr r4
    3420:	5f5f0075 	svcpl	0x005f0075
    3424:	33544c46 	cmpcc	r4, #17920	; 0x4600
    3428:	4d5f5832 	ldclmi	8, cr5, [pc, #-200]	; 3368 <_Min_Stack_Size+0x2f68>
    342c:	315f5841 	cmpcc	pc, r1, asr #16
    3430:	58455f30 	stmdapl	r5, {r4, r5, r8, r9, sl, fp, ip, lr}^
    3434:	205f5f50 	subscs	r5, pc, r0, asr pc	; <UNPREDICTABLE>
    3438:	00383033 	eorseq	r3, r8, r3, lsr r0
    343c:	52415f5f 	subpl	r5, r1, #380	; 0x17c
    3440:	52415f4d 	subpl	r5, r1, #308	; 0x134
    3444:	455f4843 	ldrbmi	r4, [pc, #-2115]	; 2c09 <_Min_Stack_Size+0x2809>
    3448:	495f5458 	ldmdbmi	pc, {r3, r4, r6, sl, ip, lr}^	; <UNPREDICTABLE>
    344c:	5f564944 	svcpl	0x00564944
    3450:	0031205f 	eorseq	r2, r1, pc, asr r0
    3454:	52415f5f 	subpl	r5, r1, #380	; 0x17c
    3458:	43505f4d 	cmpmi	r0, #308	; 0x134
    345c:	00312053 	eorseq	r2, r1, r3, asr r0
    3460:	75705f5f 	ldrbvc	r5, [r0, #-3935]!	; 0xfffff0a1
    3464:	5f206572 	svcpl	0x00206572
    3468:	7474615f 	ldrbtvc	r6, [r4], #-351	; 0xfffffea1
    346c:	75626972 	strbvc	r6, [r2, #-2418]!	; 0xfffff68e
    3470:	5f5f6574 	svcpl	0x005f6574
    3474:	5f5f2828 	svcpl	0x005f2828
    3478:	65727570 	ldrbvs	r7, [r2, #-1392]!	; 0xfffffa90
    347c:	29295f5f 	stmdbcs	r9!, {r0, r1, r2, r3, r4, r6, r8, r9, sl, fp, ip, lr}
    3480:	535f5f00 	cmppl	pc, #0, 30
    3484:	415f4749 	cmpmi	pc, r9, asr #14
    3488:	494d4f54 	stmdbmi	sp, {r2, r4, r6, r8, r9, sl, fp, lr}^
    348c:	494d5f43 	stmdbmi	sp, {r0, r1, r6, r8, r9, sl, fp, ip, lr}^
    3490:	205f5f4e 	subscs	r5, pc, lr, asr #30
    3494:	5f5f2d28 	svcpl	0x005f2d28
    3498:	5f474953 	svcpl	0x00474953
    349c:	4d4f5441 	cfstrdmi	mvd5, [pc, #-260]	; 33a0 <_Min_Stack_Size+0x2fa0>
    34a0:	4d5f4349 	ldclmi	3, cr4, [pc, #-292]	; 3384 <_Min_Stack_Size+0x2f84>
    34a4:	5f5f5841 	svcpl	0x005f5841
    34a8:	31202d20 			; <UNDEFINED> instruction: 0x31202d20
    34ac:	3a440029 	bcc	1103558 <_Min_Stack_Size+0x1103158>
    34b0:	6972442f 	ldmdbvs	r2!, {r0, r1, r2, r3, r5, sl, lr}^
    34b4:	73726576 	cmnvc	r2, #494927872	; 0x1d800000
    34b8:	6265442f 	rsbvs	r4, r5, #788529152	; 0x2f000000
    34bc:	45006775 	strmi	r6, [r0, #-1909]	; 0xfffff88b
    34c0:	35495458 	strbcc	r5, [r9, #-1112]	; 0xfffffba8
    34c4:	5f003520 	svcpl	0x00003520
    34c8:	4e454552 	mcrmi	5, 2, r4, cr5, cr2, {2}
    34cc:	48435f54 	stmdami	r3, {r2, r4, r6, r8, r9, sl, fp, ip, lr}^
    34d0:	5f4b4345 	svcpl	0x004b4345
    34d4:	54435341 	strbpl	r5, [r3], #-833	; 0xfffffcbf
    34d8:	5f454d49 	svcpl	0x00454d49
    34dc:	28465542 	stmdacs	r6, {r1, r6, r8, sl, ip, lr}^
    34e0:	29726176 	ldmdbcs	r2!, {r1, r2, r4, r5, r6, r8, sp, lr}^
    34e4:	45525f20 	ldrbmi	r5, [r2, #-3872]	; 0xfffff0e0
    34e8:	5f544e45 	svcpl	0x00544e45
    34ec:	43454843 	movtmi	r4, #22595	; 0x5843
    34f0:	6176284b 	cmnvs	r6, fp, asr #16
    34f4:	5f202c72 	svcpl	0x00202c72
    34f8:	74637361 	strbtvc	r7, [r3], #-865	; 0xfffffc9f
    34fc:	5f656d69 	svcpl	0x00656d69
    3500:	2c667562 	cfstr64cs	mvdx7, [r6], #-392	; 0xfffffe78
    3504:	61686320 	cmnvs	r8, r0, lsr #6
    3508:	2c2a2072 	stccs	0, cr2, [sl], #-456	; 0xfffffe38
    350c:	45525f20 	ldrbmi	r5, [r2, #-3872]	; 0xfffff0e0
    3510:	5f544e45 	svcpl	0x00544e45
    3514:	54435341 	strbpl	r5, [r3], #-833	; 0xfffffcbf
    3518:	5f454d49 	svcpl	0x00454d49
    351c:	455a4953 	ldrbmi	r4, [sl, #-2387]	; 0xfffff6ad
    3520:	656d202c 	strbvs	r2, [sp, #-44]!	; 0xffffffd4
    3524:	7465736d 	strbtvc	r7, [r5], #-877	; 0xfffffc93
    3528:	61762828 	cmnvs	r6, r8, lsr #16
    352c:	3e2d2972 			; <UNDEFINED> instruction: 0x3e2d2972
    3530:	6373615f 	cmnvs	r3, #-1073741801	; 0xc0000017
    3534:	656d6974 	strbvs	r6, [sp, #-2420]!	; 0xfffff68c
    3538:	6675625f 			; <UNDEFINED> instruction: 0x6675625f
    353c:	2c30202c 	ldccs	0, cr2, [r0], #-176	; 0xffffff50
    3540:	45525f20 	ldrbmi	r5, [r2, #-3872]	; 0xfffff0e0
    3544:	5f544e45 	svcpl	0x00544e45
    3548:	54435341 	strbpl	r5, [r3], #-833	; 0xfffffcbf
    354c:	5f454d49 	svcpl	0x00454d49
    3550:	455a4953 	ldrbmi	r4, [sl, #-2387]	; 0xfffff6ad
    3554:	45002929 	strmi	r2, [r0, #-2345]	; 0xfffff6d7
    3558:	30495458 	subcc	r5, r9, r8, asr r4
    355c:	20304250 	eorscs	r4, r0, r0, asr r2
    3560:	54584528 	ldrbpl	r4, [r8], #-1320	; 0xfffffad8
    3564:	50475f49 	subpl	r5, r7, r9, asr #30
    3568:	4d5f4f49 	ldclmi	15, cr4, [pc, #-292]	; 344c <_Min_Stack_Size+0x304c>
    356c:	69707061 	ldmdbvs	r0!, {r0, r5, r6, ip, sp, lr}^
    3570:	745f676e 	ldrbvc	r6, [pc], #-1902	; 3578 <_Min_Stack_Size+0x3178>
    3574:	58457b29 	stmdapl	r5, {r0, r3, r5, r8, r9, fp, ip, sp, lr}^
    3578:	2c304954 			; <UNDEFINED> instruction: 0x2c304954
    357c:	49504720 	ldmdbmi	r0, {r5, r8, r9, sl, lr}^
    3580:	202c424f 	eorcs	r4, ip, pc, asr #4
    3584:	4f495047 	svcmi	0x00495047
    3588:	4e49505f 	mcrmi	0, 2, r5, cr9, cr15, {2}
    358c:	202c305f 	eorcs	r3, ip, pc, asr r0
    3590:	49545845 	ldmdbmi	r4, {r0, r2, r6, fp, ip, lr}^
    3594:	52495f30 	subpl	r5, r9, #48, 30	; 0xc0
    3598:	5f007d51 	svcpl	0x00007d51
    359c:	5f445342 	svcpl	0x00445342
    35a0:	41484357 	cmpmi	r8, r7, asr r3
    35a4:	5f545f52 	svcpl	0x00545f52
    35a8:	59530020 	ldmdbpl	r3, {r5}^
    35ac:	4d455453 	cfstrdmi	mvd5, [r5, #-332]	; 0xfffffeb4
    35b0:	4d454d5f 	stclmi	13, cr4, [r5, #-380]	; 0xfffffe84
    35b4:	5f59524f 	svcpl	0x0059524f
    35b8:	45534142 	ldrbmi	r4, [r3, #-322]	; 0xfffffebe
    35bc:	31783020 	cmncc	r8, r0, lsr #32
    35c0:	46464646 	strbmi	r4, [r6], -r6, asr #12
    35c4:	75303030 	ldrvc	r3, [r0, #-48]!	; 0xffffffd0
    35c8:	6e5f5f00 	cdpvs	15, 5, cr5, cr15, cr0, {0}
    35cc:	6e61736f 	cdpvs	3, 6, cr7, cr1, cr15, {3}
    35d0:	7a697469 	bvc	1a6077c <_Min_Stack_Size+0x1a6037c>
    35d4:	64646165 	strbtvs	r6, [r4], #-357	; 0xfffffe9b
    35d8:	73736572 	cmnvc	r3, #478150656	; 0x1c800000
    35dc:	525f0020 	subspl	r0, pc, #32
    35e0:	544e4545 	strbpl	r4, [lr], #-1349	; 0xfffffabb
    35e4:	5f504d5f 	svcpl	0x00504d5f
    35e8:	28533550 	ldmdacs	r3, {r4, r6, r8, sl, ip, sp}^
    35ec:	29727470 	ldmdbcs	r2!, {r4, r5, r6, sl, ip, sp, lr}^
    35f0:	70282820 	eorvc	r2, r8, r0, lsr #16
    35f4:	2d297274 	sfmcs	f7, 4, [r9, #-464]!	; 0xfffffe30
    35f8:	706d5f3e 	rsbvc	r5, sp, lr, lsr pc
    35fc:	705f3e2d 	subsvc	r3, pc, sp, lsr #28
    3600:	00297335 	eoreq	r7, r9, r5, lsr r3
    3604:	52505f5f 	subspl	r5, r0, #380	; 0x17c
    3608:	414d4741 	cmpmi	sp, r1, asr #14
    360c:	4445525f 	strbmi	r5, [r5], #-607	; 0xfffffda1
    3610:	4e494645 	cdpmi	6, 4, cr4, cr9, cr5, {2}
    3614:	58455f45 	stmdapl	r5, {r0, r2, r6, r8, r9, sl, fp, ip, lr}^
    3618:	4d414e54 	stclmi	14, cr4, [r1, #-336]	; 0xfffffeb0
    361c:	00312045 	eorseq	r2, r1, r5, asr #32
    3620:	544e4955 	strbpl	r4, [lr], #-2389	; 0xfffff6ab
    3624:	435f3631 	cmpmi	pc, #51380224	; 0x3100000
    3628:	20297828 	eorcs	r7, r9, r8, lsr #16
    362c:	49555f5f 	ldmdbmi	r5, {r0, r1, r2, r3, r4, r6, r8, r9, sl, fp, ip, lr}^
    3630:	3631544e 	ldrtcc	r5, [r1], -lr, asr #8
    3634:	7828435f 	stmdavc	r8!, {r0, r1, r2, r3, r4, r6, r8, r9, lr}
    3638:	495f0029 	ldmdbmi	pc, {r0, r3, r5}^	; <UNPREDICTABLE>
    363c:	3631544e 	ldrtcc	r5, [r1], -lr, asr #8
    3640:	445f545f 	ldrbmi	r5, [pc], #-1119	; 3648 <_Min_Stack_Size+0x3248>
    3644:	414c4345 	cmpmi	ip, r5, asr #6
    3648:	20444552 	subcs	r4, r4, r2, asr r5
    364c:	54584500 	ldrbpl	r4, [r8], #-1280	; 0xfffffb00
    3650:	41503949 	cmpmi	r0, r9, asr #18
    3654:	45282039 	strmi	r2, [r8, #-57]!	; 0xffffffc7
    3658:	5f495458 	svcpl	0x00495458
    365c:	4f495047 	svcmi	0x00495047
    3660:	70614d5f 	rsbvc	r4, r1, pc, asr sp
    3664:	676e6970 			; <UNDEFINED> instruction: 0x676e6970
    3668:	7b29745f 	blvc	a607ec <_Min_Stack_Size+0xa603ec>
    366c:	49545845 	ldmdbmi	r4, {r0, r2, r6, fp, ip, lr}^
    3670:	47202c39 			; <UNDEFINED> instruction: 0x47202c39
    3674:	414f4950 	cmpmi	pc, r0, asr r9	; <UNPREDICTABLE>
    3678:	5047202c 	subpl	r2, r7, ip, lsr #32
    367c:	505f4f49 	subspl	r4, pc, r9, asr #30
    3680:	395f4e49 	ldmdbcc	pc, {r0, r3, r6, r9, sl, fp, lr}^	; <UNPREDICTABLE>
    3684:	5845202c 	stmdapl	r5, {r2, r3, r5, sp}^
    3688:	5f394954 	svcpl	0x00394954
    368c:	7d515249 	lfmvc	f5, 2, [r1, #-292]	; 0xfffffedc
    3690:	41535500 	cmpmi	r3, r0, lsl #10
    3694:	20315452 	eorscs	r5, r1, r2, asr r4
    3698:	53552828 	cmppl	r5, #40, 16	; 0x280000
    369c:	5f545241 	svcpl	0x00545241
    36a0:	65707954 	ldrbvs	r7, [r0, #-2388]!	; 0xfffff6ac
    36a4:	5f666564 	svcpl	0x00666564
    36a8:	292a2074 	stmdbcs	sl!, {r2, r4, r5, r6, sp}
    36ac:	52415355 	subpl	r5, r1, #1409286145	; 0x54000001
    36b0:	425f3154 	subsmi	r3, pc, #84, 2
    36b4:	29455341 	stmdbcs	r5, {r0, r6, r8, r9, ip, lr}^
    36b8:	495f5f00 	ldmdbmi	pc, {r8, r9, sl, fp, ip, lr}^	; <UNPREDICTABLE>
    36bc:	4c5f544e 	cfldrdmi	mvd5, [pc], {78}	; 0x4e
    36c0:	54534145 	ldrbpl	r4, [r3], #-325	; 0xfffffebb
    36c4:	575f3631 	smmlarpl	pc, r1, r6, r3	; <UNPREDICTABLE>
    36c8:	48544449 	ldmdami	r4, {r0, r3, r6, sl, lr}^
    36cc:	31205f5f 			; <UNDEFINED> instruction: 0x31205f5f
    36d0:	43520036 	cmpmi	r2, #54	; 0x36
    36d4:	53555f43 	cmppl	r5, #268	; 0x10c
    36d8:	31545241 	cmpcc	r4, r1, asr #4
    36dc:	4b4c435f 	blmi	1314460 <_Min_Stack_Size+0x1314060>
    36e0:	284e455f 	stmdacs	lr, {r0, r1, r2, r3, r4, r6, r8, sl, lr}^
    36e4:	52282029 	eorpl	r2, r8, #41	; 0x29
    36e8:	3e2d4343 	cdpcc	3, 2, cr4, cr13, cr3, {2}
    36ec:	32425041 	subcc	r5, r2, #65	; 0x41
    36f0:	20524e45 	subscs	r4, r2, r5, asr #28
    36f4:	28203d7c 	stmdacs	r0!, {r2, r3, r4, r5, r6, r8, sl, fp, ip, sp}
    36f8:	313c3c31 	teqcc	ip, r1, lsr ip
    36fc:	00292934 	eoreq	r2, r9, r4, lsr r9
    3700:	45445f5f 	strbmi	r5, [r4, #-3935]	; 0xfffff0a1
    3704:	56455f43 	strbpl	r5, [r5], -r3, asr #30
    3708:	4d5f4c41 	ldclmi	12, cr4, [pc, #-260]	; 360c <_Min_Stack_Size+0x320c>
    370c:	4f485445 	svcmi	0x00485445
    3710:	205f5f44 	subscs	r5, pc, r4, asr #30
    3714:	5f5f0032 	svcpl	0x005f0032
    3718:	5f4d5241 	svcpl	0x004d5241
    371c:	54414546 	strbpl	r4, [r1], #-1350	; 0xfffffaba
    3720:	5f455255 	svcpl	0x00455255
    3724:	36315046 	ldrtcc	r5, [r1], -r6, asr #32
    3728:	4c4d465f 	mcrrmi	6, 5, r4, sp, cr15
    372c:	555f5f00 	ldrbpl	r5, [pc, #-3840]	; 2834 <_Min_Stack_Size+0x2434>
    3730:	495f4148 	ldmdbmi	pc, {r3, r6, r8, lr}^	; <UNPREDICTABLE>
    3734:	5f544942 	svcpl	0x00544942
    3738:	0038205f 	eorseq	r2, r8, pc, asr r0
    373c:	65725f5f 	ldrbvs	r5, [r2, #-3935]!	; 0xfffff0a1
    3740:	69727473 	ldmdbvs	r2!, {r0, r1, r4, r5, r6, sl, ip, sp, lr}^
    3744:	72207463 	eorvc	r7, r0, #1660944384	; 0x63000000
    3748:	72747365 	rsbsvc	r7, r4, #-1811939327	; 0x94000001
    374c:	00746369 	rsbseq	r6, r4, r9, ror #6
    3750:	53555f5f 	cmppl	r5, #380	; 0x17c
    3754:	43415246 	movtmi	r5, #4678	; 0x1246
    3758:	50455f54 	subpl	r5, r5, r4, asr pc
    375c:	4f4c4953 	svcmi	0x004c4953
    3760:	205f5f4e 	subscs	r5, pc, lr, asr #30
    3764:	50317830 	eorspl	r7, r1, r0, lsr r8
    3768:	4855382d 	ldmdami	r5, {r0, r2, r3, r5, fp, ip, sp}^
    376c:	554e0052 	strbpl	r0, [lr, #-82]	; 0xffffffae
    3770:	28204c4c 	stmdacs	r0!, {r2, r3, r6, sl, fp, lr}
    3774:	696f7628 	stmdbvs	pc!, {r3, r5, r9, sl, ip, sp, lr}^	; <UNPREDICTABLE>
    3778:	292a2064 	stmdbcs	sl!, {r2, r5, r6, sp}
    377c:	5f002930 	svcpl	0x00002930
    3780:	7373615f 	cmnvc	r3, #-1073741801	; 0xc0000017
    3784:	73747265 	cmnvc	r4, #1342177286	; 0x50000006
    3788:	6378655f 	cmnvs	r8, #398458880	; 0x17c00000
    378c:	6973756c 	ldmdbvs	r3!, {r2, r3, r5, r6, r8, sl, ip, sp, lr}^
    3790:	2e286576 	mcrcs	5, 1, r6, cr8, cr6, {3}
    3794:	20292e2e 	eorcs	r2, r9, lr, lsr #28
    3798:	6f6c5f5f 	svcvs	0x006c5f5f
    379c:	615f6b63 	cmpvs	pc, r3, ror #22
    37a0:	746f6e6e 	strbtvc	r6, [pc], #-3694	; 37a8 <_Min_Stack_Size+0x33a8>
    37a4:	28657461 	stmdacs	r5!, {r0, r5, r6, sl, ip, sp, lr}^
    37a8:	65737361 	ldrbvs	r7, [r3, #-865]!	; 0xfffffc9f
    37ac:	655f7472 	ldrbvs	r7, [pc, #-1138]	; 3342 <_Min_Stack_Size+0x2f42>
    37b0:	756c6378 	strbvc	r6, [ip, #-888]!	; 0xfffffc88
    37b4:	65766973 	ldrbvs	r6, [r6, #-2419]!	; 0xfffff68d
    37b8:	636f6c5f 	cmnvs	pc, #24320	; 0x5f00
    37bc:	5f5f286b 	svcpl	0x005f286b
    37c0:	415f4156 	cmpmi	pc, r6, asr r1	; <UNPREDICTABLE>
    37c4:	5f534752 	svcpl	0x00534752
    37c8:	0029295f 	eoreq	r2, r9, pc, asr r9
    37cc:	52474643 	subpl	r4, r7, #70254592	; 0x4300000
    37d0:	49564e00 	ldmdbmi	r6, {r9, sl, fp, lr}^
    37d4:	53555f43 	cmppl	r5, #268	; 0x10c
    37d8:	31545241 	cmpcc	r4, r1, asr #4
    37dc:	5152495f 	cmppl	r2, pc, asr r9
    37e0:	7369445f 	cmnvc	r9, #1593835520	; 0x5f000000
    37e4:	656c6261 	strbvs	r6, [ip, #-609]!	; 0xfffffd9f
    37e8:	564e2820 	strbpl	r2, [lr], -r0, lsr #16
    37ec:	495f4349 	ldmdbmi	pc, {r0, r3, r6, r8, r9, lr}^	; <UNPREDICTABLE>
    37f0:	31524543 	cmpcc	r2, r3, asr #10
    37f4:	203d7c20 	eorscs	r7, sp, r0, lsr #24
    37f8:	283c3c31 	ldmdacs	ip!, {r0, r4, r5, sl, fp, ip, sp}
    37fc:	52415355 	subpl	r5, r1, #1409286145	; 0x54000001
    3800:	495f3154 	ldmdbmi	pc, {r2, r4, r6, r8, ip, sp}^	; <UNPREDICTABLE>
    3804:	2d205152 	stfcss	f5, [r0, #-328]!	; 0xfffffeb8
    3808:	29323320 	ldmdbcs	r2!, {r5, r8, r9, ip, sp}
    380c:	5f5f0029 	svcpl	0x005f0029
    3810:	746e695f 	strbtvc	r6, [lr], #-2399	; 0xfffff6a1
    3814:	61656c5f 	cmnvs	r5, pc, asr ip
    3818:	32337473 	eorscc	r7, r3, #1929379840	; 0x73000000
    381c:	645f745f 	ldrbvs	r7, [pc], #-1119	; 3824 <_Min_Stack_Size+0x3424>
    3820:	6e696665 	cdpvs	6, 6, cr6, cr9, cr5, {3}
    3824:	31206465 			; <UNDEFINED> instruction: 0x31206465
    3828:	4c5f5f00 	mrrcmi	15, 0, r5, pc, cr0	; <UNPREDICTABLE>
    382c:	4343414c 	movtmi	r4, #12620	; 0x314c
    3830:	4d5f4d55 	ldclmi	13, cr4, [pc, #-340]	; 36e4 <_Min_Stack_Size+0x32e4>
    3834:	5f5f5841 	svcpl	0x005f5841
    3838:	37583020 	ldrbcc	r3, [r8, -r0, lsr #32]
    383c:	46464646 	strbmi	r4, [r6], -r6, asr #12
    3840:	46464646 	strbmi	r4, [r6], -r6, asr #12
    3844:	46464646 	strbmi	r4, [r6], -r6, asr #12
    3848:	50464646 	subpl	r4, r6, r6, asr #12
    384c:	4c31332d 	ldcmi	3, cr3, [r1], #-180	; 0xffffff4c
    3850:	5f004b4c 	svcpl	0x00004b4c
    3854:	65656e5f 	strbvs	r6, [r5, #-3679]!	; 0xfffff1a1
    3858:	554e5f64 	strbpl	r5, [lr, #-3940]	; 0xfffff09c
    385c:	45004c4c 	strmi	r4, [r0, #-3148]	; 0xfffff3b4
    3860:	31495458 	cmpcc	r9, r8, asr r4
    3864:	31415032 	cmpcc	r1, r2, lsr r0
    3868:	45282032 	strmi	r2, [r8, #-50]!	; 0xffffffce
    386c:	5f495458 	svcpl	0x00495458
    3870:	4f495047 	svcmi	0x00495047
    3874:	70614d5f 	rsbvc	r4, r1, pc, asr sp
    3878:	676e6970 			; <UNDEFINED> instruction: 0x676e6970
    387c:	7b29745f 	blvc	a60a00 <_Min_Stack_Size+0xa60600>
    3880:	49545845 	ldmdbmi	r4, {r0, r2, r6, fp, ip, lr}^
    3884:	202c3231 	eorcs	r3, ip, r1, lsr r2
    3888:	4f495047 	svcmi	0x00495047
    388c:	47202c41 	strmi	r2, [r0, -r1, asr #24]!
    3890:	5f4f4950 	svcpl	0x004f4950
    3894:	5f4e4950 	svcpl	0x004e4950
    3898:	202c3231 	eorcs	r3, ip, r1, lsr r2
    389c:	49545845 	ldmdbmi	r4, {r0, r2, r6, fp, ip, lr}^
    38a0:	495f3231 	ldmdbmi	pc, {r0, r4, r5, r9, ip, sp}^	; <UNPREDICTABLE>
    38a4:	007d5152 	rsbseq	r5, sp, r2, asr r1
    38a8:	4349564e 	movtmi	r5, #38478	; 0x964e
    38ac:	5458455f 	ldrbpl	r4, [r8], #-1375	; 0xfffffaa1
    38b0:	5f353149 	svcpl	0x00353149
    38b4:	495f3031 	ldmdbmi	pc, {r0, r4, r5, ip, sp}^	; <UNPREDICTABLE>
    38b8:	455f5152 	ldrbmi	r5, [pc, #-338]	; 376e <_Min_Stack_Size+0x336e>
    38bc:	6c62616e 	stfvse	f6, [r2], #-440	; 0xfffffe48
    38c0:	4e282065 	cdpmi	0, 2, cr2, cr8, cr5, {3}
    38c4:	5f434956 	svcpl	0x00434956
    38c8:	52455349 	subpl	r5, r5, #603979777	; 0x24000001
    38cc:	3d7c2031 	ldclcc	0, cr2, [ip, #-196]!	; 0xffffff3c
    38d0:	3c3c3120 	ldfccs	f3, [ip], #-128	; 0xffffff80
    38d4:	5f002938 	svcpl	0x00002938
    38d8:	4553555f 	ldrbmi	r5, [r3, #-1375]	; 0xfffffaa1
    38dc:	414c5f52 	cmpmi	ip, r2, asr pc
    38e0:	5f4c4542 	svcpl	0x004c4542
    38e4:	46455250 			; <UNDEFINED> instruction: 0x46455250
    38e8:	5f5f5849 	svcpl	0x005f5849
    38ec:	5f5f0020 	svcpl	0x005f0020
    38f0:	544e4955 	strbpl	r4, [lr], #-2389	; 0xfffff6ab
    38f4:	4d5f3436 	cfldrdmi	mvd3, [pc, #-216]	; 3824 <_Min_Stack_Size+0x3424>
    38f8:	5f5f5841 	svcpl	0x005f5841
    38fc:	66783020 	ldrbtvs	r3, [r8], -r0, lsr #32
    3900:	66666666 	strbtvs	r6, [r6], -r6, ror #12
    3904:	66666666 	strbtvs	r6, [r6], -r6, ror #12
    3908:	66666666 	strbtvs	r6, [r6], -r6, ror #12
    390c:	55666666 	strbpl	r6, [r6, #-1638]!	; 0xfffff99a
    3910:	45004c4c 	strmi	r4, [r0, #-3148]	; 0xfffff3b4
    3914:	34495458 	strbcc	r5, [r9], #-1112	; 0xfffffba8
    3918:	20344250 	eorscs	r4, r4, r0, asr r2
    391c:	54584528 	ldrbpl	r4, [r8], #-1320	; 0xfffffad8
    3920:	50475f49 	subpl	r5, r7, r9, asr #30
    3924:	4d5f4f49 	ldclmi	15, cr4, [pc, #-292]	; 3808 <_Min_Stack_Size+0x3408>
    3928:	69707061 	ldmdbvs	r0!, {r0, r5, r6, ip, sp, lr}^
    392c:	745f676e 	ldrbvc	r6, [pc], #-1902	; 3934 <_Min_Stack_Size+0x3534>
    3930:	58457b29 	stmdapl	r5, {r0, r3, r5, r8, r9, fp, ip, sp, lr}^
    3934:	2c344954 			; <UNDEFINED> instruction: 0x2c344954
    3938:	49504720 	ldmdbmi	r0, {r5, r8, r9, sl, lr}^
    393c:	202c424f 	eorcs	r4, ip, pc, asr #4
    3940:	4f495047 	svcmi	0x00495047
    3944:	4e49505f 	mcrmi	0, 2, r5, cr9, cr15, {2}
    3948:	202c345f 	eorcs	r3, ip, pc, asr r4
    394c:	49545845 	ldmdbmi	r4, {r0, r2, r6, fp, ip, lr}^
    3950:	52495f34 	subpl	r5, r9, #52, 30	; 0xd0
    3954:	5f007d51 	svcpl	0x00007d51
    3958:	4e49555f 	mcrmi	5, 2, r5, cr9, cr15, {2}
    395c:	5f323354 	svcpl	0x00323354
    3960:	5f58414d 	svcpl	0x0058414d
    3964:	7830205f 	ldmdavc	r0!, {r0, r1, r2, r3, r4, r6, sp}
    3968:	66666666 	strbtvs	r6, [r6], -r6, ror #12
    396c:	66666666 	strbtvs	r6, [r6], -r6, ror #12
    3970:	49004c55 	stmdbmi	r0, {r0, r2, r4, r6, sl, fp, lr}
    3974:	3436544e 	ldrtcc	r5, [r6], #-1102	; 0xfffffbb2
    3978:	7828435f 	stmdavc	r8!, {r0, r1, r2, r3, r4, r6, r8, r9, lr}
    397c:	5f5f2029 	svcpl	0x005f2029
    3980:	36544e49 	ldrbcc	r4, [r4], -r9, asr #28
    3984:	28435f34 	stmdacs	r3, {r2, r4, r5, r8, r9, sl, fp, ip, lr}^
    3988:	5f002978 	svcpl	0x00002978
    398c:	49465441 	stmdbmi	r6, {r0, r6, sl, ip, lr}^
    3990:	535f454c 	cmppl	pc, #76, 10	; 0x13000000
    3994:	4352554f 	cmpmi	r2, #331350016	; 0x13c00000
    3998:	4e490045 	cdpmi	0, 4, cr0, cr9, cr5, {2}
    399c:	4d5f3854 	ldclmi	8, cr3, [pc, #-336]	; 3854 <_Min_Stack_Size+0x3454>
    39a0:	28204e49 	stmdacs	r0!, {r0, r3, r6, r9, sl, fp, lr}
    39a4:	495f5f2d 	ldmdbmi	pc, {r0, r2, r3, r5, r8, r9, sl, fp, ip, lr}^	; <UNPREDICTABLE>
    39a8:	5f38544e 	svcpl	0x0038544e
    39ac:	5f58414d 	svcpl	0x0058414d
    39b0:	202d205f 	eorcs	r2, sp, pc, asr r0
    39b4:	5f002931 	svcpl	0x00002931
    39b8:	4454535f 	ldrbmi	r5, [r4], #-863	; 0xfffffca1
    39bc:	45565f43 	ldrbmi	r5, [r6, #-3907]	; 0xfffff0bd
    39c0:	4f495352 	svcmi	0x00495352
    39c4:	205f5f4e 	subscs	r5, pc, lr, asr #30
    39c8:	31313032 	teqcc	r1, r2, lsr r0
    39cc:	004c3231 	subeq	r3, ip, r1, lsr r2
    39d0:	72745f5f 	rsbsvc	r5, r4, #380	; 0x17c
    39d4:	636f6c79 	cmnvs	pc, #30976	; 0x7900
    39d8:	735f736b 	cmpvc	pc, #-1409286143	; 0xac000001
    39dc:	65726168 	ldrbvs	r6, [r2, #-360]!	; 0xfffffe98
    39e0:	2e2e2864 	cdpcs	8, 2, cr2, cr14, cr4, {3}
    39e4:	5f20292e 	svcpl	0x0020292e
    39e8:	636f6c5f 	cmnvs	pc, #24320	; 0x5f00
    39ec:	6e615f6b 	cdpvs	15, 6, cr5, cr1, cr11, {3}
    39f0:	61746f6e 	cmnvs	r4, lr, ror #30
    39f4:	73286574 			; <UNDEFINED> instruction: 0x73286574
    39f8:	65726168 	ldrbvs	r6, [r2, #-360]!	; 0xfffffe98
    39fc:	72745f64 	rsbsvc	r5, r4, #100, 30	; 0x190
    3a00:	636f6c79 	cmnvs	pc, #30976	; 0x7900
    3a04:	75665f6b 	strbvc	r5, [r6, #-3947]!	; 0xfffff095
    3a08:	6974636e 	ldmdbvs	r4!, {r1, r2, r3, r5, r6, r8, r9, sp, lr}^
    3a0c:	5f286e6f 	svcpl	0x00286e6f
    3a10:	5f41565f 	svcpl	0x0041565f
    3a14:	53475241 	movtpl	r5, #29249	; 0x7241
    3a18:	29295f5f 	stmdbcs	r9!, {r0, r1, r2, r3, r4, r6, r8, r9, sl, fp, ip, lr}
    3a1c:	495f5f00 	ldmdbmi	pc, {r8, r9, sl, fp, ip, lr}^	; <UNPREDICTABLE>
    3a20:	4c5f544e 	cfldrdmi	mvd5, [pc], {78}	; 0x4e
    3a24:	54534145 	ldrbpl	r4, [r3], #-325	; 0xfffffebb
    3a28:	414d5f38 	cmpmi	sp, r8, lsr pc
    3a2c:	205f5f58 	subscs	r5, pc, r8, asr pc	; <UNPREDICTABLE>
    3a30:	66377830 			; <UNDEFINED> instruction: 0x66377830
    3a34:	475f5f00 	ldrbmi	r5, [pc, -r0, lsl #30]
    3a38:	415f4343 	cmpmi	pc, r3, asr #6
    3a3c:	494d4f54 	stmdbmi	sp, {r2, r4, r6, r8, r9, sl, fp, lr}^
    3a40:	4f505f43 	svcmi	0x00505f43
    3a44:	45544e49 	ldrbmi	r4, [r4, #-3657]	; 0xfffff1b7
    3a48:	4f4c5f52 	svcmi	0x004c5f52
    3a4c:	465f4b43 	ldrbmi	r4, [pc], -r3, asr #22
    3a50:	20454552 	subcs	r4, r5, r2, asr r5
    3a54:	5f5f0032 	svcpl	0x005f0032
    3a58:	5f4d5241 	svcpl	0x004d5241
    3a5c:	54414546 	strbpl	r4, [r1], #-1350	; 0xfffffaba
    3a60:	5f455255 	svcpl	0x00455255
    3a64:	54494251 	strbpl	r4, [r9], #-593	; 0xfffffdaf
    3a68:	5f003120 	svcpl	0x00003120
    3a6c:	4d52415f 	ldfmie	f4, [r2, #-380]	; 0xfffffe84
    3a70:	4145465f 	cmpmi	r5, pc, asr r6
    3a74:	45525554 	ldrbmi	r5, [r2, #-1364]	; 0xfffffaac
    3a78:	5a4c435f 	bpl	13147fc <_Min_Stack_Size+0x13143fc>
    3a7c:	5f003120 	svcpl	0x00003120
    3a80:	4f54415f 	svcmi	0x0054415f
    3a84:	5f43494d 	svcpl	0x0043494d
    3a88:	55514341 	ldrbpl	r4, [r1, #-833]	; 0xfffffcbf
    3a8c:	20455249 	subcs	r5, r5, r9, asr #4
    3a90:	5f5f0032 	svcpl	0x005f0032
    3a94:	5f4d5241 	svcpl	0x004d5241
    3a98:	54414546 	strbpl	r4, [r1], #-1350	; 0xfffffaba
    3a9c:	5f455255 	svcpl	0x00455255
    3aa0:	504d4f43 	subpl	r4, sp, r3, asr #30
    3aa4:	0058454c 	subseq	r4, r8, ip, asr #10
    3aa8:	6f6c5f5f 	svcvs	0x006c5f5f
    3aac:	5f736b63 	svcpl	0x00736b63
    3ab0:	72616873 	rsbvc	r6, r1, #7536640	; 0x730000
    3ab4:	2e286465 	cdpcs	4, 2, cr6, cr8, cr5, {3}
    3ab8:	20292e2e 	eorcs	r2, r9, lr, lsr #28
    3abc:	6f6c5f5f 	svcvs	0x006c5f5f
    3ac0:	615f6b63 	cmpvs	pc, r3, ror #22
    3ac4:	746f6e6e 	strbtvc	r6, [pc], #-3694	; 3acc <_Min_Stack_Size+0x36cc>
    3ac8:	28657461 	stmdacs	r5!, {r0, r5, r6, sl, ip, sp, lr}^
    3acc:	72616873 	rsbvc	r6, r1, #7536640	; 0x730000
    3ad0:	6c5f6465 	cfldrdvs	mvd6, [pc], {101}	; 0x65
    3ad4:	5f6b636f 	svcpl	0x006b636f
    3ad8:	636e7566 	cmnvs	lr, #427819008	; 0x19800000
    3adc:	6e6f6974 			; <UNDEFINED> instruction: 0x6e6f6974
    3ae0:	565f5f28 	ldrbpl	r5, [pc], -r8, lsr #30
    3ae4:	52415f41 	subpl	r5, r1, #260	; 0x104
    3ae8:	5f5f5347 	svcpl	0x005f5347
    3aec:	5f002929 	svcpl	0x00002929
    3af0:	544e495f 	strbpl	r4, [lr], #-2399	; 0xfffff6a1
    3af4:	22203631 	eorcs	r3, r0, #51380224	; 0x3100000
    3af8:	75002268 	strvc	r2, [r0, #-616]	; 0xfffffd98
    3afc:	6769736e 	strbvs	r7, [r9, -lr, ror #6]!
    3b00:	2064656e 	rsbcs	r6, r4, lr, ror #10
    3b04:	6e676973 			; <UNDEFINED> instruction: 0x6e676973
    3b08:	54006465 	strpl	r6, [r0], #-1125	; 0xfffffb9b
    3b0c:	30314d49 	eorscc	r4, r1, r9, asr #26
    3b10:	5341425f 	movtpl	r4, #4703	; 0x125f
    3b14:	78302045 	ldmdavc	r0!, {r0, r2, r6, sp}
    3b18:	31303034 	teqcc	r0, r4, lsr r0
    3b1c:	30303035 	eorscc	r3, r0, r5, lsr r0
    3b20:	5f5f0075 	svcpl	0x005f0075
    3b24:	544e4955 	strbpl	r4, [lr], #-2389	; 0xfffff6ab
    3b28:	545f3436 	ldrbpl	r3, [pc], #-1078	; 3b30 <_Min_Stack_Size+0x3730>
    3b2c:	5f455059 	svcpl	0x00455059
    3b30:	6f6c205f 	svcvs	0x006c205f
    3b34:	6c20676e 	stcvs	7, cr6, [r0], #-440	; 0xfffffe48
    3b38:	20676e6f 	rsbcs	r6, r7, pc, ror #28
    3b3c:	69736e75 	ldmdbvs	r3!, {r0, r2, r4, r5, r6, r9, sl, fp, sp, lr}^
    3b40:	64656e67 	strbtvs	r6, [r5], #-3687	; 0xfffff199
    3b44:	746e6920 	strbtvc	r6, [lr], #-2336	; 0xfffff6e0
    3b48:	4e495f00 	cdpmi	15, 4, cr5, cr9, cr0, {0}
    3b4c:	52545054 	subspl	r5, r4, #84	; 0x54
    3b50:	5f51455f 	svcpl	0x0051455f
    3b54:	20544e49 	subscs	r4, r4, r9, asr #28
    3b58:	415f5f00 	cmpmi	pc, r0, lsl #30
    3b5c:	535f4d52 	cmppl	pc, #5248	; 0x1480
    3b60:	4f455a49 	svcmi	0x00455a49
    3b64:	43575f46 	cmpmi	r7, #280	; 0x118
    3b68:	5f524148 	svcpl	0x00524148
    3b6c:	00342054 	eorseq	r2, r4, r4, asr r0
    3b70:	4c465f5f 	mcrrmi	15, 5, r5, r6, cr15
    3b74:	58323354 	ldmdapl	r2!, {r2, r4, r6, r8, r9, ip, sp}
    3b78:	58414d5f 	stmdapl	r1, {r0, r1, r2, r3, r4, r6, r8, sl, fp, lr}^
    3b7c:	5058455f 	subspl	r4, r8, pc, asr r5
    3b80:	31205f5f 			; <UNDEFINED> instruction: 0x31205f5f
    3b84:	00343230 	eorseq	r3, r4, r0, lsr r2
    3b88:	49545845 	ldmdbmi	r4, {r0, r2, r6, fp, ip, lr}^
    3b8c:	33435033 	movtcc	r5, #12339	; 0x3033
    3b90:	58452820 	stmdapl	r5, {r5, fp, sp}^
    3b94:	475f4954 			; <UNDEFINED> instruction: 0x475f4954
    3b98:	5f4f4950 	svcpl	0x004f4950
    3b9c:	7070614d 	rsbsvc	r6, r0, sp, asr #2
    3ba0:	5f676e69 	svcpl	0x00676e69
    3ba4:	457b2974 	ldrbmi	r2, [fp, #-2420]!	; 0xfffff68c
    3ba8:	33495458 	movtcc	r5, #37976	; 0x9458
    3bac:	5047202c 	subpl	r2, r7, ip, lsr #32
    3bb0:	2c434f49 	mcrrcs	15, 4, r4, r3, cr9
    3bb4:	49504720 	ldmdbmi	r0, {r5, r8, r9, sl, lr}^
    3bb8:	49505f4f 	ldmdbmi	r0, {r0, r1, r2, r3, r6, r8, r9, sl, fp, ip, lr}^
    3bbc:	2c335f4e 	ldccs	15, cr5, [r3], #-312	; 0xfffffec8
    3bc0:	54584520 	ldrbpl	r4, [r8], #-1312	; 0xfffffae0
    3bc4:	495f3349 	ldmdbmi	pc, {r0, r3, r6, r8, r9, ip, sp}^	; <UNPREDICTABLE>
    3bc8:	007d5152 	rsbseq	r5, sp, r2, asr r1
    3bcc:	20434352 	subcs	r4, r3, r2, asr r3
    3bd0:	43522828 	cmpmi	r2, #40, 16	; 0x280000
    3bd4:	79545f43 	ldmdbvc	r4, {r0, r1, r6, r8, r9, sl, fp, ip, lr}^
    3bd8:	65646570 	strbvs	r6, [r4, #-1392]!	; 0xfffffa90
    3bdc:	20745f66 	rsbscs	r5, r4, r6, ror #30
    3be0:	4352292a 	cmpmi	r2, #688128	; 0xa8000
    3be4:	41425f43 	cmpmi	r2, r3, asr #30
    3be8:	00294553 	eoreq	r4, r9, r3, asr r5
    3bec:	4349564e 	movtmi	r5, #38478	; 0x964e
    3bf0:	5458455f 	ldrbpl	r4, [r8], #-1375	; 0xfffffaa1
    3bf4:	495f3449 	ldmdbmi	pc, {r0, r3, r6, sl, ip, sp}^	; <UNPREDICTABLE>
    3bf8:	455f5152 	ldrbmi	r5, [pc, #-338]	; 3aae <_Min_Stack_Size+0x36ae>
    3bfc:	6c62616e 	stfvse	f6, [r2], #-440	; 0xfffffe48
    3c00:	4e282065 	cdpmi	0, 2, cr2, cr8, cr5, {3}
    3c04:	5f434956 	svcpl	0x00434956
    3c08:	52455349 	subpl	r5, r5, #603979777	; 0x24000001
    3c0c:	3d7c2030 	ldclcc	0, cr2, [ip, #-192]!	; 0xffffff40
    3c10:	3c3c3120 	ldfccs	f3, [ip], #-128	; 0xffffff80
    3c14:	00293031 	eoreq	r3, r9, r1, lsr r0
    3c18:	49555f5f 	ldmdbmi	r5, {r0, r1, r2, r3, r4, r6, r8, r9, sl, fp, ip, lr}^
    3c1c:	4c5f544e 	cfldrdmi	mvd5, [pc], {78}	; 0x4e
    3c20:	54534145 	ldrbpl	r4, [r3], #-325	; 0xfffffebb
    3c24:	4d5f3233 	lfmmi	f3, 2, [pc, #-204]	; 3b60 <_Min_Stack_Size+0x3760>
    3c28:	5f5f5841 	svcpl	0x005f5841
    3c2c:	66783020 	ldrbtvs	r3, [r8], -r0, lsr #32
    3c30:	66666666 	strbtvs	r6, [r6], -r6, ror #12
    3c34:	55666666 	strbpl	r6, [r6, #-1638]!	; 0xfffff99a
    3c38:	5845004c 	stmdapl	r5, {r2, r3, r6}^
    3c3c:	50354954 	eorspl	r4, r5, r4, asr r9
    3c40:	28203541 	stmdacs	r0!, {r0, r6, r8, sl, ip, sp}
    3c44:	49545845 	ldmdbmi	r4, {r0, r2, r6, fp, ip, lr}^
    3c48:	4950475f 	ldmdbmi	r0, {r0, r1, r2, r3, r4, r6, r8, r9, sl, lr}^
    3c4c:	614d5f4f 	cmpvs	sp, pc, asr #30
    3c50:	6e697070 	mcrvs	0, 3, r7, cr9, cr0, {3}
    3c54:	29745f67 	ldmdbcs	r4!, {r0, r1, r2, r5, r6, r8, r9, sl, fp, ip, lr}^
    3c58:	5458457b 	ldrbpl	r4, [r8], #-1403	; 0xfffffa85
    3c5c:	202c3549 	eorcs	r3, ip, r9, asr #10
    3c60:	4f495047 	svcmi	0x00495047
    3c64:	47202c41 	strmi	r2, [r0, -r1, asr #24]!
    3c68:	5f4f4950 	svcpl	0x004f4950
    3c6c:	5f4e4950 	svcpl	0x004e4950
    3c70:	45202c35 	strmi	r2, [r0, #-3125]!	; 0xfffff3cb
    3c74:	35495458 	strbcc	r5, [r9, #-1112]	; 0xfffffba8
    3c78:	5152495f 	cmppl	r2, pc, asr r9
    3c7c:	5f5f007d 	svcpl	0x005f007d
    3c80:	5f4c4244 	svcpl	0x004c4244
    3c84:	49535045 	ldmdbmi	r3, {r0, r2, r6, ip, lr}^
    3c88:	5f4e4f4c 	svcpl	0x004e4f4c
    3c8c:	2828205f 	stmdacs	r8!, {r0, r1, r2, r3, r4, r6, sp}
    3c90:	62756f64 	rsbsvs	r6, r5, #100, 30	; 0x190
    3c94:	3229656c 	eorcc	r6, r9, #108, 10	; 0x1b000000
    3c98:	3032322e 	eorscc	r3, r2, lr, lsr #4
    3c9c:	30363434 	eorscc	r3, r6, r4, lsr r4
    3ca0:	35323934 	ldrcc	r3, [r2, #-2356]!	; 0xfffff6cc
    3ca4:	33313330 	teqcc	r1, #48, 6	; 0xc0000000
    3ca8:	312d6531 			; <UNDEFINED> instruction: 0x312d6531
    3cac:	00294c36 	eoreq	r4, r9, r6, lsr ip
    3cb0:	4f495047 	svcmi	0x00495047
    3cb4:	4550535f 	ldrbmi	r5, [r0, #-863]	; 0xfffffca1
    3cb8:	355f4445 	ldrbcc	r4, [pc, #-1093]	; 387b <_Min_Stack_Size+0x347b>
    3cbc:	30204d30 	eorcc	r4, r0, r0, lsr sp
    3cc0:	30303078 	eorscc	r3, r0, r8, ror r0
    3cc4:	30303030 	eorscc	r3, r0, r0, lsr r0
    3cc8:	5f007533 	svcpl	0x00007533
    3ccc:	4f54415f 	svcmi	0x0054415f
    3cd0:	5f43494d 	svcpl	0x0043494d
    3cd4:	534e4f43 	movtpl	r4, #61251	; 0xef43
    3cd8:	20454d55 	subcs	r4, r5, r5, asr sp
    3cdc:	5f5f0031 	svcpl	0x005f0031
    3ce0:	5f544e49 	svcpl	0x00544e49
    3ce4:	5341454c 	movtpl	r4, #5452	; 0x154c
    3ce8:	5f343654 	svcpl	0x00343654
    3cec:	54444957 	strbpl	r4, [r4], #-2391	; 0xfffff6a9
    3cf0:	205f5f48 	subscs	r5, pc, r8, asr #30
    3cf4:	5f003436 	svcpl	0x00003436
    3cf8:	544c465f 	strbpl	r4, [ip], #-1631	; 0xfffff9a1
    3cfc:	5341485f 	movtpl	r4, #6239	; 0x185f
    3d00:	464e495f 			; <UNDEFINED> instruction: 0x464e495f
    3d04:	54494e49 	strbpl	r4, [r9], #-3657	; 0xfffff1b7
    3d08:	205f5f59 	subscs	r5, pc, r9, asr pc	; <UNPREDICTABLE>
    3d0c:	525f0031 	subspl	r0, pc, #49	; 0x31
    3d10:	544e4545 	strbpl	r4, [lr], #-1349	; 0xfffffabb
    3d14:	4f4c475f 	svcmi	0x004c475f
    3d18:	5f4c4142 	svcpl	0x004c4142
    3d1c:	58455441 	stmdapl	r5, {r0, r6, sl, ip, lr}^
    3d20:	31205449 			; <UNDEFINED> instruction: 0x31205449
    3d24:	415f5f00 	cmpmi	pc, r0, lsl #30
    3d28:	4d554343 	ldclmi	3, cr4, [r5, #-268]	; 0xfffffef4
    3d2c:	58414d5f 	stmdapl	r1, {r0, r1, r2, r3, r4, r6, r8, sl, fp, lr}^
    3d30:	30205f5f 	eorcc	r5, r0, pc, asr pc
    3d34:	46463758 			; <UNDEFINED> instruction: 0x46463758
    3d38:	46464646 	strbmi	r4, [r6], -r6, asr #12
    3d3c:	312d5046 			; <UNDEFINED> instruction: 0x312d5046
    3d40:	5f004b35 	svcpl	0x00004b35
    3d44:	544e495f 	strbpl	r4, [lr], #-2399	; 0xfffff6a1
    3d48:	414d5f38 	cmpmi	sp, r8, lsr pc
    3d4c:	205f5f58 	subscs	r5, pc, r8, asr pc	; <UNPREDICTABLE>
    3d50:	66377830 			; <UNDEFINED> instruction: 0x66377830
    3d54:	434e4900 	movtmi	r4, #59648	; 0xe900
    3d58:	4d54535f 	ldclmi	3, cr5, [r4, #-380]	; 0xfffffe84
    3d5c:	465f3233 			; <UNDEFINED> instruction: 0x465f3233
    3d60:	43333031 	teqmi	r3, #49	; 0x31
    3d64:	52445f36 	subpl	r5, r4, #54, 30	; 0xd8
    3d68:	52455649 	subpl	r5, r5, #76546048	; 0x4900000
    3d6c:	50475f53 	subpl	r5, r7, r3, asr pc
    3d70:	485f4f49 	ldmdami	pc, {r0, r3, r6, r8, r9, sl, fp, lr}^	; <UNPREDICTABLE>
    3d74:	4500205f 	strmi	r2, [r0, #-95]	; 0xffffffa1
    3d78:	35495458 	strbcc	r5, [r9, #-1112]	; 0xfffffba8
    3d7c:	20354350 	eorscs	r4, r5, r0, asr r3
    3d80:	54584528 	ldrbpl	r4, [r8], #-1320	; 0xfffffad8
    3d84:	50475f49 	subpl	r5, r7, r9, asr #30
    3d88:	4d5f4f49 	ldclmi	15, cr4, [pc, #-292]	; 3c6c <_Min_Stack_Size+0x386c>
    3d8c:	69707061 	ldmdbvs	r0!, {r0, r5, r6, ip, sp, lr}^
    3d90:	745f676e 	ldrbvc	r6, [pc], #-1902	; 3d98 <_Min_Stack_Size+0x3998>
    3d94:	58457b29 	stmdapl	r5, {r0, r3, r5, r8, r9, fp, ip, sp, lr}^
    3d98:	2c354954 			; <UNDEFINED> instruction: 0x2c354954
    3d9c:	49504720 	ldmdbmi	r0, {r5, r8, r9, sl, lr}^
    3da0:	202c434f 	eorcs	r4, ip, pc, asr #6
    3da4:	4f495047 	svcmi	0x00495047
    3da8:	4e49505f 	mcrmi	0, 2, r5, cr9, cr15, {2}
    3dac:	202c355f 	eorcs	r3, ip, pc, asr r5
    3db0:	49545845 	ldmdbmi	r4, {r0, r2, r6, fp, ip, lr}^
    3db4:	52495f35 	subpl	r5, r9, #53, 30	; 0xd4
    3db8:	5f007d51 	svcpl	0x00007d51
    3dbc:	4343475f 	movtmi	r4, #14175	; 0x375f
    3dc0:	5641485f 			; <UNDEFINED> instruction: 0x5641485f
    3dc4:	57445f45 	strbpl	r5, [r4, -r5, asr #30]
    3dc8:	32465241 	subcc	r5, r6, #268435460	; 0x10000004
    3dcc:	4946435f 	stmdbmi	r6, {r0, r1, r2, r3, r4, r6, r8, r9, lr}^
    3dd0:	4d53415f 	ldfmie	f4, [r3, #-380]	; 0xfffffe84
    3dd4:	5f003120 	svcpl	0x00003120
    3dd8:	6e695f5f 	mcrvs	15, 3, r5, cr9, cr15, {2}
    3ddc:	745f3874 	ldrbvc	r3, [pc], #-2164	; 3de4 <_Min_Stack_Size+0x39e4>
    3de0:	6665645f 			; <UNDEFINED> instruction: 0x6665645f
    3de4:	64656e69 	strbtvs	r6, [r5], #-3689	; 0xfffff197
    3de8:	5f003120 	svcpl	0x00003120
    3dec:	5246535f 	subpl	r5, r6, #2080374785	; 0x7c000001
    3df0:	5f544341 	svcpl	0x00544341
    3df4:	5f4e494d 	svcpl	0x004e494d
    3df8:	2d28205f 	stccs	0, cr2, [r8, #-380]!	; 0xfffffe84
    3dfc:	48352e30 	ldmdami	r5!, {r4, r5, r9, sl, fp, sp}
    3e00:	2e302d52 	mrccs	13, 1, r2, cr0, cr2, {2}
    3e04:	29524835 	ldmdbcs	r2, {r0, r2, r4, r5, fp, lr}^
    3e08:	535f5f00 	cmppl	pc, #0, 30
    3e0c:	42495f41 	submi	r5, r9, #260	; 0x104
    3e10:	5f5f5449 	svcpl	0x005f5449
    3e14:	00363120 	eorseq	r3, r6, r0, lsr #2
    3e18:	666f5f5f 	uqsaxvs	r5, pc, pc	; <UNPREDICTABLE>
    3e1c:	74657366 	strbtvc	r7, [r5], #-870	; 0xfffffc9a
    3e20:	7428666f 	strtvc	r6, [r8], #-1647	; 0xfffff991
    3e24:	2c657079 	stclcs	0, cr7, [r5], #-484	; 0xfffffe1c
    3e28:	6c656966 			; <UNDEFINED> instruction: 0x6c656966
    3e2c:	6f202964 	svcvs	0x00202964
    3e30:	65736666 	ldrbvs	r6, [r3, #-1638]!	; 0xfffff99a
    3e34:	28666f74 	stmdacs	r6!, {r2, r4, r5, r6, r8, r9, sl, fp, sp, lr}^
    3e38:	65707974 	ldrbvs	r7, [r0, #-2420]!	; 0xfffff68c
    3e3c:	6966202c 	stmdbvs	r6!, {r2, r3, r5, sp}^
    3e40:	29646c65 	stmdbcs	r4!, {r0, r2, r5, r6, sl, fp, sp, lr}^
    3e44:	475f5f00 	ldrbmi	r5, [pc, -r0, lsl #30]
    3e48:	495f4343 	ldmdbmi	pc, {r0, r1, r6, r8, r9, lr}^	; <UNPREDICTABLE>
    3e4c:	355f4345 	ldrbcc	r4, [pc, #-837]	; 3b0f <_Min_Stack_Size+0x370f>
    3e50:	435f3935 	cmpmi	pc, #868352	; 0xd4000
    3e54:	4c504d4f 	mrrcmi	13, 4, r4, r0, cr15
    3e58:	30205845 	eorcc	r5, r0, r5, asr #16
    3e5c:	415f5f00 	cmpmi	pc, r0, lsl #30
    3e60:	465f4d52 			; <UNDEFINED> instruction: 0x465f4d52
    3e64:	55544145 	ldrbpl	r4, [r4, #-325]	; 0xfffffebb
    3e68:	4d5f4552 	cfldr64mi	mvdx4, [pc, #-328]	; 3d28 <_Min_Stack_Size+0x3928>
    3e6c:	5f004556 	svcpl	0x00004556
    3e70:	6e6f6e5f 	mcrvs	14, 3, r6, cr15, cr15, {2}
    3e74:	6c6c756e 	cfstr64vs	mvdx7, [ip], #-440	; 0xfffffe48
    3e78:	6c6c615f 	stfvse	f6, [ip], #-380	; 0xfffffe84
    3e7c:	615f5f20 	cmpvs	pc, r0, lsr #30
    3e80:	69727474 	ldmdbvs	r2!, {r2, r4, r5, r6, sl, ip, sp, lr}^
    3e84:	65747562 	ldrbvs	r7, [r4, #-1378]!	; 0xfffffa9e
    3e88:	28285f5f 	stmdacs	r8!, {r0, r1, r2, r3, r4, r6, r8, r9, sl, fp, ip, lr}
    3e8c:	6f6e5f5f 	svcvs	0x006e5f5f
    3e90:	6c756e6e 	ldclvs	14, cr6, [r5], #-440	; 0xfffffe48
    3e94:	295f5f6c 	ldmdbcs	pc, {r2, r3, r5, r6, r8, r9, sl, fp, ip, lr}^	; <UNPREDICTABLE>
    3e98:	5f5f0029 	svcpl	0x005f0029
    3e9c:	5f4d5241 	svcpl	0x004d5241
    3ea0:	36315046 	ldrtcc	r5, [r1], -r6, asr #32
    3ea4:	524f465f 	subpl	r4, pc, #99614720	; 0x5f00000
    3ea8:	5f54414d 	svcpl	0x0054414d
    3eac:	45454549 	strbmi	r4, [r5, #-1353]	; 0xfffffab7
    3eb0:	45525f00 	ldrbmi	r5, [r2, #-3840]	; 0xfffff100
    3eb4:	5f544e45 	svcpl	0x00544e45
    3eb8:	5253424d 	subspl	r4, r3, #-805306364	; 0xd0000004
    3ebc:	43574f54 	cmpmi	r7, #84, 30	; 0x150
    3ec0:	54535f53 	ldrbpl	r5, [r3], #-3923	; 0xfffff0ad
    3ec4:	28455441 	stmdacs	r5, {r0, r6, sl, ip, lr}^
    3ec8:	29727470 	ldmdbcs	r2!, {r4, r5, r6, sl, ip, sp, lr}^
    3ecc:	70282820 	eorvc	r2, r8, r0, lsr #16
    3ed0:	2d297274 	sfmcs	f7, 4, [r9, #-464]!	; 0xfffffe30
    3ed4:	696d5f3e 	stmdbvs	sp!, {r1, r2, r3, r4, r5, r8, r9, sl, fp, ip, lr}^
    3ed8:	3e2d6373 	mcrcc	3, 1, r6, cr13, cr3, {3}
    3edc:	73626d5f 	cmnvc	r2, #6080	; 0x17c0
    3ee0:	776f7472 			; <UNDEFINED> instruction: 0x776f7472
    3ee4:	735f7363 	cmpvc	pc, #-1946157055	; 0x8c000001
    3ee8:	65746174 	ldrbvs	r6, [r4, #-372]!	; 0xfffffe8c
    3eec:	505f0029 	subspl	r0, pc, r9, lsr #32
    3ef0:	5849534f 	stmdapl	r9, {r0, r1, r2, r3, r6, r8, r9, ip, lr}^
    3ef4:	554f535f 	strbpl	r5, [pc, #-863]	; 3b9d <_Min_Stack_Size+0x379d>
    3ef8:	00454352 	subeq	r4, r5, r2, asr r3
    3efc:	444e4152 	strbmi	r4, [lr], #-338	; 0xfffffeae
    3f00:	58414d5f 	stmdapl	r1, {r0, r1, r2, r3, r4, r6, r8, sl, fp, lr}^
    3f04:	525f5f20 	subspl	r5, pc, #32, 30	; 0x80
    3f08:	5f444e41 	svcpl	0x00444e41
    3f0c:	0058414d 	subseq	r4, r8, sp, asr #2
    3f10:	69755f5f 	ldmdbvs	r5!, {r0, r1, r2, r3, r4, r6, r8, r9, sl, fp, ip, lr}^
    3f14:	3233746e 	eorscc	r7, r3, #1845493760	; 0x6e000000
    3f18:	4700745f 	smlsdmi	r0, pc, r4, r7	; <UNPREDICTABLE>
    3f1c:	5f4f4950 	svcpl	0x004f4950
    3f20:	45444f4d 	strbmi	r4, [r4, #-3917]	; 0xfffff0b3
    3f24:	504e495f 	subpl	r4, lr, pc, asr r9
    3f28:	505f5455 	subspl	r5, pc, r5, asr r4	; <UNPREDICTABLE>
    3f2c:	78302044 	ldmdavc	r0!, {r2, r6, sp}
    3f30:	30303030 	eorscc	r3, r0, r0, lsr r0
    3f34:	33303030 	teqcc	r0, #48	; 0x30
    3f38:	535f5f00 	cmppl	pc, #0, 30
    3f3c:	4654464f 	ldrbmi	r4, [r4], -pc, asr #12
    3f40:	205f5f50 	subscs	r5, pc, r0, asr pc	; <UNPREDICTABLE>
    3f44:	525f0031 	subspl	r0, pc, #49	; 0x31
    3f48:	544e4545 	strbpl	r4, [lr], #-1349	; 0xfffffabb
    3f4c:	284d545f 	stmdacs	sp, {r0, r1, r2, r3, r4, r6, sl, ip, lr}^
    3f50:	29727470 	ldmdbcs	r2!, {r4, r5, r6, sl, ip, sp, lr}^
    3f54:	70282820 	eorvc	r2, r8, r0, lsr #16
    3f58:	2d297274 	sfmcs	f7, 4, [r9, #-464]!	; 0xfffffe30
    3f5c:	6f6c5f3e 	svcvs	0x006c5f3e
    3f60:	746c6163 	strbtvc	r6, [ip], #-355	; 0xfffffe9d
    3f64:	5f656d69 	svcpl	0x00656d69
    3f68:	29667562 	stmdbcs	r6!, {r1, r5, r6, r8, sl, ip, sp, lr}^
    3f6c:	5f545f00 	svcpl	0x00545f00
    3f70:	455a4953 	ldrbmi	r4, [sl, #-2387]	; 0xfffff6ad
    3f74:	5f00205f 	svcpl	0x0000205f
    3f78:	544c465f 	strbpl	r4, [ip], #-1631	; 0xfffff9a1
    3f7c:	4156455f 	cmpmi	r6, pc, asr r5
    3f80:	454d5f4c 	strbmi	r5, [sp, #-3916]	; 0xfffff0b4
    3f84:	444f4854 	strbmi	r4, [pc], #-2132	; 3f8c <_Min_Stack_Size+0x3b8c>
    3f88:	5f53545f 	svcpl	0x0053545f
    3f8c:	36363831 			; <UNDEFINED> instruction: 0x36363831
    3f90:	5f335f31 	svcpl	0x00335f31
    3f94:	0030205f 	eorseq	r2, r0, pc, asr r0
    3f98:	74615f5f 	strbtvc	r5, [r1], #-3935	; 0xfffff0a1
    3f9c:	62697274 	rsbvs	r7, r9, #116, 4	; 0x40000007
    3fa0:	5f657475 	svcpl	0x00657475
    3fa4:	6c6c616d 	stfvse	f6, [ip], #-436	; 0xfffffe4c
    3fa8:	5f5f636f 	svcpl	0x005f636f
    3fac:	58450020 	stmdapl	r5, {r5}^
    3fb0:	34314954 	ldrtcc	r4, [r1], #-2388	; 0xfffff6ac
    3fb4:	34314250 	ldrtcc	r4, [r1], #-592	; 0xfffffdb0
    3fb8:	58452820 	stmdapl	r5, {r5, fp, sp}^
    3fbc:	475f4954 			; <UNDEFINED> instruction: 0x475f4954
    3fc0:	5f4f4950 	svcpl	0x004f4950
    3fc4:	7070614d 	rsbsvc	r6, r0, sp, asr #2
    3fc8:	5f676e69 	svcpl	0x00676e69
    3fcc:	457b2974 	ldrbmi	r2, [fp, #-2420]!	; 0xfffff68c
    3fd0:	31495458 	cmpcc	r9, r8, asr r4
    3fd4:	47202c34 			; <UNDEFINED> instruction: 0x47202c34
    3fd8:	424f4950 	submi	r4, pc, #80, 18	; 0x140000
    3fdc:	5047202c 	subpl	r2, r7, ip, lsr #32
    3fe0:	505f4f49 	subspl	r4, pc, r9, asr #30
    3fe4:	315f4e49 	cmpcc	pc, r9, asr #28
    3fe8:	45202c34 	strmi	r2, [r0, #-3124]!	; 0xfffff3cc
    3fec:	31495458 	cmpcc	r9, r8, asr r4
    3ff0:	52495f34 	subpl	r5, r9, #52, 30	; 0xd0
    3ff4:	5f007d51 	svcpl	0x00007d51
    3ff8:	4843535f 	stmdami	r3, {r0, r1, r2, r3, r4, r6, r8, r9, ip, lr}^
    3ffc:	575f5241 	ldrbpl	r5, [pc, -r1, asr #4]
    4000:	48544449 	ldmdami	r4, {r0, r3, r6, sl, lr}^
    4004:	38205f5f 	stmdacc	r0!, {r0, r1, r2, r3, r4, r6, r8, r9, sl, fp, ip, lr}
    4008:	544e4900 	strbpl	r4, [lr], #-2304	; 0xfffff700
    400c:	28435f38 	stmdacs	r3, {r3, r4, r5, r8, r9, sl, fp, ip, lr}^
    4010:	5f202978 	svcpl	0x00202978
    4014:	544e495f 	strbpl	r4, [lr], #-2399	; 0xfffff6a1
    4018:	28435f38 	stmdacs	r3, {r3, r4, r5, r8, r9, sl, fp, ip, lr}^
    401c:	5f002978 	svcpl	0x00002978
    4020:	4c554e5f 	mrrcmi	14, 5, r4, r5, cr15
    4024:	4942414c 	stmdbmi	r2, {r2, r3, r6, r8, lr}^
    4028:	5954494c 	ldmdbpl	r4, {r2, r3, r6, r8, fp, lr}^
    402c:	4152505f 	cmpmi	r2, pc, asr r0
    4030:	5f414d47 	svcpl	0x00414d47
    4034:	20504f50 	subscs	r4, r0, r0, asr pc
    4038:	555f5f00 	ldrbpl	r5, [pc, #-3840]	; 3140 <_Min_Stack_Size+0x2d40>
    403c:	5f544e49 	svcpl	0x00544e49
    4040:	54534146 	ldrbpl	r4, [r3], #-326	; 0xfffffeba
    4044:	59545f38 	ldmdbpl	r4, {r3, r4, r5, r8, r9, sl, fp, ip, lr}^
    4048:	5f5f4550 	svcpl	0x005f4550
    404c:	736e7520 	cmnvc	lr, #32, 10	; 0x8000000
    4050:	656e6769 	strbvs	r6, [lr, #-1897]!	; 0xfffff897
    4054:	6e692064 	cdpvs	0, 6, cr2, cr9, cr4, {3}
    4058:	5f5f0074 	svcpl	0x005f0074
    405c:	43414c4c 	movtmi	r4, #7244	; 0x1c4c
    4060:	5f4d5543 	svcpl	0x004d5543
    4064:	54494249 	strbpl	r4, [r9], #-585	; 0xfffffdb7
    4068:	33205f5f 			; <UNDEFINED> instruction: 0x33205f5f
    406c:	5f5f0032 	svcpl	0x005f0032
    4070:	6b636f6c 	blvs	18dfe28 <_Min_Stack_Size+0x18dfa28>
    4074:	6f6c635f 	svcvs	0x006c635f
    4078:	725f6573 	subsvc	r6, pc, #482344960	; 0x1cc00000
    407c:	72756365 	rsbsvc	r6, r5, #-1811939327	; 0x94000001
    4080:	65766973 	ldrbvs	r6, [r6, #-2419]!	; 0xfffff68d
    4084:	636f6c28 	cmnvs	pc, #40, 24	; 0x2800
    4088:	5f20296b 	svcpl	0x0020296b
    408c:	7465725f 	strbtvc	r7, [r5], #-607	; 0xfffffda1
    4090:	65677261 	strbvs	r7, [r7, #-609]!	; 0xfffffd9f
    4094:	6f6c5f74 	svcvs	0x006c5f74
    4098:	635f6b63 	cmpvs	pc, #101376	; 0x18c00
    409c:	65736f6c 	ldrbvs	r6, [r3, #-3948]!	; 0xfffff094
    40a0:	6365725f 	cmnvs	r5, #-268435451	; 0xf0000005
    40a4:	69737275 	ldmdbvs	r3!, {r0, r2, r4, r5, r6, r9, ip, sp, lr}^
    40a8:	6c286576 	cfstr32vs	mvfx6, [r8], #-472	; 0xfffffe28
    40ac:	296b636f 	stmdbcs	fp!, {r0, r1, r2, r3, r5, r6, r8, r9, sp, lr}^
    40b0:	54584500 	ldrbpl	r4, [r8], #-1280	; 0xfffffb00
    40b4:	44503049 	ldrbmi	r3, [r0], #-73	; 0xffffffb7
    40b8:	45282030 	strmi	r2, [r8, #-48]!	; 0xffffffd0
    40bc:	5f495458 	svcpl	0x00495458
    40c0:	4f495047 	svcmi	0x00495047
    40c4:	70614d5f 	rsbvc	r4, r1, pc, asr sp
    40c8:	676e6970 			; <UNDEFINED> instruction: 0x676e6970
    40cc:	7b29745f 	blvc	a61250 <_Min_Stack_Size+0xa60e50>
    40d0:	49545845 	ldmdbmi	r4, {r0, r2, r6, fp, ip, lr}^
    40d4:	47202c30 			; <UNDEFINED> instruction: 0x47202c30
    40d8:	444f4950 	strbmi	r4, [pc], #-2384	; 40e0 <_Min_Stack_Size+0x3ce0>
    40dc:	5047202c 	subpl	r2, r7, ip, lsr #32
    40e0:	505f4f49 	subspl	r4, pc, r9, asr #30
    40e4:	305f4e49 	subscc	r4, pc, r9, asr #28
    40e8:	5845202c 	stmdapl	r5, {r2, r3, r5, sp}^
    40ec:	5f304954 	svcpl	0x00304954
    40f0:	7d515249 	lfmvc	f5, 2, [r1, #-292]	; 0xfffffedc
    40f4:	495f5f00 	ldmdbmi	pc, {r8, r9, sl, fp, ip, lr}^	; <UNPREDICTABLE>
    40f8:	3233544e 	eorscc	r5, r3, #1308622848	; 0x4e000000
    40fc:	58414d5f 	stmdapl	r1, {r0, r1, r2, r3, r4, r6, r8, sl, fp, lr}^
    4100:	30205f5f 	eorcc	r5, r0, pc, asr pc
    4104:	66663778 			; <UNDEFINED> instruction: 0x66663778
    4108:	66666666 	strbtvs	r6, [r6], -r6, ror #12
    410c:	5f004c66 	svcpl	0x00004c66
    4110:	6e696d5f 	mcrvs	13, 3, r6, cr9, cr15, {2}
    4114:	7a69735f 	bvc	1a60e98 <_Min_Stack_Size+0x1a60a98>
    4118:	29782865 	ldmdbcs	r8!, {r0, r2, r5, r6, fp, sp}^
    411c:	61747320 	cmnvs	r4, r0, lsr #6
    4120:	20636974 	rsbcs	r6, r3, r4, ror r9
    4124:	00297828 	eoreq	r7, r9, r8, lsr #16
    4128:	58475f5f 	stmdapl	r7, {r0, r1, r2, r3, r4, r6, r8, r9, sl, fp, ip, lr}^
    412c:	59545f58 	ldmdbpl	r4, {r3, r4, r6, r8, r9, sl, fp, ip, lr}^
    4130:	4e494550 	mcrmi	5, 2, r4, cr9, cr0, {2}
    4134:	455f4f46 	ldrbmi	r4, [pc, #-3910]	; 31f6 <_Min_Stack_Size+0x2df6>
    4138:	4c415551 	cfstr64mi	mvdx5, [r1], {81}	; 0x51
    413c:	5f595449 	svcpl	0x00595449
    4140:	494c4e49 	stmdbmi	ip, {r0, r3, r6, r9, sl, fp, lr}^
    4144:	3020454e 	eorcc	r4, r0, lr, asr #10
    4148:	425f5f00 	subsmi	r5, pc, #0, 30
    414c:	4e494745 	cdpmi	7, 4, cr4, cr9, cr5, {2}
    4150:	4345445f 	movtmi	r4, #21599	; 0x545f
    4154:	0020534c 	eoreq	r5, r0, ip, asr #6
    4158:	4e495f5f 	mcrmi	15, 2, r5, cr9, cr15, {2}
    415c:	454c5f54 	strbmi	r5, [ip, #-3924]	; 0xfffff0ac
    4160:	36545341 	ldrbcc	r5, [r4], -r1, asr #6
    4164:	414d5f34 	cmpmi	sp, r4, lsr pc
    4168:	205f5f58 	subscs	r5, pc, r8, asr pc	; <UNPREDICTABLE>
    416c:	66377830 			; <UNDEFINED> instruction: 0x66377830
    4170:	66666666 	strbtvs	r6, [r6], -r6, ror #12
    4174:	66666666 	strbtvs	r6, [r6], -r6, ror #12
    4178:	66666666 	strbtvs	r6, [r6], -r6, ror #12
    417c:	4c4c6666 	mcrrmi	6, 6, r6, ip, cr6
    4180:	415f5f00 	cmpmi	pc, r0, lsl #30
    4184:	5f534350 	svcpl	0x00534350
    4188:	5f5f3233 	svcpl	0x005f3233
    418c:	5f003120 	svcpl	0x00003120
    4190:	4d52415f 	ldfmie	f4, [r2, #-380]	; 0xfffffe84
    4194:	4145465f 	cmpmi	r5, pc, asr r6
    4198:	45525554 	ldrbmi	r5, [r2, #-1364]	; 0xfffffaac
    419c:	3146425f 	cmpcc	r6, pc, asr r2
    41a0:	45565f36 	ldrbmi	r5, [r6, #-3894]	; 0xfffff0ca
    41a4:	524f5443 	subpl	r5, pc, #1124073472	; 0x43000000
    41a8:	4952415f 	ldmdbmi	r2, {r0, r1, r2, r3, r4, r6, r8, lr}^
    41ac:	454d4854 	strbmi	r4, [sp, #-2132]	; 0xfffff7ac
    41b0:	00434954 	subeq	r4, r3, r4, asr r9
    41b4:	5359535f 	cmppl	r9, #2080374785	; 0x7c000001
    41b8:	54535f5f 	ldrbpl	r5, [r3], #-3935	; 0xfffff0a1
    41bc:	544e4944 	strbpl	r4, [lr], #-2372	; 0xfffff6bc
    41c0:	0020485f 	eoreq	r4, r0, pc, asr r8
    41c4:	656e5f5f 	strbvs	r5, [lr, #-3935]!	; 0xfffff0a1
    41c8:	4e5f6465 	cdpmi	4, 5, cr6, cr15, cr5, {3}
    41cc:	204c4c55 	subcs	r4, ip, r5, asr ip
    41d0:	414c4600 	cmpmi	ip, r0, lsl #12
    41d4:	425f4853 	subsmi	r4, pc, #5439488	; 0x530000
    41d8:	20455341 	subcs	r5, r5, r1, asr #6
    41dc:	38307830 	ldmdacc	r0!, {r4, r5, fp, ip, sp, lr}
    41e0:	30303030 	eorscc	r3, r0, r0, lsr r0
    41e4:	00753030 	rsbseq	r3, r5, r0, lsr r0
    41e8:	4645445f 			; <UNDEFINED> instruction: 0x4645445f
    41ec:	544c5541 	strbpl	r5, [ip], #-1345	; 0xfffffabf
    41f0:	554f535f 	strbpl	r5, [pc, #-863]	; 3e99 <_Min_Stack_Size+0x3a99>
    41f4:	20454352 	subcs	r4, r5, r2, asr r3
    41f8:	5f5f0031 	svcpl	0x005f0031
    41fc:	33544c46 	cmpcc	r4, #17920	; 0x4600
    4200:	414d5f32 	cmpmi	sp, r2, lsr pc
    4204:	445f544e 	ldrbmi	r5, [pc], #-1102	; 420c <_Min_Stack_Size+0x3e0c>
    4208:	5f5f4749 	svcpl	0x005f4749
    420c:	00343220 	eorseq	r3, r4, r0, lsr #4
    4210:	4c465f5f 	mcrrmi	15, 5, r5, r6, cr15
    4214:	5f323354 	svcpl	0x00323354
    4218:	4f4e4544 	svcmi	0x004e4544
    421c:	4d5f4d52 	ldclmi	13, cr4, [pc, #-328]	; 40dc <_Min_Stack_Size+0x3cdc>
    4220:	5f5f4e49 	svcpl	0x005f4e49
    4224:	342e3120 	strtcc	r3, [lr], #-288	; 0xfffffee0
    4228:	39323130 	ldmdbcc	r2!, {r4, r5, r8, ip, sp}
    422c:	34363438 	ldrtcc	r3, [r6], #-1080	; 0xfffffbc8
    4230:	38343233 	ldmdacc	r4!, {r0, r1, r4, r5, r9, ip, sp}
    4234:	65313731 	ldrvs	r3, [r1, #-1841]!	; 0xfffff8cf
    4238:	4635342d 	ldrtmi	r3, [r5], -sp, lsr #8
    423c:	5f003233 	svcpl	0x00003233
    4240:	6365735f 	cmnvs	r5, #2080374785	; 0x7c000001
    4244:	6e6f6974 			; <UNDEFINED> instruction: 0x6e6f6974
    4248:	20297828 	eorcs	r7, r9, r8, lsr #16
    424c:	74615f5f 	strbtvc	r5, [r1], #-3935	; 0xfffff0a1
    4250:	62697274 	rsbvs	r7, r9, #116, 4	; 0x40000007
    4254:	5f657475 	svcpl	0x00657475
    4258:	5f28285f 	svcpl	0x0028285f
    425c:	6365735f 	cmnvs	r5, #2080374785	; 0x7c000001
    4260:	6e6f6974 			; <UNDEFINED> instruction: 0x6e6f6974
    4264:	78285f5f 	stmdavc	r8!, {r0, r1, r2, r3, r4, r6, r8, r9, sl, fp, ip, lr}
    4268:	00292929 	eoreq	r2, r9, r9, lsr #18
    426c:	7366666f 	cmnvc	r6, #116391936	; 0x6f00000
    4270:	666f7465 	strbtvs	r7, [pc], -r5, ror #8
    4274:	50595428 	subspl	r5, r9, r8, lsr #8
    4278:	454d2c45 	strbmi	r2, [sp, #-3141]	; 0xfffff3bb
    427c:	5245424d 	subpl	r4, r5, #-805306364	; 0xd0000004
    4280:	5f5f2029 	svcpl	0x005f2029
    4284:	6c697562 	cfstr64vs	mvdx7, [r9], #-392	; 0xfffffe78
    4288:	5f6e6974 	svcpl	0x006e6974
    428c:	7366666f 	cmnvc	r6, #116391936	; 0x6f00000
    4290:	666f7465 	strbtvs	r7, [pc], -r5, ror #8
    4294:	59542820 	ldmdbpl	r4, {r5, fp, sp}^
    4298:	202c4550 	eorcs	r4, ip, r0, asr r5
    429c:	424d454d 	submi	r4, sp, #322961408	; 0x13400000
    42a0:	00295245 	eoreq	r5, r9, r5, asr #4
    42a4:	49555f5f 	ldmdbmi	r5, {r0, r1, r2, r3, r4, r6, r8, r9, sl, fp, ip, lr}^
    42a8:	3436544e 	ldrtcc	r5, [r6], #-1102	; 0xfffffbb2
    42ac:	6328435f 			; <UNDEFINED> instruction: 0x6328435f
    42b0:	20632029 	rsbcs	r2, r3, r9, lsr #32
    42b4:	55202323 	strpl	r2, [r0, #-803]!	; 0xfffffcdd
    42b8:	5f004c4c 	svcpl	0x00004c4c
    42bc:	4e49555f 	mcrmi	5, 2, r5, cr9, cr15, {2}
    42c0:	454c5f54 	strbmi	r5, [ip, #-3924]	; 0xfffff0ac
    42c4:	36545341 	ldrbcc	r5, [r4], -r1, asr #6
    42c8:	59545f34 	ldmdbpl	r4, {r2, r4, r5, r8, r9, sl, fp, ip, lr}^
    42cc:	5f5f4550 	svcpl	0x005f4550
    42d0:	6e6f6c20 	cdpvs	12, 6, cr6, cr15, cr0, {1}
    42d4:	6f6c2067 	svcvs	0x006c2067
    42d8:	7520676e 	strvc	r6, [r0, #-1902]!	; 0xfffff892
    42dc:	6769736e 	strbvs	r7, [r9, -lr, ror #6]!
    42e0:	2064656e 	rsbcs	r6, r4, lr, ror #10
    42e4:	00746e69 	rsbseq	r6, r4, r9, ror #28
    42e8:	4f495047 	svcmi	0x00495047
    42ec:	444f4d5f 	strbmi	r4, [pc], #-3423	; 42f4 <_Min_Stack_Size+0x3ef4>
    42f0:	4e495f45 	cdpmi	15, 4, cr5, cr9, cr5, {2}
    42f4:	5f545550 	svcpl	0x00545550
    42f8:	204f4c46 	subcs	r4, pc, r6, asr #24
    42fc:	30307830 	eorscc	r7, r0, r0, lsr r8
    4300:	30303030 	eorscc	r3, r0, r0, lsr r0
    4304:	5f003130 	svcpl	0x00003130
    4308:	4653555f 			; <UNDEFINED> instruction: 0x4653555f
    430c:	54434152 	strbpl	r4, [r3], #-338	; 0xfffffeae
    4310:	4942465f 	stmdbmi	r2, {r0, r1, r2, r3, r4, r6, r9, sl, lr}^
    4314:	205f5f54 	subscs	r5, pc, r4, asr pc	; <UNPREDICTABLE>
    4318:	5f5f0038 	svcpl	0x005f0038
    431c:	4c42444c 	cfstrdmi	mvd4, [r2], {76}	; 0x4c
    4320:	5350455f 	cmppl	r0, #398458880	; 0x17c00000
    4324:	4e4f4c49 	cdpmi	12, 4, cr4, cr15, cr9, {2}
    4328:	32205f5f 	eorcc	r5, r0, #380	; 0x17c
    432c:	3032322e 	eorscc	r3, r2, lr, lsr #4
    4330:	30363434 	eorscc	r3, r6, r4, lsr r4
    4334:	35323934 	ldrcc	r3, [r2, #-2356]!	; 0xfffff6cc
    4338:	33313330 	teqcc	r1, #48, 6	; 0xc0000000
    433c:	312d6531 			; <UNDEFINED> instruction: 0x312d6531
    4340:	45004c36 	strmi	r4, [r0, #-3126]	; 0xfffff3ca
    4344:	31495458 	cmpcc	r9, r8, asr r4
    4348:	31435031 	cmpcc	r3, r1, lsr r0
    434c:	45282031 	strmi	r2, [r8, #-49]!	; 0xffffffcf
    4350:	5f495458 	svcpl	0x00495458
    4354:	4f495047 	svcmi	0x00495047
    4358:	70614d5f 	rsbvc	r4, r1, pc, asr sp
    435c:	676e6970 			; <UNDEFINED> instruction: 0x676e6970
    4360:	7b29745f 	blvc	a614e4 <_Min_Stack_Size+0xa610e4>
    4364:	49545845 	ldmdbmi	r4, {r0, r2, r6, fp, ip, lr}^
    4368:	202c3131 	eorcs	r3, ip, r1, lsr r1
    436c:	4f495047 	svcmi	0x00495047
    4370:	47202c43 	strmi	r2, [r0, -r3, asr #24]!
    4374:	5f4f4950 	svcpl	0x004f4950
    4378:	5f4e4950 	svcpl	0x004e4950
    437c:	202c3131 	eorcs	r3, ip, r1, lsr r1
    4380:	49545845 	ldmdbmi	r4, {r0, r2, r6, fp, ip, lr}^
    4384:	495f3131 	ldmdbmi	pc, {r0, r4, r5, r8, ip, sp}^	; <UNPREDICTABLE>
    4388:	007d5152 	rsbseq	r5, sp, r2, asr r1
    438c:	5f544e49 	svcpl	0x00544e49
    4390:	54534146 	ldrbpl	r4, [r3], #-326	; 0xfffffeba
    4394:	4d5f3436 	cfldrdmi	mvd3, [pc, #-216]	; 42c4 <_Min_Stack_Size+0x3ec4>
    4398:	28205841 	stmdacs	r0!, {r0, r6, fp, ip, lr}
    439c:	4e495f5f 	mcrmi	15, 2, r5, cr9, cr15, {2}
    43a0:	41465f54 	cmpmi	r6, r4, asr pc
    43a4:	34365453 	ldrtcc	r5, [r6], #-1107	; 0xfffffbad
    43a8:	58414d5f 	stmdapl	r1, {r0, r1, r2, r3, r4, r6, r8, sl, fp, lr}^
    43ac:	00295f5f 	eoreq	r5, r9, pc, asr pc
    43b0:	75705f5f 	ldrbvc	r5, [r0, #-3935]!	; 0xfffff0a1
    43b4:	20326572 	eorscs	r6, r2, r2, ror r5
    43b8:	74615f5f 	strbtvc	r5, [r1], #-3935	; 0xfffff0a1
    43bc:	62697274 	rsbvs	r7, r9, #116, 4	; 0x40000007
    43c0:	5f657475 	svcpl	0x00657475
    43c4:	5f28285f 	svcpl	0x0028285f
    43c8:	6e6f635f 	mcrvs	3, 3, r6, cr15, cr15, {2}
    43cc:	5f5f7473 	svcpl	0x005f7473
    43d0:	5f002929 	svcpl	0x00002929
    43d4:	4343475f 	movtmi	r4, #14175	; 0x375f
    43d8:	4f54415f 	svcmi	0x0054415f
    43dc:	5f43494d 	svcpl	0x0043494d
    43e0:	52414843 	subpl	r4, r1, #4390912	; 0x430000
    43e4:	545f3631 	ldrbpl	r3, [pc], #-1585	; 43ec <_Min_Stack_Size+0x3fec>
    43e8:	434f4c5f 	movtmi	r4, #64607	; 0xfc5f
    43ec:	52465f4b 	subpl	r5, r6, #300	; 0x12c
    43f0:	32204545 	eorcc	r4, r0, #289406976	; 0x11400000
    43f4:	4e5f5f00 	cdpmi	15, 5, cr5, cr15, cr0, {0}
    43f8:	414c4c55 	cmpmi	ip, r5, asr ip
    43fc:	494c4942 	stmdbmi	ip, {r1, r6, r8, fp, lr}^
    4400:	505f5954 	subspl	r5, pc, r4, asr r9	; <UNPREDICTABLE>
    4404:	4d474152 	stfmie	f4, [r7, #-328]	; 0xfffffeb8
    4408:	55505f41 	ldrbpl	r5, [r0, #-3905]	; 0xfffff0bf
    440c:	00204853 	eoreq	r4, r0, r3, asr r8
    4410:	49545845 	ldmdbmi	r4, {r0, r2, r6, fp, ip, lr}^
    4414:	32415032 	subcc	r5, r1, #50	; 0x32
    4418:	58452820 	stmdapl	r5, {r5, fp, sp}^
    441c:	475f4954 			; <UNDEFINED> instruction: 0x475f4954
    4420:	5f4f4950 	svcpl	0x004f4950
    4424:	7070614d 	rsbsvc	r6, r0, sp, asr #2
    4428:	5f676e69 	svcpl	0x00676e69
    442c:	457b2974 	ldrbmi	r2, [fp, #-2420]!	; 0xfffff68c
    4430:	32495458 	subcc	r5, r9, #88, 8	; 0x58000000
    4434:	5047202c 	subpl	r2, r7, ip, lsr #32
    4438:	2c414f49 	mcrrcs	15, 4, r4, r1, cr9
    443c:	49504720 	ldmdbmi	r0, {r5, r8, r9, sl, lr}^
    4440:	49505f4f 	ldmdbmi	r0, {r0, r1, r2, r3, r6, r8, r9, sl, fp, ip, lr}^
    4444:	2c325f4e 	ldccs	15, cr5, [r2], #-312	; 0xfffffec8
    4448:	54584520 	ldrbpl	r4, [r8], #-1312	; 0xfffffae0
    444c:	495f3249 	ldmdbmi	pc, {r0, r3, r6, r9, ip, sp}^	; <UNPREDICTABLE>
    4450:	007d5152 	rsbseq	r5, sp, r2, asr r1
    4454:	524b434c 	subpl	r4, fp, #76, 6	; 0x30000001
    4458:	445f5f00 	ldrbmi	r5, [pc], #-3840	; 4460 <_Min_Stack_Size+0x4060>
    445c:	4d5f4c42 	ldclmi	12, cr4, [pc, #-264]	; 435c <_Min_Stack_Size+0x3f5c>
    4460:	455f5841 	ldrbmi	r5, [pc, #-2113]	; 3c27 <_Min_Stack_Size+0x3827>
    4464:	5f5f5058 	svcpl	0x005f5058
    4468:	32303120 	eorscc	r3, r0, #32, 2
    446c:	5f5f0034 	svcpl	0x005f0034
    4470:	54534146 	ldrbpl	r4, [r3], #-326	; 0xfffffeba
    4474:	22203436 	eorcs	r3, r0, #905969664	; 0x36000000
    4478:	00226c6c 	eoreq	r6, r2, ip, ror #24
    447c:	54415f5f 	strbpl	r5, [r1], #-3935	; 0xfffff0a1
    4480:	43494d4f 	movtmi	r4, #40271	; 0x9d4f
    4484:	4c45525f 	sfmmi	f5, 2, [r5], {95}	; 0x5f
    4488:	45534145 	ldrbmi	r4, [r3, #-325]	; 0xfffffebb
    448c:	75003320 	strvc	r3, [r0, #-800]	; 0xfffffce0
    4490:	6769736e 	strbvs	r7, [r9, -lr, ror #6]!
    4494:	2064656e 	rsbcs	r6, r4, lr, ror #10
    4498:	5f00302b 	svcpl	0x0000302b
    449c:	544c465f 	strbpl	r4, [ip], #-1631	; 0xfffff9a1
    44a0:	5f583233 	svcpl	0x00583233
    44a4:	5f534148 	svcpl	0x00534148
    44a8:	4f4e4544 	svcmi	0x004e4544
    44ac:	5f5f4d52 	svcpl	0x005f4d52
    44b0:	5f003120 	svcpl	0x00003120
    44b4:	544c465f 	strbpl	r4, [ip], #-1631	; 0xfffff9a1
    44b8:	4e414d5f 	mcrmi	13, 2, r4, cr1, cr15, {2}
    44bc:	49445f54 	stmdbmi	r4, {r2, r4, r6, r8, r9, sl, fp, ip, lr}^
    44c0:	205f5f47 	subscs	r5, pc, r7, asr #30
    44c4:	55003432 	strpl	r3, [r0, #-1074]	; 0xfffffbce
    44c8:	54524153 	ldrbpl	r4, [r2], #-339	; 0xfffffead
    44cc:	52495f31 	subpl	r5, r9, #49, 30	; 0xc4
    44d0:	37332051 			; <UNDEFINED> instruction: 0x37332051
    44d4:	41525f00 	cmpmi	r2, r0, lsl #30
    44d8:	3834444e 	ldmdacc	r4!, {r1, r2, r3, r6, sl, lr}
    44dc:	4545535f 	strbmi	r5, [r5, #-863]	; 0xfffffca1
    44e0:	20315f44 	eorscs	r5, r1, r4, asr #30
    44e4:	61783028 	cmnvs	r8, r8, lsr #32
    44e8:	29646362 	stmdbcs	r4!, {r1, r5, r6, r8, r9, sp, lr}^
    44ec:	555f5f00 	ldrbpl	r5, [pc, #-3840]	; 35f4 <_Min_Stack_Size+0x31f4>
    44f0:	495f5144 	ldmdbmi	pc, {r2, r6, r8, ip, lr}^	; <UNPREDICTABLE>
    44f4:	5f544942 	svcpl	0x00544942
    44f8:	0030205f 	eorseq	r2, r0, pc, asr r0
    44fc:	4f4c475f 	svcmi	0x004c475f
    4500:	5f4c4142 	svcpl	0x004c4142
    4504:	58455441 	stmdapl	r5, {r0, r6, sl, ip, lr}^
    4508:	5f205449 	svcpl	0x00205449
    450c:	626f6c67 	rsbvs	r6, pc, #26368	; 0x6700
    4510:	615f6c61 	cmpvs	pc, r1, ror #24
    4514:	69786574 	ldmdbvs	r8!, {r2, r4, r5, r6, r8, sl, sp, lr}^
    4518:	5f5f0074 	svcpl	0x005f0074
    451c:	5f544e49 	svcpl	0x00544e49
    4520:	5341454c 	movtpl	r4, #5452	; 0x154c
    4524:	5f323354 	svcpl	0x00323354
    4528:	45505954 	ldrbmi	r5, [r0, #-2388]	; 0xfffff6ac
    452c:	6c205f5f 	stcvs	15, cr5, [r0], #-380	; 0xfffffe84
    4530:	20676e6f 	rsbcs	r6, r7, pc, ror #28
    4534:	00746e69 	rsbseq	r6, r4, r9, ror #28
    4538:	544e4955 	strbpl	r4, [lr], #-2389	; 0xfffff6ab
    453c:	5f58414d 	svcpl	0x0058414d
    4540:	2058414d 	subscs	r4, r8, sp, asr #2
    4544:	555f5f28 	ldrbpl	r5, [pc, #-3880]	; 3624 <_Min_Stack_Size+0x3224>
    4548:	4d544e49 	ldclmi	14, cr4, [r4, #-292]	; 0xfffffedc
    454c:	4d5f5841 	ldclmi	8, cr5, [pc, #-260]	; 4450 <_Min_Stack_Size+0x4050>
    4550:	5f5f5841 	svcpl	0x005f5841
    4554:	53550029 	cmppl	r5, #41	; 0x29
    4558:	33545241 	cmpcc	r4, #268435460	; 0x10000004
    455c:	5152495f 	cmppl	r2, pc, asr r9
    4560:	00393320 	eorseq	r3, r9, r0, lsr #6
    4564:	49545845 	ldmdbmi	r4, {r0, r2, r6, fp, ip, lr}^
    4568:	35425035 	strbcc	r5, [r2, #-53]	; 0xffffffcb
    456c:	58452820 	stmdapl	r5, {r5, fp, sp}^
    4570:	475f4954 			; <UNDEFINED> instruction: 0x475f4954
    4574:	5f4f4950 	svcpl	0x004f4950
    4578:	7070614d 	rsbsvc	r6, r0, sp, asr #2
    457c:	5f676e69 	svcpl	0x00676e69
    4580:	457b2974 	ldrbmi	r2, [fp, #-2420]!	; 0xfffff68c
    4584:	35495458 	strbcc	r5, [r9, #-1112]	; 0xfffffba8
    4588:	5047202c 	subpl	r2, r7, ip, lsr #32
    458c:	2c424f49 	mcrrcs	15, 4, r4, r2, cr9
    4590:	49504720 	ldmdbmi	r0, {r5, r8, r9, sl, lr}^
    4594:	49505f4f 	ldmdbmi	r0, {r0, r1, r2, r3, r6, r8, r9, sl, fp, ip, lr}^
    4598:	2c355f4e 	ldccs	15, cr5, [r5], #-312	; 0xfffffec8
    459c:	54584520 	ldrbpl	r4, [r8], #-1312	; 0xfffffae0
    45a0:	495f3549 	ldmdbmi	pc, {r0, r3, r6, r8, sl, ip, sp}^	; <UNPREDICTABLE>
    45a4:	007d5152 	rsbseq	r5, sp, r2, asr r1
    45a8:	41555f5f 	cmpmi	r5, pc, asr pc
    45ac:	4d554343 	ldclmi	3, cr4, [r5, #-268]	; 0xfffffef4
    45b0:	58414d5f 	stmdapl	r1, {r0, r1, r2, r3, r4, r6, r8, sl, fp, lr}^
    45b4:	30205f5f 	eorcc	r5, r0, pc, asr pc
    45b8:	46464658 			; <UNDEFINED> instruction: 0x46464658
    45bc:	46464646 	strbmi	r4, [r6], -r6, asr #12
    45c0:	312d5046 			; <UNDEFINED> instruction: 0x312d5046
    45c4:	004b5536 	subeq	r5, fp, r6, lsr r5
    45c8:	43435f5f 	movtmi	r5, #16223	; 0x3f5f
    45cc:	5055535f 	subspl	r5, r5, pc, asr r3
    45d0:	54524f50 	ldrbpl	r4, [r2], #-3920	; 0xfffff0b0
    45d4:	5f5f5f53 	svcpl	0x005f5f53
    45d8:	434e5546 	movtmi	r5, #58694	; 0xe546
    45dc:	31205f5f 			; <UNDEFINED> instruction: 0x31205f5f
    45e0:	465f5f00 	ldrbmi	r5, [pc], -r0, lsl #30
    45e4:	3436544c 	ldrtcc	r5, [r6], #-1100	; 0xfffffbb4
    45e8:	524f4e5f 	subpl	r4, pc, #1520	; 0x5f0
    45ec:	414d5f4d 	cmpmi	sp, sp, asr #30
    45f0:	205f5f58 	subscs	r5, pc, r8, asr pc	; <UNPREDICTABLE>
    45f4:	39372e31 	ldmdbcc	r7!, {r0, r4, r5, r9, sl, fp, sp}
    45f8:	33393637 	teqcc	r9, #57671680	; 0x3700000
    45fc:	38343331 	ldmdacc	r4!, {r0, r4, r5, r8, r9, ip, sp}
    4600:	31333236 	teqcc	r3, r6, lsr r2
    4604:	2b653735 	blcs	19522e0 <_Min_Stack_Size+0x1951ee0>
    4608:	46383033 			; <UNDEFINED> instruction: 0x46383033
    460c:	5f003436 	svcpl	0x00003436
    4610:	554e475f 	strbpl	r4, [lr, #-1887]	; 0xfffff8a1
    4614:	4b494c43 	blmi	1257728 <_Min_Stack_Size+0x1257328>
    4618:	414d5f45 	cmpmi	sp, r5, asr #30
    461c:	425f4854 	subsmi	r4, pc, #84, 16	; 0x540000
    4620:	544c4955 	strbpl	r4, [ip], #-2389	; 0xfffff6ab
    4624:	435f4e49 	cmpmi	pc, #1168	; 0x490
    4628:	54534e4f 	ldrbpl	r4, [r3], #-3663	; 0xfffff1b1
    462c:	53544e41 	cmppl	r4, #1040	; 0x410
    4630:	525f0020 	subspl	r0, pc, #32
    4634:	544e4545 	strbpl	r4, [lr], #-1349	; 0xfffffabb
    4638:	4353415f 	cmpmi	r3, #-1073741801	; 0xc0000017
    463c:	454d4954 	strbmi	r4, [sp, #-2388]	; 0xfffff6ac
    4640:	4655425f 			; <UNDEFINED> instruction: 0x4655425f
    4644:	72747028 	rsbsvc	r7, r4, #40	; 0x28
    4648:	28282029 	stmdacs	r8!, {r0, r3, r5, sp}
    464c:	29727470 	ldmdbcs	r2!, {r4, r5, r6, sl, ip, sp, lr}^
    4650:	615f3e2d 	cmpvs	pc, sp, lsr #28
    4654:	69746373 	ldmdbvs	r4!, {r0, r1, r4, r5, r6, r8, r9, sp, lr}^
    4658:	625f656d 	subsvs	r6, pc, #457179136	; 0x1b400000
    465c:	00296675 	eoreq	r6, r9, r5, ror r6
    4660:	505f545f 	subspl	r5, pc, pc, asr r4	; <UNPREDICTABLE>
    4664:	49445254 	stmdbmi	r4, {r2, r4, r6, r9, ip, lr}^
    4668:	205f4646 	subscs	r4, pc, r6, asr #12
    466c:	4c5f5f00 	mrrcmi	15, 0, r5, pc, cr0	; <UNPREDICTABLE>
    4670:	5f4c4244 	svcpl	0x004c4244
    4674:	4f4e4544 	svcmi	0x004e4544
    4678:	4d5f4d52 	ldclmi	13, cr4, [pc, #-328]	; 4538 <_Min_Stack_Size+0x4138>
    467c:	5f5f4e49 	svcpl	0x005f4e49
    4680:	392e3420 	stmdbcc	lr!, {r5, sl, ip, sp}
    4684:	35363034 	ldrcc	r3, [r6, #-52]!	; 0xffffffcc
    4688:	38353436 	ldmdacc	r5!, {r1, r2, r4, r5, sl, ip, sp}
    468c:	34323134 	ldrtcc	r3, [r2], #-308	; 0xfffffecc
    4690:	65343536 	ldrvs	r3, [r4, #-1334]!	; 0xfffffaca
    4694:	3432332d 	ldrtcc	r3, [r2], #-813	; 0xfffffcd3
    4698:	5f5f004c 	svcpl	0x005f004c
    469c:	36544e49 	ldrbcc	r4, [r4], -r9, asr #28
    46a0:	414d5f34 	cmpmi	sp, r4, lsr pc
    46a4:	205f5f58 	subscs	r5, pc, r8, asr pc	; <UNPREDICTABLE>
    46a8:	66377830 			; <UNDEFINED> instruction: 0x66377830
    46ac:	66666666 	strbtvs	r6, [r6], -r6, ror #12
    46b0:	66666666 	strbtvs	r6, [r6], -r6, ror #12
    46b4:	66666666 	strbtvs	r6, [r6], -r6, ror #12
    46b8:	4c4c6666 	mcrrmi	6, 6, r6, ip, cr6
    46bc:	73736100 	cmnvc	r3, #0, 2
    46c0:	28747265 	ldmdacs	r4!, {r0, r2, r5, r6, r9, ip, sp, lr}^
    46c4:	29655f5f 	stmdbcs	r5!, {r0, r1, r2, r3, r4, r6, r8, r9, sl, fp, ip, lr}^
    46c8:	5f282820 	svcpl	0x00282820
    46cc:	2029655f 	eorcs	r6, r9, pc, asr r5
    46d0:	7628203f 			; <UNDEFINED> instruction: 0x7628203f
    46d4:	2964696f 	stmdbcs	r4!, {r0, r1, r2, r3, r5, r6, r8, fp, sp, lr}^
    46d8:	203a2030 	eorscs	r2, sl, r0, lsr r0
    46dc:	73615f5f 	cmnvc	r1, #380	; 0x17c
    46e0:	74726573 	ldrbtvc	r6, [r2], #-1395	; 0xfffffa8d
    46e4:	6e75665f 	mrcvs	6, 3, r6, cr5, cr15, {2}
    46e8:	5f282063 	svcpl	0x00282063
    46ec:	4c49465f 	mcrrmi	6, 5, r4, r9, cr15
    46f0:	2c5f5f45 	mrrccs	15, 4, r5, pc, cr5	; <UNPREDICTABLE>
    46f4:	4c5f5f20 	mrrcmi	15, 2, r5, pc, cr0	; <UNPREDICTABLE>
    46f8:	5f454e49 	svcpl	0x00454e49
    46fc:	5f202c5f 	svcpl	0x00202c5f
    4700:	5353415f 	cmppl	r3, #-1073741801	; 0xc0000017
    4704:	5f545245 	svcpl	0x00545245
    4708:	434e5546 	movtmi	r5, #58694	; 0xe546
    470c:	5f23202c 	svcpl	0x0023202c
    4710:	2929655f 	stmdbcs	r9!, {r0, r1, r2, r3, r4, r6, r8, sl, sp, lr}
    4714:	555f5f00 	ldrbpl	r5, [pc, #-3840]	; 381c <_Min_Stack_Size+0x341c>
    4718:	52464c4c 	subpl	r4, r6, #76, 24	; 0x4c00
    471c:	5f544341 	svcpl	0x00544341
    4720:	54494249 	strbpl	r4, [r9], #-585	; 0xfffffdb7
    4724:	30205f5f 	eorcc	r5, r0, pc, asr pc
    4728:	4e415f00 	cdpmi	15, 4, cr5, cr1, cr0, {0}
    472c:	535f4953 	cmppl	pc, #1359872	; 0x14c000
    4730:	45444454 	strbmi	r4, [r4, #-1108]	; 0xfffffbac
    4734:	20485f46 	subcs	r5, r8, r6, asr #30
    4738:	49504700 	ldmdbmi	r0, {r8, r9, sl, lr}^
    473c:	49505f4f 	ldmdbmi	r0, {r0, r1, r2, r3, r6, r8, r9, sl, fp, ip, lr}^
    4740:	20365f4e 	eorscs	r5, r6, lr, asr #30
    4744:	69752828 	ldmdbvs	r5!, {r3, r5, fp, sp}^
    4748:	3631746e 	ldrtcc	r7, [r1], -lr, ror #8
    474c:	2029745f 	eorcs	r7, r9, pc, asr r4
    4750:	30307830 	eorscc	r7, r0, r0, lsr r8
    4754:	00293034 	eoreq	r3, r9, r4, lsr r0
    4758:	4349564e 	movtmi	r5, #38478	; 0x964e
    475c:	4553495f 	ldrbmi	r4, [r3, #-2399]	; 0xfffff6a1
    4760:	2a203052 	bcs	8108b0 <_Min_Stack_Size+0x8104b0>
    4764:	6c6f7628 	stclvs	6, cr7, [pc], #-160	; 46cc <_Min_Stack_Size+0x42cc>
    4768:	6c697461 	cfstrdvs	mvd7, [r9], #-388	; 0xfffffe7c
    476c:	69752065 	ldmdbvs	r5!, {r0, r2, r5, r6, sp}^
    4770:	3233746e 	eorscc	r7, r3, #1845493760	; 0x6e000000
    4774:	202a745f 	eorcs	r7, sl, pc, asr r4
    4778:	564e2829 	strbpl	r2, [lr], -r9, lsr #16
    477c:	425f4349 	subsmi	r4, pc, #603979777	; 0x24000001
    4780:	20657361 	rsbcs	r7, r5, r1, ror #6
    4784:	3078302b 	rsbscc	r3, r8, fp, lsr #32
    4788:	00293030 	eoreq	r3, r9, r0, lsr r0
    478c:	4e475f5f 	mcrmi	15, 2, r5, cr7, cr15, {2}
    4790:	5f5f4355 	svcpl	0x005f4355
    4794:	00303120 	eorseq	r3, r0, r0, lsr #2
    4798:	4545525f 	strbmi	r5, [r5, #-607]	; 0xfffffda1
    479c:	575f544e 	ldrbpl	r5, [pc, -lr, asr #8]
    47a0:	4f545243 	svcmi	0x00545243
    47a4:	535f424d 	cmppl	pc, #-805306364	; 0xd0000004
    47a8:	45544154 	ldrbmi	r4, [r4, #-340]	; 0xfffffeac
    47ac:	72747028 	rsbsvc	r7, r4, #40	; 0x28
    47b0:	28282029 	stmdacs	r8!, {r0, r3, r5, sp}
    47b4:	29727470 	ldmdbcs	r2!, {r4, r5, r6, sl, ip, sp, lr}^
    47b8:	6d5f3e2d 	ldclvs	14, cr3, [pc, #-180]	; 470c <_Min_Stack_Size+0x430c>
    47bc:	2d637369 	stclcs	3, cr7, [r3, #-420]!	; 0xfffffe5c
    47c0:	63775f3e 	cmnvs	r7, #62, 30	; 0xf8
    47c4:	6d6f7472 	cfstrdvs	mvd7, [pc, #-456]!	; 4604 <_Min_Stack_Size+0x4204>
    47c8:	74735f62 	ldrbtvc	r5, [r3], #-3938	; 0xfffff09e
    47cc:	29657461 	stmdbcs	r5!, {r0, r5, r6, sl, ip, sp, lr}^
    47d0:	615f5f00 	cmpvs	pc, r0, lsl #30
    47d4:	636f6c6c 	cmnvs	pc, #108, 24	; 0x6c00
    47d8:	7a69735f 	bvc	1a6155c <_Min_Stack_Size+0x1a6115c>
    47dc:	29782865 	ldmdbcs	r8!, {r0, r2, r5, r6, fp, sp}^
    47e0:	615f5f20 	cmpvs	pc, r0, lsr #30
    47e4:	69727474 	ldmdbvs	r2!, {r2, r4, r5, r6, sl, ip, sp, lr}^
    47e8:	65747562 	ldrbvs	r7, [r4, #-1378]!	; 0xfffffa9e
    47ec:	28285f5f 	stmdacs	r8!, {r0, r1, r2, r3, r4, r6, r8, r9, sl, fp, ip, lr}
    47f0:	6c615f5f 	stclvs	15, cr5, [r1], #-380	; 0xfffffe84
    47f4:	5f636f6c 	svcpl	0x00636f6c
    47f8:	657a6973 	ldrbvs	r6, [sl, #-2419]!	; 0xfffff68d
    47fc:	78285f5f 	stmdavc	r8!, {r0, r1, r2, r3, r4, r6, r8, r9, sl, fp, ip, lr}
    4800:	00292929 	eoreq	r2, r9, r9, lsr #18
    4804:	4f4c5f5f 	svcmi	0x004c5f5f
    4808:	575f474e 	ldrbpl	r4, [pc, -lr, asr #14]
    480c:	48544449 	ldmdami	r4, {r0, r3, r6, sl, lr}^
    4810:	33205f5f 			; <UNDEFINED> instruction: 0x33205f5f
    4814:	69540032 	ldmdbvs	r4, {r1, r4, r5}^
    4818:	2820346d 	stmdacs	r0!, {r0, r2, r3, r5, r6, sl, ip, sp}
    481c:	4d495428 	cfstrdmi	mvd5, [r9, #-160]	; 0xffffff60
    4820:	5f357432 	svcpl	0x00357432
    4824:	65707954 	ldrbvs	r7, [r0, #-2388]!	; 0xfffff6ac
    4828:	5f666544 	svcpl	0x00666544
    482c:	54292a74 	strtpl	r2, [r9], #-2676	; 0xfffff58c
    4830:	5f344d49 	svcpl	0x00344d49
    4834:	45534142 	ldrbmi	r4, [r3, #-322]	; 0xfffffebe
    4838:	5f5f0029 	svcpl	0x005f0029
    483c:	5f544c46 	svcpl	0x00544c46
    4840:	5f58414d 	svcpl	0x0058414d
    4844:	2e33205f 	mrccs	0, 1, r2, cr3, cr15, {2}
    4848:	38323034 	ldmdacc	r2!, {r2, r4, r5, ip, sp}
    484c:	36343332 			; <UNDEFINED> instruction: 0x36343332
    4850:	35383336 	ldrcc	r3, [r8, #-822]!	; 0xfffffcca
    4854:	36383832 			; <UNDEFINED> instruction: 0x36383832
    4858:	38332b65 	ldmdacc	r3!, {r0, r2, r5, r6, r8, r9, fp, sp}
    485c:	50470046 	subpl	r0, r7, r6, asr #32
    4860:	5f464f49 	svcpl	0x00464f49
    4864:	45534142 	ldrbmi	r4, [r3, #-322]	; 0xfffffebe
    4868:	34783020 	ldrbtcc	r3, [r8], #-32	; 0xffffffe0
    486c:	31313030 	teqcc	r1, r0, lsr r0
    4870:	75303043 	ldrvc	r3, [r0, #-67]!	; 0xffffffbd
    4874:	555f5f00 	ldrbpl	r5, [pc, #-3840]	; 397c <_Min_Stack_Size+0x357c>
    4878:	55434341 	strbpl	r4, [r3, #-833]	; 0xfffffcbf
    487c:	42465f4d 	submi	r5, r6, #308	; 0x134
    4880:	5f5f5449 	svcpl	0x005f5449
    4884:	00363120 	eorseq	r3, r6, r0, lsr #2
    4888:	61775f5f 	cmnvs	r7, pc, asr pc
    488c:	725f6e72 	subsvc	r6, pc, #1824	; 0x720
    4890:	72656665 	rsbvc	r6, r5, #105906176	; 0x6500000
    4894:	65636e65 	strbvs	r6, [r3, #-3685]!	; 0xfffff19b
    4898:	79732873 	ldmdbvc	r3!, {r0, r1, r4, r5, r6, fp, sp}^
    489c:	736d2c6d 	cmnvc	sp, #27904	; 0x6d00
    48a0:	5f202967 	svcpl	0x00202967
    48a4:	6d73615f 	ldfvse	f6, [r3, #-380]!	; 0xfffffe84
    48a8:	22285f5f 	eorcs	r5, r8, #380	; 0x17c
    48ac:	6365732e 	cmnvs	r5, #-1207959552	; 0xb8000000
    48b0:	6e6f6974 			; <UNDEFINED> instruction: 0x6e6f6974
    48b4:	6e672e20 	cdpvs	14, 6, cr2, cr7, cr0, {1}
    48b8:	61772e75 	cmnvs	r7, r5, ror lr
    48bc:	6e696e72 	mcrvs	14, 3, r6, cr9, cr2, {3}
    48c0:	20222e67 	eorcs	r2, r2, r7, ror #28
    48c4:	6d797323 	ldclvs	3, cr7, [r9, #-140]!	; 0xffffff74
    48c8:	5f203b29 	svcpl	0x00203b29
    48cc:	6d73615f 	ldfvse	f6, [r3, #-380]!	; 0xfffffe84
    48d0:	22285f5f 	eorcs	r5, r8, #380	; 0x17c
    48d4:	6373612e 	cmnvs	r3, #-2147483637	; 0x8000000b
    48d8:	5c207a69 			; <UNDEFINED> instruction: 0x5c207a69
    48dc:	6d202222 	sfmvs	f2, 4, [r0, #-136]!	; 0xffffff78
    48e0:	22206773 	eorcs	r6, r0, #30146560	; 0x1cc0000
    48e4:	2922225c 	stmdbcs	r2!, {r2, r3, r4, r6, r9, sp}
    48e8:	5f5f203b 	svcpl	0x005f203b
    48ec:	5f6d7361 	svcpl	0x006d7361
    48f0:	2e22285f 	mcrcs	8, 1, r2, cr2, cr15, {2}
    48f4:	76657270 			; <UNDEFINED> instruction: 0x76657270
    48f8:	73756f69 	cmnvc	r5, #420	; 0x1a4
    48fc:	5f002922 	svcpl	0x00002922
    4900:	5246555f 	subpl	r5, r6, #398458880	; 0x17c00000
    4904:	5f544341 	svcpl	0x00544341
    4908:	49535045 	ldmdbmi	r3, {r0, r2, r6, ip, lr}^
    490c:	5f4e4f4c 	svcpl	0x004e4f4c
    4910:	7830205f 	ldmdavc	r0!, {r0, r1, r2, r3, r4, r6, sp}
    4914:	312d5031 			; <UNDEFINED> instruction: 0x312d5031
    4918:	00525536 	subseq	r5, r2, r6, lsr r5
    491c:	43575f5f 	cmpmi	r7, #380	; 0x17c
    4920:	5f524148 	svcpl	0x00524148
    4924:	5f4e494d 	svcpl	0x004e494d
    4928:	5530205f 	ldrpl	r2, [r0, #-95]!	; 0xffffffa1
    492c:	555f5f00 	ldrbpl	r5, [pc, #-3840]	; 3a34 <_Min_Stack_Size+0x3634>
    4930:	495f5151 	ldmdbmi	pc, {r0, r4, r6, r8, ip, lr}^	; <UNPREDICTABLE>
    4934:	5f544942 	svcpl	0x00544942
    4938:	0030205f 	eorseq	r2, r0, pc, asr r0
    493c:	57454e5f 	smlsldpl	r4, r5, pc, lr	; <UNPREDICTABLE>
    4940:	5f42494c 	svcpl	0x0042494c
    4944:	53524556 	cmppl	r2, #360710144	; 0x15800000
    4948:	5f4e4f49 	svcpl	0x004e4f49
    494c:	205f5f48 	subscs	r5, pc, r8, asr #30
    4950:	5f5f0031 	svcpl	0x005f0031
    4954:	5f434347 	svcpl	0x00434347
    4958:	4d4f5441 	cfstrdmi	mvd5, [pc, #-260]	; 485c <_Min_Stack_Size+0x445c>
    495c:	4c5f4349 	mrrcmi	3, 4, r4, pc, cr9	; <UNPREDICTABLE>
    4960:	5f474e4f 	svcpl	0x00474e4f
    4964:	4b434f4c 	blmi	10d869c <_Min_Stack_Size+0x10d829c>
    4968:	4552465f 	ldrbmi	r4, [r2, #-1631]	; 0xfffff9a1
    496c:	00322045 	eorseq	r2, r2, r5, asr #32
    4970:	4c555f5f 	mrrcmi	15, 5, r5, r5, cr15	; <UNPREDICTABLE>
    4974:	55434341 	strbpl	r4, [r3, #-833]	; 0xfffffcbf
    4978:	494d5f4d 	stmdbmi	sp, {r0, r2, r3, r6, r8, r9, sl, fp, ip, lr}^
    497c:	205f5f4e 	subscs	r5, pc, lr, asr #30
    4980:	55302e30 	ldrpl	r2, [r0, #-3632]!	; 0xfffff1d0
    4984:	5f004b4c 	svcpl	0x00004b4c
    4988:	58455441 	stmdapl	r5, {r0, r6, sl, ip, lr}^
    498c:	445f5449 	ldrbmi	r5, [pc], #-1097	; 4994 <_Min_Stack_Size+0x4594>
    4990:	4d414e59 	stclmi	14, cr4, [r1, #-356]	; 0xfffffe9c
    4994:	415f4349 	cmpmi	pc, r9, asr #6
    4998:	434f4c4c 	movtmi	r4, #64588	; 0xfc4c
    499c:	5f003120 	svcpl	0x00003120
    49a0:	65656e5f 	strbvs	r6, [r5, #-3679]!	; 0xfffff1a1
    49a4:	69735f64 	ldmdbvs	r3!, {r2, r5, r6, r8, r9, sl, fp, ip, lr}^
    49a8:	745f657a 	ldrbvc	r6, [pc], #-1402	; 49b0 <_Min_Stack_Size+0x45b0>
    49ac:	4c5f5f00 	mrrcmi	15, 0, r5, pc, cr0	; <UNPREDICTABLE>
    49b0:	5f4c4244 	svcpl	0x004c4244
    49b4:	5f58414d 	svcpl	0x0058414d
    49b8:	2e31205f 	mrccs	0, 1, r2, cr1, cr15, {2}
    49bc:	36373937 			; <UNDEFINED> instruction: 0x36373937
    49c0:	33313339 	teqcc	r1, #-469762048	; 0xe4000000
    49c4:	32363834 	eorscc	r3, r6, #52, 16	; 0x340000
    49c8:	37353133 			; <UNDEFINED> instruction: 0x37353133
    49cc:	30332b65 	eorscc	r2, r3, r5, ror #22
    49d0:	5f004c38 	svcpl	0x00004c38
    49d4:	4d52415f 	ldfmie	f4, [r2, #-380]	; 0xfffffe84
    49d8:	4352415f 	cmpmi	r2, #-1073741801	; 0xc0000017
    49dc:	00372048 	eorseq	r2, r7, r8, asr #32
    49e0:	4c465f5f 	mcrrmi	15, 5, r5, r6, cr15
    49e4:	41525f54 	cmpmi	r2, r4, asr pc
    49e8:	5f584944 	svcpl	0x00584944
    49ec:	0032205f 	eorseq	r2, r2, pc, asr r0
    49f0:	4f495047 	svcmi	0x00495047
    49f4:	41425f45 	cmpmi	r2, r5, asr #30
    49f8:	30204553 	eorcc	r4, r0, r3, asr r5
    49fc:	30303478 	eorscc	r3, r0, r8, ror r4
    4a00:	30383131 	eorscc	r3, r8, r1, lsr r1
    4a04:	49007530 	stmdbmi	r0, {r4, r5, r8, sl, ip, sp, lr}
    4a08:	3436544e 	ldrtcc	r5, [r6], #-1102	; 0xfffffbb2
    4a0c:	58414d5f 	stmdapl	r1, {r0, r1, r2, r3, r4, r6, r8, sl, fp, lr}^
    4a10:	5f5f2820 	svcpl	0x005f2820
    4a14:	36544e49 	ldrbcc	r4, [r4], -r9, asr #28
    4a18:	414d5f34 	cmpmi	sp, r4, lsr pc
    4a1c:	295f5f58 	ldmdbcs	pc, {r3, r4, r6, r8, r9, sl, fp, ip, lr}^	; <UNPREDICTABLE>
    4a20:	415f5f00 	cmpmi	pc, r0, lsl #30
    4a24:	465f4d52 			; <UNDEFINED> instruction: 0x465f4d52
    4a28:	55544145 	ldrbpl	r4, [r4, #-325]	; 0xfffffebb
    4a2c:	435f4552 	cmpmi	pc, #343932928	; 0x14800000
    4a30:	0045534d 	subeq	r5, r5, sp, asr #6
    4a34:	4349564e 	movtmi	r5, #38478	; 0x964e
    4a38:	4153555f 	cmpmi	r3, pc, asr r5
    4a3c:	5f335452 	svcpl	0x00335452
    4a40:	5f515249 	svcpl	0x00515249
    4a44:	61736944 	cmnvs	r3, r4, asr #18
    4a48:	20656c62 	rsbcs	r6, r5, r2, ror #24
    4a4c:	49564e28 	ldmdbmi	r6, {r3, r5, r9, sl, fp, lr}^
    4a50:	43495f43 	movtmi	r5, #40771	; 0x9f43
    4a54:	20315245 	eorscs	r5, r1, r5, asr #4
    4a58:	31203d7c 			; <UNDEFINED> instruction: 0x31203d7c
    4a5c:	55283c3c 	strpl	r3, [r8, #-3132]!	; 0xfffff3c4
    4a60:	54524153 	ldrbpl	r4, [r2], #-339	; 0xfffffead
    4a64:	52495f33 	subpl	r5, r9, #51, 30	; 0xcc
    4a68:	202d2051 	eorcs	r2, sp, r1, asr r0
    4a6c:	29293233 	stmdbcs	r9!, {r0, r1, r4, r5, r9, ip, sp}
    4a70:	4c5f5f00 	mrrcmi	15, 0, r5, pc, cr0	; <UNPREDICTABLE>
    4a74:	55434341 	strbpl	r4, [r3, #-833]	; 0xfffffcbf
    4a78:	50455f4d 	subpl	r5, r5, sp, asr #30
    4a7c:	4f4c4953 	svcmi	0x004c4953
    4a80:	205f5f4e 	subscs	r5, pc, lr, asr #30
    4a84:	50317830 	eorspl	r7, r1, r0, lsr r8
    4a88:	4c31332d 	ldcmi	3, cr3, [r1], #-180	; 0xffffff4c
    4a8c:	5f5f004b 	svcpl	0x005f004b
    4a90:	5f434347 	svcpl	0x00434347
    4a94:	4d4f5441 	cfstrdmi	mvd5, [pc, #-260]	; 4998 <_Min_Stack_Size+0x4598>
    4a98:	425f4349 	subsmi	r4, pc, #603979777	; 0x24000001
    4a9c:	5f4c4f4f 	svcpl	0x004c4f4f
    4aa0:	4b434f4c 	blmi	10d87d8 <_Min_Stack_Size+0x10d83d8>
    4aa4:	4552465f 	ldrbmi	r4, [r2, #-1631]	; 0xfffff9a1
    4aa8:	00322045 	eorseq	r2, r2, r5, asr #32
    4aac:	63775f5f 	cmnvs	r7, #380	; 0x17c
    4ab0:	5f726168 	svcpl	0x00726168
    4ab4:	205f5f74 	subscs	r5, pc, r4, ror pc	; <UNPREDICTABLE>
    4ab8:	45525f00 	ldrbmi	r5, [r2, #-3840]	; 0xfffff100
    4abc:	5f544e45 	svcpl	0x00544e45
    4ac0:	54494e49 	strbpl	r4, [r9], #-3657	; 0xfffff1b7
    4ac4:	53494d5f 	movtpl	r4, #40287	; 0x9d5f
    4ac8:	61762843 	cmnvs	r6, r3, asr #16
    4acc:	64202972 	strtvs	r2, [r0], #-2418	; 0xfffff68e
    4ad0:	207b206f 	rsbscs	r2, fp, pc, rrx
    4ad4:	75727473 	ldrbvc	r7, [r2, #-1139]!	; 0xfffffb8d
    4ad8:	5f207463 	svcpl	0x00207463
    4adc:	6e656572 	mcrvs	5, 3, r6, cr5, cr2, {3}
    4ae0:	5f2a2074 	svcpl	0x002a2074
    4ae4:	203d2072 	eorscs	r2, sp, r2, ror r0
    4ae8:	72617628 	rsbvc	r7, r1, #40, 12	; 0x2800000
    4aec:	5f203b29 	svcpl	0x00203b29
    4af0:	5f3e2d72 	svcpl	0x003e2d72
    4af4:	6373696d 	cmnvs	r3, #1785856	; 0x1b4000
    4af8:	735f3e2d 	cmpvc	pc, #720	; 0x2d0
    4afc:	6f747274 	svcvs	0x00747274
    4b00:	616c5f6b 	cmnvs	ip, fp, ror #30
    4b04:	3d207473 	cfstrscc	mvf7, [r0, #-460]!	; 0xfffffe34
    4b08:	554e5f20 	strbpl	r5, [lr, #-3872]	; 0xfffff0e0
    4b0c:	203b4c4c 	eorscs	r4, fp, ip, asr #24
    4b10:	3e2d725f 	mcrcc	2, 1, r7, cr13, cr15, {2}
    4b14:	73696d5f 	cmnvc	r9, #6080	; 0x17c0
    4b18:	5f3e2d63 	svcpl	0x003e2d63
    4b1c:	656c626d 	strbvs	r6, [ip, #-621]!	; 0xfffffd93
    4b20:	74735f6e 	ldrbtvc	r5, [r3], #-3950	; 0xfffff092
    4b24:	2e657461 	cdpcs	4, 6, cr7, cr5, cr1, {3}
    4b28:	6f635f5f 	svcvs	0x00635f5f
    4b2c:	20746e75 	rsbscs	r6, r4, r5, ror lr
    4b30:	3b30203d 	blcc	c0cc2c <_Min_Stack_Size+0xc0c82c>
    4b34:	2d725f20 	ldclcs	15, cr5, [r2, #-128]!	; 0xffffff80
    4b38:	696d5f3e 	stmdbvs	sp!, {r1, r2, r3, r4, r5, r8, r9, sl, fp, ip, lr}^
    4b3c:	3e2d6373 	mcrcc	3, 1, r6, cr13, cr3, {3}
    4b40:	6c626d5f 	stclvs	13, cr6, [r2], #-380	; 0xfffffe84
    4b44:	735f6e65 	cmpvc	pc, #1616	; 0x650
    4b48:	65746174 	ldrbvs	r6, [r4, #-372]!	; 0xfffffe8c
    4b4c:	765f5f2e 	ldrbvc	r5, [pc], -lr, lsr #30
    4b50:	65756c61 	ldrbvs	r6, [r5, #-3169]!	; 0xfffff39f
    4b54:	775f5f2e 	ldrbvc	r5, [pc, -lr, lsr #30]
    4b58:	3d206863 	stccc	8, cr6, [r0, #-396]!	; 0xfffffe74
    4b5c:	203b3020 	eorscs	r3, fp, r0, lsr #32
    4b60:	3e2d725f 	mcrcc	2, 1, r7, cr13, cr15, {2}
    4b64:	73696d5f 	cmnvc	r9, #6080	; 0x17c0
    4b68:	5f3e2d63 	svcpl	0x003e2d63
    4b6c:	6f746377 	svcvs	0x00746377
    4b70:	735f626d 	cmpvc	pc, #-805306362	; 0xd0000006
    4b74:	65746174 	ldrbvs	r6, [r4, #-372]!	; 0xfffffe8c
    4b78:	635f5f2e 	cmpvs	pc, #46, 30	; 0xb8
    4b7c:	746e756f 	strbtvc	r7, [lr], #-1391	; 0xfffffa91
    4b80:	30203d20 	eorcc	r3, r0, r0, lsr #26
    4b84:	725f203b 	subsvc	r2, pc, #59	; 0x3b
    4b88:	6d5f3e2d 	ldclvs	14, cr3, [pc, #-180]	; 4adc <_Min_Stack_Size+0x46dc>
    4b8c:	2d637369 	stclcs	3, cr7, [r3, #-420]!	; 0xfffffe5c
    4b90:	63775f3e 	cmnvs	r7, #62, 30	; 0xf8
    4b94:	626d6f74 	rsbvs	r6, sp, #116, 30	; 0x1d0
    4b98:	6174735f 	cmnvs	r4, pc, asr r3
    4b9c:	5f2e6574 	svcpl	0x002e6574
    4ba0:	6c61765f 	stclvs	6, cr7, [r1], #-380	; 0xfffffe84
    4ba4:	5f2e6575 	svcpl	0x002e6575
    4ba8:	6863775f 	stmdavs	r3!, {r0, r1, r2, r3, r4, r6, r8, r9, sl, ip, sp, lr}^
    4bac:	30203d20 	eorcc	r3, r0, r0, lsr #26
    4bb0:	725f203b 	subsvc	r2, pc, #59	; 0x3b
    4bb4:	6d5f3e2d 	ldclvs	14, cr3, [pc, #-180]	; 4b08 <_Min_Stack_Size+0x4708>
    4bb8:	2d637369 	stclcs	3, cr7, [r3, #-420]!	; 0xfffffe5c
    4bbc:	626d5f3e 	rsbvs	r5, sp, #62, 30	; 0xf8
    4bc0:	63776f74 	cmnvs	r7, #116, 30	; 0x1d0
    4bc4:	6174735f 	cmnvs	r4, pc, asr r3
    4bc8:	5f2e6574 	svcpl	0x002e6574
    4bcc:	756f635f 	strbvc	r6, [pc, #-863]!	; 4875 <_Min_Stack_Size+0x4475>
    4bd0:	3d20746e 	cfstrscc	mvf7, [r0, #-440]!	; 0xfffffe48
    4bd4:	203b3020 	eorscs	r3, fp, r0, lsr #32
    4bd8:	3e2d725f 	mcrcc	2, 1, r7, cr13, cr15, {2}
    4bdc:	73696d5f 	cmnvc	r9, #6080	; 0x17c0
    4be0:	5f3e2d63 	svcpl	0x003e2d63
    4be4:	6f74626d 	svcvs	0x0074626d
    4be8:	735f6377 	cmpvc	pc, #-603979775	; 0xdc000001
    4bec:	65746174 	ldrbvs	r6, [r4, #-372]!	; 0xfffffe8c
    4bf0:	765f5f2e 	ldrbvc	r5, [pc], -lr, lsr #30
    4bf4:	65756c61 	ldrbvs	r6, [r5, #-3169]!	; 0xfffff39f
    4bf8:	775f5f2e 	ldrbvc	r5, [pc, -lr, lsr #30]
    4bfc:	3d206863 	stccc	8, cr6, [r0, #-396]!	; 0xfffffe74
    4c00:	203b3020 	eorscs	r3, fp, r0, lsr #32
    4c04:	3e2d725f 	mcrcc	2, 1, r7, cr13, cr15, {2}
    4c08:	73696d5f 	cmnvc	r9, #6080	; 0x17c0
    4c0c:	5f3e2d63 	svcpl	0x003e2d63
    4c10:	6c72626d 	lfmvs	f6, 2, [r2], #-436	; 0xfffffe4c
    4c14:	735f6e65 	cmpvc	pc, #1616	; 0x650
    4c18:	65746174 	ldrbvs	r6, [r4, #-372]!	; 0xfffffe8c
    4c1c:	635f5f2e 	cmpvs	pc, #46, 30	; 0xb8
    4c20:	746e756f 	strbtvc	r7, [lr], #-1391	; 0xfffffa91
    4c24:	30203d20 	eorcc	r3, r0, r0, lsr #26
    4c28:	725f203b 	subsvc	r2, pc, #59	; 0x3b
    4c2c:	6d5f3e2d 	ldclvs	14, cr3, [pc, #-180]	; 4b80 <_Min_Stack_Size+0x4780>
    4c30:	2d637369 	stclcs	3, cr7, [r3, #-420]!	; 0xfffffe5c
    4c34:	626d5f3e 	rsbvs	r5, sp, #62, 30	; 0xf8
    4c38:	6e656c72 	mcrvs	12, 3, r6, cr5, cr2, {3}
    4c3c:	6174735f 	cmnvs	r4, pc, asr r3
    4c40:	5f2e6574 	svcpl	0x002e6574
    4c44:	6c61765f 	stclvs	6, cr7, [r1], #-380	; 0xfffffe84
    4c48:	5f2e6575 	svcpl	0x002e6575
    4c4c:	6863775f 	stmdavs	r3!, {r0, r1, r2, r3, r4, r6, r8, r9, sl, ip, sp, lr}^
    4c50:	30203d20 	eorcc	r3, r0, r0, lsr #26
    4c54:	725f203b 	subsvc	r2, pc, #59	; 0x3b
    4c58:	6d5f3e2d 	ldclvs	14, cr3, [pc, #-180]	; 4bac <_Min_Stack_Size+0x47ac>
    4c5c:	2d637369 	stclcs	3, cr7, [r3, #-420]!	; 0xfffffe5c
    4c60:	626d5f3e 	rsbvs	r5, sp, #62, 30	; 0xf8
    4c64:	776f7472 			; <UNDEFINED> instruction: 0x776f7472
    4c68:	74735f63 	ldrbtvc	r5, [r3], #-3939	; 0xfffff09d
    4c6c:	2e657461 	cdpcs	4, 6, cr7, cr5, cr1, {3}
    4c70:	6f635f5f 	svcvs	0x00635f5f
    4c74:	20746e75 	rsbscs	r6, r4, r5, ror lr
    4c78:	3b30203d 	blcc	c0cd74 <_Min_Stack_Size+0xc0c974>
    4c7c:	2d725f20 	ldclcs	15, cr5, [r2, #-128]!	; 0xffffff80
    4c80:	696d5f3e 	stmdbvs	sp!, {r1, r2, r3, r4, r5, r8, r9, sl, fp, ip, lr}^
    4c84:	3e2d6373 	mcrcc	3, 1, r6, cr13, cr3, {3}
    4c88:	72626d5f 	rsbvc	r6, r2, #6080	; 0x17c0
    4c8c:	63776f74 	cmnvs	r7, #116, 30	; 0x1d0
    4c90:	6174735f 	cmnvs	r4, pc, asr r3
    4c94:	5f2e6574 	svcpl	0x002e6574
    4c98:	6c61765f 	stclvs	6, cr7, [r1], #-380	; 0xfffffe84
    4c9c:	5f2e6575 	svcpl	0x002e6575
    4ca0:	6863775f 	stmdavs	r3!, {r0, r1, r2, r3, r4, r6, r8, r9, sl, ip, sp, lr}^
    4ca4:	30203d20 	eorcc	r3, r0, r0, lsr #26
    4ca8:	725f203b 	subsvc	r2, pc, #59	; 0x3b
    4cac:	6d5f3e2d 	ldclvs	14, cr3, [pc, #-180]	; 4c00 <_Min_Stack_Size+0x4800>
    4cb0:	2d637369 	stclcs	3, cr7, [r3, #-420]!	; 0xfffffe5c
    4cb4:	626d5f3e 	rsbvs	r5, sp, #62, 30	; 0xf8
    4cb8:	6f747273 	svcvs	0x00747273
    4cbc:	5f736377 	svcpl	0x00736377
    4cc0:	74617473 	strbtvc	r7, [r1], #-1139	; 0xfffffb8d
    4cc4:	5f5f2e65 	svcpl	0x005f2e65
    4cc8:	6e756f63 	cdpvs	15, 7, cr6, cr5, cr3, {3}
    4ccc:	203d2074 	eorscs	r2, sp, r4, ror r0
    4cd0:	5f203b30 	svcpl	0x00203b30
    4cd4:	5f3e2d72 	svcpl	0x003e2d72
    4cd8:	6373696d 	cmnvs	r3, #1785856	; 0x1b4000
    4cdc:	6d5f3e2d 	ldclvs	14, cr3, [pc, #-180]	; 4c30 <_Min_Stack_Size+0x4830>
    4ce0:	74727362 	ldrbtvc	r7, [r2], #-866	; 0xfffffc9e
    4ce4:	7363776f 	cmnvc	r3, #29097984	; 0x1bc0000
    4ce8:	6174735f 	cmnvs	r4, pc, asr r3
    4cec:	5f2e6574 	svcpl	0x002e6574
    4cf0:	6c61765f 	stclvs	6, cr7, [r1], #-380	; 0xfffffe84
    4cf4:	5f2e6575 	svcpl	0x002e6575
    4cf8:	6863775f 	stmdavs	r3!, {r0, r1, r2, r3, r4, r6, r8, r9, sl, ip, sp, lr}^
    4cfc:	30203d20 	eorcc	r3, r0, r0, lsr #26
    4d00:	725f203b 	subsvc	r2, pc, #59	; 0x3b
    4d04:	6d5f3e2d 	ldclvs	14, cr3, [pc, #-180]	; 4c58 <_Min_Stack_Size+0x4858>
    4d08:	2d637369 	stclcs	3, cr7, [r3, #-420]!	; 0xfffffe5c
    4d0c:	63775f3e 	cmnvs	r7, #62, 30	; 0xf8
    4d10:	6d6f7472 	cfstrdvs	mvd7, [pc, #-456]!	; 4b50 <_Min_Stack_Size+0x4750>
    4d14:	74735f62 	ldrbtvc	r5, [r3], #-3938	; 0xfffff09e
    4d18:	2e657461 	cdpcs	4, 6, cr7, cr5, cr1, {3}
    4d1c:	6f635f5f 	svcvs	0x00635f5f
    4d20:	20746e75 	rsbscs	r6, r4, r5, ror lr
    4d24:	3b30203d 	blcc	c0ce20 <_Min_Stack_Size+0xc0ca20>
    4d28:	2d725f20 	ldclcs	15, cr5, [r2, #-128]!	; 0xffffff80
    4d2c:	696d5f3e 	stmdbvs	sp!, {r1, r2, r3, r4, r5, r8, r9, sl, fp, ip, lr}^
    4d30:	3e2d6373 	mcrcc	3, 1, r6, cr13, cr3, {3}
    4d34:	7263775f 	rsbvc	r7, r3, #24903680	; 0x17c0000
    4d38:	626d6f74 	rsbvs	r6, sp, #116, 30	; 0x1d0
    4d3c:	6174735f 	cmnvs	r4, pc, asr r3
    4d40:	5f2e6574 	svcpl	0x002e6574
    4d44:	6c61765f 	stclvs	6, cr7, [r1], #-380	; 0xfffffe84
    4d48:	5f2e6575 	svcpl	0x002e6575
    4d4c:	6863775f 	stmdavs	r3!, {r0, r1, r2, r3, r4, r6, r8, r9, sl, ip, sp, lr}^
    4d50:	30203d20 	eorcc	r3, r0, r0, lsr #26
    4d54:	725f203b 	subsvc	r2, pc, #59	; 0x3b
    4d58:	6d5f3e2d 	ldclvs	14, cr3, [pc, #-180]	; 4cac <_Min_Stack_Size+0x48ac>
    4d5c:	2d637369 	stclcs	3, cr7, [r3, #-420]!	; 0xfffffe5c
    4d60:	63775f3e 	cmnvs	r7, #62, 30	; 0xf8
    4d64:	6f747273 	svcvs	0x00747273
    4d68:	5f73626d 	svcpl	0x0073626d
    4d6c:	74617473 	strbtvc	r7, [r1], #-1139	; 0xfffffb8d
    4d70:	5f5f2e65 	svcpl	0x005f2e65
    4d74:	6e756f63 	cdpvs	15, 7, cr6, cr5, cr3, {3}
    4d78:	203d2074 	eorscs	r2, sp, r4, ror r0
    4d7c:	5f203b30 	svcpl	0x00203b30
    4d80:	5f3e2d72 	svcpl	0x003e2d72
    4d84:	6373696d 	cmnvs	r3, #1785856	; 0x1b4000
    4d88:	775f3e2d 	ldrbvc	r3, [pc, -sp, lsr #28]
    4d8c:	74727363 	ldrbtvc	r7, [r2], #-867	; 0xfffffc9d
    4d90:	73626d6f 	cmnvc	r2, #7104	; 0x1bc0
    4d94:	6174735f 	cmnvs	r4, pc, asr r3
    4d98:	5f2e6574 	svcpl	0x002e6574
    4d9c:	6c61765f 	stclvs	6, cr7, [r1], #-380	; 0xfffffe84
    4da0:	5f2e6575 	svcpl	0x002e6575
    4da4:	6863775f 	stmdavs	r3!, {r0, r1, r2, r3, r4, r6, r8, r9, sl, ip, sp, lr}^
    4da8:	30203d20 	eorcc	r3, r0, r0, lsr #26
    4dac:	725f203b 	subsvc	r2, pc, #59	; 0x3b
    4db0:	6d5f3e2d 	ldclvs	14, cr3, [pc, #-180]	; 4d04 <_Min_Stack_Size+0x4904>
    4db4:	2d637369 	stclcs	3, cr7, [r3, #-420]!	; 0xfffffe5c
    4db8:	366c5f3e 	uqasxcc	r5, ip, lr
    4dbc:	625f6134 	subsvs	r6, pc, #52, 2
    4dc0:	305b6675 	subscc	r6, fp, r5, ror r6
    4dc4:	203d205d 	eorscs	r2, sp, sp, asr r0
    4dc8:	27305c27 	ldrcs	r5, [r0, -r7, lsr #24]!
    4dcc:	725f203b 	subsvc	r2, pc, #59	; 0x3b
    4dd0:	6d5f3e2d 	ldclvs	14, cr3, [pc, #-180]	; 4d24 <_Min_Stack_Size+0x4924>
    4dd4:	2d637369 	stclcs	3, cr7, [r3, #-420]!	; 0xfffffe5c
    4dd8:	65675f3e 	strbvs	r5, [r7, #-3902]!	; 0xfffff0c2
    4ddc:	74616474 	strbtvc	r6, [r1], #-1140	; 0xfffffb8c
    4de0:	72655f65 	rsbvc	r5, r5, #404	; 0x194
    4de4:	203d2072 	eorscs	r2, sp, r2, ror r0
    4de8:	7d203b30 	vstmdbvc	r0!, {d3-d26}
    4dec:	69687720 	stmdbvs	r8!, {r5, r8, r9, sl, ip, sp, lr}^
    4df0:	2820656c 	stmdacs	r0!, {r2, r3, r5, r6, r8, sl, sp, lr}
    4df4:	5f002930 	svcpl	0x00002930
    4df8:	4e4f4c5f 	mcrmi	12, 2, r4, cr15, cr15, {2}
    4dfc:	4f4c5f47 	svcmi	0x004c5f47
    4e00:	575f474e 	ldrbpl	r4, [pc, -lr, asr #14]
    4e04:	48544449 	ldmdami	r4, {r0, r3, r6, sl, lr}^
    4e08:	36205f5f 	qsaxcc	r5, r0, pc	; <UNPREDICTABLE>
    4e0c:	58450034 	stmdapl	r5, {r2, r4, r5}^
    4e10:	5f324954 	svcpl	0x00324954
    4e14:	20515249 	subscs	r5, r1, r9, asr #4
    4e18:	49570038 	ldmdbmi	r7, {r3, r4, r5}^
    4e1c:	4d5f544e 	cfldrdmi	mvd5, [pc, #-312]	; 4cec <_Min_Stack_Size+0x48ec>
    4e20:	28205841 	stmdacs	r0!, {r0, r6, fp, ip, lr}
    4e24:	49575f5f 	ldmdbmi	r7, {r0, r1, r2, r3, r4, r6, r8, r9, sl, fp, ip, lr}^
    4e28:	4d5f544e 	cfldrdmi	mvd5, [pc, #-312]	; 4cf8 <_Min_Stack_Size+0x48f8>
    4e2c:	5f5f5841 	svcpl	0x005f5841
    4e30:	50470029 	subpl	r0, r7, r9, lsr #32
    4e34:	20444f49 	subcs	r4, r4, r9, asr #30
    4e38:	50472828 	subpl	r2, r7, r8, lsr #16
    4e3c:	545f4f49 	ldrbpl	r4, [pc], #-3913	; 4e44 <_Min_Stack_Size+0x4a44>
    4e40:	64657079 	strbtvs	r7, [r5], #-121	; 0xffffff87
    4e44:	745f6665 	ldrbvc	r6, [pc], #-1637	; 4e4c <_Min_Stack_Size+0x4a4c>
    4e48:	47292a20 	strmi	r2, [r9, -r0, lsr #20]!
    4e4c:	444f4950 	strbmi	r4, [pc], #-2384	; 4e54 <_Min_Stack_Size+0x4a54>
    4e50:	5341425f 	movtpl	r4, #4703	; 0x125f
    4e54:	5f002945 	svcpl	0x00002945
    4e58:	4e49555f 	mcrmi	5, 2, r5, cr9, cr15, {2}
    4e5c:	41465f54 	cmpmi	r6, r4, asr pc
    4e60:	34365453 	ldrtcc	r5, [r6], #-1107	; 0xfffffbad
    4e64:	58414d5f 	stmdapl	r1, {r0, r1, r2, r3, r4, r6, r8, sl, fp, lr}^
    4e68:	30205f5f 	eorcc	r5, r0, pc, asr pc
    4e6c:	66666678 			; <UNDEFINED> instruction: 0x66666678
    4e70:	66666666 	strbtvs	r6, [r6], -r6, ror #12
    4e74:	66666666 	strbtvs	r6, [r6], -r6, ror #12
    4e78:	66666666 	strbtvs	r6, [r6], -r6, ror #12
    4e7c:	4c4c5566 	cfstr64mi	mvdx5, [ip], {102}	; 0x66
    4e80:	415f5f00 	cmpmi	pc, r0, lsl #30
    4e84:	465f4d52 			; <UNDEFINED> instruction: 0x465f4d52
    4e88:	525f0050 	subspl	r0, pc, #80	; 0x50
    4e8c:	544e4545 	strbpl	r4, [lr], #-1349	; 0xfffffabb
    4e90:	4548435f 	strbmi	r4, [r8, #-863]	; 0xfffffca1
    4e94:	455f4b43 	ldrbmi	r4, [pc, #-2883]	; 4359 <_Min_Stack_Size+0x3f59>
    4e98:	4752454d 	ldrbmi	r4, [r2, -sp, asr #10]
    4e9c:	59434e45 	stmdbpl	r3, {r0, r2, r6, r9, sl, fp, lr}^
    4ea0:	72617628 	rsbvc	r7, r1, #40, 12	; 0x2800000
    4ea4:	525f2029 	subspl	r2, pc, #41	; 0x29
    4ea8:	544e4545 	strbpl	r4, [lr], #-1349	; 0xfffffabb
    4eac:	4548435f 	strbmi	r4, [r8, #-863]	; 0xfffffca1
    4eb0:	76284b43 	strtvc	r4, [r8], -r3, asr #22
    4eb4:	202c7261 	eorcs	r7, ip, r1, ror #4
    4eb8:	656d655f 	strbvs	r6, [sp, #-1375]!	; 0xfffffaa1
    4ebc:	6e656772 	mcrvs	7, 3, r6, cr5, cr2, {3}
    4ec0:	202c7963 	eorcs	r7, ip, r3, ror #18
    4ec4:	72616863 	rsbvc	r6, r1, #6488064	; 0x630000
    4ec8:	202c2a20 	eorcs	r2, ip, r0, lsr #20
    4ecc:	4545525f 	strbmi	r5, [r5, #-607]	; 0xfffffda1
    4ed0:	455f544e 	ldrbmi	r5, [pc, #-1102]	; 4a8a <_Min_Stack_Size+0x468a>
    4ed4:	4752454d 	ldrbmi	r4, [r2, -sp, asr #10]
    4ed8:	59434e45 	stmdbpl	r3, {r0, r2, r6, r9, sl, fp, lr}^
    4edc:	5a49535f 	bpl	1259c60 <_Min_Stack_Size+0x1259860>
    4ee0:	29202c45 	stmdbcs	r0!, {r0, r2, r6, sl, fp, sp}
    4ee4:	415f5f00 	cmpmi	pc, r0, lsl #30
    4ee8:	465f4d52 			; <UNDEFINED> instruction: 0x465f4d52
    4eec:	55544145 	ldrbpl	r4, [r4, #-325]	; 0xfffffebb
    4ef0:	445f4552 	ldrbmi	r4, [pc], #-1362	; 4ef8 <_Min_Stack_Size+0x4af8>
    4ef4:	5f005053 	svcpl	0x00005053
    4ef8:	544e495f 	strbpl	r4, [lr], #-2399	; 0xfffff6a1
    4efc:	5f525450 	svcpl	0x00525450
    4f00:	54444957 	strbpl	r4, [r4], #-2391	; 0xfffff6a9
    4f04:	205f5f48 	subscs	r5, pc, r8, asr #30
    4f08:	5f003233 	svcpl	0x00003233
    4f0c:	4e454552 	mcrmi	5, 2, r4, cr5, cr2, {2}
    4f10:	4e495f54 	mcrmi	15, 2, r5, cr9, cr4, {2}
    4f14:	4d5f5449 	cfldrdmi	mvd5, [pc, #-292]	; 4df8 <_Min_Stack_Size+0x49f8>
    4f18:	61762850 	cmnvs	r6, r0, asr r8
    4f1c:	64202972 	strtvs	r2, [r0], #-2418	; 0xfffff68e
    4f20:	207b206f 	rsbscs	r2, fp, pc, rrx
    4f24:	75727473 	ldrbvc	r7, [r2, #-1139]!	; 0xfffffb8d
    4f28:	5f207463 	svcpl	0x00207463
    4f2c:	6e656572 	mcrvs	5, 3, r6, cr5, cr2, {3}
    4f30:	5f2a2074 	svcpl	0x002a2074
    4f34:	203d2072 	eorscs	r2, sp, r2, ror r0
    4f38:	72617628 	rsbvc	r7, r1, #40, 12	; 0x2800000
    4f3c:	5f203b29 	svcpl	0x00203b29
    4f40:	5f3e2d72 	svcpl	0x003e2d72
    4f44:	3e2d706d 	cdpcc	0, 2, cr7, cr13, cr13, {3}
    4f48:	7365725f 	cmnvc	r5, #-268435451	; 0xf0000005
    4f4c:	5f746c75 	svcpl	0x00746c75
    4f50:	203d206b 	eorscs	r2, sp, fp, rrx
    4f54:	5f203b30 	svcpl	0x00203b30
    4f58:	5f3e2d72 	svcpl	0x003e2d72
    4f5c:	3e2d706d 	cdpcc	0, 2, cr7, cr13, cr13, {3}
    4f60:	7365725f 	cmnvc	r5, #-268435451	; 0xf0000005
    4f64:	20746c75 	rsbscs	r6, r4, r5, ror ip
    4f68:	725f203d 	subsvc	r2, pc, #61	; 0x3d
    4f6c:	6d5f3e2d 	ldclvs	14, cr3, [pc, #-180]	; 4ec0 <_Min_Stack_Size+0x4ac0>
    4f70:	5f3e2d70 	svcpl	0x003e2d70
    4f74:	20733570 	rsbscs	r3, r3, r0, ror r5
    4f78:	4e5f203d 	mrcmi	0, 2, r2, cr15, cr13, {1}
    4f7c:	3b4c4c55 	blcc	13180d8 <_Min_Stack_Size+0x1317cd8>
    4f80:	2d725f20 	ldclcs	15, cr5, [r2, #-128]!	; 0xffffff80
    4f84:	706d5f3e 	rsbvc	r5, sp, lr, lsr pc
    4f88:	665f3e2d 	ldrbvs	r3, [pc], -sp, lsr #28
    4f8c:	6c656572 	cfstr64vs	mvdx6, [r5], #-456	; 0xfffffe38
    4f90:	20747369 	rsbscs	r7, r4, r9, ror #6
    4f94:	4e5f203d 	mrcmi	0, 2, r2, cr15, cr13, {1}
    4f98:	3b4c4c55 	blcc	13180f4 <_Min_Stack_Size+0x1317cf4>
    4f9c:	77207d20 	strvc	r7, [r0, -r0, lsr #26]!
    4fa0:	656c6968 	strbvs	r6, [ip, #-2408]!	; 0xfffff698
    4fa4:	29302820 	ldmdbcs	r0!, {r5, fp, sp}
    4fa8:	54584500 	ldrbpl	r4, [r8], #-1280	; 0xfffffb00
    4fac:	6e495f49 	cdpvs	15, 4, cr5, cr9, cr9, {2}
    4fb0:	4c747570 	cfldr64mi	mvdx7, [r4], #-448	; 0xfffffe40
    4fb4:	4e656e69 	cdpmi	14, 6, cr6, cr5, cr9, {3}
    4fb8:	65626d75 	strbvs	r6, [r2, #-3445]!	; 0xfffff28b
    4fbc:	50470072 	subpl	r0, r7, r2, ror r0
    4fc0:	4d5f4f49 	ldclmi	15, cr4, [pc, #-292]	; 4ea4 <_Min_Stack_Size+0x4aa4>
    4fc4:	5f45444f 	svcpl	0x0045444f
    4fc8:	5054554f 	subspl	r5, r4, pc, asr #10
    4fcc:	415f5455 	cmpmi	pc, r5, asr r4	; <UNPREDICTABLE>
    4fd0:	50505f46 	subspl	r5, r0, r6, asr #30
    4fd4:	30783020 	rsbscc	r3, r8, r0, lsr #32
    4fd8:	30303030 	eorscc	r3, r0, r0, lsr r0
    4fdc:	00363030 	eorseq	r3, r6, r0, lsr r0
    4fe0:	4c465f5f 	mcrrmi	15, 5, r5, r6, cr15
    4fe4:	58323354 	ldmdapl	r2!, {r2, r4, r6, r8, r9, ip, sp}
    4fe8:	4e494d5f 	mcrmi	13, 2, r4, cr9, cr15, {2}
    4fec:	32205f5f 	eorcc	r5, r0, #380	; 0x17c
    4ff0:	3532322e 	ldrcc	r3, [r2, #-558]!	; 0xfffffdd2
    4ff4:	38333730 	ldmdacc	r3!, {r4, r5, r8, r9, sl, ip, sp}
    4ff8:	30353835 	eorscc	r3, r5, r5, lsr r8
    4ffc:	31303237 	teqcc	r0, r7, lsr r2
    5000:	332d6534 			; <UNDEFINED> instruction: 0x332d6534
    5004:	33463830 	movtcc	r3, #26672	; 0x6830
    5008:	5f007832 	svcpl	0x00007832
    500c:	4e454552 	mcrmi	5, 2, r4, cr5, cr2, {2}
    5010:	41525f54 	cmpmi	r2, r4, asr pc
    5014:	3834444e 	ldmdacc	r4!, {r1, r2, r3, r6, sl, lr}
    5018:	4c554d5f 	mrrcmi	13, 5, r4, r5, cr15
    501c:	74702854 	ldrbtvc	r2, [r0], #-2132	; 0xfffff7ac
    5020:	28202972 	stmdacs	r0!, {r1, r4, r5, r6, r8, fp, sp}
    5024:	72747028 	rsbsvc	r7, r4, #40	; 0x28
    5028:	5f3e2d29 	svcpl	0x003e2d29
    502c:	2d383472 	cfldrscs	mvf3, [r8, #-456]!	; 0xfffffe38
    5030:	756d5f3e 	strbvc	r5, [sp, #-3902]!	; 0xfffff0c2
    5034:	0029746c 	eoreq	r7, r9, ip, ror #8
    5038:	4c465f5f 	mcrrmi	15, 5, r5, r6, cr15
    503c:	5f343654 	svcpl	0x00343654
    5040:	5f58414d 	svcpl	0x0058414d
    5044:	5f505845 	svcpl	0x00505845
    5048:	3031205f 	eorscc	r2, r1, pc, asr r0
    504c:	5f003432 	svcpl	0x00003432
    5050:	4843575f 	stmdami	r3, {r0, r1, r2, r3, r4, r6, r8, r9, sl, ip, lr}^
    5054:	545f5241 	ldrbpl	r5, [pc], #-577	; 505c <_Min_Stack_Size+0x4c5c>
    5058:	424d0020 	submi	r0, sp, #32
    505c:	5255435f 	subspl	r4, r5, #2080374785	; 0x7c000001
    5060:	58414d5f 	stmdapl	r1, {r0, r1, r2, r3, r4, r6, r8, sl, fp, lr}^
    5064:	6c5f5f20 	mrrcvs	15, 2, r5, pc, cr0	; <UNPREDICTABLE>
    5068:	6c61636f 	stclvs	3, cr6, [r1], #-444	; 0xfffffe44
    506c:	626d5f65 	rsbvs	r5, sp, #404	; 0x194
    5070:	7275635f 	rsbsvc	r6, r5, #2080374785	; 0x7c000001
    5074:	78616d5f 	stmdavc	r1!, {r0, r1, r2, r3, r4, r6, r8, sl, fp, sp, lr}^
    5078:	5f002928 	svcpl	0x00002928
    507c:	544c465f 	strbpl	r4, [ip], #-1631	; 0xfffff9a1
    5080:	4d5f3436 	cfldrdmi	mvd3, [pc, #-216]	; 4fb0 <_Min_Stack_Size+0x4bb0>
    5084:	5f5f4e49 	svcpl	0x005f4e49
    5088:	322e3220 	eorcc	r3, lr, #32, 4
    508c:	37303532 			; <UNDEFINED> instruction: 0x37303532
    5090:	38353833 	ldmdacc	r5!, {r0, r1, r4, r5, fp, ip, sp}
    5094:	32373035 	eorscc	r3, r7, #53	; 0x35
    5098:	65343130 	ldrvs	r3, [r4, #-304]!	; 0xfffffed0
    509c:	3830332d 	ldmdacc	r0!, {r0, r2, r3, r5, r8, r9, ip, sp}
    50a0:	00343646 	eorseq	r3, r4, r6, asr #12
    50a4:	695f5f5f 	ldmdbvs	pc, {r0, r1, r2, r3, r4, r6, r8, r9, sl, fp, ip, lr}^	; <UNPREDICTABLE>
    50a8:	3233746e 	eorscc	r7, r3, #1845493760	; 0x6e000000
    50ac:	645f745f 	ldrbvs	r7, [pc], #-1119	; 50b4 <_Min_Stack_Size+0x4cb4>
    50b0:	6e696665 	cdpvs	6, 6, cr6, cr9, cr5, {3}
    50b4:	31206465 			; <UNDEFINED> instruction: 0x31206465
    50b8:	42504100 	subsmi	r4, r0, #0, 2
    50bc:	54535232 	ldrbpl	r5, [r3], #-562	; 0xfffffdce
    50c0:	50470052 	subpl	r0, r7, r2, asr r0
    50c4:	505f4f49 	subspl	r4, pc, r9, asr #30
    50c8:	385f4e49 	ldmdacc	pc, {r0, r3, r6, r9, sl, fp, lr}^	; <UNPREDICTABLE>
    50cc:	75282820 	strvc	r2, [r8, #-2080]!	; 0xfffff7e0
    50d0:	31746e69 	cmncc	r4, r9, ror #28
    50d4:	29745f36 	ldmdbcs	r4!, {r1, r2, r4, r5, r8, r9, sl, fp, ip, lr}^
    50d8:	30783020 	rsbscc	r3, r8, r0, lsr #32
    50dc:	29303031 	ldmdbcs	r0!, {r0, r4, r5, ip, sp}
    50e0:	465f5f00 	ldrbmi	r5, [pc], -r0, lsl #30
    50e4:	4d5f544c 	cfldrdmi	mvd5, [pc, #-304]	; 4fbc <_Min_Stack_Size+0x4bbc>
    50e8:	455f4e49 	ldrbmi	r4, [pc, #-3657]	; 42a7 <_Min_Stack_Size+0x3ea7>
    50ec:	5f5f5058 	svcpl	0x005f5058
    50f0:	312d2820 			; <UNDEFINED> instruction: 0x312d2820
    50f4:	00293532 	eoreq	r3, r9, r2, lsr r5
    50f8:	52415f5f 	subpl	r5, r1, #380	; 0x17c
    50fc:	52415f4d 	subpl	r5, r1, #308	; 0x134
    5100:	505f4843 	subspl	r4, pc, r3, asr #16
    5104:	49464f52 	stmdbmi	r6, {r1, r4, r6, r8, r9, sl, fp, lr}^
    5108:	5f00454c 	svcpl	0x0000454c
    510c:	544e495f 	strbpl	r4, [lr], #-2399	; 0xfffff6a1
    5110:	545f3436 	ldrbpl	r3, [pc], #-1078	; 5118 <_Min_Stack_Size+0x4d18>
    5114:	5f455059 	svcpl	0x00455059
    5118:	6f6c205f 	svcvs	0x006c205f
    511c:	6c20676e 	stcvs	7, cr6, [r0], #-440	; 0xfffffe48
    5120:	20676e6f 	rsbcs	r6, r7, pc, ror #28
    5124:	00746e69 	rsbseq	r6, r4, r9, ror #28
    5128:	464c5f5f 			; <UNDEFINED> instruction: 0x464c5f5f
    512c:	54434152 	strbpl	r4, [r3], #-338	; 0xfffffeae
    5130:	4942465f 	stmdbmi	r2, {r0, r1, r2, r3, r4, r6, r9, sl, lr}^
    5134:	205f5f54 	subscs	r5, pc, r4, asr pc	; <UNPREDICTABLE>
    5138:	5f003133 	svcpl	0x00003133
    513c:	4148435f 	cmpmi	r8, pc, asr r3
    5140:	49425f52 	stmdbmi	r2, {r1, r4, r6, r8, r9, sl, fp, ip, lr}^
    5144:	205f5f54 	subscs	r5, pc, r4, asr pc	; <UNPREDICTABLE>
    5148:	58450038 	stmdapl	r5, {r3, r4, r5}^
    514c:	505f4954 	subspl	r4, pc, r4, asr r9	; <UNPREDICTABLE>
    5150:	5f004e49 	svcpl	0x00004e49
    5154:	4453425f 	ldrbmi	r4, [r3], #-607	; 0xfffffda1
    5158:	5349565f 	movtpl	r5, #38495	; 0x965f
    515c:	454c4249 	strbmi	r4, [ip, #-585]	; 0xfffffdb7
    5160:	49003120 	stmdbmi	r0, {r5, r8, ip, sp}
    5164:	4c5f544e 	cfldrdmi	mvd5, [pc], {78}	; 0x4e
    5168:	54534145 	ldrbpl	r4, [r3], #-325	; 0xfffffebb
    516c:	4d5f3631 	ldclmi	6, cr3, [pc, #-196]	; 50b0 <_Min_Stack_Size+0x4cb0>
    5170:	28204e49 	stmdacs	r0!, {r0, r3, r6, r9, sl, fp, lr}
    5174:	495f5f2d 	ldmdbmi	pc, {r0, r2, r3, r5, r8, r9, sl, fp, ip, lr}^	; <UNPREDICTABLE>
    5178:	4c5f544e 	cfldrdmi	mvd5, [pc], {78}	; 0x4e
    517c:	54534145 	ldrbpl	r4, [r3], #-325	; 0xfffffebb
    5180:	4d5f3631 	ldclmi	6, cr3, [pc, #-196]	; 50c4 <_Min_Stack_Size+0x4cc4>
    5184:	5f5f5841 	svcpl	0x005f5841
    5188:	31202d20 			; <UNDEFINED> instruction: 0x31202d20
    518c:	5f5f0029 	svcpl	0x005f0029
    5190:	73756e75 	cmnvc	r5, #1872	; 0x750
    5194:	5f206465 	svcpl	0x00206465
    5198:	7474615f 	ldrbtvc	r6, [r4], #-351	; 0xfffffea1
    519c:	75626972 	strbvc	r6, [r2, #-2418]!	; 0xfffff68e
    51a0:	5f5f6574 	svcpl	0x005f6574
    51a4:	5f5f2828 	svcpl	0x005f2828
    51a8:	73756e75 	cmnvc	r5, #1872	; 0x750
    51ac:	5f5f6465 	svcpl	0x005f6465
    51b0:	5f002929 	svcpl	0x00002929
    51b4:	5353415f 	cmppl	r3, #-1073741801	; 0xc0000017
    51b8:	5f545245 	svcpl	0x00545245
    51bc:	434e5546 	movtmi	r5, #58694	; 0xe546
    51c0:	665f5f20 	ldrbvs	r5, [pc], -r0, lsr #30
    51c4:	5f636e75 	svcpl	0x00636e75
    51c8:	5355005f 	cmppl	r5, #95	; 0x5f
    51cc:	32545241 	subscc	r5, r4, #268435460	; 0x10000004
    51d0:	5152495f 	cmppl	r2, pc, asr r9
    51d4:	00383320 	eorseq	r3, r8, r0, lsr #6
    51d8:	46555f5f 	usaxmi	r5, r5, pc	; <UNPREDICTABLE>
    51dc:	54434152 	strbpl	r4, [r3], #-338	; 0xfffffeae
    51e0:	58414d5f 	stmdapl	r1, {r0, r1, r2, r3, r4, r6, r8, sl, fp, lr}^
    51e4:	30205f5f 	eorcc	r5, r0, pc, asr pc
    51e8:	46464658 			; <UNDEFINED> instruction: 0x46464658
    51ec:	312d5046 			; <UNDEFINED> instruction: 0x312d5046
    51f0:	00525536 	subseq	r5, r2, r6, lsr r5
    51f4:	695f5f5f 	ldmdbvs	pc, {r0, r1, r2, r3, r4, r6, r8, r9, sl, fp, ip, lr}^	; <UNPREDICTABLE>
    51f8:	6c5f746e 	cfldrdvs	mvd7, [pc], {110}	; 0x6e
    51fc:	74736165 	ldrbtvc	r6, [r3], #-357	; 0xfffffe9b
    5200:	745f3436 	ldrbvc	r3, [pc], #-1078	; 5208 <_Min_Stack_Size+0x4e08>
    5204:	6665645f 			; <UNDEFINED> instruction: 0x6665645f
    5208:	64656e69 	strbtvs	r6, [r5], #-3689	; 0xfffff197
    520c:	45003120 	strmi	r3, [r0, #-288]	; 0xfffffee0
    5210:	31495458 	cmpcc	r9, r8, asr r4
    5214:	31435030 	cmpcc	r3, r0, lsr r0
    5218:	45282030 	strmi	r2, [r8, #-48]!	; 0xffffffd0
    521c:	5f495458 	svcpl	0x00495458
    5220:	4f495047 	svcmi	0x00495047
    5224:	70614d5f 	rsbvc	r4, r1, pc, asr sp
    5228:	676e6970 			; <UNDEFINED> instruction: 0x676e6970
    522c:	7b29745f 	blvc	a623b0 <_Min_Stack_Size+0xa61fb0>
    5230:	49545845 	ldmdbmi	r4, {r0, r2, r6, fp, ip, lr}^
    5234:	202c3031 	eorcs	r3, ip, r1, lsr r0
    5238:	4f495047 	svcmi	0x00495047
    523c:	47202c43 	strmi	r2, [r0, -r3, asr #24]!
    5240:	5f4f4950 	svcpl	0x004f4950
    5244:	5f4e4950 	svcpl	0x004e4950
    5248:	202c3031 	eorcs	r3, ip, r1, lsr r0
    524c:	49545845 	ldmdbmi	r4, {r0, r2, r6, fp, ip, lr}^
    5250:	495f3031 	ldmdbmi	pc, {r0, r4, r5, ip, sp}^	; <UNPREDICTABLE>
    5254:	007d5152 	rsbseq	r5, sp, r2, asr r1
    5258:	4e41575f 	mcrmi	7, 2, r5, cr1, cr15, {2}
    525c:	45525f54 	ldrbmi	r5, [r2, #-3924]	; 0xfffff0ac
    5260:	5f544e45 	svcpl	0x00544e45
    5264:	4c414d53 	mcrrmi	13, 5, r4, r1, cr3
    5268:	0031204c 	eorseq	r2, r1, ip, asr #32
    526c:	48545f5f 	ldmdami	r4, {r0, r1, r2, r3, r4, r6, r8, r9, sl, fp, ip, lr}^
    5270:	20574f52 	subscs	r4, r7, r2, asr pc
    5274:	45525f00 	ldrbmi	r5, [r2, #-3840]	; 0xfffff100
    5278:	5f544e45 	svcpl	0x00544e45
    527c:	43454843 	movtmi	r4, #22595	; 0x5843
    5280:	504d5f4b 	subpl	r5, sp, fp, asr #30
    5284:	72617628 	rsbvc	r7, r1, #40, 12	; 0x2800000
    5288:	525f2029 	subspl	r2, pc, #41	; 0x29
    528c:	544e4545 	strbpl	r4, [lr], #-1349	; 0xfffffabb
    5290:	4548435f 	strbmi	r4, [r8, #-863]	; 0xfffffca1
    5294:	76284b43 	strtvc	r4, [r8], -r3, asr #22
    5298:	202c7261 	eorcs	r7, ip, r1, ror #4
    529c:	2c706d5f 	ldclcs	13, cr6, [r0], #-380	; 0xfffffe84
    52a0:	72747320 	rsbsvc	r7, r4, #32, 6	; 0x80000000
    52a4:	20746375 	rsbscs	r6, r4, r5, ror r3
    52a8:	72706d5f 	rsbsvc	r6, r0, #6080	; 0x17c0
    52ac:	2a206365 	bcs	81e048 <_Min_Stack_Size+0x81dc48>
    52b0:	6973202c 	ldmdbvs	r3!, {r2, r3, r5, sp}^
    52b4:	666f657a 			; <UNDEFINED> instruction: 0x666f657a
    52b8:	28282a20 	stmdacs	r8!, {r5, r9, fp, sp}
    52bc:	29726176 	ldmdbcs	r2!, {r1, r2, r4, r5, r6, r8, sp, lr}^
    52c0:	6d5f3e2d 	ldclvs	14, cr3, [pc, #-180]	; 5214 <_Min_Stack_Size+0x4e14>
    52c4:	202c2970 	eorcs	r2, ip, r0, ror r9
    52c8:	4545525f 	strbmi	r5, [r5, #-607]	; 0xfffffda1
    52cc:	495f544e 	ldmdbmi	pc, {r1, r2, r3, r6, sl, ip, lr}^	; <UNPREDICTABLE>
    52d0:	5f54494e 	svcpl	0x0054494e
    52d4:	7628504d 	strtvc	r5, [r8], -sp, asr #32
    52d8:	29297261 	stmdbcs	r9!, {r0, r5, r6, r9, ip, sp, lr}
    52dc:	535f5f00 	cmppl	pc, #0, 30
    52e0:	43415246 	movtmi	r5, #4678	; 0x1246
    52e4:	42495f54 	submi	r5, r9, #84, 30	; 0x150
    52e8:	5f5f5449 	svcpl	0x005f5449
    52ec:	4e003020 	cdpmi	0, 0, cr3, cr0, cr0, {1}
    52f0:	5f434956 	svcpl	0x00434956
    52f4:	49545845 	ldmdbmi	r4, {r0, r2, r6, fp, ip, lr}^
    52f8:	52495f33 	subpl	r5, r9, #51, 30	; 0xcc
    52fc:	69445f51 	stmdbvs	r4, {r0, r4, r6, r8, r9, sl, fp, ip, lr}^
    5300:	6c626173 	stfvse	f6, [r2], #-460	; 0xfffffe34
    5304:	4e282065 	cdpmi	0, 2, cr2, cr8, cr5, {3}
    5308:	5f434956 	svcpl	0x00434956
    530c:	52454349 	subpl	r4, r5, #603979777	; 0x24000001
    5310:	3d7c2030 	ldclcc	0, cr2, [ip, #-192]!	; 0xffffff40
    5314:	3c3c3120 	ldfccs	f3, [ip], #-128	; 0xffffff80
    5318:	5f002939 	svcpl	0x00002939
    531c:	49465441 	stmdbmi	r6, {r0, r6, sl, ip, lr}^
    5320:	535f454c 	cmppl	pc, #76, 10	; 0x13000000
    5324:	4352554f 	cmpmi	r2, #331350016	; 0x13c00000
    5328:	00312045 	eorseq	r2, r1, r5, asr #32
    532c:	54535f5f 	ldrbpl	r5, [r3], #-3935	; 0xfffff0a1
    5330:	544e4944 	strbpl	r4, [lr], #-2372	; 0xfffff6bc
    5334:	5058455f 	subspl	r4, r8, pc, asr r5
    5338:	20297828 	eorcs	r7, r9, r8, lsr #16
    533c:	23205f5f 			; <UNDEFINED> instruction: 0x23205f5f
    5340:	23207823 			; <UNDEFINED> instruction: 0x23207823
    5344:	005f5f23 	subseq	r5, pc, r3, lsr #30
    5348:	58455f5f 	stmdapl	r5, {r0, r1, r2, r3, r4, r6, r8, r9, sl, fp, ip, lr}^
    534c:	29782850 	ldmdbcs	r8!, {r4, r6, fp, sp}^
    5350:	205f5f20 	subscs	r5, pc, r0, lsr #30
    5354:	20782323 	rsbscs	r2, r8, r3, lsr #6
    5358:	5f5f2323 	svcpl	0x005f2323
    535c:	425f5f00 	subsmi	r5, pc, #0, 30
    5360:	5f455459 	svcpl	0x00455459
    5364:	4544524f 	strbmi	r5, [r4, #-591]	; 0xfffffdb1
    5368:	205f5f52 	subscs	r5, pc, r2, asr pc	; <UNPREDICTABLE>
    536c:	524f5f5f 	subpl	r5, pc, #380	; 0x17c
    5370:	5f524544 	svcpl	0x00524544
    5374:	5454494c 	ldrbpl	r4, [r4], #-2380	; 0xfffff6b4
    5378:	455f454c 	ldrbmi	r4, [pc, #-1356]	; 4e34 <_Min_Stack_Size+0x4a34>
    537c:	4149444e 	cmpmi	r9, lr, asr #8
    5380:	005f5f4e 	subseq	r5, pc, lr, asr #30
    5384:	4c465f5f 	mcrrmi	15, 5, r5, r6, cr15
    5388:	5f323354 	svcpl	0x00323354
    538c:	49535045 	ldmdbmi	r3, {r0, r2, r6, ip, lr}^
    5390:	5f4e4f4c 	svcpl	0x004e4f4c
    5394:	2e31205f 	mrccs	0, 1, r2, cr1, cr15, {2}
    5398:	30323931 	eorscc	r3, r2, r1, lsr r9
    539c:	39383239 	ldmdbcc	r8!, {r0, r3, r4, r5, r9, ip, sp}
    53a0:	37303535 			; <UNDEFINED> instruction: 0x37303535
    53a4:	35323138 	ldrcc	r3, [r2, #-312]!	; 0xfffffec8
    53a8:	46372d65 	ldrtmi	r2, [r7], -r5, ror #26
    53ac:	5f003233 	svcpl	0x00003233
    53b0:	4d52415f 	ldfmie	f4, [r2, #-380]	; 0xfffffe84
    53b4:	4f454e5f 	svcmi	0x00454e5f
    53b8:	50465f4e 	subpl	r5, r6, lr, asr #30
    53bc:	4f4e5f00 	svcmi	0x004e5f00
    53c0:	4f524854 	svcmi	0x00524854
    53c4:	5f002057 	svcpl	0x00002057
    53c8:	49534e41 	ldmdbmi	r3, {r0, r6, r9, sl, fp, lr}^
    53cc:	4c434544 	cfstr64mi	mvdx4, [r3], {68}	; 0x44
    53d0:	205f485f 	subscs	r4, pc, pc, asr r8	; <UNPREDICTABLE>
    53d4:	54584500 	ldrbpl	r4, [r8], #-1280	; 0xfffffb00
    53d8:	5f303149 	svcpl	0x00303149
    53dc:	20515249 	subscs	r5, r1, r9, asr #4
    53e0:	52003034 	andpl	r3, r0, #52	; 0x34
    53e4:	535f4343 	cmppl	pc, #201326593	; 0xc000001
    53e8:	5f314950 	svcpl	0x00314950
    53ec:	5f4b4c43 	svcpl	0x004b4c43
    53f0:	29284e45 	stmdbcs	r8!, {r0, r2, r6, r9, sl, fp, lr}
    53f4:	43522820 	cmpmi	r2, #32, 16	; 0x200000
    53f8:	413e2d43 	teqmi	lr, r3, asr #26
    53fc:	45324250 	ldrmi	r4, [r2, #-592]!	; 0xfffffdb0
    5400:	7c20524e 	sfmvc	f5, 4, [r0], #-312	; 0xfffffec8
    5404:	3128203d 			; <UNDEFINED> instruction: 0x3128203d
    5408:	32313c3c 	eorscc	r3, r1, #60, 24	; 0x3c00
    540c:	53002929 	movwpl	r2, #2345	; 0x929
    5410:	5f314950 	svcpl	0x00314950
    5414:	45534142 	ldrbmi	r4, [r3, #-322]	; 0xfffffebe
    5418:	34783020 	ldrbtcc	r3, [r8], #-32	; 0xffffffe0
    541c:	33313030 	teqcc	r1, #48	; 0x30
    5420:	75303030 	ldrvc	r3, [r0, #-48]!	; 0xffffffd0
    5424:	505f5f00 	subspl	r5, pc, r0, lsl #30
    5428:	5849534f 	stmdapl	r9, {r0, r1, r2, r3, r6, r8, r9, ip, lr}^
    542c:	5349565f 	movtpl	r5, #38495	; 0x965f
    5430:	454c4249 	strbmi	r4, [ip, #-585]	; 0xfffffdb7
    5434:	30303220 	eorscc	r3, r0, r0, lsr #4
    5438:	00393038 	eorseq	r3, r9, r8, lsr r0
    543c:	49545845 	ldmdbmi	r4, {r0, r2, r6, fp, ip, lr}^
    5440:	495f3431 	ldmdbmi	pc, {r0, r4, r5, sl, ip, sp}^	; <UNPREDICTABLE>
    5444:	34205152 	strtcc	r5, [r0], #-338	; 0xfffffeae
    5448:	58450030 	stmdapl	r5, {r4, r5}^
    544c:	20314954 	eorscs	r4, r1, r4, asr r9
    5450:	5f5f0031 	svcpl	0x005f0031
    5454:	41524655 	cmpmi	r2, r5, asr r6
    5458:	465f5443 	ldrbmi	r5, [pc], -r3, asr #8
    545c:	5f544942 	svcpl	0x00544942
    5460:	3631205f 			; <UNDEFINED> instruction: 0x3631205f
    5464:	555f5f00 	ldrbpl	r5, [pc, #-3840]	; 456c <_Min_Stack_Size+0x416c>
    5468:	465f5144 	ldrbmi	r5, [pc], -r4, asr #2
    546c:	5f544942 	svcpl	0x00544942
    5470:	3436205f 	ldrtcc	r2, [r6], #-95	; 0xffffffa1
    5474:	445f5f00 	ldrbmi	r5, [pc], #-3840	; 547c <_Min_Stack_Size+0x507c>
    5478:	4e5f4c42 	cdpmi	12, 5, cr4, cr15, cr2, {2}
    547c:	5f4d524f 	svcpl	0x004d524f
    5480:	5f58414d 	svcpl	0x0058414d
    5484:	2828205f 	stmdacs	r8!, {r0, r1, r2, r3, r4, r6, sp}
    5488:	62756f64 	rsbsvs	r6, r5, #100, 30	; 0x190
    548c:	3129656c 			; <UNDEFINED> instruction: 0x3129656c
    5490:	3739372e 	ldrcc	r3, [r9, -lr, lsr #14]!
    5494:	31333936 	teqcc	r3, r6, lsr r9
    5498:	36383433 			; <UNDEFINED> instruction: 0x36383433
    549c:	35313332 	ldrcc	r3, [r1, #-818]!	; 0xfffffcce
    54a0:	332b6537 			; <UNDEFINED> instruction: 0x332b6537
    54a4:	294c3830 	stmdbcs	ip, {r4, r5, fp, ip, sp}^
    54a8:	475f5f00 	ldrbmi	r5, [pc, -r0, lsl #30]
    54ac:	4c43554e 	cfstr64mi	mvdx5, [r3], {78}	; 0x4e
    54b0:	5f454b49 	svcpl	0x00454b49
    54b4:	4c495542 	cfstr64mi	mvdx5, [r9], {66}	; 0x42
    54b8:	5f4e4954 	svcpl	0x004e4954
    54bc:	434d454d 	movtmi	r4, #54605	; 0xd54d
    54c0:	31205950 			; <UNDEFINED> instruction: 0x31205950
    54c4:	61634d00 	cmnvs	r3, r0, lsl #26
    54c8:	58455f6c 	stmdapl	r5, {r2, r3, r5, r6, r8, r9, sl, fp, ip, lr}^
    54cc:	475f4954 			; <UNDEFINED> instruction: 0x475f4954
    54d0:	5f4f4950 	svcpl	0x004f4950
    54d4:	74696e69 	strbtvc	r6, [r9], #-3689	; 0xfffff197
    54d8:	4c5f5f00 	mrrcmi	15, 0, r5, pc, cr0	; <UNPREDICTABLE>
    54dc:	5f4c4244 	svcpl	0x004c4244
    54e0:	5f58414d 	svcpl	0x0058414d
    54e4:	455f3031 	ldrbmi	r3, [pc, #-49]	; 54bb <_Min_Stack_Size+0x50bb>
    54e8:	5f5f5058 	svcpl	0x005f5058
    54ec:	38303320 	ldmdacc	r0!, {r5, r8, r9, ip, sp}
    54f0:	45525f00 	ldrbmi	r5, [r2, #-3840]	; 0xfffff100
    54f4:	5f544e45 	svcpl	0x00544e45
    54f8:	4c52424d 	lfmmi	f4, 2, [r2], {77}	; 0x4d
    54fc:	535f4e45 	cmppl	pc, #1104	; 0x450
    5500:	45544154 	ldrbmi	r4, [r4, #-340]	; 0xfffffeac
    5504:	72747028 	rsbsvc	r7, r4, #40	; 0x28
    5508:	28282029 	stmdacs	r8!, {r0, r3, r5, sp}
    550c:	29727470 	ldmdbcs	r2!, {r4, r5, r6, sl, ip, sp, lr}^
    5510:	6d5f3e2d 	ldclvs	14, cr3, [pc, #-180]	; 5464 <_Min_Stack_Size+0x5064>
    5514:	2d637369 	stclcs	3, cr7, [r3, #-420]!	; 0xfffffe5c
    5518:	626d5f3e 	rsbvs	r5, sp, #62, 30	; 0xf8
    551c:	6e656c72 	mcrvs	12, 3, r6, cr5, cr2, {3}
    5520:	6174735f 	cmnvs	r4, pc, asr r3
    5524:	00296574 	eoreq	r6, r9, r4, ror r5
    5528:	49545845 	ldmdbmi	r4, {r0, r2, r6, fp, ip, lr}^
    552c:	38415038 	stmdacc	r1, {r3, r4, r5, ip, lr}^
    5530:	58452820 	stmdapl	r5, {r5, fp, sp}^
    5534:	475f4954 			; <UNDEFINED> instruction: 0x475f4954
    5538:	5f4f4950 	svcpl	0x004f4950
    553c:	7070614d 	rsbsvc	r6, r0, sp, asr #2
    5540:	5f676e69 	svcpl	0x00676e69
    5544:	457b2974 	ldrbmi	r2, [fp, #-2420]!	; 0xfffff68c
    5548:	38495458 	stmdacc	r9, {r3, r4, r6, sl, ip, lr}^
    554c:	5047202c 	subpl	r2, r7, ip, lsr #32
    5550:	2c414f49 	mcrrcs	15, 4, r4, r1, cr9
    5554:	49504720 	ldmdbmi	r0, {r5, r8, r9, sl, lr}^
    5558:	49505f4f 	ldmdbmi	r0, {r0, r1, r2, r3, r6, r8, r9, sl, fp, ip, lr}^
    555c:	2c385f4e 	ldccs	15, cr5, [r8], #-312	; 0xfffffec8
    5560:	54584520 	ldrbpl	r4, [r8], #-1312	; 0xfffffae0
    5564:	495f3849 	ldmdbmi	pc, {r0, r3, r6, fp, ip, sp}^	; <UNPREDICTABLE>
    5568:	007d5152 	rsbseq	r5, sp, r2, asr r1
    556c:	42445f5f 	submi	r5, r4, #380	; 0x17c
    5570:	45445f4c 	strbmi	r5, [r4, #-3916]	; 0xfffff0b4
    5574:	4d524f4e 	ldclmi	15, cr4, [r2, #-312]	; 0xfffffec8
    5578:	4e494d5f 	mcrmi	13, 2, r4, cr9, cr15, {2}
    557c:	28205f5f 	stmdacs	r0!, {r0, r1, r2, r3, r4, r6, r8, r9, sl, fp, ip, lr}
    5580:	756f6428 	strbvc	r6, [pc, #-1064]!	; 5160 <_Min_Stack_Size+0x4d60>
    5584:	29656c62 	stmdbcs	r5!, {r1, r5, r6, sl, fp, sp, lr}^
    5588:	34392e34 	ldrtcc	r2, [r9], #-3636	; 0xfffff1cc
    558c:	36353630 			; <UNDEFINED> instruction: 0x36353630
    5590:	34383534 	ldrtcc	r3, [r8], #-1332	; 0xfffffacc
    5594:	36343231 			; <UNDEFINED> instruction: 0x36343231
    5598:	2d653435 	cfstrdcs	mvd3, [r5, #-212]!	; 0xffffff2c
    559c:	4c343233 	lfmmi	f3, 4, [r4], #-204	; 0xffffff34
    55a0:	49540029 	ldmdbmi	r4, {r0, r3, r5}^
    55a4:	425f344d 	subsmi	r3, pc, #1291845632	; 0x4d000000
    55a8:	20455341 	subcs	r5, r5, r1, asr #6
    55ac:	30347830 	eorscc	r7, r4, r0, lsr r8
    55b0:	38303030 	ldmdacc	r0!, {r4, r5, ip, sp}
    55b4:	00753030 	rsbseq	r3, r5, r0, lsr r0
    55b8:	4e495f5f 	mcrmi	15, 2, r5, cr9, cr15, {2}
    55bc:	41465f54 	cmpmi	r6, r4, asr pc
    55c0:	32335453 	eorscc	r5, r3, #1392508928	; 0x53000000
    55c4:	5059545f 	subspl	r5, r9, pc, asr r4
    55c8:	205f5f45 	subscs	r5, pc, r5, asr #30
    55cc:	00746e69 	rsbseq	r6, r4, r9, ror #28
    55d0:	4f495047 	svcmi	0x00495047
    55d4:	7079545f 	rsbsvc	r5, r9, pc, asr r4
    55d8:	66656465 	strbtvs	r6, [r5], -r5, ror #8
    55dc:	5300745f 	movwpl	r7, #1119	; 0x45f
    55e0:	32334d54 	eorscc	r4, r3, #84, 26	; 0x1500
    55e4:	33303146 	teqcc	r0, #-2147483631	; 0x80000011
    55e8:	78543643 	ldmdavc	r4, {r0, r1, r6, r9, sl, ip, sp}^
    55ec:	45003120 	strmi	r3, [r0, #-288]	; 0xfffffee0
    55f0:	36495458 			; <UNDEFINED> instruction: 0x36495458
    55f4:	5f003620 	svcpl	0x00003620
    55f8:	57454e5f 	smlsldpl	r4, r5, pc, lr	; <UNPREDICTABLE>
    55fc:	5f42494c 	svcpl	0x0042494c
    5600:	4f4e494d 	svcmi	0x004e494d
    5604:	205f5f52 	subscs	r5, pc, r2, asr pc	; <UNPREDICTABLE>
    5608:	58450031 	stmdapl	r5, {r0, r4, r5}^
    560c:	5f354954 	svcpl	0x00354954
    5610:	20515249 	subscs	r5, r1, r9, asr #4
    5614:	5f003332 	svcpl	0x00003332
    5618:	455a4953 	ldrbmi	r4, [sl, #-2387]	; 0xfffff6ad
    561c:	00205f54 	eoreq	r5, r0, r4, asr pc
    5620:	4c465f5f 	mcrrmi	15, 5, r5, r6, cr15
    5624:	5f343654 	svcpl	0x00343654
    5628:	5f534148 	svcpl	0x00534148
    562c:	45495551 	strbmi	r5, [r9, #-1361]	; 0xfffffaaf
    5630:	414e5f54 	cmpmi	lr, r4, asr pc
    5634:	205f5f4e 	subscs	r5, pc, lr, asr #30
    5638:	49550031 	ldmdbmi	r5, {r0, r4, r5}^
    563c:	3233544e 	eorscc	r5, r3, #1308622848	; 0x4e000000
    5640:	7828435f 	stmdavc	r8!, {r0, r1, r2, r3, r4, r6, r8, r9, lr}
    5644:	5f5f2029 	svcpl	0x005f2029
    5648:	544e4955 	strbpl	r4, [lr], #-2389	; 0xfffff6ab
    564c:	435f3233 	cmpmi	pc, #805306371	; 0x30000003
    5650:	00297828 	eoreq	r7, r9, r8, lsr #16
    5654:	53555f5f 	cmppl	r5, #380	; 0x17c
    5658:	55434341 	strbpl	r4, [r3, #-833]	; 0xfffffcbf
    565c:	42495f4d 	submi	r5, r9, #308	; 0x134
    5660:	5f5f5449 	svcpl	0x005f5449
    5664:	49003820 	stmdbmi	r0, {r5, fp, ip, sp}
    5668:	465f544e 	ldrbmi	r5, [pc], -lr, asr #8
    566c:	38545341 	ldmdacc	r4, {r0, r6, r8, r9, ip, lr}^
    5670:	4e494d5f 	mcrmi	13, 2, r4, cr9, cr15, {2}
    5674:	5f2d2820 	svcpl	0x002d2820
    5678:	544e495f 	strbpl	r4, [lr], #-2399	; 0xfffff6a1
    567c:	5341465f 	movtpl	r4, #5727	; 0x165f
    5680:	4d5f3854 	ldclmi	8, cr3, [pc, #-336]	; 5538 <_Min_Stack_Size+0x5138>
    5684:	5f5f5841 	svcpl	0x005f5841
    5688:	31202d20 			; <UNDEFINED> instruction: 0x31202d20
    568c:	5f5f0029 	svcpl	0x005f0029
    5690:	64657270 	strbtvs	r7, [r5], #-624	; 0xfffffd90
    5694:	5f746369 	svcpl	0x00746369
    5698:	736c6166 	cmnvc	ip, #-2147483623	; 0x80000019
    569c:	78652865 	stmdavc	r5!, {r0, r2, r5, r6, fp, sp}^
    56a0:	5f202970 	svcpl	0x00202970
    56a4:	6975625f 	ldmdbvs	r5!, {r0, r1, r2, r3, r4, r6, r9, sp, lr}^
    56a8:	6e69746c 	cdpvs	4, 6, cr7, cr9, cr12, {3}
    56ac:	7078655f 	rsbsvc	r6, r8, pc, asr r5
    56b0:	28746365 	ldmdacs	r4!, {r0, r2, r5, r6, r8, r9, sp, lr}^
    56b4:	70786528 	rsbsvc	r6, r8, r8, lsr #10
    56b8:	30202c29 	eorcc	r2, r0, r9, lsr #24
    56bc:	5f5f0029 	svcpl	0x005f0029
    56c0:	36544c46 	ldrbcc	r4, [r4], -r6, asr #24
    56c4:	41485f34 	cmpmi	r8, r4, lsr pc
    56c8:	45445f53 	strbmi	r5, [r4, #-3923]	; 0xfffff0ad
    56cc:	4d524f4e 	ldclmi	15, cr4, [r2, #-312]	; 0xfffffec8
    56d0:	31205f5f 			; <UNDEFINED> instruction: 0x31205f5f
    56d4:	555f5f00 	ldrbpl	r5, [pc, #-3840]	; 47dc <_Min_Stack_Size+0x43dc>
    56d8:	43414c4c 	movtmi	r4, #7244	; 0x1c4c
    56dc:	5f4d5543 	svcpl	0x004d5543
    56e0:	54494249 	strbpl	r4, [r9], #-585	; 0xfffffdb7
    56e4:	33205f5f 			; <UNDEFINED> instruction: 0x33205f5f
    56e8:	5f5f0032 	svcpl	0x005f0032
    56ec:	43434155 	movtmi	r4, #12629	; 0x3155
    56f0:	455f4d55 	ldrbmi	r4, [pc, #-3413]	; 49a3 <_Min_Stack_Size+0x45a3>
    56f4:	4c495350 	mcrrmi	3, 5, r5, r9, cr0
    56f8:	5f5f4e4f 	svcpl	0x005f4e4f
    56fc:	31783020 	cmncc	r8, r0, lsr #32
    5700:	36312d50 			; <UNDEFINED> instruction: 0x36312d50
    5704:	43004b55 	movwmi	r4, #2901	; 0xb55
    5708:	32524746 	subscc	r4, r2, #18350080	; 0x1180000
    570c:	43575f00 	cmpmi	r7, #0, 30
    5710:	5f524148 	svcpl	0x00524148
    5714:	45445f54 	strbmi	r5, [r4, #-3924]	; 0xfffff0ac
    5718:	52414c43 	subpl	r4, r1, #17152	; 0x4300
    571c:	00204445 	eoreq	r4, r0, r5, asr #8
    5720:	5f544e49 	svcpl	0x00544e49
    5724:	54534146 	ldrbpl	r4, [r3], #-326	; 0xfffffeba
    5728:	4d5f3631 	ldclmi	6, cr3, [pc, #-196]	; 566c <_Min_Stack_Size+0x526c>
    572c:	28205841 	stmdacs	r0!, {r0, r6, fp, ip, lr}
    5730:	4e495f5f 	mcrmi	15, 2, r5, cr9, cr15, {2}
    5734:	41465f54 	cmpmi	r6, r4, asr pc
    5738:	36315453 			; <UNDEFINED> instruction: 0x36315453
    573c:	58414d5f 	stmdapl	r1, {r0, r1, r2, r3, r4, r6, r8, sl, fp, lr}^
    5740:	00295f5f 	eoreq	r5, r9, pc, asr pc
    5744:	5359535f 	cmppl	r9, #2080374785	; 0x7c000001
    5748:	4545525f 	strbmi	r5, [r5, #-607]	; 0xfffffda1
    574c:	485f544e 	ldmdami	pc, {r1, r2, r3, r6, sl, ip, lr}^	; <UNPREDICTABLE>
    5750:	5f00205f 	svcpl	0x0000205f
    5754:	544c465f 	strbpl	r4, [ip], #-1631	; 0xfffff9a1
    5758:	4156455f 	cmpmi	r6, pc, asr r5
    575c:	454d5f4c 	strbmi	r5, [sp, #-3916]	; 0xfffff0b4
    5760:	444f4854 	strbmi	r4, [pc], #-2132	; 5768 <_Min_Stack_Size+0x5368>
    5764:	30205f5f 	eorcc	r5, r0, pc, asr pc
    5768:	695f5f00 	ldmdbvs	pc, {r8, r9, sl, fp, ip, lr}^	; <UNPREDICTABLE>
    576c:	665f746e 	ldrbvs	r7, [pc], -lr, ror #8
    5770:	31747361 	cmncc	r4, r1, ror #6
    5774:	5f745f36 	svcpl	0x00745f36
    5778:	69666564 	stmdbvs	r6!, {r2, r5, r6, r8, sl, sp, lr}^
    577c:	2064656e 	rsbcs	r6, r4, lr, ror #10
    5780:	5f5f0031 	svcpl	0x005f0031
    5784:	41484353 	cmpmi	r8, r3, asr r3
    5788:	414d5f52 	cmpmi	sp, r2, asr pc
    578c:	205f5f58 	subscs	r5, pc, r8, asr pc	; <UNPREDICTABLE>
    5790:	66377830 			; <UNDEFINED> instruction: 0x66377830
    5794:	495f5f00 	ldmdbmi	pc, {r8, r9, sl, fp, ip, lr}^	; <UNPREDICTABLE>
    5798:	465f544e 	ldrbmi	r5, [pc], -lr, asr #8
    579c:	38545341 	ldmdacc	r4, {r0, r6, r8, r9, ip, lr}^
    57a0:	4449575f 	strbmi	r5, [r9], #-1887	; 0xfffff8a1
    57a4:	5f5f4854 	svcpl	0x005f4854
    57a8:	00323320 	eorseq	r3, r2, r0, lsr #6
    57ac:	54535f5f 	ldrbpl	r5, [r3], #-3935	; 0xfffff0a1
    57b0:	555f4344 	ldrbpl	r4, [pc, #-836]	; 5474 <_Min_Stack_Size+0x5074>
    57b4:	315f4654 	cmpcc	pc, r4, asr r6	; <UNPREDICTABLE>
    57b8:	205f5f36 	subscs	r5, pc, r6, lsr pc	; <UNPREDICTABLE>
    57bc:	525f0031 	subspl	r0, pc, #49	; 0x31
    57c0:	34444e41 	strbcc	r4, [r4], #-3649	; 0xfffff1bf
    57c4:	554d5f38 	strbpl	r5, [sp, #-3896]	; 0xfffff0c8
    57c8:	325f544c 	subscc	r5, pc, #76, 8	; 0x4c000000
    57cc:	78302820 	ldmdavc	r0!, {r5, fp, sp}
    57d0:	35303030 	ldrcc	r3, [r0, #-48]!	; 0xffffffd0
    57d4:	5f5f0029 	svcpl	0x005f0029
    57d8:	5f4d5241 	svcpl	0x004d5241
    57dc:	54414546 	strbpl	r4, [r1], #-1350	; 0xfffffaba
    57e0:	5f455255 	svcpl	0x00455255
    57e4:	4552444c 	ldrbmi	r4, [r2, #-1100]	; 0xfffffbb4
    57e8:	525f0058 	subspl	r0, pc, #88	; 0x58
    57ec:	544e4545 	strbpl	r4, [lr], #-1349	; 0xfffffabb
    57f0:	4548435f 	strbmi	r4, [r8, #-863]	; 0xfffffca1
    57f4:	4d5f4b43 	vldrmi	d20, [pc, #-268]	; 56f0 <_Min_Stack_Size+0x52f0>
    57f8:	28435349 	stmdacs	r3, {r0, r3, r6, r8, r9, ip, lr}^
    57fc:	29726176 	ldmdbcs	r2!, {r1, r2, r4, r5, r6, r8, sp, lr}^
    5800:	45525f20 	ldrbmi	r5, [r2, #-3872]	; 0xfffff0e0
    5804:	5f544e45 	svcpl	0x00544e45
    5808:	43454843 	movtmi	r4, #22595	; 0x5843
    580c:	6176284b 	cmnvs	r6, fp, asr #16
    5810:	5f202c72 	svcpl	0x00202c72
    5814:	6373696d 	cmnvs	r3, #1785856	; 0x1b4000
    5818:	7473202c 	ldrbtvc	r2, [r3], #-44	; 0xffffffd4
    581c:	74637572 	strbtvc	r7, [r3], #-1394	; 0xfffffa8e
    5820:	696d5f20 	stmdbvs	sp!, {r5, r8, r9, sl, fp, ip, lr}^
    5824:	725f6373 	subsvc	r6, pc, #-872415231	; 0xcc000001
    5828:	746e6565 	strbtvc	r6, [lr], #-1381	; 0xfffffa9b
    582c:	202c2a20 	eorcs	r2, ip, r0, lsr #20
    5830:	657a6973 	ldrbvs	r6, [sl, #-2419]!	; 0xfffff68d
    5834:	2a20666f 	bcs	81f1f8 <_Min_Stack_Size+0x81edf8>
    5838:	61762828 	cmnvs	r6, r8, lsr #16
    583c:	3e2d2972 			; <UNDEFINED> instruction: 0x3e2d2972
    5840:	73696d5f 	cmnvc	r9, #6080	; 0x17c0
    5844:	202c2963 	eorcs	r2, ip, r3, ror #18
    5848:	4545525f 	strbmi	r5, [r5, #-607]	; 0xfffffda1
    584c:	495f544e 	ldmdbmi	pc, {r1, r2, r3, r6, sl, ip, lr}^	; <UNPREDICTABLE>
    5850:	5f54494e 	svcpl	0x0054494e
    5854:	4353494d 	cmpmi	r3, #1261568	; 0x134000
    5858:	72617628 	rsbvc	r7, r1, #40, 12	; 0x2800000
    585c:	5f002929 	svcpl	0x00002929
    5860:	54505f54 	ldrbpl	r5, [r0], #-3924	; 0xfffff0ac
    5864:	46494452 			; <UNDEFINED> instruction: 0x46494452
    5868:	5f002046 	svcpl	0x00002046
    586c:	5151555f 	cmppl	r1, pc, asr r5
    5870:	4942465f 	stmdbmi	r2, {r0, r1, r2, r3, r4, r6, r9, sl, lr}^
    5874:	205f5f54 	subscs	r5, pc, r4, asr pc	; <UNPREDICTABLE>
    5878:	564e0038 			; <UNDEFINED> instruction: 0x564e0038
    587c:	535f4349 	cmppl	pc, #603979777	; 0x24000001
    5880:	5f324950 	svcpl	0x00324950
    5884:	5f515249 	svcpl	0x00515249
    5888:	61736944 	cmnvs	r3, r4, asr #18
    588c:	20656c62 	rsbcs	r6, r5, r2, ror #24
    5890:	49564e28 	ldmdbmi	r6, {r3, r5, r9, sl, fp, lr}^
    5894:	43495f43 	movtmi	r5, #40771	; 0x9f43
    5898:	20315245 	eorscs	r5, r1, r5, asr #4
    589c:	31203d7c 			; <UNDEFINED> instruction: 0x31203d7c
    58a0:	53283c3c 			; <UNDEFINED> instruction: 0x53283c3c
    58a4:	5f324950 	svcpl	0x00324950
    58a8:	20515249 	subscs	r5, r1, r9, asr #4
    58ac:	3233202d 	eorscc	r2, r3, #45	; 0x2d
    58b0:	5f002929 	svcpl	0x00002929
    58b4:	4e49575f 	mcrmi	7, 2, r5, cr9, cr15, {2}
    58b8:	59545f54 	ldmdbpl	r4, {r2, r4, r6, r8, r9, sl, fp, ip, lr}^
    58bc:	5f5f4550 	svcpl	0x005f4550
    58c0:	736e7520 	cmnvc	lr, #32, 10	; 0x8000000
    58c4:	656e6769 	strbvs	r6, [lr, #-1897]!	; 0xfffff897
    58c8:	6e692064 	cdpvs	0, 6, cr2, cr9, cr4, {3}
    58cc:	6e690074 	mcrvs	0, 3, r0, cr9, cr4, {3}
    58d0:	322b2074 	eorcc	r2, fp, #116	; 0x74
    58d4:	415f5f00 	cmpmi	pc, r0, lsl #30
    58d8:	465f4d52 			; <UNDEFINED> instruction: 0x465f4d52
    58dc:	5f363150 	svcpl	0x00363150
    58e0:	53475241 	movtpl	r5, #29249	; 0x7241
    58e4:	475f5f00 	ldrbmi	r5, [pc, -r0, lsl #30]
    58e8:	495f4343 	ldmdbmi	pc, {r0, r1, r6, r8, r9, lr}^	; <UNPREDICTABLE>
    58ec:	355f4345 	ldrbcc	r4, [pc, #-837]	; 55af <_Min_Stack_Size+0x51af>
    58f0:	30203935 	eorcc	r3, r0, r5, lsr r9
    58f4:	725f5f00 	subsvc	r5, pc, #0, 30
    58f8:	69757165 	ldmdbvs	r5!, {r0, r2, r5, r6, r8, ip, sp, lr}^
    58fc:	5f736572 	svcpl	0x00736572
    5900:	6f6c6e75 	svcvs	0x006c6e75
    5904:	64656b63 	strbtvs	r6, [r5], #-2915	; 0xfffff49d
    5908:	2e2e2e28 	cdpcs	14, 2, cr2, cr14, cr8, {1}
    590c:	5f5f2029 	svcpl	0x005f2029
    5910:	6b636f6c 	blvs	18e16c8 <_Min_Stack_Size+0x18e12c8>
    5914:	6e6e615f 	mcrvs	1, 3, r6, cr14, cr15, {2}
    5918:	7461746f 	strbtvc	r7, [r1], #-1135	; 0xfffffb91
    591c:	6f6c2865 	svcvs	0x006c2865
    5920:	5f736b63 	svcpl	0x00736b63
    5924:	6c637865 	stclvs	8, cr7, [r3], #-404	; 0xfffffe6c
    5928:	64656475 	strbtvs	r6, [r5], #-1141	; 0xfffffb8b
    592c:	565f5f28 	ldrbpl	r5, [pc], -r8, lsr #30
    5930:	52415f41 	subpl	r5, r1, #260	; 0x104
    5934:	5f5f5347 	svcpl	0x005f5347
    5938:	63002929 	movwvs	r2, #2345	; 0x929
    593c:	20726168 	rsbscs	r6, r2, r8, ror #2
    5940:	6100302b 	tstvs	r0, fp, lsr #32
    5944:	636f6c6c 	cmnvs	pc, #108, 24	; 0x6c00
    5948:	5f5f0061 	svcpl	0x005f0061
    594c:	4152464c 	cmpmi	r2, ip, asr #12
    5950:	4d5f5443 	cfldrdmi	mvd5, [pc, #-268]	; 584c <_Min_Stack_Size+0x544c>
    5954:	5f5f5841 	svcpl	0x005f5841
    5958:	37583020 	ldrbcc	r3, [r8, -r0, lsr #32]
    595c:	46464646 	strbmi	r4, [r6], -r6, asr #12
    5960:	50464646 	subpl	r4, r6, r6, asr #12
    5964:	4c31332d 	ldcmi	3, cr3, [r1], #-180	; 0xffffff4c
    5968:	5f5f0052 	svcpl	0x005f0052
    596c:	455a4953 	ldrbmi	r4, [sl, #-2387]	; 0xfffff6ad
    5970:	505f464f 	subspl	r4, pc, pc, asr #12
    5974:	49445254 	stmdbmi	r4, {r2, r4, r6, r9, ip, lr}^
    5978:	545f4646 	ldrbpl	r4, [pc], #-1606	; 5980 <_Min_Stack_Size+0x5580>
    597c:	34205f5f 	strtcc	r5, [r0], #-3935	; 0xfffff0a1
    5980:	54584500 	ldrbpl	r4, [r8], #-1280	; 0xfffffb00
    5984:	20313149 	eorscs	r3, r1, r9, asr #2
    5988:	5f003131 	svcpl	0x00003131
    598c:	4843575f 	stmdami	r3, {r0, r1, r2, r3, r4, r6, r8, r9, sl, ip, lr}^
    5990:	545f5241 	ldrbpl	r5, [pc], #-577	; 5998 <_Min_Stack_Size+0x5598>
    5994:	00205f5f 	eoreq	r5, r0, pc, asr pc
    5998:	695f5f5f 	ldmdbvs	pc, {r0, r1, r2, r3, r4, r6, r8, r9, sl, fp, ip, lr}^	; <UNPREDICTABLE>
    599c:	6c5f746e 	cfldrdvs	mvd7, [pc], {110}	; 0x6e
    59a0:	74736165 	ldrbtvc	r6, [r3], #-357	; 0xfffffe9b
    59a4:	5f745f38 	svcpl	0x00745f38
    59a8:	69666564 	stmdbvs	r6!, {r2, r5, r6, r8, sl, sp, lr}^
    59ac:	2064656e 	rsbcs	r6, r4, lr, ror #10
    59b0:	5f5f0031 	svcpl	0x005f0031
    59b4:	5f4d5241 	svcpl	0x004d5241
    59b8:	54414546 	strbpl	r4, [r1], #-1350	; 0xfffffaba
    59bc:	5f455255 	svcpl	0x00455255
    59c0:	56494449 	strbpl	r4, [r9], -r9, asr #8
    59c4:	55003120 	strpl	r3, [r0, #-288]	; 0xfffffee0
    59c8:	54524153 	ldrbpl	r4, [r2], #-339	; 0xfffffead
    59cc:	41425f31 	cmpmi	r2, r1, lsr pc
    59d0:	30204553 	eorcc	r4, r0, r3, asr r5
    59d4:	30303478 	eorscc	r3, r0, r8, ror r4
    59d8:	30383331 	eorscc	r3, r8, r1, lsr r3
    59dc:	5f007530 	svcpl	0x00007530
    59e0:	4f4c465f 	svcmi	0x004c465f
    59e4:	575f5441 	ldrbpl	r5, [pc, -r1, asr #8]
    59e8:	5f44524f 	svcpl	0x0044524f
    59ec:	4544524f 	strbmi	r5, [r4, #-591]	; 0xfffffdb1
    59f0:	205f5f52 	subscs	r5, pc, r2, asr pc	; <UNPREDICTABLE>
    59f4:	524f5f5f 	subpl	r5, pc, #380	; 0x17c
    59f8:	5f524544 	svcpl	0x00524544
    59fc:	5454494c 	ldrbpl	r4, [r4], #-2380	; 0xfffff6b4
    5a00:	455f454c 	ldrbmi	r4, [pc, #-1356]	; 54bc <_Min_Stack_Size+0x50bc>
    5a04:	4149444e 	cmpmi	r9, lr, asr #8
    5a08:	005f5f4e 	subseq	r5, pc, lr, asr #30
    5a0c:	4343475f 	movtmi	r4, #14175	; 0x375f
    5a10:	4843575f 	stmdami	r3, {r0, r1, r2, r3, r4, r6, r8, r9, sl, ip, lr}^
    5a14:	545f5241 	ldrbpl	r5, [pc], #-577	; 5a1c <_Min_Stack_Size+0x561c>
    5a18:	5f5f0020 	svcpl	0x005f0020
    5a1c:	6f6c6e75 	svcvs	0x006c6e75
    5a20:	28736b63 	ldmdacs	r3!, {r0, r1, r5, r6, r8, r9, fp, sp, lr}^
    5a24:	292e2e2e 	stmdbcs	lr!, {r1, r2, r3, r5, r9, sl, fp, sp}
    5a28:	6c5f5f20 	mrrcvs	15, 2, r5, pc, cr0	; <UNPREDICTABLE>
    5a2c:	5f6b636f 	svcpl	0x006b636f
    5a30:	6f6e6e61 	svcvs	0x006e6e61
    5a34:	65746174 	ldrbvs	r6, [r4, #-372]!	; 0xfffffe8c
    5a38:	6c6e7528 	cfstr64vs	mvdx7, [lr], #-160	; 0xffffff60
    5a3c:	5f6b636f 	svcpl	0x006b636f
    5a40:	636e7566 	cmnvs	lr, #427819008	; 0x19800000
    5a44:	6e6f6974 			; <UNDEFINED> instruction: 0x6e6f6974
    5a48:	565f5f28 	ldrbpl	r5, [pc], -r8, lsr #30
    5a4c:	52415f41 	subpl	r5, r1, #260	; 0x104
    5a50:	5f5f5347 	svcpl	0x005f5347
    5a54:	5f002929 	svcpl	0x00002929
    5a58:	5058455f 	subspl	r4, r8, pc, asr r5
    5a5c:	2054524f 	subscs	r5, r4, pc, asr #4
    5a60:	555f5f00 	ldrbpl	r5, [pc, #-3840]	; 4b68 <_Min_Stack_Size+0x4768>
    5a64:	5f544e49 	svcpl	0x00544e49
    5a68:	5341454c 	movtpl	r4, #5452	; 0x154c
    5a6c:	545f3854 	ldrbpl	r3, [pc], #-2132	; 5a74 <_Min_Stack_Size+0x5674>
    5a70:	5f455059 	svcpl	0x00455059
    5a74:	6e75205f 	mrcvs	0, 3, r2, cr5, cr15, {2}
    5a78:	6e676973 			; <UNDEFINED> instruction: 0x6e676973
    5a7c:	63206465 			; <UNDEFINED> instruction: 0x63206465
    5a80:	00726168 	rsbseq	r6, r2, r8, ror #2
    5a84:	424f5f5f 	submi	r5, pc, #380	; 0x17c
    5a88:	454c4f53 	strbmi	r4, [ip, #-3923]	; 0xfffff0ad
    5a8c:	4d5f4554 	cfldr64mi	mvdx4, [pc, #-336]	; 5944 <_Min_Stack_Size+0x5544>
    5a90:	5f485441 	svcpl	0x00485441
    5a94:	41464544 	cmpmi	r6, r4, asr #10
    5a98:	20544c55 	subscs	r4, r4, r5, asr ip
    5a9c:	61480031 	cmpvs	r8, r1, lsr r0
    5aa0:	61466472 	hvcvs	26178	; 0x6642
    5aa4:	5f746c75 	svcpl	0x00746c75
    5aa8:	646e6148 	strbtvs	r6, [lr], #-328	; 0xfffffeb8
    5aac:	0072656c 	rsbseq	r6, r2, ip, ror #10
    5ab0:	48535f5f 	ldmdami	r3, {r0, r1, r2, r3, r4, r6, r8, r9, sl, fp, ip, lr}^
    5ab4:	575f5452 			; <UNDEFINED> instruction: 0x575f5452
    5ab8:	48544449 	ldmdami	r4, {r0, r3, r6, sl, lr}^
    5abc:	31205f5f 			; <UNDEFINED> instruction: 0x31205f5f
    5ac0:	525f0036 	subspl	r0, pc, #54	; 0x36
    5ac4:	5f444145 	svcpl	0x00444145
    5ac8:	54495257 	strbpl	r5, [r9], #-599	; 0xfffffda9
    5acc:	55425f45 	strbpl	r5, [r2, #-3909]	; 0xfffff0bb
    5ad0:	5a495346 	bpl	125a7f0 <_Min_Stack_Size+0x125a3f0>
    5ad4:	59545f45 	ldmdbpl	r4, {r0, r2, r6, r8, r9, sl, fp, ip, lr}^
    5ad8:	69204550 	stmdbvs	r0!, {r4, r6, r8, sl, lr}
    5adc:	4e00746e 	cdpmi	4, 0, cr7, cr0, cr14, {3}
    5ae0:	5f434956 	svcpl	0x00434956
    5ae4:	52455349 	subpl	r5, r5, #603979777	; 0x24000001
    5ae8:	282a2032 	stmdacs	sl!, {r1, r4, r5, sp}
    5aec:	616c6f76 	smcvs	50934	; 0xc6f6
    5af0:	656c6974 	strbvs	r6, [ip, #-2420]!	; 0xfffff68c
    5af4:	6e697520 	cdpvs	5, 6, cr7, cr9, cr0, {1}
    5af8:	5f323374 	svcpl	0x00323374
    5afc:	29202a74 	stmdbcs	r0!, {r2, r4, r5, r6, r9, fp, sp}
    5b00:	49564e28 	ldmdbmi	r6, {r3, r5, r9, sl, fp, lr}^
    5b04:	61425f43 	cmpvs	r2, r3, asr #30
    5b08:	2b206573 	blcs	81f0dc <_Min_Stack_Size+0x81ecdc>
    5b0c:	38307830 	ldmdacc	r0!, {r4, r5, fp, ip, sp, lr}
    5b10:	58450029 	stmdapl	r5, {r0, r3, r5}^
    5b14:	5f394954 	svcpl	0x00394954
    5b18:	6c6c6163 	stfvse	f6, [ip], #-396	; 0xfffffe74
    5b1c:	6b636142 	blvs	18de02c <_Min_Stack_Size+0x18ddc2c>
    5b20:	544e4900 	strbpl	r4, [lr], #-2304	; 0xfffff700
    5b24:	5f525450 	svcpl	0x00525450
    5b28:	2058414d 	subscs	r4, r8, sp, asr #2
    5b2c:	495f5f28 	ldmdbmi	pc, {r3, r5, r8, r9, sl, fp, ip, lr}^	; <UNPREDICTABLE>
    5b30:	5450544e 	ldrbpl	r5, [r0], #-1102	; 0xfffffbb2
    5b34:	414d5f52 	cmpmi	sp, r2, asr pc
    5b38:	295f5f58 	ldmdbcs	pc, {r3, r4, r6, r8, r9, sl, fp, ip, lr}^	; <UNPREDICTABLE>
    5b3c:	495f5f00 	ldmdbmi	pc, {r8, r9, sl, fp, ip, lr}^	; <UNPREDICTABLE>
    5b40:	524f504d 	subpl	r5, pc, #77	; 0x4d
    5b44:	47002054 	smlsdmi	r0, r4, r0, r2
    5b48:	5f4f4950 	svcpl	0x004f4950
    5b4c:	5f4e4950 	svcpl	0x004e4950
    5b50:	28282030 	stmdacs	r8!, {r4, r5, sp}
    5b54:	746e6975 	strbtvc	r6, [lr], #-2421	; 0xfffff68b
    5b58:	745f3631 	ldrbvc	r3, [pc], #-1585	; 5b60 <_Min_Stack_Size+0x5760>
    5b5c:	78302029 	ldmdavc	r0!, {r0, r3, r5, sp}
    5b60:	31303030 	teqcc	r0, r0, lsr r0
    5b64:	505f0029 	subspl	r0, pc, r9, lsr #32
    5b68:	49445254 	stmdbmi	r4, {r2, r4, r6, r9, ip, lr}^
    5b6c:	545f4646 	ldrbpl	r4, [pc], #-1606	; 5b74 <_Min_Stack_Size+0x5774>
    5b70:	4345445f 	movtmi	r4, #21599	; 0x545f
    5b74:	4552414c 	ldrbmi	r4, [r2, #-332]	; 0xfffffeb4
    5b78:	5f002044 	svcpl	0x00002044
    5b7c:	4153555f 	cmpmi	r3, pc, asr r5
    5b80:	4942465f 	stmdbmi	r2, {r0, r1, r2, r3, r4, r6, r9, sl, lr}^
    5b84:	205f5f54 	subscs	r5, pc, r4, asr pc	; <UNPREDICTABLE>
    5b88:	5f003631 	svcpl	0x00003631
    5b8c:	6c6f765f 	stclvs	6, cr7, [pc], #-380	; 5a18 <_Min_Stack_Size+0x5618>
    5b90:	6c697461 	cfstrdvs	mvd7, [r9], #-388	; 0xfffffe7c
    5b94:	6f762065 	svcvs	0x00762065
    5b98:	6974616c 	ldmdbvs	r4!, {r2, r3, r5, r6, r8, sp, lr}^
    5b9c:	5f00656c 	svcpl	0x0000656c
    5ba0:	4843414d 	stmdami	r3, {r0, r2, r3, r6, r8, lr}^
    5ba4:	5f454e49 	svcpl	0x00454e49
    5ba8:	5059545f 	subspl	r5, r9, pc, asr r4
    5bac:	485f5345 	ldmdami	pc, {r0, r2, r6, r8, r9, ip, lr}^	; <UNPREDICTABLE>
    5bb0:	5f5f0020 	svcpl	0x005f0020
    5bb4:	45454549 	strbmi	r4, [r5, #-1353]	; 0xfffffab7
    5bb8:	54494c5f 	strbpl	r4, [r9], #-3167	; 0xfffff3a1
    5bbc:	5f454c54 	svcpl	0x00454c54
    5bc0:	49444e45 	stmdbmi	r4, {r0, r2, r6, r9, sl, fp, lr}^
    5bc4:	00204e41 	eoreq	r4, r0, r1, asr #28
    5bc8:	444c5f5f 	strbmi	r5, [ip], #-3935	; 0xfffff0a1
    5bcc:	4d5f4c42 	ldclmi	12, cr4, [pc, #-264]	; 5acc <_Min_Stack_Size+0x56cc>
    5bd0:	315f4e49 	cmpcc	pc, r9, asr #28
    5bd4:	58455f30 	stmdapl	r5, {r4, r5, r8, r9, sl, fp, ip, lr}^
    5bd8:	205f5f50 	subscs	r5, pc, r0, asr pc	; <UNPREDICTABLE>
    5bdc:	30332d28 	eorscc	r2, r3, r8, lsr #26
    5be0:	5f002937 	svcpl	0x00002937
    5be4:	4654415f 			; <UNDEFINED> instruction: 0x4654415f
    5be8:	5f454c49 	svcpl	0x00454c49
    5bec:	49534956 	ldmdbmi	r3, {r1, r2, r4, r6, r8, fp, lr}^
    5bf0:	20454c42 	subcs	r4, r5, r2, asr #24
    5bf4:	58450031 	stmdapl	r5, {r0, r4, r5}^
    5bf8:	745f4954 	ldrbvc	r4, [pc], #-2388	; 5c00 <_Min_Stack_Size+0x5800>
    5bfc:	67676972 			; <UNDEFINED> instruction: 0x67676972
    5c00:	725f7265 	subsvc	r7, pc, #1342177286	; 0x50000006
    5c04:	6e697369 	cdpvs	3, 6, cr7, cr9, cr9, {3}
    5c08:	444e4167 	strbmi	r4, [lr], #-359	; 0xfffffe99
    5c0c:	6c6c6166 	stfvse	f6, [ip], #-408	; 0xfffffe68
    5c10:	20676e69 	rsbcs	r6, r7, r9, ror #28
    5c14:	58450032 	stmdapl	r5, {r1, r4, r5}^
    5c18:	35314954 	ldrcc	r4, [r1, #-2388]!	; 0xfffff6ac
    5c1c:	00353120 	eorseq	r3, r5, r0, lsr #2
    5c20:	464c5f5f 			; <UNDEFINED> instruction: 0x464c5f5f
    5c24:	54434152 	strbpl	r4, [r3], #-338	; 0xfffffeae
    5c28:	5350455f 	cmppl	r0, #398458880	; 0x17c00000
    5c2c:	4e4f4c49 	cdpmi	12, 4, cr4, cr15, cr9, {2}
    5c30:	30205f5f 	eorcc	r5, r0, pc, asr pc
    5c34:	2d503178 	ldfcse	f3, [r0, #-480]	; 0xfffffe20
    5c38:	524c3133 	subpl	r3, ip, #-1073741812	; 0xc000000c
    5c3c:	45425f00 	strbmi	r5, [r2, #-3840]	; 0xfffff100
    5c40:	5f4e4947 	svcpl	0x004e4947
    5c44:	5f445453 	svcpl	0x00445453
    5c48:	5f002043 	svcpl	0x00002043
    5c4c:	6c616d5f 	stclvs	13, cr6, [r1], #-380	; 0xfffffe84
    5c50:	5f636f6c 	svcpl	0x00636f6c
    5c54:	656b696c 	strbvs	r6, [fp, #-2412]!	; 0xfffff694
    5c58:	615f5f20 	cmpvs	pc, r0, lsr #30
    5c5c:	69727474 	ldmdbvs	r2!, {r2, r4, r5, r6, sl, ip, sp, lr}^
    5c60:	65747562 	ldrbvs	r7, [r4, #-1378]!	; 0xfffffa9e
    5c64:	28285f5f 	stmdacs	r8!, {r0, r1, r2, r3, r4, r6, r8, r9, sl, fp, ip, lr}
    5c68:	616d5f5f 	cmnvs	sp, pc, asr pc
    5c6c:	636f6c6c 	cmnvs	pc, #108, 24	; 0x6c00
    5c70:	29295f5f 	stmdbcs	r9!, {r0, r1, r2, r3, r4, r6, r8, r9, sl, fp, ip, lr}
    5c74:	45525f00 	ldrbmi	r5, [r2, #-3840]	; 0xfffff100
    5c78:	5f544e45 	svcpl	0x00544e45
    5c7c:	54494e49 	strbpl	r4, [r9], #-3657	; 0xfffff1b7
    5c80:	72617628 	rsbvc	r7, r1, #40, 12	; 0x2800000
    5c84:	207b2029 	rsbscs	r2, fp, r9, lsr #32
    5c88:	28202c30 	stmdacs	r0!, {r4, r5, sl, fp, sp}
    5c8c:	49465f5f 	stmdbmi	r6, {r0, r1, r2, r3, r4, r6, r8, r9, sl, fp, ip, lr}^
    5c90:	2a20454c 	bcs	8171c8 <_Min_Stack_Size+0x816dc8>
    5c94:	5f5f2629 	svcpl	0x005f2629
    5c98:	665f6673 			; <UNDEFINED> instruction: 0x665f6673
    5c9c:	5f656b61 	svcpl	0x00656b61
    5ca0:	69647473 	stmdbvs	r4!, {r0, r1, r4, r5, r6, sl, ip, sp, lr}^
    5ca4:	28202c6e 	stmdacs	r0!, {r1, r2, r3, r5, r6, sl, fp, sp}
    5ca8:	49465f5f 	stmdbmi	r6, {r0, r1, r2, r3, r4, r6, r8, r9, sl, fp, ip, lr}^
    5cac:	2a20454c 	bcs	8171e4 <_Min_Stack_Size+0x816de4>
    5cb0:	5f5f2629 	svcpl	0x005f2629
    5cb4:	665f6673 			; <UNDEFINED> instruction: 0x665f6673
    5cb8:	5f656b61 	svcpl	0x00656b61
    5cbc:	6f647473 	svcvs	0x00647473
    5cc0:	202c7475 	eorcs	r7, ip, r5, ror r4
    5cc4:	465f5f28 	ldrbmi	r5, [pc], -r8, lsr #30
    5cc8:	20454c49 	subcs	r4, r5, r9, asr #24
    5ccc:	5f26292a 	svcpl	0x0026292a
    5cd0:	5f66735f 	svcpl	0x0066735f
    5cd4:	656b6166 	strbvs	r6, [fp, #-358]!	; 0xfffffe9a
    5cd8:	6474735f 	ldrbtvs	r7, [r4], #-863	; 0xfffffca1
    5cdc:	2c727265 	lfmcs	f7, 2, [r2], #-404	; 0xfffffe6c
    5ce0:	202c3020 	eorcs	r3, ip, r0, lsr #32
    5ce4:	4c554e5f 	mrrcmi	14, 5, r4, r5, cr15
    5ce8:	30202c4c 	eorcc	r2, r0, ip, asr #24
    5cec:	2c30202c 	ldccs	0, cr2, [r0], #-176	; 0xffffff50
    5cf0:	554e5f20 	strbpl	r5, [lr, #-3872]	; 0xfffff0e0
    5cf4:	202c4c4c 	eorcs	r4, ip, ip, asr #24
    5cf8:	4c554e5f 	mrrcmi	14, 5, r4, r5, cr15
    5cfc:	5f202c4c 	svcpl	0x00202c4c
    5d00:	4c4c554e 	cfstr64mi	mvdx5, [ip], {78}	; 0x4e
    5d04:	2c30202c 	ldccs	0, cr2, [r0], #-176	; 0xffffff50
    5d08:	202c3020 	eorcs	r3, ip, r0, lsr #32
    5d0c:	4c554e5f 	mrrcmi	14, 5, r4, r5, cr15
    5d10:	5f202c4c 	svcpl	0x00202c4c
    5d14:	4c4c554e 	cfstr64mi	mvdx5, [ip], {78}	; 0x4e
    5d18:	4e5f202c 	cdpmi	0, 5, cr2, cr15, cr12, {1}
    5d1c:	2c4c4c55 	mcrrcs	12, 5, r4, ip, cr5
    5d20:	554e5f20 	strbpl	r5, [lr, #-3872]	; 0xfffff0e0
    5d24:	202c4c4c 	eorcs	r4, ip, ip, asr #24
    5d28:	4c554e5f 	mrrcmi	14, 5, r4, r5, cr15
    5d2c:	5f202c4c 	svcpl	0x00202c4c
    5d30:	4e454552 	mcrmi	5, 2, r4, cr5, cr2, {2}
    5d34:	4e495f54 	mcrmi	15, 2, r5, cr9, cr4, {2}
    5d38:	415f5449 	cmpmi	pc, r9, asr #8
    5d3c:	49584554 	ldmdbmi	r8, {r2, r4, r6, r8, sl, lr}^
    5d40:	5f7b2054 	svcpl	0x007b2054
    5d44:	4c4c554e 	cfstr64mi	mvdx5, [ip], {78}	; 0x4e
    5d48:	2c30202c 	ldccs	0, cr2, [r0], #-176	; 0xffffff50
    5d4c:	554e5f20 	strbpl	r5, [lr, #-3872]	; 0xfffff0e0
    5d50:	2c7d4c4c 	ldclcs	12, cr4, [sp], #-304	; 0xfffffed0
    5d54:	554e5f20 	strbpl	r5, [lr, #-3872]	; 0xfffff0e0
    5d58:	202c4c4c 	eorcs	r4, ip, ip, asr #24
    5d5c:	4c554e5f 	mrrcmi	14, 5, r4, r5, cr15
    5d60:	5f202c4c 	svcpl	0x00202c4c
    5d64:	4c4c554e 	cfstr64mi	mvdx5, [ip], {78}	; 0x4e
    5d68:	5f007d20 	svcpl	0x00007d20
    5d6c:	4d52415f 	ldfmie	f4, [r2, #-380]	; 0xfffffe84
    5d70:	5a49535f 	bpl	125aaf4 <_Min_Stack_Size+0x125a6f4>
    5d74:	5f464f45 	svcpl	0x00464f45
    5d78:	494e494d 	stmdbmi	lr, {r0, r2, r3, r6, r8, fp, lr}^
    5d7c:	5f4c414d 	svcpl	0x004c414d
    5d80:	4d554e45 	ldclmi	14, cr4, [r5, #-276]	; 0xfffffeec
    5d84:	5f003120 	svcpl	0x00003120
    5d88:	4e494f50 	mcrmi	15, 2, r4, cr9, cr0, {2}
    5d8c:	5f524554 	svcpl	0x00524554
    5d90:	20544e49 	subscs	r4, r4, r9, asr #28
    5d94:	676e6f6c 	strbvs	r6, [lr, -ip, ror #30]!
    5d98:	465f5f00 	ldrbmi	r5, [pc], -r0, lsl #30
    5d9c:	3233544c 	eorscc	r5, r3, #76, 8	; 0x4c000000
    5da0:	4f4e5f58 	svcmi	0x004e5f58
    5da4:	4d5f4d52 	ldclmi	13, cr4, [pc, #-328]	; 5c64 <_Min_Stack_Size+0x5864>
    5da8:	5f5f5841 	svcpl	0x005f5841
    5dac:	372e3120 	strcc	r3, [lr, -r0, lsr #2]!
    5db0:	39363739 	ldmdbcc	r6!, {r0, r3, r4, r5, r8, r9, sl, ip, sp}
    5db4:	34333133 	ldrtcc	r3, [r3], #-307	; 0xfffffecd
    5db8:	33323638 	teqcc	r2, #56, 12	; 0x3800000
    5dbc:	65373531 	ldrvs	r3, [r7, #-1329]!	; 0xfffffacf
    5dc0:	3830332b 	ldmdacc	r0!, {r0, r1, r3, r5, r8, r9, ip, sp}
    5dc4:	78323346 	ldmdavc	r2!, {r1, r2, r6, r8, r9, ip, sp}
    5dc8:	54584500 	ldrbpl	r4, [r8], #-1280	; 0xfffffb00
    5dcc:	20323149 	eorscs	r3, r2, r9, asr #2
    5dd0:	5f003231 	svcpl	0x00003231
    5dd4:	6d72615f 	ldfvse	f6, [r2, #-380]!	; 0xfffffe84
    5dd8:	31205f5f 			; <UNDEFINED> instruction: 0x31205f5f
    5ddc:	465f5f00 	ldrbmi	r5, [pc], -r0, lsl #30
    5de0:	54434152 	strbpl	r4, [r3], #-338	; 0xfffffeae
    5de4:	5350455f 	cmppl	r0, #398458880	; 0x17c00000
    5de8:	4e4f4c49 	cdpmi	12, 4, cr4, cr15, cr9, {2}
    5dec:	30205f5f 	eorcc	r5, r0, pc, asr pc
    5df0:	2d503178 	ldfcse	f3, [r0, #-480]	; 0xfffffe20
    5df4:	00523531 	subseq	r3, r2, r1, lsr r5
    5df8:	4c465f5f 	mcrrmi	15, 5, r5, r6, cr15
    5dfc:	5f323354 	svcpl	0x00323354
    5e00:	5f4e494d 	svcpl	0x004e494d
    5e04:	455f3031 	ldrbmi	r3, [pc, #-49]	; 5ddb <_Min_Stack_Size+0x59db>
    5e08:	5f5f5058 	svcpl	0x005f5058
    5e0c:	332d2820 			; <UNDEFINED> instruction: 0x332d2820
    5e10:	5f002937 	svcpl	0x00002937
    5e14:	4e454552 	mcrmi	5, 2, r4, cr5, cr2, {2}
    5e18:	43575f54 	cmpmi	r7, #84, 30	; 0x150
    5e1c:	424d4f54 	submi	r4, sp, #84, 30	; 0x150
    5e20:	4154535f 	cmpmi	r4, pc, asr r3
    5e24:	70284554 	eorvc	r4, r8, r4, asr r5
    5e28:	20297274 	eorcs	r7, r9, r4, ror r2
    5e2c:	74702828 	ldrbtvc	r2, [r0], #-2088	; 0xfffff7d8
    5e30:	3e2d2972 			; <UNDEFINED> instruction: 0x3e2d2972
    5e34:	73696d5f 	cmnvc	r9, #6080	; 0x17c0
    5e38:	5f3e2d63 	svcpl	0x003e2d63
    5e3c:	6f746377 	svcvs	0x00746377
    5e40:	735f626d 	cmpvc	pc, #-805306362	; 0xd0000006
    5e44:	65746174 	ldrbvs	r6, [r4, #-372]!	; 0xfffffe8c
    5e48:	5f5f0029 	svcpl	0x005f0029
    5e4c:	5f4f5349 	svcpl	0x004f5349
    5e50:	49565f43 	ldmdbmi	r6, {r0, r1, r6, r8, r9, sl, fp, ip, lr}^
    5e54:	4c424953 	mcrrmi	9, 5, r4, r2, cr3	; <UNPREDICTABLE>
    5e58:	30322045 	eorscc	r2, r2, r5, asr #32
    5e5c:	55003131 	strpl	r3, [r0, #-305]	; 0xfffffecf
    5e60:	35545241 	ldrbcc	r5, [r4, #-577]	; 0xfffffdbf
    5e64:	55282820 	strpl	r2, [r8, #-2080]!	; 0xfffff7e0
    5e68:	54524153 	ldrbpl	r4, [r2], #-339	; 0xfffffead
    5e6c:	7079545f 	rsbsvc	r5, r9, pc, asr r4
    5e70:	66656465 	strbtvs	r6, [r5], -r5, ror #8
    5e74:	2a20745f 	bcs	822ff8 <_Min_Stack_Size+0x822bf8>
    5e78:	52415529 	subpl	r5, r1, #171966464	; 0xa400000
    5e7c:	425f3554 	subsmi	r3, pc, #84, 10	; 0x15000000
    5e80:	29455341 	stmdbcs	r5, {r0, r6, r8, r9, ip, lr}^
    5e84:	415f5f00 	cmpmi	pc, r0, lsl #30
    5e88:	465f4d52 			; <UNDEFINED> instruction: 0x465f4d52
    5e8c:	5f363150 	svcpl	0x00363150
    5e90:	4d524f46 	ldclmi	15, cr4, [r2, #-280]	; 0xfffffee8
    5e94:	415f5441 	cmpmi	pc, r1, asr #8
    5e98:	5245544c 	subpl	r5, r5, #76, 8	; 0x4c000000
    5e9c:	4954414e 	ldmdbmi	r4, {r1, r2, r3, r6, r8, lr}^
    5ea0:	45004556 	strmi	r4, [r0, #-1366]	; 0xfffffaaa
    5ea4:	35495458 	strbcc	r5, [r9, #-1112]	; 0xfffffba8
    5ea8:	20354450 	eorscs	r4, r5, r0, asr r4
    5eac:	54584528 	ldrbpl	r4, [r8], #-1320	; 0xfffffad8
    5eb0:	50475f49 	subpl	r5, r7, r9, asr #30
    5eb4:	4d5f4f49 	ldclmi	15, cr4, [pc, #-292]	; 5d98 <_Min_Stack_Size+0x5998>
    5eb8:	69707061 	ldmdbvs	r0!, {r0, r5, r6, ip, sp, lr}^
    5ebc:	745f676e 	ldrbvc	r6, [pc], #-1902	; 5ec4 <_Min_Stack_Size+0x5ac4>
    5ec0:	58457b29 	stmdapl	r5, {r0, r3, r5, r8, r9, fp, ip, sp, lr}^
    5ec4:	2c354954 			; <UNDEFINED> instruction: 0x2c354954
    5ec8:	49504720 	ldmdbmi	r0, {r5, r8, r9, sl, lr}^
    5ecc:	202c444f 	eorcs	r4, ip, pc, asr #8
    5ed0:	4f495047 	svcmi	0x00495047
    5ed4:	4e49505f 	mcrmi	0, 2, r5, cr9, cr15, {2}
    5ed8:	202c355f 	eorcs	r3, ip, pc, asr r5
    5edc:	49545845 	ldmdbmi	r4, {r0, r2, r6, fp, ip, lr}^
    5ee0:	52495f35 	subpl	r5, r9, #53, 30	; 0xd4
    5ee4:	5f007d51 	svcpl	0x00007d51
    5ee8:	5342465f 	movtpl	r4, #9823	; 0x265f
    5eec:	28444944 	stmdacs	r4, {r2, r6, r8, fp, lr}^
    5ef0:	73202973 			; <UNDEFINED> instruction: 0x73202973
    5ef4:	63757274 	cmnvs	r5, #116, 4	; 0x40000007
    5ef8:	5f5f2074 	svcpl	0x005f2074
    5efc:	6b636168 	blvs	18de4a4 <_Min_Stack_Size+0x18de0a4>
    5f00:	4c5f5f00 	mrrcmi	15, 0, r5, pc, cr0	; <UNPREDICTABLE>
    5f04:	5f4c4244 	svcpl	0x004c4244
    5f08:	4d524f4e 	ldclmi	15, cr4, [r2, #-312]	; 0xfffffec8
    5f0c:	58414d5f 	stmdapl	r1, {r0, r1, r2, r3, r4, r6, r8, sl, fp, lr}^
    5f10:	31205f5f 			; <UNDEFINED> instruction: 0x31205f5f
    5f14:	3739372e 	ldrcc	r3, [r9, -lr, lsr #14]!
    5f18:	31333936 	teqcc	r3, r6, lsr r9
    5f1c:	36383433 			; <UNDEFINED> instruction: 0x36383433
    5f20:	35313332 	ldrcc	r3, [r1, #-818]!	; 0xfffffcce
    5f24:	332b6537 			; <UNDEFINED> instruction: 0x332b6537
    5f28:	004c3830 	subeq	r3, ip, r0, lsr r8
    5f2c:	5f544e49 	svcpl	0x00544e49
    5f30:	54534146 	ldrbpl	r4, [r3], #-326	; 0xfffffeba
    5f34:	4d5f3436 	cfldrdmi	mvd3, [pc, #-216]	; 5e64 <_Min_Stack_Size+0x5a64>
    5f38:	28204e49 	stmdacs	r0!, {r0, r3, r6, r9, sl, fp, lr}
    5f3c:	495f5f2d 	ldmdbmi	pc, {r0, r2, r3, r5, r8, r9, sl, fp, ip, lr}^	; <UNPREDICTABLE>
    5f40:	465f544e 	ldrbmi	r5, [pc], -lr, asr #8
    5f44:	36545341 	ldrbcc	r5, [r4], -r1, asr #6
    5f48:	414d5f34 	cmpmi	sp, r4, lsr pc
    5f4c:	205f5f58 	subscs	r5, pc, r8, asr pc	; <UNPREDICTABLE>
    5f50:	2931202d 	ldmdbcs	r1!, {r0, r2, r3, r5, sp}
    5f54:	414d5f00 	cmpmi	sp, r0, lsl #30
    5f58:	4e494843 	cdpmi	8, 4, cr4, cr9, cr3, {2}
    5f5c:	445f5f45 	ldrbmi	r5, [pc], #-3909	; 5f64 <_Min_Stack_Size+0x5b64>
    5f60:	55414645 	strbpl	r4, [r1, #-1605]	; 0xfffff9bb
    5f64:	545f544c 	ldrbpl	r5, [pc], #-1100	; 5f6c <_Min_Stack_Size+0x5b6c>
    5f68:	53455059 	movtpl	r5, #20569	; 0x5059
    5f6c:	0020485f 	eoreq	r4, r0, pc, asr r8
    5f70:	49425f5f 	stmdbmi	r2, {r0, r1, r2, r3, r4, r6, r8, r9, sl, fp, ip, lr}^
    5f74:	53454747 	movtpl	r4, #22343	; 0x5747
    5f78:	4c415f54 	mcrrmi	15, 5, r5, r1, cr4
    5f7c:	4d4e4749 	stclmi	7, cr4, [lr, #-292]	; 0xfffffedc
    5f80:	5f544e45 	svcpl	0x00544e45
    5f84:	0038205f 	eorseq	r2, r8, pc, asr r0
    5f88:	4343475f 	movtmi	r4, #14175	; 0x375f
    5f8c:	5254505f 	subspl	r5, r4, #95	; 0x5f
    5f90:	46464944 	strbmi	r4, [r6], -r4, asr #18
    5f94:	0020545f 	eoreq	r5, r0, pc, asr r4
    5f98:	4e475f5f 	mcrmi	15, 2, r5, cr7, cr15, {2}
    5f9c:	494c4355 	stmdbmi	ip, {r0, r2, r4, r6, r8, r9, lr}^
    5fa0:	425f454b 	subsmi	r4, pc, #314572800	; 0x12c00000
    5fa4:	544c4955 	strbpl	r4, [ip], #-2389	; 0xfffff6ab
    5fa8:	4e5f4e49 	cdpmi	14, 5, cr4, cr15, cr9, {2}
    5fac:	5f545845 	svcpl	0x00545845
    5fb0:	20475241 	subcs	r5, r7, r1, asr #4
    5fb4:	50470031 	subpl	r0, r7, r1, lsr r0
    5fb8:	505f4f49 	subspl	r4, pc, r9, asr #30
    5fbc:	315f4e49 	cmpcc	pc, r9, asr #28
    5fc0:	75282820 	strvc	r2, [r8, #-2080]!	; 0xfffff7e0
    5fc4:	31746e69 	cmncc	r4, r9, ror #28
    5fc8:	29745f36 	ldmdbcs	r4!, {r1, r2, r4, r5, r8, r9, sl, fp, ip, lr}^
    5fcc:	30783020 	rsbscc	r3, r8, r0, lsr #32
    5fd0:	29323030 	ldmdbcs	r2!, {r4, r5, ip, sp}
    5fd4:	545f5f00 	ldrbpl	r5, [pc], #-3840	; 5fdc <_Min_Stack_Size+0x5bdc>
    5fd8:	42495f41 	submi	r5, r9, #260	; 0x104
    5fdc:	5f5f5449 	svcpl	0x005f5449
    5fe0:	00343620 	eorseq	r3, r4, r0, lsr #12
    5fe4:	49545845 	ldmdbmi	r4, {r0, r2, r6, fp, ip, lr}^
    5fe8:	34415034 	strbcc	r5, [r1], #-52	; 0xffffffcc
    5fec:	58452820 	stmdapl	r5, {r5, fp, sp}^
    5ff0:	475f4954 			; <UNDEFINED> instruction: 0x475f4954
    5ff4:	5f4f4950 	svcpl	0x004f4950
    5ff8:	7070614d 	rsbsvc	r6, r0, sp, asr #2
    5ffc:	5f676e69 	svcpl	0x00676e69
    6000:	457b2974 	ldrbmi	r2, [fp, #-2420]!	; 0xfffff68c
    6004:	34495458 	strbcc	r5, [r9], #-1112	; 0xfffffba8
    6008:	5047202c 	subpl	r2, r7, ip, lsr #32
    600c:	2c414f49 	mcrrcs	15, 4, r4, r1, cr9
    6010:	49504720 	ldmdbmi	r0, {r5, r8, r9, sl, lr}^
    6014:	49505f4f 	ldmdbmi	r0, {r0, r1, r2, r3, r6, r8, r9, sl, fp, ip, lr}^
    6018:	2c345f4e 	ldccs	15, cr5, [r4], #-312	; 0xfffffec8
    601c:	54584520 	ldrbpl	r4, [r8], #-1312	; 0xfffffae0
    6020:	495f3449 	ldmdbmi	pc, {r0, r3, r6, sl, ip, sp}^	; <UNPREDICTABLE>
    6024:	007d5152 	rsbseq	r5, sp, r2, asr r1
    6028:	334d5453 	movtcc	r5, #54355	; 0xd453
    602c:	00312032 	eorseq	r2, r1, r2, lsr r0
    6030:	454c5f5f 	strbmi	r5, [ip, #-3935]	; 0xfffff0a1
    6034:	36545341 	ldrbcc	r5, [r4], -r1, asr #6
    6038:	6c222034 	stcvs	0, cr2, [r2], #-208	; 0xffffff30
    603c:	4500226c 	strmi	r2, [r0, #-620]	; 0xfffffd94
    6040:	34495458 	strbcc	r5, [r9], #-1112	; 0xfffffba8
    6044:	5f003420 	svcpl	0x00003420
    6048:	6565725f 	strbvs	r7, [r5, #-607]!	; 0xfffffda1
    604c:	615f746e 	cmpvs	pc, lr, ror #8
    6050:	72657373 	rsbvc	r7, r5, #-872415231	; 0xcc000001
    6054:	29782874 	ldmdbcs	r8!, {r2, r4, r5, r6, fp, sp}^
    6058:	78282820 	stmdavc	r8!, {r5, fp, sp}
    605c:	203f2029 	eorscs	r2, pc, r9, lsr #32
    6060:	696f7628 	stmdbvs	pc!, {r3, r5, r9, sl, ip, sp, lr}^	; <UNPREDICTABLE>
    6064:	20302964 	eorscs	r2, r0, r4, ror #18
    6068:	5f5f203a 	svcpl	0x005f203a
    606c:	65737361 	ldrbvs	r7, [r3, #-865]!	; 0xfffffc9f
    6070:	665f7472 			; <UNDEFINED> instruction: 0x665f7472
    6074:	28636e75 	stmdacs	r3!, {r0, r2, r4, r5, r6, r9, sl, fp, sp, lr}^
    6078:	49465f5f 	stmdbmi	r6, {r0, r1, r2, r3, r4, r6, r8, r9, sl, fp, ip, lr}^
    607c:	5f5f454c 	svcpl	0x005f454c
    6080:	5f5f202c 	svcpl	0x005f202c
    6084:	454e494c 	strbmi	r4, [lr, #-2380]	; 0xfffff6b4
    6088:	202c5f5f 	eorcs	r5, ip, pc, asr pc
    608c:	61686328 	cmnvs	r8, r8, lsr #6
    6090:	292a2072 	stmdbcs	sl!, {r1, r4, r5, r6, sp}
    6094:	22202c30 	eorcs	r2, r0, #48, 24	; 0x3000
    6098:	4e454552 	mcrmi	5, 2, r4, cr5, cr2, {2}
    609c:	616d2054 	qdsubvs	r2, r4, sp
    60a0:	636f6c6c 	cmnvs	pc, #108, 24	; 0x6c00
    60a4:	63757320 	cmnvs	r5, #32, 6	; 0x80000000
    60a8:	64656563 	strbtvs	r6, [r5], #-1379	; 0xfffffa9d
    60ac:	29226465 	stmdbcs	r2!, {r0, r2, r5, r6, sl, sp, lr}
    60b0:	5f5f0029 	svcpl	0x005f0029
    60b4:	5f4d5241 	svcpl	0x004d5241
    60b8:	54414546 	strbpl	r4, [r1], #-1350	; 0xfffffaba
    60bc:	5f455255 	svcpl	0x00455255
    60c0:	4d445251 	sfmmi	f5, 2, [r4, #-324]	; 0xfffffebc
    60c4:	485f0058 	ldmdami	pc, {r3, r4, r6}^	; <UNPREDICTABLE>
    60c8:	5f455641 	svcpl	0x00455641
    60cc:	495f4343 	ldmdbmi	pc, {r0, r1, r6, r8, r9, lr}^	; <UNPREDICTABLE>
    60d0:	4249484e 	submi	r4, r9, #5111808	; 0x4e0000
    60d4:	4c5f5449 	cfldrdmi	mvd5, [pc], {73}	; 0x49
    60d8:	5f504f4f 	svcpl	0x00504f4f
    60dc:	4c5f4f54 	mrrcmi	15, 5, r4, pc, cr4	; <UNPREDICTABLE>
    60e0:	41434249 	cmpmi	r3, r9, asr #4
    60e4:	31204c4c 			; <UNDEFINED> instruction: 0x31204c4c
    60e8:	415f5f00 	cmpmi	pc, r0, lsl #30
    60ec:	415f4d52 	cmpmi	pc, r2, asr sp	; <UNPREDICTABLE>
    60f0:	5f484352 	svcpl	0x00484352
    60f4:	5f415349 	svcpl	0x00415349
    60f8:	4d554854 	ldclmi	8, cr4, [r5, #-336]	; 0xfffffeb0
    60fc:	00322042 	eorseq	r2, r2, r2, asr #32
    6100:	4f494641 	svcmi	0x00494641
    6104:	4b4c435f 	blmi	1316e88 <_Min_Stack_Size+0x1316a88>
    6108:	284e455f 	stmdacs	lr, {r0, r1, r2, r3, r4, r6, r8, sl, lr}^
    610c:	52282029 	eorpl	r2, r8, #41	; 0x29
    6110:	3e2d4343 	cdpcc	3, 2, cr4, cr13, cr3, {2}
    6114:	32425041 	subcc	r5, r2, #65	; 0x41
    6118:	20524e45 	subscs	r4, r2, r5, asr #28
    611c:	28203d7c 	stmdacs	r0!, {r2, r3, r4, r5, r6, r8, sl, fp, ip, sp}
    6120:	303c3c31 	eorscc	r3, ip, r1, lsr ip
    6124:	5f002929 	svcpl	0x00002929
    6128:	4e4f4c5f 	mcrmi	12, 2, r4, cr15, cr15, {2}
    612c:	4f4c5f47 	svcmi	0x004c5f47
    6130:	4d5f474e 	ldclmi	7, cr4, [pc, #-312]	; 6000 <_Min_Stack_Size+0x5c00>
    6134:	5f5f5841 	svcpl	0x005f5841
    6138:	37783020 	ldrbcc	r3, [r8, -r0, lsr #32]!
    613c:	66666666 	strbtvs	r6, [r6], -r6, ror #12
    6140:	66666666 	strbtvs	r6, [r6], -r6, ror #12
    6144:	66666666 	strbtvs	r6, [r6], -r6, ror #12
    6148:	4c666666 	stclmi	6, cr6, [r6], #-408	; 0xfffffe68
    614c:	4352004c 	cmpmi	r2, #76	; 0x4c
    6150:	50475f43 	subpl	r5, r7, r3, asr #30
    6154:	5f444f49 	svcpl	0x00444f49
    6158:	5f4b4c43 	svcpl	0x004b4c43
    615c:	29284e45 	stmdbcs	r8!, {r0, r2, r6, r9, sl, fp, lr}
    6160:	43522820 	cmpmi	r2, #32, 16	; 0x200000
    6164:	413e2d43 	teqmi	lr, r3, asr #26
    6168:	45324250 	ldrmi	r4, [r2, #-592]!	; 0xfffffdb0
    616c:	7c20524e 	sfmvc	f5, 4, [r0], #-312	; 0xfffffec8
    6170:	3128203d 			; <UNDEFINED> instruction: 0x3128203d
    6174:	29353c3c 	ldmdbcs	r5!, {r2, r3, r4, r5, sl, fp, ip, sp}
    6178:	5f5f0029 	svcpl	0x005f0029
    617c:	5f677261 	svcpl	0x00677261
    6180:	65707974 	ldrbvs	r7, [r0, #-2420]!	; 0xfffff68c
    6184:	6761745f 			; <UNDEFINED> instruction: 0x6761745f
    6188:	67726128 	ldrbvs	r6, [r2, -r8, lsr #2]!
    618c:	6e696b5f 	vmovvs.8	d9[6], r6
    6190:	72612c64 	rsbvc	r2, r1, #100, 24	; 0x6400
    6194:	64695f67 	strbtvs	r5, [r9], #-3943	; 0xfffff099
    6198:	79742c78 	ldmdbvc	r4!, {r3, r4, r5, r6, sl, fp, sp}^
    619c:	745f6570 	ldrbvc	r6, [pc], #-1392	; 61a4 <_Min_Stack_Size+0x5da4>
    61a0:	695f6761 	ldmdbvs	pc, {r0, r5, r6, r8, r9, sl, sp, lr}^	; <UNPREDICTABLE>
    61a4:	20297864 	eorcs	r7, r9, r4, ror #16
    61a8:	49505300 	ldmdbmi	r0, {r8, r9, ip, lr}^
    61ac:	52495f31 	subpl	r5, r9, #49, 30	; 0xc4
    61b0:	35332051 	ldrcc	r2, [r3, #-81]!	; 0xffffffaf
    61b4:	535f5f00 	cmppl	pc, #0, 30
    61b8:	4e495254 	mcrmi	2, 2, r5, cr9, cr4, {2}
    61bc:	29782847 	ldmdbcs	r8!, {r0, r1, r2, r6, fp, sp}^
    61c0:	00782320 	rsbseq	r2, r8, r0, lsr #6
    61c4:	726f6873 	rsbvc	r6, pc, #7536640	; 0x730000
    61c8:	525f0074 	subspl	r0, pc, #116	; 0x74
    61cc:	544e4545 	strbpl	r4, [lr], #-1349	; 0xfffffabb
    61d0:	494e495f 	stmdbmi	lr, {r0, r1, r2, r3, r4, r6, r8, fp, lr}^
    61d4:	54505f54 	ldrbpl	r5, [r0], #-3924	; 0xfffff0ac
    61d8:	61762852 	cmnvs	r6, r2, asr r8
    61dc:	7b202972 	blvc	8107ac <_Min_Stack_Size+0x8103ac>
    61e0:	6d656d20 	stclvs	13, cr6, [r5, #-128]!	; 0xffffff80
    61e4:	28746573 	ldmdacs	r4!, {r0, r1, r4, r5, r6, r8, sl, sp, lr}^
    61e8:	72617628 	rsbvc	r7, r1, #40, 12	; 0x2800000
    61ec:	30202c29 	eorcc	r2, r0, r9, lsr #24
    61f0:	6973202c 	ldmdbvs	r3!, {r2, r3, r5, sp}^
    61f4:	666f657a 			; <UNDEFINED> instruction: 0x666f657a
    61f8:	76282a28 	strtvc	r2, [r8], -r8, lsr #20
    61fc:	29297261 	stmdbcs	r9!, {r0, r5, r6, r9, ip, sp, lr}
    6200:	5f203b29 	svcpl	0x00203b29
    6204:	4e454552 	mcrmi	5, 2, r4, cr5, cr2, {2}
    6208:	4e495f54 	mcrmi	15, 2, r5, cr9, cr4, {2}
    620c:	505f5449 	subspl	r5, pc, r9, asr #8
    6210:	5a5f5254 	bpl	17dab68 <_Min_Stack_Size+0x17da768>
    6214:	454f5245 	strbmi	r5, [pc, #-581]	; 5fd7 <_Min_Stack_Size+0x5bd7>
    6218:	61762844 	cmnvs	r6, r4, asr #16
    621c:	203b2972 	eorscs	r2, fp, r2, ror r9
    6220:	5f5f007d 	svcpl	0x005f007d
    6224:	59504f43 	ldmdbpl	r0, {r0, r1, r6, r8, r9, sl, fp, lr}^
    6228:	48474952 	stmdami	r7, {r1, r4, r6, r8, fp, lr}^
    622c:	29732854 	ldmdbcs	r3!, {r2, r4, r6, fp, sp}^
    6230:	72747320 	rsbsvc	r7, r4, #32, 6	; 0x80000000
    6234:	20746375 	rsbscs	r6, r4, r5, ror r3
    6238:	61685f5f 	cmnvs	r8, pc, asr pc
    623c:	5f006b63 	svcpl	0x00006b63
    6240:	5246555f 	subpl	r5, r6, #398458880	; 0x17c00000
    6244:	5f544341 	svcpl	0x00544341
    6248:	54494249 	strbpl	r4, [r9], #-585	; 0xfffffdb7
    624c:	30205f5f 	eorcc	r5, r0, pc, asr pc
    6250:	415f5f00 	cmpmi	pc, r0, lsl #30
    6254:	335f4d52 	cmpcc	pc, #5248	; 0x1480
    6258:	54494232 	strbpl	r4, [r9], #-562	; 0xfffffdce
    625c:	4154535f 	cmpmi	r4, pc, asr r3
    6260:	31204554 			; <UNDEFINED> instruction: 0x31204554
    6264:	495f5f00 	ldmdbmi	pc, {r8, r9, sl, fp, ip, lr}^	; <UNPREDICTABLE>
    6268:	5f38544e 	svcpl	0x0038544e
    626c:	29632843 	stmdbcs	r3!, {r0, r1, r6, fp, sp}^
    6270:	5f006320 	svcpl	0x00006320
    6274:	52464c5f 	subpl	r4, r6, #24320	; 0x5f00
    6278:	5f544341 	svcpl	0x00544341
    627c:	54494249 	strbpl	r4, [r9], #-585	; 0xfffffdb7
    6280:	30205f5f 	eorcc	r5, r0, pc, asr pc
    6284:	54535f00 	ldrbpl	r5, [r3], #-3840	; 0xfffff100
    6288:	46454444 	strbmi	r4, [r5], -r4, asr #8
    628c:	205f485f 	subscs	r4, pc, pc, asr r8	; <UNPREDICTABLE>
    6290:	49504700 	ldmdbmi	r0, {r8, r9, sl, lr}^
    6294:	50535f4f 	subspl	r5, r3, pc, asr #30
    6298:	5f444545 	svcpl	0x00444545
    629c:	204d3031 	subcs	r3, sp, r1, lsr r0
    62a0:	30307830 	eorscc	r7, r0, r0, lsr r8
    62a4:	30303030 	eorscc	r3, r0, r0, lsr r0
    62a8:	00753130 	rsbseq	r3, r5, r0, lsr r1
    62ac:	4f495047 	svcmi	0x00495047
    62b0:	28282043 	stmdacs	r8!, {r0, r1, r6, sp}
    62b4:	4f495047 	svcmi	0x00495047
    62b8:	7079545f 	rsbsvc	r5, r9, pc, asr r4
    62bc:	66656465 	strbtvs	r6, [r5], -r5, ror #8
    62c0:	2a20745f 	bcs	823444 <_Min_Stack_Size+0x823044>
    62c4:	49504729 	ldmdbmi	r0, {r0, r3, r5, r8, r9, sl, lr}^
    62c8:	425f434f 	subsmi	r4, pc, #1006632961	; 0x3c000001
    62cc:	29455341 	stmdbcs	r5, {r0, r6, r8, r9, ip, lr}^
    62d0:	445f5f00 	ldrbmi	r5, [pc], #-3840	; 62d8 <_Min_Stack_Size+0x5ed8>
    62d4:	4d5f4c42 	ldclmi	12, cr4, [pc, #-264]	; 61d4 <_Min_Stack_Size+0x5dd4>
    62d8:	455f4e49 	ldrbmi	r4, [pc, #-3657]	; 5497 <_Min_Stack_Size+0x5097>
    62dc:	5f5f5058 	svcpl	0x005f5058
    62e0:	312d2820 			; <UNDEFINED> instruction: 0x312d2820
    62e4:	29313230 	ldmdbcs	r1!, {r4, r5, r9, ip, sp}
    62e8:	535f5f00 	cmppl	pc, #0, 30
    62ec:	5f455a49 	svcpl	0x00455a49
    62f0:	45002054 	strmi	r2, [r0, #-84]	; 0xffffffac
    62f4:	31495458 	cmpcc	r9, r8, asr r4
    62f8:	20314250 	eorscs	r4, r1, r0, asr r2
    62fc:	54584528 	ldrbpl	r4, [r8], #-1320	; 0xfffffad8
    6300:	50475f49 	subpl	r5, r7, r9, asr #30
    6304:	4d5f4f49 	ldclmi	15, cr4, [pc, #-292]	; 61e8 <_Min_Stack_Size+0x5de8>
    6308:	69707061 	ldmdbvs	r0!, {r0, r5, r6, ip, sp, lr}^
    630c:	745f676e 	ldrbvc	r6, [pc], #-1902	; 6314 <_Min_Stack_Size+0x5f14>
    6310:	58457b29 	stmdapl	r5, {r0, r3, r5, r8, r9, fp, ip, sp, lr}^
    6314:	2c314954 			; <UNDEFINED> instruction: 0x2c314954
    6318:	49504720 	ldmdbmi	r0, {r5, r8, r9, sl, lr}^
    631c:	202c424f 	eorcs	r4, ip, pc, asr #4
    6320:	4f495047 	svcmi	0x00495047
    6324:	4e49505f 	mcrmi	0, 2, r5, cr9, cr15, {2}
    6328:	202c315f 	eorcs	r3, ip, pc, asr r1
    632c:	49545845 	ldmdbmi	r4, {r0, r2, r6, fp, ip, lr}^
    6330:	52495f31 	subpl	r5, r9, #49, 30	; 0xc4
    6334:	5f007d51 	svcpl	0x00007d51
    6338:	6972705f 	ldmdbvs	r2!, {r0, r1, r2, r3, r4, r6, ip, sp, lr}^
    633c:	3066746e 	rsbcc	r7, r6, lr, ror #8
    6340:	656b696c 	strbvs	r6, [fp, #-2412]!	; 0xfffff694
    6344:	746d6628 	strbtvc	r6, [sp], #-1576	; 0xfffff9d8
    6348:	2c677261 	sfmcs	f7, 2, [r7], #-388	; 0xfffffe7c
    634c:	73726966 	cmnvc	r2, #1671168	; 0x198000
    6350:	72617674 	rsbvc	r7, r1, #116, 12	; 0x7400000
    6354:	29677261 	stmdbcs	r7!, {r0, r5, r6, r9, ip, sp, lr}^
    6358:	50470020 	subpl	r0, r7, r0, lsr #32
    635c:	4d5f4f49 	ldclmi	15, cr4, [pc, #-292]	; 6240 <_Min_Stack_Size+0x5e40>
    6360:	5f45444f 	svcpl	0x0045444f
    6364:	5054554f 	subspl	r5, r4, pc, asr #10
    6368:	505f5455 	subspl	r5, pc, r5, asr r4	; <UNPREDICTABLE>
    636c:	78302050 	ldmdavc	r0!, {r4, r6, sp}
    6370:	30303030 	eorscc	r3, r0, r0, lsr r0
    6374:	34303030 	ldrtcc	r3, [r0], #-48	; 0xffffffd0
    6378:	465f5f00 	ldrbmi	r5, [pc], -r0, lsl #30
    637c:	3233544c 	eorscc	r5, r3, #76, 8	; 0x4c000000
    6380:	4749445f 	smlsldmi	r4, r9, pc, r4	; <UNPREDICTABLE>
    6384:	36205f5f 	qsaxcc	r5, r0, pc	; <UNPREDICTABLE>
    6388:	54584500 	ldrbpl	r4, [r8], #-1280	; 0xfffffb00
    638c:	41503649 	cmpmi	r0, r9, asr #12
    6390:	45282036 	strmi	r2, [r8, #-54]!	; 0xffffffca
    6394:	5f495458 	svcpl	0x00495458
    6398:	4f495047 	svcmi	0x00495047
    639c:	70614d5f 	rsbvc	r4, r1, pc, asr sp
    63a0:	676e6970 			; <UNDEFINED> instruction: 0x676e6970
    63a4:	7b29745f 	blvc	a63528 <_Min_Stack_Size+0xa63128>
    63a8:	49545845 	ldmdbmi	r4, {r0, r2, r6, fp, ip, lr}^
    63ac:	47202c36 			; <UNDEFINED> instruction: 0x47202c36
    63b0:	414f4950 	cmpmi	pc, r0, asr r9	; <UNPREDICTABLE>
    63b4:	5047202c 	subpl	r2, r7, ip, lsr #32
    63b8:	505f4f49 	subspl	r4, pc, r9, asr #30
    63bc:	365f4e49 	ldrbcc	r4, [pc], -r9, asr #28
    63c0:	5845202c 	stmdapl	r5, {r2, r3, r5, sp}^
    63c4:	5f364954 	svcpl	0x00364954
    63c8:	7d515249 	lfmvc	f5, 2, [r1, #-292]	; 0xfffffedc
    63cc:	645f5f00 	ldrbvs	r5, [pc], #-3840	; 63d4 <_Min_Stack_Size+0x5fd4>
    63d0:	32646165 	rsbcc	r6, r4, #1073741849	; 0x40000019
    63d4:	615f5f20 	cmpvs	pc, r0, lsr #30
    63d8:	69727474 	ldmdbvs	r2!, {r2, r4, r5, r6, sl, ip, sp, lr}^
    63dc:	65747562 	ldrbvs	r7, [r4, #-1378]!	; 0xfffffa9e
    63e0:	28285f5f 	stmdacs	r8!, {r0, r1, r2, r3, r4, r6, r8, r9, sl, fp, ip, lr}
    63e4:	6f6e5f5f 	svcvs	0x006e5f5f
    63e8:	75746572 	ldrbvc	r6, [r4, #-1394]!	; 0xfffffa8e
    63ec:	5f5f6e72 	svcpl	0x005f6e72
    63f0:	5f002929 	svcpl	0x00002929
    63f4:	6d6f635f 	stclvs	3, cr6, [pc, #-380]!	; 6280 <_Min_Stack_Size+0x5e80>
    63f8:	5f726170 	svcpl	0x00726170
    63fc:	745f6e66 	ldrbvc	r6, [pc], #-3686	; 6404 <_Min_Stack_Size+0x6004>
    6400:	6665645f 			; <UNDEFINED> instruction: 0x6665645f
    6404:	64656e69 	strbtvs	r6, [r5], #-3689	; 0xfffff197
    6408:	49550020 	ldmdbmi	r5, {r5}^
    640c:	414d544e 	cmpmi	sp, lr, asr #8
    6410:	28435f58 	stmdacs	r3, {r3, r4, r6, r8, r9, sl, fp, ip, lr}^
    6414:	5f202978 	svcpl	0x00202978
    6418:	4e49555f 	mcrmi	5, 2, r5, cr9, cr15, {2}
    641c:	58414d54 	stmdapl	r1, {r2, r4, r6, r8, sl, fp, lr}^
    6420:	7828435f 	stmdavc	r8!, {r0, r1, r2, r3, r4, r6, r8, r9, lr}
    6424:	5f5f0029 	svcpl	0x005f0029
    6428:	4353494d 	cmpmi	r3, #1261568	; 0x134000
    642c:	5349565f 	movtpl	r5, #38495	; 0x965f
    6430:	454c4249 	strbmi	r4, [ip, #-585]	; 0xfffffdb7
    6434:	5f003120 	svcpl	0x00003120
    6438:	5058455f 	subspl	r4, r8, pc, asr r5
    643c:	5f5f5f00 	svcpl	0x005f5f00
    6440:	36746e69 	ldrbtcc	r6, [r4], -r9, ror #28
    6444:	5f745f34 	svcpl	0x00745f34
    6448:	69666564 	stmdbvs	r6!, {r2, r5, r6, r8, sl, sp, lr}^
    644c:	2064656e 	rsbcs	r6, r4, lr, ror #10
    6450:	5f5f0031 	svcpl	0x005f0031
    6454:	4c42444c 	cfstrdmi	mvd4, [r2], {76}	; 0x4c
    6458:	5341485f 	movtpl	r4, #6239	; 0x185f
    645c:	4e45445f 	mcrmi	4, 2, r4, cr5, cr15, {2}
    6460:	5f4d524f 	svcpl	0x004d524f
    6464:	0031205f 	eorseq	r2, r1, pc, asr r0
    6468:	41485f5f 	cmpmi	r8, pc, asr pc
    646c:	535f4556 	cmppl	pc, #360710144	; 0x15800000
    6470:	55434550 	strbpl	r4, [r3, #-1360]	; 0xfffffab0
    6474:	4954414c 	ldmdbmi	r4, {r2, r3, r6, r8, lr}^
    6478:	535f4e4f 	cmppl	pc, #1264	; 0x4f0
    647c:	5f454641 	svcpl	0x00454641
    6480:	554c4156 	strbpl	r4, [ip, #-342]	; 0xfffffeaa
    6484:	00312045 	eorseq	r2, r1, r5, asr #32
    6488:	41535f5f 	cmpmi	r3, pc, asr pc
    648c:	4d554343 	ldclmi	3, cr4, [r5, #-268]	; 0xfffffef4
    6490:	4942465f 	stmdbmi	r2, {r0, r1, r2, r3, r4, r6, r9, sl, lr}^
    6494:	205f5f54 	subscs	r5, pc, r4, asr pc	; <UNPREDICTABLE>
    6498:	5f5f0037 	svcpl	0x005f0037
    649c:	5f434347 	svcpl	0x00434347
    64a0:	45564148 	ldrbmi	r4, [r6, #-328]	; 0xfffffeb8
    64a4:	4e59535f 	mrcmi	3, 2, r5, cr9, cr15, {2}
    64a8:	4f435f43 	svcmi	0x00435f43
    64ac:	5241504d 	subpl	r5, r1, #77	; 0x4d
    64b0:	4e415f45 	cdpmi	15, 4, cr5, cr1, cr5, {2}
    64b4:	57535f44 	ldrbpl	r5, [r3, -r4, asr #30]
    64b8:	345f5041 	ldrbcc	r5, [pc], #-65	; 64c0 <_Min_Stack_Size+0x60c0>
    64bc:	4e003120 	adfmisp	f3, f0, f0
    64c0:	5f434956 	svcpl	0x00434956
    64c4:	49545845 	ldmdbmi	r4, {r0, r2, r6, fp, ip, lr}^
    64c8:	52495f32 	subpl	r5, r9, #50, 30	; 0xc8
    64cc:	69445f51 	stmdbvs	r4, {r0, r4, r6, r8, r9, sl, fp, ip, lr}^
    64d0:	6c626173 	stfvse	f6, [r2], #-460	; 0xfffffe34
    64d4:	4e282065 	cdpmi	0, 2, cr2, cr8, cr5, {3}
    64d8:	5f434956 	svcpl	0x00434956
    64dc:	52454349 	subpl	r4, r5, #603979777	; 0x24000001
    64e0:	3d7c2030 	ldclcc	0, cr2, [ip, #-192]!	; 0xffffff40
    64e4:	3c3c3120 	ldfccs	f3, [ip], #-128	; 0xffffff80
    64e8:	41002938 	tstmi	r0, r8, lsr r9
    64ec:	52314250 	eorspl	r4, r1, #80, 4
    64f0:	00525453 	subseq	r5, r2, r3, asr r4
    64f4:	43415f5f 	movtmi	r5, #8031	; 0x1f5f
    64f8:	5f4d5543 	svcpl	0x004d5543
    64fc:	5f4e494d 	svcpl	0x004e494d
    6500:	2d28205f 	stccs	0, cr2, [r8, #-380]!	; 0xfffffe84
    6504:	50315830 	eorspl	r5, r1, r0, lsr r8
    6508:	2d4b3531 	cfstr64cs	mvdx3, [fp, #-196]	; 0xffffff3c
    650c:	50315830 	eorspl	r5, r1, r0, lsr r8
    6510:	294b3531 	stmdbcs	fp, {r0, r4, r5, r8, sl, ip, sp}^
    6514:	475f5f00 	ldrbmi	r5, [pc, -r0, lsl #30]
    6518:	5f43554e 	svcpl	0x0043554e
    651c:	4c5f4156 	ldfmie	f4, [pc], {86}	; 0x56
    6520:	5f545349 	svcpl	0x00545349
    6524:	504d4f43 	subpl	r4, sp, r3, asr #30
    6528:	42495441 	submi	r5, r9, #1090519040	; 0x41000000
    652c:	54494c49 	strbpl	r4, [r9], #-3145	; 0xfffff3b7
    6530:	00312059 	eorseq	r2, r1, r9, asr r0
    6534:	52415f5f 	subpl	r5, r1, #380	; 0x17c
    6538:	45465f4d 	strbmi	r5, [r6, #-3917]	; 0xfffff0b3
    653c:	52555441 	subspl	r5, r5, #1090519040	; 0x41000000
    6540:	52435f45 	subpl	r5, r3, #276	; 0x114
    6544:	4f545059 	svcmi	0x00545059
    6548:	535f5f00 	cmppl	pc, #0, 30
    654c:	4f455a49 	svcmi	0x00455a49
    6550:	43575f46 	cmpmi	r7, #280	; 0x118
    6554:	5f524148 	svcpl	0x00524148
    6558:	205f5f54 	subscs	r5, pc, r4, asr pc	; <UNPREDICTABLE>
    655c:	50410034 	subpl	r0, r1, r4, lsr r0
    6560:	4e453142 	dvfmism	f3, f5, f2
    6564:	58450052 	stmdapl	r5, {r1, r4, r6}^
    6568:	5f344954 	svcpl	0x00344954
    656c:	20515249 	subscs	r5, r1, r9, asr #4
    6570:	4e003031 	mcrmi	0, 0, r3, cr0, cr1, {1}
    6574:	5f434956 	svcpl	0x00434956
    6578:	49545845 	ldmdbmi	r4, {r0, r2, r6, fp, ip, lr}^
    657c:	52495f31 	subpl	r5, r9, #49, 30	; 0xc4
    6580:	69445f51 	stmdbvs	r4, {r0, r4, r6, r8, r9, sl, fp, ip, lr}^
    6584:	6c626173 	stfvse	f6, [r2], #-460	; 0xfffffe34
    6588:	4e282065 	cdpmi	0, 2, cr2, cr8, cr5, {3}
    658c:	5f434956 	svcpl	0x00434956
    6590:	52454349 	subpl	r4, r5, #603979777	; 0x24000001
    6594:	3d7c2030 	ldclcc	0, cr2, [ip, #-192]!	; 0xffffff40
    6598:	3c3c3120 	ldfccs	f3, [ip], #-128	; 0xffffff80
    659c:	45002937 	strmi	r2, [r0, #-2359]	; 0xfffff6c9
    65a0:	37495458 	smlsldcc	r5, r9, r8, r4
    65a4:	20374450 	eorscs	r4, r7, r0, asr r4
    65a8:	54584528 	ldrbpl	r4, [r8], #-1320	; 0xfffffad8
    65ac:	50475f49 	subpl	r5, r7, r9, asr #30
    65b0:	4d5f4f49 	ldclmi	15, cr4, [pc, #-292]	; 6494 <_Min_Stack_Size+0x6094>
    65b4:	69707061 	ldmdbvs	r0!, {r0, r5, r6, ip, sp, lr}^
    65b8:	745f676e 	ldrbvc	r6, [pc], #-1902	; 65c0 <_Min_Stack_Size+0x61c0>
    65bc:	58457b29 	stmdapl	r5, {r0, r3, r5, r8, r9, fp, ip, sp, lr}^
    65c0:	2c374954 			; <UNDEFINED> instruction: 0x2c374954
    65c4:	49504720 	ldmdbmi	r0, {r5, r8, r9, sl, lr}^
    65c8:	202c444f 	eorcs	r4, ip, pc, asr #8
    65cc:	4f495047 	svcmi	0x00495047
    65d0:	4e49505f 	mcrmi	0, 2, r5, cr9, cr15, {2}
    65d4:	202c375f 	eorcs	r3, ip, pc, asr r7
    65d8:	49545845 	ldmdbmi	r4, {r0, r2, r6, fp, ip, lr}^
    65dc:	52495f37 	subpl	r5, r9, #55, 30	; 0xdc
    65e0:	5f007d51 	svcpl	0x00007d51
    65e4:	4e49555f 	mcrmi	5, 2, r5, cr9, cr15, {2}
    65e8:	454c5f54 	strbmi	r5, [ip, #-3924]	; 0xfffff0ac
    65ec:	36545341 	ldrbcc	r5, [r4], -r1, asr #6
    65f0:	414d5f34 	cmpmi	sp, r4, lsr pc
    65f4:	205f5f58 	subscs	r5, pc, r8, asr pc	; <UNPREDICTABLE>
    65f8:	66667830 			; <UNDEFINED> instruction: 0x66667830
    65fc:	66666666 	strbtvs	r6, [r6], -r6, ror #12
    6600:	66666666 	strbtvs	r6, [r6], -r6, ror #12
    6604:	66666666 	strbtvs	r6, [r6], -r6, ror #12
    6608:	4c556666 	mrrcmi	6, 6, r6, r5, cr6
    660c:	5f5f004c 	svcpl	0x005f004c
    6610:	43415246 	movtmi	r5, #4678	; 0x1246
    6614:	42495f54 	submi	r5, r9, #84, 30	; 0x150
    6618:	5f5f5449 	svcpl	0x005f5449
    661c:	45003020 	strmi	r3, [r0, #-32]	; 0xffffffe0
    6620:	31495458 	cmpcc	r9, r8, asr r4
    6624:	52495f31 	subpl	r5, r9, #49, 30	; 0xc4
    6628:	30342051 	eorscc	r2, r4, r1, asr r0
    662c:	495f5f00 	ldmdbmi	pc, {r8, r9, sl, fp, ip, lr}^	; <UNPREDICTABLE>
    6630:	575f544e 	ldrbpl	r5, [pc, -lr, asr #8]
    6634:	48544449 	ldmdami	r4, {r0, r3, r6, sl, lr}^
    6638:	33205f5f 			; <UNDEFINED> instruction: 0x33205f5f
    663c:	5f5f0032 	svcpl	0x005f0032
    6640:	4c57454e 	cfldr64mi	mvdx4, [r7], {78}	; 0x4e
    6644:	505f4249 	subspl	r4, pc, r9, asr #4
    6648:	48435441 	stmdami	r3, {r0, r6, sl, ip, lr}^
    664c:	4556454c 	ldrbmi	r4, [r6, #-1356]	; 0xfffffab4
    6650:	205f5f4c 	subscs	r5, pc, ip, asr #30
    6654:	5f5f0030 	svcpl	0x005f0030
    6658:	6b636f6c 	blvs	18e2410 <_Min_Stack_Size+0x18e2010>
    665c:	7163615f 	cmnvc	r3, pc, asr r1
    6660:	65726975 	ldrbvs	r6, [r2, #-2421]!	; 0xfffff68b
    6664:	636f6c28 	cmnvs	pc, #40, 24	; 0x2800
    6668:	5f20296b 	svcpl	0x0020296b
    666c:	7465725f 	strbtvc	r7, [r5], #-607	; 0xfffffda1
    6670:	65677261 	strbvs	r7, [r7, #-609]!	; 0xfffffd9f
    6674:	6f6c5f74 	svcvs	0x006c5f74
    6678:	615f6b63 	cmpvs	pc, r3, ror #22
    667c:	69757163 	ldmdbvs	r5!, {r0, r1, r5, r6, r8, ip, sp, lr}^
    6680:	6c286572 	cfstr32vs	mvfx6, [r8], #-456	; 0xfffffe38
    6684:	296b636f 	stmdbcs	fp!, {r0, r1, r2, r3, r5, r6, r8, r9, sp, lr}^
    6688:	4f5f5f00 	svcmi	0x005f5f00
    668c:	52454452 	subpl	r4, r5, #1375731712	; 0x52000000
    6690:	54494c5f 	strbpl	r4, [r9], #-3167	; 0xfffff3a1
    6694:	5f454c54 	svcpl	0x00454c54
    6698:	49444e45 	stmdbmi	r4, {r0, r2, r6, r9, sl, fp, lr}^
    669c:	5f5f4e41 	svcpl	0x005f4e41
    66a0:	33323120 	teqcc	r2, #32, 2
    66a4:	5f5f0034 	svcpl	0x005f0034
    66a8:	657a6973 	ldrbvs	r6, [sl, #-2419]!	; 0xfffff68d
    66ac:	4500745f 	strmi	r7, [r0, #-1119]	; 0xfffffba1
    66b0:	31495458 	cmpcc	r9, r8, asr r4
    66b4:	31415033 	cmpcc	r1, r3, lsr r0
    66b8:	45282033 	strmi	r2, [r8, #-51]!	; 0xffffffcd
    66bc:	5f495458 	svcpl	0x00495458
    66c0:	4f495047 	svcmi	0x00495047
    66c4:	70614d5f 	rsbvc	r4, r1, pc, asr sp
    66c8:	676e6970 			; <UNDEFINED> instruction: 0x676e6970
    66cc:	7b29745f 	blvc	a63850 <_Min_Stack_Size+0xa63450>
    66d0:	49545845 	ldmdbmi	r4, {r0, r2, r6, fp, ip, lr}^
    66d4:	202c3331 	eorcs	r3, ip, r1, lsr r3
    66d8:	4f495047 	svcmi	0x00495047
    66dc:	47202c41 	strmi	r2, [r0, -r1, asr #24]!
    66e0:	5f4f4950 	svcpl	0x004f4950
    66e4:	5f4e4950 	svcpl	0x004e4950
    66e8:	202c3331 	eorcs	r3, ip, r1, lsr r3
    66ec:	49545845 	ldmdbmi	r4, {r0, r2, r6, fp, ip, lr}^
    66f0:	495f3331 	ldmdbmi	pc, {r0, r4, r5, r8, r9, ip, sp}^	; <UNPREDICTABLE>
    66f4:	007d5152 	rsbseq	r5, sp, r2, asr r1
    66f8:	4c465f5f 	mcrrmi	15, 5, r5, r6, cr15
    66fc:	4f4e5f54 	svcmi	0x004e5f54
    6700:	4d5f4d52 	ldclmi	13, cr4, [pc, #-328]	; 65c0 <_Min_Stack_Size+0x61c0>
    6704:	5f5f5841 	svcpl	0x005f5841
    6708:	342e3320 	strtcc	r3, [lr], #-800	; 0xfffffce0
    670c:	32383230 	eorscc	r3, r8, #48, 4
    6710:	36363433 			; <UNDEFINED> instruction: 0x36363433
    6714:	32353833 	eorscc	r3, r5, #3342336	; 0x330000
    6718:	65363838 	ldrvs	r3, [r6, #-2104]!	; 0xfffff7c8
    671c:	4638332b 	ldrtmi	r3, [r8], -fp, lsr #6
    6720:	445f5f00 	ldrbmi	r5, [pc], #-3840	; 6728 <_Min_Stack_Size+0x6328>
    6724:	2053544f 	subscs	r5, r3, pc, asr #8
    6728:	2e2e202c 	cdpcs	0, 2, cr2, cr14, cr12, {1}
    672c:	525f002e 	subspl	r0, pc, #46	; 0x2e
    6730:	544e4545 	strbpl	r4, [lr], #-1349	; 0xfffffabb
    6734:	5445475f 	strbpl	r4, [r5], #-1887	; 0xfffff8a1
    6738:	45544144 	ldrbmi	r4, [r4, #-324]	; 0xfffffebc
    673c:	5252455f 	subspl	r4, r2, #398458880	; 0x17c00000
    6740:	7028505f 	eorvc	r5, r8, pc, asr r0
    6744:	20297274 	eorcs	r7, r9, r4, ror r2
    6748:	28282628 	stmdacs	r8!, {r3, r5, r9, sl, sp}
    674c:	29727470 	ldmdbcs	r2!, {r4, r5, r6, sl, ip, sp, lr}^
    6750:	6d5f3e2d 	ldclvs	14, cr3, [pc, #-180]	; 66a4 <_Min_Stack_Size+0x62a4>
    6754:	2d637369 	stclcs	3, cr7, [r3, #-420]!	; 0xfffffe5c
    6758:	65675f3e 	strbvs	r5, [r7, #-3902]!	; 0xfffff0c2
    675c:	74616474 	strbtvc	r6, [r1], #-1140	; 0xfffffb8c
    6760:	72655f65 	rsbvc	r5, r5, #404	; 0x194
    6764:	00292972 	eoreq	r2, r9, r2, ror r9
    6768:	4c465f5f 	mcrrmi	15, 5, r5, r6, cr15
    676c:	494d5f54 	stmdbmi	sp, {r2, r4, r6, r8, r9, sl, fp, ip, lr}^
    6770:	30315f4e 	eorscc	r5, r1, lr, asr #30
    6774:	5058455f 	subspl	r4, r8, pc, asr r5
    6778:	28205f5f 	stmdacs	r0!, {r0, r1, r2, r3, r4, r6, r8, r9, sl, fp, ip, lr}
    677c:	2937332d 	ldmdbcs	r7!, {r0, r2, r3, r5, r8, r9, ip, sp}
    6780:	555f5f00 	ldrbpl	r5, [pc, #-3840]	; 5888 <_Min_Stack_Size+0x5488>
    6784:	4343414c 	movtmi	r4, #12620	; 0x314c
    6788:	495f4d55 	ldmdbmi	pc, {r0, r2, r4, r6, r8, sl, fp, lr}^	; <UNPREDICTABLE>
    678c:	5f544942 	svcpl	0x00544942
    6790:	3233205f 	eorscc	r2, r3, #95	; 0x5f
    6794:	535f5f00 	cmppl	pc, #0, 30
    6798:	5f545248 	svcpl	0x00545248
    679c:	5f58414d 	svcpl	0x0058414d
    67a0:	7830205f 	ldmdavc	r0!, {r0, r1, r2, r3, r4, r6, sp}
    67a4:	66666637 			; <UNDEFINED> instruction: 0x66666637
    67a8:	4e495500 	cdpmi	5, 4, cr5, cr9, cr0, {0}
    67ac:	41465f54 	cmpmi	r6, r4, asr pc
    67b0:	5f385453 	svcpl	0x00385453
    67b4:	2058414d 	subscs	r4, r8, sp, asr #2
    67b8:	555f5f28 	ldrbpl	r5, [pc, #-3880]	; 5898 <_Min_Stack_Size+0x5498>
    67bc:	5f544e49 	svcpl	0x00544e49
    67c0:	54534146 	ldrbpl	r4, [r3], #-326	; 0xfffffeba
    67c4:	414d5f38 	cmpmi	sp, r8, lsr pc
    67c8:	295f5f58 	ldmdbcs	pc, {r3, r4, r6, r8, r9, sl, fp, ip, lr}^	; <UNPREDICTABLE>
    67cc:	505f5f00 	subspl	r5, pc, r0, lsl #30
    67d0:	49445254 	stmdbmi	r4, {r2, r4, r6, r9, ip, lr}^
    67d4:	545f4646 	ldrbpl	r4, [pc], #-1606	; 67dc <_Min_Stack_Size+0x63dc>
    67d8:	5f455059 	svcpl	0x00455059
    67dc:	6e69205f 	mcrvs	0, 3, r2, cr9, cr15, {2}
    67e0:	535f0074 	cmppl	pc, #116	; 0x74
    67e4:	5f455a49 	svcpl	0x00455a49
    67e8:	45445f54 	strbmi	r5, [r4, #-3924]	; 0xfffff0ac
    67ec:	454e4946 	strbmi	r4, [lr, #-2374]	; 0xfffff6ba
    67f0:	5f002044 	svcpl	0x00002044
    67f4:	5f51445f 	svcpl	0x0051445f
    67f8:	54494246 	strbpl	r4, [r9], #-582	; 0xfffffdba
    67fc:	36205f5f 	qsaxcc	r5, r0, pc	; <UNPREDICTABLE>
    6800:	5f5f0033 	svcpl	0x005f0033
    6804:	5f554e47 	svcpl	0x00554e47
    6808:	49534956 	ldmdbmi	r3, {r1, r2, r4, r6, r8, fp, lr}^
    680c:	20454c42 	subcs	r4, r5, r2, asr #24
    6810:	58450030 	stmdapl	r5, {r4, r5}^
    6814:	50374954 	eorspl	r4, r7, r4, asr r9
    6818:	28203741 	stmdacs	r0!, {r0, r6, r8, r9, sl, ip, sp}
    681c:	49545845 	ldmdbmi	r4, {r0, r2, r6, fp, ip, lr}^
    6820:	4950475f 	ldmdbmi	r0, {r0, r1, r2, r3, r4, r6, r8, r9, sl, lr}^
    6824:	614d5f4f 	cmpvs	sp, pc, asr #30
    6828:	6e697070 	mcrvs	0, 3, r7, cr9, cr0, {3}
    682c:	29745f67 	ldmdbcs	r4!, {r0, r1, r2, r5, r6, r8, r9, sl, fp, ip, lr}^
    6830:	5458457b 	ldrbpl	r4, [r8], #-1403	; 0xfffffa85
    6834:	202c3749 	eorcs	r3, ip, r9, asr #14
    6838:	4f495047 	svcmi	0x00495047
    683c:	47202c41 	strmi	r2, [r0, -r1, asr #24]!
    6840:	5f4f4950 	svcpl	0x004f4950
    6844:	5f4e4950 	svcpl	0x004e4950
    6848:	45202c37 	strmi	r2, [r0, #-3127]!	; 0xfffff3c9
    684c:	37495458 	smlsldcc	r5, r9, r8, r4
    6850:	5152495f 	cmppl	r2, pc, asr r9
    6854:	5f5f007d 	svcpl	0x005f007d
    6858:	43434153 	movtmi	r4, #12627	; 0x3153
    685c:	495f4d55 	ldmdbmi	pc, {r0, r2, r4, r6, r8, sl, fp, lr}^	; <UNPREDICTABLE>
    6860:	5f544942 	svcpl	0x00544942
    6864:	0038205f 	eorseq	r2, r8, pc, asr r0
    6868:	54505f5f 	ldrbpl	r5, [r0], #-3935	; 0xfffff0a1
    686c:	46494452 			; <UNDEFINED> instruction: 0x46494452
    6870:	20545f46 	subscs	r5, r4, r6, asr #30
    6874:	555f5f00 	ldrbpl	r5, [pc, #-3840]	; 597c <_Min_Stack_Size+0x557c>
    6878:	495f5148 	ldmdbmi	pc, {r3, r6, r8, ip, lr}^	; <UNPREDICTABLE>
    687c:	5f544942 	svcpl	0x00544942
    6880:	0030205f 	eorseq	r2, r0, pc, asr r0
    6884:	4e495f5f 	mcrmi	15, 2, r5, cr9, cr15, {2}
    6888:	41465f54 	cmpmi	r6, r4, asr pc
    688c:	36315453 			; <UNDEFINED> instruction: 0x36315453
    6890:	5059545f 	subspl	r5, r9, pc, asr r4
    6894:	205f5f45 	subscs	r5, pc, r5, asr #30
    6898:	00746e69 	rsbseq	r6, r4, r9, ror #28
    689c:	4e49555f 	mcrmi	5, 2, r5, cr9, cr15, {2}
    68a0:	58414d54 	stmdapl	r1, {r2, r4, r6, r8, sl, fp, lr}^
    68a4:	445f545f 	ldrbmi	r5, [pc], #-1119	; 68ac <_Min_Stack_Size+0x64ac>
    68a8:	414c4345 	cmpmi	ip, r5, asr #6
    68ac:	20444552 	subcs	r4, r4, r2, asr r5
    68b0:	535f5f00 	cmppl	pc, #0, 30
    68b4:	415f4749 	cmpmi	pc, r9, asr #14
    68b8:	494d4f54 	stmdbmi	sp, {r2, r4, r6, r8, r9, sl, fp, lr}^
    68bc:	59545f43 	ldmdbpl	r4, {r0, r1, r6, r8, r9, sl, fp, ip, lr}^
    68c0:	5f5f4550 	svcpl	0x005f4550
    68c4:	746e6920 	strbtvc	r6, [lr], #-2336	; 0xfffff6e0
    68c8:	535f5f00 	cmppl	pc, #0, 30
    68cc:	55434341 	strbpl	r4, [r3, #-833]	; 0xfffffcbf
    68d0:	494d5f4d 	stmdbmi	sp, {r0, r2, r3, r6, r8, r9, sl, fp, ip, lr}^
    68d4:	205f5f4e 	subscs	r5, pc, lr, asr #30
    68d8:	58302d28 	ldmdapl	r0!, {r3, r5, r8, sl, fp, sp}
    68dc:	48375031 	ldmdami	r7!, {r0, r4, r5, ip, lr}
    68e0:	58302d4b 	ldmdapl	r0!, {r0, r1, r3, r6, r8, sl, fp, sp}
    68e4:	48375031 	ldmdami	r7!, {r0, r4, r5, ip, lr}
    68e8:	5f00294b 	svcpl	0x0000294b
    68ec:	464c555f 			; <UNDEFINED> instruction: 0x464c555f
    68f0:	54434152 	strbpl	r4, [r3], #-338	; 0xfffffeae
    68f4:	58414d5f 	stmdapl	r1, {r0, r1, r2, r3, r4, r6, r8, sl, fp, lr}^
    68f8:	30205f5f 	eorcc	r5, r0, pc, asr pc
    68fc:	46464658 			; <UNDEFINED> instruction: 0x46464658
    6900:	46464646 	strbmi	r4, [r6], -r6, asr #12
    6904:	332d5046 			; <UNDEFINED> instruction: 0x332d5046
    6908:	524c5532 	subpl	r5, ip, #209715200	; 0xc800000
    690c:	555f5f00 	ldrbpl	r5, [pc, #-3840]	; 5a14 <_Min_Stack_Size+0x5614>
    6910:	5f544e49 	svcpl	0x00544e49
    6914:	5341454c 	movtpl	r4, #5452	; 0x154c
    6918:	5f363154 	svcpl	0x00363154
    691c:	45505954 	ldrbmi	r5, [r0, #-2388]	; 0xfffff6ac
    6920:	73205f5f 			; <UNDEFINED> instruction: 0x73205f5f
    6924:	74726f68 	ldrbtvc	r6, [r2], #-3944	; 0xfffff098
    6928:	736e7520 	cmnvc	lr, #32, 10	; 0x8000000
    692c:	656e6769 	strbvs	r6, [lr, #-1897]!	; 0xfffff897
    6930:	6e692064 	cdpvs	0, 6, cr2, cr9, cr4, {3}
    6934:	5f5f0074 	svcpl	0x005f0074
    6938:	5f4d5241 	svcpl	0x004d5241
    693c:	54414546 	strbpl	r4, [r1], #-1350	; 0xfffffaba
    6940:	5f455255 	svcpl	0x00455255
    6944:	00414d46 	subeq	r4, r1, r6, asr #26
    6948:	414c5f5f 	cmpmi	ip, pc, asr pc
    694c:	4d554343 	ldclmi	3, cr4, [r5, #-268]	; 0xfffffef4
    6950:	58414d5f 	stmdapl	r1, {r0, r1, r2, r3, r4, r6, r8, sl, fp, lr}^
    6954:	30205f5f 	eorcc	r5, r0, pc, asr pc
    6958:	46463758 			; <UNDEFINED> instruction: 0x46463758
    695c:	46464646 	strbmi	r4, [r6], -r6, asr #12
    6960:	46464646 	strbmi	r4, [r6], -r6, asr #12
    6964:	46464646 	strbmi	r4, [r6], -r6, asr #12
    6968:	332d5046 			; <UNDEFINED> instruction: 0x332d5046
    696c:	004b4c31 	subeq	r4, fp, r1, lsr ip
    6970:	48435f5f 	stmdami	r3, {r0, r1, r2, r3, r4, r6, r8, r9, sl, fp, ip, lr}^
    6974:	36315241 	ldrtcc	r5, [r1], -r1, asr #4
    6978:	5059545f 	subspl	r5, r9, pc, asr r4
    697c:	205f5f45 	subscs	r5, pc, r5, asr #30
    6980:	726f6873 	rsbvc	r6, pc, #7536640	; 0x730000
    6984:	6e752074 	mrcvs	0, 3, r2, cr5, cr4, {3}
    6988:	6e676973 			; <UNDEFINED> instruction: 0x6e676973
    698c:	69206465 	stmdbvs	r0!, {r0, r2, r5, r6, sl, sp, lr}
    6990:	4500746e 	strmi	r7, [r0, #-1134]	; 0xfffffb92
    6994:	31495458 	cmpcc	r9, r8, asr r4
    6998:	31415031 	cmpcc	r1, r1, lsr r0
    699c:	45282031 	strmi	r2, [r8, #-49]!	; 0xffffffcf
    69a0:	5f495458 	svcpl	0x00495458
    69a4:	4f495047 	svcmi	0x00495047
    69a8:	70614d5f 	rsbvc	r4, r1, pc, asr sp
    69ac:	676e6970 			; <UNDEFINED> instruction: 0x676e6970
    69b0:	7b29745f 	blvc	a63b34 <_Min_Stack_Size+0xa63734>
    69b4:	49545845 	ldmdbmi	r4, {r0, r2, r6, fp, ip, lr}^
    69b8:	202c3131 	eorcs	r3, ip, r1, lsr r1
    69bc:	4f495047 	svcmi	0x00495047
    69c0:	47202c41 	strmi	r2, [r0, -r1, asr #24]!
    69c4:	5f4f4950 	svcpl	0x004f4950
    69c8:	5f4e4950 	svcpl	0x004e4950
    69cc:	202c3131 	eorcs	r3, ip, r1, lsr r1
    69d0:	49545845 	ldmdbmi	r4, {r0, r2, r6, fp, ip, lr}^
    69d4:	495f3131 	ldmdbmi	pc, {r0, r4, r5, r8, ip, sp}^	; <UNPREDICTABLE>
    69d8:	007d5152 	rsbseq	r5, sp, r2, asr r1
    69dc:	4f495047 	svcmi	0x00495047
    69e0:	726f505f 	rsbvc	r5, pc, #95	; 0x5f
    69e4:	5f5f0074 	svcpl	0x005f0074
    69e8:	33544c46 	cmpcc	r4, #17920	; 0x4600
    69ec:	445f5832 	ldrbmi	r5, [pc], #-2098	; 69f4 <_Min_Stack_Size+0x65f4>
    69f0:	5f5f4749 	svcpl	0x005f4749
    69f4:	00353120 	eorseq	r3, r5, r0, lsr #2
    69f8:	69735f5f 	ldmdbvs	r3!, {r0, r1, r2, r3, r4, r6, r8, r9, sl, fp, ip, lr}^
    69fc:	64656e67 	strbtvs	r6, [r5], #-3687	; 0xfffff199
    6a00:	67697320 	strbvs	r7, [r9, -r0, lsr #6]!
    6a04:	0064656e 	rsbeq	r6, r4, lr, ror #10
    6a08:	54555f5f 	ldrbpl	r5, [r5], #-3935	; 0xfffff0a1
    6a0c:	42465f51 	submi	r5, r6, #324	; 0x144
    6a10:	5f5f5449 	svcpl	0x005f5449
    6a14:	38323120 	ldmdacc	r2!, {r5, r8, ip, sp}
    6a18:	4c5f5f00 	mrrcmi	15, 0, r5, pc, cr0	; <UNPREDICTABLE>
    6a1c:	4343414c 	movtmi	r4, #12620	; 0x314c
    6a20:	455f4d55 	ldrbmi	r4, [pc, #-3413]	; 5cd3 <_Min_Stack_Size+0x58d3>
    6a24:	4c495350 	mcrrmi	3, 5, r5, r9, cr0
    6a28:	5f5f4e4f 	svcpl	0x005f4e4f
    6a2c:	31783020 	cmncc	r8, r0, lsr #32
    6a30:	31332d50 	teqcc	r3, r0, asr sp
    6a34:	004b4c4c 	subeq	r4, fp, ip, asr #24
    6a38:	49465f5f 	stmdbmi	r6, {r0, r1, r2, r3, r4, r6, r8, r9, sl, fp, ip, lr}^
    6a3c:	4554494e 	ldrbmi	r4, [r4, #-2382]	; 0xfffff6b2
    6a40:	54414d5f 	strbpl	r4, [r1], #-3423	; 0xfffff2a1
    6a44:	4e4f5f48 	cdpmi	15, 4, cr5, cr15, cr8, {2}
    6a48:	5f5f594c 	svcpl	0x005f594c
    6a4c:	5f003020 	svcpl	0x00003020
    6a50:	544e495f 	strbpl	r4, [lr], #-2399	; 0xfffff6a1
    6a54:	5341465f 	movtpl	r4, #5727	; 0x165f
    6a58:	5f363154 	svcpl	0x00363154
    6a5c:	5f58414d 	svcpl	0x0058414d
    6a60:	7830205f 	ldmdavc	r0!, {r0, r1, r2, r3, r4, r6, sp}
    6a64:	66666637 			; <UNDEFINED> instruction: 0x66666637
    6a68:	66666666 	strbtvs	r6, [r6], -r6, ror #12
    6a6c:	685f5f00 	ldmdavs	pc, {r8, r9, sl, fp, ip, lr}^	; <UNPREDICTABLE>
    6a70:	5f657661 	svcpl	0x00657661
    6a74:	676e6f6c 	strbvs	r6, [lr, -ip, ror #30]!
    6a78:	676e6f6c 	strbvs	r6, [lr, -ip, ror #30]!
    6a7c:	31203436 			; <UNDEFINED> instruction: 0x31203436
    6a80:	49555f00 	ldmdbmi	r5, {r8, r9, sl, fp, ip, lr}^
    6a84:	5f38544e 	svcpl	0x0038544e
    6a88:	45445f54 	strbmi	r5, [r4, #-3924]	; 0xfffff0ac
    6a8c:	52414c43 	subpl	r4, r1, #17152	; 0x4300
    6a90:	00204445 	eoreq	r4, r0, r5, asr #8
    6a94:	4f495047 	svcmi	0x00495047
    6a98:	4e49505f 	mcrmi	0, 2, r5, cr9, cr15, {2}
    6a9c:	49564e00 	ldmdbmi	r6, {r9, sl, fp, lr}^
    6aa0:	58455f43 	stmdapl	r5, {r0, r1, r6, r8, r9, sl, fp, ip, lr}^
    6aa4:	35314954 	ldrcc	r4, [r1, #-2388]!	; 0xfffff6ac
    6aa8:	5f30315f 	svcpl	0x0030315f
    6aac:	5f515249 	svcpl	0x00515249
    6ab0:	61736944 	cmnvs	r3, r4, asr #18
    6ab4:	20656c62 	rsbcs	r6, r5, r2, ror #24
    6ab8:	49564e28 	ldmdbmi	r6, {r3, r5, r9, sl, fp, lr}^
    6abc:	43495f43 	movtmi	r5, #40771	; 0x9f43
    6ac0:	20315245 	eorscs	r5, r1, r5, asr #4
    6ac4:	31203d7c 			; <UNDEFINED> instruction: 0x31203d7c
    6ac8:	29383c3c 	ldmdbcs	r8!, {r2, r3, r4, r5, sl, fp, ip, sp}
    6acc:	6c5f5f00 	mrrcvs	15, 0, r5, pc, cr0	; <UNPREDICTABLE>
    6ad0:	5f6b636f 	svcpl	0x006b636f
    6ad4:	5f797274 	svcpl	0x00797274
    6ad8:	75716361 	ldrbvc	r6, [r1, #-865]!	; 0xfffffc9f
    6adc:	28657269 	stmdacs	r5!, {r0, r3, r5, r6, r9, ip, sp, lr}^
    6ae0:	6b636f6c 	blvs	18e2898 <_Min_Stack_Size+0x18e2498>
    6ae4:	5f5f2029 	svcpl	0x005f2029
    6ae8:	61746572 	cmnvs	r4, r2, ror r5
    6aec:	74656772 	strbtvc	r6, [r5], #-1906	; 0xfffff88e
    6af0:	636f6c5f 	cmnvs	pc, #24320	; 0x5f00
    6af4:	72745f6b 	rsbsvc	r5, r4, #428	; 0x1ac
    6af8:	63615f79 	cmnvs	r1, #484	; 0x1e4
    6afc:	72697571 	rsbvc	r7, r9, #473956352	; 0x1c400000
    6b00:	6f6c2865 	svcvs	0x006c2865
    6b04:	00296b63 	eoreq	r6, r9, r3, ror #22
    6b08:	4e49555f 	mcrmi	5, 2, r5, cr9, cr15, {2}
    6b0c:	52545054 	subspl	r5, r4, #84	; 0x54
    6b10:	445f545f 	ldrbmi	r5, [pc], #-1119	; 6b18 <_Min_Stack_Size+0x6718>
    6b14:	414c4345 	cmpmi	ip, r5, asr #6
    6b18:	20444552 	subcs	r4, r4, r2, asr r5
    6b1c:	49564e00 	ldmdbmi	r6, {r9, sl, fp, lr}^
    6b20:	58455f43 	stmdapl	r5, {r0, r1, r6, r8, r9, sl, fp, ip, lr}^
    6b24:	5f304954 	svcpl	0x00304954
    6b28:	5f515249 	svcpl	0x00515249
    6b2c:	62616e45 	rsbvs	r6, r1, #1104	; 0x450
    6b30:	2820656c 	stmdacs	r0!, {r2, r3, r5, r6, r8, sl, sp, lr}
    6b34:	4349564e 	movtmi	r5, #38478	; 0x964e
    6b38:	4553495f 	ldrbmi	r4, [r3, #-2399]	; 0xfffff6a1
    6b3c:	7c203052 	stcvc	0, cr3, [r0], #-328	; 0xfffffeb8
    6b40:	3c31203d 	ldccc	0, cr2, [r1], #-244	; 0xffffff0c
    6b44:	0029363c 	eoreq	r3, r9, ip, lsr r6
    6b48:	49545845 	ldmdbmi	r4, {r0, r2, r6, fp, ip, lr}^
    6b4c:	495f3531 	ldmdbmi	pc, {r0, r4, r5, r8, sl, ip, sp}^	; <UNPREDICTABLE>
    6b50:	34205152 	strtcc	r5, [r0], #-338	; 0xfffffeae
    6b54:	58450030 	stmdapl	r5, {r4, r5}^
    6b58:	50304954 	eorspl	r4, r0, r4, asr r9
    6b5c:	28203041 	stmdacs	r0!, {r0, r6, ip, sp}
    6b60:	49545845 	ldmdbmi	r4, {r0, r2, r6, fp, ip, lr}^
    6b64:	4950475f 	ldmdbmi	r0, {r0, r1, r2, r3, r4, r6, r8, r9, sl, lr}^
    6b68:	614d5f4f 	cmpvs	sp, pc, asr #30
    6b6c:	6e697070 	mcrvs	0, 3, r7, cr9, cr0, {3}
    6b70:	29745f67 	ldmdbcs	r4!, {r0, r1, r2, r5, r6, r8, r9, sl, fp, ip, lr}^
    6b74:	5458457b 	ldrbpl	r4, [r8], #-1403	; 0xfffffa85
    6b78:	202c3049 	eorcs	r3, ip, r9, asr #32
    6b7c:	4f495047 	svcmi	0x00495047
    6b80:	47202c41 	strmi	r2, [r0, -r1, asr #24]!
    6b84:	5f4f4950 	svcpl	0x004f4950
    6b88:	5f4e4950 	svcpl	0x004e4950
    6b8c:	45202c30 	strmi	r2, [r0, #-3120]!	; 0xfffff3d0
    6b90:	30495458 	subcc	r5, r9, r8, asr r4
    6b94:	5152495f 	cmppl	r2, pc, asr r9
    6b98:	575f007d 			; <UNDEFINED> instruction: 0x575f007d
    6b9c:	52414843 	subpl	r4, r1, #4390912	; 0x430000
    6ba0:	445f545f 	ldrbmi	r5, [pc], #-1119	; 6ba8 <_Min_Stack_Size+0x67a8>
    6ba4:	4e494645 	cdpmi	6, 4, cr4, cr9, cr5, {2}
    6ba8:	00204445 	eoreq	r4, r0, r5, asr #8
    6bac:	4c555f5f 	mrrcmi	15, 5, r5, r5, cr15	; <UNPREDICTABLE>
    6bb0:	55434341 	strbpl	r4, [r3, #-833]	; 0xfffffcbf
    6bb4:	414d5f4d 	cmpmi	sp, sp, asr #30
    6bb8:	205f5f58 	subscs	r5, pc, r8, asr pc	; <UNPREDICTABLE>
    6bbc:	46465830 			; <UNDEFINED> instruction: 0x46465830
    6bc0:	46464646 	strbmi	r4, [r6], -r6, asr #12
    6bc4:	46464646 	strbmi	r4, [r6], -r6, asr #12
    6bc8:	46464646 	strbmi	r4, [r6], -r6, asr #12
    6bcc:	2d504646 	ldclcs	6, cr4, [r0, #-280]	; 0xfffffee8
    6bd0:	4c553233 	lfmmi	f3, 2, [r5], {51}	; 0x33
    6bd4:	5f5f004b 	svcpl	0x005f004b
    6bd8:	6c797274 	lfmvs	f7, 2, [r9], #-464	; 0xfffffe30
    6bdc:	736b636f 	cmnvc	fp, #-1140850687	; 0xbc000001
    6be0:	6378655f 	cmnvs	r8, #398458880	; 0x17c00000
    6be4:	6973756c 	ldmdbvs	r3!, {r2, r3, r5, r6, r8, sl, ip, sp, lr}^
    6be8:	2e286576 	mcrcs	5, 1, r6, cr8, cr6, {3}
    6bec:	20292e2e 	eorcs	r2, r9, lr, lsr #28
    6bf0:	6f6c5f5f 	svcvs	0x006c5f5f
    6bf4:	615f6b63 	cmpvs	pc, r3, ror #22
    6bf8:	746f6e6e 	strbtvc	r6, [pc], #-3694	; 6c00 <_Min_Stack_Size+0x6800>
    6bfc:	28657461 	stmdacs	r5!, {r0, r5, r6, sl, ip, sp, lr}^
    6c00:	6c637865 	stclvs	8, cr7, [r3], #-404	; 0xfffffe6c
    6c04:	76697375 			; <UNDEFINED> instruction: 0x76697375
    6c08:	72745f65 	rsbsvc	r5, r4, #404	; 0x194
    6c0c:	636f6c79 	cmnvs	pc, #30976	; 0x7900
    6c10:	75665f6b 	strbvc	r5, [r6, #-3947]!	; 0xfffff095
    6c14:	6974636e 	ldmdbvs	r4!, {r1, r2, r3, r5, r6, r8, r9, sp, lr}^
    6c18:	5f286e6f 	svcpl	0x00286e6f
    6c1c:	5f41565f 	svcpl	0x0041565f
    6c20:	53475241 	movtpl	r5, #29249	; 0x7241
    6c24:	29295f5f 	stmdbcs	r9!, {r0, r1, r2, r3, r4, r6, r8, r9, sl, fp, ip, lr}
    6c28:	49504700 	ldmdbmi	r0, {r8, r9, sl, lr}^
    6c2c:	49505f4f 	ldmdbmi	r0, {r0, r1, r2, r3, r6, r8, r9, sl, fp, ip, lr}^
    6c30:	35315f4e 	ldrcc	r5, [r1, #-3918]!	; 0xfffff0b2
    6c34:	75282820 	strvc	r2, [r8, #-2080]!	; 0xfffff7e0
    6c38:	31746e69 	cmncc	r4, r9, ror #28
    6c3c:	29745f36 	ldmdbcs	r4!, {r1, r2, r4, r5, r8, r9, sl, fp, ip, lr}^
    6c40:	38783020 	ldmdacc	r8!, {r5, ip, sp}^
    6c44:	29303030 	ldmdbcs	r0!, {r4, r5, ip, sp}
    6c48:	45525f00 	ldrbmi	r5, [r2, #-3840]	; 0xfffff100
    6c4c:	5f544e45 	svcpl	0x00544e45
    6c50:	444e4152 	strbmi	r4, [lr], #-338	; 0xfffffeae
    6c54:	58454e5f 	stmdapl	r5, {r0, r1, r2, r3, r4, r6, r9, sl, fp, lr}^
    6c58:	74702854 	ldrbtvc	r2, [r0], #-2132	; 0xfffff7ac
    6c5c:	28202972 	stmdacs	r0!, {r1, r4, r5, r6, r8, fp, sp}
    6c60:	72747028 	rsbsvc	r7, r4, #40	; 0x28
    6c64:	5f3e2d29 	svcpl	0x003e2d29
    6c68:	2d383472 	cfldrscs	mvf3, [r8, #-456]!	; 0xfffffe38
    6c6c:	61725f3e 	cmnvs	r2, lr, lsr pc
    6c70:	6e5f646e 	cdpvs	4, 5, cr6, cr15, cr14, {3}
    6c74:	29747865 	ldmdbcs	r4!, {r0, r2, r5, r6, fp, ip, sp, lr}^
    6c78:	54584500 	ldrbpl	r4, [r8], #-1280	; 0xfffffb00
    6c7c:	495f3049 	ldmdbmi	pc, {r0, r3, r6, ip, sp}^	; <UNPREDICTABLE>
    6c80:	36205152 			; <UNDEFINED> instruction: 0x36205152
    6c84:	555f5f00 	ldrbpl	r5, [pc, #-3840]	; 5d8c <_Min_Stack_Size+0x598c>
    6c88:	4152464c 	cmpmi	r2, ip, asr #12
    6c8c:	4d5f5443 	cfldrdmi	mvd5, [pc, #-268]	; 6b88 <_Min_Stack_Size+0x6788>
    6c90:	5f5f4e49 	svcpl	0x005f4e49
    6c94:	302e3020 	eorcc	r3, lr, r0, lsr #32
    6c98:	00524c55 	subseq	r4, r2, r5, asr ip
    6c9c:	455a4953 	ldrbmi	r4, [sl, #-2387]	; 0xfffff6ad
    6ca0:	58414d5f 	stmdapl	r1, {r0, r1, r2, r3, r4, r6, r8, sl, fp, lr}^
    6ca4:	5f5f2820 	svcpl	0x005f2820
    6ca8:	455a4953 	ldrbmi	r4, [sl, #-2387]	; 0xfffff6ad
    6cac:	58414d5f 	stmdapl	r1, {r0, r1, r2, r3, r4, r6, r8, sl, fp, lr}^
    6cb0:	00295f5f 	eoreq	r5, r9, pc, asr pc
    6cb4:	51445f5f 	cmppl	r4, pc, asr pc
    6cb8:	4942495f 	stmdbmi	r2, {r0, r1, r2, r3, r4, r6, r8, fp, lr}^
    6cbc:	205f5f54 	subscs	r5, pc, r4, asr pc	; <UNPREDICTABLE>
    6cc0:	5f5f0030 	svcpl	0x005f0030
    6cc4:	5f4d5241 	svcpl	0x004d5241
    6cc8:	36314642 	ldrtcc	r4, [r1], -r2, asr #12
    6ccc:	524f465f 	subpl	r4, pc, #99614720	; 0x5f00000
    6cd0:	5f54414d 	svcpl	0x0054414d
    6cd4:	45544c41 	ldrbmi	r4, [r4, #-3137]	; 0xfffff3bf
    6cd8:	54414e52 	strbpl	r4, [r1], #-3666	; 0xfffff1ae
    6cdc:	00455649 	subeq	r5, r5, r9, asr #12
    6ce0:	4e495f5f 	mcrmi	15, 2, r5, cr9, cr15, {2}
    6ce4:	5f323354 	svcpl	0x00323354
    6ce8:	45505954 	ldrbmi	r5, [r0, #-2388]	; 0xfffff6ac
    6cec:	6c205f5f 	stcvs	15, cr5, [r0], #-380	; 0xfffffe84
    6cf0:	20676e6f 	rsbcs	r6, r7, pc, ror #28
    6cf4:	00746e69 	rsbseq	r6, r4, r9, ror #28
    6cf8:	49555f5f 	ldmdbmi	r5, {r0, r1, r2, r3, r4, r6, r8, r9, sl, fp, ip, lr}^
    6cfc:	4c5f544e 	cfldrdmi	mvd5, [pc], {78}	; 0x4e
    6d00:	54534145 	ldrbpl	r4, [r3], #-325	; 0xfffffebb
    6d04:	414d5f38 	cmpmi	sp, r8, lsr pc
    6d08:	205f5f58 	subscs	r5, pc, r8, asr pc	; <UNPREDICTABLE>
    6d0c:	66667830 			; <UNDEFINED> instruction: 0x66667830
    6d10:	54415f00 	strbpl	r5, [r1], #-3840	; 0xfffff100
    6d14:	54495845 	strbpl	r5, [r9], #-2117	; 0xfffff7bb
    6d18:	5a49535f 	bpl	125ba9c <_Min_Stack_Size+0x125b69c>
    6d1c:	32332045 	eorscc	r2, r3, #69	; 0x45
    6d20:	635f5f00 	cmpvs	pc, #0, 30
    6d24:	61746e6f 	cmnvs	r4, pc, ror #28
    6d28:	72656e69 	rsbvc	r6, r5, #1680	; 0x690
    6d2c:	7828666f 	stmdavc	r8!, {r0, r1, r2, r3, r5, r6, r9, sl, sp, lr}
    6d30:	6d2c732c 	stcvs	3, cr7, [ip, #-176]!	; 0xffffff50
    6d34:	7b282029 	blvc	a0ede0 <_Min_Stack_Size+0xa0e9e0>
    6d38:	6e6f6320 	cdpvs	3, 6, cr6, cr15, cr0, {1}
    6d3c:	76207473 			; <UNDEFINED> instruction: 0x76207473
    6d40:	74616c6f 	strbtvc	r6, [r1], #-3183	; 0xfffff391
    6d44:	20656c69 	rsbcs	r6, r5, r9, ror #24
    6d48:	79745f5f 	ldmdbvc	r4!, {r0, r1, r2, r3, r4, r6, r8, r9, sl, fp, ip, lr}^
    6d4c:	666f6570 			; <UNDEFINED> instruction: 0x666f6570
    6d50:	73282828 			; <UNDEFINED> instruction: 0x73282828
    6d54:	30292a20 	eorcc	r2, r9, r0, lsr #20
    6d58:	6d3e2d29 	ldcvs	13, cr2, [lr, #-164]!	; 0xffffff5c
    6d5c:	5f2a2029 	svcpl	0x002a2029
    6d60:	3d20785f 	stccc	8, cr7, [r0, #-380]!	; 0xfffffe84
    6d64:	29782820 	ldmdbcs	r8!, {r5, fp, sp}^
    6d68:	5f5f203b 	svcpl	0x005f203b
    6d6c:	55514544 	ldrbpl	r4, [r1, #-1348]	; 0xfffffabc
    6d70:	46494c41 	strbmi	r4, [r9], -r1, asr #24
    6d74:	20732859 	rsbscs	r2, r3, r9, asr r8
    6d78:	28202c2a 	stmdacs	r0!, {r1, r3, r5, sl, fp, sp}
    6d7c:	736e6f63 	cmnvc	lr, #396	; 0x18c
    6d80:	6f762074 	svcvs	0x00762074
    6d84:	6974616c 	ldmdbvs	r4!, {r2, r3, r5, r6, r8, sp, lr}^
    6d88:	6320656c 			; <UNDEFINED> instruction: 0x6320656c
    6d8c:	20726168 	rsbscs	r6, r2, r8, ror #2
    6d90:	5f5f292a 	svcpl	0x005f292a
    6d94:	202d2078 	eorcs	r2, sp, r8, ror r0
    6d98:	666f5f5f 	uqsaxvs	r5, pc, pc	; <UNPREDICTABLE>
    6d9c:	74657366 	strbtvc	r7, [r5], #-870	; 0xfffffc9a
    6da0:	7328666f 			; <UNDEFINED> instruction: 0x7328666f
    6da4:	296d202c 	stmdbcs	sp!, {r2, r3, r5, sp}^
    6da8:	297d3b29 	ldmdbcs	sp!, {r0, r3, r5, r8, r9, fp, ip, sp}^
    6dac:	49564e00 	ldmdbmi	r6, {r9, sl, fp, lr}^
    6db0:	50535f43 	subspl	r5, r3, r3, asr #30
    6db4:	495f3149 	ldmdbmi	pc, {r0, r3, r6, r8, ip, sp}^	; <UNPREDICTABLE>
    6db8:	445f5152 	ldrbmi	r5, [pc], #-338	; 6dc0 <_Min_Stack_Size+0x69c0>
    6dbc:	62617369 	rsbvs	r7, r1, #-1543503871	; 0xa4000001
    6dc0:	2820656c 	stmdacs	r0!, {r2, r3, r5, r6, r8, sl, sp, lr}
    6dc4:	4349564e 	movtmi	r5, #38478	; 0x964e
    6dc8:	4543495f 	strbmi	r4, [r3, #-2399]	; 0xfffff6a1
    6dcc:	7c203152 	stfvcs	f3, [r0], #-328	; 0xfffffeb8
    6dd0:	3c31203d 	ldccc	0, cr2, [r1], #-244	; 0xffffff0c
    6dd4:	5053283c 	subspl	r2, r3, ip, lsr r8
    6dd8:	495f3149 	ldmdbmi	pc, {r0, r3, r6, r8, ip, sp}^	; <UNPREDICTABLE>
    6ddc:	2d205152 	stfcss	f5, [r0, #-328]!	; 0xfffffeb8
    6de0:	29323320 	ldmdbcs	r2!, {r5, r8, r9, ip, sp}
    6de4:	425f0029 	subsmi	r0, pc, #41	; 0x29
    6de8:	535f4453 	cmppl	pc, #1392508928	; 0x53000000
    6dec:	5f455a49 	svcpl	0x00455a49
    6df0:	00205f54 	eoreq	r5, r0, r4, asr pc
    6df4:	6e695f5f 	mcrvs	15, 3, r5, cr9, cr15, {2}
    6df8:	5f303274 	svcpl	0x00303274
    6dfc:	322b205f 	eorcc	r2, fp, #95	; 0x5f
    6e00:	54584500 	ldrbpl	r4, [r8], #-1280	; 0xfffffb00
    6e04:	50303149 	eorspl	r3, r0, r9, asr #2
    6e08:	20303142 	eorscs	r3, r0, r2, asr #2
    6e0c:	54584528 	ldrbpl	r4, [r8], #-1320	; 0xfffffad8
    6e10:	50475f49 	subpl	r5, r7, r9, asr #30
    6e14:	4d5f4f49 	ldclmi	15, cr4, [pc, #-292]	; 6cf8 <_Min_Stack_Size+0x68f8>
    6e18:	69707061 	ldmdbvs	r0!, {r0, r5, r6, ip, sp, lr}^
    6e1c:	745f676e 	ldrbvc	r6, [pc], #-1902	; 6e24 <_Min_Stack_Size+0x6a24>
    6e20:	58457b29 	stmdapl	r5, {r0, r3, r5, r8, r9, fp, ip, sp, lr}^
    6e24:	30314954 	eorscc	r4, r1, r4, asr r9
    6e28:	5047202c 	subpl	r2, r7, ip, lsr #32
    6e2c:	2c424f49 	mcrrcs	15, 4, r4, r2, cr9
    6e30:	49504720 	ldmdbmi	r0, {r5, r8, r9, sl, lr}^
    6e34:	49505f4f 	ldmdbmi	r0, {r0, r1, r2, r3, r6, r8, r9, sl, fp, ip, lr}^
    6e38:	30315f4e 	eorscc	r5, r1, lr, asr #30
    6e3c:	5845202c 	stmdapl	r5, {r2, r3, r5, sp}^
    6e40:	30314954 	eorscc	r4, r1, r4, asr r9
    6e44:	5152495f 	cmppl	r2, pc, asr r9
    6e48:	5f5f007d 	svcpl	0x005f007d
    6e4c:	6c5f6f6e 	mrrcvs	15, 6, r6, pc, cr14	; <UNPREDICTABLE>
    6e50:	5f6b636f 	svcpl	0x006b636f
    6e54:	6c616e61 	stclvs	14, cr6, [r1], #-388	; 0xfffffe7c
    6e58:	73697379 	cmnvc	r9, #-469762047	; 0xe4000001
    6e5c:	6c5f5f20 	mrrcvs	15, 2, r5, pc, cr0	; <UNPREDICTABLE>
    6e60:	5f6b636f 	svcpl	0x006b636f
    6e64:	6f6e6e61 	svcvs	0x006e6e61
    6e68:	65746174 	ldrbvs	r6, [r4, #-372]!	; 0xfffffe8c
    6e6c:	5f6f6e28 	svcpl	0x006f6e28
    6e70:	65726874 	ldrbvs	r6, [r2, #-2164]!	; 0xfffff78c
    6e74:	735f6461 	cmpvc	pc, #1627389952	; 0x61000000
    6e78:	74656661 	strbtvc	r6, [r5], #-1633	; 0xfffff99f
    6e7c:	6e615f79 	mcrvs	15, 3, r5, cr1, cr9, {3}
    6e80:	73796c61 	cmnvc	r9, #24832	; 0x6100
    6e84:	00297369 	eoreq	r7, r9, r9, ror #6
    6e88:	4f495047 	svcmi	0x00495047
    6e8c:	4e49505f 	mcrmi	0, 2, r5, cr9, cr15, {2}
    6e90:	2031315f 	eorscs	r3, r1, pc, asr r1
    6e94:	69752828 	ldmdbvs	r5!, {r3, r5, fp, sp}^
    6e98:	3631746e 	ldrtcc	r7, [r1], -lr, ror #8
    6e9c:	2029745f 	eorcs	r7, r9, pc, asr r4
    6ea0:	38307830 	ldmdacc	r0!, {r4, r5, fp, ip, sp, lr}
    6ea4:	00293030 	eoreq	r3, r9, r0, lsr r0
    6ea8:	544e495f 	strbpl	r4, [lr], #-2399	; 0xfffff6a1
    6eac:	545f3436 	ldrbpl	r3, [pc], #-1078	; 6eb4 <_Min_Stack_Size+0x6ab4>
    6eb0:	4345445f 	movtmi	r4, #21599	; 0x545f
    6eb4:	4552414c 	ldrbmi	r4, [r2, #-332]	; 0xfffffeb4
    6eb8:	52002044 	andpl	r2, r0, #68	; 0x44
    6ebc:	555f4343 	ldrbpl	r4, [pc, #-835]	; 6b81 <_Min_Stack_Size+0x6781>
    6ec0:	54524153 	ldrbpl	r4, [r2], #-339	; 0xfffffead
    6ec4:	4c435f32 	mcrrmi	15, 3, r5, r3, cr2
    6ec8:	4e455f4b 	cdpmi	15, 4, cr5, cr5, cr11, {2}
    6ecc:	28202928 	stmdacs	r0!, {r3, r5, r8, fp, sp}
    6ed0:	2d434352 	stclcs	3, cr4, [r3, #-328]	; 0xfffffeb8
    6ed4:	4250413e 	subsmi	r4, r0, #-2147483633	; 0x8000000f
    6ed8:	524e4531 	subpl	r4, lr, #205520896	; 0xc400000
    6edc:	203d7c20 	eorscs	r7, sp, r0, lsr #24
    6ee0:	3c3c3128 	ldfccs	f3, [ip], #-160	; 0xffffff60
    6ee4:	29293731 	stmdbcs	r9!, {r0, r4, r5, r8, r9, sl, ip, sp}
    6ee8:	49564e00 	ldmdbmi	r6, {r9, sl, fp, lr}^
    6eec:	53495f43 	movtpl	r5, #40771	; 0x9f43
    6ef0:	20315245 	eorscs	r5, r1, r5, asr #4
    6ef4:	6f76282a 	svcvs	0x0076282a
    6ef8:	6974616c 	ldmdbvs	r4!, {r2, r3, r5, r6, r8, sp, lr}^
    6efc:	7520656c 	strvc	r6, [r0, #-1388]!	; 0xfffffa94
    6f00:	33746e69 	cmncc	r4, #1680	; 0x690
    6f04:	2a745f32 	bcs	1d1ebd4 <_Min_Stack_Size+0x1d1e7d4>
    6f08:	4e282920 	vmulmi.f16	s4, s16, s1	; <UNPREDICTABLE>
    6f0c:	5f434956 	svcpl	0x00434956
    6f10:	65736142 	ldrbvs	r6, [r3, #-322]!	; 0xfffffebe
    6f14:	78302b20 	ldmdavc	r0!, {r5, r8, r9, fp, sp}
    6f18:	29343030 	ldmdbcs	r4!, {r4, r5, ip, sp}
    6f1c:	45525f00 	ldrbmi	r5, [r2, #-3840]	; 0xfffff100
    6f20:	5f544e45 	svcpl	0x00544e45
    6f24:	465f504d 	ldrbmi	r5, [pc], -sp, asr #32
    6f28:	4c454552 	cfstr64mi	mvdx4, [r5], {82}	; 0x52
    6f2c:	28545349 	ldmdacs	r4, {r0, r3, r6, r8, r9, ip, lr}^
    6f30:	29727470 	ldmdbcs	r2!, {r4, r5, r6, sl, ip, sp, lr}^
    6f34:	70282820 	eorvc	r2, r8, r0, lsr #16
    6f38:	2d297274 	sfmcs	f7, 4, [r9, #-464]!	; 0xfffffe30
    6f3c:	706d5f3e 	rsbvc	r5, sp, lr, lsr pc
    6f40:	665f3e2d 	ldrbvs	r3, [pc], -sp, lsr #28
    6f44:	6c656572 	cfstr64vs	mvdx6, [r5], #-456	; 0xfffffe38
    6f48:	29747369 	ldmdbcs	r4!, {r0, r3, r5, r6, r8, r9, ip, sp, lr}^
    6f4c:	6c6c6100 	stfvse	f6, [ip], #-0
    6f50:	2861636f 	stmdacs	r1!, {r0, r1, r2, r3, r5, r6, r8, r9, sp, lr}^
    6f54:	657a6973 	ldrbvs	r6, [sl, #-2419]!	; 0xfffff68d
    6f58:	5f5f2029 	svcpl	0x005f2029
    6f5c:	6c697562 	cfstr64vs	mvdx7, [r9], #-392	; 0xfffffe78
    6f60:	5f6e6974 	svcpl	0x006e6974
    6f64:	6f6c6c61 	svcvs	0x006c6c61
    6f68:	73286163 			; <UNDEFINED> instruction: 0x73286163
    6f6c:	29657a69 	stmdbcs	r5!, {r0, r3, r5, r6, r9, fp, ip, sp, lr}^
    6f70:	4c435f00 	mcrrmi	15, 0, r5, r3, cr0
    6f74:	494b434f 	stmdbmi	fp, {r0, r1, r2, r3, r6, r8, r9, lr}^
    6f78:	5f545f44 	svcpl	0x00545f44
    6f7c:	736e7520 	cmnvc	lr, #32, 10	; 0x8000000
    6f80:	656e6769 	strbvs	r6, [lr, #-1897]!	; 0xfffff897
    6f84:	6f6c2064 	svcvs	0x006c2064
    6f88:	5f00676e 	svcpl	0x0000676e
    6f8c:	5154555f 	cmppl	r4, pc, asr r5
    6f90:	4942495f 	stmdbmi	r2, {r0, r1, r2, r3, r4, r6, r8, fp, lr}^
    6f94:	205f5f54 	subscs	r5, pc, r4, asr pc	; <UNPREDICTABLE>
    6f98:	58450030 	stmdapl	r5, {r4, r5}^
    6f9c:	20324954 	eorscs	r4, r2, r4, asr r9
    6fa0:	5f5f0032 	svcpl	0x005f0032
    6fa4:	465f4153 			; <UNDEFINED> instruction: 0x465f4153
    6fa8:	5f544942 	svcpl	0x00544942
    6fac:	3531205f 	ldrcc	r2, [r1, #-95]!	; 0xffffffa1
    6fb0:	495f5f00 	ldmdbmi	pc, {r8, r9, sl, fp, ip, lr}^	; <UNPREDICTABLE>
    6fb4:	575f544e 	ldrbpl	r5, [pc, -lr, asr #8]
    6fb8:	52414843 	subpl	r4, r1, #4390912	; 0x430000
    6fbc:	485f545f 	ldmdami	pc, {r0, r1, r2, r3, r4, r6, sl, ip, lr}^	; <UNPREDICTABLE>
    6fc0:	5f5f0020 	svcpl	0x005f0020
    6fc4:	33544c46 	cmpcc	r4, #17920	; 0x4600
    6fc8:	4d5f5832 	ldclmi	8, cr5, [pc, #-200]	; 6f08 <_Min_Stack_Size+0x6b08>
    6fcc:	5f5f5841 	svcpl	0x005f5841
    6fd0:	372e3120 	strcc	r3, [lr, -r0, lsr #2]!
    6fd4:	39363739 	ldmdbcc	r6!, {r0, r3, r4, r5, r8, r9, sl, ip, sp}
    6fd8:	34333133 	ldrtcc	r3, [r3], #-307	; 0xfffffecd
    6fdc:	33323638 	teqcc	r2, #56, 12	; 0x3800000
    6fe0:	65373531 	ldrvs	r3, [r7, #-1329]!	; 0xfffffacf
    6fe4:	3830332b 	ldmdacc	r0!, {r0, r1, r3, r5, r8, r9, ip, sp}
    6fe8:	78323346 	ldmdavc	r2!, {r1, r2, r6, r8, r9, ip, sp}
    6fec:	54584500 	ldrbpl	r4, [r8], #-1280	; 0xfffffb00
    6ff0:	50343149 	eorspl	r3, r4, r9, asr #2
    6ff4:	20343144 	eorscs	r3, r4, r4, asr #2
    6ff8:	54584528 	ldrbpl	r4, [r8], #-1320	; 0xfffffad8
    6ffc:	50475f49 	subpl	r5, r7, r9, asr #30
    7000:	4d5f4f49 	ldclmi	15, cr4, [pc, #-292]	; 6ee4 <_Min_Stack_Size+0x6ae4>
    7004:	69707061 	ldmdbvs	r0!, {r0, r5, r6, ip, sp, lr}^
    7008:	745f676e 	ldrbvc	r6, [pc], #-1902	; 7010 <_Min_Stack_Size+0x6c10>
    700c:	58457b29 	stmdapl	r5, {r0, r3, r5, r8, r9, fp, ip, sp, lr}^
    7010:	34314954 	ldrtcc	r4, [r1], #-2388	; 0xfffff6ac
    7014:	5047202c 	subpl	r2, r7, ip, lsr #32
    7018:	2c444f49 	mcrrcs	15, 4, r4, r4, cr9
    701c:	49504720 	ldmdbmi	r0, {r5, r8, r9, sl, lr}^
    7020:	49505f4f 	ldmdbmi	r0, {r0, r1, r2, r3, r6, r8, r9, sl, fp, ip, lr}^
    7024:	34315f4e 	ldrtcc	r5, [r1], #-3918	; 0xfffff0b2
    7028:	5845202c 	stmdapl	r5, {r2, r3, r5, sp}^
    702c:	34314954 	ldrtcc	r4, [r1], #-2388	; 0xfffff6ac
    7030:	5152495f 	cmppl	r2, pc, asr r9
    7034:	5f5f007d 	svcpl	0x005f007d
    7038:	746e695f 	strbtvc	r6, [lr], #-2399	; 0xfffff6a1
    703c:	745f3631 	ldrbvc	r3, [pc], #-1585	; 7044 <_Min_Stack_Size+0x6c44>
    7040:	6665645f 			; <UNDEFINED> instruction: 0x6665645f
    7044:	64656e69 	strbtvs	r6, [r5], #-3689	; 0xfffff197
    7048:	57003120 	strpl	r3, [r0, -r0, lsr #2]
    704c:	52414843 	subpl	r4, r1, #4390912	; 0x430000
    7050:	58414d5f 	stmdapl	r1, {r0, r1, r2, r3, r4, r6, r8, sl, fp, lr}^
    7054:	5f5f2820 	svcpl	0x005f2820
    7058:	41484357 	cmpmi	r8, r7, asr r3
    705c:	414d5f52 	cmpmi	sp, r2, asr pc
    7060:	295f5f58 	ldmdbcs	pc, {r3, r4, r6, r8, r9, sl, fp, ip, lr}^	; <UNPREDICTABLE>
    7064:	415f5f00 	cmpmi	pc, r0, lsl #30
    7068:	455f4d52 	ldrbmi	r4, [pc, #-3410]	; 631e <_Min_Stack_Size+0x5f1e>
    706c:	5f494241 	svcpl	0x00494241
    7070:	0031205f 	eorseq	r2, r1, pc, asr r0
    7074:	53415f5f 	movtpl	r5, #8031	; 0x1f5f
    7078:	4d414e4d 	stclmi	14, cr4, [r1, #-308]	; 0xfffffecc
    707c:	6e632845 	cdpvs	8, 6, cr2, cr3, cr5, {2}
    7080:	29656d61 	stmdbcs	r5!, {r0, r5, r6, r8, sl, fp, sp, lr}^
    7084:	585f5f20 	ldmdapl	pc, {r5, r8, r9, sl, fp, ip, lr}^	; <UNPREDICTABLE>
    7088:	49525453 	ldmdbmi	r2, {r0, r1, r4, r6, sl, ip, lr}^
    708c:	2820474e 	stmdacs	r0!, {r1, r2, r3, r6, r8, r9, sl, lr}
    7090:	53555f5f 	cmppl	r5, #380	; 0x17c
    7094:	4c5f5245 	lfmmi	f5, 2, [pc], {69}	; 0x45
    7098:	4c454241 	sfmmi	f4, 2, [r5], {65}	; 0x41
    709c:	4552505f 	ldrbmi	r5, [r2, #-95]	; 0xffffffa1
    70a0:	5f584946 	svcpl	0x00584946
    70a4:	6320295f 			; <UNDEFINED> instruction: 0x6320295f
    70a8:	656d616e 	strbvs	r6, [sp, #-366]!	; 0xfffffe92
    70ac:	544e4900 	strbpl	r4, [lr], #-2304	; 0xfffff700
    70b0:	4d5f3233 	lfmmi	f3, 2, [pc, #-204]	; 6fec <_Min_Stack_Size+0x6bec>
    70b4:	28204e49 	stmdacs	r0!, {r0, r3, r6, r9, sl, fp, lr}
    70b8:	495f5f2d 	ldmdbmi	pc, {r0, r2, r3, r5, r8, r9, sl, fp, ip, lr}^	; <UNPREDICTABLE>
    70bc:	3233544e 	eorscc	r5, r3, #1308622848	; 0x4e000000
    70c0:	58414d5f 	stmdapl	r1, {r0, r1, r2, r3, r4, r6, r8, sl, fp, lr}^
    70c4:	2d205f5f 	stccs	15, cr5, [r0, #-380]!	; 0xfffffe84
    70c8:	00293120 	eoreq	r3, r9, r0, lsr #2
    70cc:	48545f5f 	ldmdami	r4, {r0, r1, r2, r3, r4, r6, r8, r9, sl, fp, ip, lr}^
    70d0:	45424d55 	strbmi	r4, [r2, #-3413]	; 0xfffff2ab
    70d4:	205f5f4c 	subscs	r5, pc, ip, asr #30
    70d8:	50530031 	subspl	r0, r3, r1, lsr r0
    70dc:	425f3349 	subsmi	r3, pc, #603979777	; 0x24000001
    70e0:	20455341 	subcs	r5, r5, r1, asr #6
    70e4:	30347830 	eorscc	r7, r4, r0, lsr r8
    70e8:	43333030 	teqmi	r3, #48	; 0x30
    70ec:	00753030 	rsbseq	r3, r5, r0, lsr r0
    70f0:	4f495047 	svcmi	0x00495047
    70f4:	444f4d5f 	strbmi	r4, [pc], #-3423	; 70fc <_Min_Stack_Size+0x6cfc>
    70f8:	554f5f45 	strbpl	r5, [pc, #-3909]	; 61bb <_Min_Stack_Size+0x5dbb>
    70fc:	54555054 	ldrbpl	r5, [r5], #-84	; 0xffffffac
    7100:	20444f5f 	subcs	r4, r4, pc, asr pc
    7104:	30307830 	eorscc	r7, r0, r0, lsr r8
    7108:	30303030 	eorscc	r3, r0, r0, lsr r0
    710c:	5f003530 	svcpl	0x00003530
    7110:	5f51515f 	svcpl	0x0051515f
    7114:	54494249 	strbpl	r4, [r9], #-585	; 0xfffffdb7
    7118:	30205f5f 	eorcc	r5, r0, pc, asr pc
    711c:	415f5f00 	cmpmi	pc, r0, lsl #30
    7120:	4c454d52 	mcrrmi	13, 5, r4, r5, cr2
    7124:	31205f5f 			; <UNDEFINED> instruction: 0x31205f5f
    7128:	4d495400 	cfstrdmi	mvd5, [r9, #-0]
    712c:	41425f38 	cmpmi	r2, r8, lsr pc
    7130:	30204553 	eorcc	r4, r0, r3, asr r5
    7134:	30303478 	eorscc	r3, r0, r8, ror r4
    7138:	30343331 	eorscc	r3, r4, r1, lsr r3
    713c:	52007530 	andpl	r7, r0, #48, 10	; 0xc000000
    7140:	425f4343 	subsmi	r4, pc, #201326593	; 0xc000001
    7144:	20455341 	subcs	r5, r5, r1, asr #6
    7148:	30347830 	eorscc	r7, r4, r0, lsr r8
    714c:	30313230 	eorscc	r3, r1, r0, lsr r2
    7150:	4c553030 	mrrcmi	0, 3, r3, r5, cr0
    7154:	52514900 	subspl	r4, r1, #0, 18
    7158:	424e455f 	submi	r4, lr, #398458880	; 0x17c00000
    715c:	61747300 	cmnvs	r4, r0, lsl #6
    7160:	5f636974 	svcpl	0x00636974
    7164:	65737361 	ldrbvs	r7, [r3, #-865]!	; 0xfffffc9f
    7168:	5f207472 	svcpl	0x00207472
    716c:	74617453 	strbtvc	r7, [r1], #-1107	; 0xfffffbad
    7170:	615f6369 	cmpvs	pc, r9, ror #6
    7174:	72657373 	rsbvc	r7, r5, #-872415231	; 0xcc000001
    7178:	5f5f0074 	svcpl	0x005f0074
    717c:	4b434f4c 	blmi	10daeb4 <_Min_Stack_Size+0x10daab4>
    7180:	494e495f 	stmdbmi	lr, {r0, r1, r2, r3, r4, r6, r8, fp, lr}^
    7184:	45525f54 	ldrbmi	r5, [r2, #-3924]	; 0xfffff0ac
    7188:	53525543 	cmppl	r2, #281018368	; 0x10c00000
    718c:	28455649 	stmdacs	r5, {r0, r3, r6, r9, sl, ip, lr}^
    7190:	73616c63 	cmnvc	r1, #25344	; 0x6300
    7194:	6f6c2c73 	svcvs	0x006c2c73
    7198:	20296b63 	eorcs	r6, r9, r3, ror #22
    719c:	4f4c5f5f 	svcmi	0x004c5f5f
    71a0:	495f4b43 	ldmdbmi	pc, {r0, r1, r6, r8, r9, fp, lr}^	; <UNPREDICTABLE>
    71a4:	2854494e 	ldmdacs	r4, {r1, r2, r3, r6, r8, fp, lr}^
    71a8:	73616c63 	cmnvc	r1, #25344	; 0x6300
    71ac:	6f6c2c73 	svcvs	0x006c2c73
    71b0:	00296b63 	eoreq	r6, r9, r3, ror #22
    71b4:	4c4c5f5f 	mcrrmi	15, 5, r5, ip, cr15
    71b8:	55434341 	strbpl	r4, [r3, #-833]	; 0xfffffcbf
    71bc:	42465f4d 	submi	r5, r6, #308	; 0x134
    71c0:	5f5f5449 	svcpl	0x005f5449
    71c4:	00313320 	eorseq	r3, r1, r0, lsr #6
    71c8:	544e4955 	strbpl	r4, [lr], #-2389	; 0xfffff6ab
    71cc:	4d5f3631 	ldclmi	6, cr3, [pc, #-196]	; 7110 <_Min_Stack_Size+0x6d10>
    71d0:	28205841 	stmdacs	r0!, {r0, r6, fp, ip, lr}
    71d4:	49555f5f 	ldmdbmi	r5, {r0, r1, r2, r3, r4, r6, r8, r9, sl, fp, ip, lr}^
    71d8:	3631544e 	ldrtcc	r5, [r1], -lr, asr #8
    71dc:	58414d5f 	stmdapl	r1, {r0, r1, r2, r3, r4, r6, r8, sl, fp, lr}^
    71e0:	00295f5f 	eoreq	r5, r9, pc, asr pc
    71e4:	4c465f5f 	mcrrmi	15, 5, r5, r6, cr15
    71e8:	58323354 	ldmdapl	r2!, {r2, r4, r6, r8, r9, ip, sp}
    71ec:	4e494d5f 	mcrmi	13, 2, r4, cr9, cr15, {2}
    71f0:	5f30315f 	svcpl	0x0030315f
    71f4:	5f505845 	svcpl	0x00505845
    71f8:	2d28205f 	stccs	0, cr2, [r8, #-380]!	; 0xfffffe84
    71fc:	29373033 	ldmdbcs	r7!, {r0, r1, r4, r5, ip, sp}
    7200:	4e495500 	cdpmi	5, 4, cr5, cr9, cr0, {0}
    7204:	454c5f54 	strbmi	r5, [ip, #-3924]	; 0xfffff0ac
    7208:	38545341 	ldmdacc	r4, {r0, r6, r8, r9, ip, lr}^
    720c:	58414d5f 	stmdapl	r1, {r0, r1, r2, r3, r4, r6, r8, sl, fp, lr}^
    7210:	5f5f2820 	svcpl	0x005f2820
    7214:	544e4955 	strbpl	r4, [lr], #-2389	; 0xfffff6ab
    7218:	41454c5f 	cmpmi	r5, pc, asr ip
    721c:	5f385453 	svcpl	0x00385453
    7220:	5f58414d 	svcpl	0x0058414d
    7224:	5f00295f 	svcpl	0x0000295f
    7228:	5153555f 	cmppl	r3, pc, asr r5
    722c:	4942495f 	stmdbmi	r2, {r0, r1, r2, r3, r4, r6, r8, fp, lr}^
    7230:	205f5f54 	subscs	r5, pc, r4, asr pc	; <UNPREDICTABLE>
    7234:	5f5f0030 	svcpl	0x005f0030
    7238:	43554e47 	cmpmi	r5, #1136	; 0x470
    723c:	4e494d5f 	mcrmi	13, 2, r4, cr9, cr15, {2}
    7240:	5f5f524f 	svcpl	0x005f524f
    7244:	5f003320 	svcpl	0x00003320
    7248:	544c465f 	strbpl	r4, [ip], #-1631	; 0xfffff9a1
    724c:	5f583233 	svcpl	0x00583233
    7250:	5f4e494d 	svcpl	0x004e494d
    7254:	5f505845 	svcpl	0x00505845
    7258:	2d28205f 	stccs	0, cr2, [r8, #-380]!	; 0xfffffe84
    725c:	31323031 	teqcc	r2, r1, lsr r0
    7260:	5f5f0029 	svcpl	0x005f0029
    7264:	544e4955 	strbpl	r4, [lr], #-2389	; 0xfffff6ab
    7268:	41454c5f 	cmpmi	r5, pc, asr ip
    726c:	32335453 	eorscc	r5, r3, #1392508928	; 0x53000000
    7270:	5059545f 	subspl	r5, r9, pc, asr r4
    7274:	205f5f45 	subscs	r5, pc, r5, asr #30
    7278:	676e6f6c 	strbvs	r6, [lr, -ip, ror #30]!
    727c:	736e7520 	cmnvc	lr, #32, 10	; 0x8000000
    7280:	656e6769 	strbvs	r6, [lr, #-1897]!	; 0xfffff897
    7284:	6e692064 	cdpvs	0, 6, cr2, cr9, cr4, {3}
    7288:	69540074 	ldmdbvs	r4, {r2, r4, r5, r6}^
    728c:	2820326d 	stmdacs	r0!, {r0, r2, r3, r5, r6, r9, ip, sp}
    7290:	4d495428 	cfstrdmi	mvd5, [r9, #-160]	; 0xffffff60
    7294:	5f357432 	svcpl	0x00357432
    7298:	65707954 	ldrbvs	r7, [r0, #-2388]!	; 0xfffff6ac
    729c:	5f666544 	svcpl	0x00666544
    72a0:	54292a74 	strtpl	r2, [r9], #-2676	; 0xfffff58c
    72a4:	5f324d49 	svcpl	0x00324d49
    72a8:	45534142 	ldrbmi	r4, [r3, #-322]	; 0xfffffebe
    72ac:	5f5f0029 	svcpl	0x005f0029
    72b0:	5f4d5241 	svcpl	0x004d5241
    72b4:	54414546 	strbpl	r4, [r1], #-1350	; 0xfffffaba
    72b8:	5f455255 	svcpl	0x00455255
    72bc:	454d554e 	strbmi	r5, [sp, #-1358]	; 0xfffffab2
    72c0:	5f434952 	svcpl	0x00434952
    72c4:	4d58414d 	ldfmie	f4, [r8, #-308]	; 0xfffffecc
    72c8:	5f004e49 	svcpl	0x00004e49
    72cc:	444e4152 	strbmi	r4, [lr], #-338	; 0xfffffeae
    72d0:	4d5f3834 	ldclmi	8, cr3, [pc, #-208]	; 7208 <_Min_Stack_Size+0x6e08>
    72d4:	5f544c55 	svcpl	0x00544c55
    72d8:	30282031 	eorcc	r2, r8, r1, lsr r0
    72dc:	65656478 	strbvs	r6, [r5, #-1144]!	; 0xfffffb88
    72e0:	5f002963 	svcpl	0x00002963
    72e4:	544e495f 	strbpl	r4, [lr], #-2399	; 0xfffff6a1
    72e8:	5f58414d 	svcpl	0x0058414d
    72ec:	45505954 	ldrbmi	r5, [r0, #-2388]	; 0xfffff6ac
    72f0:	6c205f5f 	stcvs	15, cr5, [r0], #-380	; 0xfffffe84
    72f4:	20676e6f 	rsbcs	r6, r7, pc, ror #28
    72f8:	676e6f6c 	strbvs	r6, [lr, -ip, ror #30]!
    72fc:	746e6920 	strbtvc	r6, [lr], #-2336	; 0xfffff6e0
    7300:	54584500 	ldrbpl	r4, [r8], #-1280	; 0xfffffb00
    7304:	42503749 	subsmi	r3, r0, #19136512	; 0x1240000
    7308:	45282037 	strmi	r2, [r8, #-55]!	; 0xffffffc9
    730c:	5f495458 	svcpl	0x00495458
    7310:	4f495047 	svcmi	0x00495047
    7314:	70614d5f 	rsbvc	r4, r1, pc, asr sp
    7318:	676e6970 			; <UNDEFINED> instruction: 0x676e6970
    731c:	7b29745f 	blvc	a644a0 <_Min_Stack_Size+0xa640a0>
    7320:	49545845 	ldmdbmi	r4, {r0, r2, r6, fp, ip, lr}^
    7324:	47202c37 			; <UNDEFINED> instruction: 0x47202c37
    7328:	424f4950 	submi	r4, pc, #80, 18	; 0x140000
    732c:	5047202c 	subpl	r2, r7, ip, lsr #32
    7330:	505f4f49 	subspl	r4, pc, r9, asr #30
    7334:	375f4e49 	ldrbcc	r4, [pc, -r9, asr #28]
    7338:	5845202c 	stmdapl	r5, {r2, r3, r5, sp}^
    733c:	5f374954 	svcpl	0x00374954
    7340:	7d515249 	lfmvc	f5, 2, [r1, #-292]	; 0xfffffedc
    7344:	4e495500 	cdpmi	5, 4, cr5, cr9, cr0, {0}
    7348:	41465f54 	cmpmi	r6, r4, asr pc
    734c:	32335453 	eorscc	r5, r3, #1392508928	; 0x53000000
    7350:	58414d5f 	stmdapl	r1, {r0, r1, r2, r3, r4, r6, r8, sl, fp, lr}^
    7354:	5f5f2820 	svcpl	0x005f2820
    7358:	544e4955 	strbpl	r4, [lr], #-2389	; 0xfffff6ab
    735c:	5341465f 	movtpl	r4, #5727	; 0x165f
    7360:	5f323354 	svcpl	0x00323354
    7364:	5f58414d 	svcpl	0x0058414d
    7368:	5f00295f 	svcpl	0x0000295f
    736c:	4343475f 	movtmi	r4, #14175	; 0x375f
    7370:	4f54415f 	svcmi	0x0054415f
    7374:	5f43494d 	svcpl	0x0043494d
    7378:	5f544e49 	svcpl	0x00544e49
    737c:	4b434f4c 	blmi	10db0b4 <_Min_Stack_Size+0x10dacb4>
    7380:	4552465f 	ldrbmi	r4, [r2, #-1631]	; 0xfffff9a1
    7384:	00322045 	eorseq	r2, r2, r5, asr #32
    7388:	4f495047 	svcmi	0x00495047
    738c:	4e49505f 	mcrmi	0, 2, r5, cr9, cr15, {2}
    7390:	4c4c415f 	stfmie	f4, [ip], {95}	; 0x5f
    7394:	75282820 	strvc	r2, [r8, #-2080]!	; 0xfffff7e0
    7398:	31746e69 	cmncc	r4, r9, ror #28
    739c:	29745f36 	ldmdbcs	r4!, {r1, r2, r4, r5, r8, r9, sl, fp, ip, lr}^
    73a0:	46783020 	ldrbtmi	r3, [r8], -r0, lsr #32
    73a4:	29464646 	stmdbcs	r6, {r1, r2, r6, r9, sl, lr}^
    73a8:	41525f00 	cmpmi	r2, r0, lsl #30
    73ac:	3834444e 	ldmdacc	r4!, {r1, r2, r3, r6, sl, lr}
    73b0:	4545535f 	strbmi	r5, [r5, #-863]	; 0xfffffca1
    73b4:	20305f44 	eorscs	r5, r0, r4, asr #30
    73b8:	33783028 	cmncc	r8, #40	; 0x28
    73bc:	29653033 	stmdbcs	r5!, {r0, r1, r4, r5, ip, sp}^
    73c0:	54584500 	ldrbpl	r4, [r8], #-1280	; 0xfffffb00
    73c4:	44503949 	ldrbmi	r3, [r0], #-2377	; 0xfffff6b7
    73c8:	45282039 	strmi	r2, [r8, #-57]!	; 0xffffffc7
    73cc:	5f495458 	svcpl	0x00495458
    73d0:	4f495047 	svcmi	0x00495047
    73d4:	70614d5f 	rsbvc	r4, r1, pc, asr sp
    73d8:	676e6970 			; <UNDEFINED> instruction: 0x676e6970
    73dc:	7b29745f 	blvc	a64560 <_Min_Stack_Size+0xa64160>
    73e0:	49545845 	ldmdbmi	r4, {r0, r2, r6, fp, ip, lr}^
    73e4:	47202c39 			; <UNDEFINED> instruction: 0x47202c39
    73e8:	444f4950 	strbmi	r4, [pc], #-2384	; 73f0 <_Min_Stack_Size+0x6ff0>
    73ec:	5047202c 	subpl	r2, r7, ip, lsr #32
    73f0:	505f4f49 	subspl	r4, pc, r9, asr #30
    73f4:	395f4e49 	ldmdbcc	pc, {r0, r3, r6, r9, sl, fp, lr}^	; <UNPREDICTABLE>
    73f8:	5845202c 	stmdapl	r5, {r2, r3, r5, sp}^
    73fc:	5f394954 	svcpl	0x00394954
    7400:	7d515249 	lfmvc	f5, 2, [r1, #-292]	; 0xfffffedc
    7404:	43475f00 	movtmi	r5, #32512	; 0x7f00
    7408:	414d5f43 	cmpmi	sp, r3, asr #30
    740c:	4c415f58 	mcrrmi	15, 5, r5, r1, cr8
    7410:	5f4e4749 	svcpl	0x004e4749
    7414:	5f002054 	svcpl	0x00002054
    7418:	6e6f4c5f 	mcrvs	12, 3, r4, cr15, cr15, {2}
    741c:	6f6c2067 	svcvs	0x006c2067
    7420:	5f00676e 	svcpl	0x0000676e
    7424:	4d52415f 	ldfmie	f4, [r2, #-380]	; 0xfffffe84
    7428:	4145465f 	cmpmi	r5, pc, asr r6
    742c:	45525554 	ldrbmi	r5, [r2, #-1364]	; 0xfffffaac
    7430:	3150465f 	cmpcc	r0, pc, asr r6
    7434:	43535f36 	cmpmi	r3, #54, 30	; 0xd8
    7438:	52414c41 	subpl	r4, r1, #16640	; 0x4100
    743c:	4952415f 	ldmdbmi	r2, {r0, r1, r2, r3, r4, r6, r8, lr}^
    7440:	454d4854 	strbmi	r4, [sp, #-2132]	; 0xfffff7ac
    7444:	00434954 	subeq	r4, r3, r4, asr r9
    7448:	53555f5f 	cmppl	r5, #380	; 0x17c
    744c:	55434341 	strbpl	r4, [r3, #-833]	; 0xfffffcbf
    7450:	50455f4d 	subpl	r5, r5, sp, asr #30
    7454:	4f4c4953 	svcmi	0x004c4953
    7458:	205f5f4e 	subscs	r5, pc, lr, asr #30
    745c:	50317830 	eorspl	r7, r1, r0, lsr r8
    7460:	4855382d 	ldmdami	r5, {r0, r2, r3, r5, fp, ip, sp}^
    7464:	5f5f004b 	svcpl	0x005f004b
    7468:	5f4c4244 	svcpl	0x004c4244
    746c:	5f534148 	svcpl	0x00534148
    7470:	45495551 	strbmi	r5, [r9, #-1361]	; 0xfffffaaf
    7474:	414e5f54 	cmpmi	lr, r4, asr pc
    7478:	205f5f4e 	subscs	r5, pc, lr, asr #30
    747c:	4e490031 	mcrmi	0, 2, r0, cr9, cr1, {1}
    7480:	5f323354 	svcpl	0x00323354
    7484:	29782843 	ldmdbcs	r8!, {r0, r1, r6, fp, sp}^
    7488:	495f5f20 	ldmdbmi	pc, {r5, r8, r9, sl, fp, ip, lr}^	; <UNPREDICTABLE>
    748c:	3233544e 	eorscc	r5, r3, #1308622848	; 0x4e000000
    7490:	7828435f 	stmdavc	r8!, {r0, r1, r2, r3, r4, r6, r8, r9, lr}
    7494:	5f5f0029 	svcpl	0x005f0029
    7498:	76727470 			; <UNDEFINED> instruction: 0x76727470
    749c:	65756c61 	ldrbvs	r6, [r5, #-3169]!	; 0xfffff39f
    74a0:	4e5f0020 	cdpmi	0, 5, cr0, cr15, cr0, {1}
    74a4:	4c4e494f 	mcrrmi	9, 4, r4, lr, cr15	; <UNPREDICTABLE>
    74a8:	5f454e49 	svcpl	0x00454e49
    74ac:	54415453 	strbpl	r5, [r1], #-1107	; 0xfffffbad
    74b0:	5f204349 	svcpl	0x00204349
    74b4:	4e494f4e 	cdpmi	15, 4, cr4, cr9, cr14, {2}
    74b8:	454e494c 	strbmi	r4, [lr, #-2380]	; 0xfffff6b4
    74bc:	61747320 	cmnvs	r4, r0, lsr #6
    74c0:	00636974 	rsbeq	r6, r3, r4, ror r9
    74c4:	4c4c5f5f 	mcrrmi	15, 5, r5, ip, cr15
    74c8:	43415246 	movtmi	r5, #4678	; 0x1246
    74cc:	414d5f54 	cmpmi	sp, r4, asr pc
    74d0:	205f5f58 	subscs	r5, pc, r8, asr pc	; <UNPREDICTABLE>
    74d4:	46375830 			; <UNDEFINED> instruction: 0x46375830
    74d8:	46464646 	strbmi	r4, [r6], -r6, asr #12
    74dc:	46464646 	strbmi	r4, [r6], -r6, asr #12
    74e0:	46464646 	strbmi	r4, [r6], -r6, asr #12
    74e4:	2d504646 	ldclcs	6, cr4, [r0, #-280]	; 0xfffffee8
    74e8:	4c4c3336 	mcrrmi	3, 3, r3, ip, cr6
    74ec:	5f5f0052 	svcpl	0x005f0052
    74f0:	736e6f63 	cmnvc	lr, #396	; 0x18c
    74f4:	6f632074 	svcvs	0x00632074
    74f8:	0074736e 	rsbseq	r7, r4, lr, ror #6
    74fc:	49545845 	ldmdbmi	r4, {r0, r2, r6, fp, ip, lr}^
    7500:	30435030 	subcc	r5, r3, r0, lsr r0
    7504:	58452820 	stmdapl	r5, {r5, fp, sp}^
    7508:	475f4954 			; <UNDEFINED> instruction: 0x475f4954
    750c:	5f4f4950 	svcpl	0x004f4950
    7510:	7070614d 	rsbsvc	r6, r0, sp, asr #2
    7514:	5f676e69 	svcpl	0x00676e69
    7518:	457b2974 	ldrbmi	r2, [fp, #-2420]!	; 0xfffff68c
    751c:	30495458 	subcc	r5, r9, r8, asr r4
    7520:	5047202c 	subpl	r2, r7, ip, lsr #32
    7524:	2c434f49 	mcrrcs	15, 4, r4, r3, cr9
    7528:	49504720 	ldmdbmi	r0, {r5, r8, r9, sl, lr}^
    752c:	49505f4f 	ldmdbmi	r0, {r0, r1, r2, r3, r6, r8, r9, sl, fp, ip, lr}^
    7530:	2c305f4e 	ldccs	15, cr5, [r0], #-312	; 0xfffffec8
    7534:	54584520 	ldrbpl	r4, [r8], #-1312	; 0xfffffae0
    7538:	495f3049 	ldmdbmi	pc, {r0, r3, r6, ip, sp}^	; <UNPREDICTABLE>
    753c:	007d5152 	rsbseq	r5, sp, r2, asr r1
    7540:	544e4955 	strbpl	r4, [lr], #-2389	; 0xfffff6ab
    7544:	41454c5f 	cmpmi	r5, pc, asr ip
    7548:	32335453 	eorscc	r5, r3, #1392508928	; 0x53000000
    754c:	58414d5f 	stmdapl	r1, {r0, r1, r2, r3, r4, r6, r8, sl, fp, lr}^
    7550:	5f5f2820 	svcpl	0x005f2820
    7554:	544e4955 	strbpl	r4, [lr], #-2389	; 0xfffff6ab
    7558:	41454c5f 	cmpmi	r5, pc, asr ip
    755c:	32335453 	eorscc	r5, r3, #1392508928	; 0x53000000
    7560:	58414d5f 	stmdapl	r1, {r0, r1, r2, r3, r4, r6, r8, sl, fp, lr}^
    7564:	00295f5f 	eoreq	r5, r9, pc, asr pc
    7568:	49545845 	ldmdbmi	r4, {r0, r2, r6, fp, ip, lr}^
    756c:	31435031 	cmpcc	r3, r1, lsr r0
    7570:	58452820 	stmdapl	r5, {r5, fp, sp}^
    7574:	475f4954 			; <UNDEFINED> instruction: 0x475f4954
    7578:	5f4f4950 	svcpl	0x004f4950
    757c:	7070614d 	rsbsvc	r6, r0, sp, asr #2
    7580:	5f676e69 	svcpl	0x00676e69
    7584:	457b2974 	ldrbmi	r2, [fp, #-2420]!	; 0xfffff68c
    7588:	31495458 	cmpcc	r9, r8, asr r4
    758c:	5047202c 	subpl	r2, r7, ip, lsr #32
    7590:	2c434f49 	mcrrcs	15, 4, r4, r3, cr9
    7594:	49504720 	ldmdbmi	r0, {r5, r8, r9, sl, lr}^
    7598:	49505f4f 	ldmdbmi	r0, {r0, r1, r2, r3, r6, r8, r9, sl, fp, ip, lr}^
    759c:	2c315f4e 	ldccs	15, cr5, [r1], #-312	; 0xfffffec8
    75a0:	54584520 	ldrbpl	r4, [r8], #-1312	; 0xfffffae0
    75a4:	495f3149 	ldmdbmi	pc, {r0, r3, r6, r8, ip, sp}^	; <UNPREDICTABLE>
    75a8:	007d5152 	rsbseq	r5, sp, r2, asr r1
    75ac:	5f434352 	svcpl	0x00434352
    75b0:	52415355 	subpl	r5, r1, #1409286145	; 0x54000001
    75b4:	435f3354 	cmpmi	pc, #84, 6	; 0x50000001
    75b8:	455f4b4c 	ldrbmi	r4, [pc, #-2892]	; 6a74 <_Min_Stack_Size+0x6674>
    75bc:	2029284e 	eorcs	r2, r9, lr, asr #16
    75c0:	43435228 	movtmi	r5, #12840	; 0x3228
    75c4:	50413e2d 	subpl	r3, r1, sp, lsr #28
    75c8:	4e453142 	dvfmism	f3, f5, f2
    75cc:	3d7c2052 	ldclcc	0, cr2, [ip, #-328]!	; 0xfffffeb8
    75d0:	3c312820 	ldccc	8, cr2, [r1], #-128	; 0xffffff80
    75d4:	2938313c 	ldmdbcs	r8!, {r2, r3, r4, r5, r8, ip, sp}
    75d8:	5f5f0029 	svcpl	0x005f0029
    75dc:	43434153 	movtmi	r4, #12627	; 0x3153
    75e0:	4d5f4d55 	ldclmi	13, cr4, [pc, #-340]	; 7494 <_Min_Stack_Size+0x7094>
    75e4:	5f5f5841 	svcpl	0x005f5841
    75e8:	37583020 	ldrbcc	r3, [r8, -r0, lsr #32]
    75ec:	50464646 	subpl	r4, r6, r6, asr #12
    75f0:	4b48372d 	blmi	12152ac <_Min_Stack_Size+0x1214eac>
    75f4:	495f5f00 	ldmdbmi	pc, {r8, r9, sl, fp, ip, lr}^	; <UNPREDICTABLE>
    75f8:	5450544e 	ldrbpl	r5, [r0], #-1102	; 0xfffffbb2
    75fc:	59545f52 	ldmdbpl	r4, {r1, r4, r6, r8, r9, sl, fp, ip, lr}^
    7600:	5f5f4550 	svcpl	0x005f4550
    7604:	746e6920 	strbtvc	r6, [lr], #-2336	; 0xfffff6e0
    7608:	54584500 	ldrbpl	r4, [r8], #-1280	; 0xfffffb00
    760c:	495f3849 	ldmdbmi	pc, {r0, r3, r6, fp, ip, sp}^	; <UNPREDICTABLE>
    7610:	32205152 	eorcc	r5, r0, #-2147483628	; 0x80000014
    7614:	5f5f0033 	svcpl	0x005f0033
    7618:	544e4955 	strbpl	r4, [lr], #-2389	; 0xfffff6ab
    761c:	5f525450 	svcpl	0x00525450
    7620:	45505954 	ldrbmi	r5, [r0, #-2388]	; 0xfffff6ac
    7624:	75205f5f 	strvc	r5, [r0, #-3935]!	; 0xfffff0a1
    7628:	6769736e 	strbvs	r7, [r9, -lr, ror #6]!
    762c:	2064656e 	rsbcs	r6, r4, lr, ror #10
    7630:	00746e69 	rsbseq	r6, r4, r9, ror #28
    7634:	4f495047 	svcmi	0x00495047
    7638:	444f4d5f 	strbmi	r4, [pc], #-3423	; 7640 <_Min_Stack_Size+0x7240>
    763c:	4e495f45 	cdpmi	15, 4, cr5, cr9, cr5, {2}
    7640:	5f545550 	svcpl	0x00545550
    7644:	30205550 	eorcc	r5, r0, r0, asr r5
    7648:	30303078 	eorscc	r3, r0, r8, ror r0
    764c:	30303030 	eorscc	r3, r0, r0, lsr r0
    7650:	50470032 	subpl	r0, r7, r2, lsr r0
    7654:	20424f49 	subcs	r4, r2, r9, asr #30
    7658:	50472828 	subpl	r2, r7, r8, lsr #16
    765c:	545f4f49 	ldrbpl	r4, [pc], #-3913	; 7664 <_Min_Stack_Size+0x7264>
    7660:	64657079 	strbtvs	r7, [r5], #-121	; 0xffffff87
    7664:	745f6665 	ldrbvc	r6, [pc], #-1637	; 766c <_Min_Stack_Size+0x726c>
    7668:	47292a20 	strmi	r2, [r9, -r0, lsr #20]!
    766c:	424f4950 	submi	r4, pc, #80, 18	; 0x140000
    7670:	5341425f 	movtpl	r4, #4703	; 0x125f
    7674:	5f002945 	svcpl	0x00002945
    7678:	4745525f 	smlsldmi	r5, r5, pc, r2	; <UNPREDICTABLE>
    767c:	45545349 	ldrbmi	r5, [r4, #-841]	; 0xfffffcb7
    7680:	52505f52 	subspl	r5, r0, #328	; 0x148
    7684:	58494645 	stmdapl	r9, {r0, r2, r6, r9, sl, lr}^
    7688:	00205f5f 	eoreq	r5, r0, pc, asr pc
    768c:	4c465f5f 	mcrrmi	15, 5, r5, r6, cr15
    7690:	5f323354 	svcpl	0x00323354
    7694:	5f58414d 	svcpl	0x0058414d
    7698:	2e33205f 	mrccs	0, 1, r2, cr3, cr15, {2}
    769c:	38323034 	ldmdacc	r2!, {r2, r4, r5, ip, sp}
    76a0:	36343332 			; <UNDEFINED> instruction: 0x36343332
    76a4:	35383336 	ldrcc	r3, [r8, #-822]!	; 0xfffffcca
    76a8:	36383832 			; <UNDEFINED> instruction: 0x36383832
    76ac:	38332b65 	ldmdacc	r3!, {r0, r2, r5, r6, r8, r9, fp, sp}
    76b0:	00323346 	eorseq	r3, r2, r6, asr #6
    76b4:	42445f5f 	submi	r5, r4, #380	; 0x17c
    76b8:	49445f4c 	stmdbmi	r4, {r2, r3, r6, r8, r9, sl, fp, ip, lr}^
    76bc:	205f5f47 	subscs	r5, pc, r7, asr #30
    76c0:	5f003531 	svcpl	0x00003531
    76c4:	464c555f 			; <UNDEFINED> instruction: 0x464c555f
    76c8:	54434152 	strbpl	r4, [r3], #-338	; 0xfffffeae
    76cc:	5350455f 	cmppl	r0, #398458880	; 0x17c00000
    76d0:	4e4f4c49 	cdpmi	12, 4, cr4, cr15, cr9, {2}
    76d4:	30205f5f 	eorcc	r5, r0, pc, asr pc
    76d8:	2d503178 	ldfcse	f3, [r0, #-480]	; 0xfffffe20
    76dc:	4c553233 	lfmmi	f3, 2, [r5], {51}	; 0x33
    76e0:	5f5f0052 	svcpl	0x005f0052
    76e4:	49534352 	ldmdbmi	r3, {r1, r4, r6, r8, r9, lr}^
    76e8:	29732844 	ldmdbcs	r3!, {r2, r6, fp, sp}^
    76ec:	72747320 	rsbsvc	r7, r4, #32, 6	; 0x80000000
    76f0:	20746375 	rsbscs	r6, r4, r5, ror r3
    76f4:	61685f5f 	cmnvs	r8, pc, asr pc
    76f8:	47006b63 	strmi	r6, [r0, -r3, ror #22]
    76fc:	474f4950 	smlsldmi	r4, pc, r0, r9	; <UNPREDICTABLE>
    7700:	5341425f 	movtpl	r4, #4703	; 0x125f
    7704:	78302045 	ldmdavc	r0!, {r0, r2, r6, sp}
    7708:	31303034 	teqcc	r0, r4, lsr r0
    770c:	30303032 	eorscc	r3, r0, r2, lsr r0
    7710:	525f0075 	subspl	r0, pc, #117	; 0x75
    7714:	544e4545 	strbpl	r4, [lr], #-1349	; 0xfffffabb
    7718:	34364c5f 	ldrtcc	r4, [r6], #-3167	; 0xfffff3a1
    771c:	55425f41 	strbpl	r5, [r2, #-3905]	; 0xfffff0bf
    7720:	74702846 	ldrbtvc	r2, [r0], #-2118	; 0xfffff7ba
    7724:	28202972 	stmdacs	r0!, {r1, r4, r5, r6, r8, fp, sp}
    7728:	72747028 	rsbsvc	r7, r4, #40	; 0x28
    772c:	5f3e2d29 	svcpl	0x003e2d29
    7730:	6373696d 	cmnvs	r3, #1785856	; 0x1b4000
    7734:	6c5f3e2d 	mrrcvs	14, 2, r3, pc, cr13	; <UNPREDICTABLE>
    7738:	5f613436 	svcpl	0x00613436
    773c:	29667562 	stmdbcs	r6!, {r1, r5, r6, r8, sl, ip, sp, lr}^
    7740:	535f5f00 	cmppl	pc, #0, 30
    7744:	4f455a49 	svcmi	0x00455a49
    7748:	49535f46 	ldmdbmi	r3, {r1, r2, r6, r8, r9, sl, fp, ip, lr}^
    774c:	545f455a 	ldrbpl	r4, [pc], #-1370	; 7754 <_Min_Stack_Size+0x7354>
    7750:	34205f5f 	strtcc	r5, [r0], #-3935	; 0xfffff0a1
    7754:	54584500 	ldrbpl	r4, [r8], #-1280	; 0xfffffb00
    7758:	46435f49 	strbmi	r5, [r3], -r9, asr #30
    775c:	5f5f0047 	svcpl	0x005f0047
    7760:	36544e49 	ldrbcc	r4, [r4], -r9, asr #28
    7764:	28435f34 	stmdacs	r3, {r2, r4, r5, r8, r9, sl, fp, ip, lr}^
    7768:	63202963 			; <UNDEFINED> instruction: 0x63202963
    776c:	20232320 	eorcs	r2, r3, r0, lsr #6
    7770:	48004c4c 	stmdami	r0, {r2, r3, r6, sl, fp, lr}
    7774:	5f455641 	svcpl	0x00455641
    7778:	54494e49 	strbpl	r4, [r9], #-3657	; 0xfffff1b7
    777c:	494e4946 	stmdbmi	lr, {r1, r2, r6, r8, fp, lr}^
    7780:	5252415f 	subspl	r4, r2, #-1073741801	; 0xc0000017
    7784:	31205941 			; <UNDEFINED> instruction: 0x31205941
    7788:	6c5f5f00 	mrrcvs	15, 0, r5, pc, cr0	; <UNPREDICTABLE>
    778c:	616b636f 	cmnvs	fp, pc, ror #6
    7790:	20656c62 	rsbcs	r6, r5, r2, ror #24
    7794:	6f6c5f5f 	svcvs	0x006c5f5f
    7798:	615f6b63 	cmpvs	pc, r3, ror #22
    779c:	746f6e6e 	strbtvc	r6, [pc], #-3694	; 77a4 <_Min_Stack_Size+0x73a4>
    77a0:	28657461 	stmdacs	r5!, {r0, r5, r6, sl, ip, sp, lr}^
    77a4:	6b636f6c 	blvs	18e355c <_Min_Stack_Size+0x18e315c>
    77a8:	656c6261 	strbvs	r6, [ip, #-609]!	; 0xfffffd9f
    77ac:	58450029 	stmdapl	r5, {r0, r3, r5}^
    77b0:	35314954 	ldrcc	r4, [r1, #-2388]!	; 0xfffff6ac
    77b4:	35314350 	ldrcc	r4, [r1, #-848]!	; 0xfffffcb0
    77b8:	58452820 	stmdapl	r5, {r5, fp, sp}^
    77bc:	475f4954 			; <UNDEFINED> instruction: 0x475f4954
    77c0:	5f4f4950 	svcpl	0x004f4950
    77c4:	7070614d 	rsbsvc	r6, r0, sp, asr #2
    77c8:	5f676e69 	svcpl	0x00676e69
    77cc:	457b2974 	ldrbmi	r2, [fp, #-2420]!	; 0xfffff68c
    77d0:	31495458 	cmpcc	r9, r8, asr r4
    77d4:	47202c35 			; <UNDEFINED> instruction: 0x47202c35
    77d8:	434f4950 	movtmi	r4, #63824	; 0xf950
    77dc:	5047202c 	subpl	r2, r7, ip, lsr #32
    77e0:	505f4f49 	subspl	r4, pc, r9, asr #30
    77e4:	315f4e49 	cmpcc	pc, r9, asr #28
    77e8:	45202c35 	strmi	r2, [r0, #-3125]!	; 0xfffff3cb
    77ec:	31495458 	cmpcc	r9, r8, asr r4
    77f0:	52495f35 	subpl	r5, r9, #53, 30	; 0xd4
    77f4:	5f007d51 	svcpl	0x00007d51
    77f8:	444e455f 	strbmi	r4, [lr], #-1375	; 0xfffffaa1
    77fc:	4345445f 	movtmi	r4, #21599	; 0x545f
    7800:	0020534c 	eoreq	r5, r0, ip, asr #6
    7804:	444c5f5f 	strbmi	r5, [ip], #-3935	; 0xfffff0a1
    7808:	4d5f4c42 	ldclmi	12, cr4, [pc, #-264]	; 7708 <_Min_Stack_Size+0x7308>
    780c:	5f5f4e49 	svcpl	0x005f4e49
    7810:	322e3220 	eorcc	r3, lr, #32, 4
    7814:	37303532 			; <UNDEFINED> instruction: 0x37303532
    7818:	38353833 	ldmdacc	r5!, {r0, r1, r4, r5, fp, ip, sp}
    781c:	32373035 	eorscc	r3, r7, #53	; 0x35
    7820:	65343130 	ldrvs	r3, [r4, #-304]!	; 0xfffffed0
    7824:	3830332d 	ldmdacc	r0!, {r0, r2, r3, r5, r8, r9, ip, sp}
    7828:	564e004c 	strbpl	r0, [lr], -ip, asr #32
    782c:	535f4349 	cmppl	pc, #603979777	; 0x24000001
    7830:	5f334950 	svcpl	0x00334950
    7834:	5f515249 	svcpl	0x00515249
    7838:	62616e45 	rsbvs	r6, r1, #1104	; 0x450
    783c:	2820656c 	stmdacs	r0!, {r2, r3, r5, r6, r8, sl, sp, lr}
    7840:	4349564e 	movtmi	r5, #38478	; 0x964e
    7844:	4553495f 	ldrbmi	r4, [r3, #-2399]	; 0xfffff6a1
    7848:	7c203152 	stfvcs	f3, [r0], #-328	; 0xfffffeb8
    784c:	3c31203d 	ldccc	0, cr2, [r1], #-244	; 0xffffff0c
    7850:	5053283c 	subspl	r2, r3, ip, lsr r8
    7854:	495f3349 	ldmdbmi	pc, {r0, r3, r6, r8, r9, ip, sp}^	; <UNPREDICTABLE>
    7858:	2d205152 	stfcss	f5, [r0, #-328]!	; 0xfffffeb8
    785c:	29323320 	ldmdbcs	r2!, {r5, r8, r9, ip, sp}
    7860:	5f5f0029 	svcpl	0x005f0029
    7864:	5f4d5241 	svcpl	0x004d5241
    7868:	54414546 	strbpl	r4, [r1], #-1350	; 0xfffffaba
    786c:	5f455255 	svcpl	0x00455255
    7870:	00454443 	subeq	r4, r5, r3, asr #8
    7874:	43415f5f 	movtmi	r5, #8031	; 0x1f5f
    7878:	5f4d5543 	svcpl	0x004d5543
    787c:	54494249 	strbpl	r4, [r9], #-585	; 0xfffffdb7
    7880:	31205f5f 			; <UNDEFINED> instruction: 0x31205f5f
    7884:	58450036 	stmdapl	r5, {r1, r2, r4, r5}^
    7888:	33314954 	teqcc	r1, #84, 18	; 0x150000
    788c:	33314250 	teqcc	r1, #80, 4
    7890:	58452820 	stmdapl	r5, {r5, fp, sp}^
    7894:	475f4954 			; <UNDEFINED> instruction: 0x475f4954
    7898:	5f4f4950 	svcpl	0x004f4950
    789c:	7070614d 	rsbsvc	r6, r0, sp, asr #2
    78a0:	5f676e69 	svcpl	0x00676e69
    78a4:	457b2974 	ldrbmi	r2, [fp, #-2420]!	; 0xfffff68c
    78a8:	31495458 	cmpcc	r9, r8, asr r4
    78ac:	47202c33 			; <UNDEFINED> instruction: 0x47202c33
    78b0:	424f4950 	submi	r4, pc, #80, 18	; 0x140000
    78b4:	5047202c 	subpl	r2, r7, ip, lsr #32
    78b8:	505f4f49 	subspl	r4, pc, r9, asr #30
    78bc:	315f4e49 	cmpcc	pc, r9, asr #28
    78c0:	45202c33 	strmi	r2, [r0, #-3123]!	; 0xfffff3cd
    78c4:	31495458 	cmpcc	r9, r8, asr r4
    78c8:	52495f33 	subpl	r5, r9, #51, 30	; 0xcc
    78cc:	75007d51 	strvc	r7, [r0, #-3409]	; 0xfffff2af
    78d0:	6769736e 	strbvs	r7, [r9, -lr, ror #6]!
    78d4:	0064656e 	rsbeq	r6, r4, lr, ror #10
    78d8:	5f434e49 	svcpl	0x00434e49
    78dc:	334d5453 	movtcc	r5, #54355	; 0xd453
    78e0:	31465f32 	cmpcc	r6, r2, lsr pc
    78e4:	36433330 			; <UNDEFINED> instruction: 0x36433330
    78e8:	4952445f 	ldmdbmi	r2, {r0, r1, r2, r3, r4, r6, sl, lr}^
    78ec:	53524556 	cmppl	r2, #360710144	; 0x15800000
    78f0:	5458455f 	ldrbpl	r4, [r8], #-1375	; 0xfffffaa1
    78f4:	5f485f49 	svcpl	0x00485f49
    78f8:	5f5f0020 	svcpl	0x005f0020
    78fc:	675f7470 			; <UNDEFINED> instruction: 0x675f7470
    7900:	64726175 	ldrbtvs	r6, [r2], #-373	; 0xfffffe8b
    7904:	625f6465 	subsvs	r6, pc, #1694498816	; 0x65000000
    7908:	29782879 	ldmdbcs	r8!, {r0, r3, r4, r5, r6, fp, sp}^
    790c:	6c5f5f20 	mrrcvs	15, 2, r5, pc, cr0	; <UNPREDICTABLE>
    7910:	5f6b636f 	svcpl	0x006b636f
    7914:	6f6e6e61 	svcvs	0x006e6e61
    7918:	65746174 	ldrbvs	r6, [r4, #-372]!	; 0xfffffe8c
    791c:	5f747028 	svcpl	0x00747028
    7920:	72617567 	rsbvc	r7, r1, #432013312	; 0x19c00000
    7924:	5f646564 	svcpl	0x00646564
    7928:	78287962 	stmdavc	r8!, {r1, r5, r6, r8, fp, ip, sp, lr}
    792c:	49002929 	stmdbmi	r0, {r0, r3, r5, r8, fp, sp}
    7930:	5f525350 	svcpl	0x00525350
    7934:	0074756f 	rsbseq	r7, r4, pc, ror #10
    7938:	49545845 	ldmdbmi	r4, {r0, r2, r6, fp, ip, lr}^
    793c:	495f3231 	ldmdbmi	pc, {r0, r4, r5, r9, ip, sp}^	; <UNPREDICTABLE>
    7940:	34205152 	strtcc	r5, [r0], #-338	; 0xfffffeae
    7944:	5f5f0030 	svcpl	0x005f0030
    7948:	43554e47 	cmpmi	r5, #1136	; 0x470
    794c:	454b494c 	strbmi	r4, [fp, #-2380]	; 0xfffff6b4
    7950:	4f5f5f5f 	svcmi	0x005f5f5f
    7954:	45534646 	ldrbmi	r4, [r3, #-1606]	; 0xfffff9ba
    7958:	20464f54 	subcs	r4, r6, r4, asr pc
    795c:	5f5f0031 	svcpl	0x005f0031
    7960:	544e4955 	strbpl	r4, [lr], #-2389	; 0xfffff6ab
    7964:	435f3631 	cmpmi	pc, #51380224	; 0x3100000
    7968:	20296328 	eorcs	r6, r9, r8, lsr #6
    796c:	5f5f0063 	svcpl	0x005f0063
    7970:	36544c46 	ldrbcc	r4, [r4], -r6, asr #24
    7974:	494d5f34 	stmdbmi	sp, {r2, r4, r5, r8, r9, sl, fp, ip, lr}^
    7978:	58455f4e 	stmdapl	r5, {r1, r2, r3, r6, r8, r9, sl, fp, ip, lr}^
    797c:	205f5f50 	subscs	r5, pc, r0, asr pc	; <UNPREDICTABLE>
    7980:	30312d28 	eorscc	r2, r1, r8, lsr #26
    7984:	00293132 	eoreq	r3, r9, r2, lsr r1
    7988:	79735f5f 	ldmdbvc	r3!, {r0, r1, r2, r3, r4, r6, r8, r9, sl, fp, ip, lr}^
    798c:	6f635f6d 	svcvs	0x00635f6d
    7990:	7461706d 	strbtvc	r7, [r1], #-109	; 0xffffff93
    7994:	6d797328 	ldclvs	3, cr7, [r9, #-160]!	; 0xffffff60
    7998:	706d692c 	rsbvc	r6, sp, ip, lsr #18
    799c:	65762c6c 	ldrbvs	r2, [r6, #-3180]!	; 0xfffff394
    79a0:	29646972 	stmdbcs	r4!, {r1, r4, r5, r6, r8, fp, sp, lr}^
    79a4:	615f5f20 	cmpvs	pc, r0, lsr #30
    79a8:	5f5f6d73 	svcpl	0x005f6d73
    79ac:	732e2228 			; <UNDEFINED> instruction: 0x732e2228
    79b0:	65766d79 	ldrbvs	r6, [r6, #-3449]!	; 0xfffff287
    79b4:	20222072 	eorcs	r2, r2, r2, ror r0
    79b8:	706d6923 	rsbvc	r6, sp, r3, lsr #18
    79bc:	2c22206c 	stccs	0, cr2, [r2], #-432	; 0xfffffe50
    79c0:	23202220 			; <UNDEFINED> instruction: 0x23202220
    79c4:	206d7973 	rsbcs	r7, sp, r3, ror r9
    79c8:	20224022 	eorcs	r4, r2, r2, lsr #32
    79cc:	72657623 	rsbvc	r7, r5, #36700160	; 0x2300000
    79d0:	00296469 	eoreq	r6, r9, r9, ror #8
    79d4:	43435f5f 	movtmi	r5, #16223	; 0x3f5f
    79d8:	5055535f 	subspl	r5, r5, pc, asr r3
    79dc:	54524f50 	ldrbpl	r4, [r2], #-3920	; 0xfffff0b0
    79e0:	5f5f5f53 	svcpl	0x005f5f53
    79e4:	494c4e49 	stmdbmi	ip, {r0, r3, r6, r9, sl, fp, lr}^
    79e8:	5f5f454e 	svcpl	0x005f454e
    79ec:	5f003120 	svcpl	0x00003120
    79f0:	4144555f 	cmpmi	r4, pc, asr r5
    79f4:	4942495f 	stmdbmi	r2, {r0, r1, r2, r3, r4, r6, r8, fp, lr}^
    79f8:	205f5f54 	subscs	r5, pc, r4, asr pc	; <UNPREDICTABLE>
    79fc:	5f003233 	svcpl	0x00003233
    7a00:	41454c5f 	cmpmi	r5, pc, asr ip
    7a04:	36315453 			; <UNDEFINED> instruction: 0x36315453
    7a08:	22682220 	rsbcs	r2, r8, #32, 4
    7a0c:	705f5f00 	subsvc	r5, pc, r0, lsl #30
    7a10:	746e6972 	strbtvc	r6, [lr], #-2418	; 0xfffff68e
    7a14:	6b696c66 	blvs	1a62bb4 <_Min_Stack_Size+0x1a627b4>
    7a18:	6d662865 	stclvs	8, cr2, [r6, #-404]!	; 0xfffffe6c
    7a1c:	67726174 			; <UNDEFINED> instruction: 0x67726174
    7a20:	7269662c 	rsbvc	r6, r9, #44, 12	; 0x2c00000
    7a24:	61767473 	cmnvs	r6, r3, ror r4
    7a28:	67726172 			; <UNDEFINED> instruction: 0x67726172
    7a2c:	5f5f2029 	svcpl	0x005f2029
    7a30:	72747461 	rsbsvc	r7, r4, #1627389952	; 0x61000000
    7a34:	74756269 	ldrbtvc	r6, [r5], #-617	; 0xfffffd97
    7a38:	285f5f65 	ldmdacs	pc, {r0, r2, r5, r6, r8, r9, sl, fp, ip, lr}^	; <UNPREDICTABLE>
    7a3c:	665f5f28 	ldrbvs	r5, [pc], -r8, lsr #30
    7a40:	616d726f 	cmnvs	sp, pc, ror #4
    7a44:	205f5f74 	subscs	r5, pc, r4, ror pc	; <UNPREDICTABLE>
    7a48:	705f5f28 	subsvc	r5, pc, r8, lsr #30
    7a4c:	746e6972 	strbtvc	r6, [lr], #-2418	; 0xfffff68e
    7a50:	2c5f5f66 	mrrccs	15, 6, r5, pc, cr6	; <UNPREDICTABLE>
    7a54:	746d6620 	strbtvc	r6, [sp], #-1568	; 0xfffff9e0
    7a58:	2c677261 	sfmcs	f7, 2, [r7], #-388	; 0xfffffe7c
    7a5c:	72696620 	rsbvc	r6, r9, #32, 12	; 0x2000000
    7a60:	61767473 	cmnvs	r6, r3, ror r4
    7a64:	67726172 			; <UNDEFINED> instruction: 0x67726172
    7a68:	00292929 	eoreq	r2, r9, r9, lsr #18
    7a6c:	4f4e5f5f 	svcmi	0x004e5f5f
    7a70:	4c4e495f 	mcrrmi	9, 5, r4, lr, cr15	; <UNPREDICTABLE>
    7a74:	5f454e49 	svcpl	0x00454e49
    7a78:	0031205f 	eorseq	r2, r1, pc, asr r0
    7a7c:	4349564e 	movtmi	r5, #38478	; 0x964e
    7a80:	4950535f 	ldmdbmi	r0, {r0, r1, r2, r3, r4, r6, r8, r9, ip, lr}^
    7a84:	52495f32 	subpl	r5, r9, #50, 30	; 0xc8
    7a88:	6e455f51 	mcrvs	15, 2, r5, cr5, cr1, {2}
    7a8c:	656c6261 	strbvs	r6, [ip, #-609]!	; 0xfffffd9f
    7a90:	564e2820 	strbpl	r2, [lr], -r0, lsr #16
    7a94:	495f4349 	ldmdbmi	pc, {r0, r3, r6, r8, r9, lr}^	; <UNPREDICTABLE>
    7a98:	31524553 	cmpcc	r2, r3, asr r5
    7a9c:	203d7c20 	eorscs	r7, sp, r0, lsr #24
    7aa0:	283c3c31 	ldmdacs	ip!, {r0, r4, r5, sl, fp, ip, sp}
    7aa4:	32495053 	subcc	r5, r9, #83	; 0x53
    7aa8:	5152495f 	cmppl	r2, pc, asr r9
    7aac:	33202d20 			; <UNDEFINED> instruction: 0x33202d20
    7ab0:	00292932 	eoreq	r2, r9, r2, lsr r9
    7ab4:	61665f5f 	cmnvs	r6, pc, asr pc
    7ab8:	61637473 	smcvs	14147	; 0x3743
    7abc:	5f206c6c 	svcpl	0x00206c6c
    7ac0:	7474615f 	ldrbtvc	r6, [r4], #-351	; 0xfffffea1
    7ac4:	75626972 	strbvc	r6, [r2, #-2418]!	; 0xfffff68e
    7ac8:	5f5f6574 	svcpl	0x005f6574
    7acc:	5f5f2828 	svcpl	0x005f2828
    7ad0:	74736166 	ldrbtvc	r6, [r3], #-358	; 0xfffffe9a
    7ad4:	6c6c6163 	stfvse	f6, [ip], #-396	; 0xfffffe74
    7ad8:	29295f5f 	stmdbcs	r9!, {r0, r1, r2, r3, r4, r6, r8, r9, sl, fp, ip, lr}
    7adc:	544e4900 	strbpl	r4, [lr], #-2304	; 0xfffff700
    7ae0:	4d5f3436 	cfldrdmi	mvd3, [pc, #-216]	; 7a10 <_Min_Stack_Size+0x7610>
    7ae4:	28204e49 	stmdacs	r0!, {r0, r3, r6, r9, sl, fp, lr}
    7ae8:	495f5f2d 	ldmdbmi	pc, {r0, r2, r3, r5, r8, r9, sl, fp, ip, lr}^	; <UNPREDICTABLE>
    7aec:	3436544e 	ldrtcc	r5, [r6], #-1102	; 0xfffffbb2
    7af0:	58414d5f 	stmdapl	r1, {r0, r1, r2, r3, r4, r6, r8, sl, fp, lr}^
    7af4:	2d205f5f 	stccs	15, cr5, [r0, #-380]!	; 0xfffffe84
    7af8:	00293120 	eoreq	r3, r9, r0, lsr #2
    7afc:	6f6c5f5f 	svcvs	0x006c5f5f
    7b00:	615f6b63 	cmpvs	pc, r3, ror #22
    7b04:	746f6e6e 	strbtvc	r6, [pc], #-3694	; 7b0c <_Min_Stack_Size+0x770c>
    7b08:	28657461 	stmdacs	r5!, {r0, r5, r6, sl, ip, sp, lr}^
    7b0c:	00202978 	eoreq	r2, r0, r8, ror r9
    7b10:	54494c5f 	strbpl	r4, [r9], #-3167	; 0xfffff3a1
    7b14:	58455f45 	stmdapl	r5, {r0, r2, r6, r8, r9, sl, fp, ip, lr}^
    7b18:	31205449 			; <UNDEFINED> instruction: 0x31205449
    7b1c:	415f5f00 	cmpmi	pc, r0, lsl #30
    7b20:	494d4f54 	stmdbmi	sp, {r2, r4, r6, r8, r9, sl, fp, lr}^
    7b24:	45525f43 	ldrbmi	r5, [r2, #-3907]	; 0xfffff0bd
    7b28:	4558414c 	ldrbmi	r4, [r8, #-332]	; 0xfffffeb4
    7b2c:	00302044 	eorseq	r2, r0, r4, asr #32
    7b30:	5454415f 	ldrbpl	r4, [r4], #-351	; 0xfffffea1
    7b34:	55424952 	strbpl	r4, [r2, #-2386]	; 0xfffff6ae
    7b38:	61284554 			; <UNDEFINED> instruction: 0x61284554
    7b3c:	73727474 	cmnvc	r2, #116, 8	; 0x74000000
    7b40:	5f5f2029 	svcpl	0x005f2029
    7b44:	72747461 	rsbsvc	r7, r4, #1627389952	; 0x61000000
    7b48:	74756269 	ldrbtvc	r6, [r5], #-617	; 0xfffffd97
    7b4c:	205f5f65 	subscs	r5, pc, r5, ror #30
    7b50:	74746128 	ldrbtvc	r6, [r4], #-296	; 0xfffffed8
    7b54:	00297372 	eoreq	r7, r9, r2, ror r3
    7b58:	52415f5f 	subpl	r5, r1, #380	; 0x17c
    7b5c:	45465f4d 	strbmi	r5, [r6, #-3917]	; 0xfffff0b3
    7b60:	52555441 	subspl	r5, r5, #1090519040	; 0x41000000
    7b64:	4f435f45 	svcmi	0x00435f45
    7b68:	434f5250 	movtmi	r5, #62032	; 0xf250
    7b6c:	465f5f00 	ldrbmi	r5, [pc], -r0, lsl #30
    7b70:	38545341 	ldmdacc	r4, {r0, r6, r8, r9, ip, lr}^
    7b74:	5f5f0020 	svcpl	0x005f0020
    7b78:	52545441 	subspl	r5, r4, #1090519040	; 0x41000000
    7b7c:	54554249 	ldrbpl	r4, [r5], #-585	; 0xfffffdb7
    7b80:	4d495f45 	stclmi	15, cr5, [r9, #-276]	; 0xfffffeec
    7b84:	45525550 	ldrbmi	r5, [r2, #-1360]	; 0xfffffab0
    7b88:	5254505f 	subspl	r5, r4, #95	; 0x5f
    7b8c:	00205f5f 	eoreq	r5, r0, pc, asr pc
    7b90:	42445f5f 	submi	r5, r4, #380	; 0x17c
    7b94:	41485f4c 	cmpmi	r8, ip, asr #30
    7b98:	4e495f53 	mcrmi	15, 2, r5, cr9, cr3, {2}
    7b9c:	494e4946 	stmdbmi	lr, {r1, r2, r6, r8, fp, lr}^
    7ba0:	5f5f5954 	svcpl	0x005f5954
    7ba4:	5f003120 	svcpl	0x00003120
    7ba8:	4749535f 	smlsldmi	r5, r9, pc, r3	; <UNPREDICTABLE>
    7bac:	4f54415f 	svcmi	0x0054415f
    7bb0:	5f43494d 	svcpl	0x0043494d
    7bb4:	5f58414d 	svcpl	0x0058414d
    7bb8:	7830205f 	ldmdavc	r0!, {r0, r1, r2, r3, r4, r6, sp}
    7bbc:	66666637 			; <UNDEFINED> instruction: 0x66666637
    7bc0:	66666666 	strbtvs	r6, [r6], -r6, ror #12
    7bc4:	41525f00 	cmpmi	r2, r0, lsl #30
    7bc8:	3834444e 	ldmdacc	r4!, {r1, r2, r3, r6, sl, lr}
    7bcc:	4c554d5f 	mrrcmi	13, 5, r4, r5, cr15
    7bd0:	20305f54 	eorscs	r5, r0, r4, asr pc
    7bd4:	65783028 	ldrbvs	r3, [r8, #-40]!	; 0xffffffd8
    7bd8:	29643636 	stmdbcs	r4!, {r1, r2, r4, r5, r9, sl, ip, sp}^
    7bdc:	49504700 	ldmdbmi	r0, {r8, r9, sl, lr}^
    7be0:	4f4d5f4f 	svcmi	0x004d5f4f
    7be4:	495f4544 	ldmdbmi	pc, {r2, r6, r8, sl, lr}^	; <UNPREDICTABLE>
    7be8:	5455504e 	ldrbpl	r5, [r5], #-78	; 0xffffffb2
    7bec:	2046415f 	subcs	r4, r6, pc, asr r1
    7bf0:	30307830 	eorscc	r7, r0, r0, lsr r8
    7bf4:	30303030 	eorscc	r3, r0, r0, lsr r0
    7bf8:	5f003830 	svcpl	0x00003830
    7bfc:	4e454552 	mcrmi	5, 2, r4, cr5, cr2, {2}
    7c00:	48435f54 	stmdami	r3, {r2, r4, r6, r8, r9, sl, fp, ip, lr}^
    7c04:	5f4b4345 	svcpl	0x004b4345
    7c08:	444e4152 	strbmi	r4, [lr], #-338	; 0xfffffeae
    7c0c:	76283834 			; <UNDEFINED> instruction: 0x76283834
    7c10:	20297261 	eorcs	r7, r9, r1, ror #4
    7c14:	4545525f 	strbmi	r5, [r5, #-607]	; 0xfffffda1
    7c18:	435f544e 	cmpmi	pc, #1308622848	; 0x4e000000
    7c1c:	4b434548 	blmi	10d9144 <_Min_Stack_Size+0x10d8d44>
    7c20:	72617628 	rsbvc	r7, r1, #40, 12	; 0x2800000
    7c24:	725f202c 	subsvc	r2, pc, #44	; 0x2c
    7c28:	202c3834 	eorcs	r3, ip, r4, lsr r8
    7c2c:	75727473 	ldrbvc	r7, [r2, #-1139]!	; 0xfffffb8d
    7c30:	5f207463 	svcpl	0x00207463
    7c34:	646e6172 	strbtvs	r6, [lr], #-370	; 0xfffffe8e
    7c38:	2a203834 	bcs	815d10 <_Min_Stack_Size+0x815910>
    7c3c:	6973202c 	ldmdbvs	r3!, {r2, r3, r5, sp}^
    7c40:	666f657a 			; <UNDEFINED> instruction: 0x666f657a
    7c44:	28282a20 	stmdacs	r8!, {r5, r9, fp, sp}
    7c48:	29726176 	ldmdbcs	r2!, {r1, r2, r4, r5, r6, r8, sp, lr}^
    7c4c:	725f3e2d 	subsvc	r3, pc, #720	; 0x2d0
    7c50:	2c293834 	stccs	8, cr3, [r9], #-208	; 0xffffff30
    7c54:	45525f20 	ldrbmi	r5, [r2, #-3872]	; 0xfffff0e0
    7c58:	5f544e45 	svcpl	0x00544e45
    7c5c:	54494e49 	strbpl	r4, [r9], #-3657	; 0xfffff1b7
    7c60:	4e41525f 	mcrmi	2, 2, r5, cr1, cr15, {2}
    7c64:	28383444 	ldmdacs	r8!, {r2, r6, sl, ip, sp}
    7c68:	72617628 	rsbvc	r7, r1, #40, 12	; 0x2800000
    7c6c:	00292929 	eoreq	r2, r9, r9, lsr #18
    7c70:	5445525f 	strbpl	r5, [r5], #-607	; 0xfffffda1
    7c74:	45475241 	strbmi	r5, [r7, #-577]	; 0xfffffdbf
    7c78:	4c424154 	stfmie	f4, [r2], {84}	; 0x54
    7c7c:	4f4c5f45 	svcmi	0x004c5f45
    7c80:	4e494b43 	vmlsmi.f64	d20, d9, d3
    7c84:	00312047 	eorseq	r2, r1, r7, asr #32
    7c88:	49545845 	ldmdbmi	r4, {r0, r2, r6, fp, ip, lr}^
    7c8c:	39435039 	stmdbcc	r3, {r0, r3, r4, r5, ip, lr}^
    7c90:	58452820 	stmdapl	r5, {r5, fp, sp}^
    7c94:	475f4954 			; <UNDEFINED> instruction: 0x475f4954
    7c98:	5f4f4950 	svcpl	0x004f4950
    7c9c:	7070614d 	rsbsvc	r6, r0, sp, asr #2
    7ca0:	5f676e69 	svcpl	0x00676e69
    7ca4:	457b2974 	ldrbmi	r2, [fp, #-2420]!	; 0xfffff68c
    7ca8:	39495458 	stmdbcc	r9, {r3, r4, r6, sl, ip, lr}^
    7cac:	5047202c 	subpl	r2, r7, ip, lsr #32
    7cb0:	2c434f49 	mcrrcs	15, 4, r4, r3, cr9
    7cb4:	49504720 	ldmdbmi	r0, {r5, r8, r9, sl, lr}^
    7cb8:	49505f4f 	ldmdbmi	r0, {r0, r1, r2, r3, r6, r8, r9, sl, fp, ip, lr}^
    7cbc:	2c395f4e 	ldccs	15, cr5, [r9], #-312	; 0xfffffec8
    7cc0:	54584520 	ldrbpl	r4, [r8], #-1312	; 0xfffffae0
    7cc4:	495f3949 	ldmdbmi	pc, {r0, r3, r6, r8, fp, ip, sp}^	; <UNPREDICTABLE>
    7cc8:	007d5152 	rsbseq	r5, sp, r2, asr r1
    7ccc:	49545845 	ldmdbmi	r4, {r0, r2, r6, fp, ip, lr}^
    7cd0:	52495f37 	subpl	r5, r9, #55, 30	; 0xdc
    7cd4:	33322051 	teqcc	r2, #81	; 0x51
    7cd8:	725f5f00 	subsvc	r5, pc, #0, 30
    7cdc:	65676e61 	strbvs	r6, [r7, #-3681]!	; 0xfffff19f
    7ce0:	7428666f 	strtvc	r6, [r8], #-1647	; 0xfffff991
    7ce4:	2c657079 	stclcs	0, cr7, [r5], #-484	; 0xfffffe1c
    7ce8:	72617473 	rsbvc	r7, r1, #1929379840	; 0x73000000
    7cec:	6e652c74 	mcrvs	12, 3, r2, cr5, cr4, {3}
    7cf0:	28202964 	stmdacs	r0!, {r2, r5, r6, r8, fp, sp}
    7cf4:	666f5f5f 	uqsaxvs	r5, pc, pc	; <UNPREDICTABLE>
    7cf8:	74657366 	strbtvc	r7, [r5], #-870	; 0xfffffc9a
    7cfc:	7428666f 	strtvc	r6, [r8], #-1647	; 0xfffff991
    7d00:	2c657079 	stclcs	0, cr7, [r5], #-484	; 0xfffffe1c
    7d04:	646e6520 	strbtvs	r6, [lr], #-1312	; 0xfffffae0
    7d08:	202d2029 	eorcs	r2, sp, r9, lsr #32
    7d0c:	666f5f5f 	uqsaxvs	r5, pc, pc	; <UNPREDICTABLE>
    7d10:	74657366 	strbtvc	r7, [r5], #-870	; 0xfffffc9a
    7d14:	7428666f 	strtvc	r6, [r8], #-1647	; 0xfffff991
    7d18:	2c657079 	stclcs	0, cr7, [r5], #-484	; 0xfffffe1c
    7d1c:	61747320 	cmnvs	r4, r0, lsr #6
    7d20:	29297472 	stmdbcs	r9!, {r1, r4, r5, r6, sl, ip, sp, lr}
    7d24:	554e5f00 	strbpl	r5, [lr, #-3840]	; 0xfffff100
    7d28:	30204c4c 	eorcc	r4, r0, ip, asr #24
    7d2c:	49564e00 	ldmdbmi	r6, {r9, sl, fp, lr}^
    7d30:	50535f43 	subspl	r5, r3, r3, asr #30
    7d34:	495f3149 	ldmdbmi	pc, {r0, r3, r6, r8, ip, sp}^	; <UNPREDICTABLE>
    7d38:	455f5152 	ldrbmi	r5, [pc, #-338]	; 7bee <_Min_Stack_Size+0x77ee>
    7d3c:	6c62616e 	stfvse	f6, [r2], #-440	; 0xfffffe48
    7d40:	4e282065 	cdpmi	0, 2, cr2, cr8, cr5, {3}
    7d44:	5f434956 	svcpl	0x00434956
    7d48:	52455349 	subpl	r5, r5, #603979777	; 0x24000001
    7d4c:	3d7c2031 	ldclcc	0, cr2, [ip, #-196]!	; 0xffffff3c
    7d50:	3c3c3120 	ldfccs	f3, [ip], #-128	; 0xffffff80
    7d54:	49505328 	ldmdbmi	r0, {r3, r5, r8, r9, ip, lr}^
    7d58:	52495f31 	subpl	r5, r9, #49, 30	; 0xc4
    7d5c:	202d2051 	eorcs	r2, sp, r1, asr r0
    7d60:	29293233 	stmdbcs	r9!, {r0, r1, r4, r5, r9, ip, sp}
    7d64:	555f5f00 	ldrbpl	r5, [pc, #-3840]	; 6e6c <_Min_Stack_Size+0x6a6c>
    7d68:	5f534553 	svcpl	0x00534553
    7d6c:	54494e49 	strbpl	r4, [r9], #-3657	; 0xfffff1b7
    7d70:	494e4946 	stmdbmi	lr, {r1, r2, r6, r8, fp, lr}^
    7d74:	31205f5f 			; <UNDEFINED> instruction: 0x31205f5f
    7d78:	4e495500 	cdpmi	5, 4, cr5, cr9, cr0, {0}
    7d7c:	435f3854 	cmpmi	pc, #84, 16	; 0x540000
    7d80:	20297828 	eorcs	r7, r9, r8, lsr #16
    7d84:	49555f5f 	ldmdbmi	r5, {r0, r1, r2, r3, r4, r6, r8, r9, sl, fp, ip, lr}^
    7d88:	5f38544e 	svcpl	0x0038544e
    7d8c:	29782843 	ldmdbcs	r8!, {r0, r1, r6, fp, sp}^
    7d90:	6e5f5f00 	cdpvs	15, 5, cr5, cr15, cr0, {0}
    7d94:	5f646565 	svcpl	0x00646565
    7d98:	64727470 	ldrbtvs	r7, [r2], #-1136	; 0xfffffb90
    7d9c:	5f666669 	svcpl	0x00666669
    7da0:	5f5f0074 	svcpl	0x005f0074
    7da4:	5f4c4244 	svcpl	0x004c4244
    7da8:	49434544 	stmdbmi	r3, {r2, r6, r8, sl, lr}^
    7dac:	5f4c414d 	svcpl	0x004c414d
    7db0:	5f474944 	svcpl	0x00474944
    7db4:	3731205f 			; <UNDEFINED> instruction: 0x3731205f
    7db8:	415f5f00 	cmpmi	pc, r0, lsl #30
    7dbc:	465f4d52 			; <UNDEFINED> instruction: 0x465f4d52
    7dc0:	55544145 	ldrbpl	r4, [r4, #-325]	; 0xfffffebb
    7dc4:	535f4552 	cmppl	pc, #343932928	; 0x14800000
    7dc8:	31205441 			; <UNDEFINED> instruction: 0x31205441
    7dcc:	685f5f00 	ldmdavs	pc, {r8, r9, sl, fp, ip, lr}^	; <UNPREDICTABLE>
    7dd0:	5f657661 	svcpl	0x00657661
    7dd4:	676e6f6c 	strbvs	r6, [lr, -ip, ror #30]!
    7dd8:	31203233 			; <UNDEFINED> instruction: 0x31203233
    7ddc:	544e4900 	strbpl	r4, [lr], #-2304	; 0xfffff700
    7de0:	41454c5f 	cmpmi	r5, pc, asr ip
    7de4:	5f385453 	svcpl	0x00385453
    7de8:	204e494d 	subcs	r4, lr, sp, asr #18
    7dec:	5f5f2d28 	svcpl	0x005f2d28
    7df0:	5f544e49 	svcpl	0x00544e49
    7df4:	5341454c 	movtpl	r4, #5452	; 0x154c
    7df8:	4d5f3854 	ldclmi	8, cr3, [pc, #-336]	; 7cb0 <_Min_Stack_Size+0x78b0>
    7dfc:	5f5f5841 	svcpl	0x005f5841
    7e00:	31202d20 			; <UNDEFINED> instruction: 0x31202d20
    7e04:	475f0029 	ldrbmi	r0, [pc, -r9, lsr #32]
    7e08:	41424f4c 	cmpmi	r2, ip, asr #30
    7e0c:	45525f4c 	ldrbmi	r5, [r2, #-3916]	; 0xfffff0b4
    7e10:	20544e45 	subscs	r4, r4, r5, asr #28
    7e14:	6f6c675f 	svcvs	0x006c675f
    7e18:	5f6c6162 	svcpl	0x006c6162
    7e1c:	75706d69 	ldrbvc	r6, [r0, #-3433]!	; 0xfffff297
    7e20:	705f6572 	subsvc	r6, pc, r2, ror r5	; <UNPREDICTABLE>
    7e24:	5f007274 	svcpl	0x00007274
    7e28:	414c555f 	cmpmi	ip, pc, asr r5
    7e2c:	4d554343 	ldclmi	3, cr4, [r5, #-268]	; 0xfffffef4
    7e30:	4942465f 	stmdbmi	r2, {r0, r1, r2, r3, r4, r6, r9, sl, lr}^
    7e34:	205f5f54 	subscs	r5, pc, r4, asr pc	; <UNPREDICTABLE>
    7e38:	5f003233 	svcpl	0x00003233
    7e3c:	656c665f 	strbvs	r6, [ip, #-1631]!	; 0xfffff9a1
    7e40:	72726178 	rsbsvc	r6, r2, #120, 2
    7e44:	5d305b20 	vldmdbpl	r0!, {d5-d20}
    7e48:	49564e00 	ldmdbmi	r6, {r9, sl, fp, lr}^
    7e4c:	61425f43 	cmpvs	r2, r3, asr #30
    7e50:	30206573 	eorcc	r6, r0, r3, ror r5
    7e54:	30304578 	eorscc	r4, r0, r8, ror r5
    7e58:	30314530 	eorscc	r4, r1, r0, lsr r5
    7e5c:	41007530 	tstmi	r0, r0, lsr r5
    7e60:	4e454248 	cdpmi	2, 4, cr4, cr5, cr8, {2}
    7e64:	49550052 	ldmdbmi	r5, {r1, r4, r6}^
    7e68:	3436544e 	ldrtcc	r5, [r6], #-1102	; 0xfffffbb2
    7e6c:	7828435f 	stmdavc	r8!, {r0, r1, r2, r3, r4, r6, r8, r9, lr}
    7e70:	5f5f2029 	svcpl	0x005f2029
    7e74:	544e4955 	strbpl	r4, [lr], #-2389	; 0xfffff6ab
    7e78:	435f3436 	cmpmi	pc, #905969664	; 0x36000000
    7e7c:	00297828 	eoreq	r7, r9, r8, lsr #16
    7e80:	4545525f 	strbmi	r5, [r5, #-607]	; 0xfffffda1
    7e84:	495f544e 	ldmdbmi	pc, {r1, r2, r3, r6, sl, ip, lr}^	; <UNPREDICTABLE>
    7e88:	5f54494e 	svcpl	0x0054494e
    7e8c:	5f525450 	svcpl	0x00525450
    7e90:	4f52455a 	svcmi	0x0052455a
    7e94:	76284445 	strtvc	r4, [r8], -r5, asr #8
    7e98:	20297261 	eorcs	r7, r9, r1, ror #4
    7e9c:	7628207b 			; <UNDEFINED> instruction: 0x7628207b
    7ea0:	2d297261 	sfmcs	f7, 4, [r9, #-388]!	; 0xfffffe7c
    7ea4:	74735f3e 	ldrbtvc	r5, [r3], #-3902	; 0xfffff0c2
    7ea8:	206e6964 	rsbcs	r6, lr, r4, ror #18
    7eac:	5f28203d 	svcpl	0x0028203d
    7eb0:	4c49465f 	mcrrmi	6, 5, r4, r9, cr15
    7eb4:	292a2045 	stmdbcs	sl!, {r0, r2, r6, sp}
    7eb8:	735f5f26 	cmpvc	pc, #38, 30	; 0x98
    7ebc:	61665f66 	cmnvs	r6, r6, ror #30
    7ec0:	735f656b 	cmpvc	pc, #448790528	; 0x1ac00000
    7ec4:	6e696474 	mcrvs	4, 3, r6, cr9, cr4, {3}
    7ec8:	7628203b 			; <UNDEFINED> instruction: 0x7628203b
    7ecc:	2d297261 	sfmcs	f7, 4, [r9, #-388]!	; 0xfffffe7c
    7ed0:	74735f3e 	ldrbtvc	r5, [r3], #-3902	; 0xfffff0c2
    7ed4:	74756f64 	ldrbtvc	r6, [r5], #-3940	; 0xfffff09c
    7ed8:	28203d20 	stmdacs	r0!, {r5, r8, sl, fp, ip, sp}
    7edc:	49465f5f 	stmdbmi	r6, {r0, r1, r2, r3, r4, r6, r8, r9, sl, fp, ip, lr}^
    7ee0:	2a20454c 	bcs	819418 <_Min_Stack_Size+0x819018>
    7ee4:	5f5f2629 	svcpl	0x005f2629
    7ee8:	665f6673 			; <UNDEFINED> instruction: 0x665f6673
    7eec:	5f656b61 	svcpl	0x00656b61
    7ef0:	6f647473 	svcvs	0x00647473
    7ef4:	203b7475 	eorscs	r7, fp, r5, ror r4
    7ef8:	72617628 	rsbvc	r7, r1, #40, 12	; 0x2800000
    7efc:	5f3e2d29 	svcpl	0x003e2d29
    7f00:	65647473 	strbvs	r7, [r4, #-1139]!	; 0xfffffb8d
    7f04:	3d207272 	sfmcc	f7, 4, [r0, #-456]!	; 0xfffffe38
    7f08:	5f5f2820 	svcpl	0x005f2820
    7f0c:	454c4946 	strbmi	r4, [ip, #-2374]	; 0xfffff6ba
    7f10:	26292a20 	strtcs	r2, [r9], -r0, lsr #20
    7f14:	66735f5f 	uhsaxvs	r5, r3, pc	; <UNPREDICTABLE>
    7f18:	6b61665f 	blvs	186189c <_Min_Stack_Size+0x186149c>
    7f1c:	74735f65 	ldrbtvc	r5, [r3], #-3941	; 0xfffff09b
    7f20:	72726564 	rsbsvc	r6, r2, #100, 10	; 0x19000000
    7f24:	007d203b 	rsbseq	r2, sp, fp, lsr r0
    7f28:	4e495f5f 	mcrmi	15, 2, r5, cr9, cr15, {2}
    7f2c:	5f363154 	svcpl	0x00363154
    7f30:	5f58414d 	svcpl	0x0058414d
    7f34:	7830205f 	ldmdavc	r0!, {r0, r1, r2, r3, r4, r6, sp}
    7f38:	66666637 			; <UNDEFINED> instruction: 0x66666637
    7f3c:	535f5f00 	cmppl	pc, #0, 30
    7f40:	435f5359 	cmpmi	pc, #1677721601	; 0x64000001
    7f44:	49464e4f 	stmdbmi	r6, {r0, r1, r2, r3, r6, r9, sl, fp, lr}^
    7f48:	5f485f47 	svcpl	0x00485f47
    7f4c:	5f00205f 	svcpl	0x0000205f
    7f50:	4343475f 	movtmi	r4, #14175	; 0x375f
    7f54:	4f54415f 	svcmi	0x0054415f
    7f58:	5f43494d 	svcpl	0x0043494d
    7f5c:	52414843 	subpl	r4, r1, #4390912	; 0x430000
    7f60:	434f4c5f 	movtmi	r4, #64607	; 0xfc5f
    7f64:	52465f4b 	subpl	r5, r6, #300	; 0x12c
    7f68:	32204545 	eorcc	r4, r0, #289406976	; 0x11400000
    7f6c:	49564e00 	ldmdbmi	r6, {r9, sl, fp, lr}^
    7f70:	58455f43 	stmdapl	r5, {r0, r1, r6, r8, r9, sl, fp, ip, lr}^
    7f74:	5f394954 	svcpl	0x00394954
    7f78:	52495f35 	subpl	r5, r9, #53, 30	; 0xd4
    7f7c:	69445f51 	stmdbvs	r4, {r0, r4, r6, r8, r9, sl, fp, ip, lr}^
    7f80:	6c626173 	stfvse	f6, [r2], #-460	; 0xfffffe34
    7f84:	4e282065 	cdpmi	0, 2, cr2, cr8, cr5, {3}
    7f88:	5f434956 	svcpl	0x00434956
    7f8c:	52454349 	subpl	r4, r5, #603979777	; 0x24000001
    7f90:	3d7c2030 	ldclcc	0, cr2, [ip, #-192]!	; 0xffffff40
    7f94:	3c3c3120 	ldfccs	f3, [ip], #-128	; 0xffffff80
    7f98:	00293332 	eoreq	r3, r9, r2, lsr r3
    7f9c:	45445f5f 	strbmi	r5, [r4, #-3935]	; 0xfffff0a1
    7fa0:	414c4f56 	cmpmi	ip, r6, asr pc
    7fa4:	454c4954 	strbmi	r4, [ip, #-2388]	; 0xfffff6ac
    7fa8:	70797428 	rsbsvc	r7, r9, r8, lsr #8
    7fac:	61762c65 	cmnvs	r6, r5, ror #24
    7fb0:	28202972 	stmdacs	r0!, {r1, r4, r5, r6, r8, fp, sp}
    7fb4:	70797428 	rsbsvc	r7, r9, r8, lsr #8
    7fb8:	5f282965 	svcpl	0x00282965
    7fbc:	6e69755f 	mcrvs	5, 3, r7, cr9, cr15, {2}
    7fc0:	72747074 	rsbsvc	r7, r4, #116	; 0x74
    7fc4:	2829745f 	stmdacs	r9!, {r0, r1, r2, r3, r4, r6, sl, ip, sp, lr}
    7fc8:	616c6f76 	smcvs	50934	; 0xc6f6
    7fcc:	656c6974 	strbvs	r6, [ip, #-2420]!	; 0xfffff68c
    7fd0:	696f7620 	stmdbvs	pc!, {r5, r9, sl, ip, sp, lr}^	; <UNPREDICTABLE>
    7fd4:	292a2064 	stmdbcs	sl!, {r2, r5, r6, sp}
    7fd8:	72617628 	rsbvc	r7, r1, #40, 12	; 0x2800000
    7fdc:	5f002929 	svcpl	0x00002929
    7fe0:	5053535f 	subspl	r5, r3, pc, asr r3
    7fe4:	524f465f 	subpl	r4, pc, #99614720	; 0x5f00000
    7fe8:	59464954 	stmdbpl	r6, {r2, r4, r6, r8, fp, lr}^
    7fec:	56454c5f 			; <UNDEFINED> instruction: 0x56454c5f
    7ff0:	30204c45 	eorcc	r4, r0, r5, asr #24
    7ff4:	475f5f00 	ldrbmi	r5, [pc, -r0, lsl #30]
    7ff8:	4c43554e 	cfstr64mi	mvdx5, [r3], {78}	; 0x4e
    7ffc:	5f454b49 	svcpl	0x00454b49
    8000:	4c495542 	cfstr64mi	mvdx5, [r9], {66}	; 0x42
    8004:	5f4e4954 	svcpl	0x004e4954
    8008:	41445453 	cmpmi	r4, r3, asr r4
    800c:	31204752 			; <UNDEFINED> instruction: 0x31204752
    8010:	585f5f00 	ldmdapl	pc, {r8, r9, sl, fp, ip, lr}^	; <UNPREDICTABLE>
    8014:	565f4953 			; <UNDEFINED> instruction: 0x565f4953
    8018:	42495349 	submi	r5, r9, #603979777	; 0x24000001
    801c:	3020454c 	eorcc	r4, r0, ip, asr #10
    8020:	54535f00 	ldrbpl	r5, [r3], #-3840	; 0xfffff100
    8024:	42494c44 	submi	r4, r9, #68, 24	; 0x4400
    8028:	205f485f 	subscs	r4, pc, pc, asr r8	; <UNPREDICTABLE>
    802c:	54584500 	ldrbpl	r4, [r8], #-1280	; 0xfffffb00
    8030:	37203749 	strcc	r3, [r0, -r9, asr #14]!
    8034:	52534200 	subspl	r4, r3, #0, 4
    8038:	58450052 	stmdapl	r5, {r1, r4, r6}^
    803c:	50344954 	eorspl	r4, r4, r4, asr r9
    8040:	28203443 	stmdacs	r0!, {r0, r1, r6, sl, ip, sp}
    8044:	49545845 	ldmdbmi	r4, {r0, r2, r6, fp, ip, lr}^
    8048:	4950475f 	ldmdbmi	r0, {r0, r1, r2, r3, r4, r6, r8, r9, sl, lr}^
    804c:	614d5f4f 	cmpvs	sp, pc, asr #30
    8050:	6e697070 	mcrvs	0, 3, r7, cr9, cr0, {3}
    8054:	29745f67 	ldmdbcs	r4!, {r0, r1, r2, r5, r6, r8, r9, sl, fp, ip, lr}^
    8058:	5458457b 	ldrbpl	r4, [r8], #-1403	; 0xfffffa85
    805c:	202c3449 	eorcs	r3, ip, r9, asr #8
    8060:	4f495047 	svcmi	0x00495047
    8064:	47202c43 	strmi	r2, [r0, -r3, asr #24]!
    8068:	5f4f4950 	svcpl	0x004f4950
    806c:	5f4e4950 	svcpl	0x004e4950
    8070:	45202c34 	strmi	r2, [r0, #-3124]!	; 0xfffff3cc
    8074:	34495458 	strbcc	r5, [r9], #-1112	; 0xfffffba8
    8078:	5152495f 	cmppl	r2, pc, asr r9
    807c:	5f5f007d 	svcpl	0x005f007d
    8080:	54534146 	ldrbpl	r4, [r3], #-326	; 0xfffffeba
    8084:	00203233 	eoreq	r3, r0, r3, lsr r2
    8088:	49535f5f 	ldmdbmi	r3, {r0, r1, r2, r3, r4, r6, r8, r9, sl, fp, ip, lr}^
    808c:	54415f47 	strbpl	r5, [r1], #-3911	; 0xfffff0b9
    8090:	43494d4f 	movtmi	r4, #40271	; 0x9d4f
    8094:	4449575f 	strbmi	r5, [r9], #-1887	; 0xfffff8a1
    8098:	5f5f4854 	svcpl	0x005f4854
    809c:	00323320 	eorseq	r3, r2, r0, lsr #6
    80a0:	4f495047 	svcmi	0x00495047
    80a4:	41425f41 	cmpmi	r2, r1, asr #30
    80a8:	30204553 	eorcc	r4, r0, r3, asr r5
    80ac:	30303478 	eorscc	r3, r0, r8, ror r4
    80b0:	30383031 	eorscc	r3, r8, r1, lsr r0
    80b4:	5f007530 	svcpl	0x00007530
    80b8:	544c465f 	strbpl	r4, [ip], #-1631	; 0xfffff9a1
    80bc:	455f3436 	ldrbmi	r3, [pc, #-1078]	; 7c8e <_Min_Stack_Size+0x788e>
    80c0:	4c495350 	mcrrmi	3, 5, r5, r9, cr0
    80c4:	5f5f4e4f 	svcpl	0x005f4e4f
    80c8:	322e3220 	eorcc	r3, lr, #32, 4
    80cc:	34343032 	ldrtcc	r3, [r4], #-50	; 0xffffffce
    80d0:	39343036 	ldmdbcc	r4!, {r1, r2, r4, r5, ip, sp}
    80d4:	33303532 	teqcc	r0, #209715200	; 0xc800000
    80d8:	65313331 	ldrvs	r3, [r1, #-817]!	; 0xfffffccf
    80dc:	4636312d 	ldrtmi	r3, [r6], -sp, lsr #2
    80e0:	5f003436 	svcpl	0x00003436
    80e4:	4e454552 	mcrmi	5, 2, r4, cr5, cr2, {2}
    80e8:	4e495f54 	mcrmi	15, 2, r5, cr9, cr4, {2}
    80ec:	415f5449 	cmpmi	pc, r9, asr #8
    80f0:	49584554 	ldmdbmi	r8, {r2, r4, r6, r8, sl, lr}^
    80f4:	5f002054 	svcpl	0x00002054
    80f8:	554e475f 	strbpl	r4, [lr, #-1887]	; 0xfffff8a1
    80fc:	52505f43 	subspl	r5, r0, #268	; 0x10c
    8100:	51455245 	cmppl	r5, r5, asr #4
    8104:	6d285f5f 	stcvs	15, cr5, [r8, #-380]!	; 0xfffffe84
    8108:	696d2c61 	stmdbvs	sp!, {r0, r5, r6, sl, fp, sp}^
    810c:	5f5f2029 	svcpl	0x005f2029
    8110:	43554e47 	cmpmi	r5, #1136	; 0x470
    8114:	4552505f 	ldrbmi	r5, [r2, #-95]	; 0xffffffa1
    8118:	28514552 	ldmdacs	r1, {r1, r4, r6, r8, sl, lr}^
    811c:	202c616d 	eorcs	r6, ip, sp, ror #2
    8120:	0029696d 	eoreq	r6, r9, sp, ror #18
    8124:	54555f5f 	ldrbpl	r5, [r5], #-3935	; 0xfffff0a1
    8128:	42495f41 	submi	r5, r9, #260	; 0x104
    812c:	5f5f5449 	svcpl	0x005f5449
    8130:	00343620 	eorseq	r3, r4, r0, lsr #12
    8134:	52415f5f 	subpl	r5, r1, #380	; 0x17c
    8138:	45465f4d 	strbmi	r5, [r6, #-3917]	; 0xfffff0b3
    813c:	52555441 	subspl	r5, r5, #1090519040	; 0x41000000
    8140:	52435f45 	subpl	r5, r3, #276	; 0x114
    8144:	00323343 	eorseq	r3, r2, r3, asr #6
    8148:	74735f5f 	ldrbtvc	r5, [r3], #-3935	; 0xfffff0a1
    814c:	676e6f72 			; <UNDEFINED> instruction: 0x676e6f72
    8150:	6665725f 			; <UNDEFINED> instruction: 0x6665725f
    8154:	6e657265 	cdpvs	2, 6, cr7, cr5, cr5, {3}
    8158:	73286563 			; <UNDEFINED> instruction: 0x73286563
    815c:	612c6d79 			; <UNDEFINED> instruction: 0x612c6d79
    8160:	7361696c 	cmnvc	r1, #108, 18	; 0x1b0000
    8164:	296d7973 	stmdbcs	sp!, {r0, r1, r4, r5, r6, r8, fp, ip, sp, lr}^
    8168:	74786520 	ldrbtvc	r6, [r8], #-1312	; 0xfffffae0
    816c:	206e7265 	rsbcs	r7, lr, r5, ror #4
    8170:	79745f5f 	ldmdbvc	r4!, {r0, r1, r2, r3, r4, r6, r8, r9, sl, fp, ip, lr}^
    8174:	666f6570 			; <UNDEFINED> instruction: 0x666f6570
    8178:	79732820 	ldmdbvc	r3!, {r5, fp, sp}^
    817c:	6120296d 			; <UNDEFINED> instruction: 0x6120296d
    8180:	7361696c 	cmnvc	r1, #108, 18	; 0x1b0000
    8184:	206d7973 	rsbcs	r7, sp, r3, ror r9
    8188:	74615f5f 	strbtvc	r5, [r1], #-3935	; 0xfffff0a1
    818c:	62697274 	rsbvs	r7, r9, #116, 4	; 0x40000007
    8190:	5f657475 	svcpl	0x00657475
    8194:	2828205f 	stmdacs	r8!, {r0, r1, r2, r3, r4, r6, sp}
    8198:	6c615f5f 	stclvs	15, cr5, [r1], #-380	; 0xfffffe84
    819c:	5f736169 	svcpl	0x00736169
    81a0:	2328205f 			; <UNDEFINED> instruction: 0x2328205f
    81a4:	296d7973 	stmdbcs	sp!, {r0, r1, r4, r5, r6, r8, fp, ip, sp, lr}^
    81a8:	45002929 	strmi	r2, [r0, #-2345]	; 0xfffff6d7
    81ac:	5f495458 	svcpl	0x00495458
    81b0:	5f515249 	svcpl	0x00515249
    81b4:	62616e65 	rsbvs	r6, r1, #1616	; 0x650
    81b8:	3120656c 			; <UNDEFINED> instruction: 0x3120656c
    81bc:	555f5f00 	ldrbpl	r5, [pc, #-3840]	; 72c4 <_Min_Stack_Size+0x6ec4>
    81c0:	52464c4c 	subpl	r4, r6, #76, 24	; 0x4c00
    81c4:	5f544341 	svcpl	0x00544341
    81c8:	49535045 	ldmdbmi	r3, {r0, r2, r6, ip, lr}^
    81cc:	5f4e4f4c 	svcpl	0x004e4f4c
    81d0:	7830205f 	ldmdavc	r0!, {r0, r1, r2, r3, r4, r6, sp}
    81d4:	362d5031 			; <UNDEFINED> instruction: 0x362d5031
    81d8:	4c4c5534 	cfstr64mi	mvdx5, [ip], {52}	; 0x34
    81dc:	545f0052 	ldrbpl	r0, [pc], #-82	; 81e4 <_Min_Stack_Size+0x7de4>
    81e0:	52454d49 	subpl	r4, r5, #4672	; 0x1240
    81e4:	205f545f 	subscs	r5, pc, pc, asr r4	; <UNPREDICTABLE>
    81e8:	69736e75 	ldmdbvs	r3!, {r0, r2, r4, r5, r6, r9, sl, fp, sp, lr}^
    81ec:	64656e67 	strbtvs	r6, [r5], #-3687	; 0xfffff199
    81f0:	6e6f6c20 	cdpvs	12, 6, cr6, cr15, cr0, {1}
    81f4:	5f5f0067 	svcpl	0x005f0067
    81f8:	455a4953 	ldrbmi	r4, [sl, #-2387]	; 0xfffff6ad
    81fc:	575f464f 	ldrbpl	r4, [pc, -pc, asr #12]
    8200:	5f544e49 	svcpl	0x00544e49
    8204:	205f5f54 	subscs	r5, pc, r4, asr pc	; <UNPREDICTABLE>
    8208:	5f5f0034 	svcpl	0x005f0034
    820c:	5f4d5241 	svcpl	0x004d5241
    8210:	54414546 	strbpl	r4, [r1], #-1350	; 0xfffffaba
    8214:	5f455255 	svcpl	0x00455255
    8218:	4c414e55 	mcrrmi	14, 5, r4, r1, cr5
    821c:	454e4749 	strbmi	r4, [lr, #-1865]	; 0xfffff8b7
    8220:	00312044 	eorseq	r2, r1, r4, asr #32
    8224:	54535f5f 	ldrbpl	r5, [r3], #-3935	; 0xfffff0a1
    8228:	5f5f4344 	svcpl	0x005f4344
    822c:	5f003120 	svcpl	0x00003120
    8230:	42444c5f 	submi	r4, r4, #24320	; 0x5f00
    8234:	45445f4c 	strbmi	r5, [r4, #-3916]	; 0xfffff0b4
    8238:	414d4943 	cmpmi	sp, r3, asr #18
    823c:	49445f4c 	stmdbmi	r4, {r2, r3, r6, r8, r9, sl, fp, ip, lr}^
    8240:	205f5f47 	subscs	r5, pc, r7, asr #30
    8244:	5f003731 	svcpl	0x00003731
    8248:	554e475f 	strbpl	r4, [lr, #-1887]	; 0xfffff8a1
    824c:	4b494c43 	blmi	125b360 <_Min_Stack_Size+0x125af60>
    8250:	53415f45 	movtpl	r5, #8005	; 0x1f45
    8254:	0033204d 	eorseq	r2, r3, sp, asr #32
    8258:	414c5f5f 	cmpmi	ip, pc, asr pc
    825c:	4d554343 	ldclmi	3, cr4, [r5, #-268]	; 0xfffffef4
    8260:	4e494d5f 	mcrmi	13, 2, r4, cr9, cr15, {2}
    8264:	28205f5f 	stmdacs	r0!, {r0, r1, r2, r3, r4, r6, r8, r9, sl, fp, ip, lr}
    8268:	3158302d 	cmpcc	r8, sp, lsr #32
    826c:	4c313350 	ldcmi	3, cr3, [r1], #-320	; 0xfffffec0
    8270:	58302d4b 	ldmdapl	r0!, {r0, r1, r3, r6, r8, sl, fp, sp}
    8274:	31335031 	teqcc	r3, r1, lsr r0
    8278:	00294b4c 	eoreq	r4, r9, ip, asr #22
    827c:	4e495f5f 	mcrmi	15, 2, r5, cr9, cr15, {2}
    8280:	41465f54 	cmpmi	r6, r4, asr pc
    8284:	5f385453 	svcpl	0x00385453
    8288:	5f58414d 	svcpl	0x0058414d
    828c:	7830205f 	ldmdavc	r0!, {r0, r1, r2, r3, r4, r6, sp}
    8290:	66666637 			; <UNDEFINED> instruction: 0x66666637
    8294:	66666666 	strbtvs	r6, [r6], -r6, ror #12
    8298:	465f5f00 	ldrbmi	r5, [pc], -r0, lsl #30
    829c:	3233544c 	eorscc	r5, r3, #76, 8	; 0x4c000000
    82a0:	5341485f 	movtpl	r4, #6239	; 0x185f
    82a4:	4e45445f 	mcrmi	4, 2, r4, cr5, cr15, {2}
    82a8:	5f4d524f 	svcpl	0x004d524f
    82ac:	0031205f 	eorseq	r2, r1, pc, asr r0
    82b0:	63735f5f 	cmnvs	r3, #380	; 0x17c
    82b4:	6c666e61 	stclvs	14, cr6, [r6], #-388	; 0xfffffe7c
    82b8:	28656b69 	stmdacs	r5!, {r0, r3, r5, r6, r8, r9, fp, sp, lr}^
    82bc:	61746d66 	cmnvs	r4, r6, ror #26
    82c0:	662c6772 			; <UNDEFINED> instruction: 0x662c6772
    82c4:	74737269 	ldrbtvc	r7, [r3], #-617	; 0xfffffd97
    82c8:	61726176 	cmnvs	r2, r6, ror r1
    82cc:	20296772 	eorcs	r6, r9, r2, ror r7
    82d0:	74615f5f 	strbtvc	r5, [r1], #-3935	; 0xfffff0a1
    82d4:	62697274 	rsbvs	r7, r9, #116, 4	; 0x40000007
    82d8:	5f657475 	svcpl	0x00657475
    82dc:	5f28285f 	svcpl	0x0028285f
    82e0:	726f665f 	rsbvc	r6, pc, #99614720	; 0x5f00000
    82e4:	5f74616d 	svcpl	0x0074616d
    82e8:	5f28205f 	svcpl	0x0028205f
    82ec:	6163735f 	cmnvs	r3, pc, asr r3
    82f0:	5f5f666e 	svcpl	0x005f666e
    82f4:	6d66202c 	stclvs	0, cr2, [r6, #-176]!	; 0xffffff50
    82f8:	67726174 			; <UNDEFINED> instruction: 0x67726174
    82fc:	6966202c 	stmdbvs	r6!, {r2, r3, r5, sp}^
    8300:	76747372 			; <UNDEFINED> instruction: 0x76747372
    8304:	72617261 	rsbvc	r7, r1, #268435462	; 0x10000006
    8308:	29292967 	stmdbcs	r9!, {r0, r1, r2, r5, r6, r8, fp, sp}
    830c:	45525f00 	ldrbmi	r5, [r2, #-3840]	; 0xfffff100
    8310:	5f544e45 	svcpl	0x00544e45
    8314:	4c414d53 	mcrrmi	13, 5, r4, r1, cr3
    8318:	5f00204c 	svcpl	0x0000204c
    831c:	4c4c555f 	cfstr64mi	mvdx5, [ip], {95}	; 0x5f
    8320:	55434341 	strbpl	r4, [r3, #-833]	; 0xfffffcbf
    8324:	494d5f4d 	stmdbmi	sp, {r0, r2, r3, r6, r8, r9, sl, fp, ip, lr}^
    8328:	205f5f4e 	subscs	r5, pc, lr, asr #30
    832c:	55302e30 	ldrpl	r2, [r0, #-3632]!	; 0xfffff1d0
    8330:	004b4c4c 	subeq	r4, fp, ip, asr #24
    8334:	5359535f 	cmppl	r9, #2080374785	; 0x7c000001
    8338:	59545f5f 	ldmdbpl	r4, {r0, r1, r2, r3, r4, r6, r8, r9, sl, fp, ip, lr}^
    833c:	5f534550 	svcpl	0x00534550
    8340:	5f002048 	svcpl	0x00002048
    8344:	58455441 	stmdapl	r5, {r0, r6, sl, ip, lr}^
    8348:	495f5449 	ldmdbmi	pc, {r0, r3, r6, sl, ip, lr}^	; <UNPREDICTABLE>
    834c:	2054494e 	subscs	r4, r4, lr, asr #18
    8350:	554e5f7b 	strbpl	r5, [lr, #-3963]	; 0xfffff085
    8354:	202c4c4c 	eorcs	r4, ip, ip, asr #24
    8358:	7b202c30 	blvc	813420 <_Min_Stack_Size+0x813020>
    835c:	4c554e5f 	mrrcmi	14, 5, r4, r5, cr15
    8360:	202c7d4c 	eorcs	r7, ip, ip, asr #26
    8364:	4c554e5f 	mrrcmi	14, 5, r4, r5, cr15
    8368:	5f007d4c 	svcpl	0x00007d4c
    836c:	5f535953 	svcpl	0x00535953
    8370:	46454443 	strbmi	r4, [r5], -r3, asr #8
    8374:	5f485f53 	svcpl	0x00485f53
    8378:	49530020 	ldmdbmi	r3, {r5}^
    837c:	54415f47 	strbpl	r5, [r1], #-3911	; 0xfffff0b9
    8380:	43494d4f 	movtmi	r4, #40271	; 0x9d4f
    8384:	4e494d5f 	mcrmi	13, 2, r4, cr9, cr15, {2}
    8388:	5f2d2820 	svcpl	0x002d2820
    838c:	4454535f 	ldrbmi	r5, [r4], #-863	; 0xfffffca1
    8390:	5f544e49 	svcpl	0x00544e49
    8394:	28505845 	ldmdacs	r0, {r0, r2, r6, fp, ip, lr}^
    8398:	5f544e49 	svcpl	0x00544e49
    839c:	2958414d 	ldmdbcs	r8, {r0, r2, r3, r6, r8, lr}^
    83a0:	31202d20 			; <UNDEFINED> instruction: 0x31202d20
    83a4:	50470029 	subpl	r0, r7, r9, lsr #32
    83a8:	5f434f49 	svcpl	0x00434f49
    83ac:	45534142 	ldrbmi	r4, [r3, #-322]	; 0xfffffebe
    83b0:	34783020 	ldrbtcc	r3, [r8], #-32	; 0xffffffe0
    83b4:	31313030 	teqcc	r1, r0, lsr r0
    83b8:	75303030 	ldrvc	r3, [r0, #-48]!	; 0xffffffd0
    83bc:	475f5f00 	ldrbmi	r5, [pc, -r0, lsl #30]
    83c0:	4c43554e 	cfstr64mi	mvdx5, [r3], {78}	; 0x4e
    83c4:	5f454b49 	svcpl	0x00454b49
    83c8:	4c495542 	cfstr64mi	mvdx5, [r9], {66}	; 0x42
    83cc:	5f4e4954 	svcpl	0x004e4954
    83d0:	4c414156 	stfmie	f4, [r1], {86}	; 0x56
    83d4:	20545349 	subscs	r5, r4, r9, asr #6
    83d8:	4e5f0031 	mrcmi	0, 2, r0, cr15, cr1, {1}
    83dc:	494c5745 	stmdbmi	ip, {r0, r2, r6, r8, r9, sl, ip, lr}^
    83e0:	4c415f42 	mcrrmi	15, 4, r5, r1, cr2
    83e4:	41434f4c 	cmpmi	r3, ip, asr #30
    83e8:	0020485f 	eoreq	r4, r0, pc, asr r8
    83ec:	4e495f5f 	mcrmi	15, 2, r5, cr9, cr15, {2}
    83f0:	20323354 	eorscs	r3, r2, r4, asr r3
    83f4:	00226c22 	eoreq	r6, r2, r2, lsr #24
    83f8:	52415f5f 	subpl	r5, r1, #380	; 0x17c
    83fc:	53415f4d 	movtpl	r5, #8013	; 0x1f4d
    8400:	59535f4d 	ldmdbpl	r3, {r0, r2, r3, r6, r8, r9, sl, fp, ip, lr}^
    8404:	5841544e 	stmdapl	r1, {r1, r2, r3, r6, sl, ip, lr}^
    8408:	494e555f 	stmdbmi	lr, {r0, r1, r2, r3, r4, r6, r8, sl, ip, lr}^
    840c:	44454946 	strbmi	r4, [r5], #-2374	; 0xfffff6ba
    8410:	31205f5f 			; <UNDEFINED> instruction: 0x31205f5f
    8414:	72747300 	rsbsvc	r7, r4, #0, 6
    8418:	66646f74 	uqsub16vs	r6, r4, r4
    841c:	72747320 	rsbsvc	r7, r4, #32, 6	; 0x80000000
    8420:	00666f74 	rsbeq	r6, r6, r4, ror pc
    8424:	49555f5f 	ldmdbmi	r5, {r0, r1, r2, r3, r4, r6, r8, r9, sl, fp, ip, lr}^
    8428:	3233544e 	eorscc	r5, r3, #1308622848	; 0x4e000000
    842c:	5059545f 	subspl	r5, r9, pc, asr r4
    8430:	205f5f45 	subscs	r5, pc, r5, asr #30
    8434:	676e6f6c 	strbvs	r6, [lr, -ip, ror #30]!
    8438:	736e7520 	cmnvc	lr, #32, 10	; 0x8000000
    843c:	656e6769 	strbvs	r6, [lr, #-1897]!	; 0xfffff897
    8440:	6e692064 	cdpvs	0, 6, cr2, cr9, cr4, {3}
    8444:	5f5f0074 	svcpl	0x005f0074
    8448:	5f4d5241 	svcpl	0x004d5241
    844c:	54414546 	strbpl	r4, [r1], #-1350	; 0xfffffaba
    8450:	5f455255 	svcpl	0x00455255
    8454:	50544f44 	subspl	r4, r4, r4, asr #30
    8458:	00444f52 	subeq	r4, r4, r2, asr pc
    845c:	68745f5f 	ldmdavs	r4!, {r0, r1, r2, r3, r4, r6, r8, r9, sl, fp, ip, lr}^
    8460:	32626d75 	rsbcc	r6, r2, #7488	; 0x1d40
    8464:	31205f5f 			; <UNDEFINED> instruction: 0x31205f5f
    8468:	69775300 	ldmdbvs	r7!, {r8, r9, ip, lr}^
    846c:	5f686374 	svcpl	0x00686374
    8470:	5f555043 	svcpl	0x00555043
    8474:	65636341 	strbvs	r6, [r3, #-833]!	; 0xfffffcbf
    8478:	654c7373 	strbvs	r7, [ip, #-883]	; 0xfffffc8d
    847c:	006c6576 	rsbeq	r6, ip, r6, ror r5
    8480:	4645445f 			; <UNDEFINED> instruction: 0x4645445f
    8484:	544c5541 	strbpl	r5, [ip], #-1345	; 0xfffffabf
    8488:	554f535f 	strbpl	r5, [pc, #-863]	; 8131 <_Min_Stack_Size+0x7d31>
    848c:	00454352 	subeq	r4, r5, r2, asr r3
    8490:	726f6873 	rsbvc	r6, pc, #7536640	; 0x730000
    8494:	312b2074 			; <UNDEFINED> instruction: 0x312b2074
    8498:	43475f00 	movtmi	r5, #32512	; 0x7f00
    849c:	49535f43 	ldmdbmi	r3, {r0, r1, r6, r8, r9, sl, fp, ip, lr}^
    84a0:	545f455a 	ldrbpl	r4, [pc], #-1370	; 84a8 <_Min_Stack_Size+0x80a8>
    84a4:	5f5f0020 	svcpl	0x005f0020
    84a8:	535f4343 	cmppl	pc, #201326593	; 0xc000001
    84ac:	4f505055 	svcmi	0x00505055
    84b0:	5f535452 	svcpl	0x00535452
    84b4:	4e524157 	mrcmi	1, 2, r4, cr2, cr7, {2}
    84b8:	20474e49 	subcs	r4, r7, r9, asr #28
    84bc:	5f5f0031 	svcpl	0x005f0031
    84c0:	544e4957 	strbpl	r4, [lr], #-2391	; 0xfffff6a9
    84c4:	4449575f 	strbmi	r5, [r9], #-1887	; 0xfffff8a1
    84c8:	5f5f4854 	svcpl	0x005f4854
    84cc:	00323320 	eorseq	r3, r2, r0, lsr #6
    84d0:	4c555f5f 	mrrcmi	15, 5, r5, r5, cr15	; <UNPREDICTABLE>
    84d4:	4152464c 	cmpmi	r2, ip, asr #12
    84d8:	4d5f5443 	cfldrdmi	mvd5, [pc, #-268]	; 83d4 <_Min_Stack_Size+0x7fd4>
    84dc:	5f5f4e49 	svcpl	0x005f4e49
    84e0:	302e3020 	eorcc	r3, lr, r0, lsr #32
    84e4:	524c4c55 	subpl	r4, ip, #21760	; 0x5500
    84e8:	5f545f00 	svcpl	0x00545f00
    84ec:	41484357 	cmpmi	r8, r7, asr r3
    84f0:	00205f52 	eoreq	r5, r0, r2, asr pc
    84f4:	49545845 	ldmdbmi	r4, {r0, r2, r6, fp, ip, lr}^
    84f8:	41503431 	cmpmi	r0, r1, lsr r4
    84fc:	28203431 	stmdacs	r0!, {r0, r4, r5, sl, ip, sp}
    8500:	49545845 	ldmdbmi	r4, {r0, r2, r6, fp, ip, lr}^
    8504:	4950475f 	ldmdbmi	r0, {r0, r1, r2, r3, r4, r6, r8, r9, sl, lr}^
    8508:	614d5f4f 	cmpvs	sp, pc, asr #30
    850c:	6e697070 	mcrvs	0, 3, r7, cr9, cr0, {3}
    8510:	29745f67 	ldmdbcs	r4!, {r0, r1, r2, r5, r6, r8, r9, sl, fp, ip, lr}^
    8514:	5458457b 	ldrbpl	r4, [r8], #-1403	; 0xfffffa85
    8518:	2c343149 	ldfcss	f3, [r4], #-292	; 0xfffffedc
    851c:	49504720 	ldmdbmi	r0, {r5, r8, r9, sl, lr}^
    8520:	202c414f 	eorcs	r4, ip, pc, asr #2
    8524:	4f495047 	svcmi	0x00495047
    8528:	4e49505f 	mcrmi	0, 2, r5, cr9, cr15, {2}
    852c:	2c34315f 	ldfcss	f3, [r4], #-380	; 0xfffffe84
    8530:	54584520 	ldrbpl	r4, [r8], #-1312	; 0xfffffae0
    8534:	5f343149 	svcpl	0x00343149
    8538:	7d515249 	lfmvc	f5, 2, [r1, #-292]	; 0xfffffedc
    853c:	4e495f00 	cdpmi	15, 4, cr5, cr9, cr0, {0}
    8540:	545f3854 	ldrbpl	r3, [pc], #-2132	; 8548 <_Min_Stack_Size+0x8148>
    8544:	4345445f 	movtmi	r4, #21599	; 0x545f
    8548:	4552414c 	ldrbmi	r4, [r2, #-332]	; 0xfffffeb4
    854c:	5f002044 	svcpl	0x00002044
    8550:	33544e49 	cmpcc	r4, #1168	; 0x490
    8554:	5f545f32 	svcpl	0x00545f32
    8558:	4c434544 	cfstr64mi	mvdx4, [r3], {68}	; 0x44
    855c:	44455241 	strbmi	r5, [r5], #-577	; 0xfffffdbf
    8560:	5f5f0020 	svcpl	0x005f0020
    8564:	455a4953 	ldrbmi	r4, [sl, #-2387]	; 0xfffff6ad
    8568:	495f464f 	ldmdbmi	pc, {r0, r1, r2, r3, r6, r9, sl, lr}^	; <UNPREDICTABLE>
    856c:	5f5f544e 	svcpl	0x005f544e
    8570:	5f003420 	svcpl	0x00003420
    8574:	5f445342 	svcpl	0x00445342
    8578:	41484357 	cmpmi	r8, r7, asr r3
    857c:	5f545f52 	svcpl	0x00545f52
    8580:	4d495400 	cfstrdmi	mvd5, [r9, #-0]
    8584:	41425f36 	cmpmi	r2, r6, lsr pc
    8588:	30204553 	eorcc	r4, r0, r3, asr r5
    858c:	30303478 	eorscc	r3, r0, r8, ror r4
    8590:	30303130 	eorscc	r3, r0, r0, lsr r1
    8594:	5f007530 	svcpl	0x00007530
    8598:	464c4c5f 			; <UNDEFINED> instruction: 0x464c4c5f
    859c:	54434152 	strbpl	r4, [r3], #-338	; 0xfffffeae
    85a0:	4942495f 	stmdbmi	r2, {r0, r1, r2, r3, r4, r6, r8, fp, lr}^
    85a4:	205f5f54 	subscs	r5, pc, r4, asr pc	; <UNPREDICTABLE>
    85a8:	5f5f0030 	svcpl	0x005f0030
    85ac:	535f4343 	cmppl	pc, #201326593	; 0xc000001
    85b0:	4f505055 	svcmi	0x00505055
    85b4:	5f535452 	svcpl	0x00535452
    85b8:	41524156 	cmpmi	r2, r6, asr r1
    85bc:	5f434944 	svcpl	0x00434944
    85c0:	20585858 	subscs	r5, r8, r8, asr r8
    85c4:	72740031 	rsbsvc	r0, r4, #49	; 0x31
    85c8:	65676769 	strbvs	r6, [r7, #-1897]!	; 0xfffff897
    85cc:	61435f72 	hvcvs	13810	; 0x35f2
    85d0:	53006573 	movwpl	r6, #1395	; 0x573
    85d4:	5f324950 	svcpl	0x00324950
    85d8:	45534142 	ldrbmi	r4, [r3, #-322]	; 0xfffffebe
    85dc:	34783020 	ldrbtcc	r3, [r8], #-32	; 0xffffffe0
    85e0:	33303030 	teqcc	r0, #48	; 0x30
    85e4:	75303038 	ldrvc	r3, [r0, #-56]!	; 0xffffffc8
    85e8:	59535f00 	ldmdbpl	r3, {r8, r9, sl, fp, ip, lr}^
    85ec:	495f5f53 	ldmdbmi	pc, {r0, r1, r4, r6, r8, r9, sl, fp, ip, lr}^	; <UNPREDICTABLE>
    85f0:	5553544e 	ldrbpl	r5, [r3, #-1102]	; 0xfffffbb2
    85f4:	20485f50 	subcs	r5, r8, r0, asr pc
    85f8:	535f5f00 	cmppl	pc, #0, 30
    85fc:	55434341 	strbpl	r4, [r3, #-833]	; 0xfffffcbf
    8600:	50455f4d 	subpl	r5, r5, sp, asr #30
    8604:	4f4c4953 	svcmi	0x004c4953
    8608:	205f5f4e 	subscs	r5, pc, lr, asr #30
    860c:	50317830 	eorspl	r7, r1, r0, lsr r8
    8610:	4b48372d 	blmi	12162cc <_Min_Stack_Size+0x1215ecc>
    8614:	49504700 	ldmdbmi	r0, {r8, r9, sl, lr}^
    8618:	49505f4f 	ldmdbmi	r0, {r0, r1, r2, r3, r6, r8, r9, sl, fp, ip, lr}^
    861c:	20325f4e 	eorscs	r5, r2, lr, asr #30
    8620:	69752828 	ldmdbvs	r5!, {r3, r5, fp, sp}^
    8624:	3631746e 	ldrtcc	r7, [r1], -lr, ror #8
    8628:	2029745f 	eorcs	r7, r9, pc, asr r4
    862c:	30307830 	eorscc	r7, r0, r0, lsr r8
    8630:	00293430 	eoreq	r3, r9, r0, lsr r4
    8634:	43475f5f 	movtmi	r5, #32607	; 0x7f5f
    8638:	53415f43 	movtpl	r5, #8003	; 0x1f43
    863c:	4c465f4d 	mcrrmi	15, 4, r5, r6, cr13
    8640:	4f5f4741 	svcmi	0x005f4741
    8644:	55505455 	ldrbpl	r5, [r0, #-1109]	; 0xfffffbab
    8648:	5f5f5354 	svcpl	0x005f5354
    864c:	52003120 	andpl	r3, r0, #32, 2
    8650:	545f4343 	ldrbpl	r4, [pc], #-835	; 8658 <_Min_Stack_Size+0x8258>
    8654:	64657079 	strbtvs	r7, [r5], #-121	; 0xffffff87
    8658:	745f6665 	ldrbvc	r6, [pc], #-1637	; 8660 <_Min_Stack_Size+0x8260>
    865c:	45525f00 	ldrbmi	r5, [r2, #-3840]	; 0xfffff100
    8660:	5f544e45 	svcpl	0x00544e45
    8664:	43454843 	movtmi	r4, #22595	; 0x5843
    8668:	45565f4b 	ldrbmi	r5, [r6, #-3915]	; 0xfffff0b5
    866c:	59464952 	stmdbpl	r6, {r1, r4, r6, r8, fp, lr}^
    8670:	41003120 	tstmi	r0, r0, lsr #2
    8674:	5f4f4946 	svcpl	0x004f4946
    8678:	45534142 	ldrbmi	r4, [r3, #-322]	; 0xfffffebe
    867c:	34783020 	ldrbtcc	r3, [r8], #-32	; 0xffffffe0
    8680:	30313030 	eorscc	r3, r1, r0, lsr r0
    8684:	75303030 	ldrvc	r3, [r0, #-48]!	; 0xffffffd0
    8688:	4f505f00 	svcmi	0x00505f00
    868c:	5f584953 	svcpl	0x00584953
    8690:	52554f53 	subspl	r4, r5, #332	; 0x14c
    8694:	31204543 			; <UNDEFINED> instruction: 0x31204543
    8698:	555f5f00 	ldrbpl	r5, [pc, #-3840]	; 77a0 <_Min_Stack_Size+0x73a0>
    869c:	5f544e49 	svcpl	0x00544e49
    86a0:	54534146 	ldrbpl	r4, [r3], #-326	; 0xfffffeba
    86a4:	545f3631 	ldrbpl	r3, [pc], #-1585	; 86ac <_Min_Stack_Size+0x82ac>
    86a8:	5f455059 	svcpl	0x00455059
    86ac:	6e75205f 	mrcvs	0, 3, r2, cr5, cr15, {2}
    86b0:	6e676973 			; <UNDEFINED> instruction: 0x6e676973
    86b4:	69206465 	stmdbvs	r0!, {r0, r2, r5, r6, sl, sp, lr}
    86b8:	4700746e 	strmi	r7, [r0, -lr, ror #8]
    86bc:	5f4f4950 	svcpl	0x004f4950
    86c0:	5f4e4950 	svcpl	0x004e4950
    86c4:	6b73616d 	blvs	1ce0c80 <_Min_Stack_Size+0x1ce0880>
    86c8:	30783020 	rsbscc	r3, r8, r0, lsr #32
    86cc:	46303030 			; <UNDEFINED> instruction: 0x46303030
    86d0:	75464646 	strbvc	r4, [r6, #-1606]	; 0xfffff9ba
    86d4:	45525f00 	ldrbmi	r5, [r2, #-3840]	; 0xfffff100
    86d8:	5f544e45 	svcpl	0x00544e45
    86dc:	454c424d 	strbmi	r4, [ip, #-589]	; 0xfffffdb3
    86e0:	54535f4e 	ldrbpl	r5, [r3], #-3918	; 0xfffff0b2
    86e4:	28455441 	stmdacs	r5, {r0, r6, sl, ip, lr}^
    86e8:	29727470 	ldmdbcs	r2!, {r4, r5, r6, sl, ip, sp, lr}^
    86ec:	70282820 	eorvc	r2, r8, r0, lsr #16
    86f0:	2d297274 	sfmcs	f7, 4, [r9, #-464]!	; 0xfffffe30
    86f4:	696d5f3e 	stmdbvs	sp!, {r1, r2, r3, r4, r5, r8, r9, sl, fp, ip, lr}^
    86f8:	3e2d6373 	mcrcc	3, 1, r6, cr13, cr3, {3}
    86fc:	6c626d5f 	stclvs	13, cr6, [r2], #-380	; 0xfffffe84
    8700:	735f6e65 	cmpvc	pc, #1616	; 0x650
    8704:	65746174 	ldrbvs	r6, [r4, #-372]!	; 0xfffffe8c
    8708:	5f5f0029 	svcpl	0x005f0029
    870c:	43554e47 	cmpmi	r5, #1136	; 0x470
    8710:	4454535f 	ldrbmi	r5, [r4], #-863	; 0xfffffca1
    8714:	4e495f43 	cdpmi	15, 4, cr5, cr9, cr3, {2}
    8718:	454e494c 	strbmi	r4, [lr, #-2380]	; 0xfffff6b4
    871c:	31205f5f 			; <UNDEFINED> instruction: 0x31205f5f
    8720:	6e5f5f00 	cdpvs	15, 5, cr5, cr15, cr0, {0}
    8724:	5f646565 	svcpl	0x00646565
    8728:	746e6977 	strbtvc	r6, [lr], #-2423	; 0xfffff689
    872c:	0020745f 	eoreq	r7, r0, pc, asr r4
    8730:	43415f5f 	movtmi	r5, #8031	; 0x1f5f
    8734:	5f4d5543 	svcpl	0x004d5543
    8738:	49535045 	ldmdbmi	r3, {r0, r2, r6, ip, lr}^
    873c:	5f4e4f4c 	svcpl	0x004e4f4c
    8740:	7830205f 	ldmdavc	r0!, {r0, r1, r2, r3, r4, r6, sp}
    8744:	312d5031 			; <UNDEFINED> instruction: 0x312d5031
    8748:	5f004b35 	svcpl	0x00004b35
    874c:	414c555f 	cmpmi	ip, pc, asr r5
    8750:	4d554343 	ldclmi	3, cr4, [r5, #-268]	; 0xfffffef4
    8754:	5350455f 	cmppl	r0, #398458880	; 0x17c00000
    8758:	4e4f4c49 	cdpmi	12, 4, cr4, cr15, cr9, {2}
    875c:	30205f5f 	eorcc	r5, r0, pc, asr pc
    8760:	2d503178 	ldfcse	f3, [r0, #-480]	; 0xfffffe20
    8764:	4c553233 	lfmmi	f3, 2, [r5], {51}	; 0x33
    8768:	5f5f004b 	svcpl	0x005f004b
    876c:	4c42444c 	cfstrdmi	mvd4, [r2], {76}	; 0x4c
    8770:	4749445f 	smlsldmi	r4, r9, pc, r4	; <UNPREDICTABLE>
    8774:	31205f5f 			; <UNDEFINED> instruction: 0x31205f5f
    8778:	5f5f0035 	svcpl	0x005f0035
    877c:	455a4953 	ldrbmi	r4, [sl, #-2387]	; 0xfffff6ad
    8780:	4449575f 	strbmi	r5, [r9], #-1887	; 0xfffff8a1
    8784:	5f5f4854 	svcpl	0x005f4854
    8788:	00323320 	eorseq	r3, r2, r0, lsr #6
    878c:	49545845 	ldmdbmi	r4, {r0, r2, r6, fp, ip, lr}^
    8790:	42503131 	subsmi	r3, r0, #1073741836	; 0x4000000c
    8794:	28203131 	stmdacs	r0!, {r0, r4, r5, r8, ip, sp}
    8798:	49545845 	ldmdbmi	r4, {r0, r2, r6, fp, ip, lr}^
    879c:	4950475f 	ldmdbmi	r0, {r0, r1, r2, r3, r4, r6, r8, r9, sl, lr}^
    87a0:	614d5f4f 	cmpvs	sp, pc, asr #30
    87a4:	6e697070 	mcrvs	0, 3, r7, cr9, cr0, {3}
    87a8:	29745f67 	ldmdbcs	r4!, {r0, r1, r2, r5, r6, r8, r9, sl, fp, ip, lr}^
    87ac:	5458457b 	ldrbpl	r4, [r8], #-1403	; 0xfffffa85
    87b0:	2c313149 	ldfcss	f3, [r1], #-292	; 0xfffffedc
    87b4:	49504720 	ldmdbmi	r0, {r5, r8, r9, sl, lr}^
    87b8:	202c424f 	eorcs	r4, ip, pc, asr #4
    87bc:	4f495047 	svcmi	0x00495047
    87c0:	4e49505f 	mcrmi	0, 2, r5, cr9, cr15, {2}
    87c4:	2c31315f 	ldfcss	f3, [r1], #-380	; 0xfffffe84
    87c8:	54584520 	ldrbpl	r4, [r8], #-1312	; 0xfffffae0
    87cc:	5f313149 	svcpl	0x00313149
    87d0:	7d515249 	lfmvc	f5, 2, [r1, #-292]	; 0xfffffedc
    87d4:	45525f00 	ldrbmi	r5, [r2, #-3840]	; 0xfffff100
    87d8:	5f544e45 	svcpl	0x00544e45
    87dc:	525f504d 	subspl	r5, pc, #77	; 0x4d
    87e0:	4c555345 	mrrcmi	3, 4, r5, r5, cr5	; <UNPREDICTABLE>
    87e4:	74702854 	ldrbtvc	r2, [r0], #-2132	; 0xfffff7ac
    87e8:	28202972 	stmdacs	r0!, {r1, r4, r5, r6, r8, fp, sp}
    87ec:	72747028 	rsbsvc	r7, r4, #40	; 0x28
    87f0:	5f3e2d29 	svcpl	0x003e2d29
    87f4:	3e2d706d 	cdpcc	0, 2, cr7, cr13, cr13, {3}
    87f8:	7365725f 	cmnvc	r5, #-268435451	; 0xf0000005
    87fc:	29746c75 	ldmdbcs	r4!, {r0, r2, r4, r5, r6, sl, fp, sp, lr}^
    8800:	575f5f00 	ldrbpl	r5, [pc, -r0, lsl #30]
    8804:	5f544e49 	svcpl	0x00544e49
    8808:	5f4e494d 	svcpl	0x004e494d
    880c:	5530205f 	ldrpl	r2, [r0, #-95]!	; 0xffffffa1
    8810:	465f5f00 	ldrbmi	r5, [pc], -r0, lsl #30
    8814:	3436544c 	ldrtcc	r5, [r6], #-1100	; 0xfffffbb4
    8818:	4749445f 	smlsldmi	r4, r9, pc, r4	; <UNPREDICTABLE>
    881c:	31205f5f 			; <UNDEFINED> instruction: 0x31205f5f
    8820:	495f0035 	ldmdbmi	pc, {r0, r2, r4, r5}^	; <UNPREDICTABLE>
    8824:	3233544e 	eorscc	r5, r3, #1308622848	; 0x4e000000
    8828:	5f51455f 	svcpl	0x0051455f
    882c:	474e4f4c 	strbmi	r4, [lr, -ip, asr #30]
    8830:	50470020 	subpl	r0, r7, r0, lsr #32
    8834:	505f4f49 	subspl	r4, pc, r9, asr #30
    8838:	395f4e49 	ldmdbcc	pc, {r0, r3, r6, r9, sl, fp, lr}^	; <UNPREDICTABLE>
    883c:	75282820 	strvc	r2, [r8, #-2080]!	; 0xfffff7e0
    8840:	31746e69 	cmncc	r4, r9, ror #28
    8844:	29745f36 	ldmdbcs	r4!, {r1, r2, r4, r5, r8, r9, sl, fp, ip, lr}^
    8848:	30783020 	rsbscc	r3, r8, r0, lsr #32
    884c:	29303032 	ldmdbcs	r0!, {r1, r4, r5, ip, sp}
    8850:	575f5f00 	ldrbpl	r5, [pc, -r0, lsl #30]
    8854:	5f544e49 	svcpl	0x00544e49
    8858:	5f58414d 	svcpl	0x0058414d
    885c:	7830205f 	ldmdavc	r0!, {r0, r1, r2, r3, r4, r6, sp}
    8860:	66666666 	strbtvs	r6, [r6], -r6, ror #12
    8864:	66666666 	strbtvs	r6, [r6], -r6, ror #12
    8868:	5f5f0055 	svcpl	0x005f0055
    886c:	5f544e49 	svcpl	0x00544e49
    8870:	5341454c 	movtpl	r4, #5452	; 0x154c
    8874:	575f3854 			; <UNDEFINED> instruction: 0x575f3854
    8878:	48544449 	ldmdami	r4, {r0, r3, r6, sl, lr}^
    887c:	38205f5f 	stmdacc	r0!, {r0, r1, r2, r3, r4, r6, r8, r9, sl, fp, ip, lr}
    8880:	49504700 	ldmdbmi	r0, {r8, r9, sl, lr}^
    8884:	49505f4f 	ldmdbmi	r0, {r0, r1, r2, r3, r6, r8, r9, sl, fp, ip, lr}^
    8888:	20335f4e 	eorscs	r5, r3, lr, asr #30
    888c:	69752828 	ldmdbvs	r5!, {r3, r5, fp, sp}^
    8890:	3631746e 	ldrtcc	r7, [r1], -lr, ror #8
    8894:	2029745f 	eorcs	r7, r9, pc, asr r4
    8898:	30307830 	eorscc	r7, r0, r0, lsr r8
    889c:	00293830 	eoreq	r3, r9, r0, lsr r8
    88a0:	6f6c5f5f 	svcvs	0x006c5f5f
    88a4:	645f676e 	ldrbvs	r6, [pc], #-1902	; 88ac <_Min_Stack_Size+0x84ac>
    88a8:	6c62756f 	cfstr64vs	mvdx7, [r2], #-444	; 0xfffffe44
    88ac:	20745f65 	rsbscs	r5, r4, r5, ror #30
    88b0:	676e6f6c 	strbvs	r6, [lr, -ip, ror #30]!
    88b4:	756f6420 	strbvc	r6, [pc, #-1056]!	; 849c <_Min_Stack_Size+0x809c>
    88b8:	00656c62 	rsbeq	r6, r5, r2, ror #24
    88bc:	4e495f5f 	mcrmi	15, 2, r5, cr9, cr15, {2}
    88c0:	454c5f54 	strbmi	r5, [ip, #-3924]	; 0xfffff0ac
    88c4:	31545341 	cmpcc	r4, r1, asr #6
    88c8:	59545f36 	ldmdbpl	r4, {r1, r2, r4, r5, r8, r9, sl, fp, ip, lr}^
    88cc:	5f5f4550 	svcpl	0x005f4550
    88d0:	6f687320 	svcvs	0x00687320
    88d4:	69207472 	stmdbvs	r0!, {r1, r4, r5, r6, sl, ip, sp, lr}
    88d8:	5f00746e 	svcpl	0x0000746e
    88dc:	5f51515f 	svcpl	0x0051515f
    88e0:	54494246 	strbpl	r4, [r9], #-582	; 0xfffffdba
    88e4:	37205f5f 			; <UNDEFINED> instruction: 0x37205f5f
    88e8:	434e4900 	movtmi	r4, #59648	; 0xe900
    88ec:	4d54535f 	ldclmi	3, cr5, [r4, #-380]	; 0xfffffe84
    88f0:	465f3233 			; <UNDEFINED> instruction: 0x465f3233
    88f4:	58333031 	ldmdapl	r3!, {r0, r4, r5, ip, sp}
    88f8:	5f485f36 	svcpl	0x00485f36
    88fc:	5f5f0020 	svcpl	0x005f0020
    8900:	5f4c4244 	svcpl	0x004c4244
    8904:	5f58414d 	svcpl	0x0058414d
    8908:	2828205f 	stmdacs	r8!, {r0, r1, r2, r3, r4, r6, sp}
    890c:	62756f64 	rsbsvs	r6, r5, #100, 30	; 0x190
    8910:	3129656c 			; <UNDEFINED> instruction: 0x3129656c
    8914:	3739372e 	ldrcc	r3, [r9, -lr, lsr #14]!
    8918:	31333936 	teqcc	r3, r6, lsr r9
    891c:	36383433 			; <UNDEFINED> instruction: 0x36383433
    8920:	35313332 	ldrcc	r3, [r1, #-818]!	; 0xfffffcce
    8924:	332b6537 			; <UNDEFINED> instruction: 0x332b6537
    8928:	294c3830 	stmdbcs	ip, {r4, r5, fp, ip, sp}^
    892c:	4c5f5f00 	mrrcmi	15, 0, r5, pc, cr0	; <UNPREDICTABLE>
    8930:	4152464c 	cmpmi	r2, ip, asr #12
    8934:	465f5443 	ldrbmi	r5, [pc], -r3, asr #8
    8938:	5f544942 	svcpl	0x00544942
    893c:	3336205f 	teqcc	r6, #95	; 0x5f
    8940:	465f5f00 	ldrbmi	r5, [pc], -r0, lsl #30
    8944:	3233544c 	eorscc	r5, r3, #76, 8	; 0x4c000000
    8948:	5341485f 	movtpl	r4, #6239	; 0x185f
    894c:	464e495f 			; <UNDEFINED> instruction: 0x464e495f
    8950:	54494e49 	strbpl	r4, [r9], #-3657	; 0xfffff1b7
    8954:	205f5f59 	subscs	r5, pc, r9, asr pc	; <UNPREDICTABLE>
    8958:	5f5f0031 	svcpl	0x005f0031
    895c:	6d756874 	ldclvs	8, cr6, [r5, #-464]!	; 0xfffffe30
    8960:	205f5f62 	subscs	r5, pc, r2, ror #30
    8964:	58450031 	stmdapl	r5, {r0, r4, r5}^
    8968:	33314954 	teqcc	r1, #84, 18	; 0x150000
    896c:	33314350 	teqcc	r1, #80, 6	; 0x40000001
    8970:	58452820 	stmdapl	r5, {r5, fp, sp}^
    8974:	475f4954 			; <UNDEFINED> instruction: 0x475f4954
    8978:	5f4f4950 	svcpl	0x004f4950
    897c:	7070614d 	rsbsvc	r6, r0, sp, asr #2
    8980:	5f676e69 	svcpl	0x00676e69
    8984:	457b2974 	ldrbmi	r2, [fp, #-2420]!	; 0xfffff68c
    8988:	31495458 	cmpcc	r9, r8, asr r4
    898c:	47202c33 			; <UNDEFINED> instruction: 0x47202c33
    8990:	434f4950 	movtmi	r4, #63824	; 0xf950
    8994:	5047202c 	subpl	r2, r7, ip, lsr #32
    8998:	505f4f49 	subspl	r4, pc, r9, asr #30
    899c:	315f4e49 	cmpcc	pc, r9, asr #28
    89a0:	45202c33 	strmi	r2, [r0, #-3123]!	; 0xfffff3cd
    89a4:	31495458 	cmpcc	r9, r8, asr r4
    89a8:	52495f33 	subpl	r5, r9, #51, 30	; 0xcc
    89ac:	54007d51 	strpl	r7, [r0], #-3409	; 0xfffff2af
    89b0:	34314d49 	ldrtcc	r4, [r1], #-3401	; 0xfffff2b7
    89b4:	5341425f 	movtpl	r4, #4703	; 0x125f
    89b8:	78302045 	ldmdavc	r0!, {r0, r2, r6, sp}
    89bc:	30303034 	eorscc	r3, r0, r4, lsr r0
    89c0:	30303032 	eorscc	r3, r0, r2, lsr r0
    89c4:	46410075 			; <UNDEFINED> instruction: 0x46410075
    89c8:	28204f49 	stmdacs	r0!, {r0, r3, r6, r8, r9, sl, fp, lr}
    89cc:	49464128 	stmdbmi	r6, {r3, r5, r8, lr}^
    89d0:	79545f4f 	ldmdbvc	r4, {r0, r1, r2, r3, r6, r8, r9, sl, fp, ip, lr}^
    89d4:	65646570 	strbvs	r6, [r4, #-1392]!	; 0xfffffa90
    89d8:	20745f66 	rsbscs	r5, r4, r6, ror #30
    89dc:	4641292a 	strbmi	r2, [r1], -sl, lsr #18
    89e0:	425f4f49 	subsmi	r4, pc, #292	; 0x124
    89e4:	29455341 	stmdbcs	r5, {r0, r6, r8, r9, ip, lr}^
    89e8:	465f5f00 	ldrbmi	r5, [pc], -r0, lsl #30
    89ec:	3436544c 	ldrtcc	r5, [r6], #-1100	; 0xfffffbb4
    89f0:	4e414d5f 	mcrmi	13, 2, r4, cr1, cr15, {2}
    89f4:	49445f54 	stmdbmi	r4, {r2, r4, r6, r8, r9, sl, fp, ip, lr}^
    89f8:	205f5f47 	subscs	r5, pc, r7, asr #30
    89fc:	5f003335 	svcpl	0x00003335
    8a00:	4d544e49 	ldclmi	14, cr4, [r4, #-292]	; 0xfffffedc
    8a04:	545f5841 	ldrbpl	r5, [pc], #-2113	; 8a0c <_Min_Stack_Size+0x860c>
    8a08:	4345445f 	movtmi	r4, #21599	; 0x545f
    8a0c:	4552414c 	ldrbmi	r4, [r2, #-332]	; 0xfffffeb4
    8a10:	5f002044 	svcpl	0x00002044
    8a14:	726f665f 	rsbvc	r6, pc, #99614720	; 0x5f00000
    8a18:	5f74616d 	svcpl	0x0074616d
    8a1c:	28677261 	stmdacs	r7!, {r0, r5, r6, r9, ip, sp, lr}^
    8a20:	61746d66 	cmnvs	r4, r6, ror #26
    8a24:	20296772 	eorcs	r6, r9, r2, ror r7
    8a28:	74615f5f 	strbtvc	r5, [r1], #-3935	; 0xfffff0a1
    8a2c:	62697274 	rsbvs	r7, r9, #116, 4	; 0x40000007
    8a30:	5f657475 	svcpl	0x00657475
    8a34:	5f28285f 	svcpl	0x0028285f
    8a38:	726f665f 	rsbvc	r6, pc, #99614720	; 0x5f00000
    8a3c:	5f74616d 	svcpl	0x0074616d
    8a40:	5f677261 	svcpl	0x00677261
    8a44:	6628205f 			; <UNDEFINED> instruction: 0x6628205f
    8a48:	7261746d 	rsbvc	r7, r1, #1828716544	; 0x6d000000
    8a4c:	29292967 	stmdbcs	r9!, {r0, r1, r2, r5, r6, r8, fp, sp}
    8a50:	635f5f00 	cmpvs	pc, #0, 30
    8a54:	69706d6f 	ldmdbvs	r0!, {r0, r1, r2, r3, r5, r6, r8, sl, fp, sp, lr}^
    8a58:	5f72656c 	svcpl	0x0072656c
    8a5c:	626d656d 	rsbvs	r6, sp, #457179136	; 0x1b400000
    8a60:	29287261 	stmdbcs	r8!, {r0, r5, r6, r9, ip, sp, lr}
    8a64:	615f5f20 	cmpvs	pc, r0, lsr #30
    8a68:	5f206d73 	svcpl	0x00206d73
    8a6c:	6c6f765f 	stclvs	6, cr7, [pc], #-380	; 88f8 <_Min_Stack_Size+0x84f8>
    8a70:	6c697461 	cfstrdvs	mvd7, [r9], #-388	; 0xfffffe7c
    8a74:	20222865 	eorcs	r2, r2, r5, ror #16
    8a78:	203a2022 	eorscs	r2, sl, r2, lsr #32
    8a7c:	203a203a 	eorscs	r2, sl, sl, lsr r0
    8a80:	6d656d22 	stclvs	13, cr6, [r5, #-136]!	; 0xffffff78
    8a84:	2279726f 	rsbscs	r7, r9, #-268435450	; 0xf0000006
    8a88:	5f5f0029 	svcpl	0x005f0029
    8a8c:	6b636f6c 	blvs	18e4844 <_Min_Stack_Size+0x18e4444>
    8a90:	6f6c635f 	svcvs	0x006c635f
    8a94:	6c286573 	cfstr32vs	mvfx6, [r8], #-460	; 0xfffffe34
    8a98:	296b636f 	stmdbcs	fp!, {r0, r1, r2, r3, r5, r6, r8, r9, sp, lr}^
    8a9c:	725f5f20 	subsvc	r5, pc, #32, 30	; 0x80
    8aa0:	72617465 	rsbvc	r7, r1, #1694498816	; 0x65000000
    8aa4:	5f746567 	svcpl	0x00746567
    8aa8:	6b636f6c 	blvs	18e4860 <_Min_Stack_Size+0x18e4460>
    8aac:	6f6c635f 	svcvs	0x006c635f
    8ab0:	6c286573 	cfstr32vs	mvfx6, [r8], #-460	; 0xfffffe34
    8ab4:	296b636f 	stmdbcs	fp!, {r0, r1, r2, r3, r5, r6, r8, r9, sp, lr}^
    8ab8:	485f5f00 	ldmdami	pc, {r8, r9, sl, fp, ip, lr}^	; <UNPREDICTABLE>
    8abc:	42465f51 	submi	r5, r6, #324	; 0x144
    8ac0:	5f5f5449 	svcpl	0x005f5449
    8ac4:	00353120 	eorseq	r3, r5, r0, lsr #2
    8ac8:	61645f5f 	cmnvs	r4, pc, asr pc
    8acc:	79746174 	ldmdbvc	r4!, {r2, r4, r5, r6, r8, sp, lr}^
    8ad0:	745f6570 	ldrbvc	r6, [pc], #-1392	; 8ad8 <_Min_Stack_Size+0x86d8>
    8ad4:	5f657079 	svcpl	0x00657079
    8ad8:	28676174 	stmdacs	r7!, {r2, r4, r5, r6, r8, sp, lr}^
    8adc:	646e696b 	strbtvs	r6, [lr], #-2411	; 0xfffff695
    8ae0:	7079742c 	rsbsvc	r7, r9, ip, lsr #8
    8ae4:	00202965 	eoreq	r2, r0, r5, ror #18
    8ae8:	49535f5f 	ldmdbmi	r3, {r0, r1, r2, r3, r4, r6, r8, r9, sl, fp, ip, lr}^
    8aec:	4d5f455a 	cfldr64mi	mvdx4, [pc, #-360]	; 898c <_Min_Stack_Size+0x858c>
    8af0:	5f5f5841 	svcpl	0x005f5841
    8af4:	66783020 	ldrbtvs	r3, [r8], -r0, lsr #32
    8af8:	66666666 	strbtvs	r6, [r6], -r6, ror #12
    8afc:	55666666 	strbpl	r6, [r6, #-1638]!	; 0xfffff99a
    8b00:	49564e00 	ldmdbmi	r6, {r9, sl, fp, lr}^
    8b04:	50535f43 	subspl	r5, r3, r3, asr #30
    8b08:	495f3349 	ldmdbmi	pc, {r0, r3, r6, r8, r9, ip, sp}^	; <UNPREDICTABLE>
    8b0c:	445f5152 	ldrbmi	r5, [pc], #-338	; 8b14 <_Min_Stack_Size+0x8714>
    8b10:	62617369 	rsbvs	r7, r1, #-1543503871	; 0xa4000001
    8b14:	2820656c 	stmdacs	r0!, {r2, r3, r5, r6, r8, sl, sp, lr}
    8b18:	4349564e 	movtmi	r5, #38478	; 0x964e
    8b1c:	4543495f 	strbmi	r4, [r3, #-2399]	; 0xfffff6a1
    8b20:	7c203152 	stfvcs	f3, [r0], #-328	; 0xfffffeb8
    8b24:	3c31203d 	ldccc	0, cr2, [r1], #-244	; 0xffffff0c
    8b28:	5053283c 	subspl	r2, r3, ip, lsr r8
    8b2c:	495f3349 	ldmdbmi	pc, {r0, r3, r6, r8, r9, ip, sp}^	; <UNPREDICTABLE>
    8b30:	2d205152 	stfcss	f5, [r0, #-328]!	; 0xfffffeb8
    8b34:	29323320 	ldmdbcs	r2!, {r5, r8, r9, ip, sp}
    8b38:	49540029 	ldmdbmi	r4, {r0, r3, r5}^
    8b3c:	5f33314d 	svcpl	0x0033314d
    8b40:	45534142 	ldrbmi	r4, [r3, #-322]	; 0xfffffebe
    8b44:	34783020 	ldrbtcc	r3, [r8], #-32	; 0xffffffe0
    8b48:	31303030 	teqcc	r0, r0, lsr r0
    8b4c:	75303043 	ldrvc	r3, [r0, #-67]!	; 0xffffffbd
    8b50:	34783020 	ldrbtcc	r3, [r8], #-32	; 0xffffffe0
    8b54:	20303030 	eorscs	r3, r0, r0, lsr r0
    8b58:	30303032 	eorscc	r3, r0, r2, lsr r0
    8b5c:	495f5f00 	ldmdbmi	pc, {r8, r9, sl, fp, ip, lr}^	; <UNPREDICTABLE>
    8b60:	3436544e 	ldrtcc	r5, [r6], #-1102	; 0xfffffbb2
    8b64:	6c6c2220 	sfmvs	f2, 2, [ip], #-128	; 0xffffff80
    8b68:	5f5f0022 	svcpl	0x005f0022
    8b6c:	61776c61 	cmnvs	r7, r1, ror #24
    8b70:	695f7379 	ldmdbvs	pc, {r0, r3, r4, r5, r6, r8, r9, ip, sp, lr}^	; <UNPREDICTABLE>
    8b74:	6e696c6e 	cdpvs	12, 6, cr6, cr9, cr14, {3}
    8b78:	5f5f2065 	svcpl	0x005f2065
    8b7c:	696c6e69 	stmdbvs	ip!, {r0, r3, r5, r6, r9, sl, fp, sp, lr}^
    8b80:	5f5f656e 	svcpl	0x005f656e
    8b84:	615f5f20 	cmpvs	pc, r0, lsr #30
    8b88:	69727474 	ldmdbvs	r2!, {r2, r4, r5, r6, sl, ip, sp, lr}^
    8b8c:	65747562 	ldrbvs	r7, [r4, #-1378]!	; 0xfffffa9e
    8b90:	28285f5f 	stmdacs	r8!, {r0, r1, r2, r3, r4, r6, r8, r9, sl, fp, ip, lr}
    8b94:	6c615f5f 	stclvs	15, cr5, [r1], #-380	; 0xfffffe84
    8b98:	73796177 	cmnvc	r9, #-1073741795	; 0xc000001d
    8b9c:	6c6e695f 			; <UNDEFINED> instruction: 0x6c6e695f
    8ba0:	5f656e69 	svcpl	0x00656e69
    8ba4:	0029295f 	eoreq	r2, r9, pc, asr r9
    8ba8:	4f495047 	svcmi	0x00495047
    8bac:	4e49505f 	mcrmi	0, 2, r5, cr9, cr15, {2}
    8bb0:	2030315f 	eorscs	r3, r0, pc, asr r1
    8bb4:	69752828 	ldmdbvs	r5!, {r3, r5, fp, sp}^
    8bb8:	3631746e 	ldrtcc	r7, [r1], -lr, ror #8
    8bbc:	2029745f 	eorcs	r7, r9, pc, asr r4
    8bc0:	34307830 	ldrtcc	r7, [r0], #-2096	; 0xfffff7d0
    8bc4:	00293030 	eoreq	r3, r9, r0, lsr r0
    8bc8:	52415f5f 	subpl	r5, r1, #380	; 0x17c
    8bcc:	52415f4d 	subpl	r5, r1, #308	; 0x134
    8bd0:	55004843 	strpl	r4, [r0, #-2115]	; 0xfffff7bd
    8bd4:	38544e49 	ldmdacc	r4, {r0, r3, r6, r9, sl, fp, lr}^
    8bd8:	58414d5f 	stmdapl	r1, {r0, r1, r2, r3, r4, r6, r8, sl, fp, lr}^
    8bdc:	5f5f2820 	svcpl	0x005f2820
    8be0:	544e4955 	strbpl	r4, [lr], #-2389	; 0xfffff6ab
    8be4:	414d5f38 	cmpmi	sp, r8, lsr pc
    8be8:	295f5f58 	ldmdbcs	pc, {r3, r4, r6, r8, r9, sl, fp, ip, lr}^	; <UNPREDICTABLE>
    8bec:	4c5f5f00 	mrrcmi	15, 0, r5, pc, cr0	; <UNPREDICTABLE>
    8bf0:	5f474e4f 	svcpl	0x00474e4f
    8bf4:	5f58414d 	svcpl	0x0058414d
    8bf8:	7830205f 	ldmdavc	r0!, {r0, r1, r2, r3, r4, r6, sp}
    8bfc:	66666637 			; <UNDEFINED> instruction: 0x66666637
    8c00:	66666666 	strbtvs	r6, [r6], -r6, ror #12
    8c04:	5047004c 	subpl	r0, r7, ip, asr #32
    8c08:	535f4f49 	cmppl	pc, #292	; 0x124
    8c0c:	44454550 	strbmi	r4, [r5], #-1360	; 0xfffffab0
    8c10:	204d325f 	subcs	r3, sp, pc, asr r2
    8c14:	30307830 	eorscc	r7, r0, r0, lsr r8
    8c18:	30303030 	eorscc	r3, r0, r0, lsr r0
    8c1c:	00753230 	rsbseq	r3, r5, r0, lsr r2
    8c20:	676e6f6c 	strbvs	r6, [lr, -ip, ror #30]!
    8c24:	00342b20 	eorseq	r2, r4, r0, lsr #22
    8c28:	49545845 	ldmdbmi	r4, {r0, r2, r6, fp, ip, lr}^
    8c2c:	00332033 	eorseq	r2, r3, r3, lsr r0
    8c30:	6f6e5f5f 	svcvs	0x006e5f5f
    8c34:	6c756e6e 	ldclvs	14, cr6, [r5], #-440	; 0xfffffe48
    8c38:	2978286c 	ldmdbcs	r8!, {r2, r3, r5, r6, fp, sp}^
    8c3c:	615f5f20 	cmpvs	pc, r0, lsr #30
    8c40:	69727474 	ldmdbvs	r2!, {r2, r4, r5, r6, sl, ip, sp, lr}^
    8c44:	65747562 	ldrbvs	r7, [r4, #-1378]!	; 0xfffffa9e
    8c48:	28285f5f 	stmdacs	r8!, {r0, r1, r2, r3, r4, r6, r8, r9, sl, fp, ip, lr}
    8c4c:	6f6e5f5f 	svcvs	0x006e5f5f
    8c50:	6c756e6e 	ldclvs	14, cr6, [r5], #-440	; 0xfffffe48
    8c54:	205f5f6c 	subscs	r5, pc, ip, ror #30
    8c58:	00292978 	eoreq	r2, r9, r8, ror r9
    8c5c:	4e41525f 	mcrmi	2, 2, r5, cr1, cr15, {2}
    8c60:	5f383444 	svcpl	0x00383444
    8c64:	20444441 	subcs	r4, r4, r1, asr #8
    8c68:	30783028 	rsbscc	r3, r8, r8, lsr #32
    8c6c:	29623030 	stmdbcs	r2!, {r4, r5, ip, sp}^
    8c70:	49584500 	ldmdbmi	r8, {r8, sl, lr}^
    8c74:	41465f54 	cmpmi	r6, r4, asr pc
    8c78:	52554c49 	subspl	r4, r5, #18688	; 0x4900
    8c7c:	00312045 	eorseq	r2, r1, r5, asr #32
    8c80:	49545845 	ldmdbmi	r4, {r0, r2, r6, fp, ip, lr}^
    8c84:	31203331 			; <UNDEFINED> instruction: 0x31203331
    8c88:	5f5f0033 	svcpl	0x005f0033
    8c8c:	5f4d5241 	svcpl	0x004d5241
    8c90:	54414546 	strbpl	r4, [r1], #-1350	; 0xfffffaba
    8c94:	5f455255 	svcpl	0x00455255
    8c98:	4552444c 	ldrbmi	r4, [r2, #-1100]	; 0xfffffbb4
    8c9c:	00372058 	eorseq	r2, r7, r8, asr r0
    8ca0:	4349564e 	movtmi	r5, #38478	; 0x964e
    8ca4:	4543495f 	strbmi	r4, [r3, #-2399]	; 0xfffff6a1
    8ca8:	2a203252 	bcs	8155f8 <_Min_Stack_Size+0x8151f8>
    8cac:	6c6f7628 	stclvs	6, cr7, [pc], #-160	; 8c14 <_Min_Stack_Size+0x8814>
    8cb0:	6c697461 	cfstrdvs	mvd7, [r9], #-388	; 0xfffffe7c
    8cb4:	69752065 	ldmdbvs	r5!, {r0, r2, r5, r6, sp}^
    8cb8:	3233746e 	eorscc	r7, r3, #1845493760	; 0x6e000000
    8cbc:	202a745f 	eorcs	r7, sl, pc, asr r4
    8cc0:	564e2829 	strbpl	r2, [lr], -r9, lsr #16
    8cc4:	425f4349 	subsmi	r4, pc, #603979777	; 0x24000001
    8cc8:	20657361 	rsbcs	r7, r5, r1, ror #6
    8ccc:	3078302b 	rsbscc	r3, r8, fp, lsr #32
    8cd0:	00293838 	eoreq	r3, r9, r8, lsr r8
    8cd4:	4c4c5f5f 	mcrrmi	15, 5, r5, ip, cr15
    8cd8:	43415246 	movtmi	r5, #4678	; 0x1246
    8cdc:	50455f54 	subpl	r5, r5, r4, asr pc
    8ce0:	4f4c4953 	svcmi	0x004c4953
    8ce4:	205f5f4e 	subscs	r5, pc, lr, asr #30
    8ce8:	50317830 	eorspl	r7, r1, r0, lsr r8
    8cec:	4c33362d 	ldcmi	6, cr3, [r3], #-180	; 0xffffff4c
    8cf0:	5f00524c 	svcpl	0x0000524c
    8cf4:	4d52415f 	ldfmie	f4, [r2, #-380]	; 0xfffffe84
    8cf8:	4145465f 	cmpmi	r5, pc, asr r6
    8cfc:	45525554 	ldrbmi	r5, [r2, #-1364]	; 0xfffffaac
    8d00:	4d49535f 	stclmi	3, cr5, [r9, #-380]	; 0xfffffe84
    8d04:	00323344 	eorseq	r3, r2, r4, asr #6
    8d08:	4c465f5f 	mcrrmi	15, 5, r5, r6, cr15
    8d0c:	58323354 	ldmdapl	r2!, {r2, r4, r6, r8, r9, ip, sp}
    8d10:	4e414d5f 	mcrmi	13, 2, r4, cr1, cr15, {2}
    8d14:	49445f54 	stmdbmi	r4, {r2, r4, r6, r8, r9, sl, fp, ip, lr}^
    8d18:	205f5f47 	subscs	r5, pc, r7, asr #30
    8d1c:	45003335 	strmi	r3, [r0, #-821]	; 0xfffffccb
    8d20:	38495458 	stmdacc	r9, {r3, r4, r6, sl, ip, lr}^
    8d24:	5f003820 	svcpl	0x00003820
    8d28:	4c57454e 	cfldr64mi	mvdx4, [r7], {78}	; 0x4e
    8d2c:	565f4249 	ldrbpl	r4, [pc], -r9, asr #4
    8d30:	49535245 	ldmdbmi	r3, {r0, r2, r6, r9, ip, lr}^
    8d34:	22204e4f 	eorcs	r4, r0, #1264	; 0x4f0
    8d38:	2e312e34 	mrccs	14, 1, r2, cr1, cr4, {1}
    8d3c:	5f002230 	svcpl	0x00002230
    8d40:	4843575f 	stmdami	r3, {r0, r1, r2, r3, r4, r6, r8, r9, sl, ip, lr}^
    8d44:	575f5241 	ldrbpl	r5, [pc, -r1, asr #4]
    8d48:	48544449 	ldmdami	r4, {r0, r3, r6, sl, lr}^
    8d4c:	33205f5f 			; <UNDEFINED> instruction: 0x33205f5f
    8d50:	5f5f0032 	svcpl	0x005f0032
    8d54:	31544e49 	cmpcc	r4, r9, asr #28
    8d58:	28435f36 	stmdacs	r3, {r1, r2, r4, r5, r8, r9, sl, fp, ip, lr}^
    8d5c:	63202963 			; <UNDEFINED> instruction: 0x63202963
    8d60:	54564900 	ldrbpl	r4, [r6], #-2304	; 0xfffff700
    8d64:	5152495f 	cmppl	r2, pc, asr r9
    8d68:	6d754e5f 	ldclvs	14, cr4, [r5, #-380]!	; 0xfffffe84
    8d6c:	00726562 	rsbseq	r6, r2, r2, ror #10
    8d70:	41445f5f 	cmpmi	r4, pc, asr pc
    8d74:	4942495f 	stmdbmi	r2, {r0, r1, r2, r3, r4, r6, r8, fp, lr}^
    8d78:	205f5f54 	subscs	r5, pc, r4, asr pc	; <UNPREDICTABLE>
    8d7c:	5f003233 	svcpl	0x00003233
    8d80:	7274735f 	rsbsvc	r7, r4, #2080374785	; 0x7c000001
    8d84:	6d697466 	cfstrdvs	mvd7, [r9, #-408]!	; 0xfffffe68
    8d88:	6b696c65 	blvs	1a63f24 <_Min_Stack_Size+0x1a63b24>
    8d8c:	6d662865 	stclvs	8, cr2, [r6, #-404]!	; 0xfffffe6c
    8d90:	67726174 			; <UNDEFINED> instruction: 0x67726174
    8d94:	7269662c 	rsbvc	r6, r9, #44, 12	; 0x2c00000
    8d98:	61767473 	cmnvs	r6, r3, ror r4
    8d9c:	67726172 			; <UNDEFINED> instruction: 0x67726172
    8da0:	5f5f2029 	svcpl	0x005f2029
    8da4:	72747461 	rsbsvc	r7, r4, #1627389952	; 0x61000000
    8da8:	74756269 	ldrbtvc	r6, [r5], #-617	; 0xfffffd97
    8dac:	285f5f65 	ldmdacs	pc, {r0, r2, r5, r6, r8, r9, sl, fp, ip, lr}^	; <UNPREDICTABLE>
    8db0:	665f5f28 	ldrbvs	r5, [pc], -r8, lsr #30
    8db4:	616d726f 	cmnvs	sp, pc, ror #4
    8db8:	205f5f74 	subscs	r5, pc, r4, ror pc	; <UNPREDICTABLE>
    8dbc:	735f5f28 	cmpvc	pc, #40, 30	; 0xa0
    8dc0:	74667274 	strbtvc	r7, [r6], #-628	; 0xfffffd8c
    8dc4:	5f656d69 	svcpl	0x00656d69
    8dc8:	66202c5f 			; <UNDEFINED> instruction: 0x66202c5f
    8dcc:	7261746d 	rsbvc	r7, r1, #1828716544	; 0x6d000000
    8dd0:	66202c67 	strtvs	r2, [r0], -r7, ror #24
    8dd4:	74737269 	ldrbtvc	r7, [r3], #-617	; 0xfffffd97
    8dd8:	61726176 	cmnvs	r2, r6, ror r1
    8ddc:	29296772 	stmdbcs	r9!, {r1, r4, r5, r6, r8, r9, sl, sp, lr}
    8de0:	5f5f0029 	svcpl	0x005f0029
    8de4:	55514544 	ldrbpl	r4, [r1, #-1348]	; 0xfffffabc
    8de8:	46494c41 	strbmi	r4, [r9], -r1, asr #24
    8dec:	79742859 	ldmdbvc	r4!, {r0, r3, r4, r6, fp, sp}^
    8df0:	762c6570 			; <UNDEFINED> instruction: 0x762c6570
    8df4:	20297261 	eorcs	r7, r9, r1, ror #4
    8df8:	79742828 	ldmdbvc	r4!, {r3, r5, fp, sp}^
    8dfc:	28296570 	stmdacs	r9!, {r4, r5, r6, r8, sl, sp, lr}
    8e00:	69755f5f 	ldmdbvs	r5!, {r0, r1, r2, r3, r4, r6, r8, r9, sl, fp, ip, lr}^
    8e04:	7470746e 	ldrbtvc	r7, [r0], #-1134	; 0xfffffb92
    8e08:	29745f72 	ldmdbcs	r4!, {r1, r4, r5, r6, r8, r9, sl, fp, ip, lr}^
    8e0c:	6e6f6328 	cdpvs	3, 6, cr6, cr15, cr8, {1}
    8e10:	76207473 			; <UNDEFINED> instruction: 0x76207473
    8e14:	74616c6f 	strbtvc	r6, [r1], #-3183	; 0xfffff391
    8e18:	20656c69 	rsbcs	r6, r5, r9, ror #24
    8e1c:	64696f76 	strbtvs	r6, [r9], #-3958	; 0xfffff08a
    8e20:	28292a20 	stmdacs	r9!, {r5, r9, fp, sp}
    8e24:	29726176 	ldmdbcs	r2!, {r1, r2, r4, r5, r6, r8, sp, lr}^
    8e28:	5f5f0029 	svcpl	0x005f0029
    8e2c:	6b636f6c 	blvs	18e4be4 <_Min_Stack_Size+0x18e47e4>
    8e30:	696e695f 	stmdbvs	lr!, {r0, r1, r2, r3, r4, r6, r8, fp, sp, lr}^
    8e34:	65725f74 	ldrbvs	r5, [r2, #-3956]!	; 0xfffff08c
    8e38:	73727563 	cmnvc	r2, #415236096	; 0x18c00000
    8e3c:	28657669 	stmdacs	r5!, {r0, r3, r5, r6, r9, sl, ip, sp, lr}^
    8e40:	6b636f6c 	blvs	18e4bf8 <_Min_Stack_Size+0x18e47f8>
    8e44:	5f5f2029 	svcpl	0x005f2029
    8e48:	61746572 	cmnvs	r4, r2, ror r5
    8e4c:	74656772 	strbtvc	r6, [r5], #-1906	; 0xfffff88e
    8e50:	636f6c5f 	cmnvs	pc, #24320	; 0x5f00
    8e54:	6e695f6b 	cdpvs	15, 6, cr5, cr9, cr11, {3}
    8e58:	725f7469 	subsvc	r7, pc, #1761607680	; 0x69000000
    8e5c:	72756365 	rsbsvc	r6, r5, #-1811939327	; 0x94000001
    8e60:	65766973 	ldrbvs	r6, [r6, #-2419]!	; 0xfffff68d
    8e64:	6f6c2628 	svcvs	0x006c2628
    8e68:	00296b63 	eoreq	r6, r9, r3, ror #22
    8e6c:	54415f5f 	strbpl	r5, [r1], #-3935	; 0xfffff0a1
    8e70:	43494d4f 	movtmi	r4, #40271	; 0x9d4f
    8e74:	5143415f 	cmppl	r3, pc, asr r1
    8e78:	4c45525f 	sfmmi	f5, 2, [r5], {95}	; 0x5f
    8e7c:	4e003420 	cfcpydmi	mvd3, mvd0
    8e80:	5f434956 	svcpl	0x00434956
    8e84:	49545845 	ldmdbmi	r4, {r0, r2, r6, fp, ip, lr}^
    8e88:	52495f34 	subpl	r5, r9, #52, 30	; 0xd0
    8e8c:	69445f51 	stmdbvs	r4, {r0, r4, r6, r8, r9, sl, fp, ip, lr}^
    8e90:	6c626173 	stfvse	f6, [r2], #-460	; 0xfffffe34
    8e94:	4e282065 	cdpmi	0, 2, cr2, cr8, cr5, {3}
    8e98:	5f434956 	svcpl	0x00434956
    8e9c:	52454349 	subpl	r4, r5, #603979777	; 0x24000001
    8ea0:	3d7c2030 	ldclcc	0, cr2, [ip, #-192]!	; 0xffffff40
    8ea4:	3c3c3120 	ldfccs	f3, [ip], #-128	; 0xffffff80
    8ea8:	00293031 	eoreq	r3, r9, r1, lsr r0
    8eac:	51485f5f 	cmppl	r8, pc, asr pc
    8eb0:	4942495f 	stmdbmi	r2, {r0, r1, r2, r3, r4, r6, r8, fp, lr}^
    8eb4:	205f5f54 	subscs	r5, pc, r4, asr pc	; <UNPREDICTABLE>
    8eb8:	5f5f0030 	svcpl	0x005f0030
    8ebc:	6b636170 	blvs	18e1484 <_Min_Stack_Size+0x18e1084>
    8ec0:	5f206465 	svcpl	0x00206465
    8ec4:	7474615f 	ldrbtvc	r6, [r4], #-351	; 0xfffffea1
    8ec8:	75626972 	strbvc	r6, [r2, #-2418]!	; 0xfffff68e
    8ecc:	5f5f6574 	svcpl	0x005f6574
    8ed0:	5f5f2828 	svcpl	0x005f2828
    8ed4:	6b636170 	blvs	18e149c <_Min_Stack_Size+0x18e109c>
    8ed8:	5f5f6465 	svcpl	0x005f6465
    8edc:	5f002929 	svcpl	0x00002929
    8ee0:	41484357 	cmpmi	r8, r7, asr r3
    8ee4:	5f545f52 	svcpl	0x00545f52
    8ee8:	49464544 	stmdbmi	r6, {r2, r6, r8, sl, lr}^
    8eec:	5f44454e 	svcpl	0x0044454e
    8ef0:	54530020 	ldrbpl	r0, [r3], #-32	; 0xffffffe0
    8ef4:	4632334d 	ldrtmi	r3, [r2], -sp, asr #6
    8ef8:	00312031 	eorseq	r2, r1, r1, lsr r0
    8efc:	49545845 	ldmdbmi	r4, {r0, r2, r6, fp, ip, lr}^
    8f00:	38435038 	stmdacc	r3, {r3, r4, r5, ip, lr}^
    8f04:	58452820 	stmdapl	r5, {r5, fp, sp}^
    8f08:	475f4954 			; <UNDEFINED> instruction: 0x475f4954
    8f0c:	5f4f4950 	svcpl	0x004f4950
    8f10:	7070614d 	rsbsvc	r6, r0, sp, asr #2
    8f14:	5f676e69 	svcpl	0x00676e69
    8f18:	457b2974 	ldrbmi	r2, [fp, #-2420]!	; 0xfffff68c
    8f1c:	38495458 	stmdacc	r9, {r3, r4, r6, sl, ip, lr}^
    8f20:	5047202c 	subpl	r2, r7, ip, lsr #32
    8f24:	2c434f49 	mcrrcs	15, 4, r4, r3, cr9
    8f28:	49504720 	ldmdbmi	r0, {r5, r8, r9, sl, lr}^
    8f2c:	49505f4f 	ldmdbmi	r0, {r0, r1, r2, r3, r6, r8, r9, sl, fp, ip, lr}^
    8f30:	2c385f4e 	ldccs	15, cr5, [r8], #-312	; 0xfffffec8
    8f34:	54584520 	ldrbpl	r4, [r8], #-1312	; 0xfffffae0
    8f38:	495f3849 	ldmdbmi	pc, {r0, r3, r6, fp, ip, sp}^	; <UNPREDICTABLE>
    8f3c:	007d5152 	rsbseq	r5, sp, r2, asr r1
    8f40:	49545845 	ldmdbmi	r4, {r0, r2, r6, fp, ip, lr}^
    8f44:	44503131 	ldrbmi	r3, [r0], #-305	; 0xfffffecf
    8f48:	28203131 	stmdacs	r0!, {r0, r4, r5, r8, ip, sp}
    8f4c:	49545845 	ldmdbmi	r4, {r0, r2, r6, fp, ip, lr}^
    8f50:	4950475f 	ldmdbmi	r0, {r0, r1, r2, r3, r4, r6, r8, r9, sl, lr}^
    8f54:	614d5f4f 	cmpvs	sp, pc, asr #30
    8f58:	6e697070 	mcrvs	0, 3, r7, cr9, cr0, {3}
    8f5c:	29745f67 	ldmdbcs	r4!, {r0, r1, r2, r5, r6, r8, r9, sl, fp, ip, lr}^
    8f60:	5458457b 	ldrbpl	r4, [r8], #-1403	; 0xfffffa85
    8f64:	2c313149 	ldfcss	f3, [r1], #-292	; 0xfffffedc
    8f68:	49504720 	ldmdbmi	r0, {r5, r8, r9, sl, lr}^
    8f6c:	202c444f 	eorcs	r4, ip, pc, asr #8
    8f70:	4f495047 	svcmi	0x00495047
    8f74:	4e49505f 	mcrmi	0, 2, r5, cr9, cr15, {2}
    8f78:	2c31315f 	ldfcss	f3, [r1], #-380	; 0xfffffe84
    8f7c:	54584520 	ldrbpl	r4, [r8], #-1312	; 0xfffffae0
    8f80:	5f313149 	svcpl	0x00313149
    8f84:	7d515249 	lfmvc	f5, 2, [r1, #-292]	; 0xfffffedc
    8f88:	4d495400 	cfstrdmi	mvd5, [r9, #-0]
    8f8c:	425f3231 	subsmi	r3, pc, #268435459	; 0x10000003
    8f90:	20455341 	subcs	r5, r5, r1, asr #6
    8f94:	30347830 	eorscc	r7, r4, r0, lsr r8
    8f98:	38313030 	ldmdacc	r1!, {r4, r5, ip, sp}
    8f9c:	00753030 	rsbseq	r3, r5, r0, lsr r0
    8fa0:	73615f5f 	cmnvc	r1, #380	; 0x17c
    8fa4:	74726573 	ldrbtvc	r6, [r2], #-1395	; 0xfffffa8d
    8fa8:	68735f73 	ldmdavs	r3!, {r0, r1, r4, r5, r6, r8, r9, sl, fp, ip, lr}^
    8fac:	64657261 	strbtvs	r7, [r5], #-609	; 0xfffffd9f
    8fb0:	2e2e2e28 	cdpcs	14, 2, cr2, cr14, cr8, {1}
    8fb4:	5f5f2029 	svcpl	0x005f2029
    8fb8:	6b636f6c 	blvs	18e4d70 <_Min_Stack_Size+0x18e4970>
    8fbc:	6e6e615f 	mcrvs	1, 3, r6, cr14, cr15, {2}
    8fc0:	7461746f 	strbtvc	r7, [r1], #-1135	; 0xfffffb91
    8fc4:	73612865 	cmnvc	r1, #6619136	; 0x650000
    8fc8:	74726573 	ldrbtvc	r6, [r2], #-1395	; 0xfffffa8d
    8fcc:	6168735f 	cmnvs	r8, pc, asr r3
    8fd0:	5f646572 	svcpl	0x00646572
    8fd4:	6b636f6c 	blvs	18e4d8c <_Min_Stack_Size+0x18e498c>
    8fd8:	565f5f28 	ldrbpl	r5, [pc], -r8, lsr #30
    8fdc:	52415f41 	subpl	r5, r1, #260	; 0x104
    8fe0:	5f5f5347 	svcpl	0x005f5347
    8fe4:	5f002929 	svcpl	0x00002929
    8fe8:	4e454552 	mcrmi	5, 2, r4, cr5, cr2, {2}
    8fec:	4d535f54 	ldclmi	15, cr5, [r3, #-336]	; 0xfffffeb0
    8ff0:	5f4c4c41 	svcpl	0x004c4c41
    8ff4:	43454843 	movtmi	r4, #22595	; 0x5843
    8ff8:	4e495f4b 	cdpmi	15, 4, cr5, cr9, cr11, {2}
    8ffc:	70285449 	eorvc	r5, r8, r9, asr #8
    9000:	20297274 	eorcs	r7, r9, r4, ror r2
    9004:	7b206f64 	blvc	824d9c <_Min_Stack_Size+0x82499c>
    9008:	20666920 	rsbcs	r6, r6, r0, lsr #18
    900c:	74702828 	ldrbtvc	r2, [r0], #-2088	; 0xfffff7d8
    9010:	26202972 			; <UNDEFINED> instruction: 0x26202972
    9014:	28212026 	stmdacs	r1!, {r1, r2, r5, sp}
    9018:	29727470 	ldmdbcs	r2!, {r4, r5, r6, sl, ip, sp, lr}^
    901c:	5f5f3e2d 	svcpl	0x005f3e2d
    9020:	64696473 	strbtvs	r6, [r9], #-1139	; 0xfffffb8d
    9024:	74696e69 	strbtvc	r6, [r9], #-3689	; 0xfffff197
    9028:	5f5f2029 	svcpl	0x005f2029
    902c:	696e6973 	stmdbvs	lr!, {r0, r1, r4, r5, r6, r8, fp, sp, lr}^
    9030:	70282074 	eorvc	r2, r8, r4, ror r0
    9034:	3b297274 	blcc	a65a0c <_Min_Stack_Size+0xa6560c>
    9038:	77207d20 	strvc	r7, [r0, -r0, lsr #26]!
    903c:	656c6968 	strbvs	r6, [ip, #-2408]!	; 0xfffff698
    9040:	29302820 	ldmdbcs	r0!, {r5, fp, sp}
    9044:	695f5f00 	ldmdbvs	pc, {r8, r9, sl, fp, ip, lr}^	; <UNPREDICTABLE>
    9048:	3032746e 	eorscc	r7, r2, lr, ror #8
    904c:	4d495400 	cfstrdmi	mvd5, [r9, #-0]
    9050:	41425f32 	cmpmi	r2, r2, lsr pc
    9054:	30204553 	eorcc	r4, r0, r3, asr r5
    9058:	30303478 	eorscc	r3, r0, r8, ror r4
    905c:	30303030 	eorscc	r3, r0, r0, lsr r0
    9060:	5f007530 	svcpl	0x00007530
    9064:	4f4e414e 	svcmi	0x004e414e
    9068:	524f465f 	subpl	r4, pc, #99614720	; 0x5f00000
    906c:	5454414d 	ldrbpl	r4, [r4], #-333	; 0xfffffeb3
    9070:	495f4445 	ldmdbmi	pc, {r0, r2, r6, sl, lr}^	; <UNPREDICTABLE>
    9074:	0031204f 	eorseq	r2, r1, pc, asr #32
    9078:	5f544e49 	svcpl	0x00544e49
    907c:	54534146 	ldrbpl	r4, [r3], #-326	; 0xfffffeba
    9080:	4d5f3233 	lfmmi	f3, 2, [pc, #-204]	; 8fbc <_Min_Stack_Size+0x8bbc>
    9084:	28205841 	stmdacs	r0!, {r0, r6, fp, ip, lr}
    9088:	4e495f5f 	mcrmi	15, 2, r5, cr9, cr15, {2}
    908c:	41465f54 	cmpmi	r6, r4, asr pc
    9090:	32335453 	eorscc	r5, r3, #1392508928	; 0x53000000
    9094:	58414d5f 	stmdapl	r1, {r0, r1, r2, r3, r4, r6, r8, sl, fp, lr}^
    9098:	00295f5f 	eoreq	r5, r9, pc, asr pc
    909c:	4c465f5f 	mcrrmi	15, 5, r5, r6, cr15
    90a0:	5f323354 	svcpl	0x00323354
    90a4:	4d524f4e 	ldclmi	15, cr4, [r2, #-312]	; 0xfffffec8
    90a8:	58414d5f 	stmdapl	r1, {r0, r1, r2, r3, r4, r6, r8, sl, fp, lr}^
    90ac:	33205f5f 			; <UNDEFINED> instruction: 0x33205f5f
    90b0:	3230342e 	eorscc	r3, r0, #771751936	; 0x2e000000
    90b4:	34333238 	ldrtcc	r3, [r3], #-568	; 0xfffffdc8
    90b8:	38333636 	ldmdacc	r3!, {r1, r2, r4, r5, r9, sl, ip, sp}
    90bc:	38383235 	ldmdacc	r8!, {r0, r2, r4, r5, r9, ip, sp}
    90c0:	332b6536 			; <UNDEFINED> instruction: 0x332b6536
    90c4:	32334638 	eorscc	r4, r3, #56, 12	; 0x3800000
    90c8:	49564e00 	ldmdbmi	r6, {r9, sl, fp, lr}^
    90cc:	53555f43 	cmppl	r5, #268	; 0x10c
    90d0:	31545241 	cmpcc	r4, r1, asr #4
    90d4:	5152495f 	cmppl	r2, pc, asr r9
    90d8:	616e455f 	cmnvs	lr, pc, asr r5
    90dc:	20656c62 	rsbcs	r6, r5, r2, ror #24
    90e0:	49564e28 	ldmdbmi	r6, {r3, r5, r9, sl, fp, lr}^
    90e4:	53495f43 	movtpl	r5, #40771	; 0x9f43
    90e8:	20315245 	eorscs	r5, r1, r5, asr #4
    90ec:	31203d7c 			; <UNDEFINED> instruction: 0x31203d7c
    90f0:	55283c3c 	strpl	r3, [r8, #-3132]!	; 0xfffff3c4
    90f4:	54524153 	ldrbpl	r4, [r2], #-339	; 0xfffffead
    90f8:	52495f31 	subpl	r5, r9, #49, 30	; 0xc4
    90fc:	202d2051 	eorcs	r2, sp, r1, asr r0
    9100:	29293233 	stmdbcs	r9!, {r0, r1, r4, r5, r9, ip, sp}
    9104:	45525f00 	ldrbmi	r5, [r2, #-3840]	; 0xfffff100
    9108:	5f544e45 	svcpl	0x00544e45
    910c:	54435341 	strbpl	r5, [r3], #-833	; 0xfffffcbf
    9110:	5f454d49 	svcpl	0x00454d49
    9114:	455a4953 	ldrbmi	r4, [sl, #-2387]	; 0xfffff6ad
    9118:	00363220 	eorseq	r3, r6, r0, lsr #4
    911c:	5f434352 	svcpl	0x00434352
    9120:	4f495047 	svcmi	0x00495047
    9124:	4c435f41 	mcrrmi	15, 4, r5, r3, cr1
    9128:	4e455f4b 	cdpmi	15, 4, cr5, cr5, cr11, {2}
    912c:	28202928 	stmdacs	r0!, {r3, r5, r8, fp, sp}
    9130:	2d434352 	stclcs	3, cr4, [r3, #-328]	; 0xfffffeb8
    9134:	4250413e 	subsmi	r4, r0, #-2147483633	; 0x8000000f
    9138:	524e4532 	subpl	r4, lr, #209715200	; 0xc800000
    913c:	203d7c20 	eorscs	r7, sp, r0, lsr #24
    9140:	3c3c3128 	ldfccs	f3, [ip], #-160	; 0xffffff60
    9144:	00292932 	eoreq	r2, r9, r2, lsr r9
    9148:	50544e49 	subspl	r4, r4, r9, asr #28
    914c:	4d5f5254 	lfmmi	f5, 2, [pc, #-336]	; 9004 <_Min_Stack_Size+0x8c04>
    9150:	28204e49 	stmdacs	r0!, {r0, r3, r6, r9, sl, fp, lr}
    9154:	495f5f2d 	ldmdbmi	pc, {r0, r2, r3, r5, r8, r9, sl, fp, ip, lr}^	; <UNPREDICTABLE>
    9158:	5450544e 	ldrbpl	r5, [r0], #-1102	; 0xfffffbb2
    915c:	414d5f52 	cmpmi	sp, r2, asr pc
    9160:	205f5f58 	subscs	r5, pc, r8, asr pc	; <UNPREDICTABLE>
    9164:	2931202d 	ldmdbcs	r1!, {r0, r2, r3, r5, sp}
    9168:	52545000 	subspl	r5, r4, #0
    916c:	46464944 	strbmi	r4, [r6], -r4, asr #18
    9170:	4e494d5f 	mcrmi	13, 2, r4, cr9, cr15, {2}
    9174:	502d2820 	eorpl	r2, sp, r0, lsr #16
    9178:	49445254 	stmdbmi	r4, {r2, r4, r6, r9, ip, lr}^
    917c:	4d5f4646 	ldclmi	6, cr4, [pc, #-280]	; 906c <_Min_Stack_Size+0x8c6c>
    9180:	2d205841 	stccs	8, cr5, [r0, #-260]!	; 0xfffffefc
    9184:	00293120 	eoreq	r3, r9, r0, lsr #2
    9188:	534f505f 	movtpl	r5, #61535	; 0xf05f
    918c:	435f5849 	cmpmi	pc, #4784128	; 0x490000
    9190:	554f535f 	strbpl	r5, [pc, #-863]	; 8e39 <_Min_Stack_Size+0x8a39>
    9194:	00454352 	subeq	r4, r5, r2, asr r3
    9198:	49555f5f 	ldmdbmi	r5, {r0, r1, r2, r3, r4, r6, r8, r9, sl, fp, ip, lr}^
    919c:	414d544e 	cmpmi	sp, lr, asr #8
    91a0:	414d5f58 	cmpmi	sp, r8, asr pc
    91a4:	205f5f58 	subscs	r5, pc, r8, asr pc	; <UNPREDICTABLE>
    91a8:	66667830 			; <UNDEFINED> instruction: 0x66667830
    91ac:	66666666 	strbtvs	r6, [r6], -r6, ror #12
    91b0:	66666666 	strbtvs	r6, [r6], -r6, ror #12
    91b4:	66666666 	strbtvs	r6, [r6], -r6, ror #12
    91b8:	4c556666 	mrrcmi	6, 6, r6, r5, cr6
    91bc:	564e004c 	strbpl	r0, [lr], -ip, asr #32
    91c0:	555f4349 	ldrbpl	r4, [pc, #-841]	; 8e7f <_Min_Stack_Size+0x8a7f>
    91c4:	54524153 	ldrbpl	r4, [r2], #-339	; 0xfffffead
    91c8:	52495f32 	subpl	r5, r9, #50, 30	; 0xc8
    91cc:	6e455f51 	mcrvs	15, 2, r5, cr5, cr1, {2}
    91d0:	656c6261 	strbvs	r6, [ip, #-609]!	; 0xfffffd9f
    91d4:	564e2820 	strbpl	r2, [lr], -r0, lsr #16
    91d8:	495f4349 	ldmdbmi	pc, {r0, r3, r6, r8, r9, lr}^	; <UNPREDICTABLE>
    91dc:	31524553 	cmpcc	r2, r3, asr r5
    91e0:	203d7c20 	eorscs	r7, sp, r0, lsr #24
    91e4:	283c3c31 	ldmdacs	ip!, {r0, r4, r5, sl, fp, ip, sp}
    91e8:	52415355 	subpl	r5, r1, #1409286145	; 0x54000001
    91ec:	495f3254 	ldmdbmi	pc, {r2, r4, r6, r9, ip, sp}^	; <UNPREDICTABLE>
    91f0:	2d205152 	stfcss	f5, [r0, #-328]!	; 0xfffffeb8
    91f4:	29323320 	ldmdbcs	r2!, {r5, r8, r9, ip, sp}
    91f8:	5f5f0029 	svcpl	0x005f0029
    91fc:	5f4c4244 	svcpl	0x004c4244
    9200:	544e414d 	strbpl	r4, [lr], #-333	; 0xfffffeb3
    9204:	4749445f 	smlsldmi	r4, r9, pc, r4	; <UNPREDICTABLE>
    9208:	35205f5f 	strcc	r5, [r0, #-3935]!	; 0xfffff0a1
    920c:	58450033 	stmdapl	r5, {r0, r1, r4, r5}^
    9210:	50314954 	eorspl	r4, r1, r4, asr r9
    9214:	28203144 	stmdacs	r0!, {r2, r6, r8, ip, sp}
    9218:	49545845 	ldmdbmi	r4, {r0, r2, r6, fp, ip, lr}^
    921c:	4950475f 	ldmdbmi	r0, {r0, r1, r2, r3, r4, r6, r8, r9, sl, lr}^
    9220:	614d5f4f 	cmpvs	sp, pc, asr #30
    9224:	6e697070 	mcrvs	0, 3, r7, cr9, cr0, {3}
    9228:	29745f67 	ldmdbcs	r4!, {r0, r1, r2, r5, r6, r8, r9, sl, fp, ip, lr}^
    922c:	5458457b 	ldrbpl	r4, [r8], #-1403	; 0xfffffa85
    9230:	202c3149 	eorcs	r3, ip, r9, asr #2
    9234:	4f495047 	svcmi	0x00495047
    9238:	47202c44 	strmi	r2, [r0, -r4, asr #24]!
    923c:	5f4f4950 	svcpl	0x004f4950
    9240:	5f4e4950 	svcpl	0x004e4950
    9244:	45202c31 	strmi	r2, [r0, #-3121]!	; 0xfffff3cf
    9248:	31495458 	cmpcc	r9, r8, asr r4
    924c:	5152495f 	cmppl	r2, pc, asr r9
    9250:	5f5f007d 	svcpl	0x005f007d
    9254:	52464c55 	subpl	r4, r6, #21760	; 0x5500
    9258:	5f544341 	svcpl	0x00544341
    925c:	54494249 	strbpl	r4, [r9], #-585	; 0xfffffdb7
    9260:	30205f5f 	eorcc	r5, r0, pc, asr pc
    9264:	4d495400 	cfstrdmi	mvd5, [r9, #-0]
    9268:	41425f31 	cmpmi	r2, r1, lsr pc
    926c:	30204553 	eorcc	r4, r0, r3, asr r5
    9270:	30303478 	eorscc	r3, r0, r8, ror r4
    9274:	30433231 	subcc	r3, r3, r1, lsr r2
    9278:	45007530 	strmi	r7, [r0, #-1328]	; 0xfffffad0
    927c:	32495458 	subcc	r5, r9, #88, 8	; 0x58000000
    9280:	20324250 	eorscs	r4, r2, r0, asr r2
    9284:	54584528 	ldrbpl	r4, [r8], #-1320	; 0xfffffad8
    9288:	50475f49 	subpl	r5, r7, r9, asr #30
    928c:	4d5f4f49 	ldclmi	15, cr4, [pc, #-292]	; 9170 <_Min_Stack_Size+0x8d70>
    9290:	69707061 	ldmdbvs	r0!, {r0, r5, r6, ip, sp, lr}^
    9294:	745f676e 	ldrbvc	r6, [pc], #-1902	; 929c <_Min_Stack_Size+0x8e9c>
    9298:	58457b29 	stmdapl	r5, {r0, r3, r5, r8, r9, fp, ip, sp, lr}^
    929c:	2c324954 			; <UNDEFINED> instruction: 0x2c324954
    92a0:	49504720 	ldmdbmi	r0, {r5, r8, r9, sl, lr}^
    92a4:	202c424f 	eorcs	r4, ip, pc, asr #4
    92a8:	4f495047 	svcmi	0x00495047
    92ac:	4e49505f 	mcrmi	0, 2, r5, cr9, cr15, {2}
    92b0:	202c325f 	eorcs	r3, ip, pc, asr r2
    92b4:	49545845 	ldmdbmi	r4, {r0, r2, r6, fp, ip, lr}^
    92b8:	52495f32 	subpl	r5, r9, #50, 30	; 0xc8
    92bc:	5f007d51 	svcpl	0x00007d51
    92c0:	5359535f 	cmppl	r9, #2080374785	; 0x7c000001
    92c4:	434f4c5f 	movtmi	r4, #64607	; 0xfc5f
    92c8:	5f485f4b 	svcpl	0x00485f4b
    92cc:	5f00205f 	svcpl	0x0000205f
    92d0:	736f6e5f 	cmnvc	pc, #1520	; 0x5f0
    92d4:	74696e61 	strbtvc	r6, [r9], #-3681	; 0xfffff19f
    92d8:	74657a69 	strbtvc	r7, [r5], #-2665	; 0xfffff597
    92dc:	61657268 	cmnvs	r5, r8, ror #4
    92e0:	5f002064 	svcpl	0x00002064
    92e4:	544e495f 	strbpl	r4, [lr], #-2399	; 0xfffff6a1
    92e8:	58414d5f 	stmdapl	r1, {r0, r1, r2, r3, r4, r6, r8, sl, fp, lr}^
    92ec:	30205f5f 	eorcc	r5, r0, pc, asr pc
    92f0:	66663778 			; <UNDEFINED> instruction: 0x66663778
    92f4:	66666666 	strbtvs	r6, [r6], -r6, ror #12
    92f8:	5f5f0066 	svcpl	0x005f0066
    92fc:	5f544e49 	svcpl	0x00544e49
    9300:	5341454c 	movtpl	r4, #5452	; 0x154c
    9304:	5f343654 	svcpl	0x00343654
    9308:	45505954 	ldrbmi	r5, [r0, #-2388]	; 0xfffff6ac
    930c:	6c205f5f 	stcvs	15, cr5, [r0], #-380	; 0xfffffe84
    9310:	20676e6f 	rsbcs	r6, r7, pc, ror #28
    9314:	676e6f6c 	strbvs	r6, [lr, -ip, ror #30]!
    9318:	746e6920 	strbtvc	r6, [lr], #-2336	; 0xfffff6e0
    931c:	54584500 	ldrbpl	r4, [r8], #-1280	; 0xfffffb00
    9320:	50333149 	eorspl	r3, r3, r9, asr #2
    9324:	20333144 	eorscs	r3, r3, r4, asr #2
    9328:	54584528 	ldrbpl	r4, [r8], #-1320	; 0xfffffad8
    932c:	50475f49 	subpl	r5, r7, r9, asr #30
    9330:	4d5f4f49 	ldclmi	15, cr4, [pc, #-292]	; 9214 <_Min_Stack_Size+0x8e14>
    9334:	69707061 	ldmdbvs	r0!, {r0, r5, r6, ip, sp, lr}^
    9338:	745f676e 	ldrbvc	r6, [pc], #-1902	; 9340 <_Min_Stack_Size+0x8f40>
    933c:	58457b29 	stmdapl	r5, {r0, r3, r5, r8, r9, fp, ip, sp, lr}^
    9340:	33314954 	teqcc	r1, #84, 18	; 0x150000
    9344:	5047202c 	subpl	r2, r7, ip, lsr #32
    9348:	2c444f49 	mcrrcs	15, 4, r4, r4, cr9
    934c:	49504720 	ldmdbmi	r0, {r5, r8, r9, sl, lr}^
    9350:	49505f4f 	ldmdbmi	r0, {r0, r1, r2, r3, r6, r8, r9, sl, fp, ip, lr}^
    9354:	33315f4e 	teqcc	r1, #312	; 0x138
    9358:	5845202c 	stmdapl	r5, {r2, r3, r5, sp}^
    935c:	33314954 	teqcc	r1, #84, 18	; 0x150000
    9360:	5152495f 	cmppl	r2, pc, asr r9
    9364:	5f5f007d 	svcpl	0x005f007d
    9368:	5f4d5241 	svcpl	0x004d5241
    936c:	54414546 	strbpl	r4, [r1], #-1350	; 0xfffffaba
    9370:	5f455255 	svcpl	0x00455255
    9374:	5f454443 	svcpl	0x00454443
    9378:	52504f43 	subspl	r4, r0, #268	; 0x10c
    937c:	5f00434f 	svcpl	0x0000434f
    9380:	5245565f 	subpl	r5, r5, #99614720	; 0x5f00000
    9384:	4e4f4953 			; <UNDEFINED> instruction: 0x4e4f4953
    9388:	22205f5f 	eorcs	r5, r0, #380	; 0x17c
    938c:	332e3031 			; <UNDEFINED> instruction: 0x332e3031
    9390:	3220312e 	eorcc	r3, r0, #-2147483637	; 0x8000000b
    9394:	30313230 	eorscc	r3, r1, r0, lsr r2
    9398:	20343238 	eorscs	r3, r4, r8, lsr r2
    939c:	6c657228 	sfmvs	f7, 2, [r5], #-160	; 0xffffff60
    93a0:	65736165 	ldrbvs	r6, [r3, #-357]!	; 0xfffffe9b
    93a4:	2e002229 	cdpcs	2, 0, cr2, cr0, cr9, {1}
    93a8:	74532f2e 	ldrbvc	r2, [r3], #-3886	; 0xfffff0d2
    93ac:	75747261 	ldrbvc	r7, [r4, #-609]!	; 0xfffffd9f
    93b0:	74732f70 	ldrbtvc	r2, [r3], #-3952	; 0xfffff090
    93b4:	75747261 	ldrbvc	r7, [r4, #-609]!	; 0xfffffd9f
    93b8:	74735f70 	ldrbtvc	r5, [r3], #-3952	; 0xfffff090
    93bc:	6632336d 	ldrtvs	r3, [r2], -sp, ror #6
    93c0:	63333031 	teqvs	r3, #49	; 0x31
    93c4:	2e787436 	mrccs	4, 3, r7, cr8, cr6, {1}
    93c8:	4e470073 	mcrmi	0, 2, r0, cr7, cr3, {3}
    93cc:	53412055 	movtpl	r2, #4181	; 0x1055
    93d0:	332e3220 			; <UNDEFINED> instruction: 0x332e3220
    93d4:	00312e36 	eorseq	r2, r1, r6, lsr lr
    93d8:	4c41434d 	mcrrmi	3, 4, r4, r1, cr13
    93dc:	4950475f 	ldmdbmi	r0, {r0, r1, r2, r3, r4, r6, r8, r9, sl, lr}^
    93e0:	6e495f4f 	cdpvs	15, 4, cr5, cr9, cr15, {2}
    93e4:	45007469 	strmi	r7, [r0, #-1129]	; 0xfffffb97
    93e8:	43495458 	movtmi	r5, #37976	; 0x9458
    93ec:	54460052 	strbpl	r0, [r6], #-82	; 0xffffffae
    93f0:	4d005253 	sfmmi	f5, 4, [r0, #-332]	; 0xfffffeb4
    93f4:	5f6c6163 	svcpl	0x006c6163
    93f8:	49545845 	ldmdbmi	r4, {r0, r2, r6, fp, ip, lr}^
    93fc:	4950475f 	ldmdbmi	r0, {r0, r1, r2, r3, r4, r6, r8, r9, sl, lr}^
    9400:	70755f4f 	rsbsvc	r5, r5, pc, asr #30
    9404:	65746164 	ldrbvs	r6, [r4, #-356]!	; 0xfffffe9c
    9408:	53545200 	cmppl	r4, #0, 4
    940c:	50470052 	subpl	r0, r7, r2, asr r0
    9410:	4d5f4f49 	ldclmi	15, cr4, [pc, #-292]	; 92f4 <_Min_Stack_Size+0x8ef4>
    9414:	0045444f 	subeq	r4, r5, pc, asr #8
    9418:	49545845 	ldmdbmi	r4, {r0, r2, r6, fp, ip, lr}^
    941c:	52495f34 	subpl	r5, r9, #52, 30	; 0xd0
    9420:	6e614851 	mcrvs	8, 3, r4, cr1, cr1, {2}
    9424:	72656c64 	rsbvc	r6, r5, #100, 24	; 0x6400
    9428:	49464100 	stmdbmi	r6, {r8, lr}^
    942c:	58455f4f 	stmdapl	r5, {r0, r1, r2, r3, r6, r8, r9, sl, fp, ip, lr}^
    9430:	52434954 	subpl	r4, r3, #84, 18	; 0x150000
    9434:	736f505f 	cmnvc	pc, #95	; 0x5f
    9438:	6f697469 	svcvs	0x00697469
    943c:	5047006e 	subpl	r0, r7, lr, rrx
    9440:	505f4f49 	subspl	r4, pc, r9, asr #30
    9444:	6f436e69 	svcvs	0x00436e69
    9448:	6769666e 	strbvs	r6, [r9, -lr, ror #12]!
    944c:	4d00745f 	cfstrsmi	mvf7, [r0, #-380]	; 0xfffffe84
    9450:	32525041 	subscc	r5, r2, #65	; 0x41
    9454:	61634d00 	cmnvs	r3, r0, lsl #26
    9458:	58455f6c 	stmdapl	r5, {r2, r3, r5, r6, r8, r9, sl, fp, ip, lr}^
    945c:	475f4954 			; <UNDEFINED> instruction: 0x475f4954
    9460:	5f4f4950 	svcpl	0x004f4950
    9464:	6e496544 	cdpvs	5, 4, cr6, cr9, cr4, {2}
    9468:	47007469 	strmi	r7, [r0, -r9, ror #8]
    946c:	5f4f4950 	svcpl	0x004f4950
    9470:	5054554f 	subspl	r5, r4, pc, asr #10
    9474:	535f5455 	cmppl	pc, #1426063360	; 0x55000000
    9478:	44454550 	strbmi	r4, [r5], #-1360	; 0xfffffab0
    947c:	2f2e2e00 	svccs	0x002e2e00
    9480:	336d7473 	cmncc	sp, #1929379840	; 0x73000000
    9484:	31665f32 	cmncc	r6, r2, lsr pc
    9488:	36633330 			; <UNDEFINED> instruction: 0x36633330
    948c:	6972645f 	ldmdbvs	r2!, {r0, r1, r2, r3, r4, r6, sl, sp, lr}^
    9490:	73726576 	cmnvc	r2, #494927872	; 0x1d800000
    9494:	6d74732f 	ldclvs	3, cr7, [r4, #-188]!	; 0xffffff44
    9498:	665f3233 			; <UNDEFINED> instruction: 0x665f3233
    949c:	63333031 	teqvs	r3, #49	; 0x31
    94a0:	72645f36 	rsbvc	r5, r4, #54, 30	; 0xd8
    94a4:	72657669 	rsbvc	r7, r5, #110100480	; 0x6900000
    94a8:	58455f73 	stmdapl	r5, {r0, r1, r4, r5, r6, r8, r9, sl, fp, ip, lr}^
    94ac:	632e4954 			; <UNDEFINED> instruction: 0x632e4954
    94b0:	51524900 	cmppl	r2, r0, lsl #18
    94b4:	6d756e5f 	ldclvs	14, cr6, [r5, #-380]!	; 0xfffffe84
    94b8:	49464100 	stmdbmi	r6, {r8, lr}^
    94bc:	50475f4f 	subpl	r5, r7, pc, asr #30
    94c0:	4d5f4f49 	ldclmi	15, cr4, [pc, #-292]	; 93a4 <_Min_Stack_Size+0x8fa4>
    94c4:	69707061 	ldmdbvs	r0!, {r0, r5, r6, ip, sp, lr}^
    94c8:	7828676e 	stmdavc	r8!, {r1, r2, r3, r5, r6, r8, r9, sl, sp, lr}
    94cc:	20282029 	eorcs	r2, r8, r9, lsr #32
    94d0:	3d3d7828 	ldccc	8, cr7, [sp, #-160]!	; 0xffffff60
    94d4:	4f495047 	svcmi	0x00495047
    94d8:	303f2941 	eorscc	r2, pc, r1, asr #18
    94dc:	7828203a 	stmdavc	r8!, {r1, r3, r4, r5, sp}
    94e0:	50473d3d 	subpl	r3, r7, sp, lsr sp
    94e4:	29424f49 	stmdbcs	r2, {r0, r3, r6, r8, r9, sl, fp, lr}^
    94e8:	203a313f 	eorscs	r3, sl, pc, lsr r1
    94ec:	3d3d7828 	ldccc	8, cr7, [sp, #-160]!	; 0xffffff60
    94f0:	4f495047 	svcmi	0x00495047
    94f4:	323f2943 	eorscc	r2, pc, #1097728	; 0x10c000
    94f8:	7828203a 	stmdavc	r8!, {r1, r3, r4, r5, sp}
    94fc:	50473d3d 	subpl	r3, r7, sp, lsr sp
    9500:	29444f49 	stmdbcs	r4, {r0, r3, r6, r8, r9, sl, fp, lr}^
    9504:	303a333f 	eorscc	r3, sl, pc, lsr r3
    9508:	47002920 	strmi	r2, [r0, -r0, lsr #18]
    950c:	52495f50 	subpl	r5, r9, #80, 30	; 0x140
    9510:	61435f51 	cmpvs	r3, r1, asr pc
    9514:	61426c6c 	cmpvs	r2, ip, ror #24
    9518:	45006b63 	strmi	r6, [r0, #-2915]	; 0xfffff49d
    951c:	5f495458 	svcpl	0x00495458
    9520:	65707954 	ldrbvs	r7, [r0, #-2388]!	; 0xfffff6ac
    9524:	5f666564 	svcpl	0x00666564
    9528:	49500074 	ldmdbmi	r0, {r2, r4, r5, r6}^
    952c:	4e4f434e 	cdpmi	3, 4, cr4, cr15, cr14, {2}
    9530:	00474946 	subeq	r4, r7, r6, asr #18
    9534:	45495753 	strbmi	r5, [r9, #-1875]	; 0xfffff8ad
    9538:	414d0052 	qdaddmi	r0, r2, sp
    953c:	45005250 	strmi	r5, [r0, #-592]	; 0xfffffdb0
    9540:	32495458 	subcc	r5, r9, #88, 8	; 0x58000000
    9544:	5152495f 	cmppl	r2, pc, asr r9
    9548:	646e6148 	strbtvs	r6, [lr], #-328	; 0xfffffeb8
    954c:	0072656c 	rsbseq	r6, r2, ip, ror #10
    9550:	61647075 	smcvs	18181	; 0x4705
    9554:	455f6574 	ldrbmi	r6, [pc, #-1396]	; 8fe8 <_Min_Stack_Size+0x8be8>
    9558:	00495458 	subeq	r5, r9, r8, asr r4
    955c:	49545845 	ldmdbmi	r4, {r0, r2, r6, fp, ip, lr}^
    9560:	5f355f39 	svcpl	0x00355f39
    9564:	48515249 	ldmdami	r1, {r0, r3, r6, r9, ip, lr}^
    9568:	6c646e61 	stclvs	14, cr6, [r4], #-388	; 0xfffffe7c
    956c:	41007265 	tstmi	r0, r5, ror #4
    9570:	5f4f4946 	svcpl	0x004f4946
    9574:	65707954 	ldrbvs	r7, [r0, #-2388]!	; 0xfffff6ac
    9578:	5f666564 	svcpl	0x00666564
    957c:	58450074 	stmdapl	r5, {r2, r4, r5, r6}^
    9580:	705f4954 	subsvc	r4, pc, r4, asr r9	; <UNPREDICTABLE>
    9584:	6f636e69 	svcvs	0x00636e69
    9588:	6769666e 	strbvs	r6, [r9, -lr, ror #12]!
    958c:	49504700 	ldmdbmi	r0, {r8, r9, sl, lr}^
    9590:	69505f4f 	ldmdbvs	r0, {r0, r1, r2, r3, r6, r8, r9, sl, fp, ip, lr}^
    9594:	6d754e6e 	ldclvs	14, cr4, [r5, #-440]!	; 0xfffffe48
    9598:	00726562 	rsbseq	r6, r2, r2, ror #10
    959c:	49545845 	ldmdbmi	r4, {r0, r2, r6, fp, ip, lr}^
    95a0:	52495f33 	subpl	r5, r9, #51, 30	; 0xcc
    95a4:	6e614851 	mcrvs	8, 3, r4, cr1, cr1, {2}
    95a8:	72656c64 	rsbvc	r6, r5, #100, 24	; 0x6400
    95ac:	49464100 	stmdbmi	r6, {r8, lr}^
    95b0:	58455f4f 	stmdapl	r5, {r0, r1, r2, r3, r6, r8, r9, sl, fp, ip, lr}^
    95b4:	52434954 	subpl	r4, r3, #84, 18	; 0x150000
    95b8:	646e695f 	strbtvs	r6, [lr], #-2399	; 0xfffff6a1
    95bc:	45007865 	strmi	r7, [r0, #-2149]	; 0xfffff79b
    95c0:	30495458 	subcc	r5, r9, r8, asr r4
    95c4:	5152495f 	cmppl	r2, pc, asr r9
    95c8:	646e6148 	strbtvs	r6, [lr], #-328	; 0xfffffeb8
    95cc:	0072656c 	rsbseq	r6, r2, ip, ror #10
    95d0:	52435645 	subpl	r5, r3, #72351744	; 0x4500000
    95d4:	54584500 	ldrbpl	r4, [r8], #-1280	; 0xfffffb00
    95d8:	5f353149 	svcpl	0x00353149
    95dc:	495f3031 	ldmdbmi	pc, {r0, r4, r5, ip, sp}^	; <UNPREDICTABLE>
    95e0:	61485152 	cmpvs	r8, r2, asr r1
    95e4:	656c646e 	strbvs	r6, [ip, #-1134]!	; 0xfffffb92
    95e8:	65720072 	ldrbvs	r0, [r2, #-114]!	; 0xffffff8e
    95ec:	76726573 			; <UNDEFINED> instruction: 0x76726573
    95f0:	44006465 	strmi	r6, [r0], #-1125	; 0xfffffb9b
    95f4:	62617369 	rsbvs	r7, r1, #-1543503871	; 0xa4000001
    95f8:	4e5f656c 	cdpmi	5, 5, cr6, cr15, cr12, {3}
    95fc:	00434956 	subeq	r4, r3, r6, asr r9
    9600:	49545845 	ldmdbmi	r4, {r0, r2, r6, fp, ip, lr}^
    9604:	52495f31 	subpl	r5, r9, #49, 30	; 0xc4
    9608:	6e614851 	mcrvs	8, 3, r4, cr1, cr1, {2}
    960c:	72656c64 	rsbvc	r6, r5, #100, 24	; 0x6400
    9610:	616e4500 	cmnvs	lr, r0, lsl #10
    9614:	5f656c62 	svcpl	0x00656c62
    9618:	4349564e 	movtmi	r5, #38478	; 0x964e
    961c:	2f2e2e00 	svccs	0x002e2e00
    9620:	336d7473 	cmncc	sp, #1929379840	; 0x73000000
    9624:	31665f32 	cmncc	r6, r2, lsr pc
    9628:	36633330 			; <UNDEFINED> instruction: 0x36633330
    962c:	6972645f 	ldmdbvs	r2!, {r0, r1, r2, r3, r4, r6, sl, sp, lr}^
    9630:	73726576 	cmnvc	r2, #494927872	; 0x1d800000
    9634:	6d74732f 	ldclvs	3, cr7, [r4, #-188]!	; 0xffffff44
    9638:	665f3233 			; <UNDEFINED> instruction: 0x665f3233
    963c:	63333031 	teqvs	r3, #49	; 0x31
    9640:	72645f36 	rsbvc	r5, r4, #54, 30	; 0xd8
    9644:	72657669 	rsbvc	r7, r5, #110100480	; 0x6900000
    9648:	70675f73 	rsbvc	r5, r7, r3, ror pc
    964c:	632e6f69 			; <UNDEFINED> instruction: 0x632e6f69
    9650:	74654700 	strbtvc	r4, [r5], #-1792	; 0xfffff900
    9654:	4c52435f 	mrrcmi	3, 5, r4, r2, cr15
    9658:	6f505f48 	svcvs	0x00505f48
    965c:	69746973 	ldmdbvs	r4!, {r0, r1, r4, r5, r6, r8, fp, sp, lr}^
    9660:	76006e6f 	strvc	r6, [r0], -pc, ror #28
    9664:	65756c61 	ldrbvs	r6, [r5, #-3169]!	; 0xfffff39f
    9668:	6e695000 	cdpvs	0, 6, cr5, cr9, cr0, {0}
    966c:	666e6f43 	strbtvs	r6, [lr], -r3, asr #30
    9670:	4d006769 	stcmi	7, cr6, [r0, #-420]	; 0xfffffe5c
    9674:	5f4c4143 	svcpl	0x004c4143
    9678:	4f495047 	svcmi	0x00495047
    967c:	676f545f 			; <UNDEFINED> instruction: 0x676f545f
    9680:	50656c67 	rsbpl	r6, r5, r7, ror #24
    9684:	47006e69 	strmi	r6, [r0, -r9, ror #28]
    9688:	784f4950 	stmdavc	pc, {r4, r6, r8, fp, lr}^	; <UNPREDICTABLE>
    968c:	41434d00 	cmpmi	r3, r0, lsl #26
    9690:	50475f4c 	subpl	r5, r7, ip, asr #30
    9694:	525f4f49 	subspl	r4, pc, #292	; 0x124
    9698:	50646165 	rsbpl	r6, r4, r5, ror #2
    969c:	50006e69 	andpl	r6, r0, r9, ror #28
    96a0:	435f4e49 	cmpmi	pc, #1168	; 0x490
    96a4:	49464e4f 	stmdbmi	r6, {r0, r1, r2, r3, r6, r9, sl, fp, lr}^
    96a8:	434d0047 	movtmi	r0, #53319	; 0xd047
    96ac:	475f4c41 	ldrbmi	r4, [pc, -r1, asr #24]
    96b0:	5f4f4950 	svcpl	0x004f4950
    96b4:	74697257 	strbtvc	r7, [r9], #-599	; 0xfffffda9
    96b8:	6e695065 	cdpvs	0, 6, cr5, cr9, cr5, {3}
    96bc:	41434d00 	cmpmi	r3, r0, lsl #26
    96c0:	50475f4c 	subpl	r5, r7, ip, asr #30
    96c4:	575f4f49 	ldrbpl	r4, [pc, -r9, asr #30]
    96c8:	65746972 	ldrbvs	r6, [r4, #-2418]!	; 0xfffff68e
    96cc:	74726f50 	ldrbtvc	r6, [r2], #-3920	; 0xfffff0b0
    96d0:	726f7000 	rsbvc	r7, pc, #0
    96d4:	6c615674 	stclvs	6, cr5, [r1], #-464	; 0xfffffe30
    96d8:	4d006575 	cfstr32mi	mvfx6, [r0, #-468]	; 0xfffffe2c
    96dc:	5f4c4143 	svcpl	0x004c4143
    96e0:	4f495047 	svcmi	0x00495047
    96e4:	4965445f 	stmdbmi	r5!, {r0, r1, r2, r3, r4, r6, sl, lr}^
    96e8:	0074696e 	rsbseq	r6, r4, lr, ror #18
    96ec:	4c41434d 	mcrrmi	3, 4, r4, r1, cr13
    96f0:	4950475f 	ldmdbmi	r0, {r0, r1, r2, r3, r4, r6, r8, r9, sl, lr}^
    96f4:	65525f4f 	ldrbvs	r5, [r2, #-3919]	; 0xfffff0b1
    96f8:	6f506461 	svcvs	0x00506461
    96fc:	62007472 	andvs	r7, r0, #1912602624	; 0x72000000
    9700:	74537469 	ldrbvc	r7, [r3], #-1129	; 0xfffffb97
    9704:	73757461 	cmnvc	r5, #1627389952	; 0x61000000
    9708:	6e6f6300 	cdpvs	3, 6, cr6, cr15, cr0, {0}
    970c:	52676966 	rsbpl	r6, r7, #1671168	; 0x198000
    9710:	73696765 	cmnvc	r9, #26476544	; 0x1940000
    9714:	00726574 	rsbseq	r6, r2, r4, ror r5

Disassembly of section .comment:

00000000 <.comment>:
   0:	3a434347 	bcc	10d0d24 <_Min_Stack_Size+0x10d0924>
   4:	4e472820 	cdpmi	8, 4, cr2, cr7, cr0, {1}
   8:	6f542055 	svcvs	0x00542055
   c:	20736c6f 	rsbscs	r6, r3, pc, ror #24
  10:	20726f66 	rsbscs	r6, r2, r6, ror #30
  14:	334d5453 	movtcc	r5, #54355	; 0xd453
  18:	30312032 	eorscc	r2, r1, r2, lsr r0
  1c:	322d332e 	eorcc	r3, sp, #-1207959552	; 0xb8000000
  20:	2e313230 	mrccs	2, 1, r3, cr1, cr0, {1}
  24:	322e3031 	eorcc	r3, lr, #49	; 0x31
  28:	31313230 	teqcc	r1, r0, lsr r2
  2c:	2d353031 	ldccs	0, cr3, [r5, #-196]!	; 0xffffff3c
  30:	30303131 	eorscc	r3, r0, r1, lsr r1
  34:	30312029 	eorscc	r2, r1, r9, lsr #32
  38:	312e332e 			; <UNDEFINED> instruction: 0x312e332e
  3c:	32303220 	eorscc	r3, r0, #32, 4
  40:	32383031 	eorscc	r3, r8, #49	; 0x31
  44:	72282034 	eorvc	r2, r8, #52	; 0x34
  48:	61656c65 	cmnvs	r5, r5, ror #24
  4c:	00296573 	eoreq	r6, r9, r3, ror r5

Disassembly of section .debug_frame:

00000000 <.debug_frame>:
   0:	0000000c 	andeq	r0, r0, ip
   4:	ffffffff 			; <UNDEFINED> instruction: 0xffffffff
   8:	7c020001 	stcvc	0, cr0, [r2], {1}
   c:	000d0c0e 	andeq	r0, sp, lr, lsl #24
  10:	00000024 	andeq	r0, r0, r4, lsr #32
  14:	00000000 	andeq	r0, r0, r0
  18:	08000170 	stmdaeq	r0, {r4, r5, r6, r8}
  1c:	00000040 	andeq	r0, r0, r0, asr #32
  20:	87040e41 	strhi	r0, [r4, -r1, asr #28]
  24:	100e4101 	andne	r4, lr, r1, lsl #2
  28:	5a070d41 	bpl	1c3534 <_Min_Stack_Size+0x1c3134>
  2c:	0d41040e 	cfstrdeq	mvd0, [r1, #-56]	; 0xffffffc8
  30:	0ec7410d 	poleqs	f4, f7, #5.0
  34:	00000000 	andeq	r0, r0, r0
  38:	00000018 	andeq	r0, r0, r8, lsl r0
  3c:	00000000 	andeq	r0, r0, r0
  40:	080001b0 	stmdaeq	r0, {r4, r5, r7, r8}
  44:	0000000e 	andeq	r0, r0, lr
  48:	87080e41 	strhi	r0, [r8, -r1, asr #28]
  4c:	41018e02 	tstmi	r1, r2, lsl #28
  50:	0000070d 	andeq	r0, r0, sp, lsl #14
  54:	00000018 	andeq	r0, r0, r8, lsl r0
  58:	00000000 	andeq	r0, r0, r0
  5c:	080001c0 	stmdaeq	r0, {r6, r7, r8}
  60:	00000028 	andeq	r0, r0, r8, lsr #32
  64:	87080e41 	strhi	r0, [r8, -r1, asr #28]
  68:	41018e02 	tstmi	r1, r2, lsl #28
  6c:	0000070d 	andeq	r0, r0, sp, lsl #14
  70:	0000001c 	andeq	r0, r0, ip, lsl r0
  74:	00000000 	andeq	r0, r0, r0
  78:	080001e8 	stmdaeq	r0, {r3, r5, r6, r7, r8}
  7c:	00000080 	andeq	r0, r0, r0, lsl #1
  80:	87080e41 	strhi	r0, [r8, -r1, asr #28]
  84:	41018e02 	tstmi	r1, r2, lsl #28
  88:	0d41300e 	stcleq	0, cr3, [r1, #-56]	; 0xffffffc8
  8c:	00000007 	andeq	r0, r0, r7
  90:	0000000c 	andeq	r0, r0, ip
  94:	ffffffff 			; <UNDEFINED> instruction: 0xffffffff
  98:	7c020001 	stcvc	0, cr0, [r2], {1}
  9c:	000d0c0e 	andeq	r0, sp, lr, lsl #24
  a0:	00000024 	andeq	r0, r0, r4, lsr #32
  a4:	00000090 	muleq	r0, r0, r0
  a8:	080002bc 	stmdaeq	r0, {r2, r3, r4, r5, r7, r9}
  ac:	000000c8 	andeq	r0, r0, r8, asr #1
  b0:	87040e41 	strhi	r0, [r4, -r1, asr #28]
  b4:	100e4101 	andne	r4, lr, r1, lsl #2
  b8:	02070d41 	andeq	r0, r7, #4160	; 0x1040
  bc:	41040e5a 	tstmi	r4, sl, asr lr
  c0:	c7410d0d 	strbgt	r0, [r1, -sp, lsl #26]
  c4:	0000000e 	andeq	r0, r0, lr
  c8:	00000024 	andeq	r0, r0, r4, lsr #32
  cc:	00000090 	muleq	r0, r0, r0
  d0:	08000384 	stmdaeq	r0, {r2, r7, r8, r9}
  d4:	000000c8 	andeq	r0, r0, r8, asr #1
  d8:	87040e41 	strhi	r0, [r4, -r1, asr #28]
  dc:	100e4101 	andne	r4, lr, r1, lsl #2
  e0:	02070d41 	andeq	r0, r7, #4160	; 0x1040
  e4:	41040e5a 	tstmi	r4, sl, asr lr
  e8:	c7410d0d 	strbgt	r0, [r1, -sp, lsl #26]
  ec:	0000000e 	andeq	r0, r0, lr
  f0:	00000020 	andeq	r0, r0, r0, lsr #32
  f4:	00000090 	muleq	r0, r0, r0
  f8:	0800044c 	stmdaeq	r0, {r2, r3, r6, sl}
  fc:	000001d0 	ldrdeq	r0, [r0], -r0	; <UNPREDICTABLE>
 100:	87080e41 	strhi	r0, [r8, -r1, asr #28]
 104:	41018e02 	tstmi	r1, r2, lsl #28
 108:	0d41180e 	stcleq	8, cr1, [r1, #-56]	; 0xffffffc8
 10c:	0ed50207 	cdpeq	2, 13, cr0, cr5, cr7, {0}
 110:	0d0d4108 	stfeqs	f4, [sp, #-32]	; 0xffffffe0
 114:	0000001c 	andeq	r0, r0, ip, lsl r0
 118:	00000090 	muleq	r0, r0, r0
 11c:	00000000 	andeq	r0, r0, r0
 120:	00000094 	muleq	r0, r4, r0
 124:	87040e41 	strhi	r0, [r4, -r1, asr #28]
 128:	070d4101 	streq	r4, [sp, -r1, lsl #2]
 12c:	410d0d7f 	tstmi	sp, pc, ror sp
 130:	00000ec7 	andeq	r0, r0, r7, asr #29
 134:	00000020 	andeq	r0, r0, r0, lsr #32
 138:	00000090 	muleq	r0, r0, r0
 13c:	00000000 	andeq	r0, r0, r0
 140:	00000016 	andeq	r0, r0, r6, lsl r0
 144:	87080e41 	strhi	r0, [r8, -r1, asr #28]
 148:	41018e02 	tstmi	r1, r2, lsl #28
 14c:	0d41100e 	stcleq	0, cr1, [r1, #-56]	; 0xffffffc8
 150:	080e4607 	stmdaeq	lr, {r0, r1, r2, r9, sl, lr}
 154:	000d0d41 	andeq	r0, sp, r1, asr #26
 158:	00000020 	andeq	r0, r0, r0, lsr #32
 15c:	00000090 	muleq	r0, r0, r0
 160:	0800061c 	stmdaeq	r0, {r2, r3, r4, r9, sl}
 164:	00000016 	andeq	r0, r0, r6, lsl r0
 168:	87080e41 	strhi	r0, [r8, -r1, asr #28]
 16c:	41018e02 	tstmi	r1, r2, lsl #28
 170:	0d41100e 	stcleq	0, cr1, [r1, #-56]	; 0xffffffc8
 174:	080e4607 	stmdaeq	lr, {r0, r1, r2, r9, sl, lr}
 178:	000d0d41 	andeq	r0, sp, r1, asr #26
 17c:	00000018 	andeq	r0, r0, r8, lsl r0
 180:	00000090 	muleq	r0, r0, r0
 184:	08000634 	stmdaeq	r0, {r2, r4, r5, r9, sl}
 188:	00000024 	andeq	r0, r0, r4, lsr #32
 18c:	87080e41 	strhi	r0, [r8, -r1, asr #28]
 190:	41018e02 	tstmi	r1, r2, lsl #28
 194:	0000070d 	andeq	r0, r0, sp, lsl #14
 198:	00000018 	andeq	r0, r0, r8, lsl r0
 19c:	00000090 	muleq	r0, r0, r0
 1a0:	08000658 	stmdaeq	r0, {r3, r4, r6, r9, sl}
 1a4:	00000024 	andeq	r0, r0, r4, lsr #32
 1a8:	87080e41 	strhi	r0, [r8, -r1, asr #28]
 1ac:	41018e02 	tstmi	r1, r2, lsl #28
 1b0:	0000070d 	andeq	r0, r0, sp, lsl #14
 1b4:	00000018 	andeq	r0, r0, r8, lsl r0
 1b8:	00000090 	muleq	r0, r0, r0
 1bc:	0800067c 	stmdaeq	r0, {r2, r3, r4, r5, r6, r9, sl}
 1c0:	00000024 	andeq	r0, r0, r4, lsr #32
 1c4:	87080e41 	strhi	r0, [r8, -r1, asr #28]
 1c8:	41018e02 	tstmi	r1, r2, lsl #28
 1cc:	0000070d 	andeq	r0, r0, sp, lsl #14
 1d0:	00000018 	andeq	r0, r0, r8, lsl r0
 1d4:	00000090 	muleq	r0, r0, r0
 1d8:	080006a0 	stmdaeq	r0, {r5, r7, r9, sl}
 1dc:	00000024 	andeq	r0, r0, r4, lsr #32
 1e0:	87080e41 	strhi	r0, [r8, -r1, asr #28]
 1e4:	41018e02 	tstmi	r1, r2, lsl #28
 1e8:	0000070d 	andeq	r0, r0, sp, lsl #14
 1ec:	00000018 	andeq	r0, r0, r8, lsl r0
 1f0:	00000090 	muleq	r0, r0, r0
 1f4:	080006c4 	stmdaeq	r0, {r2, r6, r7, r9, sl}
 1f8:	00000024 	andeq	r0, r0, r4, lsr #32
 1fc:	87080e41 	strhi	r0, [r8, -r1, asr #28]
 200:	41018e02 	tstmi	r1, r2, lsl #28
 204:	0000070d 	andeq	r0, r0, sp, lsl #14
 208:	00000018 	andeq	r0, r0, r8, lsl r0
 20c:	00000090 	muleq	r0, r0, r0
 210:	080006e8 	stmdaeq	r0, {r3, r5, r6, r7, r9, sl}
 214:	000000a8 	andeq	r0, r0, r8, lsr #1
 218:	87080e41 	strhi	r0, [r8, -r1, asr #28]
 21c:	41018e02 	tstmi	r1, r2, lsl #28
 220:	0000070d 	andeq	r0, r0, sp, lsl #14
 224:	00000018 	andeq	r0, r0, r8, lsl r0
 228:	00000090 	muleq	r0, r0, r0
 22c:	08000790 	stmdaeq	r0, {r4, r7, r8, r9, sl}
 230:	000000c4 	andeq	r0, r0, r4, asr #1
 234:	87080e41 	strhi	r0, [r8, -r1, asr #28]
 238:	41018e02 	tstmi	r1, r2, lsl #28
 23c:	0000070d 	andeq	r0, r0, sp, lsl #14
 240:	0000000c 	andeq	r0, r0, ip
 244:	ffffffff 			; <UNDEFINED> instruction: 0xffffffff
 248:	7c020001 	stcvc	0, cr0, [r2], {1}
 24c:	000d0c0e 	andeq	r0, sp, lr, lsl #24
 250:	00000024 	andeq	r0, r0, r4, lsr #32
 254:	00000240 	andeq	r0, r0, r0, asr #4
 258:	08000854 	stmdaeq	r0, {r2, r4, r6, fp}
 25c:	0000016e 	andeq	r0, r0, lr, ror #2
 260:	87040e41 	strhi	r0, [r4, -r1, asr #28]
 264:	100e4101 	andne	r4, lr, r1, lsl #2
 268:	02070d41 	andeq	r0, r7, #4160	; 0x1040
 26c:	41040eb1 			; <UNDEFINED> instruction: 0x41040eb1
 270:	c7410d0d 	strbgt	r0, [r1, -sp, lsl #26]
 274:	0000000e 	andeq	r0, r0, lr
 278:	00000024 	andeq	r0, r0, r4, lsr #32
 27c:	00000240 	andeq	r0, r0, r0, asr #4
 280:	080009c4 	stmdaeq	r0, {r2, r6, r7, r8, fp}
 284:	000000f8 	strdeq	r0, [r0], -r8
 288:	840c0e41 	strhi	r0, [ip], #-3649	; 0xfffff1bf
 28c:	8e028703 	cdphi	7, 0, cr8, cr2, cr3, {0}
 290:	200e4101 	andcs	r4, lr, r1, lsl #2
 294:	02070d41 	andeq	r0, r7, #4160	; 0x1040
 298:	410c0e77 	tstmi	ip, r7, ror lr
 29c:	00000d0d 	andeq	r0, r0, sp, lsl #26
 2a0:	00000024 	andeq	r0, r0, r4, lsr #32
 2a4:	00000240 	andeq	r0, r0, r0, asr #4
 2a8:	00000000 	andeq	r0, r0, r0
 2ac:	000000cc 	andeq	r0, r0, ip, asr #1
 2b0:	87040e41 	strhi	r0, [r4, -r1, asr #28]
 2b4:	100e4101 	andne	r4, lr, r1, lsl #2
 2b8:	02070d41 	andeq	r0, r7, #4160	; 0x1040
 2bc:	41040e53 	tstmi	r4, r3, asr lr
 2c0:	c7410d0d 	strbgt	r0, [r1, -sp, lsl #26]
 2c4:	0000000e 	andeq	r0, r0, lr
 2c8:	00000024 	andeq	r0, r0, r4, lsr #32
 2cc:	00000240 	andeq	r0, r0, r0, asr #4
 2d0:	00000000 	andeq	r0, r0, r0
 2d4:	0000002e 	andeq	r0, r0, lr, lsr #32
 2d8:	87040e41 	strhi	r0, [r4, -r1, asr #28]
 2dc:	180e4101 	stmdane	lr, {r0, r8, lr}
 2e0:	51070d41 	tstpl	r7, r1, asr #26
 2e4:	0d41040e 	cfstrdeq	mvd0, [r1, #-56]	; 0xffffffc8
 2e8:	0ec7410d 	poleqs	f4, f7, #5.0
 2ec:	00000000 	andeq	r0, r0, r0
 2f0:	00000024 	andeq	r0, r0, r4, lsr #32
 2f4:	00000240 	andeq	r0, r0, r0, asr #4
 2f8:	00000000 	andeq	r0, r0, r0
 2fc:	0000001a 	andeq	r0, r0, sl, lsl r0
 300:	87040e41 	strhi	r0, [r4, -r1, asr #28]
 304:	180e4101 	stmdane	lr, {r0, r8, lr}
 308:	47070d41 	strmi	r0, [r7, -r1, asr #26]
 30c:	0d41040e 	cfstrdeq	mvd0, [r1, #-56]	; 0xffffffc8
 310:	0ec7410d 	poleqs	f4, f7, #5.0
 314:	00000000 	andeq	r0, r0, r0
 318:	00000024 	andeq	r0, r0, r4, lsr #32
 31c:	00000240 	andeq	r0, r0, r0, asr #4
 320:	00000000 	andeq	r0, r0, r0
 324:	0000001c 	andeq	r0, r0, ip, lsl r0
 328:	87040e41 	strhi	r0, [r4, -r1, asr #28]
 32c:	100e4101 	andne	r4, lr, r1, lsl #2
 330:	48070d41 	stmdami	r7, {r0, r6, r8, sl, fp}
 334:	0d41040e 	cfstrdeq	mvd0, [r1, #-56]	; 0xffffffc8
 338:	0ec7410d 	poleqs	f4, f7, #5.0
 33c:	00000000 	andeq	r0, r0, r0
 340:	00000024 	andeq	r0, r0, r4, lsr #32
 344:	00000240 	andeq	r0, r0, r0, asr #4
 348:	00000000 	andeq	r0, r0, r0
 34c:	0000002e 	andeq	r0, r0, lr, lsr #32
 350:	87040e41 	strhi	r0, [r4, -r1, asr #28]
 354:	100e4101 	andne	r4, lr, r1, lsl #2
 358:	51070d41 	tstpl	r7, r1, asr #26
 35c:	0d41040e 	cfstrdeq	mvd0, [r1, #-56]	; 0xffffffc8
 360:	0ec7410d 	poleqs	f4, f7, #5.0
 364:	00000000 	andeq	r0, r0, r0
 368:	00000024 	andeq	r0, r0, r4, lsr #32
 36c:	00000240 	andeq	r0, r0, r0, asr #4
 370:	00000000 	andeq	r0, r0, r0
 374:	00000022 	andeq	r0, r0, r2, lsr #32
 378:	87040e41 	strhi	r0, [r4, -r1, asr #28]
 37c:	100e4101 	andne	r4, lr, r1, lsl #2
 380:	4b070d41 	blmi	1c388c <_Min_Stack_Size+0x1c348c>
 384:	0d41040e 	cfstrdeq	mvd0, [r1, #-56]	; 0xffffffc8
 388:	0ec7410d 	poleqs	f4, f7, #5.0
 38c:	00000000 	andeq	r0, r0, r0
 390:	0000000c 	andeq	r0, r0, ip
 394:	ffffffff 			; <UNDEFINED> instruction: 0xffffffff
 398:	7c020001 	stcvc	0, cr0, [r2], {1}
 39c:	000d0c0e 	andeq	r0, sp, lr, lsl #24
 3a0:	00000018 	andeq	r0, r0, r8, lsl r0
 3a4:	00000390 	muleq	r0, r0, r3
 3a8:	08000abc 	stmdaeq	r0, {r2, r3, r4, r5, r7, r9, fp}
 3ac:	00000048 	andeq	r0, r0, r8, asr #32
 3b0:	84100e41 	ldrhi	r0, [r0], #-3649	; 0xfffff1bf
 3b4:	86038504 	strhi	r8, [r3], -r4, lsl #10
 3b8:	00018e02 	andeq	r8, r1, r2, lsl #28
