
Drivers.axf:     file format elf32-littlearm


Disassembly of section .isr_vector:

08000000 <g_pfnVectors>:
 8000000:	20002800 	andcs	r2, r0, r0, lsl #16
 8000004:	080003c9 	stmdaeq	r0, {r0, r3, r6, r7, r8, r9}
 8000008:	08000419 	stmdaeq	r0, {r0, r3, r4, sl}
 800000c:	080001b1 	stmdaeq	r0, {r0, r4, r5, r7, r8}
 8000010:	08000419 	stmdaeq	r0, {r0, r3, r4, sl}
 8000014:	08000419 	stmdaeq	r0, {r0, r3, r4, sl}
 8000018:	08000419 	stmdaeq	r0, {r0, r3, r4, sl}
	...
 800002c:	08000209 	stmdaeq	r0, {r0, r3, r9}
 8000030:	08000419 	stmdaeq	r0, {r0, r3, r4, sl}
 8000034:	00000000 	andeq	r0, r0, r0
 8000038:	08000419 	stmdaeq	r0, {r0, r3, r4, sl}
 800003c:	080001c1 	stmdaeq	r0, {r0, r6, r7, r8}
 8000040:	08000419 	stmdaeq	r0, {r0, r3, r4, sl}
 8000044:	08000419 	stmdaeq	r0, {r0, r3, r4, sl}
 8000048:	08000419 	stmdaeq	r0, {r0, r3, r4, sl}
 800004c:	08000419 	stmdaeq	r0, {r0, r3, r4, sl}
 8000050:	08000419 	stmdaeq	r0, {r0, r3, r4, sl}
 8000054:	08000419 	stmdaeq	r0, {r0, r3, r4, sl}
 8000058:	08000795 	stmdaeq	r0, {r0, r2, r4, r7, r8, r9, sl}
 800005c:	080007b9 	stmdaeq	r0, {r0, r3, r4, r5, r7, r8, r9, sl}
 8000060:	080007dd 	stmdaeq	r0, {r0, r2, r3, r4, r6, r7, r8, r9, sl}
 8000064:	08000801 	stmdaeq	r0, {r0, fp}
 8000068:	08000825 	stmdaeq	r0, {r0, r2, r5, fp}
 800006c:	08000419 	stmdaeq	r0, {r0, r3, r4, sl}
 8000070:	08000419 	stmdaeq	r0, {r0, r3, r4, sl}
 8000074:	08000419 	stmdaeq	r0, {r0, r3, r4, sl}
 8000078:	08000419 	stmdaeq	r0, {r0, r3, r4, sl}
 800007c:	08000419 	stmdaeq	r0, {r0, r3, r4, sl}
 8000080:	08000419 	stmdaeq	r0, {r0, r3, r4, sl}
 8000084:	08000419 	stmdaeq	r0, {r0, r3, r4, sl}
 8000088:	08000419 	stmdaeq	r0, {r0, r3, r4, sl}
 800008c:	08000419 	stmdaeq	r0, {r0, r3, r4, sl}
 8000090:	08000419 	stmdaeq	r0, {r0, r3, r4, sl}
 8000094:	08000419 	stmdaeq	r0, {r0, r3, r4, sl}
 8000098:	08000419 	stmdaeq	r0, {r0, r3, r4, sl}
 800009c:	08000849 	stmdaeq	r0, {r0, r3, r6, fp}
 80000a0:	08000419 	stmdaeq	r0, {r0, r3, r4, sl}
 80000a4:	08000419 	stmdaeq	r0, {r0, r3, r4, sl}
 80000a8:	08000419 	stmdaeq	r0, {r0, r3, r4, sl}
 80000ac:	08000419 	stmdaeq	r0, {r0, r3, r4, sl}
 80000b0:	08000419 	stmdaeq	r0, {r0, r3, r4, sl}
 80000b4:	08000419 	stmdaeq	r0, {r0, r3, r4, sl}
 80000b8:	08000419 	stmdaeq	r0, {r0, r3, r4, sl}
 80000bc:	08000419 	stmdaeq	r0, {r0, r3, r4, sl}
 80000c0:	08000419 	stmdaeq	r0, {r0, r3, r4, sl}
 80000c4:	08000419 	stmdaeq	r0, {r0, r3, r4, sl}
 80000c8:	08000419 	stmdaeq	r0, {r0, r3, r4, sl}
 80000cc:	08000419 	stmdaeq	r0, {r0, r3, r4, sl}
 80000d0:	08000419 	stmdaeq	r0, {r0, r3, r4, sl}
 80000d4:	080009b5 	stmdaeq	r0, {r0, r2, r4, r5, r7, r8, fp}
 80000d8:	080009c9 	stmdaeq	r0, {r0, r3, r6, r7, r8, fp}
 80000dc:	080009dd 	stmdaeq	r0, {r0, r2, r3, r4, r6, r7, r8, fp}
 80000e0:	080008f1 	stmdaeq	r0, {r0, r4, r5, r6, r7, fp}
 80000e4:	08000419 	stmdaeq	r0, {r0, r3, r4, sl}
 80000e8:	00000000 	andeq	r0, r0, r0
 80000ec:	08000419 	stmdaeq	r0, {r0, r3, r4, sl}
 80000f0:	08000419 	stmdaeq	r0, {r0, r3, r4, sl}
 80000f4:	08000419 	stmdaeq	r0, {r0, r3, r4, sl}
 80000f8:	08000419 	stmdaeq	r0, {r0, r3, r4, sl}
 80000fc:	08000419 	stmdaeq	r0, {r0, r3, r4, sl}
 8000100:	08000419 	stmdaeq	r0, {r0, r3, r4, sl}
 8000104:	08000419 	stmdaeq	r0, {r0, r3, r4, sl}
 8000108:	08000419 	stmdaeq	r0, {r0, r3, r4, sl}
 800010c:	08000419 	stmdaeq	r0, {r0, r3, r4, sl}
 8000110:	08000419 	stmdaeq	r0, {r0, r3, r4, sl}
 8000114:	08000419 	stmdaeq	r0, {r0, r3, r4, sl}
 8000118:	08000419 	stmdaeq	r0, {r0, r3, r4, sl}
 800011c:	08000419 	stmdaeq	r0, {r0, r3, r4, sl}
 8000120:	08000419 	stmdaeq	r0, {r0, r3, r4, sl}
 8000124:	08000419 	stmdaeq	r0, {r0, r3, r4, sl}
 8000128:	08000419 	stmdaeq	r0, {r0, r3, r4, sl}
 800012c:	08000419 	stmdaeq	r0, {r0, r3, r4, sl}

Disassembly of section .text:

08000130 <__do_global_dtors_aux>:
 8000130:	b510      	push	{r4, lr}
 8000132:	4c05      	ldr	r4, [pc, #20]	; (8000148 <__do_global_dtors_aux+0x18>)
 8000134:	7823      	ldrb	r3, [r4, #0]
 8000136:	b933      	cbnz	r3, 8000146 <__do_global_dtors_aux+0x16>
 8000138:	4b04      	ldr	r3, [pc, #16]	; (800014c <__do_global_dtors_aux+0x1c>)
 800013a:	b113      	cbz	r3, 8000142 <__do_global_dtors_aux+0x12>
 800013c:	4804      	ldr	r0, [pc, #16]	; (8000150 <__do_global_dtors_aux+0x20>)
 800013e:	f3af 8000 	nop.w
 8000142:	2301      	movs	r3, #1
 8000144:	7023      	strb	r3, [r4, #0]
 8000146:	bd10      	pop	{r4, pc}
 8000148:	20000004 	andcs	r0, r0, r4
 800014c:	00000000 	andeq	r0, r0, r0
 8000150:	08000ca0 	stmdaeq	r0, {r5, r7, sl, fp}

08000154 <frame_dummy>:
 8000154:	b508      	push	{r3, lr}
 8000156:	4b03      	ldr	r3, [pc, #12]	; (8000164 <frame_dummy+0x10>)
 8000158:	b11b      	cbz	r3, 8000162 <frame_dummy+0xe>
 800015a:	4903      	ldr	r1, [pc, #12]	; (8000168 <frame_dummy+0x14>)
 800015c:	4803      	ldr	r0, [pc, #12]	; (800016c <frame_dummy+0x18>)
 800015e:	f3af 8000 	nop.w
 8000162:	bd08      	pop	{r3, pc}
 8000164:	00000000 	andeq	r0, r0, r0
 8000168:	20000008 	andcs	r0, r0, r8
 800016c:	08000ca0 	stmdaeq	r0, {r5, r7, sl, fp}

08000170 <Switch_CPU_AccessLevel>:
 8000170:	b480      	push	{r7}
 8000172:	b083      	sub	sp, #12
 8000174:	af00      	add	r7, sp, #0
 8000176:	4603      	mov	r3, r0
 8000178:	71fb      	strb	r3, [r7, #7]
 800017a:	79fb      	ldrb	r3, [r7, #7]
 800017c:	2b00      	cmp	r3, #0
 800017e:	d002      	beq.n	8000186 <Switch_CPU_AccessLevel+0x16>
 8000180:	2b01      	cmp	r3, #1
 8000182:	d009      	beq.n	8000198 <Switch_CPU_AccessLevel+0x28>
 8000184:	e00f      	b.n	80001a6 <Switch_CPU_AccessLevel+0x36>
 8000186:	f3ef 8314 	mrs	r3, CONTROL
 800018a:	ea4f 0353 	mov.w	r3, r3, lsr #1
 800018e:	ea4f 0343 	mov.w	r3, r3, lsl #1
 8000192:	f383 8814 	msr	CONTROL, r3
 8000196:	e006      	b.n	80001a6 <Switch_CPU_AccessLevel+0x36>
 8000198:	f3ef 8314 	mrs	r3, CONTROL
 800019c:	f043 0301 	orr.w	r3, r3, #1
 80001a0:	f383 8814 	msr	CONTROL, r3
 80001a4:	bf00      	nop
 80001a6:	bf00      	nop
 80001a8:	370c      	adds	r7, #12
 80001aa:	46bd      	mov	sp, r7
 80001ac:	bc80      	pop	{r7}
 80001ae:	4770      	bx	lr

080001b0 <HardFault_Handler>:
 80001b0:	b580      	push	{r7, lr}
 80001b2:	af00      	add	r7, sp, #0
 80001b4:	2000      	movs	r0, #0
 80001b6:	f7ff ffdb 	bl	8000170 <Switch_CPU_AccessLevel>
 80001ba:	bf00      	nop
 80001bc:	bd80      	pop	{r7, pc}
	...

080001c0 <SysTick_Handler>:
 80001c0:	b480      	push	{r7}
 80001c2:	af00      	add	r7, sp, #0
 80001c4:	4b0a      	ldr	r3, [pc, #40]	; (80001f0 <SysTick_Handler+0x30>)
 80001c6:	681b      	ldr	r3, [r3, #0]
 80001c8:	2b00      	cmp	r3, #0
 80001ca:	d104      	bne.n	80001d6 <SysTick_Handler+0x16>
 80001cc:	4b09      	ldr	r3, [pc, #36]	; (80001f4 <SysTick_Handler+0x34>)
 80001ce:	681b      	ldr	r3, [r3, #0]
 80001d0:	4b07      	ldr	r3, [pc, #28]	; (80001f0 <SysTick_Handler+0x30>)
 80001d2:	681b      	ldr	r3, [r3, #0]
 80001d4:	e007      	b.n	80001e6 <SysTick_Handler+0x26>
 80001d6:	4b06      	ldr	r3, [pc, #24]	; (80001f0 <SysTick_Handler+0x30>)
 80001d8:	681b      	ldr	r3, [r3, #0]
 80001da:	2b01      	cmp	r3, #1
 80001dc:	d103      	bne.n	80001e6 <SysTick_Handler+0x26>
 80001de:	4b06      	ldr	r3, [pc, #24]	; (80001f8 <SysTick_Handler+0x38>)
 80001e0:	681b      	ldr	r3, [r3, #0]
 80001e2:	4b03      	ldr	r3, [pc, #12]	; (80001f0 <SysTick_Handler+0x30>)
 80001e4:	681b      	ldr	r3, [r3, #0]
 80001e6:	bf00      	nop
 80001e8:	46bd      	mov	sp, r7
 80001ea:	bc80      	pop	{r7}
 80001ec:	4770      	bx	lr
 80001ee:	bf00      	nop
 80001f0:	20000034 	andcs	r0, r0, r4, lsr r0
 80001f4:	20000038 	andcs	r0, r0, r8, lsr r0
 80001f8:	2000003c 	andcs	r0, r0, ip, lsr r0

080001fc <EXTI9_callBack>:
 80001fc:	b480      	push	{r7}
 80001fe:	af00      	add	r7, sp, #0
 8000200:	bf00      	nop
 8000202:	46bd      	mov	sp, r7
 8000204:	bc80      	pop	{r7}
 8000206:	4770      	bx	lr

08000208 <SVC_Handler>:
 8000208:	b580      	push	{r7, lr}
 800020a:	af00      	add	r7, sp, #0
 800020c:	2000      	movs	r0, #0
 800020e:	f7ff ffaf 	bl	8000170 <Switch_CPU_AccessLevel>
 8000212:	bf00      	nop
 8000214:	bd80      	pop	{r7, pc}

08000216 <TaskA>:
 8000216:	b480      	push	{r7}
 8000218:	b085      	sub	sp, #20
 800021a:	af00      	add	r7, sp, #0
 800021c:	60f8      	str	r0, [r7, #12]
 800021e:	60b9      	str	r1, [r7, #8]
 8000220:	607a      	str	r2, [r7, #4]
 8000222:	68fa      	ldr	r2, [r7, #12]
 8000224:	68bb      	ldr	r3, [r7, #8]
 8000226:	441a      	add	r2, r3
 8000228:	687b      	ldr	r3, [r7, #4]
 800022a:	4413      	add	r3, r2
 800022c:	4618      	mov	r0, r3
 800022e:	3714      	adds	r7, #20
 8000230:	46bd      	mov	sp, r7
 8000232:	bc80      	pop	{r7}
 8000234:	4770      	bx	lr

08000236 <TaskB>:
 8000236:	b480      	push	{r7}
 8000238:	b085      	sub	sp, #20
 800023a:	af00      	add	r7, sp, #0
 800023c:	60f8      	str	r0, [r7, #12]
 800023e:	60b9      	str	r1, [r7, #8]
 8000240:	607a      	str	r2, [r7, #4]
 8000242:	603b      	str	r3, [r7, #0]
 8000244:	68fa      	ldr	r2, [r7, #12]
 8000246:	68bb      	ldr	r3, [r7, #8]
 8000248:	441a      	add	r2, r3
 800024a:	687b      	ldr	r3, [r7, #4]
 800024c:	441a      	add	r2, r3
 800024e:	683b      	ldr	r3, [r7, #0]
 8000250:	4413      	add	r3, r2
 8000252:	4618      	mov	r0, r3
 8000254:	3714      	adds	r7, #20
 8000256:	46bd      	mov	sp, r7
 8000258:	bc80      	pop	{r7}
 800025a:	4770      	bx	lr

0800025c <MainOs>:
 800025c:	b580      	push	{r7, lr}
 800025e:	af00      	add	r7, sp, #0
 8000260:	4b33      	ldr	r3, [pc, #204]	; (8000330 <MainOs+0xd4>)
 8000262:	681b      	ldr	r3, [r3, #0]
 8000264:	f5a3 7300 	sub.w	r3, r3, #512	; 0x200
 8000268:	4a32      	ldr	r2, [pc, #200]	; (8000334 <MainOs+0xd8>)
 800026a:	6013      	str	r3, [r2, #0]
 800026c:	4b31      	ldr	r3, [pc, #196]	; (8000334 <MainOs+0xd8>)
 800026e:	681b      	ldr	r3, [r3, #0]
 8000270:	3b08      	subs	r3, #8
 8000272:	4a31      	ldr	r2, [pc, #196]	; (8000338 <MainOs+0xdc>)
 8000274:	6013      	str	r3, [r2, #0]
 8000276:	4b30      	ldr	r3, [pc, #192]	; (8000338 <MainOs+0xdc>)
 8000278:	681b      	ldr	r3, [r3, #0]
 800027a:	3b64      	subs	r3, #100	; 0x64
 800027c:	4a2f      	ldr	r2, [pc, #188]	; (800033c <MainOs+0xe0>)
 800027e:	6013      	str	r3, [r2, #0]
 8000280:	4b2e      	ldr	r3, [pc, #184]	; (800033c <MainOs+0xe0>)
 8000282:	681b      	ldr	r3, [r3, #0]
 8000284:	3b08      	subs	r3, #8
 8000286:	4a2e      	ldr	r2, [pc, #184]	; (8000340 <MainOs+0xe4>)
 8000288:	6013      	str	r3, [r2, #0]
 800028a:	4b2d      	ldr	r3, [pc, #180]	; (8000340 <MainOs+0xe4>)
 800028c:	681b      	ldr	r3, [r3, #0]
 800028e:	3b64      	subs	r3, #100	; 0x64
 8000290:	4a2c      	ldr	r2, [pc, #176]	; (8000344 <MainOs+0xe8>)
 8000292:	6013      	str	r3, [r2, #0]
 8000294:	bf00      	nop
 8000296:	4b2c      	ldr	r3, [pc, #176]	; (8000348 <MainOs+0xec>)
 8000298:	681b      	ldr	r3, [r3, #0]
 800029a:	2b01      	cmp	r3, #1
 800029c:	d121      	bne.n	80002e2 <MainOs+0x86>
 800029e:	4b26      	ldr	r3, [pc, #152]	; (8000338 <MainOs+0xdc>)
 80002a0:	681b      	ldr	r3, [r3, #0]
 80002a2:	4618      	mov	r0, r3
 80002a4:	f380 8809 	msr	PSP, r0
 80002a8:	f3ef 8014 	mrs	r0, CONTROL
 80002ac:	f04f 0102 	mov.w	r1, #2
 80002b0:	ea40 0001 	orr.w	r0, r0, r1
 80002b4:	f380 8814 	msr	CONTROL, r0
 80002b8:	2001      	movs	r0, #1
 80002ba:	f7ff ff59 	bl	8000170 <Switch_CPU_AccessLevel>
 80002be:	2203      	movs	r2, #3
 80002c0:	2102      	movs	r1, #2
 80002c2:	2001      	movs	r0, #1
 80002c4:	f7ff ffa7 	bl	8000216 <TaskA>
 80002c8:	4603      	mov	r3, r0
 80002ca:	4a1f      	ldr	r2, [pc, #124]	; (8000348 <MainOs+0xec>)
 80002cc:	6013      	str	r3, [r2, #0]
 80002ce:	df03      	svc	3
 80002d0:	f3ef 8014 	mrs	r0, CONTROL
 80002d4:	f04f 0105 	mov.w	r1, #5
 80002d8:	ea00 0001 	and.w	r0, r0, r1
 80002dc:	f380 8814 	msr	CONTROL, r0
 80002e0:	e7d8      	b.n	8000294 <MainOs+0x38>
 80002e2:	4b1a      	ldr	r3, [pc, #104]	; (800034c <MainOs+0xf0>)
 80002e4:	681b      	ldr	r3, [r3, #0]
 80002e6:	2b01      	cmp	r3, #1
 80002e8:	d1d4      	bne.n	8000294 <MainOs+0x38>
 80002ea:	4b15      	ldr	r3, [pc, #84]	; (8000340 <MainOs+0xe4>)
 80002ec:	681b      	ldr	r3, [r3, #0]
 80002ee:	4618      	mov	r0, r3
 80002f0:	f380 8809 	msr	PSP, r0
 80002f4:	f3ef 8014 	mrs	r0, CONTROL
 80002f8:	f04f 0102 	mov.w	r1, #2
 80002fc:	ea40 0001 	orr.w	r0, r0, r1
 8000300:	f380 8814 	msr	CONTROL, r0
 8000304:	2001      	movs	r0, #1
 8000306:	f7ff ff33 	bl	8000170 <Switch_CPU_AccessLevel>
 800030a:	2304      	movs	r3, #4
 800030c:	2203      	movs	r2, #3
 800030e:	2102      	movs	r1, #2
 8000310:	2001      	movs	r0, #1
 8000312:	f7ff ff90 	bl	8000236 <TaskB>
 8000316:	4603      	mov	r3, r0
 8000318:	4a0c      	ldr	r2, [pc, #48]	; (800034c <MainOs+0xf0>)
 800031a:	6013      	str	r3, [r2, #0]
 800031c:	df03      	svc	3
 800031e:	f3ef 8014 	mrs	r0, CONTROL
 8000322:	f04f 0105 	mov.w	r1, #5
 8000326:	ea00 0001 	and.w	r0, r0, r1
 800032a:	f380 8814 	msr	CONTROL, r0
 800032e:	e7b1      	b.n	8000294 <MainOs+0x38>
 8000330:	20000000 	andcs	r0, r0, r0
 8000334:	20000020 	andcs	r0, r0, r0, lsr #32
 8000338:	20000024 	andcs	r0, r0, r4, lsr #32
 800033c:	20000028 	andcs	r0, r0, r8, lsr #32
 8000340:	2000002c 	andcs	r0, r0, ip, lsr #32
 8000344:	20000030 	andcs	r0, r0, r0, lsr r0
 8000348:	20000038 	andcs	r0, r0, r8, lsr r0
 800034c:	2000003c 	andcs	r0, r0, ip, lsr r0

08000350 <main>:
 8000350:	b580      	push	{r7, lr}
 8000352:	b088      	sub	sp, #32
 8000354:	af00      	add	r7, sp, #0
 8000356:	4b18      	ldr	r3, [pc, #96]	; (80003b8 <main+0x68>)
 8000358:	699b      	ldr	r3, [r3, #24]
 800035a:	4a17      	ldr	r2, [pc, #92]	; (80003b8 <main+0x68>)
 800035c:	f043 0308 	orr.w	r3, r3, #8
 8000360:	6193      	str	r3, [r2, #24]
 8000362:	4b15      	ldr	r3, [pc, #84]	; (80003b8 <main+0x68>)
 8000364:	699b      	ldr	r3, [r3, #24]
 8000366:	4a14      	ldr	r2, [pc, #80]	; (80003b8 <main+0x68>)
 8000368:	f043 0304 	orr.w	r3, r3, #4
 800036c:	6193      	str	r3, [r2, #24]
 800036e:	4b12      	ldr	r3, [pc, #72]	; (80003b8 <main+0x68>)
 8000370:	699b      	ldr	r3, [r3, #24]
 8000372:	4a11      	ldr	r2, [pc, #68]	; (80003b8 <main+0x68>)
 8000374:	f043 0301 	orr.w	r3, r3, #1
 8000378:	6193      	str	r3, [r2, #24]
 800037a:	4a10      	ldr	r2, [pc, #64]	; (80003bc <main+0x6c>)
 800037c:	f107 030c 	add.w	r3, r7, #12
 8000380:	ca07      	ldmia	r2, {r0, r1, r2}
 8000382:	e883 0007 	stmia.w	r3, {r0, r1, r2}
 8000386:	2300      	movs	r3, #0
 8000388:	763b      	strb	r3, [r7, #24]
 800038a:	4b0d      	ldr	r3, [pc, #52]	; (80003c0 <main+0x70>)
 800038c:	61fb      	str	r3, [r7, #28]
 800038e:	2301      	movs	r3, #1
 8000390:	767b      	strb	r3, [r7, #25]
 8000392:	f107 030c 	add.w	r3, r7, #12
 8000396:	4618      	mov	r0, r3
 8000398:	f000 f9f0 	bl	800077c <Mcal_EXTI_GPIO_init>
 800039c:	f7ff ff5e 	bl	800025c <MainOs>
 80003a0:	4b08      	ldr	r3, [pc, #32]	; (80003c4 <main+0x74>)
 80003a2:	2201      	movs	r2, #1
 80003a4:	601a      	str	r2, [r3, #0]
 80003a6:	4b07      	ldr	r3, [pc, #28]	; (80003c4 <main+0x74>)
 80003a8:	681b      	ldr	r3, [r3, #0]
 80003aa:	2b00      	cmp	r3, #0
 80003ac:	d0fb      	beq.n	80003a6 <main+0x56>
 80003ae:	4b05      	ldr	r3, [pc, #20]	; (80003c4 <main+0x74>)
 80003b0:	2200      	movs	r2, #0
 80003b2:	601a      	str	r2, [r3, #0]
 80003b4:	e7f7      	b.n	80003a6 <main+0x56>
 80003b6:	bf00      	nop
 80003b8:	40021000 	andmi	r1, r2, r0
 80003bc:	08000cb8 	stmdaeq	r0, {r3, r4, r5, r7, sl, fp}
 80003c0:	080001fd 	stmdaeq	r0, {r0, r2, r3, r4, r5, r6, r7, r8}
 80003c4:	20000034 	andcs	r0, r0, r4, lsr r0

080003c8 <Reset_Handler>:
 80003c8:	480d      	ldr	r0, [pc, #52]	; (8000400 <LoopForever+0x2>)
 80003ca:	4685      	mov	sp, r0
 80003cc:	f3af 8000 	nop.w
 80003d0:	480c      	ldr	r0, [pc, #48]	; (8000404 <LoopForever+0x6>)
 80003d2:	490d      	ldr	r1, [pc, #52]	; (8000408 <LoopForever+0xa>)
 80003d4:	4a0d      	ldr	r2, [pc, #52]	; (800040c <LoopForever+0xe>)
 80003d6:	2300      	movs	r3, #0
 80003d8:	e002      	b.n	80003e0 <LoopCopyDataInit>

080003da <CopyDataInit>:
 80003da:	58d4      	ldr	r4, [r2, r3]
 80003dc:	50c4      	str	r4, [r0, r3]
 80003de:	3304      	adds	r3, #4

080003e0 <LoopCopyDataInit>:
 80003e0:	18c4      	adds	r4, r0, r3
 80003e2:	428c      	cmp	r4, r1
 80003e4:	d3f9      	bcc.n	80003da <CopyDataInit>
 80003e6:	4a0a      	ldr	r2, [pc, #40]	; (8000410 <LoopForever+0x12>)
 80003e8:	4c0a      	ldr	r4, [pc, #40]	; (8000414 <LoopForever+0x16>)
 80003ea:	2300      	movs	r3, #0
 80003ec:	e001      	b.n	80003f2 <LoopFillZerobss>

080003ee <FillZerobss>:
 80003ee:	6013      	str	r3, [r2, #0]
 80003f0:	3204      	adds	r2, #4

080003f2 <LoopFillZerobss>:
 80003f2:	42a2      	cmp	r2, r4
 80003f4:	d3fb      	bcc.n	80003ee <FillZerobss>
 80003f6:	f000 fc2f 	bl	8000c58 <__libc_init_array>
 80003fa:	f7ff ffa9 	bl	8000350 <main>

080003fe <LoopForever>:
 80003fe:	e7fe      	b.n	80003fe <LoopForever>
 8000400:	20002800 	andcs	r2, r0, r0, lsl #16
 8000404:	20000000 	andcs	r0, r0, r0
 8000408:	20000004 	andcs	r0, r0, r4
 800040c:	08000ccc 	stmdaeq	r0, {r2, r3, r6, r7, sl, fp}
 8000410:	20000004 	andcs	r0, r0, r4
 8000414:	20000080 	andcs	r0, r0, r0, lsl #1

08000418 <ADC1_2_IRQHandler>:
 8000418:	e7fe      	b.n	8000418 <ADC1_2_IRQHandler>
	...

0800041c <Enable_NVIC>:
 800041c:	b480      	push	{r7}
 800041e:	b083      	sub	sp, #12
 8000420:	af00      	add	r7, sp, #0
 8000422:	4603      	mov	r3, r0
 8000424:	80fb      	strh	r3, [r7, #6]
 8000426:	88fb      	ldrh	r3, [r7, #6]
 8000428:	2b0e      	cmp	r3, #14
 800042a:	d852      	bhi.n	80004d2 <Enable_NVIC+0xb6>
 800042c:	a201      	add	r2, pc, #4	; (adr r2, 8000434 <Enable_NVIC+0x18>)
 800042e:	f852 f023 	ldr.w	pc, [r2, r3, lsl #2]
 8000432:	bf00      	nop
 8000434:	08000471 	stmdaeq	r0, {r0, r4, r5, r6, sl}
 8000438:	0800047f 	stmdaeq	r0, {r0, r1, r2, r3, r4, r5, r6, sl}
 800043c:	0800048d 	stmdaeq	r0, {r0, r2, r3, r7, sl}
 8000440:	0800049b 	stmdaeq	r0, {r0, r1, r3, r4, r7, sl}
 8000444:	080004a9 	stmdaeq	r0, {r0, r3, r5, r7, sl}
 8000448:	080004b7 	stmdaeq	r0, {r0, r1, r2, r4, r5, r7, sl}
 800044c:	080004b7 	stmdaeq	r0, {r0, r1, r2, r4, r5, r7, sl}
 8000450:	080004b7 	stmdaeq	r0, {r0, r1, r2, r4, r5, r7, sl}
 8000454:	080004b7 	stmdaeq	r0, {r0, r1, r2, r4, r5, r7, sl}
 8000458:	080004b7 	stmdaeq	r0, {r0, r1, r2, r4, r5, r7, sl}
 800045c:	080004c5 	stmdaeq	r0, {r0, r2, r6, r7, sl}
 8000460:	080004c5 	stmdaeq	r0, {r0, r2, r6, r7, sl}
 8000464:	080004c5 	stmdaeq	r0, {r0, r2, r6, r7, sl}
 8000468:	080004c5 	stmdaeq	r0, {r0, r2, r6, r7, sl}
 800046c:	080004c5 	stmdaeq	r0, {r0, r2, r6, r7, sl}
 8000470:	4b1a      	ldr	r3, [pc, #104]	; (80004dc <Enable_NVIC+0xc0>)
 8000472:	681b      	ldr	r3, [r3, #0]
 8000474:	4a19      	ldr	r2, [pc, #100]	; (80004dc <Enable_NVIC+0xc0>)
 8000476:	f043 0340 	orr.w	r3, r3, #64	; 0x40
 800047a:	6013      	str	r3, [r2, #0]
 800047c:	e029      	b.n	80004d2 <Enable_NVIC+0xb6>
 800047e:	4b17      	ldr	r3, [pc, #92]	; (80004dc <Enable_NVIC+0xc0>)
 8000480:	681b      	ldr	r3, [r3, #0]
 8000482:	4a16      	ldr	r2, [pc, #88]	; (80004dc <Enable_NVIC+0xc0>)
 8000484:	f043 0380 	orr.w	r3, r3, #128	; 0x80
 8000488:	6013      	str	r3, [r2, #0]
 800048a:	e022      	b.n	80004d2 <Enable_NVIC+0xb6>
 800048c:	4b13      	ldr	r3, [pc, #76]	; (80004dc <Enable_NVIC+0xc0>)
 800048e:	681b      	ldr	r3, [r3, #0]
 8000490:	4a12      	ldr	r2, [pc, #72]	; (80004dc <Enable_NVIC+0xc0>)
 8000492:	f443 7380 	orr.w	r3, r3, #256	; 0x100
 8000496:	6013      	str	r3, [r2, #0]
 8000498:	e01b      	b.n	80004d2 <Enable_NVIC+0xb6>
 800049a:	4b10      	ldr	r3, [pc, #64]	; (80004dc <Enable_NVIC+0xc0>)
 800049c:	681b      	ldr	r3, [r3, #0]
 800049e:	4a0f      	ldr	r2, [pc, #60]	; (80004dc <Enable_NVIC+0xc0>)
 80004a0:	f443 7300 	orr.w	r3, r3, #512	; 0x200
 80004a4:	6013      	str	r3, [r2, #0]
 80004a6:	e014      	b.n	80004d2 <Enable_NVIC+0xb6>
 80004a8:	4b0c      	ldr	r3, [pc, #48]	; (80004dc <Enable_NVIC+0xc0>)
 80004aa:	681b      	ldr	r3, [r3, #0]
 80004ac:	4a0b      	ldr	r2, [pc, #44]	; (80004dc <Enable_NVIC+0xc0>)
 80004ae:	f443 7300 	orr.w	r3, r3, #512	; 0x200
 80004b2:	6013      	str	r3, [r2, #0]
 80004b4:	e00d      	b.n	80004d2 <Enable_NVIC+0xb6>
 80004b6:	4b09      	ldr	r3, [pc, #36]	; (80004dc <Enable_NVIC+0xc0>)
 80004b8:	681b      	ldr	r3, [r3, #0]
 80004ba:	4a08      	ldr	r2, [pc, #32]	; (80004dc <Enable_NVIC+0xc0>)
 80004bc:	f443 0300 	orr.w	r3, r3, #8388608	; 0x800000
 80004c0:	6013      	str	r3, [r2, #0]
 80004c2:	e006      	b.n	80004d2 <Enable_NVIC+0xb6>
 80004c4:	4b06      	ldr	r3, [pc, #24]	; (80004e0 <Enable_NVIC+0xc4>)
 80004c6:	681b      	ldr	r3, [r3, #0]
 80004c8:	4a05      	ldr	r2, [pc, #20]	; (80004e0 <Enable_NVIC+0xc4>)
 80004ca:	f443 7380 	orr.w	r3, r3, #256	; 0x100
 80004ce:	6013      	str	r3, [r2, #0]
 80004d0:	bf00      	nop
 80004d2:	bf00      	nop
 80004d4:	370c      	adds	r7, #12
 80004d6:	46bd      	mov	sp, r7
 80004d8:	bc80      	pop	{r7}
 80004da:	4770      	bx	lr
 80004dc:	e000e100 	and	lr, r0, r0, lsl #2
 80004e0:	e000e104 	and	lr, r0, r4, lsl #2

080004e4 <Disable_NVIC>:
 80004e4:	b480      	push	{r7}
 80004e6:	b083      	sub	sp, #12
 80004e8:	af00      	add	r7, sp, #0
 80004ea:	4603      	mov	r3, r0
 80004ec:	80fb      	strh	r3, [r7, #6]
 80004ee:	88fb      	ldrh	r3, [r7, #6]
 80004f0:	2b0e      	cmp	r3, #14
 80004f2:	d852      	bhi.n	800059a <Disable_NVIC+0xb6>
 80004f4:	a201      	add	r2, pc, #4	; (adr r2, 80004fc <Disable_NVIC+0x18>)
 80004f6:	f852 f023 	ldr.w	pc, [r2, r3, lsl #2]
 80004fa:	bf00      	nop
 80004fc:	08000539 	stmdaeq	r0, {r0, r3, r4, r5, r8, sl}
 8000500:	08000547 	stmdaeq	r0, {r0, r1, r2, r6, r8, sl}
 8000504:	08000555 	stmdaeq	r0, {r0, r2, r4, r6, r8, sl}
 8000508:	08000563 	stmdaeq	r0, {r0, r1, r5, r6, r8, sl}
 800050c:	08000571 	stmdaeq	r0, {r0, r4, r5, r6, r8, sl}
 8000510:	0800057f 	stmdaeq	r0, {r0, r1, r2, r3, r4, r5, r6, r8, sl}
 8000514:	0800057f 	stmdaeq	r0, {r0, r1, r2, r3, r4, r5, r6, r8, sl}
 8000518:	0800057f 	stmdaeq	r0, {r0, r1, r2, r3, r4, r5, r6, r8, sl}
 800051c:	0800057f 	stmdaeq	r0, {r0, r1, r2, r3, r4, r5, r6, r8, sl}
 8000520:	0800057f 	stmdaeq	r0, {r0, r1, r2, r3, r4, r5, r6, r8, sl}
 8000524:	0800058d 	stmdaeq	r0, {r0, r2, r3, r7, r8, sl}
 8000528:	0800058d 	stmdaeq	r0, {r0, r2, r3, r7, r8, sl}
 800052c:	0800058d 	stmdaeq	r0, {r0, r2, r3, r7, r8, sl}
 8000530:	0800058d 	stmdaeq	r0, {r0, r2, r3, r7, r8, sl}
 8000534:	0800058d 	stmdaeq	r0, {r0, r2, r3, r7, r8, sl}
 8000538:	4b1a      	ldr	r3, [pc, #104]	; (80005a4 <Disable_NVIC+0xc0>)
 800053a:	681b      	ldr	r3, [r3, #0]
 800053c:	4a19      	ldr	r2, [pc, #100]	; (80005a4 <Disable_NVIC+0xc0>)
 800053e:	f043 0340 	orr.w	r3, r3, #64	; 0x40
 8000542:	6013      	str	r3, [r2, #0]
 8000544:	e029      	b.n	800059a <Disable_NVIC+0xb6>
 8000546:	4b17      	ldr	r3, [pc, #92]	; (80005a4 <Disable_NVIC+0xc0>)
 8000548:	681b      	ldr	r3, [r3, #0]
 800054a:	4a16      	ldr	r2, [pc, #88]	; (80005a4 <Disable_NVIC+0xc0>)
 800054c:	f043 0380 	orr.w	r3, r3, #128	; 0x80
 8000550:	6013      	str	r3, [r2, #0]
 8000552:	e022      	b.n	800059a <Disable_NVIC+0xb6>
 8000554:	4b13      	ldr	r3, [pc, #76]	; (80005a4 <Disable_NVIC+0xc0>)
 8000556:	681b      	ldr	r3, [r3, #0]
 8000558:	4a12      	ldr	r2, [pc, #72]	; (80005a4 <Disable_NVIC+0xc0>)
 800055a:	f443 7380 	orr.w	r3, r3, #256	; 0x100
 800055e:	6013      	str	r3, [r2, #0]
 8000560:	e01b      	b.n	800059a <Disable_NVIC+0xb6>
 8000562:	4b10      	ldr	r3, [pc, #64]	; (80005a4 <Disable_NVIC+0xc0>)
 8000564:	681b      	ldr	r3, [r3, #0]
 8000566:	4a0f      	ldr	r2, [pc, #60]	; (80005a4 <Disable_NVIC+0xc0>)
 8000568:	f443 7300 	orr.w	r3, r3, #512	; 0x200
 800056c:	6013      	str	r3, [r2, #0]
 800056e:	e014      	b.n	800059a <Disable_NVIC+0xb6>
 8000570:	4b0c      	ldr	r3, [pc, #48]	; (80005a4 <Disable_NVIC+0xc0>)
 8000572:	681b      	ldr	r3, [r3, #0]
 8000574:	4a0b      	ldr	r2, [pc, #44]	; (80005a4 <Disable_NVIC+0xc0>)
 8000576:	f443 7300 	orr.w	r3, r3, #512	; 0x200
 800057a:	6013      	str	r3, [r2, #0]
 800057c:	e00d      	b.n	800059a <Disable_NVIC+0xb6>
 800057e:	4b09      	ldr	r3, [pc, #36]	; (80005a4 <Disable_NVIC+0xc0>)
 8000580:	681b      	ldr	r3, [r3, #0]
 8000582:	4a08      	ldr	r2, [pc, #32]	; (80005a4 <Disable_NVIC+0xc0>)
 8000584:	f443 0300 	orr.w	r3, r3, #8388608	; 0x800000
 8000588:	6013      	str	r3, [r2, #0]
 800058a:	e006      	b.n	800059a <Disable_NVIC+0xb6>
 800058c:	4b06      	ldr	r3, [pc, #24]	; (80005a8 <Disable_NVIC+0xc4>)
 800058e:	681b      	ldr	r3, [r3, #0]
 8000590:	4a05      	ldr	r2, [pc, #20]	; (80005a8 <Disable_NVIC+0xc4>)
 8000592:	f443 7380 	orr.w	r3, r3, #256	; 0x100
 8000596:	6013      	str	r3, [r2, #0]
 8000598:	bf00      	nop
 800059a:	bf00      	nop
 800059c:	370c      	adds	r7, #12
 800059e:	46bd      	mov	sp, r7
 80005a0:	bc80      	pop	{r7}
 80005a2:	4770      	bx	lr
 80005a4:	e000e180 	and	lr, r0, r0, lsl #3
 80005a8:	e000e184 	and	lr, r0, r4, lsl #3

080005ac <update_EXTI>:
 80005ac:	b580      	push	{r7, lr}
 80005ae:	b084      	sub	sp, #16
 80005b0:	af00      	add	r7, sp, #0
 80005b2:	6078      	str	r0, [r7, #4]
 80005b4:	687b      	ldr	r3, [r7, #4]
 80005b6:	891b      	ldrh	r3, [r3, #8]
 80005b8:	813b      	strh	r3, [r7, #8]
 80005ba:	2301      	movs	r3, #1
 80005bc:	72bb      	strb	r3, [r7, #10]
 80005be:	687b      	ldr	r3, [r7, #4]
 80005c0:	685b      	ldr	r3, [r3, #4]
 80005c2:	f107 0208 	add.w	r2, r7, #8
 80005c6:	4611      	mov	r1, r2
 80005c8:	4618      	mov	r0, r3
 80005ca:	f000 fac9 	bl	8000b60 <MCAL_GPIO_Init>
 80005ce:	687b      	ldr	r3, [r7, #4]
 80005d0:	881b      	ldrh	r3, [r3, #0]
 80005d2:	089b      	lsrs	r3, r3, #2
 80005d4:	b29b      	uxth	r3, r3
 80005d6:	73fb      	strb	r3, [r7, #15]
 80005d8:	687b      	ldr	r3, [r7, #4]
 80005da:	881b      	ldrh	r3, [r3, #0]
 80005dc:	b2db      	uxtb	r3, r3
 80005de:	f003 0303 	and.w	r3, r3, #3
 80005e2:	b2db      	uxtb	r3, r3
 80005e4:	009b      	lsls	r3, r3, #2
 80005e6:	73bb      	strb	r3, [r7, #14]
 80005e8:	4a5d      	ldr	r2, [pc, #372]	; (8000760 <update_EXTI+0x1b4>)
 80005ea:	7bfb      	ldrb	r3, [r7, #15]
 80005ec:	3302      	adds	r3, #2
 80005ee:	f852 2023 	ldr.w	r2, [r2, r3, lsl #2]
 80005f2:	7bbb      	ldrb	r3, [r7, #14]
 80005f4:	210f      	movs	r1, #15
 80005f6:	fa01 f303 	lsl.w	r3, r1, r3
 80005fa:	43db      	mvns	r3, r3
 80005fc:	4618      	mov	r0, r3
 80005fe:	4958      	ldr	r1, [pc, #352]	; (8000760 <update_EXTI+0x1b4>)
 8000600:	7bfb      	ldrb	r3, [r7, #15]
 8000602:	4002      	ands	r2, r0
 8000604:	3302      	adds	r3, #2
 8000606:	f841 2023 	str.w	r2, [r1, r3, lsl #2]
 800060a:	4a55      	ldr	r2, [pc, #340]	; (8000760 <update_EXTI+0x1b4>)
 800060c:	7bfb      	ldrb	r3, [r7, #15]
 800060e:	3302      	adds	r3, #2
 8000610:	f852 2023 	ldr.w	r2, [r2, r3, lsl #2]
 8000614:	687b      	ldr	r3, [r7, #4]
 8000616:	685b      	ldr	r3, [r3, #4]
 8000618:	4952      	ldr	r1, [pc, #328]	; (8000764 <update_EXTI+0x1b8>)
 800061a:	428b      	cmp	r3, r1
 800061c:	d016      	beq.n	800064c <update_EXTI+0xa0>
 800061e:	687b      	ldr	r3, [r7, #4]
 8000620:	685b      	ldr	r3, [r3, #4]
 8000622:	4951      	ldr	r1, [pc, #324]	; (8000768 <update_EXTI+0x1bc>)
 8000624:	428b      	cmp	r3, r1
 8000626:	d00f      	beq.n	8000648 <update_EXTI+0x9c>
 8000628:	687b      	ldr	r3, [r7, #4]
 800062a:	685b      	ldr	r3, [r3, #4]
 800062c:	494f      	ldr	r1, [pc, #316]	; (800076c <update_EXTI+0x1c0>)
 800062e:	428b      	cmp	r3, r1
 8000630:	d008      	beq.n	8000644 <update_EXTI+0x98>
 8000632:	687b      	ldr	r3, [r7, #4]
 8000634:	685b      	ldr	r3, [r3, #4]
 8000636:	494e      	ldr	r1, [pc, #312]	; (8000770 <update_EXTI+0x1c4>)
 8000638:	428b      	cmp	r3, r1
 800063a:	d101      	bne.n	8000640 <update_EXTI+0x94>
 800063c:	2303      	movs	r3, #3
 800063e:	e006      	b.n	800064e <update_EXTI+0xa2>
 8000640:	2300      	movs	r3, #0
 8000642:	e004      	b.n	800064e <update_EXTI+0xa2>
 8000644:	2302      	movs	r3, #2
 8000646:	e002      	b.n	800064e <update_EXTI+0xa2>
 8000648:	2301      	movs	r3, #1
 800064a:	e000      	b.n	800064e <update_EXTI+0xa2>
 800064c:	2300      	movs	r3, #0
 800064e:	7bb9      	ldrb	r1, [r7, #14]
 8000650:	408b      	lsls	r3, r1
 8000652:	4618      	mov	r0, r3
 8000654:	4942      	ldr	r1, [pc, #264]	; (8000760 <update_EXTI+0x1b4>)
 8000656:	7bfb      	ldrb	r3, [r7, #15]
 8000658:	4302      	orrs	r2, r0
 800065a:	3302      	adds	r3, #2
 800065c:	f841 2023 	str.w	r2, [r1, r3, lsl #2]
 8000660:	4b44      	ldr	r3, [pc, #272]	; (8000774 <update_EXTI+0x1c8>)
 8000662:	689b      	ldr	r3, [r3, #8]
 8000664:	687a      	ldr	r2, [r7, #4]
 8000666:	8812      	ldrh	r2, [r2, #0]
 8000668:	4611      	mov	r1, r2
 800066a:	2201      	movs	r2, #1
 800066c:	408a      	lsls	r2, r1
 800066e:	43d2      	mvns	r2, r2
 8000670:	4611      	mov	r1, r2
 8000672:	4a40      	ldr	r2, [pc, #256]	; (8000774 <update_EXTI+0x1c8>)
 8000674:	400b      	ands	r3, r1
 8000676:	6093      	str	r3, [r2, #8]
 8000678:	4b3e      	ldr	r3, [pc, #248]	; (8000774 <update_EXTI+0x1c8>)
 800067a:	68db      	ldr	r3, [r3, #12]
 800067c:	687a      	ldr	r2, [r7, #4]
 800067e:	8812      	ldrh	r2, [r2, #0]
 8000680:	4611      	mov	r1, r2
 8000682:	2201      	movs	r2, #1
 8000684:	408a      	lsls	r2, r1
 8000686:	43d2      	mvns	r2, r2
 8000688:	4611      	mov	r1, r2
 800068a:	4a3a      	ldr	r2, [pc, #232]	; (8000774 <update_EXTI+0x1c8>)
 800068c:	400b      	ands	r3, r1
 800068e:	60d3      	str	r3, [r2, #12]
 8000690:	687b      	ldr	r3, [r7, #4]
 8000692:	7b1b      	ldrb	r3, [r3, #12]
 8000694:	2b00      	cmp	r3, #0
 8000696:	d10b      	bne.n	80006b0 <update_EXTI+0x104>
 8000698:	4b36      	ldr	r3, [pc, #216]	; (8000774 <update_EXTI+0x1c8>)
 800069a:	689b      	ldr	r3, [r3, #8]
 800069c:	687a      	ldr	r2, [r7, #4]
 800069e:	8812      	ldrh	r2, [r2, #0]
 80006a0:	4611      	mov	r1, r2
 80006a2:	2201      	movs	r2, #1
 80006a4:	408a      	lsls	r2, r1
 80006a6:	4611      	mov	r1, r2
 80006a8:	4a32      	ldr	r2, [pc, #200]	; (8000774 <update_EXTI+0x1c8>)
 80006aa:	430b      	orrs	r3, r1
 80006ac:	6093      	str	r3, [r2, #8]
 80006ae:	e025      	b.n	80006fc <update_EXTI+0x150>
 80006b0:	687b      	ldr	r3, [r7, #4]
 80006b2:	7b1b      	ldrb	r3, [r3, #12]
 80006b4:	2b01      	cmp	r3, #1
 80006b6:	d10b      	bne.n	80006d0 <update_EXTI+0x124>
 80006b8:	4b2e      	ldr	r3, [pc, #184]	; (8000774 <update_EXTI+0x1c8>)
 80006ba:	68db      	ldr	r3, [r3, #12]
 80006bc:	687a      	ldr	r2, [r7, #4]
 80006be:	8812      	ldrh	r2, [r2, #0]
 80006c0:	4611      	mov	r1, r2
 80006c2:	2201      	movs	r2, #1
 80006c4:	408a      	lsls	r2, r1
 80006c6:	4611      	mov	r1, r2
 80006c8:	4a2a      	ldr	r2, [pc, #168]	; (8000774 <update_EXTI+0x1c8>)
 80006ca:	430b      	orrs	r3, r1
 80006cc:	60d3      	str	r3, [r2, #12]
 80006ce:	e015      	b.n	80006fc <update_EXTI+0x150>
 80006d0:	4b28      	ldr	r3, [pc, #160]	; (8000774 <update_EXTI+0x1c8>)
 80006d2:	689b      	ldr	r3, [r3, #8]
 80006d4:	687a      	ldr	r2, [r7, #4]
 80006d6:	8812      	ldrh	r2, [r2, #0]
 80006d8:	4611      	mov	r1, r2
 80006da:	2201      	movs	r2, #1
 80006dc:	408a      	lsls	r2, r1
 80006de:	4611      	mov	r1, r2
 80006e0:	4a24      	ldr	r2, [pc, #144]	; (8000774 <update_EXTI+0x1c8>)
 80006e2:	430b      	orrs	r3, r1
 80006e4:	6093      	str	r3, [r2, #8]
 80006e6:	4b23      	ldr	r3, [pc, #140]	; (8000774 <update_EXTI+0x1c8>)
 80006e8:	68db      	ldr	r3, [r3, #12]
 80006ea:	687a      	ldr	r2, [r7, #4]
 80006ec:	8812      	ldrh	r2, [r2, #0]
 80006ee:	4611      	mov	r1, r2
 80006f0:	2201      	movs	r2, #1
 80006f2:	408a      	lsls	r2, r1
 80006f4:	4611      	mov	r1, r2
 80006f6:	4a1f      	ldr	r2, [pc, #124]	; (8000774 <update_EXTI+0x1c8>)
 80006f8:	430b      	orrs	r3, r1
 80006fa:	60d3      	str	r3, [r2, #12]
 80006fc:	687b      	ldr	r3, [r7, #4]
 80006fe:	881b      	ldrh	r3, [r3, #0]
 8000700:	4619      	mov	r1, r3
 8000702:	687b      	ldr	r3, [r7, #4]
 8000704:	691b      	ldr	r3, [r3, #16]
 8000706:	4a1c      	ldr	r2, [pc, #112]	; (8000778 <update_EXTI+0x1cc>)
 8000708:	f842 3021 	str.w	r3, [r2, r1, lsl #2]
 800070c:	687b      	ldr	r3, [r7, #4]
 800070e:	7b5b      	ldrb	r3, [r3, #13]
 8000710:	2b01      	cmp	r3, #1
 8000712:	d110      	bne.n	8000736 <update_EXTI+0x18a>
 8000714:	4b17      	ldr	r3, [pc, #92]	; (8000774 <update_EXTI+0x1c8>)
 8000716:	681b      	ldr	r3, [r3, #0]
 8000718:	687a      	ldr	r2, [r7, #4]
 800071a:	8812      	ldrh	r2, [r2, #0]
 800071c:	4611      	mov	r1, r2
 800071e:	2201      	movs	r2, #1
 8000720:	408a      	lsls	r2, r1
 8000722:	4611      	mov	r1, r2
 8000724:	4a13      	ldr	r2, [pc, #76]	; (8000774 <update_EXTI+0x1c8>)
 8000726:	430b      	orrs	r3, r1
 8000728:	6013      	str	r3, [r2, #0]
 800072a:	687b      	ldr	r3, [r7, #4]
 800072c:	881b      	ldrh	r3, [r3, #0]
 800072e:	4618      	mov	r0, r3
 8000730:	f7ff fe74 	bl	800041c <Enable_NVIC>
 8000734:	e010      	b.n	8000758 <update_EXTI+0x1ac>
 8000736:	4b0f      	ldr	r3, [pc, #60]	; (8000774 <update_EXTI+0x1c8>)
 8000738:	681b      	ldr	r3, [r3, #0]
 800073a:	687a      	ldr	r2, [r7, #4]
 800073c:	8812      	ldrh	r2, [r2, #0]
 800073e:	4611      	mov	r1, r2
 8000740:	2201      	movs	r2, #1
 8000742:	408a      	lsls	r2, r1
 8000744:	43d2      	mvns	r2, r2
 8000746:	4611      	mov	r1, r2
 8000748:	4a0a      	ldr	r2, [pc, #40]	; (8000774 <update_EXTI+0x1c8>)
 800074a:	400b      	ands	r3, r1
 800074c:	6013      	str	r3, [r2, #0]
 800074e:	687b      	ldr	r3, [r7, #4]
 8000750:	881b      	ldrh	r3, [r3, #0]
 8000752:	4618      	mov	r0, r3
 8000754:	f7ff fec6 	bl	80004e4 <Disable_NVIC>
 8000758:	bf00      	nop
 800075a:	3710      	adds	r7, #16
 800075c:	46bd      	mov	sp, r7
 800075e:	bd80      	pop	{r7, pc}
 8000760:	40010000 	andmi	r0, r1, r0
 8000764:	40010800 	andmi	r0, r1, r0, lsl #16
 8000768:	40010c00 	andmi	r0, r1, r0, lsl #24
 800076c:	40011000 	andmi	r1, r1, r0
 8000770:	40011400 	andmi	r1, r1, r0, lsl #8
 8000774:	40010400 	andmi	r0, r1, r0, lsl #8
 8000778:	20000040 	andcs	r0, r0, r0, asr #32

0800077c <Mcal_EXTI_GPIO_init>:
 800077c:	b580      	push	{r7, lr}
 800077e:	b082      	sub	sp, #8
 8000780:	af00      	add	r7, sp, #0
 8000782:	6078      	str	r0, [r7, #4]
 8000784:	6878      	ldr	r0, [r7, #4]
 8000786:	f7ff ff11 	bl	80005ac <update_EXTI>
 800078a:	bf00      	nop
 800078c:	3708      	adds	r7, #8
 800078e:	46bd      	mov	sp, r7
 8000790:	bd80      	pop	{r7, pc}
	...

08000794 <EXTI0_IRQHandler>:
 8000794:	b580      	push	{r7, lr}
 8000796:	af00      	add	r7, sp, #0
 8000798:	4b05      	ldr	r3, [pc, #20]	; (80007b0 <EXTI0_IRQHandler+0x1c>)
 800079a:	695b      	ldr	r3, [r3, #20]
 800079c:	4a04      	ldr	r2, [pc, #16]	; (80007b0 <EXTI0_IRQHandler+0x1c>)
 800079e:	f043 0301 	orr.w	r3, r3, #1
 80007a2:	6153      	str	r3, [r2, #20]
 80007a4:	4b03      	ldr	r3, [pc, #12]	; (80007b4 <EXTI0_IRQHandler+0x20>)
 80007a6:	681b      	ldr	r3, [r3, #0]
 80007a8:	4798      	blx	r3
 80007aa:	bf00      	nop
 80007ac:	bd80      	pop	{r7, pc}
 80007ae:	bf00      	nop
 80007b0:	40010400 	andmi	r0, r1, r0, lsl #8
 80007b4:	20000040 	andcs	r0, r0, r0, asr #32

080007b8 <EXTI1_IRQHandler>:
 80007b8:	b580      	push	{r7, lr}
 80007ba:	af00      	add	r7, sp, #0
 80007bc:	4b05      	ldr	r3, [pc, #20]	; (80007d4 <EXTI1_IRQHandler+0x1c>)
 80007be:	695b      	ldr	r3, [r3, #20]
 80007c0:	4a04      	ldr	r2, [pc, #16]	; (80007d4 <EXTI1_IRQHandler+0x1c>)
 80007c2:	f043 0302 	orr.w	r3, r3, #2
 80007c6:	6153      	str	r3, [r2, #20]
 80007c8:	4b03      	ldr	r3, [pc, #12]	; (80007d8 <EXTI1_IRQHandler+0x20>)
 80007ca:	685b      	ldr	r3, [r3, #4]
 80007cc:	4798      	blx	r3
 80007ce:	bf00      	nop
 80007d0:	bd80      	pop	{r7, pc}
 80007d2:	bf00      	nop
 80007d4:	40010400 	andmi	r0, r1, r0, lsl #8
 80007d8:	20000040 	andcs	r0, r0, r0, asr #32

080007dc <EXTI2_IRQHandler>:
 80007dc:	b580      	push	{r7, lr}
 80007de:	af00      	add	r7, sp, #0
 80007e0:	4b05      	ldr	r3, [pc, #20]	; (80007f8 <EXTI2_IRQHandler+0x1c>)
 80007e2:	695b      	ldr	r3, [r3, #20]
 80007e4:	4a04      	ldr	r2, [pc, #16]	; (80007f8 <EXTI2_IRQHandler+0x1c>)
 80007e6:	f043 0304 	orr.w	r3, r3, #4
 80007ea:	6153      	str	r3, [r2, #20]
 80007ec:	4b03      	ldr	r3, [pc, #12]	; (80007fc <EXTI2_IRQHandler+0x20>)
 80007ee:	689b      	ldr	r3, [r3, #8]
 80007f0:	4798      	blx	r3
 80007f2:	bf00      	nop
 80007f4:	bd80      	pop	{r7, pc}
 80007f6:	bf00      	nop
 80007f8:	40010400 	andmi	r0, r1, r0, lsl #8
 80007fc:	20000040 	andcs	r0, r0, r0, asr #32

08000800 <EXTI3_IRQHandler>:
 8000800:	b580      	push	{r7, lr}
 8000802:	af00      	add	r7, sp, #0
 8000804:	4b05      	ldr	r3, [pc, #20]	; (800081c <EXTI3_IRQHandler+0x1c>)
 8000806:	695b      	ldr	r3, [r3, #20]
 8000808:	4a04      	ldr	r2, [pc, #16]	; (800081c <EXTI3_IRQHandler+0x1c>)
 800080a:	f043 0308 	orr.w	r3, r3, #8
 800080e:	6153      	str	r3, [r2, #20]
 8000810:	4b03      	ldr	r3, [pc, #12]	; (8000820 <EXTI3_IRQHandler+0x20>)
 8000812:	68db      	ldr	r3, [r3, #12]
 8000814:	4798      	blx	r3
 8000816:	bf00      	nop
 8000818:	bd80      	pop	{r7, pc}
 800081a:	bf00      	nop
 800081c:	40010400 	andmi	r0, r1, r0, lsl #8
 8000820:	20000040 	andcs	r0, r0, r0, asr #32

08000824 <EXTI4_IRQHandler>:
 8000824:	b580      	push	{r7, lr}
 8000826:	af00      	add	r7, sp, #0
 8000828:	4b05      	ldr	r3, [pc, #20]	; (8000840 <EXTI4_IRQHandler+0x1c>)
 800082a:	695b      	ldr	r3, [r3, #20]
 800082c:	4a04      	ldr	r2, [pc, #16]	; (8000840 <EXTI4_IRQHandler+0x1c>)
 800082e:	f043 0310 	orr.w	r3, r3, #16
 8000832:	6153      	str	r3, [r2, #20]
 8000834:	4b03      	ldr	r3, [pc, #12]	; (8000844 <EXTI4_IRQHandler+0x20>)
 8000836:	691b      	ldr	r3, [r3, #16]
 8000838:	4798      	blx	r3
 800083a:	bf00      	nop
 800083c:	bd80      	pop	{r7, pc}
 800083e:	bf00      	nop
 8000840:	40010400 	andmi	r0, r1, r0, lsl #8
 8000844:	20000040 	andcs	r0, r0, r0, asr #32

08000848 <EXTI9_5_IRQHandler>:
 8000848:	b580      	push	{r7, lr}
 800084a:	af00      	add	r7, sp, #0
 800084c:	4b26      	ldr	r3, [pc, #152]	; (80008e8 <EXTI9_5_IRQHandler+0xa0>)
 800084e:	695b      	ldr	r3, [r3, #20]
 8000850:	f003 0320 	and.w	r3, r3, #32
 8000854:	2b00      	cmp	r3, #0
 8000856:	d008      	beq.n	800086a <EXTI9_5_IRQHandler+0x22>
 8000858:	4b23      	ldr	r3, [pc, #140]	; (80008e8 <EXTI9_5_IRQHandler+0xa0>)
 800085a:	695b      	ldr	r3, [r3, #20]
 800085c:	4a22      	ldr	r2, [pc, #136]	; (80008e8 <EXTI9_5_IRQHandler+0xa0>)
 800085e:	f043 0320 	orr.w	r3, r3, #32
 8000862:	6153      	str	r3, [r2, #20]
 8000864:	4b21      	ldr	r3, [pc, #132]	; (80008ec <EXTI9_5_IRQHandler+0xa4>)
 8000866:	695b      	ldr	r3, [r3, #20]
 8000868:	4798      	blx	r3
 800086a:	4b1f      	ldr	r3, [pc, #124]	; (80008e8 <EXTI9_5_IRQHandler+0xa0>)
 800086c:	695b      	ldr	r3, [r3, #20]
 800086e:	f003 0340 	and.w	r3, r3, #64	; 0x40
 8000872:	2b00      	cmp	r3, #0
 8000874:	d008      	beq.n	8000888 <EXTI9_5_IRQHandler+0x40>
 8000876:	4b1c      	ldr	r3, [pc, #112]	; (80008e8 <EXTI9_5_IRQHandler+0xa0>)
 8000878:	695b      	ldr	r3, [r3, #20]
 800087a:	4a1b      	ldr	r2, [pc, #108]	; (80008e8 <EXTI9_5_IRQHandler+0xa0>)
 800087c:	f043 0340 	orr.w	r3, r3, #64	; 0x40
 8000880:	6153      	str	r3, [r2, #20]
 8000882:	4b1a      	ldr	r3, [pc, #104]	; (80008ec <EXTI9_5_IRQHandler+0xa4>)
 8000884:	699b      	ldr	r3, [r3, #24]
 8000886:	4798      	blx	r3
 8000888:	4b17      	ldr	r3, [pc, #92]	; (80008e8 <EXTI9_5_IRQHandler+0xa0>)
 800088a:	695b      	ldr	r3, [r3, #20]
 800088c:	f003 0380 	and.w	r3, r3, #128	; 0x80
 8000890:	2b00      	cmp	r3, #0
 8000892:	d008      	beq.n	80008a6 <EXTI9_5_IRQHandler+0x5e>
 8000894:	4b14      	ldr	r3, [pc, #80]	; (80008e8 <EXTI9_5_IRQHandler+0xa0>)
 8000896:	695b      	ldr	r3, [r3, #20]
 8000898:	4a13      	ldr	r2, [pc, #76]	; (80008e8 <EXTI9_5_IRQHandler+0xa0>)
 800089a:	f043 0380 	orr.w	r3, r3, #128	; 0x80
 800089e:	6153      	str	r3, [r2, #20]
 80008a0:	4b12      	ldr	r3, [pc, #72]	; (80008ec <EXTI9_5_IRQHandler+0xa4>)
 80008a2:	69db      	ldr	r3, [r3, #28]
 80008a4:	4798      	blx	r3
 80008a6:	4b10      	ldr	r3, [pc, #64]	; (80008e8 <EXTI9_5_IRQHandler+0xa0>)
 80008a8:	695b      	ldr	r3, [r3, #20]
 80008aa:	f403 7380 	and.w	r3, r3, #256	; 0x100
 80008ae:	2b00      	cmp	r3, #0
 80008b0:	d008      	beq.n	80008c4 <EXTI9_5_IRQHandler+0x7c>
 80008b2:	4b0d      	ldr	r3, [pc, #52]	; (80008e8 <EXTI9_5_IRQHandler+0xa0>)
 80008b4:	695b      	ldr	r3, [r3, #20]
 80008b6:	4a0c      	ldr	r2, [pc, #48]	; (80008e8 <EXTI9_5_IRQHandler+0xa0>)
 80008b8:	f443 7380 	orr.w	r3, r3, #256	; 0x100
 80008bc:	6153      	str	r3, [r2, #20]
 80008be:	4b0b      	ldr	r3, [pc, #44]	; (80008ec <EXTI9_5_IRQHandler+0xa4>)
 80008c0:	6a1b      	ldr	r3, [r3, #32]
 80008c2:	4798      	blx	r3
 80008c4:	4b08      	ldr	r3, [pc, #32]	; (80008e8 <EXTI9_5_IRQHandler+0xa0>)
 80008c6:	695b      	ldr	r3, [r3, #20]
 80008c8:	f403 7300 	and.w	r3, r3, #512	; 0x200
 80008cc:	2b00      	cmp	r3, #0
 80008ce:	d008      	beq.n	80008e2 <EXTI9_5_IRQHandler+0x9a>
 80008d0:	4b05      	ldr	r3, [pc, #20]	; (80008e8 <EXTI9_5_IRQHandler+0xa0>)
 80008d2:	695b      	ldr	r3, [r3, #20]
 80008d4:	4a04      	ldr	r2, [pc, #16]	; (80008e8 <EXTI9_5_IRQHandler+0xa0>)
 80008d6:	f443 7300 	orr.w	r3, r3, #512	; 0x200
 80008da:	6153      	str	r3, [r2, #20]
 80008dc:	4b03      	ldr	r3, [pc, #12]	; (80008ec <EXTI9_5_IRQHandler+0xa4>)
 80008de:	6a5b      	ldr	r3, [r3, #36]	; 0x24
 80008e0:	4798      	blx	r3
 80008e2:	bf00      	nop
 80008e4:	bd80      	pop	{r7, pc}
 80008e6:	bf00      	nop
 80008e8:	40010400 	andmi	r0, r1, r0, lsl #8
 80008ec:	20000040 	andcs	r0, r0, r0, asr #32

080008f0 <EXTI15_10_IRQHandler>:
 80008f0:	b580      	push	{r7, lr}
 80008f2:	af00      	add	r7, sp, #0
 80008f4:	4b2d      	ldr	r3, [pc, #180]	; (80009ac <EXTI15_10_IRQHandler+0xbc>)
 80008f6:	695b      	ldr	r3, [r3, #20]
 80008f8:	f403 6380 	and.w	r3, r3, #1024	; 0x400
 80008fc:	2b00      	cmp	r3, #0
 80008fe:	d008      	beq.n	8000912 <EXTI15_10_IRQHandler+0x22>
 8000900:	4b2a      	ldr	r3, [pc, #168]	; (80009ac <EXTI15_10_IRQHandler+0xbc>)
 8000902:	695b      	ldr	r3, [r3, #20]
 8000904:	4a29      	ldr	r2, [pc, #164]	; (80009ac <EXTI15_10_IRQHandler+0xbc>)
 8000906:	f443 6380 	orr.w	r3, r3, #1024	; 0x400
 800090a:	6153      	str	r3, [r2, #20]
 800090c:	4b28      	ldr	r3, [pc, #160]	; (80009b0 <EXTI15_10_IRQHandler+0xc0>)
 800090e:	6a9b      	ldr	r3, [r3, #40]	; 0x28
 8000910:	4798      	blx	r3
 8000912:	4b26      	ldr	r3, [pc, #152]	; (80009ac <EXTI15_10_IRQHandler+0xbc>)
 8000914:	695b      	ldr	r3, [r3, #20]
 8000916:	f403 6300 	and.w	r3, r3, #2048	; 0x800
 800091a:	2b00      	cmp	r3, #0
 800091c:	d008      	beq.n	8000930 <EXTI15_10_IRQHandler+0x40>
 800091e:	4b23      	ldr	r3, [pc, #140]	; (80009ac <EXTI15_10_IRQHandler+0xbc>)
 8000920:	695b      	ldr	r3, [r3, #20]
 8000922:	4a22      	ldr	r2, [pc, #136]	; (80009ac <EXTI15_10_IRQHandler+0xbc>)
 8000924:	f443 6300 	orr.w	r3, r3, #2048	; 0x800
 8000928:	6153      	str	r3, [r2, #20]
 800092a:	4b21      	ldr	r3, [pc, #132]	; (80009b0 <EXTI15_10_IRQHandler+0xc0>)
 800092c:	6adb      	ldr	r3, [r3, #44]	; 0x2c
 800092e:	4798      	blx	r3
 8000930:	4b1e      	ldr	r3, [pc, #120]	; (80009ac <EXTI15_10_IRQHandler+0xbc>)
 8000932:	695b      	ldr	r3, [r3, #20]
 8000934:	f403 5380 	and.w	r3, r3, #4096	; 0x1000
 8000938:	2b00      	cmp	r3, #0
 800093a:	d008      	beq.n	800094e <EXTI15_10_IRQHandler+0x5e>
 800093c:	4b1b      	ldr	r3, [pc, #108]	; (80009ac <EXTI15_10_IRQHandler+0xbc>)
 800093e:	695b      	ldr	r3, [r3, #20]
 8000940:	4a1a      	ldr	r2, [pc, #104]	; (80009ac <EXTI15_10_IRQHandler+0xbc>)
 8000942:	f443 5380 	orr.w	r3, r3, #4096	; 0x1000
 8000946:	6153      	str	r3, [r2, #20]
 8000948:	4b19      	ldr	r3, [pc, #100]	; (80009b0 <EXTI15_10_IRQHandler+0xc0>)
 800094a:	6b1b      	ldr	r3, [r3, #48]	; 0x30
 800094c:	4798      	blx	r3
 800094e:	4b17      	ldr	r3, [pc, #92]	; (80009ac <EXTI15_10_IRQHandler+0xbc>)
 8000950:	695b      	ldr	r3, [r3, #20]
 8000952:	f403 5300 	and.w	r3, r3, #8192	; 0x2000
 8000956:	2b00      	cmp	r3, #0
 8000958:	d008      	beq.n	800096c <EXTI15_10_IRQHandler+0x7c>
 800095a:	4b14      	ldr	r3, [pc, #80]	; (80009ac <EXTI15_10_IRQHandler+0xbc>)
 800095c:	695b      	ldr	r3, [r3, #20]
 800095e:	4a13      	ldr	r2, [pc, #76]	; (80009ac <EXTI15_10_IRQHandler+0xbc>)
 8000960:	f443 5300 	orr.w	r3, r3, #8192	; 0x2000
 8000964:	6153      	str	r3, [r2, #20]
 8000966:	4b12      	ldr	r3, [pc, #72]	; (80009b0 <EXTI15_10_IRQHandler+0xc0>)
 8000968:	6b5b      	ldr	r3, [r3, #52]	; 0x34
 800096a:	4798      	blx	r3
 800096c:	4b0f      	ldr	r3, [pc, #60]	; (80009ac <EXTI15_10_IRQHandler+0xbc>)
 800096e:	695b      	ldr	r3, [r3, #20]
 8000970:	f403 4380 	and.w	r3, r3, #16384	; 0x4000
 8000974:	2b00      	cmp	r3, #0
 8000976:	d008      	beq.n	800098a <EXTI15_10_IRQHandler+0x9a>
 8000978:	4b0c      	ldr	r3, [pc, #48]	; (80009ac <EXTI15_10_IRQHandler+0xbc>)
 800097a:	695b      	ldr	r3, [r3, #20]
 800097c:	4a0b      	ldr	r2, [pc, #44]	; (80009ac <EXTI15_10_IRQHandler+0xbc>)
 800097e:	f443 4380 	orr.w	r3, r3, #16384	; 0x4000
 8000982:	6153      	str	r3, [r2, #20]
 8000984:	4b0a      	ldr	r3, [pc, #40]	; (80009b0 <EXTI15_10_IRQHandler+0xc0>)
 8000986:	6b9b      	ldr	r3, [r3, #56]	; 0x38
 8000988:	4798      	blx	r3
 800098a:	4b08      	ldr	r3, [pc, #32]	; (80009ac <EXTI15_10_IRQHandler+0xbc>)
 800098c:	695b      	ldr	r3, [r3, #20]
 800098e:	f403 4300 	and.w	r3, r3, #32768	; 0x8000
 8000992:	2b00      	cmp	r3, #0
 8000994:	d008      	beq.n	80009a8 <EXTI15_10_IRQHandler+0xb8>
 8000996:	4b05      	ldr	r3, [pc, #20]	; (80009ac <EXTI15_10_IRQHandler+0xbc>)
 8000998:	695b      	ldr	r3, [r3, #20]
 800099a:	4a04      	ldr	r2, [pc, #16]	; (80009ac <EXTI15_10_IRQHandler+0xbc>)
 800099c:	f443 4300 	orr.w	r3, r3, #32768	; 0x8000
 80009a0:	6153      	str	r3, [r2, #20]
 80009a2:	4b03      	ldr	r3, [pc, #12]	; (80009b0 <EXTI15_10_IRQHandler+0xc0>)
 80009a4:	6bdb      	ldr	r3, [r3, #60]	; 0x3c
 80009a6:	4798      	blx	r3
 80009a8:	bf00      	nop
 80009aa:	bd80      	pop	{r7, pc}
 80009ac:	40010400 	andmi	r0, r1, r0, lsl #8
 80009b0:	20000040 	andcs	r0, r0, r0, asr #32

080009b4 <USART1_IRQHandler>:
 80009b4:	b580      	push	{r7, lr}
 80009b6:	af00      	add	r7, sp, #0
 80009b8:	4b02      	ldr	r3, [pc, #8]	; (80009c4 <USART1_IRQHandler+0x10>)
 80009ba:	681b      	ldr	r3, [r3, #0]
 80009bc:	691b      	ldr	r3, [r3, #16]
 80009be:	4798      	blx	r3
 80009c0:	bf00      	nop
 80009c2:	bd80      	pop	{r7, pc}
 80009c4:	2000007c 	andcs	r0, r0, ip, ror r0

080009c8 <USART2_IRQHandler>:
 80009c8:	b580      	push	{r7, lr}
 80009ca:	af00      	add	r7, sp, #0
 80009cc:	4b02      	ldr	r3, [pc, #8]	; (80009d8 <USART2_IRQHandler+0x10>)
 80009ce:	681b      	ldr	r3, [r3, #0]
 80009d0:	691b      	ldr	r3, [r3, #16]
 80009d2:	4798      	blx	r3
 80009d4:	bf00      	nop
 80009d6:	bd80      	pop	{r7, pc}
 80009d8:	2000007c 	andcs	r0, r0, ip, ror r0

080009dc <USART3_IRQHandler>:
 80009dc:	b580      	push	{r7, lr}
 80009de:	af00      	add	r7, sp, #0
 80009e0:	4b02      	ldr	r3, [pc, #8]	; (80009ec <USART3_IRQHandler+0x10>)
 80009e2:	681b      	ldr	r3, [r3, #0]
 80009e4:	691b      	ldr	r3, [r3, #16]
 80009e6:	4798      	blx	r3
 80009e8:	bf00      	nop
 80009ea:	bd80      	pop	{r7, pc}
 80009ec:	2000007c 	andcs	r0, r0, ip, ror r0

080009f0 <Get_CRLH_Position>:
 80009f0:	b480      	push	{r7}
 80009f2:	b083      	sub	sp, #12
 80009f4:	af00      	add	r7, sp, #0
 80009f6:	4603      	mov	r3, r0
 80009f8:	80fb      	strh	r3, [r7, #6]
 80009fa:	88fb      	ldrh	r3, [r7, #6]
 80009fc:	f5b3 4f00 	cmp.w	r3, #32768	; 0x8000
 8000a00:	f000 80a5 	beq.w	8000b4e <Get_CRLH_Position+0x15e>
 8000a04:	f5b3 4f00 	cmp.w	r3, #32768	; 0x8000
 8000a08:	f300 80a3 	bgt.w	8000b52 <Get_CRLH_Position+0x162>
 8000a0c:	f5b3 4f80 	cmp.w	r3, #16384	; 0x4000
 8000a10:	f000 809b 	beq.w	8000b4a <Get_CRLH_Position+0x15a>
 8000a14:	f5b3 4f80 	cmp.w	r3, #16384	; 0x4000
 8000a18:	f300 809b 	bgt.w	8000b52 <Get_CRLH_Position+0x162>
 8000a1c:	f5b3 5f00 	cmp.w	r3, #8192	; 0x2000
 8000a20:	f000 8091 	beq.w	8000b46 <Get_CRLH_Position+0x156>
 8000a24:	f5b3 5f00 	cmp.w	r3, #8192	; 0x2000
 8000a28:	f300 8093 	bgt.w	8000b52 <Get_CRLH_Position+0x162>
 8000a2c:	f5b3 5f80 	cmp.w	r3, #4096	; 0x1000
 8000a30:	f000 8087 	beq.w	8000b42 <Get_CRLH_Position+0x152>
 8000a34:	f5b3 5f80 	cmp.w	r3, #4096	; 0x1000
 8000a38:	f300 808b 	bgt.w	8000b52 <Get_CRLH_Position+0x162>
 8000a3c:	f5b3 6f00 	cmp.w	r3, #2048	; 0x800
 8000a40:	d07d      	beq.n	8000b3e <Get_CRLH_Position+0x14e>
 8000a42:	f5b3 6f00 	cmp.w	r3, #2048	; 0x800
 8000a46:	f300 8084 	bgt.w	8000b52 <Get_CRLH_Position+0x162>
 8000a4a:	f5b3 6f80 	cmp.w	r3, #1024	; 0x400
 8000a4e:	d074      	beq.n	8000b3a <Get_CRLH_Position+0x14a>
 8000a50:	f5b3 6f80 	cmp.w	r3, #1024	; 0x400
 8000a54:	dc7d      	bgt.n	8000b52 <Get_CRLH_Position+0x162>
 8000a56:	f5b3 7f00 	cmp.w	r3, #512	; 0x200
 8000a5a:	d06c      	beq.n	8000b36 <Get_CRLH_Position+0x146>
 8000a5c:	f5b3 7f00 	cmp.w	r3, #512	; 0x200
 8000a60:	dc77      	bgt.n	8000b52 <Get_CRLH_Position+0x162>
 8000a62:	f5b3 7f80 	cmp.w	r3, #256	; 0x100
 8000a66:	d064      	beq.n	8000b32 <Get_CRLH_Position+0x142>
 8000a68:	f5b3 7f80 	cmp.w	r3, #256	; 0x100
 8000a6c:	dc71      	bgt.n	8000b52 <Get_CRLH_Position+0x162>
 8000a6e:	2b80      	cmp	r3, #128	; 0x80
 8000a70:	d05d      	beq.n	8000b2e <Get_CRLH_Position+0x13e>
 8000a72:	2b80      	cmp	r3, #128	; 0x80
 8000a74:	dc6d      	bgt.n	8000b52 <Get_CRLH_Position+0x162>
 8000a76:	2b20      	cmp	r3, #32
 8000a78:	dc48      	bgt.n	8000b0c <Get_CRLH_Position+0x11c>
 8000a7a:	2b00      	cmp	r3, #0
 8000a7c:	dd69      	ble.n	8000b52 <Get_CRLH_Position+0x162>
 8000a7e:	3b01      	subs	r3, #1
 8000a80:	2b1f      	cmp	r3, #31
 8000a82:	d866      	bhi.n	8000b52 <Get_CRLH_Position+0x162>
 8000a84:	a201      	add	r2, pc, #4	; (adr r2, 8000a8c <Get_CRLH_Position+0x9c>)
 8000a86:	f852 f023 	ldr.w	pc, [r2, r3, lsl #2]
 8000a8a:	bf00      	nop
 8000a8c:	08000b13 	stmdaeq	r0, {r0, r1, r4, r8, r9, fp}
 8000a90:	08000b17 	stmdaeq	r0, {r0, r1, r2, r4, r8, r9, fp}
 8000a94:	08000b53 	stmdaeq	r0, {r0, r1, r4, r6, r8, r9, fp}
 8000a98:	08000b1b 	stmdaeq	r0, {r0, r1, r3, r4, r8, r9, fp}
 8000a9c:	08000b53 	stmdaeq	r0, {r0, r1, r4, r6, r8, r9, fp}
 8000aa0:	08000b53 	stmdaeq	r0, {r0, r1, r4, r6, r8, r9, fp}
 8000aa4:	08000b53 	stmdaeq	r0, {r0, r1, r4, r6, r8, r9, fp}
 8000aa8:	08000b1f 	stmdaeq	r0, {r0, r1, r2, r3, r4, r8, r9, fp}
 8000aac:	08000b53 	stmdaeq	r0, {r0, r1, r4, r6, r8, r9, fp}
 8000ab0:	08000b53 	stmdaeq	r0, {r0, r1, r4, r6, r8, r9, fp}
 8000ab4:	08000b53 	stmdaeq	r0, {r0, r1, r4, r6, r8, r9, fp}
 8000ab8:	08000b53 	stmdaeq	r0, {r0, r1, r4, r6, r8, r9, fp}
 8000abc:	08000b53 	stmdaeq	r0, {r0, r1, r4, r6, r8, r9, fp}
 8000ac0:	08000b53 	stmdaeq	r0, {r0, r1, r4, r6, r8, r9, fp}
 8000ac4:	08000b53 	stmdaeq	r0, {r0, r1, r4, r6, r8, r9, fp}
 8000ac8:	08000b23 	stmdaeq	r0, {r0, r1, r5, r8, r9, fp}
 8000acc:	08000b53 	stmdaeq	r0, {r0, r1, r4, r6, r8, r9, fp}
 8000ad0:	08000b53 	stmdaeq	r0, {r0, r1, r4, r6, r8, r9, fp}
 8000ad4:	08000b53 	stmdaeq	r0, {r0, r1, r4, r6, r8, r9, fp}
 8000ad8:	08000b53 	stmdaeq	r0, {r0, r1, r4, r6, r8, r9, fp}
 8000adc:	08000b53 	stmdaeq	r0, {r0, r1, r4, r6, r8, r9, fp}
 8000ae0:	08000b53 	stmdaeq	r0, {r0, r1, r4, r6, r8, r9, fp}
 8000ae4:	08000b53 	stmdaeq	r0, {r0, r1, r4, r6, r8, r9, fp}
 8000ae8:	08000b53 	stmdaeq	r0, {r0, r1, r4, r6, r8, r9, fp}
 8000aec:	08000b53 	stmdaeq	r0, {r0, r1, r4, r6, r8, r9, fp}
 8000af0:	08000b53 	stmdaeq	r0, {r0, r1, r4, r6, r8, r9, fp}
 8000af4:	08000b53 	stmdaeq	r0, {r0, r1, r4, r6, r8, r9, fp}
 8000af8:	08000b53 	stmdaeq	r0, {r0, r1, r4, r6, r8, r9, fp}
 8000afc:	08000b53 	stmdaeq	r0, {r0, r1, r4, r6, r8, r9, fp}
 8000b00:	08000b53 	stmdaeq	r0, {r0, r1, r4, r6, r8, r9, fp}
 8000b04:	08000b53 	stmdaeq	r0, {r0, r1, r4, r6, r8, r9, fp}
 8000b08:	08000b27 	stmdaeq	r0, {r0, r1, r2, r5, r8, r9, fp}
 8000b0c:	2b40      	cmp	r3, #64	; 0x40
 8000b0e:	d00c      	beq.n	8000b2a <Get_CRLH_Position+0x13a>
 8000b10:	e01f      	b.n	8000b52 <Get_CRLH_Position+0x162>
 8000b12:	2300      	movs	r3, #0
 8000b14:	e01e      	b.n	8000b54 <Get_CRLH_Position+0x164>
 8000b16:	2304      	movs	r3, #4
 8000b18:	e01c      	b.n	8000b54 <Get_CRLH_Position+0x164>
 8000b1a:	2308      	movs	r3, #8
 8000b1c:	e01a      	b.n	8000b54 <Get_CRLH_Position+0x164>
 8000b1e:	230c      	movs	r3, #12
 8000b20:	e018      	b.n	8000b54 <Get_CRLH_Position+0x164>
 8000b22:	2310      	movs	r3, #16
 8000b24:	e016      	b.n	8000b54 <Get_CRLH_Position+0x164>
 8000b26:	2314      	movs	r3, #20
 8000b28:	e014      	b.n	8000b54 <Get_CRLH_Position+0x164>
 8000b2a:	2318      	movs	r3, #24
 8000b2c:	e012      	b.n	8000b54 <Get_CRLH_Position+0x164>
 8000b2e:	231c      	movs	r3, #28
 8000b30:	e010      	b.n	8000b54 <Get_CRLH_Position+0x164>
 8000b32:	2300      	movs	r3, #0
 8000b34:	e00e      	b.n	8000b54 <Get_CRLH_Position+0x164>
 8000b36:	2304      	movs	r3, #4
 8000b38:	e00c      	b.n	8000b54 <Get_CRLH_Position+0x164>
 8000b3a:	2308      	movs	r3, #8
 8000b3c:	e00a      	b.n	8000b54 <Get_CRLH_Position+0x164>
 8000b3e:	230c      	movs	r3, #12
 8000b40:	e008      	b.n	8000b54 <Get_CRLH_Position+0x164>
 8000b42:	2310      	movs	r3, #16
 8000b44:	e006      	b.n	8000b54 <Get_CRLH_Position+0x164>
 8000b46:	2314      	movs	r3, #20
 8000b48:	e004      	b.n	8000b54 <Get_CRLH_Position+0x164>
 8000b4a:	2318      	movs	r3, #24
 8000b4c:	e002      	b.n	8000b54 <Get_CRLH_Position+0x164>
 8000b4e:	231c      	movs	r3, #28
 8000b50:	e000      	b.n	8000b54 <Get_CRLH_Position+0x164>
 8000b52:	2300      	movs	r3, #0
 8000b54:	4618      	mov	r0, r3
 8000b56:	370c      	adds	r7, #12
 8000b58:	46bd      	mov	sp, r7
 8000b5a:	bc80      	pop	{r7}
 8000b5c:	4770      	bx	lr
 8000b5e:	bf00      	nop

08000b60 <MCAL_GPIO_Init>:
 8000b60:	b590      	push	{r4, r7, lr}
 8000b62:	b085      	sub	sp, #20
 8000b64:	af00      	add	r7, sp, #0
 8000b66:	6078      	str	r0, [r7, #4]
 8000b68:	6039      	str	r1, [r7, #0]
 8000b6a:	2300      	movs	r3, #0
 8000b6c:	60bb      	str	r3, [r7, #8]
 8000b6e:	2300      	movs	r3, #0
 8000b70:	73fb      	strb	r3, [r7, #15]
 8000b72:	683b      	ldr	r3, [r7, #0]
 8000b74:	881b      	ldrh	r3, [r3, #0]
 8000b76:	2bff      	cmp	r3, #255	; 0xff
 8000b78:	d801      	bhi.n	8000b7e <MCAL_GPIO_Init+0x1e>
 8000b7a:	687b      	ldr	r3, [r7, #4]
 8000b7c:	e001      	b.n	8000b82 <MCAL_GPIO_Init+0x22>
 8000b7e:	687b      	ldr	r3, [r7, #4]
 8000b80:	3304      	adds	r3, #4
 8000b82:	60bb      	str	r3, [r7, #8]
 8000b84:	683b      	ldr	r3, [r7, #0]
 8000b86:	881b      	ldrh	r3, [r3, #0]
 8000b88:	4618      	mov	r0, r3
 8000b8a:	f7ff ff31 	bl	80009f0 <Get_CRLH_Position>
 8000b8e:	4603      	mov	r3, r0
 8000b90:	461a      	mov	r2, r3
 8000b92:	230f      	movs	r3, #15
 8000b94:	4093      	lsls	r3, r2
 8000b96:	43da      	mvns	r2, r3
 8000b98:	68bb      	ldr	r3, [r7, #8]
 8000b9a:	681b      	ldr	r3, [r3, #0]
 8000b9c:	401a      	ands	r2, r3
 8000b9e:	68bb      	ldr	r3, [r7, #8]
 8000ba0:	601a      	str	r2, [r3, #0]
 8000ba2:	683b      	ldr	r3, [r7, #0]
 8000ba4:	789b      	ldrb	r3, [r3, #2]
 8000ba6:	2b04      	cmp	r3, #4
 8000ba8:	d00b      	beq.n	8000bc2 <MCAL_GPIO_Init+0x62>
 8000baa:	683b      	ldr	r3, [r7, #0]
 8000bac:	789b      	ldrb	r3, [r3, #2]
 8000bae:	2b05      	cmp	r3, #5
 8000bb0:	d007      	beq.n	8000bc2 <MCAL_GPIO_Init+0x62>
 8000bb2:	683b      	ldr	r3, [r7, #0]
 8000bb4:	789b      	ldrb	r3, [r3, #2]
 8000bb6:	2b06      	cmp	r3, #6
 8000bb8:	d003      	beq.n	8000bc2 <MCAL_GPIO_Init+0x62>
 8000bba:	683b      	ldr	r3, [r7, #0]
 8000bbc:	789b      	ldrb	r3, [r3, #2]
 8000bbe:	2b07      	cmp	r3, #7
 8000bc0:	d10e      	bne.n	8000be0 <MCAL_GPIO_Init+0x80>
 8000bc2:	683b      	ldr	r3, [r7, #0]
 8000bc4:	789b      	ldrb	r3, [r3, #2]
 8000bc6:	3b04      	subs	r3, #4
 8000bc8:	009b      	lsls	r3, r3, #2
 8000bca:	b25a      	sxtb	r2, r3
 8000bcc:	683b      	ldr	r3, [r7, #0]
 8000bce:	78db      	ldrb	r3, [r3, #3]
 8000bd0:	b25b      	sxtb	r3, r3
 8000bd2:	f003 030f 	and.w	r3, r3, #15
 8000bd6:	b25b      	sxtb	r3, r3
 8000bd8:	4313      	orrs	r3, r2
 8000bda:	b25b      	sxtb	r3, r3
 8000bdc:	73fb      	strb	r3, [r7, #15]
 8000bde:	e029      	b.n	8000c34 <MCAL_GPIO_Init+0xd4>
 8000be0:	683b      	ldr	r3, [r7, #0]
 8000be2:	789b      	ldrb	r3, [r3, #2]
 8000be4:	2b00      	cmp	r3, #0
 8000be6:	d003      	beq.n	8000bf0 <MCAL_GPIO_Init+0x90>
 8000be8:	683b      	ldr	r3, [r7, #0]
 8000bea:	789b      	ldrb	r3, [r3, #2]
 8000bec:	2b01      	cmp	r3, #1
 8000bee:	d104      	bne.n	8000bfa <MCAL_GPIO_Init+0x9a>
 8000bf0:	683b      	ldr	r3, [r7, #0]
 8000bf2:	789b      	ldrb	r3, [r3, #2]
 8000bf4:	009b      	lsls	r3, r3, #2
 8000bf6:	73fb      	strb	r3, [r7, #15]
 8000bf8:	e01c      	b.n	8000c34 <MCAL_GPIO_Init+0xd4>
 8000bfa:	683b      	ldr	r3, [r7, #0]
 8000bfc:	789b      	ldrb	r3, [r3, #2]
 8000bfe:	2b08      	cmp	r3, #8
 8000c00:	d102      	bne.n	8000c08 <MCAL_GPIO_Init+0xa8>
 8000c02:	2304      	movs	r3, #4
 8000c04:	73fb      	strb	r3, [r7, #15]
 8000c06:	e015      	b.n	8000c34 <MCAL_GPIO_Init+0xd4>
 8000c08:	2308      	movs	r3, #8
 8000c0a:	73fb      	strb	r3, [r7, #15]
 8000c0c:	683b      	ldr	r3, [r7, #0]
 8000c0e:	789b      	ldrb	r3, [r3, #2]
 8000c10:	2b02      	cmp	r3, #2
 8000c12:	d107      	bne.n	8000c24 <MCAL_GPIO_Init+0xc4>
 8000c14:	687b      	ldr	r3, [r7, #4]
 8000c16:	68db      	ldr	r3, [r3, #12]
 8000c18:	683a      	ldr	r2, [r7, #0]
 8000c1a:	8812      	ldrh	r2, [r2, #0]
 8000c1c:	431a      	orrs	r2, r3
 8000c1e:	687b      	ldr	r3, [r7, #4]
 8000c20:	60da      	str	r2, [r3, #12]
 8000c22:	e007      	b.n	8000c34 <MCAL_GPIO_Init+0xd4>
 8000c24:	687b      	ldr	r3, [r7, #4]
 8000c26:	68db      	ldr	r3, [r3, #12]
 8000c28:	683a      	ldr	r2, [r7, #0]
 8000c2a:	8812      	ldrh	r2, [r2, #0]
 8000c2c:	43d2      	mvns	r2, r2
 8000c2e:	401a      	ands	r2, r3
 8000c30:	687b      	ldr	r3, [r7, #4]
 8000c32:	60da      	str	r2, [r3, #12]
 8000c34:	7bfc      	ldrb	r4, [r7, #15]
 8000c36:	683b      	ldr	r3, [r7, #0]
 8000c38:	881b      	ldrh	r3, [r3, #0]
 8000c3a:	4618      	mov	r0, r3
 8000c3c:	f7ff fed8 	bl	80009f0 <Get_CRLH_Position>
 8000c40:	4603      	mov	r3, r0
 8000c42:	fa04 f203 	lsl.w	r2, r4, r3
 8000c46:	68bb      	ldr	r3, [r7, #8]
 8000c48:	681b      	ldr	r3, [r3, #0]
 8000c4a:	431a      	orrs	r2, r3
 8000c4c:	68bb      	ldr	r3, [r7, #8]
 8000c4e:	601a      	str	r2, [r3, #0]
 8000c50:	bf00      	nop
 8000c52:	3714      	adds	r7, #20
 8000c54:	46bd      	mov	sp, r7
 8000c56:	bd90      	pop	{r4, r7, pc}

08000c58 <__libc_init_array>:
 8000c58:	b570      	push	{r4, r5, r6, lr}
 8000c5a:	2600      	movs	r6, #0
 8000c5c:	4d0c      	ldr	r5, [pc, #48]	; (8000c90 <__libc_init_array+0x38>)
 8000c5e:	4c0d      	ldr	r4, [pc, #52]	; (8000c94 <__libc_init_array+0x3c>)
 8000c60:	1b64      	subs	r4, r4, r5
 8000c62:	10a4      	asrs	r4, r4, #2
 8000c64:	42a6      	cmp	r6, r4
 8000c66:	d109      	bne.n	8000c7c <__libc_init_array+0x24>
 8000c68:	f000 f81a 	bl	8000ca0 <_init>
 8000c6c:	2600      	movs	r6, #0
 8000c6e:	4d0a      	ldr	r5, [pc, #40]	; (8000c98 <__libc_init_array+0x40>)
 8000c70:	4c0a      	ldr	r4, [pc, #40]	; (8000c9c <__libc_init_array+0x44>)
 8000c72:	1b64      	subs	r4, r4, r5
 8000c74:	10a4      	asrs	r4, r4, #2
 8000c76:	42a6      	cmp	r6, r4
 8000c78:	d105      	bne.n	8000c86 <__libc_init_array+0x2e>
 8000c7a:	bd70      	pop	{r4, r5, r6, pc}
 8000c7c:	f855 3b04 	ldr.w	r3, [r5], #4
 8000c80:	4798      	blx	r3
 8000c82:	3601      	adds	r6, #1
 8000c84:	e7ee      	b.n	8000c64 <__libc_init_array+0xc>
 8000c86:	f855 3b04 	ldr.w	r3, [r5], #4
 8000c8a:	4798      	blx	r3
 8000c8c:	3601      	adds	r6, #1
 8000c8e:	e7f2      	b.n	8000c76 <__libc_init_array+0x1e>
 8000c90:	08000cc4 	stmdaeq	r0, {r2, r6, r7, sl, fp}
 8000c94:	08000cc4 	stmdaeq	r0, {r2, r6, r7, sl, fp}
 8000c98:	08000cc4 	stmdaeq	r0, {r2, r6, r7, sl, fp}
 8000c9c:	08000cc8 	stmdaeq	r0, {r3, r6, r7, sl, fp}

08000ca0 <_init>:
 8000ca0:	b5f8      	push	{r3, r4, r5, r6, r7, lr}
 8000ca2:	bf00      	nop
 8000ca4:	bcf8      	pop	{r3, r4, r5, r6, r7}
 8000ca6:	bc08      	pop	{r3}
 8000ca8:	469e      	mov	lr, r3
 8000caa:	4770      	bx	lr

08000cac <_fini>:
 8000cac:	b5f8      	push	{r3, r4, r5, r6, r7, lr}
 8000cae:	bf00      	nop
 8000cb0:	bcf8      	pop	{r3, r4, r5, r6, r7}
 8000cb2:	bc08      	pop	{r3}
 8000cb4:	469e      	mov	lr, r3
 8000cb6:	4770      	bx	lr

Disassembly of section .rodata:

08000cb8 <.rodata>:
 8000cb8:	00000009 	andeq	r0, r0, r9
 8000cbc:	40010c00 	andmi	r0, r1, r0, lsl #24
 8000cc0:	00170200 	andseq	r0, r7, r0, lsl #4

Disassembly of section .init_array:

08000cc4 <__frame_dummy_init_array_entry>:
 8000cc4:	08000155 	stmdaeq	r0, {r0, r2, r4, r6, r8}

Disassembly of section .fini_array:

08000cc8 <__do_global_dtors_aux_fini_array_entry>:
 8000cc8:	08000131 	stmdaeq	r0, {r0, r4, r5, r8}

Disassembly of section .data:

20000000 <_S_MSP>:
20000000:	20002800 	andcs	r2, r0, r0, lsl #16

Disassembly of section .bss:

20000004 <__bss_start__>:
20000004:	00000000 	andeq	r0, r0, r0

20000008 <object.0>:
	...

20000020 <_E_MSP>:
20000020:	00000000 	andeq	r0, r0, r0

20000024 <_S_PSP_TA>:
20000024:	00000000 	andeq	r0, r0, r0

20000028 <_E_PSP_TA>:
20000028:	00000000 	andeq	r0, r0, r0

2000002c <_S_PSP_TB>:
2000002c:	00000000 	andeq	r0, r0, r0

20000030 <_E_PSP_TB>:
20000030:	00000000 	andeq	r0, r0, r0

20000034 <IRQ_Flag>:
20000034:	00000000 	andeq	r0, r0, r0

20000038 <TaskA_Falg>:
20000038:	00000000 	andeq	r0, r0, r0

2000003c <TaskB_Falg>:
2000003c:	00000000 	andeq	r0, r0, r0

20000040 <GP_IRQ_CallBack>:
	...

2000007c <Gp_UART_config>:
2000007c:	00000000 	andeq	r0, r0, r0

Disassembly of section ._user_heap_stack:

20000080 <_end>:
	...

Disassembly of section .ARM.attributes:

00000000 <.ARM.attributes>:
   0:	00002841 	andeq	r2, r0, r1, asr #16
   4:	61656100 	cmnvs	r5, r0, lsl #2
   8:	01006962 	tsteq	r0, r2, ror #18
   c:	0000001e 	andeq	r0, r0, lr, lsl r0
  10:	4d2d3705 	stcmi	7, cr3, [sp, #-20]!	; 0xffffffec
  14:	070a0600 	streq	r0, [sl, -r0, lsl #12]
  18:	1202094d 	andne	r0, r2, #1261568	; 0x134000
  1c:	15011404 	strne	r1, [r1, #-1028]	; 0xfffffbfc
  20:	18031701 	stmdane	r3, {r0, r8, r9, sl, ip}
  24:	22011a01 	andcs	r1, r1, #4096	; 0x1000
  28:	Address 0x0000000000000028 is out of bounds.


Disassembly of section .debug_info:

00000000 <.debug_info>:
       0:	0000052f 	andeq	r0, r0, pc, lsr #10
       4:	00000002 	andeq	r0, r0, r2
       8:	01040000 	mrseq	r0, (UNDEF: 4)
       c:	00002c8f 	andeq	r2, r0, pc, lsl #25
      10:	0034940c 	eorseq	r9, r4, ip, lsl #8
      14:	00371b00 	eorseq	r1, r7, r0, lsl #22
	...
      2c:	07040200 	streq	r0, [r4, -r0, lsl #4]
      30:	0000230f 	andeq	r2, r0, pc, lsl #6
      34:	69050403 	stmdbvs	r5, {r0, r1, sl}
      38:	0400746e 	streq	r7, [r0], #-1134	; 0xfffffb92
      3c:	00000034 	andeq	r0, r0, r4, lsr r0
      40:	d6050802 	strle	r0, [r5], -r2, lsl #16
      44:	02000055 	andeq	r0, r0, #85	; 0x55
      48:	02f70408 	rscseq	r0, r7, #8, 8	; 0x8000000
      4c:	01020000 	mrseq	r0, (UNDEF: 2)
      50:	00070306 	andeq	r0, r7, r6, lsl #6
      54:	13e80500 	mvnne	r0, #0, 10
      58:	2b020000 	blcs	80060 <_Min_Stack_Size+0x7fc60>
      5c:	00006118 	andeq	r6, r0, r8, lsl r1
      60:	08010200 	stmdaeq	r1, {r9}
      64:	00003425 	andeq	r3, r0, r5, lsr #8
      68:	fb050202 	blx	14087a <_Min_Stack_Size+0x14047a>
      6c:	05000009 	streq	r0, [r0, #-9]
      70:	00002d85 	andeq	r2, r0, r5, lsl #27
      74:	7b193902 	blvc	64e484 <_Min_Stack_Size+0x64e084>
      78:	02000000 	andeq	r0, r0, #0
      7c:	6f860702 	svcvs	0x00860702
      80:	04020000 	streq	r0, [r2], #-0
      84:	00734805 	rsbseq	r4, r3, r5, lsl #16
      88:	42450500 	submi	r0, r5, #0, 10
      8c:	4f020000 	svcmi	0x00020000
      90:	00009519 	andeq	r9, r0, r9, lsl r5
      94:	07040200 	streq	r0, [r4, -r0, lsl #4]
      98:	00001c6c 	andeq	r1, r0, ip, ror #24
      9c:	6c070802 	stcvs	8, cr0, [r7], {2}
      a0:	0600003e 			; <UNDEFINED> instruction: 0x0600003e
      a4:	0000a904 	andeq	sl, r0, r4, lsl #18
      a8:	02010700 	andeq	r0, r1, #0, 14
      ac:	070a0801 	streq	r0, [sl, -r1, lsl #16]
      b0:	ea050000 	b	1400b8 <_Min_Stack_Size+0x13fcb8>
      b4:	03000013 	movweq	r0, #19
      b8:	00551318 	subseq	r1, r5, r8, lsl r3
      bc:	87050000 	strhi	r0, [r5, -r0]
      c0:	0300002d 	movweq	r0, #45	; 0x2d
      c4:	006f1424 	rsbeq	r1, pc, r4, lsr #8
      c8:	47050000 	strmi	r0, [r5, -r0]
      cc:	03000042 	movweq	r0, #66	; 0x42
      d0:	00891430 	addeq	r1, r9, r0, lsr r4
      d4:	ca040000 	bgt	1000dc <_Min_Stack_Size+0xffcdc>
      d8:	08000000 	stmdaeq	r0, {}	; <UNPREDICTABLE>
      dc:	096a041c 	stmdbeq	sl!, {r2, r3, r4, sl}^
      e0:	0000014e 	andeq	r0, r0, lr, asr #2
      e4:	4c524309 	mrrcmi	3, 0, r4, r2, cr9
      e8:	146c0400 	strbtne	r0, [ip], #-1024	; 0xfffffc00
      ec:	000000d6 	ldrdeq	r0, [r0], -r6
      f0:	09002302 	stmdbeq	r0, {r1, r8, r9, sp}
      f4:	00485243 	subeq	r5, r8, r3, asr #4
      f8:	d6146d04 	ldrle	r6, [r4], -r4, lsl #26
      fc:	02000000 	andeq	r0, r0, #0
     100:	49090423 	stmdbmi	r9, {r0, r1, r5, sl}
     104:	04005244 	streq	r5, [r0], #-580	; 0xfffffdbc
     108:	00d6146e 	sbcseq	r1, r6, lr, ror #8
     10c:	23020000 	movwcs	r0, #8192	; 0x2000
     110:	444f0908 	strbmi	r0, [pc], #-2312	; 118 <_Min_Heap_Size-0xe8>
     114:	6f040052 	svcvs	0x00040052
     118:	0000d614 	andeq	sp, r0, r4, lsl r6
     11c:	0c230200 	sfmeq	f0, 4, [r3], #-0
     120:	0087930a 	addeq	r9, r7, sl, lsl #6
     124:	14700400 	ldrbtne	r0, [r0], #-1024	; 0xfffffc00
     128:	000000d6 	ldrdeq	r0, [r0], -r6
     12c:	09102302 	ldmdbeq	r0, {r1, r8, r9, sp}
     130:	00525242 	subseq	r5, r2, r2, asr #4
     134:	d6147104 	ldrle	r7, [r4], -r4, lsl #2
     138:	02000000 	andeq	r0, r0, #0
     13c:	9f0a1423 	svcls	0x000a1423
     140:	04000047 	streq	r0, [r0], #-71	; 0xffffffb9
     144:	00d61472 	sbcseq	r1, r6, r2, ror r4
     148:	23020000 	movwcs	r0, #8192	; 0x2000
     14c:	10050018 	andne	r0, r5, r8, lsl r0
     150:	0400005b 	streq	r0, [r0], #-91	; 0xffffffa5
     154:	00db0273 	sbcseq	r0, fp, r3, ror r2
     158:	30080000 	andcc	r0, r8, r0
     15c:	17098104 	strne	r8, [r9, -r4, lsl #2]
     160:	09000002 	stmdbeq	r0, {r1}
     164:	04005243 	streq	r5, [r0], #-579	; 0xfffffdbd
     168:	00d61483 	sbcseq	r1, r6, r3, lsl #9
     16c:	23020000 	movwcs	r0, #8192	; 0x2000
     170:	3afb0a00 	bcc	ffec2978 <_estack+0xdfec0178>
     174:	84040000 	strhi	r0, [r4], #-0
     178:	0000d614 	andeq	sp, r0, r4, lsl r6
     17c:	04230200 	strteq	r0, [r3], #-512	; 0xfffffe00
     180:	52494309 	subpl	r4, r9, #603979776	; 0x24000000
     184:	14850400 	strne	r0, [r5], #1024	; 0x400
     188:	000000d6 	ldrdeq	r0, [r0], -r6
     18c:	0a082302 	beq	208d9c <_Min_Stack_Size+0x20899c>
     190:	00005554 	andeq	r5, r0, r4, asr r5
     194:	d6148604 	ldrle	r8, [r4], -r4, lsl #12
     198:	02000000 	andeq	r0, r0, #0
     19c:	480a0c23 	stmdami	sl, {r0, r1, r5, sl, fp}
     1a0:	0400006a 	streq	r0, [r0], #-106	; 0xffffff96
     1a4:	00d61487 	sbcseq	r1, r6, r7, lsl #9
     1a8:	23020000 	movwcs	r0, #8192	; 0x2000
     1ac:	85790a10 	ldrbhi	r0, [r9, #-2576]!	; 0xfffff5f0
     1b0:	88040000 	stmdahi	r4, {}	; <UNPREDICTABLE>
     1b4:	0000d614 	andeq	sp, r0, r4, lsl r6
     1b8:	14230200 	strtne	r0, [r3], #-512	; 0xfffffe00
     1bc:	001d630a 	andseq	r6, sp, sl, lsl #6
     1c0:	14890400 	strne	r0, [r9], #1024	; 0x400
     1c4:	000000d6 	ldrdeq	r0, [r0], -r6
     1c8:	0a182302 	beq	608dd8 <_Min_Stack_Size+0x6089d8>
     1cc:	00006abb 			; <UNDEFINED> instruction: 0x00006abb
     1d0:	d6148a04 	ldrle	r8, [r4], -r4, lsl #20
     1d4:	02000000 	andeq	r0, r0, #0
     1d8:	5e0a1c23 	cdppl	12, 0, cr1, cr10, cr3, {1}
     1dc:	04000035 	streq	r0, [r0], #-53	; 0xffffffcb
     1e0:	00d6148b 	sbcseq	r1, r6, fp, lsl #9
     1e4:	23020000 	movwcs	r0, #8192	; 0x2000
     1e8:	53430920 	movtpl	r0, #14624	; 0x3920
     1ec:	8c040052 	stchi	0, cr0, [r4], {82}	; 0x52
     1f0:	0000d614 	andeq	sp, r0, r4, lsl r6
     1f4:	24230200 	strtcs	r0, [r3], #-512	; 0xfffffe00
     1f8:	0029e80a 	eoreq	lr, r9, sl, lsl #16
     1fc:	148d0400 	strne	r0, [sp], #1024	; 0x400
     200:	000000d6 	ldrdeq	r0, [r0], -r6
     204:	0a282302 	beq	a08e14 <_Min_Stack_Size+0xa08a14>
     208:	00005c6c 	andeq	r5, r0, ip, ror #24
     20c:	d6148e04 	ldrle	r8, [r4], -r4, lsl #28
     210:	02000000 	andeq	r0, r0, #0
     214:	05002c23 	streq	r2, [r0, #-3107]	; 0xfffff3dd
     218:	00008e2f 	andeq	r8, r0, pc, lsr #28
     21c:	5a028f04 	bpl	a3e34 <_Min_Stack_Size+0xa3a34>
     220:	08000001 	stmdaeq	r0, {r0}
     224:	0912050c 	ldmdbeq	r2, {r2, r3, r8, sl}
     228:	00000269 	andeq	r0, r0, r9, ror #4
     22c:	0054000a 	subseq	r0, r4, sl
     230:	1e130500 	cfmul32ne	mvfx0, mvfx3, mvfx0
     234:	000000be 	strheq	r0, [r0], -lr
     238:	0a002302 	beq	8e48 <_Min_Stack_Size+0x8a48>
     23c:	00006fe2 	andeq	r6, r0, r2, ror #31
     240:	691e1405 	ldmdbvs	lr, {r0, r2, sl, ip}
     244:	02000002 	andeq	r0, r0, #2
     248:	ed0a0423 	cfstrs	mvf0, [sl, #-140]	; 0xffffff74
     24c:	05000070 	streq	r0, [r0, #-112]	; 0xffffff90
     250:	00be1e15 	adcseq	r1, lr, r5, lsl lr
     254:	23020000 	movwcs	r0, #8192	; 0x2000
     258:	95990a08 	ldrls	r0, [r9, #2568]	; 0xa08
     25c:	16050000 	strne	r0, [r5], -r0
     260:	0000b21e 	andeq	fp, r0, lr, lsl r2
     264:	0a230200 	beq	8c0a6c <_Min_Stack_Size+0x8c066c>
     268:	4e040600 	cfmadd32mi	mvax0, mvfx0, mvfx4, mvfx0
     26c:	05000001 	streq	r0, [r0, #-1]
     270:	00001ae0 	andeq	r1, r0, r0, ror #21
     274:	23021705 	movwcs	r1, #9989	; 0x2705
     278:	08000002 	stmdaeq	r0, {r1}
     27c:	091a0514 	ldmdbeq	sl, {r2, r4, r8, sl}
     280:	000002c1 	andeq	r0, r0, r1, asr #5
     284:	0056060a 	subseq	r0, r6, sl, lsl #12
     288:	191b0500 	ldmdbne	fp, {r8, sl}
     28c:	0000026f 	andeq	r0, r0, pc, ror #4
     290:	0a002302 	beq	8ea0 <_Min_Stack_Size+0x8aa0>
     294:	00008d8f 	andeq	r8, r0, pc, lsl #27
     298:	b20b1e05 	andlt	r1, fp, #5, 28	; 0x50
     29c:	02000000 	andeq	r0, r0, #0
     2a0:	a10a0c23 	tstge	sl, r3, lsr #24
     2a4:	05000077 	streq	r0, [r0, #-119]	; 0xffffff89
     2a8:	00b20b21 	adcseq	r0, r2, r1, lsr #22
     2ac:	23020000 	movwcs	r0, #8192	; 0x2000
     2b0:	9d570a0d 	vldrls	s1, [r7, #-52]	; 0xffffffcc
     2b4:	24050000 	strcs	r0, [r5], #-0
     2b8:	0000a308 	andeq	sl, r0, r8, lsl #6
     2bc:	10230200 	eorne	r0, r3, r0, lsl #4
     2c0:	2f400500 	svccs	0x00400500
     2c4:	25050000 	strcs	r0, [r5, #-0]
     2c8:	00027b02 	andeq	r7, r2, r2, lsl #22
     2cc:	61a60b00 			; <UNDEFINED> instruction: 0x61a60b00
     2d0:	3c010000 	stccc	0, cr0, [r1], {-0}
     2d4:	00003408 	andeq	r3, r0, r8, lsl #8
     2d8:	0c010100 	stfeqs	f0, [r1], {-0}
     2dc:	00002aaa 	andeq	r2, r0, sl, lsr #21
     2e0:	2d0e4701 	stccs	7, cr4, [lr, #-4]
     2e4:	01000000 	mrseq	r0, (UNDEF: 0)
     2e8:	00000305 	andeq	r0, r0, r5, lsl #6
     2ec:	6e0c2000 	cdpvs	0, 0, cr2, cr12, cr0, {0}
     2f0:	01000045 	tsteq	r0, r5, asr #32
     2f4:	002d0e48 	eoreq	r0, sp, r8, asr #28
     2f8:	05010000 	streq	r0, [r1, #-0]
     2fc:	00002003 	andeq	r2, r0, r3
     300:	8e790c20 	cdphi	12, 7, cr0, cr9, cr0, {1}
     304:	4b010000 	blmi	4030c <_Min_Stack_Size+0x3ff0c>
     308:	00002d0e 	andeq	r2, r0, lr, lsl #26
     30c:	03050100 	movweq	r0, #20736	; 0x5100
     310:	20000024 	andcs	r0, r0, r4, lsr #32
     314:	006ac30c 	rsbeq	ip, sl, ip, lsl #6
     318:	0e4c0100 	dvfeqe	f0, f4, f0
     31c:	0000002d 	andeq	r0, r0, sp, lsr #32
     320:	28030501 	stmdacs	r3, {r0, r8, sl}
     324:	0c200000 	stceq	0, cr0, [r0], #-0
     328:	00008e83 	andeq	r8, r0, r3, lsl #29
     32c:	2d0e4f01 	stccs	15, cr4, [lr, #-4]
     330:	01000000 	mrseq	r0, (UNDEF: 0)
     334:	002c0305 	eoreq	r0, ip, r5, lsl #6
     338:	cd0c2000 	stcgt	0, cr2, [ip, #-0]
     33c:	0100006a 	tsteq	r0, sl, rrx
     340:	002d0e50 	eoreq	r0, sp, r0, asr lr
     344:	05010000 	streq	r0, [r1, #-0]
     348:	00003003 	andeq	r3, r0, r3
     34c:	33c00c20 	biccc	r0, r0, #32, 24	; 0x2000
     350:	55010000 	strpl	r0, [r1, #-0]
     354:	00003b0e 	andeq	r3, r0, lr, lsl #22
     358:	03050100 	movweq	r0, #20736	; 0x5100
     35c:	20000034 	andcs	r0, r0, r4, lsr r0
     360:	005cce0c 	subseq	ip, ip, ip, lsl #28
     364:	0e560100 	rdfeqs	f0, f6, f0
     368:	0000003b 	andeq	r0, r0, fp, lsr r0
     36c:	38030501 	stmdacc	r3, {r0, r8, sl}
     370:	0c200000 	stceq	0, cr0, [r0], #-0
     374:	00001eba 			; <UNDEFINED> instruction: 0x00001eba
     378:	3b0e5701 	blcc	395f84 <_Min_Stack_Size+0x395b84>
     37c:	01000000 	mrseq	r0, (UNDEF: 0)
     380:	003c0305 	eorseq	r0, ip, r5, lsl #6
     384:	210c2000 	mrscs	r2, (UNDEF: 12)
     388:	01000080 	smlabbeq	r0, r0, r0, r0
     38c:	0034055a 	eorseq	r0, r4, sl, asr r5
     390:	05010000 	streq	r0, [r1, #-0]
     394:	00000003 	andeq	r0, r0, r3
     398:	8c390d00 	ldchi	13, cr0, [r9], #-0
     39c:	01070000 	mrseq	r0, (UNDEF: 7)
     3a0:	00000061 	andeq	r0, r0, r1, rrx
     3a4:	b8065b01 	stmdalt	r6, {r0, r8, r9, fp, ip, lr}
     3a8:	0e000003 	cdpeq	0, 0, cr0, cr0, cr3, {0}
     3ac:	00001187 	andeq	r1, r0, r7, lsl #3
     3b0:	11850e00 	orrne	r0, r5, r0, lsl #28
     3b4:	00010000 	andeq	r0, r1, r0
     3b8:	59e8010f 	stmibpl	r8!, {r0, r1, r2, r3, r8}^
     3bc:	c1050000 	mrsgt	r0, (UNDEF: 5)
     3c0:	cd010106 	stfgts	f0, [r1, #-24]	; 0xffffffe8
     3c4:	10000003 	andne	r0, r0, r3
     3c8:	000003cd 	andeq	r0, r0, sp, asr #7
     3cc:	c1040600 	tstgt	r4, r0, lsl #12
     3d0:	11000002 	tstne	r0, r2
     3d4:	0089cb01 	addeq	ip, r9, r1, lsl #22
     3d8:	05d30100 	ldrbeq	r0, [r3, #256]	; 0x100
     3dc:	00000034 	andeq	r0, r0, r4, lsr r0
     3e0:	08000350 	stmdaeq	r0, {r4, r6, r8, r9}
     3e4:	080003c8 	stmdaeq	r0, {r3, r6, r7, r8, r9}
     3e8:	00000000 	andeq	r0, r0, r0
     3ec:	00040101 	andeq	r0, r4, r1, lsl #2
     3f0:	7df61200 	lfmvc	f1, 2, [r6]
     3f4:	dd010000 	stcle	0, cr0, [r1, #-0]
     3f8:	0002c113 	andeq	ip, r2, r3, lsl r1
     3fc:	64910200 	ldrvs	r0, [r1], #512	; 0x200
     400:	d0011300 	andle	r1, r1, r0, lsl #6
     404:	01000069 	tsteq	r0, r9, rrx
     408:	025c069f 	subseq	r0, ip, #166723584	; 0x9f00000
     40c:	03500800 	cmpeq	r0, #0, 16
     410:	00380800 	eorseq	r0, r8, r0, lsl #16
     414:	14010000 	strne	r0, [r1], #-0
     418:	002aa401 	eoreq	sl, sl, r1, lsl #8
     41c:	059a0100 	ldreq	r0, [sl, #256]	; 0x100
     420:	00003401 	andeq	r3, r0, r1, lsl #8
     424:	00023600 	andeq	r3, r2, r0, lsl #12
     428:	00025c08 	andeq	r5, r2, r8, lsl #24
     42c:	00006408 	andeq	r6, r0, r8, lsl #8
     430:	046b0100 	strbteq	r0, [fp], #-256	; 0xffffff00
     434:	61150000 	tstvs	r5, r0
     438:	0f9a0100 	svceq	0x009a0100
     43c:	00000034 	andeq	r0, r0, r4, lsr r0
     440:	15749102 	ldrbne	r9, [r4, #-258]!	; 0xfffffefe
     444:	9a010062 	bls	405d4 <_Min_Stack_Size+0x401d4>
     448:	00003415 	andeq	r3, r0, r5, lsl r4
     44c:	70910200 	addsvc	r0, r1, r0, lsl #4
     450:	01006315 	tsteq	r0, r5, lsl r3
     454:	00341b9a 	mlaseq	r4, sl, fp, r1
     458:	91020000 	mrsls	r0, (UNDEF: 2)
     45c:	0064156c 	rsbeq	r1, r4, ip, ror #10
     460:	34219a01 	strtcc	r9, [r1], #-2561	; 0xfffff5ff
     464:	02000000 	andeq	r0, r0, #0
     468:	14006891 	strne	r6, [r0], #-2193	; 0xfffff76f
     46c:	002a9e01 	eoreq	r9, sl, r1, lsl #28
     470:	05950100 	ldreq	r0, [r5, #256]	; 0x100
     474:	00003401 	andeq	r3, r0, r1, lsl #8
     478:	00021600 	andeq	r1, r2, r0, lsl #12
     47c:	00023608 	andeq	r3, r2, r8, lsl #12
     480:	0000c008 	andeq	ip, r0, r8
     484:	04b20100 	ldrteq	r0, [r2], #256	; 0x100
     488:	61150000 	tstvs	r5, r0
     48c:	0f950100 	svceq	0x00950100
     490:	00000034 	andeq	r0, r0, r4, lsr r0
     494:	15749102 	ldrbne	r9, [r4, #-258]!	; 0xfffffefe
     498:	95010062 	strls	r0, [r1, #-98]	; 0xffffff9e
     49c:	00003415 	andeq	r3, r0, r5, lsl r4
     4a0:	70910200 	addsvc	r0, r1, r0, lsl #4
     4a4:	01006315 	tsteq	r0, r5, lsl r3
     4a8:	00341b95 	mlaseq	r4, r5, fp, r1
     4ac:	91020000 	mrsls	r0, (UNDEF: 2)
     4b0:	0113006c 	tsteq	r3, ip, rrx
     4b4:	0000944c 	andeq	r9, r0, ip, asr #8
     4b8:	08069201 	stmdaeq	r6, {r0, r9, ip, pc}
     4bc:	16080002 	strne	r0, [r8], -r2
     4c0:	1c080002 	stcne	0, cr0, [r8], {2}
     4c4:	01000001 	tsteq	r0, r1
     4c8:	60820116 	addvs	r0, r2, r6, lsl r1
     4cc:	7e010000 	cdpvc	0, 0, cr0, cr1, cr0, {0}
     4d0:	01fc0106 	mvnseq	r0, r6, lsl #2
     4d4:	02080800 	andeq	r0, r8, #0, 16
     4d8:	01480800 	cmpeq	r8, r0, lsl #16
     4dc:	17010000 	strne	r0, [r1, -r0]
     4e0:	001a4c01 	andseq	r4, sl, r1, lsl #24
     4e4:	06730100 	ldrbteq	r0, [r3], -r0, lsl #2
     4e8:	080001c0 	stmdaeq	r0, {r6, r7, r8}
     4ec:	080001fc 	stmdaeq	r0, {r2, r3, r4, r5, r6, r7, r8}
     4f0:	0000018c 	andeq	r0, r0, ip, lsl #3
     4f4:	0e011301 	cdpeq	3, 0, cr1, cr1, cr1, {0}
     4f8:	01000060 	tsteq	r0, r0, rrx
     4fc:	01b0066f 	rorseq	r0, pc, #12
     500:	01be0800 			; <UNDEFINED> instruction: 0x01be0800
     504:	01d00800 	bicseq	r0, r0, r0, lsl #16
     508:	18010000 	stmdane	r1, {}	; <UNPREDICTABLE>
     50c:	008c3201 	addeq	r3, ip, r1, lsl #4
     510:	065c0100 	ldrbeq	r0, [ip], -r0, lsl #2
     514:	00017001 	andeq	r7, r1, r1
     518:	0001b008 	andeq	fp, r1, r8
     51c:	0001fc08 	andeq	pc, r1, r8, lsl #24
     520:	42190100 	andsmi	r0, r9, #0, 2
     524:	01000000 	mrseq	r0, (UNDEF: 0)
     528:	0399325c 	orrseq	r3, r9, #92, 4	; 0xc0000005
     52c:	91020000 	mrsls	r0, (UNDEF: 2)
     530:	1e000077 	mcrne	0, 0, r0, cr0, cr7, {3}
     534:	02000000 	andeq	r0, r0, #0
     538:	0001b700 	andeq	fp, r1, r0, lsl #14
     53c:	72010400 	andvc	r0, r1, #0, 8
     540:	50000008 	andpl	r0, r0, r8
     544:	f2000000 	vhadd.s8	d0, d0, d0
     548:	1b00009b 	blne	7bc <_Min_Stack_Size+0x3bc>
     54c:	15000037 	strne	r0, [r0, #-55]	; 0xffffffc9
     550:	0100009c 	swpeq	r0, ip, [r0]	; <UNPREDICTABLE>
     554:	00052680 	andeq	r2, r5, r0, lsl #13
     558:	c9000200 	stmdbgt	r0, {r9}
     55c:	04000001 	streq	r0, [r0], #-1
     560:	002c8f01 	eoreq	r8, ip, r1, lsl #30
     564:	9cc80c00 	stclls	12, cr0, [r8], {0}
     568:	371b0000 	ldrcc	r0, [fp, -r0]
     56c:	00700000 	rsbseq	r0, r0, r0
	...
     578:	08f60000 	ldmeq	r6!, {}^	; <UNPREDICTABLE>
     57c:	205a0000 	subscs	r0, sl, r0
     580:	04020000 	streq	r0, [r2], #-0
     584:	00230f07 	eoreq	r0, r3, r7, lsl #30
     588:	05040300 	streq	r0, [r4, #-768]	; 0xfffffd00
     58c:	00746e69 	rsbseq	r6, r4, r9, ror #28
     590:	d6050802 	strle	r0, [r5], -r2, lsl #16
     594:	02000055 	andeq	r0, r0, #85	; 0x55
     598:	02f70408 	rscseq	r0, r7, #8, 8	; 0x8000000
     59c:	01020000 	mrseq	r0, (UNDEF: 2)
     5a0:	00070306 	andeq	r0, r7, r6, lsl #6
     5a4:	13e80400 	mvnne	r0, #0, 8
     5a8:	2b020000 	blcs	805b0 <_Min_Stack_Size+0x801b0>
     5ac:	00005c18 	andeq	r5, r0, r8, lsl ip
     5b0:	08010200 	stmdaeq	r1, {r9}
     5b4:	00003425 	andeq	r3, r0, r5, lsr #8
     5b8:	fb050202 	blx	140dca <_Min_Stack_Size+0x1409ca>
     5bc:	04000009 	streq	r0, [r0], #-9
     5c0:	00002d85 	andeq	r2, r0, r5, lsl #27
     5c4:	76193902 	ldrvc	r3, [r9], -r2, lsl #18
     5c8:	02000000 	andeq	r0, r0, #0
     5cc:	6f860702 	svcvs	0x00860702
     5d0:	04020000 	streq	r0, [r2], #-0
     5d4:	00734805 	rsbseq	r4, r3, r5, lsl #16
     5d8:	42450400 	submi	r0, r5, #0, 8
     5dc:	4f020000 	svcmi	0x00020000
     5e0:	00009019 	andeq	r9, r0, r9, lsl r0
     5e4:	07040200 	streq	r0, [r4, -r0, lsl #4]
     5e8:	00001c6c 	andeq	r1, r0, ip, ror #24
     5ec:	6c070802 	stcvs	8, cr0, [r7], {2}
     5f0:	0500003e 	streq	r0, [r0, #-62]	; 0xffffffc2
     5f4:	0000a404 	andeq	sl, r0, r4, lsl #8
     5f8:	02010600 	andeq	r0, r1, #0, 12
     5fc:	070a0801 	streq	r0, [sl, -r1, lsl #16]
     600:	ea040000 	b	100608 <_Min_Stack_Size+0x100208>
     604:	03000013 	movweq	r0, #19
     608:	00501318 	subseq	r1, r0, r8, lsl r3
     60c:	87040000 	strhi	r0, [r4, -r0]
     610:	0300002d 	movweq	r0, #45	; 0x2d
     614:	006a1424 	rsbeq	r1, sl, r4, lsr #8
     618:	47040000 	strmi	r0, [r4, -r0]
     61c:	03000042 	movweq	r0, #66	; 0x42
     620:	00841430 	addeq	r1, r4, r0, lsr r4
     624:	c5070000 	strgt	r0, [r7, #-0]
     628:	08000000 	stmdaeq	r0, {}	; <UNPREDICTABLE>
     62c:	096a041c 	stmdbeq	sl!, {r2, r3, r4, sl}^
     630:	00000149 	andeq	r0, r0, r9, asr #2
     634:	4c524309 	mrrcmi	3, 0, r4, r2, cr9
     638:	146c0400 	strbtne	r0, [ip], #-1024	; 0xfffffc00
     63c:	000000d1 	ldrdeq	r0, [r0], -r1
     640:	09002302 	stmdbeq	r0, {r1, r8, r9, sp}
     644:	00485243 	subeq	r5, r8, r3, asr #4
     648:	d1146d04 	tstle	r4, r4, lsl #26
     64c:	02000000 	andeq	r0, r0, #0
     650:	49090423 	stmdbmi	r9, {r0, r1, r5, sl}
     654:	04005244 	streq	r5, [r0], #-580	; 0xfffffdbc
     658:	00d1146e 	sbcseq	r1, r1, lr, ror #8
     65c:	23020000 	movwcs	r0, #8192	; 0x2000
     660:	444f0908 	strbmi	r0, [pc], #-2312	; 668 <_Min_Stack_Size+0x268>
     664:	6f040052 	svcvs	0x00040052
     668:	0000d114 	andeq	sp, r0, r4, lsl r1
     66c:	0c230200 	sfmeq	f0, 4, [r3], #-0
     670:	0087930a 	addeq	r9, r7, sl, lsl #6
     674:	14700400 	ldrbtne	r0, [r0], #-1024	; 0xfffffc00
     678:	000000d1 	ldrdeq	r0, [r0], -r1
     67c:	09102302 	ldmdbeq	r0, {r1, r8, r9, sp}
     680:	00525242 	subseq	r5, r2, r2, asr #4
     684:	d1147104 	tstle	r4, r4, lsl #2
     688:	02000000 	andeq	r0, r0, #0
     68c:	9f0a1423 	svcls	0x000a1423
     690:	04000047 	streq	r0, [r0], #-71	; 0xffffffb9
     694:	00d11472 	sbcseq	r1, r1, r2, ror r4
     698:	23020000 	movwcs	r0, #8192	; 0x2000
     69c:	10040018 	andne	r0, r4, r8, lsl r0
     6a0:	0400005b 	streq	r0, [r0], #-91	; 0xffffffa5
     6a4:	00d60273 	sbcseq	r0, r6, r3, ror r2
     6a8:	20080000 	andcs	r0, r8, r0
     6ac:	aa097604 	bge	25dec4 <_Min_Stack_Size+0x25dac4>
     6b0:	0a000001 	beq	6bc <_Min_Stack_Size+0x2bc>
     6b4:	00009e1b 	andeq	r9, r0, fp, lsl lr
     6b8:	d1147804 	tstle	r4, r4, lsl #16
     6bc:	02000000 	andeq	r0, r0, #0
     6c0:	850a0023 	strhi	r0, [sl, #-35]	; 0xffffffdd
     6c4:	0400009d 	streq	r0, [r0], #-157	; 0xffffff63
     6c8:	00d11479 	sbcseq	r1, r1, r9, ror r4
     6cc:	23020000 	movwcs	r0, #8192	; 0x2000
     6d0:	9c320a04 			; <UNDEFINED> instruction: 0x9c320a04
     6d4:	7a040000 	bvc	1006dc <_Min_Stack_Size+0x1002dc>
     6d8:	0001ba14 	andeq	fp, r1, r4, lsl sl
     6dc:	08230200 	stmdaeq	r3!, {r9}
     6e0:	009e350a 	addseq	r3, lr, sl, lsl #10
     6e4:	0d7b0400 	cfldrdeq	mvd0, [fp, #-0]
     6e8:	000000c5 	andeq	r0, r0, r5, asr #1
     6ec:	0a182302 	beq	6092fc <_Min_Stack_Size+0x608efc>
     6f0:	00009c9a 	muleq	r0, sl, ip
     6f4:	d1147c04 	tstle	r4, r4, lsl #24
     6f8:	02000000 	andeq	r0, r0, #0
     6fc:	0b001c23 	bleq	7790 <_Min_Stack_Size+0x7390>
     700:	000000d1 	ldrdeq	r0, [r0], -r1
     704:	000001ba 			; <UNDEFINED> instruction: 0x000001ba
     708:	00002d0c 	andeq	r2, r0, ip, lsl #26
     70c:	07000300 	streq	r0, [r0, -r0, lsl #6]
     710:	000001aa 	andeq	r0, r0, sl, lsr #3
     714:	009dba04 	addseq	fp, sp, r4, lsl #20
     718:	027d0400 	rsbseq	r0, sp, #0, 8
     71c:	00000155 	andeq	r0, r0, r5, asr r1
     720:	92041808 	andls	r1, r4, #8, 16	; 0x80000
     724:	00022e09 	andeq	r2, r2, r9, lsl #28
     728:	4d490900 	vstrmi.16	s1, [r9, #-0]	; <UNPREDICTABLE>
     72c:	94040052 	strls	r0, [r4], #-82	; 0xffffffae
     730:	0000d114 	andeq	sp, r0, r4, lsl r1
     734:	00230200 	eoreq	r0, r3, r0, lsl #4
     738:	524d4509 	subpl	r4, sp, #37748736	; 0x2400000
     73c:	14950400 	ldrne	r0, [r5], #1024	; 0x400
     740:	000000d1 	ldrdeq	r0, [r0], -r1
     744:	0a042302 	beq	109354 <_Min_Stack_Size+0x108f54>
     748:	00009c54 	andeq	r9, r0, r4, asr ip
     74c:	d1149604 	tstle	r4, r4, lsl #12
     750:	02000000 	andeq	r0, r0, #0
     754:	390a0823 	stmdbcc	sl, {r0, r1, r5, fp}
     758:	0400009c 	streq	r0, [r0], #-156	; 0xffffff64
     75c:	00d11497 	smullseq	r1, r1, r7, r4	; <UNPREDICTABLE>
     760:	23020000 	movwcs	r0, #8192	; 0x2000
     764:	9d7f0a0c 	vldmdbls	pc!, {s1-s12}
     768:	98040000 	stmdals	r4, {}	; <UNPREDICTABLE>
     76c:	0000d114 	andeq	sp, r0, r4, lsl r1
     770:	10230200 	eorne	r0, r3, r0, lsl #4
     774:	00525009 	subseq	r5, r2, r9
     778:	d1149904 	tstle	r4, r4, lsl #18
     77c:	02000000 	andeq	r0, r0, #0
     780:	04001423 	streq	r1, [r0], #-1059	; 0xfffffbdd
     784:	00009d66 	andeq	r9, r0, r6, ror #26
     788:	cb029a04 	blgt	a6fa0 <_Min_Stack_Size+0xa6ba0>
     78c:	08000001 	stmdaeq	r0, {r0}
     790:	091f0504 	ldmdbeq	pc, {r2, r8, sl}	; <UNPREDICTABLE>
     794:	00000271 	andeq	r0, r0, r1, ror r2
     798:	009dd80a 	addseq	sp, sp, sl, lsl #16
     79c:	0c200500 	cfstr32eq	mvfx0, [r0], #-0
     7a0:	000000b9 	strheq	r0, [r0], -r9
     7a4:	0a002302 	beq	93b4 <_Min_Stack_Size+0x8fb4>
     7a8:	00009c59 	andeq	r9, r0, r9, asr ip
     7ac:	ad0c2205 	sfmge	f2, 4, [ip, #-20]	; 0xffffffec
     7b0:	02000000 	andeq	r0, r0, #0
     7b4:	b60a0223 	strlt	r0, [sl], -r3, lsr #4
     7b8:	0500009c 	streq	r0, [r0, #-156]	; 0xffffff64
     7bc:	00ad0c23 	adceq	r0, sp, r3, lsr #24
     7c0:	23020000 	movwcs	r0, #8192	; 0x2000
     7c4:	89040003 	stmdbhi	r4, {r0, r1}
     7c8:	0500009c 	streq	r0, [r0, #-156]	; 0xffffff64
     7cc:	023a0225 	eorseq	r0, sl, #1342177282	; 0x50000002
     7d0:	0c080000 	stceq	0, cr0, [r8], {-0}
     7d4:	c3091206 	movwgt	r1, #37382	; 0x9206
     7d8:	0a000002 	beq	7e8 <_Min_Stack_Size+0x3e8>
     7dc:	00005400 	andeq	r5, r0, r0, lsl #8
     7e0:	b91e1306 	ldmdblt	lr, {r1, r2, r8, r9, ip}
     7e4:	02000000 	andeq	r0, r0, #0
     7e8:	e20a0023 	and	r0, sl, #35	; 0x23
     7ec:	0600006f 	streq	r0, [r0], -pc, rrx
     7f0:	02c31e14 	sbceq	r1, r3, #20, 28	; 0x140
     7f4:	23020000 	movwcs	r0, #8192	; 0x2000
     7f8:	70ed0a04 	rscvc	r0, sp, r4, lsl #20
     7fc:	15060000 	strne	r0, [r6, #-0]
     800:	0000b91e 	andeq	fp, r0, lr, lsl r9
     804:	08230200 	stmdaeq	r3!, {r9}
     808:	0095990a 	addseq	r9, r5, sl, lsl #18
     80c:	1e160600 	cfmsub32ne	mvax0, mvfx0, mvfx6, mvfx0
     810:	000000ad 	andeq	r0, r0, sp, lsr #1
     814:	000a2302 	andeq	r2, sl, r2, lsl #6
     818:	01490405 	cmpeq	r9, r5, lsl #8
     81c:	e0040000 	and	r0, r4, r0
     820:	0600001a 			; <UNDEFINED> instruction: 0x0600001a
     824:	027d0217 	rsbseq	r0, sp, #1879048193	; 0x70000001
     828:	14080000 	strne	r0, [r8], #-0
     82c:	1b091a06 	blne	24704c <_Min_Stack_Size+0x246c4c>
     830:	0a000003 	beq	844 <_Min_Stack_Size+0x444>
     834:	00005606 	andeq	r5, r0, r6, lsl #12
     838:	c9191b06 	ldmdbgt	r9, {r1, r2, r8, r9, fp, ip}
     83c:	02000002 	andeq	r0, r0, #2
     840:	8f0a0023 	svchi	0x000a0023
     844:	0600008d 	streq	r0, [r0], -sp, lsl #1
     848:	00ad0b1e 	adceq	r0, sp, lr, lsl fp
     84c:	23020000 	movwcs	r0, #8192	; 0x2000
     850:	77a10a0c 	strvc	r0, [r1, ip, lsl #20]!
     854:	21060000 	mrscs	r0, (UNDEF: 6)
     858:	0000ad0b 	andeq	sl, r0, fp, lsl #26
     85c:	0d230200 	sfmeq	f0, 4, [r3, #-0]
     860:	009d570a 	addseq	r5, sp, sl, lsl #14
     864:	08240600 	stmdaeq	r4!, {r9, sl}
     868:	0000009e 	muleq	r0, lr, r0
     86c:	00102302 	andseq	r2, r0, r2, lsl #6
     870:	002f4004 	eoreq	r4, pc, r4
     874:	02250600 	eoreq	r0, r5, #0, 12
     878:	000002d5 	ldrdeq	r0, [r0], -r5
     87c:	00009e0b 	andeq	r9, r0, fp, lsl #28
     880:	00033700 	andeq	r3, r3, r0, lsl #14
     884:	002d0c00 	eoreq	r0, sp, r0, lsl #24
     888:	000e0000 	andeq	r0, lr, r0
     88c:	009d560d 	addseq	r5, sp, sp, lsl #12
     890:	090d0100 	stmdbeq	sp, {r8}
     894:	00000327 	andeq	r0, r0, r7, lsr #6
     898:	40030501 	andmi	r0, r3, r1, lsl #10
     89c:	0e200000 	cdpeq	0, 2, cr0, cr0, cr0, {0}
     8a0:	009c2301 	addseq	r2, ip, r1, lsl #6
     8a4:	066c0500 	strbteq	r0, [ip], -r0, lsl #10
     8a8:	03640101 	cmneq	r4, #1073741824	; 0x40000000
     8ac:	c30f0000 	movwgt	r0, #61440	; 0xf000
     8b0:	0f000002 	svceq	0x00000002
     8b4:	00000364 	andeq	r0, r0, r4, ror #6
     8b8:	71040500 	tstvc	r4, r0, lsl #10
     8bc:	10000002 	andne	r0, r0, r2
     8c0:	009e2001 	addseq	r2, lr, r1
     8c4:	01020100 	mrseq	r0, (UNDEF: 18)
     8c8:	08f00106 	ldmeq	r0!, {r1, r2, r8}^
     8cc:	09b40800 	ldmibeq	r4!, {fp}
     8d0:	02580800 	subseq	r0, r8, #0, 16
     8d4:	11010000 	mrsne	r0, (UNDEF: 1)
     8d8:	009da701 	addseq	sl, sp, r1, lsl #14
     8dc:	06fa0100 	ldrbteq	r0, [sl], r0, lsl #2
     8e0:	00084801 	andeq	r4, r8, r1, lsl #16
     8e4:	0008f008 	andeq	pc, r8, r8
     8e8:	00028408 	andeq	r8, r2, r8, lsl #8
     8ec:	01110100 	tsteq	r1, r0, lsl #2
     8f0:	00009c63 	andeq	r9, r0, r3, ror #24
     8f4:	0106f401 	tsteq	r6, r1, lsl #8	; <UNPREDICTABLE>
     8f8:	08000824 	stmdaeq	r0, {r2, r5, fp}
     8fc:	08000848 	stmdaeq	r0, {r3, r6, fp}
     900:	000002b0 			; <UNDEFINED> instruction: 0x000002b0
     904:	e7011101 	str	r1, [r1, -r1, lsl #2]
     908:	0100009d 	swpeq	r0, sp, [r0]	; <UNPREDICTABLE>
     90c:	000106ef 	andeq	r0, r1, pc, ror #13
     910:	24080008 	strcs	r0, [r8], #-8
     914:	dc080008 	stcle	0, cr0, [r8], {8}
     918:	01000002 	tsteq	r0, r2
     91c:	9d8a0111 	stflss	f0, [sl, #68]	; 0x44
     920:	ea010000 	b	40928 <_Min_Stack_Size+0x40528>
     924:	07dc0106 	ldrbeq	r0, [ip, r6, lsl #2]
     928:	08000800 	stmdaeq	r0, {fp}
     92c:	03080800 	movweq	r0, #34816	; 0x8800
     930:	11010000 	mrsne	r0, (UNDEF: 1)
     934:	009e4b01 	addseq	r4, lr, r1, lsl #22
     938:	06e50100 	strbteq	r0, [r5], r0, lsl #2
     93c:	0007b801 	andeq	fp, r7, r1, lsl #16
     940:	0007dc08 	andeq	sp, r7, r8, lsl #24
     944:	00033408 	andeq	r3, r3, r8, lsl #8
     948:	01110100 	tsteq	r1, r0, lsl #2
     94c:	00009e0a 	andeq	r9, r0, sl, lsl #28
     950:	0106e001 	tsteq	r6, r1
     954:	08000794 	stmdaeq	r0, {r2, r4, r7, r8, r9, sl}
     958:	080007b8 	stmdaeq	r0, {r3, r4, r5, r7, r8, r9, sl}
     95c:	00000360 	andeq	r0, r0, r0, ror #6
     960:	e8011201 	stmda	r1, {r0, r9, ip}
     964:	01000059 	qaddeq	r0, r9, r0
     968:	7c0106d8 	stcvc	6, cr0, [r1], {216}	; 0xd8
     96c:	92080007 	andls	r0, r8, #7
     970:	8c080007 	stchi	0, cr0, [r8], {7}
     974:	01000003 	tsteq	r0, r3
     978:	00000437 	andeq	r0, r0, r7, lsr r4
     97c:	009dc913 	addseq	ip, sp, r3, lsl r9
     980:	2dd80100 	ldfcse	f0, [r8]
     984:	00000437 	andeq	r0, r0, r7, lsr r4
     988:	00749102 	rsbseq	r9, r4, r2, lsl #2
     98c:	031b0405 	tsteq	fp, #83886080	; 0x5000000
     990:	01120000 	tsteq	r2, r0
     994:	00009c3e 	andeq	r9, r0, lr, lsr ip
     998:	0106c901 	tsteq	r6, r1, lsl #18
	...
     9a4:	000003dc 	ldrdeq	r0, [r0], -ip
     9a8:	00046801 	andeq	r6, r4, r1, lsl #16
     9ac:	9dc91300 	stclls	3, cr1, [r9]
     9b0:	c9010000 	stmdbgt	r1, {}	; <UNPREDICTABLE>
     9b4:	0004372f 	andeq	r3, r4, pc, lsr #14
     9b8:	74910200 	ldrvc	r0, [r1], #512	; 0x200
     9bc:	a0011400 	andge	r1, r1, r0, lsl #8
     9c0:	0100009c 	swpeq	r0, ip, [r0]	; <UNPREDICTABLE>
     9c4:	000106a7 	andeq	r0, r1, r7, lsr #13
     9c8:	00000000 	andeq	r0, r0, r0
     9cc:	2c000000 	stccs	0, cr0, [r0], {-0}
     9d0:	01000004 	tsteq	r0, r4
     9d4:	9d9b0112 	ldflss	f0, [fp, #72]	; 0x48
     9d8:	65010000 	strvs	r0, [r1, #-0]
     9dc:	05ac0106 	streq	r0, [ip, #262]!	; 0x106
     9e0:	077c0800 	ldrbeq	r0, [ip, -r0, lsl #16]!
     9e4:	04700800 	ldrbteq	r0, [r0], #-2048	; 0xfffff800
     9e8:	d7010000 	strle	r0, [r1, -r0]
     9ec:	13000004 	movwne	r0, #4
     9f0:	00009dc9 	andeq	r9, r0, r9, asr #27
     9f4:	37256501 	strcc	r6, [r5, -r1, lsl #10]!
     9f8:	02000004 	andeq	r0, r0, #4
     9fc:	75156c91 	ldrvc	r6, [r5, #-3217]	; 0xfffff36f
     a00:	0100009d 	swpeq	r0, sp, [r0]	; <UNPREDICTABLE>
     a04:	02711367 	rsbseq	r1, r1, #-1677721599	; 0x9c000001
     a08:	91020000 	mrsls	r0, (UNDEF: 2)
     a0c:	9df81570 	cfldr64ls	mvdx1, [r8, #448]!	; 0x1c0
     a10:	71010000 	mrsvc	r0, (UNDEF: 1)
     a14:	0000ad0a 	andeq	sl, r0, sl, lsl #26
     a18:	77910200 	ldrvc	r0, [r1, r0, lsl #4]
     a1c:	009c7415 	addseq	r7, ip, r5, lsl r4
     a20:	0a730100 	beq	1cc0e28 <_Min_Stack_Size+0x1cc0a28>
     a24:	000000ad 	andeq	r0, r0, sp, lsr #1
     a28:	00769102 	rsbseq	r9, r6, r2, lsl #2
     a2c:	9e3e0116 	mrcls	1, 1, r0, cr14, cr6, {0}
     a30:	35010000 	strcc	r0, [r1, #-0]
     a34:	04e40106 	strbteq	r0, [r4], #262	; 0x106
     a38:	05ac0800 	streq	r0, [ip, #2048]!	; 0x800
     a3c:	04c00800 	strbeq	r0, [r0], #2048	; 0x800
     a40:	02010000 	andeq	r0, r1, #0
     a44:	13000005 	movwne	r0, #5
     a48:	00009cfc 	strdeq	r9, [r0], -ip
     a4c:	b91c3501 	ldmdblt	ip, {r0, r8, sl, ip, sp}
     a50:	02000000 	andeq	r0, r0, #0
     a54:	17007691 			; <UNDEFINED> instruction: 0x17007691
     a58:	009e5c01 	addseq	r5, lr, r1, lsl #24
     a5c:	06110100 	ldreq	r0, [r1], -r0, lsl #2
     a60:	00041c01 	andeq	r1, r4, r1, lsl #24
     a64:	0004e408 	andeq	lr, r4, r8, lsl #8
     a68:	00051c08 	andeq	r1, r5, r8, lsl #24
     a6c:	fc130100 	ldc2	1, cr0, [r3], {-0}
     a70:	0100009c 	swpeq	r0, ip, [r0]	; <UNPREDICTABLE>
     a74:	00b91b11 	adcseq	r1, r9, r1, lsl fp
     a78:	91020000 	mrsls	r0, (UNDEF: 2)
     a7c:	d6000076 			; <UNDEFINED> instruction: 0xd6000076
     a80:	02000005 	andeq	r0, r0, #5
     a84:	00035200 	andeq	r5, r3, r0, lsl #4
     a88:	8f010400 	svchi	0x00010400
     a8c:	0c00002c 	stceq	0, cr0, [r0], {44}	; 0x2c
     a90:	00009eba 			; <UNDEFINED> instruction: 0x00009eba
     a94:	0000371b 	andeq	r3, r0, fp, lsl r7
     a98:	000000e0 	andeq	r0, r0, r0, ror #1
	...
     aa4:	0000140e 	andeq	r1, r0, lr, lsl #8
     aa8:	000021c2 	andeq	r2, r0, r2, asr #3
     aac:	0f070402 	svceq	0x00070402
     ab0:	03000023 	movweq	r0, #35	; 0x23
     ab4:	6e690504 	cdpvs	5, 6, cr0, cr9, cr4, {0}
     ab8:	08020074 	stmdaeq	r2, {r2, r4, r5, r6}
     abc:	0055d605 	subseq	sp, r5, r5, lsl #12
     ac0:	04080200 	streq	r0, [r8], #-512	; 0xfffffe00
     ac4:	000002f7 	strdeq	r0, [r0], -r7
     ac8:	03060102 	movweq	r0, #24834	; 0x6102
     acc:	04000007 	streq	r0, [r0], #-7
     ad0:	000013e8 	andeq	r1, r0, r8, ror #7
     ad4:	5c182b02 			; <UNDEFINED> instruction: 0x5c182b02
     ad8:	02000000 	andeq	r0, r0, #0
     adc:	34250801 	strtcc	r0, [r5], #-2049	; 0xfffff7ff
     ae0:	02020000 	andeq	r0, r2, #0
     ae4:	0009fb05 	andeq	pc, r9, r5, lsl #22
     ae8:	2d850400 	cfstrscs	mvf0, [r5]
     aec:	39020000 	stmdbcc	r2, {}	; <UNPREDICTABLE>
     af0:	00007619 	andeq	r7, r0, r9, lsl r6
     af4:	07020200 	streq	r0, [r2, -r0, lsl #4]
     af8:	00006f86 	andeq	r6, r0, r6, lsl #31
     afc:	48050402 	stmdami	r5, {r1, sl}
     b00:	04000073 	streq	r0, [r0], #-115	; 0xffffff8d
     b04:	00004245 	andeq	r4, r0, r5, asr #4
     b08:	90194f02 	andsls	r4, r9, r2, lsl #30
     b0c:	02000000 	andeq	r0, r0, #0
     b10:	1c6c0704 	stclne	7, cr0, [ip], #-16
     b14:	08020000 	stmdaeq	r2, {}	; <UNPREDICTABLE>
     b18:	003e6c07 	eorseq	r6, lr, r7, lsl #24
     b1c:	a4040500 	strge	r0, [r4], #-1280	; 0xfffffb00
     b20:	06000000 	streq	r0, [r0], -r0
     b24:	08010201 	stmdaeq	r1, {r0, r9}
     b28:	0000070a 	andeq	r0, r0, sl, lsl #14
     b2c:	0013ea04 	andseq	lr, r3, r4, lsl #20
     b30:	13180300 	tstne	r8, #0, 6
     b34:	00000050 	andeq	r0, r0, r0, asr r0
     b38:	002d8704 	eoreq	r8, sp, r4, lsl #14
     b3c:	14240300 	strtne	r0, [r4], #-768	; 0xfffffd00
     b40:	0000006a 	andeq	r0, r0, sl, rrx
     b44:	00424704 	subeq	r4, r2, r4, lsl #14
     b48:	14300300 	ldrtne	r0, [r0], #-768	; 0xfffffd00
     b4c:	00000084 	andeq	r0, r0, r4, lsl #1
     b50:	0000c507 	andeq	ip, r0, r7, lsl #10
     b54:	041c0800 	ldreq	r0, [ip], #-2048	; 0xfffff800
     b58:	0149096a 	cmpeq	r9, sl, ror #18
     b5c:	43090000 	movwmi	r0, #36864	; 0x9000
     b60:	04004c52 	streq	r4, [r0], #-3154	; 0xfffff3ae
     b64:	00d1146c 	sbcseq	r1, r1, ip, ror #8
     b68:	23020000 	movwcs	r0, #8192	; 0x2000
     b6c:	52430900 	subpl	r0, r3, #0, 18
     b70:	6d040048 	stcvs	0, cr0, [r4, #-288]	; 0xfffffee0
     b74:	0000d114 	andeq	sp, r0, r4, lsl r1
     b78:	04230200 	strteq	r0, [r3], #-512	; 0xfffffe00
     b7c:	52444909 	subpl	r4, r4, #147456	; 0x24000
     b80:	146e0400 	strbtne	r0, [lr], #-1024	; 0xfffffc00
     b84:	000000d1 	ldrdeq	r0, [r0], -r1
     b88:	09082302 	stmdbeq	r8, {r1, r8, r9, sp}
     b8c:	0052444f 	subseq	r4, r2, pc, asr #8
     b90:	d1146f04 	tstle	r4, r4, lsl #30
     b94:	02000000 	andeq	r0, r0, #0
     b98:	930a0c23 	movwls	r0, #44067	; 0xac23
     b9c:	04000087 	streq	r0, [r0], #-135	; 0xffffff79
     ba0:	00d11470 	sbcseq	r1, r1, r0, ror r4
     ba4:	23020000 	movwcs	r0, #8192	; 0x2000
     ba8:	52420910 	subpl	r0, r2, #16, 18	; 0x40000
     bac:	71040052 	qaddvc	r0, r2, r4
     bb0:	0000d114 	andeq	sp, r0, r4, lsl r1
     bb4:	14230200 	strtne	r0, [r3], #-512	; 0xfffffe00
     bb8:	00479f0a 	subeq	r9, r7, sl, lsl #30
     bbc:	14720400 	ldrbtne	r0, [r2], #-1024	; 0xfffffc00
     bc0:	000000d1 	ldrdeq	r0, [r0], -r1
     bc4:	00182302 	andseq	r2, r8, r2, lsl #6
     bc8:	005b1004 	subseq	r1, fp, r4
     bcc:	02730400 	rsbseq	r0, r3, #0, 8
     bd0:	000000d6 	ldrdeq	r0, [r0], -r6
     bd4:	81043008 	tsthi	r4, r8
     bd8:	00021209 	andeq	r1, r2, r9, lsl #4
     bdc:	52430900 	subpl	r0, r3, #0, 18
     be0:	14830400 	strne	r0, [r3], #1024	; 0x400
     be4:	000000d1 	ldrdeq	r0, [r0], -r1
     be8:	0a002302 	beq	97f8 <_Min_Stack_Size+0x93f8>
     bec:	00003afb 	strdeq	r3, [r0], -fp
     bf0:	d1148404 	tstle	r4, r4, lsl #8
     bf4:	02000000 	andeq	r0, r0, #0
     bf8:	43090423 	movwmi	r0, #37923	; 0x9423
     bfc:	04005249 	streq	r5, [r0], #-585	; 0xfffffdb7
     c00:	00d11485 	sbcseq	r1, r1, r5, lsl #9
     c04:	23020000 	movwcs	r0, #8192	; 0x2000
     c08:	55540a08 	ldrbpl	r0, [r4, #-2568]	; 0xfffff5f8
     c0c:	86040000 	strhi	r0, [r4], -r0
     c10:	0000d114 	andeq	sp, r0, r4, lsl r1
     c14:	0c230200 	sfmeq	f0, 4, [r3], #-0
     c18:	006a480a 	rsbeq	r4, sl, sl, lsl #16
     c1c:	14870400 	strne	r0, [r7], #1024	; 0x400
     c20:	000000d1 	ldrdeq	r0, [r0], -r1
     c24:	0a102302 	beq	409834 <_Min_Stack_Size+0x409434>
     c28:	00008579 	andeq	r8, r0, r9, ror r5
     c2c:	d1148804 	tstle	r4, r4, lsl #16
     c30:	02000000 	andeq	r0, r0, #0
     c34:	630a1423 	movwvs	r1, #42019	; 0xa423
     c38:	0400001d 	streq	r0, [r0], #-29	; 0xffffffe3
     c3c:	00d11489 	sbcseq	r1, r1, r9, lsl #9
     c40:	23020000 	movwcs	r0, #8192	; 0x2000
     c44:	6abb0a18 	bvs	feec34ac <_estack+0xdeec0cac>
     c48:	8a040000 	bhi	100c50 <_Min_Stack_Size+0x100850>
     c4c:	0000d114 	andeq	sp, r0, r4, lsl r1
     c50:	1c230200 	sfmne	f0, 4, [r3], #-0
     c54:	00355e0a 	eorseq	r5, r5, sl, lsl #28
     c58:	148b0400 	strne	r0, [fp], #1024	; 0x400
     c5c:	000000d1 	ldrdeq	r0, [r0], -r1
     c60:	09202302 	stmdbeq	r0!, {r1, r8, r9, sp}
     c64:	00525343 	subseq	r5, r2, r3, asr #6
     c68:	d1148c04 	tstle	r4, r4, lsl #24
     c6c:	02000000 	andeq	r0, r0, #0
     c70:	e80a2423 	stmda	sl, {r0, r1, r5, sl, sp}
     c74:	04000029 	streq	r0, [r0], #-41	; 0xffffffd7
     c78:	00d1148d 	sbcseq	r1, r1, sp, lsl #9
     c7c:	23020000 	movwcs	r0, #8192	; 0x2000
     c80:	5c6c0a28 			; <UNDEFINED> instruction: 0x5c6c0a28
     c84:	8e040000 	cdphi	0, 0, cr0, cr4, cr0, {0}
     c88:	0000d114 	andeq	sp, r0, r4, lsl r1
     c8c:	2c230200 	sfmcs	f0, 4, [r3], #-0
     c90:	8e2f0400 	cdphi	4, 2, cr0, cr15, cr0, {0}
     c94:	8f040000 	svchi	0x00040000
     c98:	00015502 	andeq	r5, r1, r2, lsl #10
     c9c:	041c0800 	ldreq	r0, [ip], #-2048	; 0xfffff800
     ca0:	029109d6 	addseq	r0, r1, #3506176	; 0x358000
     ca4:	000a0000 	andeq	r0, sl, r0
     ca8:	040000a0 	streq	r0, [r0], #-160	; 0xffffff60
     cac:	00d114d7 	ldrsbeq	r1, [r1], #71	; 0x47
     cb0:	23020000 	movwcs	r0, #8192	; 0x2000
     cb4:	9f030a00 	svcls	0x00030a00
     cb8:	d8040000 	stmdale	r4, {}	; <UNPREDICTABLE>
     cbc:	0000d114 	andeq	sp, r0, r4, lsl r1
     cc0:	04230200 	strteq	r0, [r3], #-512	; 0xfffffe00
     cc4:	009f6c0a 	addseq	r6, pc, sl, lsl #24
     cc8:	14d90400 	ldrbne	r0, [r9], #1024	; 0x400
     ccc:	000000d1 	ldrdeq	r0, [r0], -r1
     cd0:	0a082302 	beq	2098e0 <_Min_Stack_Size+0x2094e0>
     cd4:	00009fd0 	ldrdeq	r9, [r0], -r0
     cd8:	d114da04 	tstle	r4, r4, lsl #20
     cdc:	02000000 	andeq	r0, r0, #0
     ce0:	da0a0c23 	ble	283d74 <_Min_Stack_Size+0x283974>
     ce4:	0400009f 	streq	r0, [r0], #-159	; 0xffffff61
     ce8:	00d114db 	ldrsbeq	r1, [r1], #75	; 0x4b
     cec:	23020000 	movwcs	r0, #8192	; 0x2000
     cf0:	9fe40a10 	svcls	0x00e40a10
     cf4:	dc040000 	stcle	0, cr0, [r4], {-0}
     cf8:	0000d114 	andeq	sp, r0, r4, lsl r1
     cfc:	14230200 	strtne	r0, [r3], #-512	; 0xfffffe00
     d00:	009ef80a 	addseq	pc, lr, sl, lsl #16
     d04:	14dd0400 	ldrbne	r0, [sp], #1024	; 0x400
     d08:	000000d1 	ldrdeq	r0, [r0], -r1
     d0c:	00182302 	andseq	r2, r8, r2, lsl #6
     d10:	009fb904 	addseq	fp, pc, r4, lsl #18
     d14:	02df0400 	sbcseq	r0, pc, #0, 8
     d18:	0000021e 	andeq	r0, r0, lr, lsl r2
     d1c:	1f050408 	svcne	0x00050408
     d20:	0002d409 	andeq	sp, r2, r9, lsl #8
     d24:	9dd80a00 	vldrls	s1, [r8]
     d28:	20050000 	andcs	r0, r5, r0
     d2c:	0000b90c 	andeq	fp, r0, ip, lsl #18
     d30:	00230200 	eoreq	r0, r3, r0, lsl #4
     d34:	009c590a 	addseq	r5, ip, sl, lsl #18
     d38:	0c220500 	cfstr32eq	mvfx0, [r2], #-0
     d3c:	000000ad 	andeq	r0, r0, sp, lsr #1
     d40:	0a022302 	beq	89950 <_Min_Stack_Size+0x89550>
     d44:	00009cb6 			; <UNDEFINED> instruction: 0x00009cb6
     d48:	ad0c2305 	stcge	3, cr2, [ip, #-20]	; 0xffffffec
     d4c:	02000000 	andeq	r0, r0, #0
     d50:	04000323 	streq	r0, [r0], #-803	; 0xfffffcdd
     d54:	00009c89 	andeq	r9, r0, r9, lsl #25
     d58:	9d022505 	cfstr32ls	mvfx2, [r2, #-20]	; 0xffffffec
     d5c:	08000002 	stmdaeq	r0, {r1}
     d60:	09120614 	ldmdbeq	r2, {r2, r4, r9, sl}
     d64:	00000362 	andeq	r0, r0, r2, ror #6
     d68:	009ffb0a 	addseq	pc, pc, sl, lsl #22
     d6c:	0b130600 	bleq	4c2574 <_Min_Stack_Size+0x4c2174>
     d70:	000000ad 	andeq	r0, r0, sp, lsr #1
     d74:	0a002302 	beq	9984 <_Min_Stack_Size+0x9584>
     d78:	00009eef 	andeq	r9, r0, pc, ror #29
     d7c:	c50b1506 	strgt	r1, [fp, #-1286]	; 0xfffffafa
     d80:	02000000 	andeq	r0, r0, #0
     d84:	090a0423 	stmdbeq	sl, {r0, r1, r5, sl}
     d88:	060000a0 	streq	r0, [r0], -r0, lsr #1
     d8c:	00ad0b16 	adceq	r0, sp, r6, lsl fp
     d90:	23020000 	movwcs	r0, #8192	; 0x2000
     d94:	9fc70a08 	svcls	0x00c70a08
     d98:	17060000 	strne	r0, [r6, -r0]
     d9c:	0000ad0b 	andeq	sl, r0, fp, lsl #26
     da0:	09230200 	stmdbeq	r3!, {r9}
     da4:	009f480a 	addseq	r4, pc, sl, lsl #16
     da8:	0b180600 	bleq	6025b0 <_Min_Stack_Size+0x6021b0>
     dac:	000000ad 	andeq	r0, r0, sp, lsr #1
     db0:	0a0a2302 	beq	2899c0 <_Min_Stack_Size+0x2895c0>
     db4:	00009eb1 			; <UNDEFINED> instruction: 0x00009eb1
     db8:	ad0b1906 	vstrge.16	s2, [fp, #-12]	; <UNPREDICTABLE>
     dbc:	02000000 	andeq	r0, r0, #0
     dc0:	680a0b23 	stmdavs	sl, {r0, r1, r5, r8, r9, fp}
     dc4:	0600009e 			; <UNDEFINED> instruction: 0x0600009e
     dc8:	00ad0b1a 	adceq	r0, sp, sl, lsl fp
     dcc:	23020000 	movwcs	r0, #8192	; 0x2000
     dd0:	a0180a0c 	andsge	r0, r8, ip, lsl #20
     dd4:	1c060000 	stcne	0, cr0, [r6], {-0}
     dd8:	00009e09 	andeq	r9, r0, r9, lsl #28
     ddc:	10230200 	eorne	r0, r3, r0, lsl #4
     de0:	9e9d0400 	cdpls	4, 9, cr0, cr13, cr0, {0}
     de4:	1d060000 	stcne	0, cr0, [r6, #-0]
     de8:	0002e002 	andeq	lr, r2, r2
     dec:	a0570b00 	subsge	r0, r7, r0, lsl #22
     df0:	01070000 	mrseq	r0, (UNDEF: 7)
     df4:	0000005c 	andeq	r0, r0, ip, asr r0
     df8:	8d065d06 	stchi	13, cr5, [r6, #-24]	; 0xffffffe8
     dfc:	0c000003 	stceq	0, cr0, [r0], {3}
     e00:	00009f37 	andeq	r9, r0, r7, lsr pc
     e04:	9fb10c00 	svcls	0x00b10c00
     e08:	00010000 	andeq	r0, r1, r0
     e0c:	009f620d 	addseq	r6, pc, sp, lsl #4
     e10:	11200100 			; <UNDEFINED> instruction: 0x11200100
     e14:	000003a0 	andeq	r0, r0, r0, lsr #7
     e18:	00030501 	andeq	r0, r3, r1, lsl #10
     e1c:	05000000 	streq	r0, [r0, #-0]
     e20:	00029104 	andeq	r9, r2, r4, lsl #2
     e24:	9f1e0d00 	svcls	0x001e0d00
     e28:	21010000 	mrscs	r0, (UNDEF: 1)
     e2c:	0003b910 	andeq	fp, r3, r0, lsl r9
     e30:	03050100 	movweq	r0, #20736	; 0x5100
     e34:	2000007c 	andcs	r0, r0, ip, ror r0
     e38:	03620405 	cmneq	r2, #83886080	; 0x5000000
     e3c:	010e0000 	mrseq	r0, (UNDEF: 14)
     e40:	00009c23 	andeq	r9, r0, r3, lsr #24
     e44:	01066c05 	tsteq	r6, r5, lsl #24
     e48:	0003d901 	andeq	sp, r3, r1, lsl #18
     e4c:	03d90f00 	bicseq	r0, r9, #0, 30
     e50:	df0f0000 	svcle	0x000f0000
     e54:	00000003 	andeq	r0, r0, r3
     e58:	01490405 	cmpeq	r9, r5, lsl #8
     e5c:	04050000 	streq	r0, [r5], #-0
     e60:	000002d4 	ldrdeq	r0, [r0], -r4
     e64:	9f9e0110 	svcls	0x009e0110
     e68:	18070000 	stmdane	r7, {}	; <UNPREDICTABLE>
     e6c:	0000c50a 	andeq	ip, r0, sl, lsl #10
     e70:	03f90100 	mvnseq	r0, #0, 2
     e74:	00110000 	andseq	r0, r1, r0
     e78:	9f4f0110 	svcls	0x004f0110
     e7c:	19070000 	stmdbne	r7, {}	; <UNPREDICTABLE>
     e80:	0000c50a 	andeq	ip, r0, sl, lsl #10
     e84:	040d0100 	streq	r0, [sp], #-256	; 0xffffff00
     e88:	00110000 	andseq	r0, r1, r0
     e8c:	9f0c0112 	svcls	0x000c0112
     e90:	6a010000 	bvs	40e98 <_Min_Stack_Size+0x40a98>
     e94:	dc010601 	stcle	6, cr0, [r1], {1}
     e98:	f0080009 			; <UNDEFINED> instruction: 0xf0080009
     e9c:	78080009 	stmdavc	r8, {r0, r3}
     ea0:	01000005 	tsteq	r0, r5
     ea4:	a0270112 	eorge	r0, r7, r2, lsl r1
     ea8:	65010000 	strvs	r0, [r1, #-0]
     eac:	c8010601 	stmdagt	r1, {r0, r9, sl}
     eb0:	dc080009 	stcle	0, cr0, [r8], {9}
     eb4:	a4080009 	strge	r0, [r8], #-9
     eb8:	01000005 	tsteq	r0, r5
     ebc:	9f760112 	svcls	0x00760112
     ec0:	5e010000 	cdppl	0, 0, cr0, cr1, cr0, {0}
     ec4:	b4010601 	strlt	r0, [r1], #-1537	; 0xfffff9ff
     ec8:	c8080009 	stmdagt	r8, {r0, r3}
     ecc:	d0080009 	andle	r0, r8, r9
     ed0:	01000005 	tsteq	r0, r5
     ed4:	9e8b0113 	mcrls	1, 4, r0, cr11, cr3, {0}
     ed8:	51010000 	mrspl	r0, (UNDEF: 1)
     edc:	00010601 	andeq	r0, r1, r1, lsl #12
     ee0:	00000000 	andeq	r0, r0, r0
     ee4:	fc000000 	stc2	0, cr0, [r0], {-0}
     ee8:	01000005 	tsteq	r0, r5
     eec:	00000482 	andeq	r0, r0, r2, lsl #9
     ef0:	009f6514 	addseq	r6, pc, r4, lsl r5	; <UNPREDICTABLE>
     ef4:	01510100 	cmpeq	r1, r0, lsl #2
     ef8:	0003a028 	andeq	sl, r3, r8, lsr #32
     efc:	74910200 	ldrvc	r0, [r1], #512	; 0x200
     f00:	ee011300 	cdp	3, 0, cr1, cr1, cr0, {0}
     f04:	0100009f 	swpeq	r0, pc, [r0]	; <UNPREDICTABLE>
     f08:	01060125 	tsteq	r6, r5, lsr #2
	...
     f14:	00000658 	andeq	r0, r0, r8, asr r6
     f18:	0004cf01 	andeq	ip, r4, r1, lsl #30
     f1c:	9f651400 	svcls	0x00651400
     f20:	25010000 	strcs	r0, [r1, #-0]
     f24:	03a02301 	moveq	r2, #67108864	; 0x4000000
     f28:	91020000 	mrsls	r0, (UNDEF: 2)
     f2c:	9f3e1474 	svcls	0x003e1474
     f30:	25010000 	strcs	r0, [r1, #-0]
     f34:	04cf3401 	strbeq	r3, [pc], #1025	; f3c <_Min_Stack_Size+0xb3c>
     f38:	91020000 	mrsls	r0, (UNDEF: 2)
     f3c:	9f2d1470 	svcls	0x002d1470
     f40:	25010000 	strcs	r0, [r1, #-0]
     f44:	036e5501 	cmneq	lr, #4194304	; 0x400000
     f48:	91020000 	mrsls	r0, (UNDEF: 2)
     f4c:	0405006f 	streq	r0, [r5], #-111	; 0xffffff91
     f50:	000000b9 	strheq	r0, [r0], -r9
     f54:	a04a0113 	subge	r0, sl, r3, lsl r1
     f58:	16010000 	strne	r0, [r1], -r0
     f5c:	00010601 	andeq	r0, r1, r1, lsl #12
     f60:	00000000 	andeq	r0, r0, r0
     f64:	b4000000 	strlt	r0, [r0], #-0
     f68:	01000006 	tsteq	r0, r6
     f6c:	0000052f 	andeq	r0, r0, pc, lsr #10
     f70:	009f6514 	addseq	r6, pc, r4, lsl r5	; <UNPREDICTABLE>
     f74:	01160100 	tsteq	r6, r0, lsl #2
     f78:	0003a023 	andeq	sl, r3, r3, lsr #32
     f7c:	74910200 	ldrvc	r0, [r1], #512	; 0x200
     f80:	009eac14 	addseq	sl, lr, r4, lsl ip
     f84:	01160100 	tsteq	r6, r0, lsl #2
     f88:	0004cf34 	andeq	ip, r4, r4, lsr pc
     f8c:	70910200 	addsvc	r0, r1, r0, lsl #4
     f90:	009f2d14 	addseq	r2, pc, r4, lsl sp	; <UNPREDICTABLE>
     f94:	01160100 	tsteq	r6, r0, lsl #2
     f98:	00036e50 	andeq	r6, r3, r0, asr lr
     f9c:	6f910200 	svcvs	0x00910200
     fa0:	009eab15 	addseq	sl, lr, r5, lsl fp
     fa4:	01180100 	tsteq	r8, r0, lsl #2
     fa8:	0004cf0c 	andeq	ip, r4, ip, lsl #30
     fac:	01160000 	tsteq	r6, r0
     fb0:	0000a039 	andeq	sl, r0, r9, lsr r0
     fb4:	0106f001 	tsteq	r6, r1	; <UNPREDICTABLE>
	...
     fc0:	00000710 	andeq	r0, r0, r0, lsl r7
     fc4:	00055a01 	andeq	r5, r5, r1, lsl #20
     fc8:	9f651700 	svcls	0x00651700
     fcc:	f0010000 			; <UNDEFINED> instruction: 0xf0010000
     fd0:	0003a027 	andeq	sl, r3, r7, lsr #32
     fd4:	74910200 	ldrvc	r0, [r1], #512	; 0x200
     fd8:	78011800 	stmdavc	r1, {fp, ip}
     fdc:	0100009e 	swpeq	r0, lr, [r0]	; <UNPREDICTABLE>
     fe0:	00010679 	andeq	r0, r1, r9, ror r6
     fe4:	00000000 	andeq	r0, r0, r0
     fe8:	6c000000 	stcvs	0, cr0, [r0], {-0}
     fec:	01000007 	tsteq	r0, r7
     ff0:	00000594 	muleq	r0, r4, r5
     ff4:	009f6517 	addseq	r6, pc, r7, lsl r5	; <UNPREDICTABLE>
     ff8:	29790100 	ldmdbcs	r9!, {r8}^
     ffc:	000003a0 	andeq	r0, r0, r0, lsr #7
    1000:	196c9102 	stmdbne	ip!, {r1, r8, ip, pc}^
    1004:	00009f97 	muleq	r0, r7, pc	; <UNPREDICTABLE>
    1008:	d4137b01 	ldrle	r7, [r3], #-2817	; 0xfffff4ff
    100c:	02000002 	andeq	r0, r0, #2
    1010:	1a007491 	bne	1e25c <_Min_Stack_Size+0x1de5c>
    1014:	009f8801 	addseq	r8, pc, r1, lsl #16
    1018:	06370100 	ldrteq	r0, [r7], -r0, lsl #2
    101c:	00000001 	andeq	r0, r0, r1
    1020:	00000000 	andeq	r0, r0, r0
    1024:	0007bc00 	andeq	fp, r7, r0, lsl #24
    1028:	65170100 	ldrvs	r0, [r7, #-256]	; 0xffffff00
    102c:	0100009f 	swpeq	r0, pc, [r0]	; <UNPREDICTABLE>
    1030:	03a02537 	moveq	r2, #230686720	; 0xdc00000
    1034:	91020000 	mrsls	r0, (UNDEF: 2)
    1038:	9f21176c 	svcls	0x0021176c
    103c:	37010000 	strcc	r0, [r1, -r0]
    1040:	0003b93b 	andeq	fp, r3, fp, lsr r9
    1044:	68910200 	ldmvs	r1, {r9}
    1048:	009e7319 	addseq	r7, lr, r9, lsl r3
    104c:	063a0100 	ldrteq	r0, [sl], -r0, lsl #2
    1050:	00000034 	andeq	r0, r0, r4, lsr r0
    1054:	00749102 	rsbseq	r9, r4, r2, lsl #2
    1058:	00046100 	andeq	r6, r4, r0, lsl #2
    105c:	09000200 	stmdbeq	r0, {r9}
    1060:	04000005 	streq	r0, [r0], #-5
    1064:	002c8f01 	eoreq	r8, ip, r1, lsl #30
    1068:	a0690c00 	rsbge	r0, r9, r0, lsl #24
    106c:	371b0000 	ldrcc	r0, [fp, -r0]
    1070:	01300000 	teqeq	r0, r0
	...
    107c:	1d540000 	ldclne	0, cr0, [r4, #-0]
    1080:	23280000 			; <UNDEFINED> instruction: 0x23280000
    1084:	04020000 	streq	r0, [r2], #-0
    1088:	00230f07 	eoreq	r0, r3, r7, lsl #30
    108c:	05040300 	streq	r0, [r4, #-768]	; 0xfffffd00
    1090:	00746e69 	rsbseq	r6, r4, r9, ror #28
    1094:	d6050802 	strle	r0, [r5], -r2, lsl #16
    1098:	02000055 	andeq	r0, r0, #85	; 0x55
    109c:	02f70408 	rscseq	r0, r7, #8, 8	; 0x8000000
    10a0:	01020000 	mrseq	r0, (UNDEF: 2)
    10a4:	00070306 	andeq	r0, r7, r6, lsl #6
    10a8:	13e80400 	mvnne	r0, #0, 8
    10ac:	2b020000 	blcs	810b4 <_Min_Stack_Size+0x80cb4>
    10b0:	00005c18 	andeq	r5, r0, r8, lsl ip
    10b4:	08010200 	stmdaeq	r1, {r9}
    10b8:	00003425 	andeq	r3, r0, r5, lsr #8
    10bc:	fb050202 	blx	1418ce <_Min_Stack_Size+0x1414ce>
    10c0:	04000009 	streq	r0, [r0], #-9
    10c4:	00002d85 	andeq	r2, r0, r5, lsl #27
    10c8:	76193902 	ldrvc	r3, [r9], -r2, lsl #18
    10cc:	02000000 	andeq	r0, r0, #0
    10d0:	6f860702 	svcvs	0x00860702
    10d4:	04020000 	streq	r0, [r2], #-0
    10d8:	00734805 	rsbseq	r4, r3, r5, lsl #16
    10dc:	42450400 	submi	r0, r5, #0, 8
    10e0:	4f020000 	svcmi	0x00020000
    10e4:	00009019 	andeq	r9, r0, r9, lsl r0
    10e8:	07040200 	streq	r0, [r4, -r0, lsl #4]
    10ec:	00001c6c 	andeq	r1, r0, ip, ror #24
    10f0:	6c070802 	stcvs	8, cr0, [r7], {2}
    10f4:	0200003e 	andeq	r0, r0, #62	; 0x3e
    10f8:	070a0801 	streq	r0, [sl, -r1, lsl #16]
    10fc:	ea040000 	b	101104 <_Min_Stack_Size+0x100d04>
    1100:	03000013 	movweq	r0, #19
    1104:	00501318 	subseq	r1, r0, r8, lsl r3
    1108:	87040000 	strhi	r0, [r4, -r0]
    110c:	0300002d 	movweq	r0, #45	; 0x2d
    1110:	006a1424 	rsbeq	r1, sl, r4, lsr #8
    1114:	47040000 	strmi	r0, [r4, -r0]
    1118:	03000042 	movweq	r0, #66	; 0x42
    111c:	00841430 	addeq	r1, r4, r0, lsr r4
    1120:	bd050000 	stclt	0, cr0, [r5, #-0]
    1124:	06000000 	streq	r0, [r0], -r0
    1128:	096a041c 	stmdbeq	sl!, {r2, r3, r4, sl}^
    112c:	00000141 	andeq	r0, r0, r1, asr #2
    1130:	4c524307 	mrrcmi	3, 0, r4, r2, cr7
    1134:	146c0400 	strbtne	r0, [ip], #-1024	; 0xfffffc00
    1138:	000000c9 	andeq	r0, r0, r9, asr #1
    113c:	07002302 	streq	r2, [r0, -r2, lsl #6]
    1140:	00485243 	subeq	r5, r8, r3, asr #4
    1144:	c9146d04 	ldmdbgt	r4, {r2, r8, sl, fp, sp, lr}
    1148:	02000000 	andeq	r0, r0, #0
    114c:	49070423 	stmdbmi	r7, {r0, r1, r5, sl}
    1150:	04005244 	streq	r5, [r0], #-580	; 0xfffffdbc
    1154:	00c9146e 	sbceq	r1, r9, lr, ror #8
    1158:	23020000 	movwcs	r0, #8192	; 0x2000
    115c:	444f0708 	strbmi	r0, [pc], #-1800	; 1164 <_Min_Stack_Size+0xd64>
    1160:	6f040052 	svcvs	0x00040052
    1164:	0000c914 	andeq	ip, r0, r4, lsl r9
    1168:	0c230200 	sfmeq	f0, 4, [r3], #-0
    116c:	00879308 	addeq	r9, r7, r8, lsl #6
    1170:	14700400 	ldrbtne	r0, [r0], #-1024	; 0xfffffc00
    1174:	000000c9 	andeq	r0, r0, r9, asr #1
    1178:	07102302 	ldreq	r2, [r0, -r2, lsl #6]
    117c:	00525242 	subseq	r5, r2, r2, asr #4
    1180:	c9147104 	ldmdbgt	r4, {r2, r8, ip, sp, lr}
    1184:	02000000 	andeq	r0, r0, #0
    1188:	9f081423 	svcls	0x00081423
    118c:	04000047 	streq	r0, [r0], #-71	; 0xffffffb9
    1190:	00c91472 	sbceq	r1, r9, r2, ror r4
    1194:	23020000 	movwcs	r0, #8192	; 0x2000
    1198:	10040018 	andne	r0, r4, r8, lsl r0
    119c:	0400005b 	streq	r0, [r0], #-91	; 0xffffffa5
    11a0:	00ce0273 	sbceq	r0, lr, r3, ror r2
    11a4:	30060000 	andcc	r0, r6, r0
    11a8:	0a098104 	beq	2615c0 <_Min_Stack_Size+0x2611c0>
    11ac:	07000002 	streq	r0, [r0, -r2]
    11b0:	04005243 	streq	r5, [r0], #-579	; 0xfffffdbd
    11b4:	00c91483 	sbceq	r1, r9, r3, lsl #9
    11b8:	23020000 	movwcs	r0, #8192	; 0x2000
    11bc:	3afb0800 	bcc	ffec31c4 <_estack+0xdfec09c4>
    11c0:	84040000 	strhi	r0, [r4], #-0
    11c4:	0000c914 	andeq	ip, r0, r4, lsl r9
    11c8:	04230200 	strteq	r0, [r3], #-512	; 0xfffffe00
    11cc:	52494307 	subpl	r4, r9, #469762048	; 0x1c000000
    11d0:	14850400 	strne	r0, [r5], #1024	; 0x400
    11d4:	000000c9 	andeq	r0, r0, r9, asr #1
    11d8:	08082302 	stmdaeq	r8, {r1, r8, r9, sp}
    11dc:	00005554 	andeq	r5, r0, r4, asr r5
    11e0:	c9148604 	ldmdbgt	r4, {r2, r9, sl, pc}
    11e4:	02000000 	andeq	r0, r0, #0
    11e8:	48080c23 	stmdami	r8, {r0, r1, r5, sl, fp}
    11ec:	0400006a 	streq	r0, [r0], #-106	; 0xffffff96
    11f0:	00c91487 	sbceq	r1, r9, r7, lsl #9
    11f4:	23020000 	movwcs	r0, #8192	; 0x2000
    11f8:	85790810 	ldrbhi	r0, [r9, #-2064]!	; 0xfffff7f0
    11fc:	88040000 	stmdahi	r4, {}	; <UNPREDICTABLE>
    1200:	0000c914 	andeq	ip, r0, r4, lsl r9
    1204:	14230200 	strtne	r0, [r3], #-512	; 0xfffffe00
    1208:	001d6308 	andseq	r6, sp, r8, lsl #6
    120c:	14890400 	strne	r0, [r9], #1024	; 0x400
    1210:	000000c9 	andeq	r0, r0, r9, asr #1
    1214:	08182302 	ldmdaeq	r8, {r1, r8, r9, sp}
    1218:	00006abb 			; <UNDEFINED> instruction: 0x00006abb
    121c:	c9148a04 	ldmdbgt	r4, {r2, r9, fp, pc}
    1220:	02000000 	andeq	r0, r0, #0
    1224:	5e081c23 	cdppl	12, 0, cr1, cr8, cr3, {1}
    1228:	04000035 	streq	r0, [r0], #-53	; 0xffffffcb
    122c:	00c9148b 	sbceq	r1, r9, fp, lsl #9
    1230:	23020000 	movwcs	r0, #8192	; 0x2000
    1234:	53430720 	movtpl	r0, #14112	; 0x3720
    1238:	8c040052 	stchi	0, cr0, [r4], {82}	; 0x52
    123c:	0000c914 	andeq	ip, r0, r4, lsl r9
    1240:	24230200 	strtcs	r0, [r3], #-512	; 0xfffffe00
    1244:	0029e808 	eoreq	lr, r9, r8, lsl #16
    1248:	148d0400 	strne	r0, [sp], #1024	; 0x400
    124c:	000000c9 	andeq	r0, r0, r9, asr #1
    1250:	08282302 	stmdaeq	r8!, {r1, r8, r9, sp}
    1254:	00005c6c 	andeq	r5, r0, ip, ror #24
    1258:	c9148e04 	ldmdbgt	r4, {r2, r9, sl, fp, pc}
    125c:	02000000 	andeq	r0, r0, #0
    1260:	04002c23 	streq	r2, [r0], #-3107	; 0xfffff3dd
    1264:	00008e2f 	andeq	r8, r0, pc, lsr #28
    1268:	4d028f04 	stcmi	15, cr8, [r2, #-16]
    126c:	06000001 	streq	r0, [r0], -r1
    1270:	091f0504 	ldmdbeq	pc, {r2, r8, sl}	; <UNPREDICTABLE>
    1274:	0000024d 	andeq	r0, r0, sp, asr #4
    1278:	009dd808 	addseq	sp, sp, r8, lsl #16
    127c:	0c200500 	cfstr32eq	mvfx0, [r0], #-0
    1280:	000000b1 	strheq	r0, [r0], -r1
    1284:	08002302 	stmdaeq	r0, {r1, r8, r9, sp}
    1288:	00009c59 	andeq	r9, r0, r9, asr ip
    128c:	a50c2205 	strge	r2, [ip, #-517]	; 0xfffffdfb
    1290:	02000000 	andeq	r0, r0, #0
    1294:	b6080223 	strlt	r0, [r8], -r3, lsr #4
    1298:	0500009c 	streq	r0, [r0, #-156]	; 0xffffff64
    129c:	00a50c23 	adceq	r0, r5, r3, lsr #24
    12a0:	23020000 	movwcs	r0, #8192	; 0x2000
    12a4:	89040003 	stmdbhi	r4, {r0, r1}
    12a8:	0500009c 	streq	r0, [r0, #-156]	; 0xffffff64
    12ac:	02160225 	andseq	r0, r6, #1342177282	; 0x50000002
    12b0:	01090000 	mrseq	r0, (UNDEF: 9)
    12b4:	0000a0bf 	strheq	sl, [r0], -pc	; <UNPREDICTABLE>
    12b8:	06010a01 	streq	r0, [r1], -r1, lsl #20
    12bc:	00000001 	andeq	r0, r0, r1
    12c0:	00000000 	andeq	r0, r0, r0
    12c4:	00080c00 	andeq	r0, r8, r0, lsl #24
    12c8:	02960100 	addseq	r0, r6, #0, 2
    12cc:	d30a0000 	movwle	r0, #40960	; 0xa000
    12d0:	010000a0 	smlatbeq	r0, r0, r0, r0
    12d4:	962a010a 	strtls	r0, [sl], -sl, lsl #2
    12d8:	02000002 	andeq	r0, r0, #2
    12dc:	dd0a7491 	cfstrsle	mvf7, [sl, #-580]	; 0xfffffdbc
    12e0:	0100009d 	swpeq	r0, sp, [r0]	; <UNPREDICTABLE>
    12e4:	b13a010a 	teqlt	sl, sl, lsl #2
    12e8:	02000000 	andeq	r0, r0, #0
    12ec:	0b007291 	bleq	1dd38 <_Min_Stack_Size+0x1d938>
    12f0:	00014104 	andeq	r4, r1, r4, lsl #2
    12f4:	f6010c00 			; <UNDEFINED> instruction: 0xf6010c00
    12f8:	010000a0 	smlatbeq	r0, r0, r0, r0
    12fc:	000106eb 	andeq	r0, r1, fp, ror #13
    1300:	00000000 	andeq	r0, r0, r0
    1304:	68000000 	stmdavs	r0, {}	; <UNPREDICTABLE>
    1308:	01000008 	tsteq	r0, r8
    130c:	000002e5 	andeq	r0, r0, r5, ror #5
    1310:	00a0d30d 	adceq	sp, r0, sp, lsl #6
    1314:	29eb0100 	stmibcs	fp!, {r8}^
    1318:	00000296 	muleq	r0, r6, r2
    131c:	0d749102 	ldfeqp	f1, [r4, #-8]!
    1320:	00009ddd 	ldrdeq	r9, [r0], -sp
    1324:	b139eb01 	teqlt	r9, r1, lsl #22
    1328:	02000000 	andeq	r0, r0, #0
    132c:	af0d7291 	svcge	0x000d7291
    1330:	010000a0 	smlatbeq	r0, r0, r0, r0
    1334:	00a54ceb 	adceq	r4, r5, fp, ror #25
    1338:	91020000 	mrsls	r0, (UNDEF: 2)
    133c:	010c0071 	tsteq	ip, r1, ror r0
    1340:	0000a109 	andeq	sl, r0, r9, lsl #2
    1344:	0106dc01 	tsteq	r6, r1, lsl #24
	...
    1350:	000008c4 	andeq	r0, r0, r4, asr #17
    1354:	00031f01 	andeq	r1, r3, r1, lsl #30
    1358:	a0d30d00 	sbcsge	r0, r3, r0, lsl #26
    135c:	dc010000 	stcle	0, cr0, [r1], {-0}
    1360:	0002962a 	andeq	r9, r2, sl, lsr #12
    1364:	74910200 	ldrvc	r0, [r1], #512	; 0x200
    1368:	00a0af0d 	adceq	sl, r0, sp, lsl #30
    136c:	39dc0100 	ldmibcc	ip, {r8}^
    1370:	000000a5 	andeq	r0, r0, r5, lsr #1
    1374:	00739102 	rsbseq	r9, r3, r2, lsl #2
    1378:	a138010e 	teqge	r8, lr, lsl #2
    137c:	c9010000 	stmdbgt	r1, {}	; <UNPREDICTABLE>
    1380:	00b1010a 	adcseq	r0, r1, sl, lsl #2
	...
    138c:	09200000 	stmdbeq	r0!, {}	; <UNPREDICTABLE>
    1390:	5d010000 	stcpl	0, cr0, [r1, #-0]
    1394:	0d000003 	stceq	0, cr0, [r0, #-12]
    1398:	0000a0d3 	ldrdeq	sl, [r0], -r3
    139c:	962dc901 	strtls	ip, [sp], -r1, lsl #18
    13a0:	02000002 	andeq	r0, r0, #2
    13a4:	1d0f6c91 	stcne	12, cr6, [pc, #-580]	; 1168 <_Min_Stack_Size+0xd68>
    13a8:	010000a1 	smlatbeq	r0, r1, r0, r0
    13ac:	00b10bcb 	adcseq	r0, r1, fp, asr #23
    13b0:	91020000 	mrsls	r0, (UNDEF: 2)
    13b4:	010e0076 	tsteq	lr, r6, ror r0
    13b8:	0000a0d9 	ldrdeq	sl, [r0], -r9
    13bc:	0109b201 	tsteq	r9, r1, lsl #4
    13c0:	000000a5 	andeq	r0, r0, r5, lsr #1
	...
    13cc:	0000097c 	andeq	r0, r0, ip, ror r9
    13d0:	0003aa01 	andeq	sl, r3, r1, lsl #20
    13d4:	a0d30d00 	sbcsge	r0, r3, r0, lsl #26
    13d8:	b2010000 	andlt	r0, r1, #0
    13dc:	0002962b 	andeq	r9, r2, fp, lsr #12
    13e0:	6c910200 	lfmvs	f0, 4, [r1], {0}
    13e4:	009ddd0d 	addseq	sp, sp, sp, lsl #26
    13e8:	3bb20100 	blcc	fec817f0 <_estack+0xdec7eff0>
    13ec:	000000b1 	strheq	r0, [r0], -r1
    13f0:	0f6a9102 	svceq	0x006a9102
    13f4:	0000a14b 	andeq	sl, r0, fp, asr #2
    13f8:	a50ab401 	strge	fp, [sl, #-1025]	; 0xfffffbff
    13fc:	02000000 	andeq	r0, r0, #0
    1400:	0c007791 	stceq	7, cr7, [r0], {145}	; 0x91
    1404:	00a12701 	adceq	r2, r1, r1, lsl #14
    1408:	068b0100 	streq	r0, [fp], r0, lsl #2
    140c:	00000001 	andeq	r0, r0, r1
    1410:	00000000 	andeq	r0, r0, r0
    1414:	0009d800 	andeq	sp, r9, r0, lsl #16
    1418:	03d50100 	bicseq	r0, r5, #0, 2
    141c:	d30d0000 	movwle	r0, #53248	; 0xd000
    1420:	010000a0 	smlatbeq	r0, r0, r0, r0
    1424:	0296278b 	addseq	r2, r6, #36438016	; 0x22c0000
    1428:	91020000 	mrsls	r0, (UNDEF: 2)
    142c:	01100074 	tsteq	r0, r4, ror r0
    1430:	00009c23 	andeq	r9, r0, r3, lsr #24
    1434:	01065101 	tsteq	r6, r1, lsl #2
    1438:	08000b60 	stmdaeq	r0, {r5, r6, r8, r9, fp}
    143c:	08000c58 	stmdaeq	r0, {r3, r4, r6, sl, fp}
    1440:	00000a34 	andeq	r0, r0, r4, lsr sl
    1444:	00042d01 	andeq	r2, r4, r1, lsl #26
    1448:	a0d30d00 	sbcsge	r0, r3, r0, lsl #26
    144c:	51010000 	mrspl	r0, (UNDEF: 1)
    1450:	00029625 	andeq	r9, r2, r5, lsr #12
    1454:	64910200 	ldrvs	r0, [r1], #512	; 0x200
    1458:	00a0b50d 	adceq	fp, r0, sp, lsl #10
    145c:	3e510100 	rdfccs	f0, f1, f0
    1460:	0000042d 	andeq	r0, r0, sp, lsr #8
    1464:	0f609102 	svceq	0x00609102
    1468:	0000a155 	andeq	sl, r0, r5, asr r1
    146c:	33165301 	tstcc	r6, #67108864	; 0x4000000
    1470:	02000004 	andeq	r0, r0, #4
    1474:	eb0f6891 	bl	3db6c0 <_Min_Stack_Size+0x3db2c0>
    1478:	010000a0 	smlatbeq	r0, r0, r0, r0
    147c:	00a50a54 	adceq	r0, r5, r4, asr sl
    1480:	91020000 	mrsls	r0, (UNDEF: 2)
    1484:	040b006f 	streq	r0, [fp], #-111	; 0xffffff91
    1488:	0000024d 	andeq	r0, r0, sp, asr #4
    148c:	00c9040b 	sbceq	r0, r9, fp, lsl #8
    1490:	01110000 	tsteq	r1, r0
    1494:	0000a09d 	muleq	r0, sp, r0
    1498:	01091701 	tsteq	r9, r1, lsl #14
    149c:	000000a5 	andeq	r0, r0, r5, lsr #1
    14a0:	080009f0 	stmdaeq	r0, {r4, r5, r6, r7, r8, fp}
    14a4:	08000b5e 	stmdaeq	r0, {r1, r2, r3, r4, r6, r8, r9, fp}
    14a8:	00000a84 	andeq	r0, r0, r4, lsl #21
    14ac:	9ddd0d01 	ldclls	13, cr0, [sp, #4]
    14b0:	17010000 	strne	r0, [r1, -r0]
    14b4:	0000b124 	andeq	fp, r0, r4, lsr #2
    14b8:	76910200 	ldrvc	r0, [r1], r0, lsl #4
	...

Disassembly of section .debug_abbrev:

00000000 <.debug_abbrev>:
   0:	25011101 	strcs	r1, [r1, #-257]	; 0xfffffeff
   4:	030b130e 	movweq	r1, #45838	; 0xb30e
   8:	550e1b0e 	strpl	r1, [lr, #-2830]	; 0xfffff4f2
   c:	52011106 	andpl	r1, r1, #-2147483647	; 0x80000001
  10:	99061001 	stmdbls	r6, {r0, ip}
  14:	00000642 	andeq	r0, r0, r2, asr #12
  18:	0b002402 	bleq	9028 <_Min_Stack_Size+0x8c28>
  1c:	030b3e0b 	movweq	r3, #48651	; 0xbe0b
  20:	0300000e 	movweq	r0, #14
  24:	0b0b0024 	bleq	2c00bc <_Min_Stack_Size+0x2bfcbc>
  28:	08030b3e 	stmdaeq	r3, {r1, r2, r3, r4, r5, r8, r9, fp}
  2c:	35040000 	strcc	r0, [r4, #-0]
  30:	00134900 	andseq	r4, r3, r0, lsl #18
  34:	00160500 	andseq	r0, r6, r0, lsl #10
  38:	0b3a0e03 	bleq	e8384c <_Min_Stack_Size+0xe8344c>
  3c:	0b390b3b 	bleq	e42d30 <_Min_Stack_Size+0xe42930>
  40:	00001349 	andeq	r1, r0, r9, asr #6
  44:	0b000f06 	bleq	3c64 <_Min_Stack_Size+0x3864>
  48:	0013490b 	andseq	r4, r3, fp, lsl #18
  4c:	00150700 	andseq	r0, r5, r0, lsl #14
  50:	00000c27 	andeq	r0, r0, r7, lsr #24
  54:	0b011308 	bleq	44c7c <_Min_Stack_Size+0x4487c>
  58:	3b0b3a0b 	blcc	2ce88c <_Min_Stack_Size+0x2ce48c>
  5c:	010b390b 	tsteq	fp, fp, lsl #18
  60:	09000013 	stmdbeq	r0, {r0, r1, r4}
  64:	0803000d 	stmdaeq	r3, {r0, r2, r3}
  68:	0b3b0b3a 	bleq	ec2d58 <_Min_Stack_Size+0xec2958>
  6c:	13490b39 	movtne	r0, #39737	; 0x9b39
  70:	00000a38 	andeq	r0, r0, r8, lsr sl
  74:	03000d0a 	movweq	r0, #3338	; 0xd0a
  78:	3b0b3a0e 	blcc	2ce8b8 <_Min_Stack_Size+0x2ce4b8>
  7c:	490b390b 	stmdbmi	fp, {r0, r1, r3, r8, fp, ip, sp}
  80:	000a3813 	andeq	r3, sl, r3, lsl r8
  84:	00340b00 	eorseq	r0, r4, r0, lsl #22
  88:	0b3a0e03 	bleq	e8389c <_Min_Stack_Size+0xe8349c>
  8c:	0b390b3b 	bleq	e42d80 <_Min_Stack_Size+0xe42980>
  90:	0c3f1349 	ldceq	3, cr1, [pc], #-292	; ffffff74 <_estack+0xdfffd774>
  94:	00000c3c 	andeq	r0, r0, ip, lsr ip
  98:	0300340c 	movweq	r3, #1036	; 0x40c
  9c:	3b0b3a0e 	blcc	2ce8dc <_Min_Stack_Size+0x2ce4dc>
  a0:	490b390b 	stmdbmi	fp, {r0, r1, r3, r8, fp, ip, sp}
  a4:	020c3f13 	andeq	r3, ip, #19, 30	; 0x4c
  a8:	0d00000a 	stceq	0, cr0, [r0, #-40]	; 0xffffffd8
  ac:	0e030104 	adfeqs	f0, f3, f4
  b0:	0b0b0b3e 	bleq	2c2db0 <_Min_Stack_Size+0x2c29b0>
  b4:	0b3a1349 	bleq	e84de0 <_Min_Stack_Size+0xe849e0>
  b8:	0b390b3b 	bleq	e42dac <_Min_Stack_Size+0xe429ac>
  bc:	00001301 	andeq	r1, r0, r1, lsl #6
  c0:	0300280e 	movweq	r2, #2062	; 0x80e
  c4:	000b1c0e 	andeq	r1, fp, lr, lsl #24
  c8:	012e0f00 			; <UNDEFINED> instruction: 0x012e0f00
  cc:	0e030c3f 	mcreq	12, 0, r0, cr3, cr15, {1}
  d0:	0b3b0b3a 	bleq	ec2dc0 <_Min_Stack_Size+0xec29c0>
  d4:	0c270b39 			; <UNDEFINED> instruction: 0x0c270b39
  d8:	13010c3c 	movwne	r0, #7228	; 0x1c3c
  dc:	05100000 	ldreq	r0, [r0, #-0]
  e0:	00134900 	andseq	r4, r3, r0, lsl #18
  e4:	012e1100 			; <UNDEFINED> instruction: 0x012e1100
  e8:	0e030c3f 	mcreq	12, 0, r0, cr3, cr15, {1}
  ec:	0b3b0b3a 	bleq	ec2ddc <_Min_Stack_Size+0xec29dc>
  f0:	13490b39 	movtne	r0, #39737	; 0x9b39
  f4:	01120111 	tsteq	r2, r1, lsl r1
  f8:	42960640 	addsmi	r0, r6, #64, 12	; 0x4000000
  fc:	0013010c 	andseq	r0, r3, ip, lsl #2
 100:	00341200 	eorseq	r1, r4, r0, lsl #4
 104:	0b3a0e03 	bleq	e83918 <_Min_Stack_Size+0xe83518>
 108:	0b390b3b 	bleq	e42dfc <_Min_Stack_Size+0xe429fc>
 10c:	0a021349 	beq	84e38 <_Min_Stack_Size+0x84a38>
 110:	2e130000 	cdpcs	0, 1, cr0, cr3, cr0, {0}
 114:	030c3f00 	movweq	r3, #52992	; 0xcf00
 118:	3b0b3a0e 	blcc	2ce958 <_Min_Stack_Size+0x2ce558>
 11c:	110b390b 	tstne	fp, fp, lsl #18
 120:	40011201 	andmi	r1, r1, r1, lsl #4
 124:	0c429606 	mcrreq	6, 0, r9, r2, cr6
 128:	2e140000 	cdpcs	0, 1, cr0, cr4, cr0, {0}
 12c:	030c3f01 	movweq	r3, #52993	; 0xcf01
 130:	3b0b3a0e 	blcc	2ce970 <_Min_Stack_Size+0x2ce570>
 134:	270b390b 	strcs	r3, [fp, -fp, lsl #18]
 138:	1113490c 	tstne	r3, ip, lsl #18
 13c:	40011201 	andmi	r1, r1, r1, lsl #4
 140:	0c429706 	mcrreq	7, 0, r9, r2, cr6
 144:	00001301 	andeq	r1, r0, r1, lsl #6
 148:	03000515 	movweq	r0, #1301	; 0x515
 14c:	3b0b3a08 	blcc	2ce974 <_Min_Stack_Size+0x2ce574>
 150:	490b390b 	stmdbmi	fp, {r0, r1, r3, r8, fp, ip, sp}
 154:	000a0213 	andeq	r0, sl, r3, lsl r2
 158:	002e1600 	eoreq	r1, lr, r0, lsl #12
 15c:	0e030c3f 	mcreq	12, 0, r0, cr3, cr15, {1}
 160:	0b3b0b3a 	bleq	ec2e50 <_Min_Stack_Size+0xec2a50>
 164:	0c270b39 			; <UNDEFINED> instruction: 0x0c270b39
 168:	01120111 	tsteq	r2, r1, lsl r1
 16c:	42970640 	addsmi	r0, r7, #64, 12	; 0x4000000
 170:	1700000c 	strne	r0, [r0, -ip]
 174:	0c3f002e 	ldceq	0, cr0, [pc], #-184	; c4 <_Min_Heap_Size-0x13c>
 178:	0b3a0e03 	bleq	e8398c <_Min_Stack_Size+0xe8358c>
 17c:	0b390b3b 	bleq	e42e70 <_Min_Stack_Size+0xe42a70>
 180:	01120111 	tsteq	r2, r1, lsl r1
 184:	42970640 	addsmi	r0, r7, #64, 12	; 0x4000000
 188:	1800000c 	stmdane	r0, {r2, r3}
 18c:	0c3f012e 	ldfeqs	f0, [pc], #-184	; dc <_Min_Heap_Size-0x124>
 190:	0b3a0e03 	bleq	e839a4 <_Min_Stack_Size+0xe835a4>
 194:	0b390b3b 	bleq	e42e88 <_Min_Stack_Size+0xe42a88>
 198:	01110c27 	tsteq	r1, r7, lsr #24
 19c:	06400112 			; <UNDEFINED> instruction: 0x06400112
 1a0:	000c4297 	muleq	ip, r7, r2
 1a4:	00051900 	andeq	r1, r5, r0, lsl #18
 1a8:	0b3a0e03 	bleq	e839bc <_Min_Stack_Size+0xe835bc>
 1ac:	0b390b3b 	bleq	e42ea0 <_Min_Stack_Size+0xe42aa0>
 1b0:	0a021349 	beq	84edc <_Min_Stack_Size+0x84adc>
 1b4:	01000000 	mrseq	r0, (UNDEF: 0)
 1b8:	06100011 			; <UNDEFINED> instruction: 0x06100011
 1bc:	0e030655 	mcreq	6, 0, r0, cr3, cr5, {2}
 1c0:	0e250e1b 	mcreq	14, 1, r0, cr5, cr11, {0}
 1c4:	00000513 	andeq	r0, r0, r3, lsl r5
 1c8:	01110100 	tsteq	r1, r0, lsl #2
 1cc:	0b130e25 	bleq	4c3a68 <_Min_Stack_Size+0x4c3668>
 1d0:	0e1b0e03 	cdpeq	14, 1, cr0, cr11, cr3, {0}
 1d4:	01110655 	tsteq	r1, r5, asr r6
 1d8:	06100152 			; <UNDEFINED> instruction: 0x06100152
 1dc:	00064299 	muleq	r6, r9, r2
 1e0:	00240200 	eoreq	r0, r4, r0, lsl #4
 1e4:	0b3e0b0b 	bleq	f82e18 <_Min_Stack_Size+0xf82a18>
 1e8:	00000e03 	andeq	r0, r0, r3, lsl #28
 1ec:	0b002403 	bleq	9200 <_Min_Stack_Size+0x8e00>
 1f0:	030b3e0b 	movweq	r3, #48651	; 0xbe0b
 1f4:	04000008 	streq	r0, [r0], #-8
 1f8:	0e030016 	mcreq	0, 0, r0, cr3, cr6, {0}
 1fc:	0b3b0b3a 	bleq	ec2eec <_Min_Stack_Size+0xec2aec>
 200:	13490b39 	movtne	r0, #39737	; 0x9b39
 204:	0f050000 	svceq	0x00050000
 208:	490b0b00 	stmdbmi	fp, {r8, r9, fp}
 20c:	06000013 			; <UNDEFINED> instruction: 0x06000013
 210:	0c270015 	stceq	0, cr0, [r7], #-84	; 0xffffffac
 214:	35070000 	strcc	r0, [r7, #-0]
 218:	00134900 	andseq	r4, r3, r0, lsl #18
 21c:	01130800 	tsteq	r3, r0, lsl #16
 220:	0b3a0b0b 	bleq	e82e54 <_Min_Stack_Size+0xe82a54>
 224:	0b390b3b 	bleq	e42f18 <_Min_Stack_Size+0xe42b18>
 228:	00001301 	andeq	r1, r0, r1, lsl #6
 22c:	03000d09 	movweq	r0, #3337	; 0xd09
 230:	3b0b3a08 	blcc	2cea58 <_Min_Stack_Size+0x2ce658>
 234:	490b390b 	stmdbmi	fp, {r0, r1, r3, r8, fp, ip, sp}
 238:	000a3813 	andeq	r3, sl, r3, lsl r8
 23c:	000d0a00 	andeq	r0, sp, r0, lsl #20
 240:	0b3a0e03 	bleq	e83a54 <_Min_Stack_Size+0xe83654>
 244:	0b390b3b 	bleq	e42f38 <_Min_Stack_Size+0xe42b38>
 248:	0a381349 	beq	e04f74 <_Min_Stack_Size+0xe04b74>
 24c:	010b0000 	mrseq	r0, (UNDEF: 11)
 250:	01134901 	tsteq	r3, r1, lsl #18
 254:	0c000013 	stceq	0, cr0, [r0], {19}
 258:	13490021 	movtne	r0, #36897	; 0x9021
 25c:	00000b2f 	andeq	r0, r0, pc, lsr #22
 260:	0300340d 	movweq	r3, #1037	; 0x40d
 264:	3b0b3a0e 	blcc	2ceaa4 <_Min_Stack_Size+0x2ce6a4>
 268:	490b390b 	stmdbmi	fp, {r0, r1, r3, r8, fp, ip, sp}
 26c:	020c3f13 	andeq	r3, ip, #19, 30	; 0x4c
 270:	0e00000a 	cdpeq	0, 0, cr0, cr0, cr10, {0}
 274:	0c3f012e 	ldfeqs	f0, [pc], #-184	; 1c4 <_Min_Heap_Size-0x3c>
 278:	0b3a0e03 	bleq	e83a8c <_Min_Stack_Size+0xe8368c>
 27c:	0b390b3b 	bleq	e42f70 <_Min_Stack_Size+0xe42b70>
 280:	0c3c0c27 	ldceq	12, cr0, [ip], #-156	; 0xffffff64
 284:	00001301 	andeq	r1, r0, r1, lsl #6
 288:	4900050f 	stmdbmi	r0, {r0, r1, r2, r3, r8, sl}
 28c:	10000013 	andne	r0, r0, r3, lsl r0
 290:	0c3f002e 	ldceq	0, cr0, [pc], #-184	; 1e0 <_Min_Heap_Size-0x20>
 294:	0b3a0e03 	bleq	e83aa8 <_Min_Stack_Size+0xe836a8>
 298:	0b39053b 	bleq	e4178c <_Min_Stack_Size+0xe4138c>
 29c:	01110c27 	tsteq	r1, r7, lsr #24
 2a0:	06400112 			; <UNDEFINED> instruction: 0x06400112
 2a4:	000c4296 	muleq	ip, r6, r2
 2a8:	002e1100 	eoreq	r1, lr, r0, lsl #2
 2ac:	0e030c3f 	mcreq	12, 0, r0, cr3, cr15, {1}
 2b0:	0b3b0b3a 	bleq	ec2fa0 <_Min_Stack_Size+0xec2ba0>
 2b4:	0c270b39 			; <UNDEFINED> instruction: 0x0c270b39
 2b8:	01120111 	tsteq	r2, r1, lsl r1
 2bc:	42960640 	addsmi	r0, r6, #64, 12	; 0x4000000
 2c0:	1200000c 	andne	r0, r0, #12
 2c4:	0c3f012e 	ldfeqs	f0, [pc], #-184	; 214 <_Min_Heap_Size+0x14>
 2c8:	0b3a0e03 	bleq	e83adc <_Min_Stack_Size+0xe836dc>
 2cc:	0b390b3b 	bleq	e42fc0 <_Min_Stack_Size+0xe42bc0>
 2d0:	01110c27 	tsteq	r1, r7, lsr #24
 2d4:	06400112 			; <UNDEFINED> instruction: 0x06400112
 2d8:	010c4296 			; <UNDEFINED> instruction: 0x010c4296
 2dc:	13000013 	movwne	r0, #19
 2e0:	0e030005 	cdpeq	0, 0, cr0, cr3, cr5, {0}
 2e4:	0b3b0b3a 	bleq	ec2fd4 <_Min_Stack_Size+0xec2bd4>
 2e8:	13490b39 	movtne	r0, #39737	; 0x9b39
 2ec:	00000a02 	andeq	r0, r0, r2, lsl #20
 2f0:	3f002e14 	svccc	0x00002e14
 2f4:	3a0e030c 	bcc	380f2c <_Min_Stack_Size+0x380b2c>
 2f8:	390b3b0b 	stmdbcc	fp, {r0, r1, r3, r8, r9, fp, ip, sp}
 2fc:	110c270b 	tstne	ip, fp, lsl #14
 300:	40011201 	andmi	r1, r1, r1, lsl #4
 304:	0c429706 	mcrreq	7, 0, r9, r2, cr6
 308:	34150000 	ldrcc	r0, [r5], #-0
 30c:	3a0e0300 	bcc	380f14 <_Min_Stack_Size+0x380b14>
 310:	390b3b0b 	stmdbcc	fp, {r0, r1, r3, r8, r9, fp, ip, sp}
 314:	0213490b 	andseq	r4, r3, #180224	; 0x2c000
 318:	1600000a 	strne	r0, [r0], -sl
 31c:	0c3f012e 	ldfeqs	f0, [pc], #-184	; 26c <_Min_Heap_Size+0x6c>
 320:	0b3a0e03 	bleq	e83b34 <_Min_Stack_Size+0xe83734>
 324:	0b390b3b 	bleq	e43018 <_Min_Stack_Size+0xe42c18>
 328:	01110c27 	tsteq	r1, r7, lsr #24
 32c:	06400112 			; <UNDEFINED> instruction: 0x06400112
 330:	010c4297 			; <UNDEFINED> instruction: 0x010c4297
 334:	17000013 	smladne	r0, r3, r0, r0
 338:	0c3f012e 	ldfeqs	f0, [pc], #-184	; 288 <_Min_Heap_Size+0x88>
 33c:	0b3a0e03 	bleq	e83b50 <_Min_Stack_Size+0xe83750>
 340:	0b390b3b 	bleq	e43034 <_Min_Stack_Size+0xe42c34>
 344:	01110c27 	tsteq	r1, r7, lsr #24
 348:	06400112 			; <UNDEFINED> instruction: 0x06400112
 34c:	000c4297 	muleq	ip, r7, r2
 350:	11010000 	mrsne	r0, (UNDEF: 1)
 354:	130e2501 	movwne	r2, #58625	; 0xe501
 358:	1b0e030b 	blne	380f8c <_Min_Stack_Size+0x380b8c>
 35c:	1106550e 	tstne	r6, lr, lsl #10
 360:	10015201 	andne	r5, r1, r1, lsl #4
 364:	06429906 	strbeq	r9, [r2], -r6, lsl #18
 368:	24020000 	strcs	r0, [r2], #-0
 36c:	3e0b0b00 	vmlacc.f64	d0, d11, d0
 370:	000e030b 	andeq	r0, lr, fp, lsl #6
 374:	00240300 	eoreq	r0, r4, r0, lsl #6
 378:	0b3e0b0b 	bleq	f82fac <_Min_Stack_Size+0xf82bac>
 37c:	00000803 	andeq	r0, r0, r3, lsl #16
 380:	03001604 	movweq	r1, #1540	; 0x604
 384:	3b0b3a0e 	blcc	2cebc4 <_Min_Stack_Size+0x2ce7c4>
 388:	490b390b 	stmdbmi	fp, {r0, r1, r3, r8, fp, ip, sp}
 38c:	05000013 	streq	r0, [r0, #-19]	; 0xffffffed
 390:	0b0b000f 	bleq	2c03d4 <_Min_Stack_Size+0x2bffd4>
 394:	00001349 	andeq	r1, r0, r9, asr #6
 398:	27001506 	strcs	r1, [r0, -r6, lsl #10]
 39c:	0700000c 	streq	r0, [r0, -ip]
 3a0:	13490035 	movtne	r0, #36917	; 0x9035
 3a4:	13080000 	movwne	r0, #32768	; 0x8000
 3a8:	3a0b0b01 	bcc	2c2fb4 <_Min_Stack_Size+0x2c2bb4>
 3ac:	390b3b0b 	stmdbcc	fp, {r0, r1, r3, r8, r9, fp, ip, sp}
 3b0:	0013010b 	andseq	r0, r3, fp, lsl #2
 3b4:	000d0900 	andeq	r0, sp, r0, lsl #18
 3b8:	0b3a0803 	bleq	e823cc <_Min_Stack_Size+0xe81fcc>
 3bc:	0b390b3b 	bleq	e430b0 <_Min_Stack_Size+0xe42cb0>
 3c0:	0a381349 	beq	e050ec <_Min_Stack_Size+0xe04cec>
 3c4:	0d0a0000 	stceq	0, cr0, [sl, #-0]
 3c8:	3a0e0300 	bcc	380fd0 <_Min_Stack_Size+0x380bd0>
 3cc:	390b3b0b 	stmdbcc	fp, {r0, r1, r3, r8, r9, fp, ip, sp}
 3d0:	3813490b 	ldmdacc	r3, {r0, r1, r3, r8, fp, lr}
 3d4:	0b00000a 	bleq	404 <_Min_Stack_Size+0x4>
 3d8:	0e030104 	adfeqs	f0, f3, f4
 3dc:	0b0b0b3e 	bleq	2c30dc <_Min_Stack_Size+0x2c2cdc>
 3e0:	0b3a1349 	bleq	e8510c <_Min_Stack_Size+0xe84d0c>
 3e4:	0b390b3b 	bleq	e430d8 <_Min_Stack_Size+0xe42cd8>
 3e8:	00001301 	andeq	r1, r0, r1, lsl #6
 3ec:	0300280c 	movweq	r2, #2060	; 0x80c
 3f0:	000b1c0e 	andeq	r1, fp, lr, lsl #24
 3f4:	00340d00 	eorseq	r0, r4, r0, lsl #26
 3f8:	0b3a0e03 	bleq	e83c0c <_Min_Stack_Size+0xe8380c>
 3fc:	0b390b3b 	bleq	e430f0 <_Min_Stack_Size+0xe42cf0>
 400:	0c3f1349 	ldceq	3, cr1, [pc], #-292	; 2e4 <_Min_Heap_Size+0xe4>
 404:	00000a02 	andeq	r0, r0, r2, lsl #20
 408:	3f012e0e 	svccc	0x00012e0e
 40c:	3a0e030c 	bcc	381044 <_Min_Stack_Size+0x380c44>
 410:	390b3b0b 	stmdbcc	fp, {r0, r1, r3, r8, r9, fp, ip, sp}
 414:	3c0c270b 	stccc	7, cr2, [ip], {11}
 418:	0013010c 	andseq	r0, r3, ip, lsl #2
 41c:	00050f00 	andeq	r0, r5, r0, lsl #30
 420:	00001349 	andeq	r1, r0, r9, asr #6
 424:	3f012e10 	svccc	0x00012e10
 428:	3a0e030c 	bcc	381060 <_Min_Stack_Size+0x380c60>
 42c:	390b3b0b 	stmdbcc	fp, {r0, r1, r3, r8, r9, fp, ip, sp}
 430:	3c13490b 			; <UNDEFINED> instruction: 0x3c13490b
 434:	0013010c 	andseq	r0, r3, ip, lsl #2
 438:	00181100 	andseq	r1, r8, r0, lsl #2
 43c:	2e120000 	cdpcs	0, 1, cr0, cr2, cr0, {0}
 440:	030c3f00 	movweq	r3, #52992	; 0xcf00
 444:	3b0b3a0e 	blcc	2cec84 <_Min_Stack_Size+0x2ce884>
 448:	270b3905 	strcs	r3, [fp, -r5, lsl #18]
 44c:	1201110c 	andne	r1, r1, #12, 2
 450:	96064001 	strls	r4, [r6], -r1
 454:	00000c42 	andeq	r0, r0, r2, asr #24
 458:	3f012e13 	svccc	0x00012e13
 45c:	3a0e030c 	bcc	381094 <_Min_Stack_Size+0x380c94>
 460:	39053b0b 	stmdbcc	r5, {r0, r1, r3, r8, r9, fp, ip, sp}
 464:	110c270b 	tstne	ip, fp, lsl #14
 468:	40011201 	andmi	r1, r1, r1, lsl #4
 46c:	0c429706 	mcrreq	7, 0, r9, r2, cr6
 470:	00001301 	andeq	r1, r0, r1, lsl #6
 474:	03000514 	movweq	r0, #1300	; 0x514
 478:	3b0b3a0e 	blcc	2cecb8 <_Min_Stack_Size+0x2ce8b8>
 47c:	490b3905 	stmdbmi	fp, {r0, r2, r8, fp, ip, sp}
 480:	000a0213 	andeq	r0, sl, r3, lsl r2
 484:	00341500 	eorseq	r1, r4, r0, lsl #10
 488:	0b3a0e03 	bleq	e83c9c <_Min_Stack_Size+0xe8389c>
 48c:	0b39053b 	bleq	e41980 <_Min_Stack_Size+0xe41580>
 490:	00001349 	andeq	r1, r0, r9, asr #6
 494:	3f012e16 	svccc	0x00012e16
 498:	3a0e030c 	bcc	3810d0 <_Min_Stack_Size+0x380cd0>
 49c:	390b3b0b 	stmdbcc	fp, {r0, r1, r3, r8, r9, fp, ip, sp}
 4a0:	110c270b 	tstne	ip, fp, lsl #14
 4a4:	40011201 	andmi	r1, r1, r1, lsl #4
 4a8:	0c429706 	mcrreq	7, 0, r9, r2, cr6
 4ac:	00001301 	andeq	r1, r0, r1, lsl #6
 4b0:	03000517 	movweq	r0, #1303	; 0x517
 4b4:	3b0b3a0e 	blcc	2cecf4 <_Min_Stack_Size+0x2ce8f4>
 4b8:	490b390b 	stmdbmi	fp, {r0, r1, r3, r8, fp, ip, sp}
 4bc:	000a0213 	andeq	r0, sl, r3, lsl r2
 4c0:	012e1800 			; <UNDEFINED> instruction: 0x012e1800
 4c4:	0e030c3f 	mcreq	12, 0, r0, cr3, cr15, {1}
 4c8:	0b3b0b3a 	bleq	ec31b8 <_Min_Stack_Size+0xec2db8>
 4cc:	0c270b39 			; <UNDEFINED> instruction: 0x0c270b39
 4d0:	01120111 	tsteq	r2, r1, lsl r1
 4d4:	42960640 	addsmi	r0, r6, #64, 12	; 0x4000000
 4d8:	0013010c 	andseq	r0, r3, ip, lsl #2
 4dc:	00341900 	eorseq	r1, r4, r0, lsl #18
 4e0:	0b3a0e03 	bleq	e83cf4 <_Min_Stack_Size+0xe838f4>
 4e4:	0b390b3b 	bleq	e431d8 <_Min_Stack_Size+0xe42dd8>
 4e8:	0a021349 	beq	85214 <_Min_Stack_Size+0x84e14>
 4ec:	2e1a0000 	cdpcs	0, 1, cr0, cr10, cr0, {0}
 4f0:	030c3f01 	movweq	r3, #52993	; 0xcf01
 4f4:	3b0b3a0e 	blcc	2ced34 <_Min_Stack_Size+0x2ce934>
 4f8:	270b390b 	strcs	r3, [fp, -fp, lsl #18]
 4fc:	1201110c 	andne	r1, r1, #12, 2
 500:	96064001 	strls	r4, [r6], -r1
 504:	00000c42 	andeq	r0, r0, r2, asr #24
 508:	01110100 	tsteq	r1, r0, lsl #2
 50c:	0b130e25 	bleq	4c3da8 <_Min_Stack_Size+0x4c39a8>
 510:	0e1b0e03 	cdpeq	14, 1, cr0, cr11, cr3, {0}
 514:	01110655 	tsteq	r1, r5, asr r6
 518:	06100152 			; <UNDEFINED> instruction: 0x06100152
 51c:	00064299 	muleq	r6, r9, r2
 520:	00240200 	eoreq	r0, r4, r0, lsl #4
 524:	0b3e0b0b 	bleq	f83158 <_Min_Stack_Size+0xf82d58>
 528:	00000e03 	andeq	r0, r0, r3, lsl #28
 52c:	0b002403 	bleq	9540 <_Min_Stack_Size+0x9140>
 530:	030b3e0b 	movweq	r3, #48651	; 0xbe0b
 534:	04000008 	streq	r0, [r0], #-8
 538:	0e030016 	mcreq	0, 0, r0, cr3, cr6, {0}
 53c:	0b3b0b3a 	bleq	ec322c <_Min_Stack_Size+0xec2e2c>
 540:	13490b39 	movtne	r0, #39737	; 0x9b39
 544:	35050000 	strcc	r0, [r5, #-0]
 548:	00134900 	andseq	r4, r3, r0, lsl #18
 54c:	01130600 	tsteq	r3, r0, lsl #12
 550:	0b3a0b0b 	bleq	e83184 <_Min_Stack_Size+0xe82d84>
 554:	0b390b3b 	bleq	e43248 <_Min_Stack_Size+0xe42e48>
 558:	00001301 	andeq	r1, r0, r1, lsl #6
 55c:	03000d07 	movweq	r0, #3335	; 0xd07
 560:	3b0b3a08 	blcc	2ced88 <_Min_Stack_Size+0x2ce988>
 564:	490b390b 	stmdbmi	fp, {r0, r1, r3, r8, fp, ip, sp}
 568:	000a3813 	andeq	r3, sl, r3, lsl r8
 56c:	000d0800 	andeq	r0, sp, r0, lsl #16
 570:	0b3a0e03 	bleq	e83d84 <_Min_Stack_Size+0xe83984>
 574:	0b390b3b 	bleq	e43268 <_Min_Stack_Size+0xe42e68>
 578:	0a381349 	beq	e052a4 <_Min_Stack_Size+0xe04ea4>
 57c:	2e090000 	cdpcs	0, 0, cr0, cr9, cr0, {0}
 580:	030c3f01 	movweq	r3, #52993	; 0xcf01
 584:	3b0b3a0e 	blcc	2cedc4 <_Min_Stack_Size+0x2ce9c4>
 588:	270b3905 	strcs	r3, [fp, -r5, lsl #18]
 58c:	1201110c 	andne	r1, r1, #12, 2
 590:	97064001 	strls	r4, [r6, -r1]
 594:	13010c42 	movwne	r0, #7234	; 0x1c42
 598:	050a0000 	streq	r0, [sl, #-0]
 59c:	3a0e0300 	bcc	3811a4 <_Min_Stack_Size+0x380da4>
 5a0:	39053b0b 	stmdbcc	r5, {r0, r1, r3, r8, r9, fp, ip, sp}
 5a4:	0213490b 	andseq	r4, r3, #180224	; 0x2c000
 5a8:	0b00000a 	bleq	5d8 <_Min_Stack_Size+0x1d8>
 5ac:	0b0b000f 	bleq	2c05f0 <_Min_Stack_Size+0x2c01f0>
 5b0:	00001349 	andeq	r1, r0, r9, asr #6
 5b4:	3f012e0c 	svccc	0x00012e0c
 5b8:	3a0e030c 	bcc	3811f0 <_Min_Stack_Size+0x380df0>
 5bc:	390b3b0b 	stmdbcc	fp, {r0, r1, r3, r8, r9, fp, ip, sp}
 5c0:	110c270b 	tstne	ip, fp, lsl #14
 5c4:	40011201 	andmi	r1, r1, r1, lsl #4
 5c8:	0c429706 	mcrreq	7, 0, r9, r2, cr6
 5cc:	00001301 	andeq	r1, r0, r1, lsl #6
 5d0:	0300050d 	movweq	r0, #1293	; 0x50d
 5d4:	3b0b3a0e 	blcc	2cee14 <_Min_Stack_Size+0x2cea14>
 5d8:	490b390b 	stmdbmi	fp, {r0, r1, r3, r8, fp, ip, sp}
 5dc:	000a0213 	andeq	r0, sl, r3, lsl r2
 5e0:	012e0e00 			; <UNDEFINED> instruction: 0x012e0e00
 5e4:	0e030c3f 	mcreq	12, 0, r0, cr3, cr15, {1}
 5e8:	0b3b0b3a 	bleq	ec32d8 <_Min_Stack_Size+0xec2ed8>
 5ec:	0c270b39 			; <UNDEFINED> instruction: 0x0c270b39
 5f0:	01111349 	tsteq	r1, r9, asr #6
 5f4:	06400112 			; <UNDEFINED> instruction: 0x06400112
 5f8:	010c4297 			; <UNDEFINED> instruction: 0x010c4297
 5fc:	0f000013 	svceq	0x00000013
 600:	0e030034 	mcreq	0, 0, r0, cr3, cr4, {1}
 604:	0b3b0b3a 	bleq	ec32f4 <_Min_Stack_Size+0xec2ef4>
 608:	13490b39 	movtne	r0, #39737	; 0x9b39
 60c:	00000a02 	andeq	r0, r0, r2, lsl #20
 610:	3f012e10 	svccc	0x00012e10
 614:	3a0e030c 	bcc	38124c <_Min_Stack_Size+0x380e4c>
 618:	390b3b0b 	stmdbcc	fp, {r0, r1, r3, r8, r9, fp, ip, sp}
 61c:	110c270b 	tstne	ip, fp, lsl #14
 620:	40011201 	andmi	r1, r1, r1, lsl #4
 624:	0c429606 	mcrreq	6, 0, r9, r2, cr6
 628:	00001301 	andeq	r1, r0, r1, lsl #6
 62c:	3f012e11 	svccc	0x00012e11
 630:	3a0e030c 	bcc	381268 <_Min_Stack_Size+0x380e68>
 634:	390b3b0b 	stmdbcc	fp, {r0, r1, r3, r8, r9, fp, ip, sp}
 638:	490c270b 	stmdbmi	ip, {r0, r1, r3, r8, r9, sl, sp}
 63c:	12011113 	andne	r1, r1, #-1073741820	; 0xc0000004
 640:	97064001 	strls	r4, [r6, -r1]
 644:	00000c42 	andeq	r0, r0, r2, asr #24
	...

Disassembly of section .debug_loc:

00000000 <.debug_loc>:
   0:	08000350 	stmdaeq	r0, {r4, r6, r8, r9}
   4:	08000352 	stmdaeq	r0, {r1, r4, r6, r8, r9}
   8:	007d0002 	rsbseq	r0, sp, r2
   c:	08000352 	stmdaeq	r0, {r1, r4, r6, r8, r9}
  10:	08000354 	stmdaeq	r0, {r2, r4, r6, r8, r9}
  14:	087d0002 	ldmdaeq	sp!, {r1}^
  18:	08000354 	stmdaeq	r0, {r2, r4, r6, r8, r9}
  1c:	08000356 	stmdaeq	r0, {r1, r2, r4, r6, r8, r9}
  20:	287d0002 	ldmdacs	sp!, {r1}^
  24:	08000356 	stmdaeq	r0, {r1, r2, r4, r6, r8, r9}
  28:	080003c8 	stmdaeq	r0, {r3, r6, r7, r8, r9}
  2c:	28770002 	ldmdacs	r7!, {r1}^
	...
  38:	0800025c 	stmdaeq	r0, {r2, r3, r4, r6, r9}
  3c:	0800025e 	stmdaeq	r0, {r1, r2, r3, r4, r6, r9}
  40:	007d0002 	rsbseq	r0, sp, r2
  44:	0800025e 	stmdaeq	r0, {r1, r2, r3, r4, r6, r9}
  48:	08000260 	stmdaeq	r0, {r5, r6, r9}
  4c:	087d0002 	ldmdaeq	sp!, {r1}^
  50:	08000260 	stmdaeq	r0, {r5, r6, r9}
  54:	08000350 	stmdaeq	r0, {r4, r6, r8, r9}
  58:	08770002 	ldmdaeq	r7!, {r1}^
	...
  64:	08000236 	stmdaeq	r0, {r1, r2, r4, r5, r9}
  68:	08000238 	stmdaeq	r0, {r3, r4, r5, r9}
  6c:	007d0002 	rsbseq	r0, sp, r2
  70:	08000238 	stmdaeq	r0, {r3, r4, r5, r9}
  74:	0800023a 	stmdaeq	r0, {r1, r3, r4, r5, r9}
  78:	047d0002 	ldrbteq	r0, [sp], #-2
  7c:	0800023a 	stmdaeq	r0, {r1, r3, r4, r5, r9}
  80:	0800023c 	stmdaeq	r0, {r2, r3, r4, r5, r9}
  84:	187d0002 	ldmdane	sp!, {r1}^
  88:	0800023c 	stmdaeq	r0, {r2, r3, r4, r5, r9}
  8c:	08000256 	stmdaeq	r0, {r1, r2, r4, r6, r9}
  90:	18770002 	ldmdane	r7!, {r1}^
  94:	08000256 	stmdaeq	r0, {r1, r2, r4, r6, r9}
  98:	08000258 	stmdaeq	r0, {r3, r4, r6, r9}
  9c:	04770002 	ldrbteq	r0, [r7], #-2
  a0:	08000258 	stmdaeq	r0, {r3, r4, r6, r9}
  a4:	0800025a 	stmdaeq	r0, {r1, r3, r4, r6, r9}
  a8:	047d0002 	ldrbteq	r0, [sp], #-2
  ac:	0800025a 	stmdaeq	r0, {r1, r3, r4, r6, r9}
  b0:	0800025c 	stmdaeq	r0, {r2, r3, r4, r6, r9}
  b4:	007d0002 	rsbseq	r0, sp, r2
	...
  c0:	08000216 	stmdaeq	r0, {r1, r2, r4, r9}
  c4:	08000218 	stmdaeq	r0, {r3, r4, r9}
  c8:	007d0002 	rsbseq	r0, sp, r2
  cc:	08000218 	stmdaeq	r0, {r3, r4, r9}
  d0:	0800021a 	stmdaeq	r0, {r1, r3, r4, r9}
  d4:	047d0002 	ldrbteq	r0, [sp], #-2
  d8:	0800021a 	stmdaeq	r0, {r1, r3, r4, r9}
  dc:	0800021c 	stmdaeq	r0, {r2, r3, r4, r9}
  e0:	187d0002 	ldmdane	sp!, {r1}^
  e4:	0800021c 	stmdaeq	r0, {r2, r3, r4, r9}
  e8:	08000230 	stmdaeq	r0, {r4, r5, r9}
  ec:	18770002 	ldmdane	r7!, {r1}^
  f0:	08000230 	stmdaeq	r0, {r4, r5, r9}
  f4:	08000232 	stmdaeq	r0, {r1, r4, r5, r9}
  f8:	04770002 	ldrbteq	r0, [r7], #-2
  fc:	08000232 	stmdaeq	r0, {r1, r4, r5, r9}
 100:	08000234 	stmdaeq	r0, {r2, r4, r5, r9}
 104:	047d0002 	ldrbteq	r0, [sp], #-2
 108:	08000234 	stmdaeq	r0, {r2, r4, r5, r9}
 10c:	08000236 	stmdaeq	r0, {r1, r2, r4, r5, r9}
 110:	007d0002 	rsbseq	r0, sp, r2
	...
 11c:	08000208 	stmdaeq	r0, {r3, r9}
 120:	0800020a 	stmdaeq	r0, {r1, r3, r9}
 124:	007d0002 	rsbseq	r0, sp, r2
 128:	0800020a 	stmdaeq	r0, {r1, r3, r9}
 12c:	0800020c 	stmdaeq	r0, {r2, r3, r9}
 130:	087d0002 	ldmdaeq	sp!, {r1}^
 134:	0800020c 	stmdaeq	r0, {r2, r3, r9}
 138:	08000216 	stmdaeq	r0, {r1, r2, r4, r9}
 13c:	08770002 	ldmdaeq	r7!, {r1}^
	...
 148:	080001fc 	stmdaeq	r0, {r2, r3, r4, r5, r6, r7, r8}
 14c:	080001fe 	stmdaeq	r0, {r1, r2, r3, r4, r5, r6, r7, r8}
 150:	007d0002 	rsbseq	r0, sp, r2
 154:	080001fe 	stmdaeq	r0, {r1, r2, r3, r4, r5, r6, r7, r8}
 158:	08000200 	stmdaeq	r0, {r9}
 15c:	047d0002 	ldrbteq	r0, [sp], #-2
 160:	08000200 	stmdaeq	r0, {r9}
 164:	08000204 	stmdaeq	r0, {r2, r9}
 168:	04770002 	ldrbteq	r0, [r7], #-2
 16c:	08000204 	stmdaeq	r0, {r2, r9}
 170:	08000206 	stmdaeq	r0, {r1, r2, r9}
 174:	047d0002 	ldrbteq	r0, [sp], #-2
 178:	08000206 	stmdaeq	r0, {r1, r2, r9}
 17c:	08000208 	stmdaeq	r0, {r3, r9}
 180:	007d0002 	rsbseq	r0, sp, r2
	...
 18c:	080001c0 	stmdaeq	r0, {r6, r7, r8}
 190:	080001c2 	stmdaeq	r0, {r1, r6, r7, r8}
 194:	007d0002 	rsbseq	r0, sp, r2
 198:	080001c2 	stmdaeq	r0, {r1, r6, r7, r8}
 19c:	080001c4 	stmdaeq	r0, {r2, r6, r7, r8}
 1a0:	047d0002 	ldrbteq	r0, [sp], #-2
 1a4:	080001c4 	stmdaeq	r0, {r2, r6, r7, r8}
 1a8:	080001ea 	stmdaeq	r0, {r1, r3, r5, r6, r7, r8}
 1ac:	04770002 	ldrbteq	r0, [r7], #-2
 1b0:	080001ea 	stmdaeq	r0, {r1, r3, r5, r6, r7, r8}
 1b4:	080001ec 	stmdaeq	r0, {r2, r3, r5, r6, r7, r8}
 1b8:	047d0002 	ldrbteq	r0, [sp], #-2
 1bc:	080001ec 	stmdaeq	r0, {r2, r3, r5, r6, r7, r8}
 1c0:	080001fc 	stmdaeq	r0, {r2, r3, r4, r5, r6, r7, r8}
 1c4:	007d0002 	rsbseq	r0, sp, r2
	...
 1d0:	080001b0 	stmdaeq	r0, {r4, r5, r7, r8}
 1d4:	080001b2 	stmdaeq	r0, {r1, r4, r5, r7, r8}
 1d8:	007d0002 	rsbseq	r0, sp, r2
 1dc:	080001b2 	stmdaeq	r0, {r1, r4, r5, r7, r8}
 1e0:	080001b4 	stmdaeq	r0, {r2, r4, r5, r7, r8}
 1e4:	087d0002 	ldmdaeq	sp!, {r1}^
 1e8:	080001b4 	stmdaeq	r0, {r2, r4, r5, r7, r8}
 1ec:	080001be 	stmdaeq	r0, {r1, r2, r3, r4, r5, r7, r8}
 1f0:	08770002 	ldmdaeq	r7!, {r1}^
	...
 1fc:	08000170 	stmdaeq	r0, {r4, r5, r6, r8}
 200:	08000172 	stmdaeq	r0, {r1, r4, r5, r6, r8}
 204:	007d0002 	rsbseq	r0, sp, r2
 208:	08000172 	stmdaeq	r0, {r1, r4, r5, r6, r8}
 20c:	08000174 	stmdaeq	r0, {r2, r4, r5, r6, r8}
 210:	047d0002 	ldrbteq	r0, [sp], #-2
 214:	08000174 	stmdaeq	r0, {r2, r4, r5, r6, r8}
 218:	08000176 	stmdaeq	r0, {r1, r2, r4, r5, r6, r8}
 21c:	107d0002 	rsbsne	r0, sp, r2
 220:	08000176 	stmdaeq	r0, {r1, r2, r4, r5, r6, r8}
 224:	080001aa 	stmdaeq	r0, {r1, r3, r5, r7, r8}
 228:	10770002 	rsbsne	r0, r7, r2
 22c:	080001aa 	stmdaeq	r0, {r1, r3, r5, r7, r8}
 230:	080001ac 	stmdaeq	r0, {r2, r3, r5, r7, r8}
 234:	04770002 	ldrbteq	r0, [r7], #-2
 238:	080001ac 	stmdaeq	r0, {r2, r3, r5, r7, r8}
 23c:	080001ae 	stmdaeq	r0, {r1, r2, r3, r5, r7, r8}
 240:	047d0002 	ldrbteq	r0, [sp], #-2
 244:	080001ae 	stmdaeq	r0, {r1, r2, r3, r5, r7, r8}
 248:	080001b0 	stmdaeq	r0, {r4, r5, r7, r8}
 24c:	007d0002 	rsbseq	r0, sp, r2
	...
 258:	080008f0 	stmdaeq	r0, {r4, r5, r6, r7, fp}
 25c:	080008f2 	stmdaeq	r0, {r1, r4, r5, r6, r7, fp}
 260:	007d0002 	rsbseq	r0, sp, r2
 264:	080008f2 	stmdaeq	r0, {r1, r4, r5, r6, r7, fp}
 268:	080008f4 	stmdaeq	r0, {r2, r4, r5, r6, r7, fp}
 26c:	087d0002 	ldmdaeq	sp!, {r1}^
 270:	080008f4 	stmdaeq	r0, {r2, r4, r5, r6, r7, fp}
 274:	080009b4 	stmdaeq	r0, {r2, r4, r5, r7, r8, fp}
 278:	08770002 	ldmdaeq	r7!, {r1}^
	...
 284:	08000848 	stmdaeq	r0, {r3, r6, fp}
 288:	0800084a 	stmdaeq	r0, {r1, r3, r6, fp}
 28c:	007d0002 	rsbseq	r0, sp, r2
 290:	0800084a 	stmdaeq	r0, {r1, r3, r6, fp}
 294:	0800084c 	stmdaeq	r0, {r2, r3, r6, fp}
 298:	087d0002 	ldmdaeq	sp!, {r1}^
 29c:	0800084c 	stmdaeq	r0, {r2, r3, r6, fp}
 2a0:	080008f0 	stmdaeq	r0, {r4, r5, r6, r7, fp}
 2a4:	08770002 	ldmdaeq	r7!, {r1}^
	...
 2b0:	08000824 	stmdaeq	r0, {r2, r5, fp}
 2b4:	08000826 	stmdaeq	r0, {r1, r2, r5, fp}
 2b8:	007d0002 	rsbseq	r0, sp, r2
 2bc:	08000826 	stmdaeq	r0, {r1, r2, r5, fp}
 2c0:	08000828 	stmdaeq	r0, {r3, r5, fp}
 2c4:	087d0002 	ldmdaeq	sp!, {r1}^
 2c8:	08000828 	stmdaeq	r0, {r3, r5, fp}
 2cc:	08000848 	stmdaeq	r0, {r3, r6, fp}
 2d0:	08770002 	ldmdaeq	r7!, {r1}^
	...
 2dc:	08000800 	stmdaeq	r0, {fp}
 2e0:	08000802 	stmdaeq	r0, {r1, fp}
 2e4:	007d0002 	rsbseq	r0, sp, r2
 2e8:	08000802 	stmdaeq	r0, {r1, fp}
 2ec:	08000804 	stmdaeq	r0, {r2, fp}
 2f0:	087d0002 	ldmdaeq	sp!, {r1}^
 2f4:	08000804 	stmdaeq	r0, {r2, fp}
 2f8:	08000824 	stmdaeq	r0, {r2, r5, fp}
 2fc:	08770002 	ldmdaeq	r7!, {r1}^
	...
 308:	080007dc 	stmdaeq	r0, {r2, r3, r4, r6, r7, r8, r9, sl}
 30c:	080007de 	stmdaeq	r0, {r1, r2, r3, r4, r6, r7, r8, r9, sl}
 310:	007d0002 	rsbseq	r0, sp, r2
 314:	080007de 	stmdaeq	r0, {r1, r2, r3, r4, r6, r7, r8, r9, sl}
 318:	080007e0 	stmdaeq	r0, {r5, r6, r7, r8, r9, sl}
 31c:	087d0002 	ldmdaeq	sp!, {r1}^
 320:	080007e0 	stmdaeq	r0, {r5, r6, r7, r8, r9, sl}
 324:	08000800 	stmdaeq	r0, {fp}
 328:	08770002 	ldmdaeq	r7!, {r1}^
	...
 334:	080007b8 	stmdaeq	r0, {r3, r4, r5, r7, r8, r9, sl}
 338:	080007ba 	stmdaeq	r0, {r1, r3, r4, r5, r7, r8, r9, sl}
 33c:	007d0002 	rsbseq	r0, sp, r2
 340:	080007ba 	stmdaeq	r0, {r1, r3, r4, r5, r7, r8, r9, sl}
 344:	080007bc 	stmdaeq	r0, {r2, r3, r4, r5, r7, r8, r9, sl}
 348:	087d0002 	ldmdaeq	sp!, {r1}^
 34c:	080007bc 	stmdaeq	r0, {r2, r3, r4, r5, r7, r8, r9, sl}
 350:	080007dc 	stmdaeq	r0, {r2, r3, r4, r6, r7, r8, r9, sl}
 354:	08770002 	ldmdaeq	r7!, {r1}^
	...
 360:	08000794 	stmdaeq	r0, {r2, r4, r7, r8, r9, sl}
 364:	08000796 	stmdaeq	r0, {r1, r2, r4, r7, r8, r9, sl}
 368:	007d0002 	rsbseq	r0, sp, r2
 36c:	08000796 	stmdaeq	r0, {r1, r2, r4, r7, r8, r9, sl}
 370:	08000798 	stmdaeq	r0, {r3, r4, r7, r8, r9, sl}
 374:	087d0002 	ldmdaeq	sp!, {r1}^
 378:	08000798 	stmdaeq	r0, {r3, r4, r7, r8, r9, sl}
 37c:	080007b8 	stmdaeq	r0, {r3, r4, r5, r7, r8, r9, sl}
 380:	08770002 	ldmdaeq	r7!, {r1}^
	...
 38c:	0800077c 	stmdaeq	r0, {r2, r3, r4, r5, r6, r8, r9, sl}
 390:	0800077e 	stmdaeq	r0, {r1, r2, r3, r4, r5, r6, r8, r9, sl}
 394:	007d0002 	rsbseq	r0, sp, r2
 398:	0800077e 	stmdaeq	r0, {r1, r2, r3, r4, r5, r6, r8, r9, sl}
 39c:	08000780 	stmdaeq	r0, {r7, r8, r9, sl}
 3a0:	087d0002 	ldmdaeq	sp!, {r1}^
 3a4:	08000780 	stmdaeq	r0, {r7, r8, r9, sl}
 3a8:	08000782 	stmdaeq	r0, {r1, r7, r8, r9, sl}
 3ac:	107d0002 	rsbsne	r0, sp, r2
 3b0:	08000782 	stmdaeq	r0, {r1, r7, r8, r9, sl}
 3b4:	0800078e 	stmdaeq	r0, {r1, r2, r3, r7, r8, r9, sl}
 3b8:	10770002 	rsbsne	r0, r7, r2
 3bc:	0800078e 	stmdaeq	r0, {r1, r2, r3, r7, r8, r9, sl}
 3c0:	08000790 	stmdaeq	r0, {r4, r7, r8, r9, sl}
 3c4:	08770002 	ldmdaeq	r7!, {r1}^
 3c8:	08000790 	stmdaeq	r0, {r4, r7, r8, r9, sl}
 3cc:	08000792 	stmdaeq	r0, {r1, r4, r7, r8, r9, sl}
 3d0:	087d0002 	ldmdaeq	sp!, {r1}^
	...
 3e4:	007d0002 	rsbseq	r0, sp, r2
	...
 3f0:	087d0002 	ldmdaeq	sp!, {r1}^
	...
 3fc:	107d0002 	rsbsne	r0, sp, r2
	...
 408:	10770002 	rsbsne	r0, r7, r2
	...
 414:	08770002 	ldmdaeq	r7!, {r1}^
	...
 420:	087d0002 	ldmdaeq	sp!, {r1}^
	...
 434:	007d0002 	rsbseq	r0, sp, r2
	...
 440:	047d0002 	ldrbteq	r0, [sp], #-2
	...
 44c:	04770002 	ldrbteq	r0, [r7], #-2
	...
 458:	047d0002 	ldrbteq	r0, [sp], #-2
	...
 464:	007d0002 	rsbseq	r0, sp, r2
	...
 470:	080005ac 	stmdaeq	r0, {r2, r3, r5, r7, r8, sl}
 474:	080005ae 	stmdaeq	r0, {r1, r2, r3, r5, r7, r8, sl}
 478:	007d0002 	rsbseq	r0, sp, r2
 47c:	080005ae 	stmdaeq	r0, {r1, r2, r3, r5, r7, r8, sl}
 480:	080005b0 	stmdaeq	r0, {r4, r5, r7, r8, sl}
 484:	087d0002 	ldmdaeq	sp!, {r1}^
 488:	080005b0 	stmdaeq	r0, {r4, r5, r7, r8, sl}
 48c:	080005b2 	stmdaeq	r0, {r1, r4, r5, r7, r8, sl}
 490:	187d0002 	ldmdane	sp!, {r1}^
 494:	080005b2 	stmdaeq	r0, {r1, r4, r5, r7, r8, sl}
 498:	0800075c 	stmdaeq	r0, {r2, r3, r4, r6, r8, r9, sl}
 49c:	18770002 	ldmdane	r7!, {r1}^
 4a0:	0800075c 	stmdaeq	r0, {r2, r3, r4, r6, r8, r9, sl}
 4a4:	0800075e 	stmdaeq	r0, {r1, r2, r3, r4, r6, r8, r9, sl}
 4a8:	08770002 	ldmdaeq	r7!, {r1}^
 4ac:	0800075e 	stmdaeq	r0, {r1, r2, r3, r4, r6, r8, r9, sl}
 4b0:	0800077c 	stmdaeq	r0, {r2, r3, r4, r5, r6, r8, r9, sl}
 4b4:	087d0002 	ldmdaeq	sp!, {r1}^
	...
 4c0:	080004e4 	stmdaeq	r0, {r2, r5, r6, r7, sl}
 4c4:	080004e6 	stmdaeq	r0, {r1, r2, r5, r6, r7, sl}
 4c8:	007d0002 	rsbseq	r0, sp, r2
 4cc:	080004e6 	stmdaeq	r0, {r1, r2, r5, r6, r7, sl}
 4d0:	080004e8 	stmdaeq	r0, {r3, r5, r6, r7, sl}
 4d4:	047d0002 	ldrbteq	r0, [sp], #-2
 4d8:	080004e8 	stmdaeq	r0, {r3, r5, r6, r7, sl}
 4dc:	080004ea 	stmdaeq	r0, {r1, r3, r5, r6, r7, sl}
 4e0:	107d0002 	rsbsne	r0, sp, r2
 4e4:	080004ea 	stmdaeq	r0, {r1, r3, r5, r6, r7, sl}
 4e8:	0800059e 	stmdaeq	r0, {r1, r2, r3, r4, r7, r8, sl}
 4ec:	10770002 	rsbsne	r0, r7, r2
 4f0:	0800059e 	stmdaeq	r0, {r1, r2, r3, r4, r7, r8, sl}
 4f4:	080005a0 	stmdaeq	r0, {r5, r7, r8, sl}
 4f8:	04770002 	ldrbteq	r0, [r7], #-2
 4fc:	080005a0 	stmdaeq	r0, {r5, r7, r8, sl}
 500:	080005a2 	stmdaeq	r0, {r1, r5, r7, r8, sl}
 504:	047d0002 	ldrbteq	r0, [sp], #-2
 508:	080005a2 	stmdaeq	r0, {r1, r5, r7, r8, sl}
 50c:	080005ac 	stmdaeq	r0, {r2, r3, r5, r7, r8, sl}
 510:	007d0002 	rsbseq	r0, sp, r2
	...
 51c:	0800041c 	stmdaeq	r0, {r2, r3, r4, sl}
 520:	0800041e 	stmdaeq	r0, {r1, r2, r3, r4, sl}
 524:	007d0002 	rsbseq	r0, sp, r2
 528:	0800041e 	stmdaeq	r0, {r1, r2, r3, r4, sl}
 52c:	08000420 	stmdaeq	r0, {r5, sl}
 530:	047d0002 	ldrbteq	r0, [sp], #-2
 534:	08000420 	stmdaeq	r0, {r5, sl}
 538:	08000422 	stmdaeq	r0, {r1, r5, sl}
 53c:	107d0002 	rsbsne	r0, sp, r2
 540:	08000422 	stmdaeq	r0, {r1, r5, sl}
 544:	080004d6 	stmdaeq	r0, {r1, r2, r4, r6, r7, sl}
 548:	10770002 	rsbsne	r0, r7, r2
 54c:	080004d6 	stmdaeq	r0, {r1, r2, r4, r6, r7, sl}
 550:	080004d8 	stmdaeq	r0, {r3, r4, r6, r7, sl}
 554:	04770002 	ldrbteq	r0, [r7], #-2
 558:	080004d8 	stmdaeq	r0, {r3, r4, r6, r7, sl}
 55c:	080004da 	stmdaeq	r0, {r1, r3, r4, r6, r7, sl}
 560:	047d0002 	ldrbteq	r0, [sp], #-2
 564:	080004da 	stmdaeq	r0, {r1, r3, r4, r6, r7, sl}
 568:	080004e4 	stmdaeq	r0, {r2, r5, r6, r7, sl}
 56c:	007d0002 	rsbseq	r0, sp, r2
	...
 578:	080009dc 	stmdaeq	r0, {r2, r3, r4, r6, r7, r8, fp}
 57c:	080009de 	stmdaeq	r0, {r1, r2, r3, r4, r6, r7, r8, fp}
 580:	007d0002 	rsbseq	r0, sp, r2
 584:	080009de 	stmdaeq	r0, {r1, r2, r3, r4, r6, r7, r8, fp}
 588:	080009e0 	stmdaeq	r0, {r5, r6, r7, r8, fp}
 58c:	087d0002 	ldmdaeq	sp!, {r1}^
 590:	080009e0 	stmdaeq	r0, {r5, r6, r7, r8, fp}
 594:	080009f0 	stmdaeq	r0, {r4, r5, r6, r7, r8, fp}
 598:	08770002 	ldmdaeq	r7!, {r1}^
	...
 5a4:	080009c8 	stmdaeq	r0, {r3, r6, r7, r8, fp}
 5a8:	080009ca 	stmdaeq	r0, {r1, r3, r6, r7, r8, fp}
 5ac:	007d0002 	rsbseq	r0, sp, r2
 5b0:	080009ca 	stmdaeq	r0, {r1, r3, r6, r7, r8, fp}
 5b4:	080009cc 	stmdaeq	r0, {r2, r3, r6, r7, r8, fp}
 5b8:	087d0002 	ldmdaeq	sp!, {r1}^
 5bc:	080009cc 	stmdaeq	r0, {r2, r3, r6, r7, r8, fp}
 5c0:	080009dc 	stmdaeq	r0, {r2, r3, r4, r6, r7, r8, fp}
 5c4:	08770002 	ldmdaeq	r7!, {r1}^
	...
 5d0:	080009b4 	stmdaeq	r0, {r2, r4, r5, r7, r8, fp}
 5d4:	080009b6 	stmdaeq	r0, {r1, r2, r4, r5, r7, r8, fp}
 5d8:	007d0002 	rsbseq	r0, sp, r2
 5dc:	080009b6 	stmdaeq	r0, {r1, r2, r4, r5, r7, r8, fp}
 5e0:	080009b8 	stmdaeq	r0, {r3, r4, r5, r7, r8, fp}
 5e4:	087d0002 	ldmdaeq	sp!, {r1}^
 5e8:	080009b8 	stmdaeq	r0, {r3, r4, r5, r7, r8, fp}
 5ec:	080009c8 	stmdaeq	r0, {r3, r6, r7, r8, fp}
 5f0:	08770002 	ldmdaeq	r7!, {r1}^
	...
 604:	007d0002 	rsbseq	r0, sp, r2
	...
 610:	047d0002 	ldrbteq	r0, [sp], #-2
	...
 61c:	107d0002 	rsbsne	r0, sp, r2
	...
 628:	10770002 	rsbsne	r0, r7, r2
	...
 634:	04770002 	ldrbteq	r0, [r7], #-2
	...
 640:	047d0002 	ldrbteq	r0, [sp], #-2
	...
 64c:	007d0002 	rsbseq	r0, sp, r2
	...
 660:	007d0002 	rsbseq	r0, sp, r2
	...
 66c:	047d0002 	ldrbteq	r0, [sp], #-2
	...
 678:	187d0002 	ldmdane	sp!, {r1}^
	...
 684:	18770002 	ldmdane	r7!, {r1}^
	...
 690:	04770002 	ldrbteq	r0, [r7], #-2
	...
 69c:	047d0002 	ldrbteq	r0, [sp], #-2
	...
 6a8:	007d0002 	rsbseq	r0, sp, r2
	...
 6bc:	007d0002 	rsbseq	r0, sp, r2
	...
 6c8:	047d0002 	ldrbteq	r0, [sp], #-2
	...
 6d4:	187d0002 	ldmdane	sp!, {r1}^
	...
 6e0:	18770002 	ldmdane	r7!, {r1}^
	...
 6ec:	04770002 	ldrbteq	r0, [r7], #-2
	...
 6f8:	047d0002 	ldrbteq	r0, [sp], #-2
	...
 704:	007d0002 	rsbseq	r0, sp, r2
	...
 718:	007d0002 	rsbseq	r0, sp, r2
	...
 724:	047d0002 	ldrbteq	r0, [sp], #-2
	...
 730:	107d0002 	rsbsne	r0, sp, r2
	...
 73c:	10770002 	rsbsne	r0, r7, r2
	...
 748:	04770002 	ldrbteq	r0, [r7], #-2
	...
 754:	047d0002 	ldrbteq	r0, [sp], #-2
	...
 760:	007d0002 	rsbseq	r0, sp, r2
	...
 774:	007d0002 	rsbseq	r0, sp, r2
	...
 780:	087d0002 	ldmdaeq	sp!, {r1}^
	...
 78c:	187d0002 	ldmdane	sp!, {r1}^
	...
 798:	18770002 	ldmdane	r7!, {r1}^
	...
 7a4:	08770002 	ldmdaeq	r7!, {r1}^
	...
 7b0:	087d0002 	ldmdaeq	sp!, {r1}^
	...
 7c4:	007d0002 	rsbseq	r0, sp, r2
	...
 7d0:	087d0002 	ldmdaeq	sp!, {r1}^
	...
 7dc:	187d0002 	ldmdane	sp!, {r1}^
	...
 7e8:	18770002 	ldmdane	r7!, {r1}^
	...
 7f4:	08770002 	ldmdaeq	r7!, {r1}^
	...
 800:	087d0002 	ldmdaeq	sp!, {r1}^
	...
 814:	007d0002 	rsbseq	r0, sp, r2
	...
 820:	047d0002 	ldrbteq	r0, [sp], #-2
	...
 82c:	107d0002 	rsbsne	r0, sp, r2
	...
 838:	10770002 	rsbsne	r0, r7, r2
	...
 844:	04770002 	ldrbteq	r0, [r7], #-2
	...
 850:	047d0002 	ldrbteq	r0, [sp], #-2
	...
 85c:	007d0002 	rsbseq	r0, sp, r2
	...
 870:	007d0002 	rsbseq	r0, sp, r2
	...
 87c:	047d0002 	ldrbteq	r0, [sp], #-2
	...
 888:	107d0002 	rsbsne	r0, sp, r2
	...
 894:	10770002 	rsbsne	r0, r7, r2
	...
 8a0:	04770002 	ldrbteq	r0, [r7], #-2
	...
 8ac:	047d0002 	ldrbteq	r0, [sp], #-2
	...
 8b8:	007d0002 	rsbseq	r0, sp, r2
	...
 8cc:	007d0002 	rsbseq	r0, sp, r2
	...
 8d8:	047d0002 	ldrbteq	r0, [sp], #-2
	...
 8e4:	107d0002 	rsbsne	r0, sp, r2
	...
 8f0:	10770002 	rsbsne	r0, r7, r2
	...
 8fc:	04770002 	ldrbteq	r0, [r7], #-2
	...
 908:	047d0002 	ldrbteq	r0, [sp], #-2
	...
 914:	007d0002 	rsbseq	r0, sp, r2
	...
 928:	007d0002 	rsbseq	r0, sp, r2
	...
 934:	047d0002 	ldrbteq	r0, [sp], #-2
	...
 940:	187d0002 	ldmdane	sp!, {r1}^
	...
 94c:	18770002 	ldmdane	r7!, {r1}^
	...
 958:	04770002 	ldrbteq	r0, [r7], #-2
	...
 964:	047d0002 	ldrbteq	r0, [sp], #-2
	...
 970:	007d0002 	rsbseq	r0, sp, r2
	...
 984:	007d0002 	rsbseq	r0, sp, r2
	...
 990:	047d0002 	ldrbteq	r0, [sp], #-2
	...
 99c:	187d0002 	ldmdane	sp!, {r1}^
	...
 9a8:	18770002 	ldmdane	r7!, {r1}^
	...
 9b4:	04770002 	ldrbteq	r0, [r7], #-2
	...
 9c0:	047d0002 	ldrbteq	r0, [sp], #-2
	...
 9cc:	007d0002 	rsbseq	r0, sp, r2
	...
 9e0:	007d0002 	rsbseq	r0, sp, r2
	...
 9ec:	047d0002 	ldrbteq	r0, [sp], #-2
	...
 9f8:	107d0002 	rsbsne	r0, sp, r2
	...
 a04:	10770002 	rsbsne	r0, r7, r2
	...
 a10:	04770002 	ldrbteq	r0, [r7], #-2
	...
 a1c:	047d0002 	ldrbteq	r0, [sp], #-2
	...
 a28:	007d0002 	rsbseq	r0, sp, r2
	...
 a34:	08000b60 	stmdaeq	r0, {r5, r6, r8, r9, fp}
 a38:	08000b62 	stmdaeq	r0, {r1, r5, r6, r8, r9, fp}
 a3c:	007d0002 	rsbseq	r0, sp, r2
 a40:	08000b62 	stmdaeq	r0, {r1, r5, r6, r8, r9, fp}
 a44:	08000b64 	stmdaeq	r0, {r2, r5, r6, r8, r9, fp}
 a48:	0c7d0002 	ldcleq	0, cr0, [sp], #-8
 a4c:	08000b64 	stmdaeq	r0, {r2, r5, r6, r8, r9, fp}
 a50:	08000b66 	stmdaeq	r0, {r1, r2, r5, r6, r8, r9, fp}
 a54:	207d0002 	rsbscs	r0, sp, r2
 a58:	08000b66 	stmdaeq	r0, {r1, r2, r5, r6, r8, r9, fp}
 a5c:	08000c54 	stmdaeq	r0, {r2, r4, r6, sl, fp}
 a60:	20770002 	rsbscs	r0, r7, r2
 a64:	08000c54 	stmdaeq	r0, {r2, r4, r6, sl, fp}
 a68:	08000c56 	stmdaeq	r0, {r1, r2, r4, r6, sl, fp}
 a6c:	0c770002 	ldcleq	0, cr0, [r7], #-8
 a70:	08000c56 	stmdaeq	r0, {r1, r2, r4, r6, sl, fp}
 a74:	08000c58 	stmdaeq	r0, {r3, r4, r6, sl, fp}
 a78:	0c7d0002 	ldcleq	0, cr0, [sp], #-8
	...
 a84:	080009f0 	stmdaeq	r0, {r4, r5, r6, r7, r8, fp}
 a88:	080009f2 	stmdaeq	r0, {r1, r4, r5, r6, r7, r8, fp}
 a8c:	007d0002 	rsbseq	r0, sp, r2
 a90:	080009f2 	stmdaeq	r0, {r1, r4, r5, r6, r7, r8, fp}
 a94:	080009f4 	stmdaeq	r0, {r2, r4, r5, r6, r7, r8, fp}
 a98:	047d0002 	ldrbteq	r0, [sp], #-2
 a9c:	080009f4 	stmdaeq	r0, {r2, r4, r5, r6, r7, r8, fp}
 aa0:	080009f6 	stmdaeq	r0, {r1, r2, r4, r5, r6, r7, r8, fp}
 aa4:	107d0002 	rsbsne	r0, sp, r2
 aa8:	080009f6 	stmdaeq	r0, {r1, r2, r4, r5, r6, r7, r8, fp}
 aac:	08000b58 	stmdaeq	r0, {r3, r4, r6, r8, r9, fp}
 ab0:	10770002 	rsbsne	r0, r7, r2
 ab4:	08000b58 	stmdaeq	r0, {r3, r4, r6, r8, r9, fp}
 ab8:	08000b5a 	stmdaeq	r0, {r1, r3, r4, r6, r8, r9, fp}
 abc:	04770002 	ldrbteq	r0, [r7], #-2
 ac0:	08000b5a 	stmdaeq	r0, {r1, r3, r4, r6, r8, r9, fp}
 ac4:	08000b5c 	stmdaeq	r0, {r2, r3, r4, r6, r8, r9, fp}
 ac8:	047d0002 	ldrbteq	r0, [sp], #-2
 acc:	08000b5c 	stmdaeq	r0, {r2, r3, r4, r6, r8, r9, fp}
 ad0:	08000b5e 	stmdaeq	r0, {r1, r2, r3, r4, r6, r8, r9, fp}
 ad4:	007d0002 	rsbseq	r0, sp, r2
	...

Disassembly of section .debug_aranges:

00000000 <.debug_aranges>:
   0:	0000005c 	andeq	r0, r0, ip, asr r0
   4:	00000002 	andeq	r0, r0, r2
   8:	00040000 	andeq	r0, r4, r0
   c:	00000000 	andeq	r0, r0, r0
  10:	08000170 	stmdaeq	r0, {r4, r5, r6, r8}
  14:	00000040 	andeq	r0, r0, r0, asr #32
  18:	080001b0 	stmdaeq	r0, {r4, r5, r7, r8}
  1c:	0000000e 	andeq	r0, r0, lr
  20:	080001c0 	stmdaeq	r0, {r6, r7, r8}
  24:	0000003c 	andeq	r0, r0, ip, lsr r0
  28:	080001fc 	stmdaeq	r0, {r2, r3, r4, r5, r6, r7, r8}
  2c:	0000000c 	andeq	r0, r0, ip
  30:	08000208 	stmdaeq	r0, {r3, r9}
  34:	0000000e 	andeq	r0, r0, lr
  38:	08000216 	stmdaeq	r0, {r1, r2, r4, r9}
  3c:	00000020 	andeq	r0, r0, r0, lsr #32
  40:	08000236 	stmdaeq	r0, {r1, r2, r4, r5, r9}
  44:	00000026 	andeq	r0, r0, r6, lsr #32
  48:	0800025c 	stmdaeq	r0, {r2, r3, r4, r6, r9}
  4c:	000000f4 	strdeq	r0, [r0], -r4
  50:	08000350 	stmdaeq	r0, {r4, r6, r8, r9}
  54:	00000078 	andeq	r0, r0, r8, ror r0
	...
  60:	00000024 	andeq	r0, r0, r4, lsr #32
  64:	05330002 	ldreq	r0, [r3, #-2]!
  68:	00040000 	andeq	r0, r4, r0
  6c:	00000000 	andeq	r0, r0, r0
  70:	080003c8 	stmdaeq	r0, {r3, r6, r7, r8, r9}
  74:	00000050 	andeq	r0, r0, r0, asr r0
  78:	08000418 	stmdaeq	r0, {r3, r4, sl}
  7c:	00000002 	andeq	r0, r0, r2
	...
  88:	0000007c 	andeq	r0, r0, ip, ror r0
  8c:	05550002 	ldrbeq	r0, [r5, #-2]
  90:	00040000 	andeq	r0, r4, r0
  94:	00000000 	andeq	r0, r0, r0
  98:	0800041c 	stmdaeq	r0, {r2, r3, r4, sl}
  9c:	000000c8 	andeq	r0, r0, r8, asr #1
  a0:	080004e4 	stmdaeq	r0, {r2, r5, r6, r7, sl}
  a4:	000000c8 	andeq	r0, r0, r8, asr #1
  a8:	080005ac 	stmdaeq	r0, {r2, r3, r5, r7, r8, sl}
  ac:	000001d0 	ldrdeq	r0, [r0], -r0	; <UNPREDICTABLE>
  b0:	00000000 	andeq	r0, r0, r0
  b4:	00000094 	muleq	r0, r4, r0
  b8:	00000000 	andeq	r0, r0, r0
  bc:	00000016 	andeq	r0, r0, r6, lsl r0
  c0:	0800077c 	stmdaeq	r0, {r2, r3, r4, r5, r6, r8, r9, sl}
  c4:	00000016 	andeq	r0, r0, r6, lsl r0
  c8:	08000794 	stmdaeq	r0, {r2, r4, r7, r8, r9, sl}
  cc:	00000024 	andeq	r0, r0, r4, lsr #32
  d0:	080007b8 	stmdaeq	r0, {r3, r4, r5, r7, r8, r9, sl}
  d4:	00000024 	andeq	r0, r0, r4, lsr #32
  d8:	080007dc 	stmdaeq	r0, {r2, r3, r4, r6, r7, r8, r9, sl}
  dc:	00000024 	andeq	r0, r0, r4, lsr #32
  e0:	08000800 	stmdaeq	r0, {fp}
  e4:	00000024 	andeq	r0, r0, r4, lsr #32
  e8:	08000824 	stmdaeq	r0, {r2, r5, fp}
  ec:	00000024 	andeq	r0, r0, r4, lsr #32
  f0:	08000848 	stmdaeq	r0, {r3, r6, fp}
  f4:	000000a8 	andeq	r0, r0, r8, lsr #1
  f8:	080008f0 	stmdaeq	r0, {r4, r5, r6, r7, fp}
  fc:	000000c4 	andeq	r0, r0, r4, asr #1
	...
 108:	0000005c 	andeq	r0, r0, ip, asr r0
 10c:	0a7f0002 	beq	1fc011c <_Min_Stack_Size+0x1fbfd1c>
 110:	00040000 	andeq	r0, r4, r0
	...
 11c:	00000184 	andeq	r0, r0, r4, lsl #3
 120:	00000000 	andeq	r0, r0, r0
 124:	000000d0 	ldrdeq	r0, [r0], -r0	; <UNPREDICTABLE>
 128:	00000000 	andeq	r0, r0, r0
 12c:	00000088 	andeq	r0, r0, r8, lsl #1
 130:	00000000 	andeq	r0, r0, r0
 134:	00000036 	andeq	r0, r0, r6, lsr r0
 138:	00000000 	andeq	r0, r0, r0
 13c:	0000005c 	andeq	r0, r0, ip, asr r0
 140:	00000000 	andeq	r0, r0, r0
 144:	00000022 	andeq	r0, r0, r2, lsr #32
 148:	080009b4 	stmdaeq	r0, {r2, r4, r5, r7, r8, fp}
 14c:	00000014 	andeq	r0, r0, r4, lsl r0
 150:	080009c8 	stmdaeq	r0, {r3, r6, r7, r8, fp}
 154:	00000014 	andeq	r0, r0, r4, lsl r0
 158:	080009dc 	stmdaeq	r0, {r2, r3, r4, r6, r7, r8, fp}
 15c:	00000014 	andeq	r0, r0, r4, lsl r0
	...
 168:	00000054 	andeq	r0, r0, r4, asr r0
 16c:	10590002 	subsne	r0, r9, r2
 170:	00040000 	andeq	r0, r4, r0
 174:	00000000 	andeq	r0, r0, r0
 178:	080009f0 	stmdaeq	r0, {r4, r5, r6, r7, r8, fp}
 17c:	0000016e 	andeq	r0, r0, lr, ror #2
 180:	08000b60 	stmdaeq	r0, {r5, r6, r8, r9, fp}
 184:	000000f8 	strdeq	r0, [r0], -r8
 188:	00000000 	andeq	r0, r0, r0
 18c:	000000cc 	andeq	r0, r0, ip, asr #1
 190:	00000000 	andeq	r0, r0, r0
 194:	0000002e 	andeq	r0, r0, lr, lsr #32
 198:	00000000 	andeq	r0, r0, r0
 19c:	0000001a 	andeq	r0, r0, sl, lsl r0
 1a0:	00000000 	andeq	r0, r0, r0
 1a4:	0000001c 	andeq	r0, r0, ip, lsl r0
 1a8:	00000000 	andeq	r0, r0, r0
 1ac:	0000002e 	andeq	r0, r0, lr, lsr #32
 1b0:	00000000 	andeq	r0, r0, r0
 1b4:	00000022 	andeq	r0, r0, r2, lsr #32
	...

Disassembly of section .debug_ranges:

00000000 <.debug_ranges>:
   0:	08000170 	stmdaeq	r0, {r4, r5, r6, r8}
   4:	080001b0 	stmdaeq	r0, {r4, r5, r7, r8}
   8:	080001b0 	stmdaeq	r0, {r4, r5, r7, r8}
   c:	080001be 	stmdaeq	r0, {r1, r2, r3, r4, r5, r7, r8}
  10:	080001c0 	stmdaeq	r0, {r6, r7, r8}
  14:	080001fc 	stmdaeq	r0, {r2, r3, r4, r5, r6, r7, r8}
  18:	080001fc 	stmdaeq	r0, {r2, r3, r4, r5, r6, r7, r8}
  1c:	08000208 	stmdaeq	r0, {r3, r9}
  20:	08000208 	stmdaeq	r0, {r3, r9}
  24:	08000216 	stmdaeq	r0, {r1, r2, r4, r9}
  28:	08000216 	stmdaeq	r0, {r1, r2, r4, r9}
  2c:	08000236 	stmdaeq	r0, {r1, r2, r4, r5, r9}
  30:	08000236 	stmdaeq	r0, {r1, r2, r4, r5, r9}
  34:	0800025c 	stmdaeq	r0, {r2, r3, r4, r6, r9}
  38:	0800025c 	stmdaeq	r0, {r2, r3, r4, r6, r9}
  3c:	08000350 	stmdaeq	r0, {r4, r6, r8, r9}
  40:	08000350 	stmdaeq	r0, {r4, r6, r8, r9}
  44:	080003c8 	stmdaeq	r0, {r3, r6, r7, r8, r9}
	...
  50:	ffffffff 			; <UNDEFINED> instruction: 0xffffffff
  54:	00000000 	andeq	r0, r0, r0
  58:	080003c8 	stmdaeq	r0, {r3, r6, r7, r8, r9}
  5c:	08000418 	stmdaeq	r0, {r3, r4, sl}
  60:	08000418 	stmdaeq	r0, {r3, r4, sl}
  64:	0800041a 	stmdaeq	r0, {r1, r3, r4, sl}
	...
  70:	0800041c 	stmdaeq	r0, {r2, r3, r4, sl}
  74:	080004e4 	stmdaeq	r0, {r2, r5, r6, r7, sl}
  78:	080004e4 	stmdaeq	r0, {r2, r5, r6, r7, sl}
  7c:	080005ac 	stmdaeq	r0, {r2, r3, r5, r7, r8, sl}
  80:	080005ac 	stmdaeq	r0, {r2, r3, r5, r7, r8, sl}
  84:	0800077c 	stmdaeq	r0, {r2, r3, r4, r5, r6, r8, r9, sl}
  88:	00000001 	andeq	r0, r0, r1
  8c:	00000001 	andeq	r0, r0, r1
  90:	00000001 	andeq	r0, r0, r1
  94:	00000001 	andeq	r0, r0, r1
  98:	0800077c 	stmdaeq	r0, {r2, r3, r4, r5, r6, r8, r9, sl}
  9c:	08000792 	stmdaeq	r0, {r1, r4, r7, r8, r9, sl}
  a0:	08000794 	stmdaeq	r0, {r2, r4, r7, r8, r9, sl}
  a4:	080007b8 	stmdaeq	r0, {r3, r4, r5, r7, r8, r9, sl}
  a8:	080007b8 	stmdaeq	r0, {r3, r4, r5, r7, r8, r9, sl}
  ac:	080007dc 	stmdaeq	r0, {r2, r3, r4, r6, r7, r8, r9, sl}
  b0:	080007dc 	stmdaeq	r0, {r2, r3, r4, r6, r7, r8, r9, sl}
  b4:	08000800 	stmdaeq	r0, {fp}
  b8:	08000800 	stmdaeq	r0, {fp}
  bc:	08000824 	stmdaeq	r0, {r2, r5, fp}
  c0:	08000824 	stmdaeq	r0, {r2, r5, fp}
  c4:	08000848 	stmdaeq	r0, {r3, r6, fp}
  c8:	08000848 	stmdaeq	r0, {r3, r6, fp}
  cc:	080008f0 	stmdaeq	r0, {r4, r5, r6, r7, fp}
  d0:	080008f0 	stmdaeq	r0, {r4, r5, r6, r7, fp}
  d4:	080009b4 	stmdaeq	r0, {r2, r4, r5, r7, r8, fp}
	...
  e0:	00000001 	andeq	r0, r0, r1
  e4:	00000001 	andeq	r0, r0, r1
  e8:	00000001 	andeq	r0, r0, r1
  ec:	00000001 	andeq	r0, r0, r1
  f0:	00000001 	andeq	r0, r0, r1
  f4:	00000001 	andeq	r0, r0, r1
  f8:	00000001 	andeq	r0, r0, r1
  fc:	00000001 	andeq	r0, r0, r1
 100:	00000001 	andeq	r0, r0, r1
 104:	00000001 	andeq	r0, r0, r1
 108:	00000001 	andeq	r0, r0, r1
 10c:	00000001 	andeq	r0, r0, r1
 110:	080009b4 	stmdaeq	r0, {r2, r4, r5, r7, r8, fp}
 114:	080009c8 	stmdaeq	r0, {r3, r6, r7, r8, fp}
 118:	080009c8 	stmdaeq	r0, {r3, r6, r7, r8, fp}
 11c:	080009dc 	stmdaeq	r0, {r2, r3, r4, r6, r7, r8, fp}
 120:	080009dc 	stmdaeq	r0, {r2, r3, r4, r6, r7, r8, fp}
 124:	080009f0 	stmdaeq	r0, {r4, r5, r6, r7, r8, fp}
	...
 130:	080009f0 	stmdaeq	r0, {r4, r5, r6, r7, r8, fp}
 134:	08000b5e 	stmdaeq	r0, {r1, r2, r3, r4, r6, r8, r9, fp}
 138:	08000b60 	stmdaeq	r0, {r5, r6, r8, r9, fp}
 13c:	08000c58 	stmdaeq	r0, {r3, r4, r6, sl, fp}
 140:	00000001 	andeq	r0, r0, r1
 144:	00000001 	andeq	r0, r0, r1
 148:	00000001 	andeq	r0, r0, r1
 14c:	00000001 	andeq	r0, r0, r1
 150:	00000001 	andeq	r0, r0, r1
 154:	00000001 	andeq	r0, r0, r1
 158:	00000001 	andeq	r0, r0, r1
 15c:	00000001 	andeq	r0, r0, r1
 160:	00000001 	andeq	r0, r0, r1
 164:	00000001 	andeq	r0, r0, r1
 168:	00000001 	andeq	r0, r0, r1
 16c:	00000001 	andeq	r0, r0, r1
	...

Disassembly of section .debug_macro:

00000000 <.debug_macro>:
       0:	00020004 	andeq	r0, r2, r4
       4:	07000000 	streq	r0, [r0, -r0]
       8:	0000019e 	muleq	r0, lr, r1
       c:	03010003 	movweq	r0, #4099	; 0x1003
      10:	10070618 	andne	r0, r7, r8, lsl r6
      14:	0300000c 	movweq	r0, #12
      18:	09050410 	stmdbeq	r5, {r4, sl}
      1c:	00009139 	andeq	r9, r0, r9, lsr r1
      20:	05070d03 	streq	r0, [r7, #-3331]	; 0xfffff2fd
      24:	00877f08 	addeq	r7, r7, r8, lsl #30
      28:	080a0300 	stmdaeq	sl, {r8, r9}
      2c:	000c2607 	andeq	r2, ip, r7, lsl #12
      30:	0b030400 	bleq	c1038 <_Min_Stack_Size+0xc0c38>
      34:	b8080509 	stmdalt	r8, {r0, r3, r8, sl}
      38:	03000058 	movweq	r0, #88	; 0x58
      3c:	08050a0a 	stmdaeq	r5, {r1, r3, r9, fp}
      40:	00001400 	andeq	r1, r0, r0, lsl #8
      44:	070b0e03 	streq	r0, [fp, -r3, lsl #28]
      48:	00000c3e 	andeq	r0, r0, lr, lsr ip
      4c:	0c600704 	stcleq	7, cr0, [r0], #-16
      50:	03040000 	movweq	r0, #16384	; 0x4000
      54:	02050c0b 	andeq	r0, r5, #2816	; 0xb00
      58:	00008657 	andeq	r8, r0, r7, asr r6
      5c:	04080403 	streq	r0, [r8], #-1027	; 0xfffffbfd
      60:	070d0503 	streq	r0, [sp, -r3, lsl #10]
      64:	00000cac 	andeq	r0, r0, ip, lsr #25
      68:	0d400704 	stcleq	7, cr0, [r0, #-16]
      6c:	07040000 	streq	r0, [r4, -r0]
      70:	00000d7c 	andeq	r0, r0, ip, ror sp
      74:	0db00704 	ldceq	7, cr0, [r0, #16]!
      78:	10030000 	andne	r0, r3, r0
      7c:	0dc6070e 	stcleq	7, cr0, [r6, #56]	; 0x38
      80:	03040000 	movweq	r0, #16384	; 0x4000
      84:	0b050f12 	bleq	143cd4 <_Min_Stack_Size+0x1438d4>
      88:	00005ca9 	andeq	r5, r0, r9, lsr #25
      8c:	04090d03 	streq	r0, [r9], #-3331	; 0xfffff2fd
      90:	070e0e03 	streq	r0, [lr, -r3, lsl #28]
      94:	00000ed4 	ldrdeq	r0, [r0], -r4
      98:	100f0304 	andne	r0, pc, r4, lsl #6
      9c:	000f6107 	andeq	r6, pc, r7, lsl #2
      a0:	0e180300 	cdpeq	3, 1, cr0, cr8, cr0, {0}
      a4:	000f7707 	andeq	r7, pc, r7, lsl #14
      a8:	1b030400 	blne	c10b0 <_Min_Stack_Size+0xc0cb0>
      ac:	08060511 	stmdaeq	r6, {r0, r4, r8, sl}
      b0:	03000061 	movweq	r0, #97	; 0x61
      b4:	ba070207 	blt	1c08d8 <_Min_Stack_Size+0x1c04d8>
      b8:	0400000f 	streq	r0, [r0], #-15
      bc:	10110704 	andsne	r0, r1, r4, lsl #14
      c0:	07040000 	streq	r0, [r4, -r0]
      c4:	00001045 	andeq	r1, r0, r5, asr #32
      c8:	07122203 	ldreq	r2, [r2, -r3, lsl #4]
      cc:	00001055 	andeq	r1, r0, r5, asr r0
      d0:	10ad0704 	adcne	r0, sp, r4, lsl #14
      d4:	f7030000 			; <UNDEFINED> instruction: 0xf7030000
      d8:	1e071303 	cdpne	3, 0, cr1, cr7, cr3, {0}
      dc:	04000011 	streq	r0, [r0], #-17	; 0xffffffef
      e0:	00113a07 	andseq	r3, r1, r7, lsl #20
      e4:	13030400 	movwne	r0, #13312	; 0x3400
      e8:	072b0514 			; <UNDEFINED> instruction: 0x072b0514
      ec:	0300008b 	movweq	r0, #139	; 0x8b
      f0:	07040e2f 	streq	r0, [r4, -pc, lsr #28]
      f4:	00001264 	andeq	r1, r0, r4, ror #4
      f8:	15140304 	ldrne	r0, [r4, #-772]	; 0xfffffcfc
      fc:	28730205 	ldmdacs	r3!, {r0, r2, r9}^
     100:	03040000 	movweq	r0, #16384	; 0x4000
     104:	a5071616 	strge	r1, [r7, #-1558]	; 0xfffff9ea
     108:	04000015 	streq	r0, [r0], #-21	; 0xffffffeb
     10c:	0015bb07 	andseq	fp, r5, r7, lsl #22
     110:	0e030400 	cfcpyseq	mvf0, mvf3
     114:	18090317 	stmdane	r9, {r0, r1, r2, r4, r8, r9}
     118:	06d50a05 	ldrbeq	r0, [r5], r5, lsl #20
     11c:	0d030000 	stceq	0, cr0, [r3, #-0]
     120:	15e40719 	strbne	r0, [r4, #1817]!	; 0x719
     124:	03040000 	movweq	r0, #16384	; 0x4000
     128:	e707030e 	str	r0, [r7, -lr, lsl #6]
     12c:	04000016 	streq	r0, [r0], #-22	; 0xffffffea
     130:	00175107 	andseq	r5, r7, r7, lsl #2
     134:	0d050400 	cfstrseq	mvf0, [r5, #-0]
     138:	000006cc 	andeq	r0, r0, ip, asr #13
     13c:	19300704 	ldmdbne	r0!, {r2, r8, r9, sl}
     140:	07040000 	streq	r0, [r4, -r0]
     144:	00001c88 	andeq	r1, r0, r8, lsl #25
     148:	04190304 	ldreq	r0, [r9], #-772	; 0xfffffcfc
     14c:	051a0304 	ldreq	r0, [sl, #-772]	; 0xfffffcfc
     150:	7f790905 	svcvc	0x00790905
     154:	0e030000 	cdpeq	0, 0, cr0, cr3, cr0, {0}
     158:	40070406 	andmi	r0, r7, r6, lsl #8
     15c:	0400001d 	streq	r0, [r0], #-29	; 0xffffffe3
     160:	051a1b03 	ldreq	r1, [sl, #-2819]	; 0xfffff4fd
     164:	008b1609 	addeq	r1, fp, r9, lsl #12
     168:	1b0e0300 	blne	380d70 <_Min_Stack_Size+0x380970>
     16c:	001f6207 	andseq	r6, pc, r7, lsl #4
     170:	7e070400 	cfcpysvc	mvf0, mvf7
     174:	0400001f 	streq	r0, [r0], #-31	; 0xffffffe1
     178:	6e8d3e05 	cdpvs	14, 8, cr3, cr13, cr5, {0}
     17c:	3f050000 	svccc	0x00050000
     180:	00004679 	andeq	r4, r0, r9, ror r6
     184:	566f4105 	strbtpl	r4, [pc], -r5, lsl #2
     188:	42050000 	andmi	r0, r5, #0
     18c:	00000cf8 	strdeq	r0, [r0], -r8
     190:	0e6d4305 	cdpeq	3, 6, cr4, cr13, cr5, {0}
     194:	44050000 	strmi	r0, [r5], #-0
     198:	0000647b 	andeq	r6, r0, fp, ror r4
     19c:	00040004 	andeq	r0, r4, r4
     1a0:	70000500 	andvc	r0, r0, r0, lsl #10
     1a4:	0500007c 	streq	r0, [r0, #-124]	; 0xffffff84
     1a8:	003ce600 	eorseq	lr, ip, r0, lsl #12
     1ac:	03000500 	movweq	r0, #1280	; 0x500
     1b0:	0500005d 	streq	r0, [r0, #-93]	; 0xffffffa3
     1b4:	00232d00 	eoreq	r2, r3, r0, lsl #26
     1b8:	03000500 	movweq	r0, #1280	; 0x500
     1bc:	0500000c 	streq	r0, [r0, #-12]
     1c0:	004b1c00 	subeq	r1, fp, r0, lsl #24
     1c4:	82000500 	andhi	r0, r0, #0, 10
     1c8:	05000078 	streq	r0, [r0, #-120]	; 0xffffff88
     1cc:	0020f300 	eoreq	pc, r0, r0, lsl #6
     1d0:	ca000500 	bgt	15d8 <_Min_Stack_Size+0x11d8>
     1d4:	0500009b 	streq	r0, [r0, #-155]	; 0xffffff65
     1d8:	00820f00 	addeq	r0, r2, r0, lsl #30
     1dc:	2e000500 	cfsh32cs	mvfx0, mvfx0, #0
     1e0:	05000024 	streq	r0, [r0, #-36]	; 0xffffffdc
     1e4:	003dae00 	eorseq	sl, sp, r0, lsl #28
     1e8:	c7000500 	strgt	r0, [r0, -r0, lsl #10]
     1ec:	05000047 	streq	r0, [r0, #-71]	; 0xffffffb9
     1f0:	0096c500 	addseq	ip, r6, r0, lsl #10
     1f4:	22000500 	andcs	r0, r0, #0, 10
     1f8:	05000040 	streq	r0, [r0, #-64]	; 0xffffffc0
     1fc:	00705100 	rsbseq	r5, r0, r0, lsl #2
     200:	2b000500 	blcs	1608 <_Min_Stack_Size+0x1208>
     204:	0500008d 	streq	r0, [r0, #-141]	; 0xffffff73
     208:	001d1200 	andseq	r1, sp, r0, lsl #4
     20c:	38000500 	stmdacc	r0, {r8, sl}
     210:	05000005 	streq	r0, [r0, #-5]
     214:	00274200 	eoreq	r4, r7, r0, lsl #4
     218:	3f000500 	svccc	0x00000500
     21c:	05000023 	streq	r0, [r0, #-35]	; 0xffffffdd
     220:	001e1300 	andseq	r1, lr, r0, lsl #6
     224:	83000500 	movwhi	r0, #1280	; 0x500
     228:	05000028 	streq	r0, [r0, #-40]	; 0xffffffd8
     22c:	007de200 	rsbseq	lr, sp, r0, lsl #4
     230:	f7000500 			; <UNDEFINED> instruction: 0xf7000500
     234:	05000055 	streq	r0, [r0, #-85]	; 0xffffffab
     238:	0064f000 	rsbeq	pc, r4, r0
     23c:	fa000500 	blx	1644 <_Min_Stack_Size+0x1244>
     240:	0500006b 	streq	r0, [r0, #-107]	; 0xffffff95
     244:	0011c500 	andseq	ip, r1, r0, lsl #10
     248:	97000500 	strls	r0, [r0, -r0, lsl #10]
     24c:	05000006 	streq	r0, [r0, #-6]
     250:	00584e00 	subseq	r4, r8, r0, lsl #28
     254:	36000500 	strcc	r0, [r0], -r0, lsl #10
     258:	0500005f 	streq	r0, [r0, #-95]	; 0xffffffa1
     25c:	001a5c00 	andseq	r5, sl, r0, lsl #24
     260:	b1000500 	tstlt	r0, r0, lsl #10
     264:	05000006 	streq	r0, [r0, #-6]
     268:	00337300 	eorseq	r7, r3, r0, lsl #6
     26c:	d7000500 	strle	r0, [r0, -r0, lsl #10]
     270:	05000028 	streq	r0, [r0, #-40]	; 0xffffffd8
     274:	005e0a00 	subseq	r0, lr, r0, lsl #20
     278:	2f000500 	svccs	0x00000500
     27c:	05000079 	streq	r0, [r0, #-121]	; 0xffffff87
     280:	001b7800 	andseq	r7, fp, r0, lsl #16
     284:	76000500 	strvc	r0, [r0], -r0, lsl #10
     288:	0500006f 	streq	r0, [r0, #-111]	; 0xffffff91
     28c:	001c5c00 	andseq	r5, ip, r0, lsl #24
     290:	b7000500 	strlt	r0, [r0, -r0, lsl #10]
     294:	0500006e 	streq	r0, [r0, #-110]	; 0xffffff92
     298:	0006f500 	andeq	pc, r6, r0, lsl #10
     29c:	ec000500 	cfstr32	mvfx0, [r0], {-0}
     2a0:	05000009 	streq	r0, [r0, #-9]
     2a4:	00733900 	rsbseq	r3, r3, r0, lsl #18
     2a8:	c7000500 	strgt	r0, [r0, -r0, lsl #10]
     2ac:	05000055 	streq	r0, [r0, #-85]	; 0xffffffab
     2b0:	00341600 	eorseq	r1, r4, r0, lsl #12
     2b4:	a8000500 	stmdage	r0, {r8, sl}
     2b8:	0500000d 	streq	r0, [r0, #-13]
     2bc:	008bcf00 	addeq	ip, fp, r0, lsl #30
     2c0:	5c000500 	cfstr32pl	mvfx0, [r0], {-0}
     2c4:	0500003e 	streq	r0, [r0, #-62]	; 0xffffffc2
     2c8:	001a7100 	andseq	r7, sl, r0, lsl #2
     2cc:	0c000500 	cfstr32eq	mvfx0, [r0], {-0}
     2d0:	05000091 	streq	r0, [r0, #-145]	; 0xffffff6f
     2d4:	00486500 	subeq	r6, r8, r0, lsl #10
     2d8:	45000500 	strmi	r0, [r0, #-1280]	; 0xfffffb00
     2dc:	0500009b 	streq	r0, [r0, #-155]	; 0xffffff65
     2e0:	005fb800 	subseq	fp, pc, r0, lsl #16
     2e4:	13000500 	movwne	r0, #1280	; 0x500
     2e8:	0500006f 	streq	r0, [r0, #-111]	; 0xffffff91
     2ec:	0078ae00 	rsbseq	sl, r8, r0, lsl #28
     2f0:	f1000500 			; <UNDEFINED> instruction: 0xf1000500
     2f4:	05000045 	streq	r0, [r0, #-69]	; 0xffffffbb
     2f8:	00199b00 	andseq	r9, r9, r0, lsl #22
     2fc:	75000500 	strvc	r0, [r0, #-1280]	; 0xfffffb00
     300:	0500006e 	streq	r0, [r0, #-110]	; 0xffffff92
     304:	005af800 	subseq	pc, sl, r0, lsl #16
     308:	7a000500 	bvc	1710 <_Min_Stack_Size+0x1310>
     30c:	0500000c 	streq	r0, [r0, #-12]
     310:	0043a000 	subeq	sl, r3, r0
     314:	2b000500 	blcs	171c <_Min_Stack_Size+0x131c>
     318:	05000041 	streq	r0, [r0, #-65]	; 0xffffffbf
     31c:	0022fa00 	eoreq	pc, r2, r0, lsl #20
     320:	72000500 	andvc	r0, r0, #0, 10
     324:	0500002a 	streq	r0, [r0, #-42]	; 0xffffffd6
     328:	007c9600 	rsbseq	r9, ip, r0, lsl #12
     32c:	b7000500 	strlt	r0, [r0, -r0, lsl #10]
     330:	0500007c 	streq	r0, [r0, #-124]	; 0xffffff84
     334:	00309200 	eorseq	r9, r0, r0, lsl #4
     338:	d9000500 	stmdble	r0, {r8, sl}
     33c:	0500005c 	streq	r0, [r0, #-92]	; 0xffffffa4
     340:	006d3100 	rsbeq	r3, sp, r0, lsl #2
     344:	2e000500 	cfsh32cs	mvfx0, mvfx0, #0
     348:	0500009b 	streq	r0, [r0, #-155]	; 0xffffff65
     34c:	00943300 	addseq	r3, r4, r0, lsl #6
     350:	ba000500 	blt	1758 <_Min_Stack_Size+0x1358>
     354:	05000066 	streq	r0, [r0, #-102]	; 0xffffff9a
     358:	0004b500 	andeq	fp, r4, r0, lsl #10
     35c:	41000500 	tstmi	r0, r0, lsl #10
     360:	0500004d 	streq	r0, [r0, #-77]	; 0xffffffb3
     364:	0090a100 	addseq	sl, r0, r0, lsl #2
     368:	2c000500 	cfstr32cs	mvfx0, [r0], {-0}
     36c:	05000090 	streq	r0, [r0, #-144]	; 0xffffff70
     370:	0002b800 	andeq	fp, r2, r0, lsl #16
     374:	2e000500 	cfsh32cs	mvfx0, mvfx0, #0
     378:	05000093 	streq	r0, [r0, #-147]	; 0xffffff6d
     37c:	00432c00 	subeq	r2, r3, r0, lsl #24
     380:	20000500 	andcs	r0, r0, r0, lsl #10
     384:	05000060 	streq	r0, [r0, #-96]	; 0xffffffa0
     388:	006b9e00 	rsbeq	r9, fp, r0, lsl #28
     38c:	29000500 	stmdbcs	r0, {r8, sl}
     390:	0500004c 	streq	r0, [r0, #-76]	; 0xffffffb4
     394:	00525000 	subseq	r5, r2, r0
     398:	77000500 	strvc	r0, [r0, -r0, lsl #10]
     39c:	05000095 	streq	r0, [r0, #-149]	; 0xffffff6b
     3a0:	008c8700 	addeq	r8, ip, r0, lsl #14
     3a4:	e7000500 	str	r0, [r0, -r0, lsl #10]
     3a8:	05000012 	streq	r0, [r0, #-18]	; 0xffffffee
     3ac:	008f7600 	addeq	r7, pc, r0, lsl #12
     3b0:	3a000500 	bcc	17b8 <_Min_Stack_Size+0x13b8>
     3b4:	05000003 	streq	r0, [r0, #-3]
     3b8:	00031000 	andeq	r1, r3, r0
     3bc:	c1000500 	tstgt	r0, r0, lsl #10
     3c0:	05000099 	streq	r0, [r0, #-153]	; 0xffffff67
     3c4:	001a3400 	andseq	r3, sl, r0, lsl #8
     3c8:	50000500 	andpl	r0, r0, r0, lsl #10
     3cc:	05000006 	streq	r0, [r0, #-6]
     3d0:	00829900 	addeq	r9, r2, r0, lsl #18
     3d4:	ee000500 	cfsh32	mvfx0, mvfx0, #0
     3d8:	05000036 	streq	r0, [r0, #-54]	; 0xffffffca
     3dc:	0087e600 	addeq	lr, r7, r0, lsl #12
     3e0:	9a000500 	bls	17e8 <_Min_Stack_Size+0x13e8>
     3e4:	05000040 	streq	r0, [r0, #-64]	; 0xffffffc0
     3e8:	00864200 	addeq	r4, r6, r0, lsl #4
     3ec:	5c000500 	cfstr32pl	mvfx0, [r0], {-0}
     3f0:	05000044 	streq	r0, [r0, #-68]	; 0xffffffbc
     3f4:	004a2a00 	subeq	r2, sl, r0, lsl #20
     3f8:	bd000500 	cfstr32lt	mvfx0, [r0, #-0]
     3fc:	0500002e 	streq	r0, [r0, #-46]	; 0xffffffd2
     400:	00258200 	eoreq	r8, r5, r0, lsl #4
     404:	86000500 	strhi	r0, [r0], -r0, lsl #10
     408:	0500003c 	streq	r0, [r0, #-60]	; 0xffffffc4
     40c:	003c1d00 	eorseq	r1, ip, r0, lsl #26
     410:	4c000500 	cfstr32mi	mvfx0, [r0], {-0}
     414:	0500003d 	streq	r0, [r0, #-61]	; 0xffffffc3
     418:	0067f800 	rsbeq	pc, r7, r0, lsl #16
     41c:	ba000500 	blt	1824 <_Min_Stack_Size+0x1424>
     420:	05000090 	streq	r0, [r0, #-144]	; 0xffffff70
     424:	0030a900 	eorseq	sl, r0, r0, lsl #18
     428:	8a000500 	bhi	1830 <_Min_Stack_Size+0x1430>
     42c:	05000095 	streq	r0, [r0, #-149]	; 0xffffff6b
     430:	0039e800 	eorseq	lr, r9, r0, lsl #16
     434:	bc000500 	cfstr32lt	mvfx0, [r0], {-0}
     438:	0500001f 	streq	r0, [r0, #-31]	; 0xffffffe1
     43c:	002d7100 	eoreq	r7, sp, r0, lsl #2
     440:	27000500 	strcs	r0, [r0, -r0, lsl #10]
     444:	0500001e 	streq	r0, [r0, #-30]	; 0xffffffe2
     448:	0044b600 	subeq	fp, r4, r0, lsl #12
     44c:	ff000500 			; <UNDEFINED> instruction: 0xff000500
     450:	0500007d 	streq	r0, [r0, #-125]	; 0xffffff83
     454:	00403500 	subeq	r3, r0, r0, lsl #10
     458:	51000500 	tstpl	r0, r0, lsl #10
     45c:	05000073 	streq	r0, [r0, #-115]	; 0xffffff8d
     460:	00099900 	andeq	r9, r9, r0, lsl #18
     464:	6e000500 	cfsh32vs	mvfx0, mvfx0, #0
     468:	05000021 	streq	r0, [r0, #-33]	; 0xffffffdf
     46c:	00805000 	addeq	r5, r0, r0
     470:	6f000500 	svcvs	0x00000500
     474:	0500003f 	streq	r0, [r0, #-63]	; 0xffffffc1
     478:	00328800 	eorseq	r8, r2, r0, lsl #16
     47c:	54000500 	strpl	r0, [r0], #-1280	; 0xfffffb00
     480:	0500006b 	streq	r0, [r0, #-107]	; 0xffffff95
     484:	0045da00 	subeq	sp, r5, r0, lsl #20
     488:	cf000500 	svcgt	0x00000500
     48c:	0500001e 	streq	r0, [r0, #-30]	; 0xffffffe2
     490:	005cec00 	subseq	lr, ip, r0, lsl #24
     494:	7f000500 	svcvc	0x00000500
     498:	05000070 	streq	r0, [r0, #-112]	; 0xffffff90
     49c:	00140f00 	andseq	r0, r4, r0, lsl #30
     4a0:	10000500 	andne	r0, r0, r0, lsl #10
     4a4:	05000024 	streq	r0, [r0, #-36]	; 0xffffffdc
     4a8:	0022a900 	eoreq	sl, r2, r0, lsl #18
     4ac:	68000500 	stmdavs	r0, {r8, sl}
     4b0:	05000018 	streq	r0, [r0, #-24]	; 0xffffffe8
     4b4:	0010d300 	andseq	sp, r0, r0, lsl #6
     4b8:	54000500 	strpl	r0, [r0], #-1280	; 0xfffffb00
     4bc:	05000013 	streq	r0, [r0, #-19]	; 0xffffffed
     4c0:	0014d600 	andseq	sp, r4, r0, lsl #12
     4c4:	de000500 	cfsh32le	mvfx0, mvfx0, #0
     4c8:	0500001c 	streq	r0, [r0, #-28]	; 0xffffffe4
     4cc:	0052ae00 	subseq	sl, r2, r0, lsl #28
     4d0:	a6000500 	strge	r0, [r0], -r0, lsl #10
     4d4:	05000014 	streq	r0, [r0, #-20]	; 0xffffffec
     4d8:	00534e00 	subseq	r4, r3, r0, lsl #28
     4dc:	00000500 	andeq	r0, r0, r0, lsl #10
     4e0:	0500000f 	streq	r0, [r0, #-15]
     4e4:	005e3c00 	subseq	r3, lr, r0, lsl #24
     4e8:	7a000500 	bvc	18f0 <_Min_Stack_Size+0x14f0>
     4ec:	05000041 	streq	r0, [r0, #-65]	; 0xffffffbf
     4f0:	005cb800 	subseq	fp, ip, r0, lsl #16
     4f4:	ac000500 	cfstr32ge	mvfx0, [r0], {-0}
     4f8:	05000042 	streq	r0, [r0, #-66]	; 0xffffffbe
     4fc:	003a2f00 	eorseq	r2, sl, r0, lsl #30
     500:	05000500 	streq	r0, [r0, #-1280]	; 0xfffffb00
     504:	0500004e 	streq	r0, [r0, #-78]	; 0xffffffb2
     508:	0047fe00 	subeq	pc, r7, r0, lsl #28
     50c:	57000500 	strpl	r0, [r0, -r0, lsl #10]
     510:	05000022 	streq	r0, [r0, #-34]	; 0xffffffde
     514:	00559d00 	subseq	r9, r5, r0, lsl #26
     518:	d9000500 	stmdble	r0, {r8, sl}
     51c:	0500006c 	streq	r0, [r0, #-108]	; 0xffffff94
     520:	001cfe00 	andseq	pc, ip, r0, lsl #28
     524:	a4000500 	strge	r0, [r0], #-1280	; 0xfffffb00
     528:	05000023 	streq	r0, [r0, #-35]	; 0xffffffdd
     52c:	001fa600 	andseq	sl, pc, r0, lsl #12
     530:	5f000500 	svcpl	0x00000500
     534:	0500004c 	streq	r0, [r0, #-76]	; 0xffffffb4
     538:	006c6900 	rsbeq	r6, ip, r0, lsl #18
     53c:	0a000500 	beq	1944 <_Min_Stack_Size+0x1544>
     540:	0500002b 	streq	r0, [r0, #-43]	; 0xffffffd5
     544:	0032fd00 	eorseq	pc, r2, r0, lsl #26
     548:	ff000500 			; <UNDEFINED> instruction: 0xff000500
     54c:	05000030 	streq	r0, [r0, #-48]	; 0xffffffd0
     550:	0006e000 	andeq	lr, r6, r0
     554:	4e000500 	cfsh32mi	mvfx0, mvfx0, #0
     558:	05000040 	streq	r0, [r0, #-64]	; 0xffffffc0
     55c:	00209700 	eoreq	r9, r0, r0, lsl #14
     560:	23000500 	movwcs	r0, #1280	; 0x500
     564:	0500009a 	streq	r0, [r0, #-154]	; 0xffffff66
     568:	007d5500 	rsbseq	r5, sp, r0, lsl #10
     56c:	64000500 	strvs	r0, [r0], #-1280	; 0xfffffb00
     570:	05000068 	streq	r0, [r0, #-104]	; 0xffffff98
     574:	00119b00 	andseq	r9, r1, r0, lsl #22
     578:	a4000500 	strge	r0, [r0], #-1280	; 0xfffffb00
     57c:	05000047 	streq	r0, [r0, #-71]	; 0xffffffb9
     580:	00056400 	andeq	r6, r5, r0, lsl #8
     584:	bc000500 	cfstr32lt	mvfx0, [r0], {-0}
     588:	05000084 	streq	r0, [r0, #-132]	; 0xffffff7c
     58c:	00914e00 	addseq	r4, r1, r0, lsl #28
     590:	98000500 	stmdals	r0, {r8, sl}
     594:	05000059 	streq	r0, [r0, #-89]	; 0xffffffa7
     598:	0018aa00 	andseq	sl, r8, r0, lsl #20
     59c:	d5000500 	strle	r0, [r0, #-1280]	; 0xfffffb00
     5a0:	0500003f 	streq	r0, [r0, #-63]	; 0xffffffc1
     5a4:	005a8f00 	subseq	r8, sl, r0, lsl #30
     5a8:	ad000500 	cfstr32ge	mvfx0, [r0, #-0]
     5ac:	0500002f 	streq	r0, [r0, #-47]	; 0xffffffd1
     5b0:	00828200 	addeq	r8, r2, r0, lsl #4
     5b4:	fc000500 	stc2	5, cr0, [r0], {-0}
     5b8:	0500007a 	streq	r0, [r0, #-122]	; 0xffffff86
     5bc:	00091700 	andeq	r1, r9, r0, lsl #14
     5c0:	66000500 	strvs	r0, [r0], -r0, lsl #10
     5c4:	0500008f 	streq	r0, [r0, #-143]	; 0xffffff71
     5c8:	0007a400 	andeq	sl, r7, r0, lsl #8
     5cc:	31000500 	tstcc	r0, r0, lsl #10
     5d0:	05000061 	streq	r0, [r0, #-97]	; 0xffffff9f
     5d4:	002f2a00 	eoreq	r2, pc, r0, lsl #20
     5d8:	fc000500 	stc2	5, cr0, [r0], {-0}
     5dc:	05000059 	streq	r0, [r0, #-89]	; 0xffffffa7
     5e0:	00002f00 	andeq	r2, r0, r0, lsl #30
     5e4:	b3000500 	movwlt	r0, #1280	; 0x500
     5e8:	05000089 	streq	r0, [r0, #-137]	; 0xffffff77
     5ec:	004dd200 	subeq	sp, sp, r0, lsl #4
     5f0:	50000500 	andpl	r0, r0, r0, lsl #10
     5f4:	05000064 	streq	r0, [r0, #-100]	; 0xffffff9c
     5f8:	007ea500 	rsbseq	sl, lr, r0, lsl #10
     5fc:	50000500 	andpl	r0, r0, r0, lsl #10
     600:	05000046 	streq	r0, [r0, #-70]	; 0xffffffba
     604:	0049fd00 	subeq	pc, r9, r0, lsl #26
     608:	ec000500 	cfstr32	mvfx0, [r0], {-0}
     60c:	05000069 	streq	r0, [r0, #-105]	; 0xffffff97
     610:	0035b600 	eorseq	fp, r5, r0, lsl #12
     614:	90000500 	andls	r0, r0, r0, lsl #10
     618:	05000016 	streq	r0, [r0, #-22]	; 0xffffffea
     61c:	00455800 	subeq	r5, r5, r0, lsl #16
     620:	0c000500 	cfstr32eq	mvfx0, [r0], {-0}
     624:	05000069 	streq	r0, [r0, #-105]	; 0xffffff97
     628:	000f2b00 	andeq	r2, pc, r0, lsl #22
     62c:	9a000500 	bls	1a34 <_Min_Stack_Size+0x1634>
     630:	05000063 	streq	r0, [r0, #-99]	; 0xffffff9d
     634:	001b5300 	andseq	r5, fp, r0, lsl #6
     638:	90000500 	andls	r0, r0, r0, lsl #10
     63c:	0500000d 	streq	r0, [r0, #-13]
     640:	00078c00 	andeq	r8, r7, r0, lsl #24
     644:	2d000500 	cfstr32cs	mvfx0, [r0, #-0]
     648:	0500007d 	streq	r0, [r0, #-125]	; 0xffffff83
     64c:	0098f500 	addseq	pc, r8, r0, lsl #10
     650:	73000500 	movwvc	r0, #1280	; 0x500
     654:	05000076 	streq	r0, [r0, #-118]	; 0xffffff8a
     658:	00587500 	subseq	r7, r8, r0, lsl #10
     65c:	fd000500 	stc2	5, cr0, [r0, #-0]
     660:	0500008f 	streq	r0, [r0, #-143]	; 0xffffff71
     664:	008a1400 	addeq	r1, sl, r0, lsl #8
     668:	91000500 	tstls	r0, r0, lsl #10
     66c:	05000091 	streq	r0, [r0, #-145]	; 0xffffff6f
     670:	00357400 	eorseq	r7, r5, r0, lsl #8
     674:	7b000500 	blvc	1a7c <_Min_Stack_Size+0x167c>
     678:	05000005 	streq	r0, [r0, #-5]
     67c:	00906100 	addseq	r6, r0, r0, lsl #2
     680:	60000500 	andvs	r0, r0, r0, lsl #10
     684:	05000080 	streq	r0, [r0, #-128]	; 0xffffff80
     688:	00106b00 	andseq	r6, r0, r0, lsl #22
     68c:	d3000500 	movwle	r0, #1280	; 0x500
     690:	05000054 	streq	r0, [r0, #-84]	; 0xffffffac
     694:	0019f700 	andseq	pc, r9, r0, lsl #14
     698:	6c000500 	cfstr32vs	mvfx0, [r0], {-0}
     69c:	05000003 	streq	r0, [r0, #-3]
     6a0:	000a7600 	andeq	r7, sl, r0, lsl #12
     6a4:	52000500 	andpl	r0, r0, #0, 10
     6a8:	05000049 	streq	r0, [r0, #-73]	; 0xffffffb7
     6ac:	00551600 	subseq	r1, r5, r0, lsl #12
     6b0:	15000500 	strne	r0, [r0, #-1280]	; 0xfffffb00
     6b4:	05000088 	streq	r0, [r0, #-136]	; 0xffffff78
     6b8:	00007300 	andeq	r7, r0, r0, lsl #6
     6bc:	23000500 	movwcs	r0, #1280	; 0x500
     6c0:	0500005c 	streq	r0, [r0, #-92]	; 0xffffffa4
     6c4:	00013100 	andeq	r3, r1, r0, lsl #2
     6c8:	60000500 	andvs	r0, r0, r0, lsl #10
     6cc:	0500005b 	streq	r0, [r0, #-91]	; 0xffffffa5
     6d0:	00954000 	addseq	r4, r5, r0
     6d4:	ec000500 	cfstr32	mvfx0, [r0], {-0}
     6d8:	0500006f 	streq	r0, [r0, #-111]	; 0xffffff91
     6dc:	00789300 	rsbseq	r9, r8, r0, lsl #6
     6e0:	30000500 	andcc	r0, r0, r0, lsl #10
     6e4:	05000078 	streq	r0, [r0, #-120]	; 0xffffff88
     6e8:	003eaa00 	eorseq	sl, lr, r0, lsl #20
     6ec:	75000500 	strvc	r0, [r0, #-1280]	; 0xfffffb00
     6f0:	05000036 	streq	r0, [r0, #-54]	; 0xffffffca
     6f4:	00189000 	andseq	r9, r8, r0
     6f8:	d0000500 	andle	r0, r0, r0, lsl #10
     6fc:	05000075 	streq	r0, [r0, #-117]	; 0xffffff8b
     700:	0062fc00 	rsbeq	pc, r2, r0, lsl #24
     704:	37000500 	strcc	r0, [r0, -r0, lsl #10]
     708:	05000054 	streq	r0, [r0, #-84]	; 0xffffffac
     70c:	00193500 	andseq	r3, r9, r0, lsl #10
     710:	52000500 	andpl	r0, r0, #0, 10
     714:	05000023 	streq	r0, [r0, #-35]	; 0xffffffdd
     718:	0047e600 	subeq	lr, r7, r0, lsl #12
     71c:	dd000500 	cfstr32le	mvfx0, [r0, #-0]
     720:	05000016 	streq	r0, [r0, #-22]	; 0xffffffea
     724:	0018d900 	andseq	sp, r8, r0, lsl #18
     728:	3e000500 	cfsh32cc	mvfx0, mvfx0, #0
     72c:	05000006 	streq	r0, [r0, #-6]
     730:	0057ce00 	subseq	ip, r7, r0, lsl #28
     734:	fe000500 	cdp2	5, 0, cr0, cr0, cr0, {0}
     738:	05000040 	streq	r0, [r0, #-64]	; 0xffffffc0
     73c:	002a5900 	eoreq	r5, sl, r0, lsl #18
     740:	53000500 	movwpl	r0, #1280	; 0x500
     744:	05000011 	streq	r0, [r0, #-17]	; 0xffffffef
     748:	00463d00 	subeq	r3, r6, r0, lsl #26
     74c:	5e000500 	cfsh32pl	mvfx0, mvfx0, #0
     750:	0500002d 	streq	r0, [r0, #-45]	; 0xffffffd3
     754:	002df000 	eoreq	pc, sp, r0
     758:	db000500 	blle	1b60 <_Min_Stack_Size+0x1760>
     75c:	0500000e 	streq	r0, [r0, #-14]
     760:	003a7f00 	eorseq	r7, sl, r0, lsl #30
     764:	85000500 	strhi	r0, [r0, #-1280]	; 0xfffffb00
     768:	05000020 	streq	r0, [r0, #-32]	; 0xffffffe0
     76c:	006b7f00 	rsbeq	r7, fp, r0, lsl #30
     770:	91000500 	tstls	r0, r0, lsl #10
     774:	05000005 	streq	r0, [r0, #-5]
     778:	0023cb00 	eoreq	ip, r3, r0, lsl #22
     77c:	7f000500 	svcvc	0x00000500
     780:	05000063 	streq	r0, [r0, #-99]	; 0xffffff9d
     784:	00595f00 	subseq	r5, r9, r0, lsl #30
     788:	d2000500 	andle	r0, r0, #0, 10
     78c:	05000067 	streq	r0, [r0, #-103]	; 0xffffff99
     790:	002b5500 	eoreq	r5, fp, r0, lsl #10
     794:	dd000500 	cfstr32le	mvfx0, [r0, #-0]
     798:	05000056 	streq	r0, [r0, #-86]	; 0xffffffaa
     79c:	004d2400 	subeq	r2, sp, r0, lsl #8
     7a0:	e4000500 	str	r0, [r0], #-1280	; 0xfffffb00
     7a4:	05000055 	streq	r0, [r0, #-85]	; 0xffffffab
     7a8:	00680600 	rsbeq	r0, r8, r0, lsl #12
     7ac:	97000500 	strls	r0, [r0, -r0, lsl #10]
     7b0:	05000004 	streq	r0, [r0, #-4]
     7b4:	005ea100 	subseq	sl, lr, r0, lsl #2
     7b8:	89000500 	stmdbhi	r0, {r8, sl}
     7bc:	05000061 	streq	r0, [r0, #-97]	; 0xffffff9f
     7c0:	00103a00 	andseq	r3, r0, r0, lsl #20
     7c4:	7b000500 	blvc	1bcc <_Min_Stack_Size+0x17cc>
     7c8:	0500009a 	streq	r0, [r0, #-154]	; 0xffffff66
     7cc:	0072de00 	rsbseq	sp, r2, r0, lsl #28
     7d0:	f1000500 			; <UNDEFINED> instruction: 0xf1000500
     7d4:	0500006e 	streq	r0, [r0, #-110]	; 0xffffff92
     7d8:	007d6400 	rsbseq	r6, sp, r0, lsl #8
     7dc:	7d000500 	cfstr32vc	mvfx0, [r0, #-0]
     7e0:	05000091 	streq	r0, [r0, #-145]	; 0xffffff6f
     7e4:	008d6000 	addeq	r6, sp, r0
     7e8:	85000500 	strhi	r0, [r0, #-1280]	; 0xfffffb00
     7ec:	05000014 	streq	r0, [r0, #-20]	; 0xffffffec
     7f0:	007b5a00 	rsbseq	r5, fp, r0, lsl #20
     7f4:	0c000500 	cfstr32eq	mvfx0, [r0], {-0}
     7f8:	05000095 	streq	r0, [r0, #-149]	; 0xffffff6b
     7fc:	000c1500 	andeq	r1, ip, r0, lsl #10
     800:	a5000500 	strge	r0, [r0, #-1280]	; 0xfffffb00
     804:	0500004a 	streq	r0, [r0, #-74]	; 0xffffffb6
     808:	008c9900 	addeq	r9, ip, r0, lsl #18
     80c:	a0000500 	andge	r0, r0, r0, lsl #10
     810:	0500001b 	streq	r0, [r0, #-27]	; 0xffffffe5
     814:	00891b00 	addeq	r1, r9, r0, lsl #22
     818:	38000500 	stmdacc	r0, {r8, sl}
     81c:	05000036 	streq	r0, [r0, #-54]	; 0xffffffca
     820:	006dfe00 	rsbeq	pc, sp, r0, lsl #28
     824:	cf000500 	svcgt	0x00000500
     828:	0500006e 	streq	r0, [r0, #-110]	; 0xffffff92
     82c:	007c7b00 	rsbseq	r7, ip, r0, lsl #22
     830:	d9000500 	stmdble	r0, {r8, sl}
     834:	0500008d 	streq	r0, [r0, #-141]	; 0xffffff73
     838:	00350700 	eorseq	r0, r5, r0, lsl #14
     83c:	94000500 	strls	r0, [r0], #-1280	; 0xfffffb00
     840:	0500005b 	streq	r0, [r0, #-91]	; 0xffffffa5
     844:	00074a00 	andeq	r4, r7, r0, lsl #20
     848:	21000500 	tstcs	r0, r0, lsl #10
     84c:	05000006 	streq	r0, [r0, #-6]
     850:	007ade00 	rsbseq	sp, sl, r0, lsl #28
     854:	e2000500 	and	r0, r0, #0, 10
     858:	05000017 	streq	r0, [r0, #-23]	; 0xffffffe9
     85c:	007f1500 	rsbseq	r1, pc, r0, lsl #10
     860:	51000500 	tstpl	r0, r0, lsl #10
     864:	0500006a 	streq	r0, [r0, #-106]	; 0xffffff96
     868:	00407c00 	subeq	r7, r0, r0, lsl #24
     86c:	2c000500 	cfstr32cs	mvfx0, [r0], {-0}
     870:	0500008f 	streq	r0, [r0, #-143]	; 0xffffff71
     874:	004c9a00 	subeq	r9, ip, r0, lsl #20
     878:	27000500 	strcs	r0, [r0, -r0, lsl #10]
     87c:	05000018 	streq	r0, [r0, #-24]	; 0xffffffe8
     880:	00329e00 	eorseq	r9, r2, r0, lsl #28
     884:	19000500 	stmdbne	r0, {r8, sl}
     888:	05000049 	streq	r0, [r0, #-73]	; 0xffffffb7
     88c:	005c4f00 	subseq	r4, ip, r0, lsl #30
     890:	8a000500 	bhi	1c98 <_Min_Stack_Size+0x1898>
     894:	05000021 	streq	r0, [r0, #-33]	; 0xffffffdf
     898:	00139100 	andseq	r9, r3, r0, lsl #2
     89c:	e1000500 	tst	r0, r0, lsl #10
     8a0:	05000089 	streq	r0, [r0, #-137]	; 0xffffff77
     8a4:	006f4e00 	rsbeq	r4, pc, r0, lsl #28
     8a8:	96000500 	strls	r0, [r0], -r0, lsl #10
     8ac:	0500004e 	streq	r0, [r0, #-78]	; 0xffffffb2
     8b0:	00854100 	addeq	r4, r5, r0, lsl #2
     8b4:	1d000500 	cfstr32ne	mvfx0, [r0, #-0]
     8b8:	0500006d 	streq	r0, [r0, #-109]	; 0xffffff93
     8bc:	004d9500 	subeq	r9, sp, r0, lsl #10
     8c0:	05000500 	streq	r0, [r0, #-1280]	; 0xfffffb00
     8c4:	05000072 	streq	r0, [r0, #-114]	; 0xffffff8e
     8c8:	008f4700 	addeq	r4, pc, r0, lsl #14
     8cc:	00000500 	andeq	r0, r0, r0, lsl #10
     8d0:	05000078 	streq	r0, [r0, #-120]	; 0xffffff88
     8d4:	0043c100 	subeq	ip, r3, r0, lsl #2
     8d8:	fd000500 	stc2	5, cr0, [r0, #-0]
     8dc:	05000001 	streq	r0, [r0, #-1]
     8e0:	003b5800 	eorseq	r5, fp, r0, lsl #16
     8e4:	32000500 	andcc	r0, r0, #0, 10
     8e8:	05000070 	streq	r0, [r0, #-112]	; 0xffffff90
     8ec:	00275500 	eoreq	r5, r7, r0, lsl #10
     8f0:	3a000500 	bcc	1cf8 <_Min_Stack_Size+0x18f8>
     8f4:	0500005c 	streq	r0, [r0, #-92]	; 0xffffffa4
     8f8:	008ab700 	addeq	fp, sl, r0, lsl #14
     8fc:	ac000500 	cfstr32ge	mvfx0, [r0], {-0}
     900:	05000005 	streq	r0, [r0, #-5]
     904:	006d6900 	rsbeq	r6, sp, r0, lsl #18
     908:	2b000500 	blcs	1d10 <_Min_Stack_Size+0x1910>
     90c:	05000091 	streq	r0, [r0, #-145]	; 0xffffff6f
     910:	00777d00 	rsbseq	r7, r7, r0, lsl #26
     914:	ff000500 			; <UNDEFINED> instruction: 0xff000500
     918:	05000092 	streq	r0, [r0, #-146]	; 0xffffff6e
     91c:	00970500 	addseq	r0, r7, r0, lsl #10
     920:	ff000500 			; <UNDEFINED> instruction: 0xff000500
     924:	05000011 	streq	r0, [r0, #-17]	; 0xffffffef
     928:	00068900 	andeq	r8, r6, r0, lsl #18
     92c:	9b000500 	blls	1d34 <_Min_Stack_Size+0x1934>
     930:	0500006d 	streq	r0, [r0, #-109]	; 0xffffff93
     934:	00730d00 	rsbseq	r0, r3, r0, lsl #26
     938:	c4000500 	strgt	r0, [r0], #-1280	; 0xfffffb00
     93c:	05000025 	streq	r0, [r0, #-37]	; 0xffffffdb
     940:	00035e00 	andeq	r5, r3, r0, lsl #28
     944:	c2000500 	andgt	r0, r0, #0, 10
     948:	0500005d 	streq	r0, [r0, #-93]	; 0xffffffa3
     94c:	004d5200 	subeq	r5, sp, r0, lsl #4
     950:	82000500 	andhi	r0, r0, #0, 10
     954:	05000012 	streq	r0, [r0, #-18]	; 0xffffffee
     958:	006e1d00 	rsbeq	r1, lr, r0, lsl #26
     95c:	b5000500 	strlt	r0, [r0, #-1280]	; 0xfffffb00
     960:	05000011 	streq	r0, [r0, #-17]	; 0xffffffef
     964:	00787300 	rsbseq	r7, r8, r0, lsl #6
     968:	88000500 	stmdahi	r0, {r8, sl}
     96c:	05000059 	streq	r0, [r0, #-89]	; 0xffffffa7
     970:	00483800 	subeq	r3, r8, r0, lsl #16
     974:	0e000500 	cfsh32eq	mvfx0, mvfx0, #0
     978:	05000070 	streq	r0, [r0, #-112]	; 0xffffff90
     97c:	00759900 	rsbseq	r9, r5, r0, lsl #18
     980:	3d000500 	cfstr32cc	mvfx0, [r0, #-0]
     984:	0500002b 	streq	r0, [r0, #-43]	; 0xffffffd5
     988:	0013f200 	andseq	pc, r3, r0, lsl #4
     98c:	b0000500 	andlt	r0, r0, r0, lsl #10
     990:	05000075 	streq	r0, [r0, #-117]	; 0xffffff8b
     994:	00411c00 	subeq	r1, r1, r0, lsl #24
     998:	83000500 	movwhi	r0, #1280	; 0x500
     99c:	05000030 	streq	r0, [r0, #-48]	; 0xffffffd0
     9a0:	0095c900 	addseq	ip, r5, r0, lsl #18
     9a4:	69000500 	stmdbvs	r0, {r8, sl}
     9a8:	0500001b 	streq	r0, [r0, #-27]	; 0xffffffe5
     9ac:	00656800 	rsbeq	r6, r5, r0, lsl #16
     9b0:	48000500 	stmdami	r0, {r8, sl}
     9b4:	05000000 	streq	r0, [r0, #-0]
     9b8:	003a5c00 	eorseq	r5, sl, r0, lsl #24
     9bc:	e4000500 	str	r0, [r0], #-1280	; 0xfffffb00
     9c0:	05000060 	streq	r0, [r0, #-96]	; 0xffffffa0
     9c4:	0029a700 	eoreq	sl, r9, r0, lsl #14
     9c8:	db000500 	blle	1dd0 <_Min_Stack_Size+0x19d0>
     9cc:	05000019 	streq	r0, [r0, #-25]	; 0xffffffe7
     9d0:	0080e100 	addeq	lr, r0, r0, lsl #2
     9d4:	70000500 	andvc	r0, r0, r0, lsl #10
     9d8:	0500001f 	streq	r0, [r0, #-31]	; 0xffffffe1
     9dc:	00888200 	addeq	r8, r8, r0, lsl #4
     9e0:	18000500 	stmdane	r0, {r8, sl}
     9e4:	0500007d 	streq	r0, [r0, #-125]	; 0xffffff83
     9e8:	003c0600 	eorseq	r0, ip, r0, lsl #12
     9ec:	06000500 	streq	r0, [r0], -r0, lsl #10
     9f0:	0500008f 	streq	r0, [r0, #-143]	; 0xffffff71
     9f4:	00815e00 	addeq	r5, r1, r0, lsl #28
     9f8:	f5000500 			; <UNDEFINED> instruction: 0xf5000500
     9fc:	05000000 	streq	r0, [r0, #-0]
     a00:	000bb800 	andeq	fp, fp, r0, lsl #16
     a04:	c3000500 	movwgt	r0, #1280	; 0x500
     a08:	05000029 	streq	r0, [r0, #-41]	; 0xffffffd7
     a0c:	006e5000 	rsbeq	r5, lr, r0
     a10:	e7000500 	str	r0, [r0, -r0, lsl #10]
     a14:	0500004e 	streq	r0, [r0, #-78]	; 0xffffffb2
     a18:	00866900 	addeq	r6, r6, r0, lsl #18
     a1c:	1e000500 	cfsh32ne	mvfx0, mvfx0, #0
     a20:	05000047 	streq	r0, [r0, #-71]	; 0xffffffb9
     a24:	00210900 	eoreq	r0, r1, r0, lsl #18
     a28:	d4000500 	strle	r0, [r0], #-1280	; 0xfffffb00
     a2c:	05000000 	streq	r0, [r0, #-0]
     a30:	00347500 	eorseq	r7, r4, r0, lsl #10
     a34:	b7000500 	strlt	r0, [r0, -r0, lsl #10]
     a38:	05000079 	streq	r0, [r0, #-121]	; 0xffffff87
     a3c:	004d7700 	subeq	r7, sp, r0, lsl #14
     a40:	6a000500 	bvs	1e48 <_Min_Stack_Size+0x1a48>
     a44:	0500002b 	streq	r0, [r0, #-43]	; 0xffffffd5
     a48:	00353000 	eorseq	r3, r5, r0
     a4c:	64000500 	strvs	r0, [r0], #-1280	; 0xfffffb00
     a50:	0500003d 	streq	r0, [r0, #-61]	; 0xffffffc3
     a54:	004b2800 	subeq	r2, fp, r0, lsl #16
     a58:	ce000500 	cfsh32gt	mvfx0, mvfx0, #0
     a5c:	05000040 	streq	r0, [r0, #-64]	; 0xffffffc0
     a60:	0028bb00 	eoreq	fp, r8, r0, lsl #22
     a64:	a6000500 	strge	r0, [r0], -r0, lsl #10
     a68:	0500006a 	streq	r0, [r0, #-106]	; 0xffffff96
     a6c:	00896400 	addeq	r6, r9, r0, lsl #8
     a70:	c1000500 	tstgt	r0, r0, lsl #10
     a74:	0600005e 			; <UNDEFINED> instruction: 0x0600005e
     a78:	00533c00 	subseq	r3, r3, r0, lsl #24
     a7c:	85000500 	strhi	r0, [r0, #-1280]	; 0xfffffb00
     a80:	0500003d 	streq	r0, [r0, #-61]	; 0xffffffc3
     a84:	0084d300 	addeq	sp, r4, r0, lsl #6
     a88:	91000600 	tstls	r0, r0, lsl #12
     a8c:	0500006a 	streq	r0, [r0, #-106]	; 0xffffff96
     a90:	00897800 	addeq	r7, r9, r0, lsl #16
     a94:	45000600 	strmi	r0, [r0, #-1536]	; 0xfffffa00
     a98:	06000066 	streq	r0, [r0], -r6, rrx
     a9c:	00889200 	addeq	r9, r8, r0, lsl #4
     aa0:	f1000600 			; <UNDEFINED> instruction: 0xf1000600
     aa4:	0600008b 	streq	r0, [r0], -fp, lsl #1
     aa8:	003dc100 	eorseq	ip, sp, r0, lsl #2
     aac:	e4000500 	str	r0, [r0], #-1280	; 0xfffffb00
     ab0:	06000067 	streq	r0, [r0], -r7, rrx
     ab4:	00419200 	subeq	r9, r1, r0, lsl #4
     ab8:	46000600 	strmi	r0, [r0], -r0, lsl #12
     abc:	0600004e 	streq	r0, [r0], -lr, asr #32
     ac0:	005d2d00 	subseq	r2, sp, r0, lsl #26
     ac4:	c2000500 	andgt	r0, r0, #0, 10
     ac8:	05000094 	streq	r0, [r0, #-148]	; 0xffffff6c
     acc:	003d9a00 	eorseq	r9, sp, r0, lsl #20
     ad0:	fa000600 	blx	22d8 <_Min_Stack_Size+0x1ed8>
     ad4:	06000078 			; <UNDEFINED> instruction: 0x06000078
     ad8:	00952b00 	addseq	r2, r5, r0, lsl #22
     adc:	ce000500 	cfsh32gt	mvfx0, mvfx0, #0
     ae0:	05000062 	streq	r0, [r0, #-98]	; 0xffffff9e
     ae4:	003e9300 	eorseq	r9, lr, r0, lsl #6
     ae8:	b4000600 	strlt	r0, [r0], #-1536	; 0xfffffa00
     aec:	05000055 	streq	r0, [r0, #-85]	; 0xffffffab
     af0:	00070f00 	andeq	r0, r7, r0, lsl #30
     af4:	75000500 	strvc	r0, [r0, #-1280]	; 0xfffffb00
     af8:	06000063 	streq	r0, [r0], -r3, rrx
     afc:	00940e00 	addseq	r0, r4, r0, lsl #28
     b00:	f8000500 			; <UNDEFINED> instruction: 0xf8000500
     b04:	0500004d 	streq	r0, [r0, #-77]	; 0xffffffb3
     b08:	0044df00 	subeq	sp, r4, r0, lsl #30
     b0c:	14000500 	strne	r0, [r0], #-1280	; 0xfffffb00
     b10:	0500008e 	streq	r0, [r0, #-142]	; 0xffffff72
     b14:	0091aa00 	addseq	sl, r1, r0, lsl #20
     b18:	07000500 	streq	r0, [r0, -r0, lsl #10]
     b1c:	0500008c 	streq	r0, [r0, #-140]	; 0xffffff74
     b20:	00772500 	rsbseq	r2, r7, r0, lsl #10
     b24:	88000600 	stmdahi	r0, {r9, sl}
     b28:	05000033 	streq	r0, [r0, #-51]	; 0xffffffcd
     b2c:	00667c00 	rsbeq	r7, r6, r0, lsl #24
     b30:	39000500 	stmdbcc	r0, {r8, sl}
     b34:	05000092 	streq	r0, [r0, #-146]	; 0xffffff6e
     b38:	00426e00 	subeq	r6, r2, r0, lsl #28
     b3c:	6a000500 	bvs	1f44 <_Min_Stack_Size+0x1b44>
     b40:	06000073 			; <UNDEFINED> instruction: 0x06000073
     b44:	0052d800 	subseq	sp, r2, r0, lsl #16
     b48:	cf000600 	svcgt	0x00000600
     b4c:	06000041 	streq	r0, [r0], -r1, asr #32
     b50:	00641800 	rsbeq	r1, r4, r0, lsl #16
     b54:	2c000600 	stccs	6, cr0, [r0], {-0}
     b58:	0600005e 			; <UNDEFINED> instruction: 0x0600005e
     b5c:	007ab900 	rsbseq	fp, sl, r0, lsl #18
     b60:	7e000600 	cfmadd32vc	mvax0, mvfx0, mvfx0, mvfx0
     b64:	0600001c 			; <UNDEFINED> instruction: 0x0600001c
     b68:	003a4500 	eorseq	r4, sl, r0, lsl #10
     b6c:	3c000600 	stccc	6, cr0, [r0], {-0}
     b70:	0600006f 	streq	r0, [r0], -pc, rrx
     b74:	001b2800 	andseq	r2, fp, r0, lsl #16
     b78:	65000600 	strvs	r0, [r0, #-1536]	; 0xfffffa00
     b7c:	0600002e 	streq	r0, [r0], -lr, lsr #32
     b80:	0058a000 	subseq	sl, r8, r0
     b84:	e9000500 	stmdb	r0, {r8, sl}
     b88:	05000011 	streq	r0, [r0, #-17]	; 0xffffffef
     b8c:	00197e00 	andseq	r7, r9, r0, lsl #28
     b90:	a3000500 	movwge	r0, #1280	; 0x500
     b94:	05000036 	streq	r0, [r0, #-54]	; 0xffffffca
     b98:	008a0500 	addeq	r0, sl, r0, lsl #10
     b9c:	4b000600 	blmi	23a4 <_Min_Stack_Size+0x1fa4>
     ba0:	0500002b 	streq	r0, [r0, #-43]	; 0xffffffd5
     ba4:	00845700 	addeq	r5, r4, r0, lsl #14
     ba8:	09000500 	stmdbeq	r0, {r8, sl}
     bac:	0500005f 	streq	r0, [r0, #-95]	; 0xffffffa1
     bb0:	008ba300 	addeq	sl, fp, r0, lsl #6
     bb4:	4a000600 	bmi	23bc <_Min_Stack_Size+0x1fbc>
     bb8:	05000082 	streq	r0, [r0, #-130]	; 0xffffff7e
     bbc:	000c9c00 	andeq	r9, ip, r0, lsl #24
     bc0:	03000600 	movweq	r0, #1536	; 0x600
     bc4:	0600007f 			; <UNDEFINED> instruction: 0x0600007f
     bc8:	009bb100 	addseq	fp, fp, r0, lsl #2
     bcc:	fc000600 	stc2	6, cr0, [r0], {-0}
     bd0:	06000033 			; <UNDEFINED> instruction: 0x06000033
     bd4:	00066400 	andeq	r6, r6, r0, lsl #8
     bd8:	ed000600 	stc	6, cr0, [r0, #-0]
     bdc:	06000044 	streq	r0, [r0], -r4, asr #32
     be0:	00731b00 	rsbseq	r1, r3, r0, lsl #22
     be4:	92000500 	andls	r0, r0, #0, 10
     be8:	05000089 	streq	r0, [r0, #-137]	; 0xffffff77
     bec:	00355400 	eorseq	r5, r5, r0, lsl #8
     bf0:	7d000500 	cfstr32vc	mvfx0, [r0, #-0]
     bf4:	05000026 	streq	r0, [r0, #-38]	; 0xffffffda
     bf8:	0065bb00 	rsbeq	fp, r5, r0, lsl #22
     bfc:	4b000500 	blmi	2004 <_Min_Stack_Size+0x1c04>
     c00:	05000097 	streq	r0, [r0, #-151]	; 0xffffff69
     c04:	005b1f00 	subseq	r1, fp, r0, lsl #30
     c08:	5e000500 	cfsh32pl	mvfx0, mvfx0, #0
     c0c:	00000017 	andeq	r0, r0, r7, lsl r0
     c10:	05000004 	streq	r0, [r0, #-4]
     c14:	0040ac09 	subeq	sl, r0, r9, lsl #24
     c18:	3a0c0500 	bcc	302020 <_Min_Stack_Size+0x301c20>
     c1c:	05000025 	streq	r0, [r0, #-37]	; 0xffffffdb
     c20:	0035630d 	eorseq	r6, r5, sp, lsl #6
     c24:	00040000 	andeq	r0, r4, r0
     c28:	1b4d0500 	blne	1342030 <_Min_Stack_Size+0x1341c30>
     c2c:	05000061 	streq	r0, [r0, #-97]	; 0xffffff9f
     c30:	5fdb03f0 	svcpl	0x00db03f0
     c34:	f3050000 	vhadd.u8	d0, d5, d0
     c38:	00358e03 	eorseq	r8, r5, r3, lsl #28
     c3c:	00040000 	andeq	r0, r4, r0
     c40:	61040500 	tstvs	r4, r0, lsl #10
     c44:	0500004d 	streq	r0, [r0, #-77]	; 0xffffffb3
     c48:	00955f06 	addseq	r5, r5, r6, lsl #30
     c4c:	47070500 	strmi	r0, [r7, -r0, lsl #10]
     c50:	0500001f 	streq	r0, [r0, #-31]	; 0xffffffe1
     c54:	005b3708 	subseq	r3, fp, r8, lsl #14
     c58:	af090500 	svcge	0x00090500
     c5c:	0000006b 	andeq	r0, r0, fp, rrx
     c60:	05000004 	streq	r0, [r0, #-4]
     c64:	00368f22 	eorseq	r8, r6, r2, lsr #30
     c68:	3d250500 	cfstr32cc	mvfx0, [r5, #-0]
     c6c:	0500008e 	streq	r0, [r0, #-142]	; 0xffffff72
     c70:	00303f2b 	eorseq	r3, r0, fp, lsr #30
     c74:	14350500 	ldrtne	r0, [r5], #-1280	; 0xfffffb00
     c78:	0500007e 	streq	r0, [r0, #-126]	; 0xffffff82
     c7c:	004dac39 	subeq	sl, sp, r9, lsr ip
     c80:	403c0500 	eorsmi	r0, ip, r0, lsl #10
     c84:	05000020 	streq	r0, [r0, #-32]	; 0xffffffe0
     c88:	0066593f 	rsbeq	r5, r6, pc, lsr r9
     c8c:	4c420500 	cfstr64mi	mvdx0, [r2], {-0}
     c90:	0500000c 	streq	r0, [r0, #-12]
     c94:	00820251 	addeq	r0, r2, r1, asr r2
     c98:	65540500 	ldrbvs	r0, [r4, #-1280]	; 0xfffffb00
     c9c:	05000040 	streq	r0, [r0, #-64]	; 0xffffffc0
     ca0:	0098bc5c 	addseq	fp, r8, ip, asr ip
     ca4:	625f0500 	subsvs	r0, pc, #0, 10
     ca8:	00000083 	andeq	r0, r0, r3, lsl #1
     cac:	05000004 	streq	r0, [r0, #-4]
     cb0:	0027f016 	eoreq	pc, r7, r6, lsl r0	; <UNPREDICTABLE>
     cb4:	0e210500 	cfsh64eq	mvdx0, mvdx1, #0
     cb8:	05000016 	streq	r0, [r0, #-22]	; 0xffffffea
     cbc:	00885528 	addeq	r5, r8, r8, lsr #10
     cc0:	01830600 	orreq	r0, r3, r0, lsl #12
     cc4:	00008c49 	andeq	r8, r0, r9, asr #24
     cc8:	46018405 	strmi	r8, [r1], -r5, lsl #8
     ccc:	06000045 	streq	r0, [r0], -r5, asr #32
     cd0:	42230188 	eormi	r0, r3, #136, 2	; 0x22
     cd4:	89050000 	stmdbhi	r5, {}	; <UNPREDICTABLE>
     cd8:	008e6901 	addeq	r6, lr, r1, lsl #18
     cdc:	018a0600 	orreq	r0, sl, r0, lsl #12
     ce0:	000099b1 			; <UNDEFINED> instruction: 0x000099b1
     ce4:	a3018b05 	movwge	r8, #6917	; 0x1b05
     ce8:	0600001c 			; <UNDEFINED> instruction: 0x0600001c
     cec:	3cba019e 	ldfccs	f0, [sl], #632	; 0x278
     cf0:	9f050000 	svcls	0x00050000
     cf4:	00580c01 	subseq	r0, r8, r1, lsl #24
     cf8:	01f70500 	mvnseq	r0, r0, lsl #10
     cfc:	0000614c 	andeq	r6, r0, ip, asr #2
     d00:	0f01fd05 	svceq	0x0001fd05
     d04:	05000056 	streq	r0, [r0, #-86]	; 0xffffffaa
     d08:	6daa0285 	sfmvs	f0, 4, [sl, #532]!	; 0x214
     d0c:	8a050000 	bhi	140d14 <_Min_Stack_Size+0x140914>
     d10:	00640302 	rsbeq	r0, r4, r2, lsl #6
     d14:	02950500 	addseq	r0, r5, #0, 10
     d18:	00001f19 	andeq	r1, r0, r9, lsl pc
     d1c:	b9029905 	stmdblt	r2, {r0, r2, r8, fp, ip, pc}
     d20:	05000069 	streq	r0, [r0, #-105]	; 0xffffff97
     d24:	5916029f 	ldmdbpl	r6, {r0, r1, r2, r3, r4, r7, r9}
     d28:	af050000 	svcge	0x00050000
     d2c:	00005702 	andeq	r5, r0, r2, lsl #14
     d30:	02bf0500 	adcseq	r0, pc, #0, 10
     d34:	0000876f 	andeq	r8, r0, pc, ror #14
     d38:	3d02ca05 	vstrcc	s24, [r2, #-20]	; 0xffffffec
     d3c:	00000087 	andeq	r0, r0, r7, lsl #1
     d40:	05000004 	streq	r0, [r0, #-4]
     d44:	62ea01e0 	rscvs	r0, sl, #224, 2	; 0x38
     d48:	e6060000 	str	r0, [r6], -r0
     d4c:	00423a01 	subeq	r3, r2, r1, lsl #20
     d50:	01ea0500 	mvneq	r0, r0, lsl #10
     d54:	000014c0 	andeq	r1, r0, r0, asr #9
     d58:	ae01fa05 	vmlage.f32	s30, s2, s10
     d5c:	0500005f 	streq	r0, [r0, #-95]	; 0xffffffa1
     d60:	60ad01fe 	strdvs	r0, [sp], lr	; <UNPREDICTABLE>
     d64:	85050000 	strhi	r0, [r5, #-0]
     d68:	00244102 	eoreq	r4, r4, r2, lsl #2
     d6c:	028b0500 	addeq	r0, fp, #0, 10
     d70:	00006032 	andeq	r6, r0, r2, lsr r0
     d74:	a9029805 	stmdbge	r2, {r0, r2, fp, ip, pc}
     d78:	0000008a 	andeq	r0, r0, sl, lsl #1
     d7c:	05000004 	streq	r0, [r0, #-4]
     d80:	0074f71f 	rsbseq	pc, r4, pc, lsl r7	; <UNPREDICTABLE>
     d84:	18200500 	stmdane	r0!, {r8, sl}
     d88:	05000032 	streq	r0, [r0, #-50]	; 0xffffffce
     d8c:	0058ae21 	subseq	sl, r8, r1, lsr #28
     d90:	ea250500 	b	942198 <_Min_Stack_Size+0x941d98>
     d94:	05000002 	streq	r0, [r0, #-2]
     d98:	0082222b 	addeq	r2, r2, fp, lsr #4
     d9c:	4b450500 	blmi	11421a4 <_Min_Stack_Size+0x1141da4>
     da0:	05000012 	streq	r0, [r0, #-18]	; 0xffffffee
     da4:	0019b249 	andseq	fp, r9, r9, asr #4
     da8:	384a0500 	stmdacc	sl, {r8, sl}^
     dac:	0000007b 	andeq	r0, r0, fp, ror r0
     db0:	05000004 	streq	r0, [r0, #-4]
     db4:	002b2e0d 	eoreq	r2, fp, sp, lsl #28
     db8:	f00e0500 			; <UNDEFINED> instruction: 0xf00e0500
     dbc:	05000029 	streq	r0, [r0, #-41]	; 0xffffffd7
     dc0:	0045220f 	subeq	r2, r5, pc, lsl #4
     dc4:	00040000 	andeq	r0, r4, r0
     dc8:	01b50500 			; <UNDEFINED> instruction: 0x01b50500
     dcc:	000019eb 	andeq	r1, r0, fp, ror #19
     dd0:	6601b605 	strvs	fp, [r1], -r5, lsl #12
     dd4:	0500000d 	streq	r0, [r0, #-13]
     dd8:	8c6601b7 	stfhie	f0, [r6], #-732	; 0xfffffd24
     ddc:	b8050000 	stmdalt	r5, {}	; <UNPREDICTABLE>
     de0:	00172001 	andseq	r2, r7, r1
     de4:	01b90500 			; <UNDEFINED> instruction: 0x01b90500
     de8:	000042a2 	andeq	r4, r0, r2, lsr #5
     dec:	9201ba05 	andls	fp, r1, #20480	; 0x5000
     df0:	05000011 	streq	r0, [r0, #-17]	; 0xffffffef
     df4:	687c01bb 	ldmdavs	ip!, {r0, r1, r3, r4, r5, r7, r8}^
     df8:	bc050000 	stclt	0, cr0, [r5], {-0}
     dfc:	0073c401 	rsbseq	ip, r3, r1, lsl #8
     e00:	01bd0500 			; <UNDEFINED> instruction: 0x01bd0500
     e04:	000073c0 	andeq	r7, r0, r0, asr #7
     e08:	e801be05 	stmda	r1, {r0, r2, r9, sl, fp, ip, sp, pc}
     e0c:	05000022 	streq	r0, [r0, #-34]	; 0xffffffde
     e10:	6d8a01bf 	stfvss	f0, [sl, #764]	; 0x2fc
     e14:	c0050000 	andgt	r0, r5, r0
     e18:	0022e401 	eoreq	lr, r2, r1, lsl #8
     e1c:	01c10500 	biceq	r0, r1, r0, lsl #10
     e20:	00001c4a 	andeq	r1, r0, sl, asr #24
     e24:	1c01c205 	sfmne	f4, 1, [r1], {5}
     e28:	05000023 	streq	r0, [r0, #-35]	; 0xffffffdd
     e2c:	8c6201c3 	stfhie	f0, [r2], #-780	; 0xfffffcf4
     e30:	c4050000 	strgt	r0, [r5], #-0
     e34:	005b5701 	subseq	r5, fp, r1, lsl #14
     e38:	01cb0500 	biceq	r0, fp, r0, lsl #10
     e3c:	000010a5 	andeq	r1, r0, r5, lsr #1
     e40:	c401e706 	strgt	lr, [r1], #-1798	; 0xfffff8fa
     e44:	0500004d 	streq	r0, [r0, #-77]	; 0xffffffb3
     e48:	4f050284 	svcmi	0x00050284
     e4c:	85050000 	strhi	r0, [r5, #-0]
     e50:	005ee202 	subseq	lr, lr, r2, lsl #4
     e54:	02860500 	addeq	r0, r6, #0, 10
     e58:	00005f67 	andeq	r5, r0, r7, ror #30
     e5c:	b2028705 	andlt	r8, r2, #1310720	; 0x140000
     e60:	0500008c 	streq	r0, [r0, #-140]	; 0xffffff74
     e64:	16620288 	strbtne	r0, [r2], -r8, lsl #5
     e68:	89050000 	stmdbhi	r5, {}	; <UNPREDICTABLE>
     e6c:	0054ea02 	subseq	lr, r4, r2, lsl #20
     e70:	028a0500 	addeq	r0, sl, #0, 10
     e74:	0000380c 	andeq	r3, r0, ip, lsl #16
     e78:	08028b05 	stmdaeq	r2, {r0, r2, r8, r9, fp, pc}
     e7c:	05000038 	streq	r0, [r0, #-56]	; 0xffffffc8
     e80:	9738028c 	ldrls	r0, [r8, -ip, lsl #5]!
     e84:	8d050000 	stchi	0, cr0, [r5, #-0]
     e88:	0071f302 	rsbseq	pc, r1, r2, lsl #6
     e8c:	028e0500 	addeq	r0, lr, #0, 10
     e90:	000075c4 	andeq	r7, r0, r4, asr #11
     e94:	eb028f05 	bl	a4ab0 <_Min_Stack_Size+0xa46b0>
     e98:	05000010 	streq	r0, [r0, #-16]
     e9c:	75bf0290 	ldrvc	r0, [pc, #656]!	; 1134 <_Min_Stack_Size+0xd34>
     ea0:	91050000 	mrsls	r0, (UNDEF: 5)
     ea4:	005f6302 	subseq	r6, pc, r2, lsl #6
     ea8:	02920500 	addseq	r0, r2, #0, 10
     eac:	00005c72 	andeq	r5, r0, r2, ror ip
     eb0:	3c029f06 	stccc	15, cr9, [r2], {6}
     eb4:	0600008d 	streq	r0, [r0], -sp, lsl #1
     eb8:	0f1c02d4 	svceq	0x001c02d4
     ebc:	86060000 	strhi	r0, [r6], -r0
     ec0:	003b8903 	eorseq	r8, fp, r3, lsl #18
     ec4:	038b0500 	orreq	r0, fp, #0, 10
     ec8:	00003a9d 	muleq	r0, sp, sl
     ecc:	82039106 	andhi	r9, r3, #-2147483647	; 0x80000001
     ed0:	0000003b 	andeq	r0, r0, fp, lsr r0
     ed4:	05000004 	streq	r0, [r0, #-4]
     ed8:	004abe27 	subeq	fp, sl, r7, lsr #28
     edc:	18280500 	stmdane	r8!, {r8, sl}
     ee0:	05000068 	streq	r0, [r0, #-104]	; 0xffffff98
     ee4:	004ab92a 	subeq	fp, sl, sl, lsr #18
     ee8:	01830500 	orreq	r0, r3, r0, lsl #10
     eec:	0000651f 	andeq	r6, r0, pc, lsl r5
     ef0:	f0018405 			; <UNDEFINED> instruction: 0xf0018405
     ef4:	05000049 	streq	r0, [r0, #-73]	; 0xffffffb7
     ef8:	5db60185 	ldfpls	f0, [r6, #532]!	; 0x214
     efc:	86050000 	strhi	r0, [r5], -r0
     f00:	006e1001 	rsbeq	r1, lr, r1
     f04:	01870500 	orreq	r0, r7, r0, lsl #10
     f08:	00000fec 	andeq	r0, r0, ip, ror #31
     f0c:	e8018805 	stmda	r1, {r0, r2, fp, pc}
     f10:	0500000f 	streq	r0, [r0, #-15]
     f14:	1c360189 	ldfnes	f0, [r6], #-548	; 0xfffffddc
     f18:	8a050000 	bhi	140f20 <_Min_Stack_Size+0x140b20>
     f1c:	00651b01 	rsbeq	r1, r5, r1, lsl #22
     f20:	018b0500 	orreq	r0, fp, r0, lsl #10
     f24:	000060cf 	andeq	r6, r0, pc, asr #1
     f28:	ab019b06 	blge	67b48 <_Min_Stack_Size+0x67748>
     f2c:	06000084 	streq	r0, [r0], -r4, lsl #1
     f30:	4dc401e7 	stfmie	f0, [r4, #924]	; 0x39c
     f34:	d4060000 	strle	r0, [r6], #-0
     f38:	000f1c02 	andeq	r1, pc, r2, lsl #24
     f3c:	03860600 	orreq	r0, r6, #0, 12
     f40:	00003b89 	andeq	r3, r0, r9, lsl #23
     f44:	9d038b05 	vstrls	d8, [r3, #-20]	; 0xffffffec
     f48:	0600003a 			; <UNDEFINED> instruction: 0x0600003a
     f4c:	3b820391 	blcc	fe081d98 <_estack+0xde07f598>
     f50:	96050000 	strls	r0, [r5], -r0
     f54:	0045a203 	subeq	sl, r5, r3, lsl #4
     f58:	039b0500 	orrseq	r0, fp, #0, 10
     f5c:	00007a9b 	muleq	r0, fp, sl
     f60:	00000400 	andeq	r0, r0, r0, lsl #8
     f64:	8ad01405 	bhi	ff405f80 <_estack+0xdf403780>
     f68:	16050000 	strne	r0, [r5], -r0
     f6c:	00002b2e 	andeq	r2, r0, lr, lsr #22
     f70:	8f1d1705 	svchi	0x001d1705
     f74:	04000000 	streq	r0, [r0], #-0
     f78:	9b060000 	blls	180f80 <_Min_Stack_Size+0x180b80>
     f7c:	0084ab01 	addeq	sl, r4, r1, lsl #22
     f80:	01e70600 	mvneq	r0, r0, lsl #12
     f84:	00004dc4 	andeq	r4, r0, r4, asr #27
     f88:	1c02d406 	cfstrsne	mvf13, [r2], {6}
     f8c:	0500000f 	streq	r0, [r0, #-15]
     f90:	2ab102d9 	bcs	fec41afc <_estack+0xdec3f2fc>
     f94:	e0060000 	and	r0, r6, r0
     f98:	0024a602 	eoreq	sl, r4, r2, lsl #12
     f9c:	03860600 	orreq	r0, r6, #0, 12
     fa0:	00003b89 	andeq	r3, r0, r9, lsl #23
     fa4:	9d038b05 	vstrls	d8, [r3, #-20]	; 0xffffffec
     fa8:	0600003a 			; <UNDEFINED> instruction: 0x0600003a
     fac:	3b820391 	blcc	fe081df8 <_estack+0xde07f5f8>
     fb0:	96050000 	strls	r0, [r5], -r0
     fb4:	0045a203 	subeq	sl, r5, r3, lsl #4
     fb8:	00040000 	andeq	r0, r4, r0
     fbc:	d5060500 	strle	r0, [r6, #-1280]	; 0xfffffb00
     fc0:	05000064 	streq	r0, [r0, #-100]	; 0xffffff9c
     fc4:	0058390f 	subseq	r3, r8, pc, lsl #18
     fc8:	9d1a0500 	cfldr32ls	mvfx0, [sl, #-0]
     fcc:	05000070 	streq	r0, [r0, #-112]	; 0xffffff90
     fd0:	0084e721 	addeq	lr, r4, r1, lsr #14
     fd4:	ea2f0500 	b	bc23dc <_Min_Stack_Size+0xbc1fdc>
     fd8:	05000040 	streq	r0, [r0, #-64]	; 0xffffffc0
     fdc:	0076443d 	rsbseq	r4, r6, sp, lsr r4
     fe0:	3f530500 	svccc	0x00530500
     fe4:	05000055 	streq	r0, [r0, #-85]	; 0xffffffab
     fe8:	0069d76d 	rsbeq	sp, r9, sp, ror #14
     fec:	018c0500 	orreq	r0, ip, r0, lsl #10
     ff0:	00005eef 	andeq	r5, r0, pc, ror #29
     ff4:	6301a605 	movwvs	sl, #5637	; 0x1605
     ff8:	05000019 	streq	r0, [r0, #-25]	; 0xffffffe7
     ffc:	3b3d01bc 	blcc	f416f4 <_Min_Stack_Size+0xf412f4>
    1000:	ce050000 	cdpgt	0, 0, cr0, cr5, cr0, {0}
    1004:	0056f901 	subseq	pc, r6, r1, lsl #18
    1008:	01f40600 	mvnseq	r0, r0, lsl #12
    100c:	000069ca 	andeq	r6, r0, sl, asr #19
    1010:	00000400 	andeq	r0, r0, r0, lsl #8
    1014:	6c177f06 	ldcvs	15, cr7, [r7], {6}
    1018:	92050000 	andls	r0, r5, #0
    101c:	003e3501 	eorseq	r3, lr, r1, lsl #10
    1020:	01940600 	orrseq	r0, r4, r0, lsl #12
    1024:	00007f70 	andeq	r7, r0, r0, ror pc
    1028:	4001b305 	andmi	fp, r1, r5, lsl #6
    102c:	0500001e 	streq	r0, [r0, #-30]	; 0xffffffe2
    1030:	1e5801bb 	mrcne	1, 2, r0, cr8, cr11, {5}
    1034:	c0050000 	andgt	r0, r5, r0
    1038:	00755901 	rsbseq	r5, r5, r1, lsl #18
    103c:	01c50500 	biceq	r0, r5, r0, lsl #10
    1040:	0000448f 	andeq	r4, r0, pc, lsl #9
    1044:	00000400 	andeq	r0, r0, r0, lsl #8
    1048:	84171105 	ldrhi	r1, [r7], #-261	; 0xfffffefb
    104c:	15050000 	strne	r0, [r5, #-0]
    1050:	00007aad 	andeq	r7, r0, sp, lsr #21
    1054:	00000400 	andeq	r0, r0, r0, lsl #8
    1058:	9ae80205 	bls	ffa01874 <_estack+0xdf9ff074>
    105c:	23050000 	movwcs	r0, #20480	; 0x5000
    1060:	00001fdc 	ldrdeq	r1, [r0], -ip
    1064:	02542505 	subseq	r2, r4, #20971520	; 0x1400000
    1068:	27050000 	strcs	r0, [r5, -r0]
    106c:	000077c6 	andeq	r7, r0, r6, asr #15
    1070:	183a2a05 	ldmdane	sl!, {r0, r2, r9, fp, sp}
    1074:	2c050000 	stccs	0, cr0, [r5], {-0}
    1078:	00009683 	andeq	r9, r0, r3, lsl #13
    107c:	92d02e05 	sbcsls	r2, r0, #5, 28	; 0x50
    1080:	30050000 	andcc	r0, r5, r0
    1084:	000043d5 	ldrdeq	r4, [r0], -r5
    1088:	6bc73205 	blvs	ff1cd8a4 <_estack+0xdf1cb0a4>
    108c:	34050000 	strcc	r0, [r5], #-0
    1090:	00002ed0 	ldrdeq	r2, [r0], -r0
    1094:	71263605 			; <UNDEFINED> instruction: 0x71263605
    1098:	38050000 	stmdacc	r5, {}	; <UNPREDICTABLE>
    109c:	00002fc2 	andeq	r2, r0, r2, asr #31
    10a0:	17f43b05 	ldrbne	r3, [r4, r5, lsl #22]!
    10a4:	3d050000 	stccc	0, cr0, [r5, #-0]
    10a8:	00002210 	andeq	r2, r0, r0, lsl r2
    10ac:	00000400 	andeq	r0, r0, r0, lsl #8
    10b0:	73774d05 	cmnvc	r7, #320	; 0x140
    10b4:	60050000 	andvs	r0, r5, r0
    10b8:	00008adf 	ldrdeq	r8, [r0], -pc	; <UNPREDICTABLE>
    10bc:	88416d05 	stmdahi	r1, {r0, r2, r8, sl, fp, sp, lr}^
    10c0:	af050000 	svcge	0x00050000
    10c4:	00984001 	addseq	r4, r8, r1
    10c8:	02bd0500 	adcseq	r0, sp, #0, 10
    10cc:	00007a3f 	andeq	r7, r0, pc, lsr sl
    10d0:	2002be05 	andcs	fp, r2, r5, lsl #28
    10d4:	05000048 	streq	r0, [r0, #-72]	; 0xffffffb8
    10d8:	60b702bf 	ldrhtvs	r0, [r7], pc
    10dc:	c0050000 	andgt	r0, r5, r0
    10e0:	0082b702 	addeq	fp, r2, r2, lsl #14
    10e4:	02c10500 	sbceq	r0, r1, #0, 10
    10e8:	00007917 	andeq	r7, r0, r7, lsl r9
    10ec:	1502c205 	strne	ip, [r2, #-517]	; 0xfffffdfb
    10f0:	0500005d 	streq	r0, [r0, #-93]	; 0xffffffa3
    10f4:	949402c3 	ldrls	r0, [r4], #707	; 0x2c3
    10f8:	cf050000 	svcgt	0x00050000
    10fc:	0012b802 	andseq	fp, r2, r2, lsl #16
    1100:	02d00500 	sbcseq	r0, r0, #0, 10
    1104:	0000992e 	andeq	r9, r0, lr, lsr #18
    1108:	0a02d105 	beq	b5524 <_Min_Stack_Size+0xb5124>
    110c:	05000004 	streq	r0, [r0, #-4]
    1110:	61d803d3 	ldrsbvs	r0, [r8, #51]	; 0x33
    1114:	ed050000 	stc	0, cr0, [r5, #-0]
    1118:	00859a03 	addeq	r9, r5, r3, lsl #20
    111c:	00040000 	andeq	r0, r4, r0
    1120:	bf0b0600 	svclt	0x000b0600
    1124:	05000077 	streq	r0, [r0, #-119]	; 0xffffff89
    1128:	004a4d10 	subeq	r4, sl, r0, lsl sp
    112c:	b81a0500 	ldmdalt	sl, {r8, sl}
    1130:	05000056 	streq	r0, [r0, #-86]	; 0xffffffaa
    1134:	0077a92d 	rsbseq	sl, r7, sp, lsr #18
    1138:	00040000 	andeq	r0, r4, r0
    113c:	03f80500 	mvnseq	r0, #0, 10
    1140:	000065da 	ldrdeq	r6, [r0], -sl
    1144:	59048205 	stmdbpl	r4, {r0, r2, r9, pc}
    1148:	05000015 	streq	r0, [r0, #-21]	; 0xffffffeb
    114c:	0e04048b 	cdpeq	4, 0, cr0, cr4, cr11, {4}
    1150:	8f050000 	svchi	0x00050000
    1154:	00373404 	eorseq	r3, r7, r4, lsl #8
    1158:	04940500 	ldreq	r0, [r4], #1280	; 0x500
    115c:	000007bd 			; <UNDEFINED> instruction: 0x000007bd
    1160:	ed049f05 	stc	15, cr9, [r4, #-20]	; 0xffffffec
    1164:	05000082 	streq	r0, [r0, #-130]	; 0xffffff7e
    1168:	536204a2 	cmnpl	r2, #-1577058304	; 0xa2000000
    116c:	a8050000 	stmdage	r5, {}	; <UNPREDICTABLE>
    1170:	00576604 	subseq	r6, r7, r4, lsl #12
    1174:	04ab0500 	strteq	r0, [fp], #1280	; 0x500
    1178:	000052e1 	andeq	r5, r0, r1, ror #5
    117c:	1204ae05 	andne	sl, r4, #5, 28	; 0x50
    1180:	0500004f 	streq	r0, [r0, #-79]	; 0xffffffb1
    1184:	5d4104c4 	cfstrdpl	mvd0, [r1, #-784]	; 0xfffffcf0
    1188:	c7050000 	strgt	r0, [r5, -r0]
    118c:	00043d04 	andeq	r3, r4, r4, lsl #26
    1190:	04ca0500 	strbeq	r0, [sl], #1280	; 0x500
    1194:	000028f3 	strdeq	r2, [r0], -r3
    1198:	a204cb05 	andge	ip, r4, #5120	; 0x1400
    119c:	05000072 	streq	r0, [r0, #-114]	; 0xffffff8e
    11a0:	1eec04cc 	cdpne	4, 14, cr0, cr12, cr12, {6}
    11a4:	cd050000 	stcgt	0, cr0, [r5, #-0]
    11a8:	0054a604 	subseq	sl, r4, r4, lsl #12
    11ac:	04ce0500 	strbeq	r0, [lr], #1280	; 0x500
    11b0:	000001b3 			; <UNDEFINED> instruction: 0x000001b3
    11b4:	d104cf05 	tstle	r4, r5, lsl #30
    11b8:	0500008f 	streq	r0, [r0, #-143]	; 0xffffff71
    11bc:	1de304d0 	cfstrdne	mvd0, [r3, #832]!	; 0x340
    11c0:	d1050000 	mrsle	r0, (UNDEF: 5)
    11c4:	00388f04 	eorseq	r8, r8, r4, lsl #30
    11c8:	04d20500 	ldrbeq	r0, [r2], #1280	; 0x500
    11cc:	00007505 	andeq	r7, r0, r5, lsl #10
    11d0:	c204d305 	andgt	sp, r4, #335544320	; 0x14000000
    11d4:	05000049 	streq	r0, [r0, #-73]	; 0xffffffb7
    11d8:	427b04d4 	rsbsmi	r0, fp, #212, 8	; 0xd4000000
    11dc:	d5050000 	strle	r0, [r5, #-0]
    11e0:	002e7004 	eoreq	r7, lr, r4
    11e4:	04d60500 	ldrbeq	r0, [r6], #1280	; 0x500
    11e8:	00001aab 	andeq	r1, r0, fp, lsr #21
    11ec:	d104d705 	tstle	r4, r5, lsl #14
    11f0:	0500008e 	streq	r0, [r0, #-142]	; 0xffffff72
    11f4:	32b304d8 	adcscc	r0, r3, #216, 8	; 0xd8000000
    11f8:	d9050000 	stmdble	r5, {}	; <UNPREDICTABLE>
    11fc:	0063b504 	rsbeq	fp, r3, r4, lsl #10
    1200:	04da0500 	ldrbeq	r0, [sl], #1280	; 0x500
    1204:	00005a14 	andeq	r5, r0, r4, lsl sl
    1208:	3e04db05 	vmlacc.f64	d13, d4, d5
    120c:	05000014 	streq	r0, [r0, #-20]	; 0xffffffec
    1210:	41e604dc 	ldrdmi	r0, [r6, #76]!	; 0x4c
    1214:	dd050000 	stcle	0, cr0, [r5, #-0]
    1218:	004bbd04 	subeq	fp, fp, r4, lsl #26
    121c:	04de0500 	ldrbeq	r0, [lr], #1280	; 0x500
    1220:	00000aca 	andeq	r0, r0, sl, asr #21
    1224:	b304df05 	movwlt	sp, #20229	; 0x4f05
    1228:	0500007d 	streq	r0, [r0, #-125]	; 0xffffff83
    122c:	6c9f04e0 	cfldrsvs	mvf0, [pc], {224}	; 0xe0
    1230:	e1050000 	mrs	r0, (UNDEF: 5)
    1234:	002d9004 	eoreq	r9, sp, r4
    1238:	06a00500 	strteq	r0, [r0], r0, lsl #10
    123c:	0000675d 	andeq	r6, r0, sp, asr r7
    1240:	2006a805 	andcs	sl, r6, r5, lsl #16
    1244:	05000004 	streq	r0, [r0, #-4]
    1248:	826806b0 	rsbhi	r0, r8, #176, 12	; 0xb000000
    124c:	c0050000 	andgt	r0, r5, r0
    1250:	002f1706 	eoreq	r1, pc, r6, lsl #14
    1254:	06c30500 	strbeq	r0, [r3], r0, lsl #10
    1258:	00008520 	andeq	r8, r0, r0, lsr #10
    125c:	4706c705 	strmi	ip, [r6, -r5, lsl #14]
    1260:	00000048 	andeq	r0, r0, r8, asr #32
    1264:	05000004 	streq	r0, [r0, #-4]
    1268:	0023ba31 	eoreq	fp, r3, r1, lsr sl
    126c:	92320500 	eorsls	r0, r2, #0, 10
    1270:	0500006c 	streq	r0, [r0, #-108]	; 0xffffff94
    1274:	00575d33 	subseq	r5, r7, r3, lsr sp
    1278:	cd360500 	cfldr32gt	mvfx0, [r6, #-0]
    127c:	05000076 	streq	r0, [r0, #-118]	; 0xffffff8a
    1280:	00203139 	eoreq	r3, r0, r9, lsr r1
    1284:	f03a0500 			; <UNDEFINED> instruction: 0xf03a0500
    1288:	05000090 	streq	r0, [r0, #-144]	; 0xffffff70
    128c:	0042cd3c 	subeq	ip, r2, ip, lsr sp
    1290:	3d3d0500 	cfldr32cc	mvfx0, [sp, #-0]
    1294:	05000033 	streq	r0, [r0, #-51]	; 0xffffffcd
    1298:	0022c13e 	eoreq	ip, r2, lr, lsr r1
    129c:	553f0500 	ldrpl	r0, [pc, #-1280]!	; da4 <_Min_Stack_Size+0x9a4>
    12a0:	05000085 	streq	r0, [r0, #-133]	; 0xffffff7b
    12a4:	0010af42 	andseq	sl, r0, r2, asr #30
    12a8:	29430500 	stmdbcs	r3, {r8, sl}^
    12ac:	0500000b 	streq	r0, [r0, #-11]
    12b0:	007b2c44 	rsbseq	r2, fp, r4, asr #24
    12b4:	734e0500 	movtvc	r0, #58624	; 0xe500
    12b8:	05000013 	streq	r0, [r0, #-19]	; 0xffffffed
    12bc:	00650851 	rsbeq	r0, r5, r1, asr r8
    12c0:	a75e0500 	ldrbge	r0, [lr, -r0, lsl #10]
    12c4:	05000044 	streq	r0, [r0, #-68]	; 0xffffffbc
    12c8:	007e985f 	rsbseq	r9, lr, pc, asr r8
    12cc:	d06b0500 	rsble	r0, fp, r0, lsl #10
    12d0:	05000089 	streq	r0, [r0, #-137]	; 0xffffff77
    12d4:	0049806c 	subeq	r8, r9, ip, rrx
    12d8:	18700500 	ldmdane	r0!, {r8, sl}^
    12dc:	05000005 	streq	r0, [r0, #-5]
    12e0:	00803871 	addeq	r3, r0, r1, ror r8
    12e4:	00720500 	rsbseq	r0, r2, r0, lsl #10
    12e8:	05000000 	streq	r0, [r0, #-0]
    12ec:	002e9a75 	eoreq	r9, lr, r5, ror sl
    12f0:	39780500 	ldmdbcc	r8!, {r8, sl}^
    12f4:	05000015 	streq	r0, [r0, #-21]	; 0xffffffeb
    12f8:	0033c97f 	eorseq	ip, r3, pc, ror r9
    12fc:	01800500 	orreq	r0, r0, r0, lsl #10
    1300:	00008753 	andeq	r8, r0, r3, asr r7
    1304:	50018105 	andpl	r8, r1, r5, lsl #2
    1308:	0500008b 	streq	r0, [r0, #-139]	; 0xffffff75
    130c:	6a720185 	bvs	1c81928 <_Min_Stack_Size+0x1c81528>
    1310:	8c050000 	stchi	0, cr0, [r5], {-0}
    1314:	00929701 	addseq	r9, r2, r1, lsl #14
    1318:	01900500 	orrseq	r0, r0, r0, lsl #10
    131c:	0000652b 	andeq	r6, r0, fp, lsr #10
    1320:	84019105 	strhi	r9, [r1], #-261	; 0xfffffefb
    1324:	05000023 	streq	r0, [r0, #-35]	; 0xffffffdd
    1328:	59cc0194 	stmibpl	ip, {r2, r4, r7, r8}^
    132c:	97050000 	strls	r0, [r5, -r0]
    1330:	0000a301 	andeq	sl, r0, r1, lsl #6
    1334:	01980500 	orrseq	r0, r8, r0, lsl #10
    1338:	00003026 	andeq	r3, r0, r6, lsr #32
    133c:	c6019905 	strgt	r9, [r1], -r5, lsl #18
    1340:	05000080 	streq	r0, [r0, #-128]	; 0xffffff80
    1344:	4939019b 	ldmdbmi	r9!, {r0, r1, r3, r4, r7, r8}
    1348:	9c050000 	stcls	0, cr0, [r5], {-0}
    134c:	008c6f01 	addeq	r6, ip, r1, lsl #30
    1350:	019e0500 	orrseq	r0, lr, r0, lsl #10
    1354:	00008d73 	andeq	r8, r0, r3, ror sp
    1358:	bb01a005 	bllt	69374 <_Min_Stack_Size+0x68f74>
    135c:	0500001c 	streq	r0, [r0, #-28]	; 0xffffffe4
    1360:	1d2401b1 	stfnes	f0, [r4, #-708]!	; 0xfffffd3c
    1364:	b2050000 	andlt	r0, r5, #0
    1368:	00116f01 	andseq	r6, r1, r1, lsl #30
    136c:	01b30500 			; <UNDEFINED> instruction: 0x01b30500
    1370:	000004fb 	strdeq	r0, [r0], -fp
    1374:	4801b405 	stmdami	r1, {r0, r2, sl, ip, sp, pc}
    1378:	05000067 	streq	r0, [r0, #-103]	; 0xffffff99
    137c:	332401b5 			; <UNDEFINED> instruction: 0x332401b5
    1380:	b7050000 	strlt	r0, [r5, -r0]
    1384:	007b8401 	rsbseq	r8, fp, r1, lsl #8
    1388:	01b80500 			; <UNDEFINED> instruction: 0x01b80500
    138c:	00006ffe 	strdeq	r6, [r0], -lr
    1390:	f401b905 	vst2.8	{d11,d13}, [r1], r5
    1394:	05000060 	streq	r0, [r0, #-96]	; 0xffffffa0
    1398:	010901e6 	smlatteq	r9, r6, r1, r0
    139c:	f3050000 	vhadd.u8	d0, d5, d0
    13a0:	00696001 	rsbeq	r6, r9, r1
    13a4:	01f40500 	mvnseq	r0, r0, lsl #10
    13a8:	000046fb 	strdeq	r4, [r0], -fp
    13ac:	4a01f505 	bmi	7e7c8 <_Min_Stack_Size+0x7e3c8>
    13b0:	05000056 	streq	r0, [r0, #-86]	; 0xffffffaa
    13b4:	2e0701f6 	mcrcs	1, 0, r0, cr7, cr6, {7}
    13b8:	f7050000 			; <UNDEFINED> instruction: 0xf7050000
    13bc:	00971301 	addseq	r1, r7, r1, lsl #6
    13c0:	01f80500 	mvnseq	r0, r0, lsl #10
    13c4:	00000a05 	andeq	r0, r0, r5, lsl #20
    13c8:	7501f905 	strvc	pc, [r1, #-2309]	; 0xfffff6fb
    13cc:	05000045 	streq	r0, [r0, #-69]	; 0xffffffbb
    13d0:	4bf601fc 	blmi	ffd81bc8 <_estack+0xdfd7f3c8>
    13d4:	fd050000 	stc2	0, cr0, [r5, #-0]
    13d8:	00254901 	eoreq	r4, r5, r1, lsl #18
    13dc:	02830500 	addeq	r0, r3, #0, 10
    13e0:	00002139 	andeq	r2, r0, r9, lsr r1
    13e4:	2802dc05 	stmdacs	r2, {r0, r2, sl, fp, ip, lr, pc}
    13e8:	0500002e 	streq	r0, [r0, #-46]	; 0xffffffd2
    13ec:	447602ee 	ldrbtmi	r0, [r6], #-750	; 0xfffffd12
    13f0:	f4050000 	vst4.8	{d0-d3}, [r5], r0
    13f4:	0061ae02 	rsbeq	sl, r1, r2, lsl #28
    13f8:	02f50500 	rscseq	r0, r5, #0, 10
    13fc:	000036af 	andeq	r3, r0, pc, lsr #13
    1400:	b002fc05 	andlt	pc, r2, r5, lsl #24
    1404:	05000093 	streq	r0, [r0, #-147]	; 0xffffff6d
    1408:	28290382 	stmdacs	r9!, {r1, r7, r8, r9}
    140c:	88050000 	stmdahi	r5, {}	; <UNPREDICTABLE>
    1410:	00946803 	addseq	r6, r4, r3, lsl #16
    1414:	03890500 	orreq	r0, r9, #0, 10
    1418:	000041a4 	andeq	r4, r0, r4, lsr #3
    141c:	a6039005 	strge	r9, [r3], -r5
    1420:	05000081 	streq	r0, [r0, #-129]	; 0xffffff7f
    1424:	0f440391 	svceq	0x00440391
    1428:	98050000 	stmdals	r5, {}	; <UNPREDICTABLE>
    142c:	00317a03 	eorseq	r7, r1, r3, lsl #20
    1430:	039e0500 	orrseq	r0, lr, #0, 10
    1434:	0000893c 	andeq	r8, r0, ip, lsr r9
    1438:	6b03b205 	blvs	edc54 <_Min_Stack_Size+0xed854>
    143c:	0500003a 	streq	r0, [r0, #-58]	; 0xffffffc6
    1440:	219d03d3 			; <UNDEFINED> instruction: 0x219d03d3
    1444:	d4050000 	strle	r0, [r5], #-0
    1448:	005bf303 	subseq	pc, fp, r3, lsl #6
    144c:	03db0500 	bicseq	r0, fp, #0, 10
    1450:	00001907 	andeq	r1, r0, r7, lsl #18
    1454:	5d03dc05 	stcpl	12, cr13, [r3, #-20]	; 0xffffffec
    1458:	0500002f 	streq	r0, [r0, #-47]	; 0xffffffd1
    145c:	2a0003df 	bcs	23e0 <_Min_Stack_Size+0x1fe0>
    1460:	e9050000 	stmdb	r5, {}	; <UNPREDICTABLE>
    1464:	00414d03 	subeq	r4, r1, r3, lsl #26
    1468:	03ea0500 	mvneq	r0, #0, 10
    146c:	000083cb 	andeq	r8, r0, fp, asr #7
    1470:	b003f405 	andlt	pc, r3, r5, lsl #8
    1474:	0500002b 	streq	r0, [r0, #-43]	; 0xffffffd5
    1478:	80ff048a 	rscshi	r0, pc, sl, lsl #9
    147c:	8c050000 	stchi	0, cr0, [r5], {-0}
    1480:	008a2b04 	addeq	r2, sl, r4, lsl #22
    1484:	048e0500 	streq	r0, [lr], #1280	; 0x500
    1488:	00009259 	andeq	r9, r0, r9, asr r2
    148c:	6b048f05 	blvs	1250a8 <_Min_Stack_Size+0x124ca8>
    1490:	0500001d 	streq	r0, [r0, #-29]	; 0xffffffe3
    1494:	95d80491 	ldrbls	r0, [r8, #1169]	; 0x491
    1498:	9b050000 	blls	1414a0 <_Min_Stack_Size+0x1410a0>
    149c:	0068ca04 	rsbeq	ip, r8, r4, lsl #20
    14a0:	04a00500 	strteq	r0, [r0], #1280	; 0x500
    14a4:	000088a6 	andeq	r8, r0, r6, lsr #17
    14a8:	fc04a505 	stc2	5, cr10, [r4], {5}
    14ac:	05000012 	streq	r0, [r0, #-18]	; 0xffffffee
    14b0:	4cad04a8 	cfstrsmi	mvf0, [sp], #672	; 0x2a0
    14b4:	ac050000 	stcge	0, cr0, [r5], {-0}
    14b8:	00807a04 	addeq	r7, r0, r4, lsl #20
    14bc:	04ae0500 	strteq	r0, [lr], #1280	; 0x500
    14c0:	000024b4 			; <UNDEFINED> instruction: 0x000024b4
    14c4:	3604d105 	strcc	sp, [r4], -r5, lsl #2
    14c8:	05000064 	streq	r0, [r0, #-100]	; 0xffffff9c
    14cc:	7d8304d5 	cfstrsvc	mvf0, [r3, #852]	; 0x354
    14d0:	d9050000 	stmdble	r5, {}	; <UNPREDICTABLE>
    14d4:	000fc804 	andeq	ip, pc, r4, lsl #16
    14d8:	04dd0500 	ldrbeq	r0, [sp], #1280	; 0x500
    14dc:	00002f93 	muleq	r0, r3, pc	; <UNPREDICTABLE>
    14e0:	b504e105 	strlt	lr, [r4, #-261]	; 0xfffffefb
    14e4:	05000067 	streq	r0, [r0, #-103]	; 0xffffff99
    14e8:	27b304e5 	ldrcs	r0, [r3, r5, ror #9]!
    14ec:	e9050000 	stmdb	r5, {}	; <UNPREDICTABLE>
    14f0:	0086b604 	addeq	fp, r6, r4, lsl #12
    14f4:	04ed0500 	strbteq	r0, [sp], #1280	; 0x500
    14f8:	0000963b 	andeq	r9, r0, fp, lsr r6
    14fc:	0404f405 	streq	pc, [r4], #-1029	; 0xfffffbfb
    1500:	05000016 	streq	r0, [r0, #-22]	; 0xffffffea
    1504:	199004f5 	ldmibne	r0, {r0, r2, r4, r5, r6, r7, sl}
    1508:	f6050000 			; <UNDEFINED> instruction: 0xf6050000
    150c:	0032ea04 	eorseq	lr, r2, r4, lsl #20
    1510:	04f70500 	ldrbteq	r0, [r7], #1280	; 0x500
    1514:	00004740 	andeq	r4, r0, r0, asr #14
    1518:	8604f805 	strhi	pc, [r4], -r5, lsl #16
    151c:	05000043 	streq	r0, [r0, #-67]	; 0xffffffbd
    1520:	670d058d 	strvs	r0, [sp, -sp, lsl #11]
    1524:	8e050000 	cdphi	0, 0, cr0, cr5, cr0, {0}
    1528:	00930e05 	addseq	r0, r3, r5, lsl #28
    152c:	05a00500 	streq	r0, [r0, #1280]!	; 0x500
    1530:	000081ee 	andeq	r8, r0, lr, ror #3
    1534:	2a05a605 	bcs	16ad50 <_Min_Stack_Size+0x16a950>
    1538:	0500007e 	streq	r0, [r0, #-126]	; 0xffffff82
    153c:	179505a9 	ldrne	r0, [r5, r9, lsr #11]
    1540:	ab050000 	blge	141548 <_Min_Stack_Size+0x141148>
    1544:	003dd705 	eorseq	sp, sp, r5, lsl #14
    1548:	05af0500 	streq	r0, [pc, #1280]!	; 1a50 <_Min_Stack_Size+0x1650>
    154c:	0000722f 	andeq	r7, r0, pc, lsr #4
    1550:	ff05b105 			; <UNDEFINED> instruction: 0xff05b105
    1554:	0500003c 	streq	r0, [r0, #-60]	; 0xffffffc4
    1558:	5f7105b5 	svcpl	0x007105b5
    155c:	b8050000 	stmdalt	r5, {}	; <UNPREDICTABLE>
    1560:	003aae05 	eorseq	sl, sl, r5, lsl #28
    1564:	05ba0500 	ldreq	r0, [sl, #1280]!	; 0x500
    1568:	000097f9 	strdeq	r9, [r0], -r9	; <UNPREDICTABLE>
    156c:	6205be05 	andvs	fp, r5, #5, 28	; 0x50
    1570:	05000001 	streq	r0, [r0, #-1]
    1574:	31cd05c0 	biccc	r0, sp, r0, asr #11
    1578:	c2050000 	andgt	r0, r5, #0
    157c:	005e4c05 	subseq	r4, lr, r5, lsl #24
    1580:	05c60500 	strbeq	r0, [r6, #1280]	; 0x500
    1584:	00007424 	andeq	r7, r0, r4, lsr #8
    1588:	7a05d105 	bvc	1759a4 <_Min_Stack_Size+0x1755a4>
    158c:	05000038 	streq	r0, [r0, #-56]	; 0xffffffc8
    1590:	9af805d2 	bls	ffe02ce0 <_estack+0xdfe004e0>
    1594:	d6050000 	strle	r0, [r5], -r0
    1598:	00172f05 	andseq	r2, r7, r5, lsl #30
    159c:	05d70500 	ldrbeq	r0, [r7, #1280]	; 0x500
    15a0:	00007fec 	andeq	r7, r0, ip, ror #31
    15a4:	00000400 	andeq	r0, r0, r0, lsl #8
    15a8:	8b850805 	blhi	fe1435c4 <_estack+0xde140dc4>
    15ac:	0d060000 	stceq	0, cr0, [r6, #-0]
    15b0:	00005e9a 	muleq	r0, sl, lr
    15b4:	75351005 	ldrvc	r1, [r5, #-5]!
    15b8:	04000000 	streq	r0, [r0], #-0
    15bc:	38050000 	stmdacc	r5, {}	; <UNPREDICTABLE>
    15c0:	00006986 	andeq	r6, r0, r6, lsl #19
    15c4:	94a93c05 	strtls	r3, [r9], #3077	; 0xc05
    15c8:	3d050000 	stccc	0, cr0, [r5, #-0]
    15cc:	00001f54 	andeq	r1, r0, r4, asr pc
    15d0:	42313f05 	eorsmi	r3, r1, #5, 30
    15d4:	43050000 	movwmi	r0, #20480	; 0x5000
    15d8:	000054f5 	strdeq	r5, [r0], -r5	; <UNPREDICTABLE>
    15dc:	c001a805 	andgt	sl, r1, r5, lsl #16
    15e0:	0000008b 	andeq	r0, r0, fp, lsl #1
    15e4:	05000004 	streq	r0, [r0, #-4]
    15e8:	008db20a 	addeq	fp, sp, sl, lsl #4
    15ec:	1d100500 	cfldr32ne	mvfx0, [r0, #-0]
    15f0:	06000058 			; <UNDEFINED> instruction: 0x06000058
    15f4:	0070072b 	rsbseq	r0, r0, fp, lsr #14
    15f8:	702c0600 	eorvc	r0, ip, r0, lsl #12
    15fc:	0600007f 			; <UNDEFINED> instruction: 0x0600007f
    1600:	00070a2d 	andeq	r0, r7, sp, lsr #20
    1604:	572e0600 	strpl	r0, [lr, -r0, lsl #12]!
    1608:	02000067 	andeq	r0, r0, #103	; 0x67
    160c:	746e692f 	strbtvc	r6, [lr], #-2351	; 0xfffff6d1
    1610:	9e300600 	cfmsuba32ls	mvax0, mvax0, mvfx0, mvfx0
    1614:	06000098 			; <UNDEFINED> instruction: 0x06000098
    1618:	00052e31 	andeq	r2, r5, r1, lsr lr
    161c:	f7320600 			; <UNDEFINED> instruction: 0xf7320600
    1620:	05000062 	streq	r0, [r0, #-98]	; 0xffffff9e
    1624:	0047dc33 	subeq	sp, r7, r3, lsr ip
    1628:	da340500 	ble	d02a30 <_Min_Stack_Size+0xd02630>
    162c:	05000047 	streq	r0, [r0, #-71]	; 0xffffffb9
    1630:	005e9235 	subseq	r9, lr, r5, lsr r2
    1634:	59360500 	ldmdbpl	r6!, {r8, sl}
    1638:	0500008c 	streq	r0, [r0, #-140]	; 0xffffff74
    163c:	00006837 	andeq	r6, r0, r7, lsr r8
    1640:	ce380500 	cfabs32gt	mvfx0, mvfx8
    1644:	05000073 	streq	r0, [r0, #-115]	; 0xffffff8d
    1648:	005e2539 	subseq	r2, lr, r9, lsr r5
    164c:	583a0500 	ldmdapl	sl!, {r8, sl}
    1650:	05000094 	streq	r0, [r0, #-148]	; 0xffffff6c
    1654:	003e8343 	eorseq	r8, lr, r3, asr #6
    1658:	724a0500 	subvc	r0, sl, #0, 10
    165c:	05000090 	streq	r0, [r0, #-144]	; 0xffffff70
    1660:	000b7f52 	andeq	r7, fp, r2, asr pc
    1664:	295d0500 	ldmdbcs	sp, {r8, sl}^
    1668:	0500003e 	streq	r0, [r0, #-62]	; 0xffffffc2
    166c:	008b9768 	addeq	r9, fp, r8, ror #14
    1670:	a3710500 	cmnge	r1, #0, 10
    1674:	05000093 	streq	r0, [r0, #-147]	; 0xffffff6d
    1678:	00825f78 	addeq	r5, r2, r8, ror pc
    167c:	01810500 	orreq	r0, r1, r0, lsl #10
    1680:	00001ec5 	andeq	r1, r0, r5, asr #29
    1684:	dc018805 	stcle	8, cr8, [r1], {5}
    1688:	05000087 	streq	r0, [r0, #-135]	; 0xffffff79
    168c:	47b90193 			; <UNDEFINED> instruction: 0x47b90193
    1690:	97050000 	strls	r0, [r5, -r0]
    1694:	00312a01 	eorseq	r2, r1, r1, lsl #20
    1698:	01a20500 			; <UNDEFINED> instruction: 0x01a20500
    169c:	000080f1 	strdeq	r8, [r0], -r1
    16a0:	7701ad05 	strvc	sl, [r1, -r5, lsl #26]
    16a4:	05000014 	streq	r0, [r0, #-20]	; 0xffffffec
    16a8:	65c301b6 	strbvs	r0, [r3, #438]	; 0x1b6
    16ac:	b8060000 	stmdalt	r6, {}	; <UNPREDICTABLE>
    16b0:	00700701 	rsbseq	r0, r0, r1, lsl #14
    16b4:	01b90600 			; <UNDEFINED> instruction: 0x01b90600
    16b8:	00007f70 	andeq	r7, r0, r0, ror pc
    16bc:	0a01ba06 	beq	6fedc <_Min_Stack_Size+0x6fadc>
    16c0:	06000007 	streq	r0, [r0], -r7
    16c4:	675701bb 			; <UNDEFINED> instruction: 0x675701bb
    16c8:	bc020000 	stclt	0, cr0, [r2], {-0}
    16cc:	746e6901 	strbtvc	r6, [lr], #-2305	; 0xfffff6ff
    16d0:	01bd0600 			; <UNDEFINED> instruction: 0x01bd0600
    16d4:	000062f7 	strdeq	r6, [r0], -r7
    16d8:	9e01c206 	cdpls	2, 0, cr12, cr1, cr6, {0}
    16dc:	06000098 			; <UNDEFINED> instruction: 0x06000098
    16e0:	052e01c3 	streq	r0, [lr, #-451]!	; 0xfffffe3d
    16e4:	04000000 	streq	r0, [r0], #-0
    16e8:	0a050000 	beq	1416f0 <_Min_Stack_Size+0x1412f0>
    16ec:	00004512 	andeq	r4, r0, r2, lsl r5
    16f0:	8d061505 	cfstr32hi	mvfx1, [r6, #-20]	; 0xffffffec
    16f4:	19050000 	stmdbne	r5, {}	; <UNPREDICTABLE>
    16f8:	000070da 	ldrdeq	r7, [r0], -sl
    16fc:	40eb1b05 	rscmi	r1, fp, r5, lsl #22
    1700:	21050000 	mrscs	r0, (UNDEF: 5)
    1704:	00003914 	andeq	r3, r0, r4, lsl r9
    1708:	126e2505 	rsbne	r2, lr, #20971520	; 0x1400000
    170c:	27050000 	strcs	r0, [r5, -r0]
    1710:	00007645 	andeq	r7, r0, r5, asr #12
    1714:	8d182d05 	ldchi	13, cr2, [r8, #-20]	; 0xffffffec
    1718:	31050000 	mrscc	r0, (UNDEF: 5)
    171c:	00000326 	andeq	r0, r0, r6, lsr #6
    1720:	55403305 	strbpl	r3, [r0, #-773]	; 0xfffffcfb
    1724:	39050000 	stmdbcc	r5, {}	; <UNPREDICTABLE>
    1728:	00007482 	andeq	r7, r0, r2, lsl #9
    172c:	262e3d05 	strtcs	r3, [lr], -r5, lsl #26
    1730:	3f050000 	svccc	0x00050000
    1734:	000069d8 	ldrdeq	r6, [r0], -r8
    1738:	92454405 	subls	r4, r5, #83886080	; 0x5000000
    173c:	49050000 	stmdbmi	r5, {}	; <UNPREDICTABLE>
    1740:	00006ea2 	andeq	r6, r0, r2, lsr #29
    1744:	16a94e05 	strtne	r4, [r9], r5, lsl #28
    1748:	53050000 	movwpl	r0, #20480	; 0x5000
    174c:	00007161 	andeq	r7, r0, r1, ror #2
    1750:	00000400 	andeq	r0, r0, r0, lsl #8
    1754:	5ef01705 	cdppl	7, 15, cr1, cr0, cr5, {0}
    1758:	1d050000 	stcne	0, cr0, [r5, #-0]
    175c:	00001964 	andeq	r1, r0, r4, ror #18
    1760:	3b3e2305 	blcc	f8a37c <_Min_Stack_Size+0xf89f7c>
    1764:	29050000 	stmdbcs	r5, {}	; <UNPREDICTABLE>
    1768:	000056fa 	strdeq	r5, [r0], -sl
    176c:	1f2f3505 	svcne	0x002f3505
    1770:	3f050000 	svccc	0x00050000
    1774:	00005ff5 	strdeq	r5, [r0], -r5	; <UNPREDICTABLE>
    1778:	10ba4905 	adcsne	r4, sl, r5, lsl #18
    177c:	53050000 	movwpl	r0, #20480	; 0x5000
    1780:	00002642 	andeq	r2, r0, r2, asr #12
    1784:	71018005 	tstvc	r1, r5
    1788:	05000099 	streq	r0, [r0, #-153]	; 0xffffff67
    178c:	60910181 	addsvs	r0, r1, r1, lsl #3
    1790:	82050000 	andhi	r0, r5, #0
    1794:	001b3501 	andseq	r3, fp, r1, lsl #10
    1798:	01980500 	orrseq	r0, r8, r0, lsl #10
    179c:	00003cc9 	andeq	r3, r0, r9, asr #25
    17a0:	e0019905 	and	r9, r1, r5, lsl #18
    17a4:	0500000c 	streq	r0, [r0, #-12]
    17a8:	9419019a 	ldrls	r0, [r9], #-410	; 0xfffffe66
    17ac:	a2050000 	andge	r0, r5, #0
    17b0:	0084f701 	addeq	pc, r4, r1, lsl #14
    17b4:	01a30500 			; <UNDEFINED> instruction: 0x01a30500
    17b8:	00002aba 			; <UNDEFINED> instruction: 0x00002aba
    17bc:	4d01a405 	cfstrsmi	mvf10, [r1, #-20]	; 0xffffffec
    17c0:	05000078 	streq	r0, [r0, #-120]	; 0xffffff88
    17c4:	01de01ae 	bicseq	r0, lr, lr, lsr #3
    17c8:	af050000 	svcge	0x00050000
    17cc:	000ff901 	andeq	pc, pc, r1, lsl #18
    17d0:	01b00500 	lslseq	r0, r0, #10
    17d4:	00007814 	andeq	r7, r0, r4, lsl r8
    17d8:	1f01b805 	svcne	0x0001b805
    17dc:	05000056 	streq	r0, [r0, #-86]	; 0xffffffaa
    17e0:	0bdd01b9 	bleq	ff741ecc <_estack+0xdf73f6cc>
    17e4:	ba050000 	blt	1417ec <_Min_Stack_Size+0x1413ec>
    17e8:	00326001 	eorseq	r6, r2, r1
    17ec:	01c40500 	biceq	r0, r4, r0, lsl #10
    17f0:	00007706 	andeq	r7, r0, r6, lsl #14
    17f4:	6901c505 	stmdbvs	r1, {r0, r2, r8, sl, lr, pc}
    17f8:	05000030 	streq	r0, [r0, #-48]	; 0xffffffd0
    17fc:	34a201c6 	strtcc	r0, [r2], #454	; 0x1c6
    1800:	d4050000 	strle	r0, [r5], #-0
    1804:	00344a01 	eorseq	r4, r4, r1, lsl #20
    1808:	01d50500 	bicseq	r0, r5, r0, lsl #10
    180c:	00002a33 	andeq	r2, r0, r3, lsr sl
    1810:	d601d605 	strle	sp, [r1], -r5, lsl #12
    1814:	0500007b 	streq	r0, [r0, #-123]	; 0xffffff85
    1818:	81cf01e6 	bichi	r0, pc, r6, ror #3
    181c:	e7050000 	str	r0, [r5, -r0]
    1820:	004e2c01 	subeq	r2, lr, r1, lsl #24
    1824:	01e80500 	mvneq	r0, r0, lsl #10
    1828:	00002c67 	andeq	r2, r0, r7, ror #24
    182c:	f601f605 			; <UNDEFINED> instruction: 0xf601f605
    1830:	05000014 	streq	r0, [r0, #-20]	; 0xffffffec
    1834:	129201f7 	addsne	r0, r2, #-1073741763	; 0xc000003d
    1838:	f8050000 			; <UNDEFINED> instruction: 0xf8050000
    183c:	00280101 	eoreq	r0, r8, r1, lsl #2
    1840:	02860500 	addeq	r0, r6, #0, 10
    1844:	00005bcc 	andeq	r5, r0, ip, asr #23
    1848:	18028705 	stmdane	r2, {r0, r2, r8, r9, sl, pc}
    184c:	05000025 	streq	r0, [r0, #-37]	; 0xffffffdb
    1850:	6d450288 	sfmvs	f0, 2, [r5, #-544]	; 0xfffffde0
    1854:	96050000 	strls	r0, [r5], -r0
    1858:	00092c02 	andeq	r2, r9, r2, lsl #24
    185c:	02970500 	addseq	r0, r7, #0, 10
    1860:	00005c85 	andeq	r5, r0, r5, lsl #25
    1864:	38029805 	stmdacc	r2, {r0, r2, fp, ip, pc}
    1868:	05000031 	streq	r0, [r0, #-49]	; 0xffffffcf
    186c:	16f702a6 	ldrbtne	r0, [r7], r6, lsr #5
    1870:	a7050000 	strge	r0, [r5, -r0]
    1874:	0098d102 	addseq	sp, r8, r2, lsl #2
    1878:	02a80500 	adceq	r0, r8, #0, 10
    187c:	00007991 	muleq	r0, r1, r9
    1880:	ac02b605 	stcge	6, cr11, [r2], {5}
    1884:	05000064 	streq	r0, [r0, #-100]	; 0xffffff9c
    1888:	46d702b7 			; <UNDEFINED> instruction: 0x46d702b7
    188c:	b8050000 	stmdalt	r5, {}	; <UNPREDICTABLE>
    1890:	00361202 	eorseq	r1, r6, r2, lsl #4
    1894:	02c60500 	sbceq	r0, r6, #0, 10
    1898:	0000304d 	andeq	r3, r0, sp, asr #32
    189c:	f602c705 			; <UNDEFINED> instruction: 0xf602c705
    18a0:	0500001f 	streq	r0, [r0, #-31]	; 0xffffffe1
    18a4:	488302cf 	stmmi	r3, {r0, r1, r2, r3, r6, r7, r9}
    18a8:	d7050000 	strle	r0, [r5, -r0]
    18ac:	0072f502 	rsbseq	pc, r2, r2, lsl #10
    18b0:	02dd0500 	sbcseq	r0, sp, #0, 10
    18b4:	000038b5 			; <UNDEFINED> instruction: 0x000038b5
    18b8:	8902de05 	stmdbhi	r2, {r0, r2, r9, sl, fp, ip, lr, pc}
    18bc:	0500002b 	streq	r0, [r0, #-43]	; 0xffffffd5
    18c0:	0d7202e2 	lfmeq	f0, 2, [r2, #-904]!	; 0xfffffc78
    18c4:	e6050000 	str	r0, [r5], -r0
    18c8:	00999202 	addseq	r9, r9, r2, lsl #4
    18cc:	02eb0500 	rsceq	r0, fp, #0, 10
    18d0:	0000206b 	andeq	r2, r0, fp, rrx
    18d4:	5902f605 	stmdbpl	r2, {r0, r2, r9, sl, ip, sp, lr, pc}
    18d8:	05000076 	streq	r0, [r0, #-118]	; 0xffffff8a
    18dc:	52710380 	rsbspl	r0, r1, #128, 6
    18e0:	85050000 	strhi	r0, [r5, #-0]
    18e4:	00001703 	andeq	r1, r0, r3, lsl #14
    18e8:	038c0500 	orreq	r0, ip, #0, 10
    18ec:	00004370 	andeq	r4, r0, r0, ror r3
    18f0:	93038d05 	movwls	r8, #15621	; 0x3d05
    18f4:	05000084 	streq	r0, [r0, #-132]	; 0xffffff7c
    18f8:	113b0398 	teqne	fp, r8	; <illegal shifter operand>
    18fc:	99050000 	stmdbls	r5, {}	; <UNPREDICTABLE>
    1900:	0038e103 	eorseq	lr, r8, r3, lsl #2
    1904:	03a40500 			; <UNDEFINED> instruction: 0x03a40500
    1908:	00007b14 	andeq	r7, r0, r4, lsl fp
    190c:	7a03a505 	bvc	ead28 <_Min_Stack_Size+0xea928>
    1910:	0500005b 	streq	r0, [r0, #-91]	; 0xffffffa5
    1914:	3ca203b1 	stccc	3, cr0, [r2], #708	; 0x2c4
    1918:	b2050000 	andlt	r0, r5, #0
    191c:	00858003 	addeq	r8, r5, r3
    1920:	03c10500 	biceq	r0, r1, #0, 10
    1924:	00001a91 	muleq	r0, r1, sl
    1928:	9d03c205 	sfmls	f4, 1, [r3, #-20]	; 0xffffffec
    192c:	00000069 	andeq	r0, r0, r9, rrx
    1930:	05000004 	streq	r0, [r0, #-4]
    1934:	00351a17 	eorseq	r1, r5, r7, lsl sl
    1938:	2f180500 	svccs	0x00180500
    193c:	05000045 	streq	r0, [r0, #-69]	; 0xffffffbb
    1940:	00381719 	eorseq	r1, r8, r9, lsl r7
    1944:	4e1b0500 	cfmul32mi	mvfx0, mvfx11, mvfx0
    1948:	05000010 	streq	r0, [r0, #-16]
    194c:	0002241c 	andeq	r2, r2, ip, lsl r4
    1950:	4f220500 	svcmi	0x00220500
    1954:	05000005 	streq	r0, [r0, #-5]
    1958:	0087fe25 	addeq	pc, r7, r5, lsr #28
    195c:	54260500 	strtpl	r0, [r6], #-1280	; 0xfffffb00
    1960:	05000020 	streq	r0, [r0, #-32]	; 0xffffffe0
    1964:	008b3927 	addeq	r3, fp, r7, lsr #18
    1968:	27280500 	strcs	r0, [r8, -r0, lsl #10]!
    196c:	05000014 	streq	r0, [r0, #-20]	; 0xffffffec
    1970:	004e1529 	subeq	r1, lr, r9, lsr #10
    1974:	832a0500 			; <UNDEFINED> instruction: 0x832a0500
    1978:	0500004c 	streq	r0, [r0, #-76]	; 0xffffffb4
    197c:	007d9c2b 	rsbseq	r9, sp, fp, lsr #24
    1980:	532d0500 			; <UNDEFINED> instruction: 0x532d0500
    1984:	0500008e 	streq	r0, [r0, #-142]	; 0xffffff72
    1988:	0059722e 	subseq	r7, r9, lr, lsr #4
    198c:	1e2f0500 	cfsh64ne	mvdx0, mvdx15, #0
    1990:	0500005f 	streq	r0, [r0, #-95]	; 0xffffffa1
    1994:	00856332 	addeq	r6, r5, r2, lsr r3
    1998:	e8330500 	ldmda	r3!, {r8, sl}
    199c:	0500004a 	streq	r0, [r0, #-74]	; 0xffffffb6
    19a0:	0074c334 	rsbseq	ip, r4, r4, lsr r3
    19a4:	4f350500 	svcmi	0x00350500
    19a8:	05000060 	streq	r0, [r0, #-96]	; 0xffffffa0
    19ac:	002dbc36 	eoreq	fp, sp, r6, lsr ip
    19b0:	b3370500 	teqlt	r7, #0, 10
    19b4:	0500004e 	streq	r0, [r0, #-78]	; 0xffffffb2
    19b8:	0094d838 	addseq	sp, r4, r8, lsr r8
    19bc:	8e3a0500 	cfabs32hi	mvfx0, mvfx10
    19c0:	0500009a 	streq	r0, [r0, #-154]	; 0xffffff66
    19c4:	0098a63b 	addseq	sl, r8, fp, lsr r6
    19c8:	e63c0500 	ldrt	r0, [ip], -r0, lsl #10
    19cc:	05000033 	streq	r0, [r0, #-51]	; 0xffffffcd
    19d0:	005ac53d 	subseq	ip, sl, sp, lsr r5
    19d4:	a23e0500 	eorsge	r0, lr, #0, 10
    19d8:	0500000b 	streq	r0, [r0, #-11]
    19dc:	008d4a3f 	addeq	r4, sp, pc, lsr sl
    19e0:	02400500 	subeq	r0, r0, #0, 10
    19e4:	05000025 	streq	r0, [r0, #-37]	; 0xffffffdb
    19e8:	00778b41 	rsbseq	r8, r7, r1, asr #22
    19ec:	d1420500 	cmple	r2, r0, lsl #10
    19f0:	05000012 	streq	r0, [r0, #-18]	; 0xffffffee
    19f4:	003e4544 	eorseq	r4, lr, r4, asr #10
    19f8:	5e450500 	cdppl	5, 4, cr0, cr5, cr0, {0}
    19fc:	05000036 	streq	r0, [r0, #-54]	; 0xffffffca
    1a00:	0097e246 	addseq	lr, r7, r6, asr #4
    1a04:	80470500 	subhi	r0, r7, r0, lsl #10
    1a08:	05000093 	streq	r0, [r0, #-147]	; 0xffffff6d
    1a0c:	0091ff48 	addseq	pc, r1, r8, asr #30
    1a10:	9c4a0500 	cfstr64ls	mvdx0, [sl], {-0}
    1a14:	0500008d 	streq	r0, [r0, #-141]	; 0xffffff73
    1a18:	0077484b 	rsbseq	r4, r7, fp, asr #16
    1a1c:	21500500 	cmpcs	r0, r0, lsl #10
    1a20:	05000015 	streq	r0, [r0, #-21]	; 0xffffffeb
    1a24:	00014a51 	andeq	r4, r1, r1, asr sl
    1a28:	33520500 	cmpcc	r2, #0, 10
    1a2c:	05000034 	streq	r0, [r0, #-52]	; 0xffffffcc
    1a30:	001dcc53 	andseq	ip, sp, r3, asr ip
    1a34:	00550500 	subseq	r0, r5, r0, lsl #10
    1a38:	05000059 	streq	r0, [r0, #-89]	; 0xffffffa7
    1a3c:	2691028b 	ldrcs	r0, [r1], fp, lsl #5
    1a40:	8c050000 	stchi	0, cr0, [r5], {-0}
    1a44:	007cf302 	rsbseq	pc, ip, r2, lsl #6
    1a48:	028d0500 	addeq	r0, sp, #0, 10
    1a4c:	0000683f 	andeq	r6, r0, pc, lsr r8
    1a50:	89028e05 	stmdbhi	r2, {r0, r2, r9, sl, fp, pc}
    1a54:	05000052 	streq	r0, [r0, #-82]	; 0xffffffae
    1a58:	0725028f 	streq	r0, [r5, -pc, lsl #5]!
    1a5c:	92050000 	andls	r0, r5, #0
    1a60:	001f8002 	andseq	r8, pc, r2
    1a64:	02930500 	addseq	r0, r3, #0, 10
    1a68:	000078d6 	ldrdeq	r7, [r0], -r6
    1a6c:	1e029405 	cdpne	4, 0, cr9, cr2, cr5, {0}
    1a70:	05000027 	streq	r0, [r0, #-39]	; 0xffffffd9
    1a74:	4c3b0295 	lfmmi	f0, 4, [fp], #-596	; 0xfffffdac
    1a78:	96050000 	strls	r0, [r5], -r0
    1a7c:	00166c02 	andseq	r6, r6, r2, lsl #24
    1a80:	029c0500 	addseq	r0, ip, #0, 10
    1a84:	00009216 	andeq	r9, r0, r6, lsl r2
    1a88:	9d029e05 	stcls	14, cr9, [r2, #-20]	; 0xffffffec
    1a8c:	05000033 	streq	r0, [r0, #-51]	; 0xffffffcd
    1a90:	3f2302a0 	svccc	0x002302a0
    1a94:	a3050000 	movwge	r0, #20480	; 0x5000
    1a98:	00757302 	rsbseq	r7, r5, r2, lsl #6
    1a9c:	02a40500 	adceq	r0, r4, #0, 10
    1aa0:	000048a1 	andeq	r4, r0, r1, lsr #17
    1aa4:	1002a505 	andne	sl, r2, r5, lsl #10
    1aa8:	0500001c 	streq	r0, [r0, #-28]	; 0xffffffe4
    1aac:	6e2c02a6 	cdpvs	2, 2, cr0, cr12, cr6, {5}
    1ab0:	a7050000 	strge	r0, [r5, -r0]
    1ab4:	001a1002 	andseq	r1, sl, r2
    1ab8:	02aa0500 	adceq	r0, sl, #0, 10
    1abc:	00003351 	andeq	r3, r0, r1, asr r3
    1ac0:	2a02ab05 	bcs	ac6dc <_Min_Stack_Size+0xac2dc>
    1ac4:	0500000c 	streq	r0, [r0, #-12]
    1ac8:	0b0702ac 	bleq	1c2580 <_Min_Stack_Size+0x1c2180>
    1acc:	b2050000 	andlt	r0, r5, #0
    1ad0:	00994502 	addseq	r4, r9, r2, lsl #10
    1ad4:	02b30500 	adcseq	r0, r3, #0, 10
    1ad8:	000004cf 	andeq	r0, r0, pc, asr #9
    1adc:	b402b405 	strlt	fp, [r2], #-1029	; 0xfffffbfb
    1ae0:	0500000c 	streq	r0, [r0, #-12]
    1ae4:	66e102b5 			; <UNDEFINED> instruction: 0x66e102b5
    1ae8:	b6050000 	strlt	r0, [r5], -r0
    1aec:	001afc02 	andseq	pc, sl, r2, lsl #24
    1af0:	02b80500 	adcseq	r0, r8, #0, 10
    1af4:	00006693 	muleq	r0, r3, r6
    1af8:	0102ba05 	tsteq	r2, r5, lsl #20
    1afc:	0500003a 	streq	r0, [r0, #-58]	; 0xffffffc6
    1b00:	749502bb 	ldrvc	r0, [r5], #699	; 0x2bb
    1b04:	bc050000 	stclt	0, cr0, [r5], {-0}
    1b08:	007c4202 	rsbseq	r4, ip, r2, lsl #4
    1b0c:	02be0500 	adcseq	r0, lr, #0, 10
    1b10:	0000433e 	andeq	r4, r0, lr, lsr r3
    1b14:	9b02bf05 	blls	b1730 <_Min_Stack_Size+0xb1330>
    1b18:	05000076 	streq	r0, [r0, #-118]	; 0xffffff8a
    1b1c:	7f9b02c0 	svcvc	0x009b02c0
    1b20:	c2050000 	andgt	r0, r5, #0
    1b24:	0058d402 	subseq	sp, r8, r2, lsl #8
    1b28:	02c30500 	sbceq	r0, r3, #0, 10
    1b2c:	00002598 	muleq	r0, r8, r5
    1b30:	3702c405 	strcc	ip, [r2, -r5, lsl #8]
    1b34:	0500001d 	streq	r0, [r0, #-29]	; 0xffffffe3
    1b38:	72d202ce 	sbcsvc	r0, r2, #-536870900	; 0xe000000c
    1b3c:	cf050000 	svcgt	0x00050000
    1b40:	0029b702 	eoreq	fp, r9, r2, lsl #14
    1b44:	02d00500 	sbcseq	r0, r0, #0, 10
    1b48:	00002f51 	andeq	r2, r0, r1, asr pc
    1b4c:	5202d105 	andpl	sp, r2, #1073741825	; 0x40000001
    1b50:	05000036 	streq	r0, [r0, #-54]	; 0xffffffca
    1b54:	6ad702d2 	bvs	ff5c26a4 <_estack+0xdf5bfea4>
    1b58:	d3050000 	movwle	r0, #20480	; 0x5000
    1b5c:	005b4a02 	subseq	r4, fp, r2, lsl #20
    1b60:	02d40500 	sbcseq	r0, r4, #0, 10
    1b64:	00001f63 	andeq	r1, r0, r3, ror #30
    1b68:	be02d505 	cfsh32lt	mvfx13, mvfx2, #5
    1b6c:	05000083 	streq	r0, [r0, #-131]	; 0xffffff7d
    1b70:	7caa02d6 	sfmvc	f0, 4, [sl], #856	; 0x358
    1b74:	d7050000 	strle	r0, [r5, -r0]
    1b78:	00030302 	andeq	r0, r3, r2, lsl #6
    1b7c:	02d80500 	sbcseq	r0, r8, #0, 10
    1b80:	000058c6 	andeq	r5, r0, r6, asr #17
    1b84:	9002d905 	andls	sp, r2, r5, lsl #18
    1b88:	0500006b 	streq	r0, [r0, #-107]	; 0xffffff95
    1b8c:	802a02da 	ldrdhi	r0, [sl], -sl	; <UNPREDICTABLE>
    1b90:	db050000 	blle	141b98 <_Min_Stack_Size+0x141798>
    1b94:	002d5002 	eoreq	r5, sp, r2
    1b98:	02dc0500 	sbcseq	r0, ip, #0, 10
    1b9c:	00005949 	andeq	r5, r0, r9, asr #18
    1ba0:	a102dd05 	tstge	r2, r5, lsl #26
    1ba4:	05000071 	streq	r0, [r0, #-113]	; 0xffffff8f
    1ba8:	481202de 	ldmdami	r2, {r1, r2, r3, r4, r6, r7, r9}
    1bac:	df050000 	svcle	0x00050000
    1bb0:	0056cf02 	subseq	ip, r6, r2, lsl #30
    1bb4:	02e00500 	rsceq	r0, r0, #0, 10
    1bb8:	000048c7 	andeq	r4, r0, r7, asr #17
    1bbc:	3c02e105 	stfccd	f6, [r2], {5}
    1bc0:	05000067 	streq	r0, [r0, #-103]	; 0xffffff99
    1bc4:	2c8302e2 	sfmcs	f0, 4, [r3], {226}	; 0xe2
    1bc8:	e3050000 	movw	r0, #20480	; 0x5000
    1bcc:	00992202 	addseq	r2, r9, r2, lsl #4
    1bd0:	02e90500 	rsceq	r0, r9, #0, 10
    1bd4:	00007176 	andeq	r7, r0, r6, ror r1
    1bd8:	e502ea05 	str	lr, [r2, #-2565]	; 0xfffff5fb
    1bdc:	05000023 	streq	r0, [r0, #-35]	; 0xffffffdd
    1be0:	0a9f02eb 	beq	fe7c2794 <_estack+0xde7bff94>
    1be4:	ec050000 	stc	0, cr0, [r5], {-0}
    1be8:	00076102 	andeq	r6, r7, r2, lsl #2
    1bec:	02ed0500 	rsceq	r0, sp, #0, 10
    1bf0:	00003f43 	andeq	r3, r0, r3, asr #30
    1bf4:	6602ee05 	strvs	lr, [r2], -r5, lsl #28
    1bf8:	05000017 	streq	r0, [r0, #-23]	; 0xffffffe9
    1bfc:	3bd702ef 	blcc	ff5c27c0 <_estack+0xdf5bffc0>
    1c00:	f1050000 			; <UNDEFINED> instruction: 0xf1050000
    1c04:	002ade02 	eoreq	sp, sl, r2, lsl #28
    1c08:	02f20500 	rscseq	r0, r2, #0, 10
    1c0c:	00006ae4 	andeq	r6, r0, r4, ror #21
    1c10:	0202f305 	andeq	pc, r2, #335544320	; 0x14000000
    1c14:	0500006a 	streq	r0, [r0, #-106]	; 0xffffff96
    1c18:	57e002f4 			; <UNDEFINED> instruction: 0x57e002f4
    1c1c:	f5050000 			; <UNDEFINED> instruction: 0xf5050000
    1c20:	0096d802 	addseq	sp, r6, r2, lsl #16
    1c24:	02f60500 	rscseq	r0, r6, #0, 10
    1c28:	00008687 	andeq	r8, r0, r7, lsl #13
    1c2c:	f602f705 			; <UNDEFINED> instruction: 0xf602f705
    1c30:	05000070 	streq	r0, [r0, #-112]	; 0xffffff90
    1c34:	03ce02fb 	biceq	r0, lr, #-1342177265	; 0xb000000f
    1c38:	fc050000 	stc2	0, cr0, [r5], {-0}
    1c3c:	0099e702 	addseq	lr, r9, r2, lsl #14
    1c40:	02fd0500 	rscseq	r0, sp, #0, 10
    1c44:	00003224 	andeq	r3, r0, r4, lsr #4
    1c48:	00038005 	andeq	r8, r3, r5
    1c4c:	0500003b 	streq	r0, [r0, #-59]	; 0xffffffc5
    1c50:	120e0381 	andne	r0, lr, #67108866	; 0x4000002
    1c54:	82050000 	andhi	r0, r5, #0
    1c58:	004e5903 	subeq	r5, lr, r3, lsl #18
    1c5c:	03860500 	orreq	r0, r6, #0, 10
    1c60:	0000841f 	andeq	r8, r0, pc, lsl r4
    1c64:	6e038705 	cdpvs	7, 0, cr8, cr3, cr5, {0}
    1c68:	05000081 	streq	r0, [r0, #-129]	; 0xffffff7f
    1c6c:	7ecb0388 	cdpvc	3, 12, cr0, cr11, cr8, {4}
    1c70:	8b050000 	blhi	141c78 <_Min_Stack_Size+0x141878>
    1c74:	00738703 	rsbseq	r8, r3, r3, lsl #14
    1c78:	038c0500 	orreq	r0, ip, #0, 10
    1c7c:	00005dd1 	ldrdeq	r5, [r0], -r1
    1c80:	47038d05 	strmi	r8, [r3, -r5, lsl #26]
    1c84:	00000093 	muleq	r0, r3, r0
    1c88:	05000004 	streq	r0, [r0, #-4]
    1c8c:	007fcd2a 	rsbseq	ip, pc, sl, lsr #26
    1c90:	492b0500 	stmdbmi	fp!, {r8, sl}
    1c94:	05000065 	streq	r0, [r0, #-101]	; 0xffffff9b
    1c98:	008df52c 	addeq	pc, sp, ip, lsr #10
    1c9c:	d12d0500 			; <UNDEFINED> instruction: 0xd12d0500
    1ca0:	05000090 	streq	r0, [r0, #-144]	; 0xffffff70
    1ca4:	000c5b2e 	andeq	r5, ip, lr, lsr #22
    1ca8:	9c2f0500 	cfstr32ls	mvfx0, [pc], #-0	; 1cb0 <_Min_Stack_Size+0x18b0>
    1cac:	05000028 	streq	r0, [r0, #-40]	; 0xffffffd8
    1cb0:	004ac930 	subeq	ip, sl, r0, lsr r9
    1cb4:	e5310500 	ldr	r0, [r1, #-1280]!	; 0xfffffb00
    1cb8:	0500000d 	streq	r0, [r0, #-13]
    1cbc:	00557e32 	subseq	r7, r5, r2, lsr lr
    1cc0:	82330500 	eorshi	r0, r3, #0, 10
    1cc4:	05000090 	streq	r0, [r0, #-144]	; 0xffffff70
    1cc8:	0093ee34 	addseq	lr, r3, r4, lsr lr
    1ccc:	62350500 	eorsvs	r0, r5, #0, 10
    1cd0:	05000074 	streq	r0, [r0, #-116]	; 0xffffff8c
    1cd4:	00285336 	eoreq	r5, r8, r6, lsr r3
    1cd8:	ad370500 	cfldr32ge	mvfx0, [r7, #-0]
    1cdc:	05000031 	streq	r0, [r0, #-49]	; 0xffffffcf
    1ce0:	0016bd38 	andseq	fp, r6, r8, lsr sp
    1ce4:	82390500 	eorshi	r0, r9, #0, 10
    1ce8:	05000072 	streq	r0, [r0, #-114]	; 0xffffff8e
    1cec:	007a1e3a 	rsbseq	r1, sl, sl, lsr lr
    1cf0:	ba3c0500 	blt	f030f8 <_Min_Stack_Size+0xf02cf8>
    1cf4:	05000000 	streq	r0, [r0, #-0]
    1cf8:	00315e4e 	eorseq	r5, r1, lr, asr #28
    1cfc:	1e4f0500 	cdpne	5, 4, cr0, cr15, cr0, {0}
    1d00:	05000046 	streq	r0, [r0, #-70]	; 0xffffffba
    1d04:	007cd550 	rsbseq	sp, ip, r0, asr r5
    1d08:	50510500 	subspl	r0, r1, r0, lsl #10
    1d0c:	05000042 	streq	r0, [r0, #-66]	; 0xffffffbe
    1d10:	0068ed52 	rsbeq	lr, r8, r2, asr sp
    1d14:	5e530500 	cdppl	5, 5, cr0, cr3, cr0, {0}
    1d18:	05000077 	streq	r0, [r0, #-119]	; 0xffffff89
    1d1c:	00541554 	subseq	r1, r4, r4, asr r5
    1d20:	5b550500 	blpl	1543128 <_Min_Stack_Size+0x1542d28>
    1d24:	05000026 	streq	r0, [r0, #-38]	; 0xffffffda
    1d28:	0082cf56 	addeq	ip, r2, r6, asr pc
    1d2c:	24610500 	strbtcs	r0, [r1], #-1280	; 0xfffffb00
    1d30:	05000068 	streq	r0, [r0, #-104]	; 0xffffff98
    1d34:	000dcb62 	andeq	ip, sp, r2, ror #22
    1d38:	07630500 	strbeq	r0, [r3, -r0, lsl #10]!
    1d3c:	00000040 	andeq	r0, r0, r0, asr #32
    1d40:	05000004 	streq	r0, [r0, #-4]
    1d44:	00364a2b 	eorseq	r4, r6, fp, lsr #20
    1d48:	572c0500 	strpl	r0, [ip, -r0, lsl #10]!
    1d4c:	05000059 	streq	r0, [r0, #-89]	; 0xffffffa7
    1d50:	0075a82d 	rsbseq	sl, r5, sp, lsr #16
    1d54:	602e0500 	eorvs	r0, lr, r0, lsl #10
    1d58:	05000094 	streq	r0, [r0, #-148]	; 0xffffff6c
    1d5c:	0065d22f 	rsbeq	sp, r5, pc, lsr #4
    1d60:	2c300500 	cfldr32cs	mvfx0, [r0], #-0
    1d64:	05000037 	streq	r0, [r0, #-55]	; 0xffffffc9
    1d68:	005b2f31 	subseq	r2, fp, r1, lsr pc
    1d6c:	8b320500 	blhi	c83174 <_Min_Stack_Size+0xc82d74>
    1d70:	05000087 	streq	r0, [r0, #-135]	; 0xffffff79
    1d74:	00955733 	addseq	r5, r5, r3, lsr r7
    1d78:	f4340500 			; <UNDEFINED> instruction: 0xf4340500
    1d7c:	0500001a 	streq	r0, [r0, #-26]	; 0xffffffe6
    1d80:	000ef635 	andeq	pc, lr, r5, lsr r6	; <UNPREDICTABLE>
    1d84:	d8360500 	ldmdale	r6!, {r8, sl}
    1d88:	0500005e 	streq	r0, [r0, #-94]	; 0xffffffa2
    1d8c:	00526737 	subseq	r6, r2, r7, lsr r7
    1d90:	b8380500 	ldmdalt	r8!, {r8, sl}
    1d94:	05000094 	streq	r0, [r0, #-148]	; 0xffffff6c
    1d98:	0011df39 	andseq	sp, r1, r9, lsr pc
    1d9c:	7f3a0500 	svcvc	0x003a0500
    1da0:	05000061 	streq	r0, [r0, #-97]	; 0xffffff9f
    1da4:	0071af40 	rsbseq	sl, r1, r0, asr #30
    1da8:	c4410500 	strbgt	r0, [r1], #-1280	; 0xfffffb00
    1dac:	05000037 	streq	r0, [r0, #-55]	; 0xffffffc9
    1db0:	007b9242 	rsbseq	r9, fp, r2, asr #4
    1db4:	18430500 	stmdane	r3, {r8, sl}^
    1db8:	05000044 	streq	r0, [r0, #-68]	; 0xffffffbc
    1dbc:	0025ea47 	eoreq	lr, r5, r7, asr #20
    1dc0:	86480500 	strbhi	r0, [r8], -r0, lsl #10
    1dc4:	05000068 	streq	r0, [r0, #-104]	; 0xffffff98
    1dc8:	007bfe49 	rsbseq	pc, fp, r9, asr #28
    1dcc:	374a0500 	strbcc	r0, [sl, -r0, lsl #10]
    1dd0:	0500009a 	streq	r0, [r0, #-154]	; 0xffffff66
    1dd4:	00475b4e 	subeq	r5, r7, lr, asr #22
    1dd8:	a44f0500 	strbge	r0, [pc], #-1280	; 1de0 <_Min_Stack_Size+0x19e0>
    1ddc:	0500009a 	streq	r0, [r0, #-154]	; 0xffffff66
    1de0:	0035ce50 	eorseq	ip, r5, r0, asr lr
    1de4:	a8510500 	ldmdage	r1, {r8, sl}^
    1de8:	05000009 	streq	r0, [r0, #-9]
    1dec:	00383655 	eorseq	r3, r8, r5, asr r6
    1df0:	62560500 	subsvs	r0, r6, #0, 10
    1df4:	05000054 	streq	r0, [r0, #-84]	; 0xffffffac
    1df8:	003ec257 	eorseq	ip, lr, r7, asr r2
    1dfc:	55580500 	ldrbpl	r0, [r8, #-1280]	; 0xfffffb00
    1e00:	05000009 	streq	r0, [r0, #-9]
    1e04:	0065775c 	rsbeq	r7, r5, ip, asr r7
    1e08:	425d0500 	subsmi	r0, sp, #0, 10
    1e0c:	0500003c 	streq	r0, [r0, #-60]	; 0xffffffc4
    1e10:	0087985e 	addeq	r9, r7, lr, asr r8
    1e14:	af5f0500 	svcge	0x005f0500
    1e18:	05000020 	streq	r0, [r0, #-32]	; 0xffffffe0
    1e1c:	003f9163 	eorseq	r9, pc, r3, ror #2
    1e20:	d5640500 	strble	r0, [r4, #-1280]!	; 0xfffffb00
    1e24:	05000048 	streq	r0, [r0, #-72]	; 0xffffffb8
    1e28:	008e8d65 	addeq	r8, lr, r5, ror #26
    1e2c:	6b660500 	blvs	1983234 <_Min_Stack_Size+0x1982e34>
    1e30:	05000039 	streq	r0, [r0, #-57]	; 0xffffffc7
    1e34:	00691c6a 	rsbeq	r1, r9, sl, ror #24
    1e38:	326b0500 	rsbcc	r0, fp, #0, 10
    1e3c:	0500000a 	streq	r0, [r0, #-10]
    1e40:	001bcc6c 	andseq	ip, fp, ip, ror #24
    1e44:	1f6d0500 	svcne	0x006d0500
    1e48:	05000029 	streq	r0, [r0, #-41]	; 0xffffffd7
    1e4c:	006dba71 	rsbeq	fp, sp, r1, ror sl
    1e50:	4d720500 	cfldr64mi	mvdx0, [r2, #-0]
    1e54:	05000079 	streq	r0, [r0, #-121]	; 0xffffff87
    1e58:	00226573 	eoreq	r6, r2, r3, ror r5
    1e5c:	10740500 	rsbsne	r0, r4, r0, lsl #10
    1e60:	0500006b 	streq	r0, [r0, #-107]	; 0xffffff95
    1e64:	005a4b78 	subseq	r4, sl, r8, ror fp
    1e68:	63790500 	cmnvs	r9, #0, 10
    1e6c:	05000029 	streq	r0, [r0, #-41]	; 0xffffffd7
    1e70:	0097557a 	addseq	r5, r7, sl, ror r5
    1e74:	cc7b0500 	cfldr64gt	mvdx0, [fp], #-0
    1e78:	05000021 	streq	r0, [r0, #-33]	; 0xffffffdf
    1e7c:	0039277f 	eorseq	r2, r9, pc, ror r7
    1e80:	01800500 	orreq	r0, r0, r0, lsl #10
    1e84:	000013a4 	andeq	r1, r0, r4, lsr #7
    1e88:	7a018105 	bvc	622a4 <_Min_Stack_Size+0x61ea4>
    1e8c:	05000083 	streq	r0, [r0, #-131]	; 0xffffff7d
    1e90:	7a570182 	bvc	15c24a0 <_Min_Stack_Size+0x15c20a0>
    1e94:	86050000 	strhi	r0, [r5], -r0
    1e98:	00038501 	andeq	r8, r3, r1, lsl #10
    1e9c:	01870500 	orreq	r0, r7, r0, lsl #10
    1ea0:	000073db 	ldrdeq	r7, [r0], -fp
    1ea4:	14018805 	strne	r8, [r1], #-2053	; 0xfffff7fb
    1ea8:	05000057 	streq	r0, [r0, #-87]	; 0xffffffa9
    1eac:	1e710189 	rpwned	f0, f1, #1.0
    1eb0:	8d050000 	stchi	0, cr0, [r5, #-0]
    1eb4:	006f9901 	rsbeq	r9, pc, r1, lsl #18
    1eb8:	018e0500 	orreq	r0, lr, r0, lsl #10
    1ebc:	00008f88 	andeq	r8, r0, r8, lsl #31
    1ec0:	8e018f05 	cdphi	15, 0, cr8, cr1, cr5, {0}
    1ec4:	05000046 	streq	r0, [r0, #-70]	; 0xffffffba
    1ec8:	97990190 			; <UNDEFINED> instruction: 0x97990190
    1ecc:	94050000 	strls	r0, [r5], #-0
    1ed0:	003b8e01 	eorseq	r8, fp, r1, lsl #28
    1ed4:	01950500 	orrseq	r0, r5, r0, lsl #10
    1ed8:	00000f7f 	andeq	r0, r0, pc, ror pc
    1edc:	2c019605 	stccs	6, cr9, [r1], {5}
    1ee0:	05000063 	streq	r0, [r0, #-99]	; 0xffffff9d
    1ee4:	276a0197 			; <UNDEFINED> instruction: 0x276a0197
    1ee8:	9b050000 	blls	141ef0 <_Min_Stack_Size+0x141af0>
    1eec:	006c2001 	rsbeq	r2, ip, r1
    1ef0:	019c0500 	orrseq	r0, ip, r0, lsl #10
    1ef4:	00007f27 	andeq	r7, r0, r7, lsr #30
    1ef8:	b6019d05 	strlt	r9, [r1], -r5, lsl #26
    1efc:	05000091 	streq	r0, [r0, #-145]	; 0xffffff6f
    1f00:	9b68019e 	blls	1a02580 <_Min_Stack_Size+0x1a02180>
    1f04:	a2050000 	andge	r0, r5, #0
    1f08:	008cbd01 	addeq	fp, ip, r1, lsl #26
    1f0c:	01a30500 			; <UNDEFINED> instruction: 0x01a30500
    1f10:	000042e3 	andeq	r4, r0, r3, ror #5
    1f14:	5d01a405 	cfstrspl	mvf10, [r1, #-20]	; 0xffffffec
    1f18:	05000024 	streq	r0, [r0, #-36]	; 0xffffffdc
    1f1c:	75fb01a5 	ldrbvc	r0, [fp, #421]!	; 0x1a5
    1f20:	a9050000 	stmdbge	r5, {}	; <UNPREDICTABLE>
    1f24:	000b3601 	andeq	r3, fp, r1, lsl #12
    1f28:	01aa0500 			; <UNDEFINED> instruction: 0x01aa0500
    1f2c:	000005d8 	ldrdeq	r0, [r0], -r8
    1f30:	4f01ab05 	svcmi	0x0001ab05
    1f34:	0500007e 	streq	r0, [r0, #-126]	; 0xffffff82
    1f38:	34be01ac 	ldrtcc	r0, [lr], #428	; 0x1ac
    1f3c:	b1050000 	mrslt	r0, (UNDEF: 5)
    1f40:	0025d401 	eoreq	sp, r5, r1, lsl #8
    1f44:	01b20500 			; <UNDEFINED> instruction: 0x01b20500
    1f48:	00000b8b 	andeq	r0, r0, fp, lsl #23
    1f4c:	5f01b305 	svcpl	0x0001b305
    1f50:	05000061 	streq	r0, [r0, #-97]	; 0xffffff9f
    1f54:	890901b7 	stmdbhi	r9, {r0, r1, r2, r4, r5, r7, r8}
    1f58:	b8050000 	stmdalt	r5, {}	; <UNPREDICTABLE>
    1f5c:	0018f401 	andseq	pc, r8, r1, lsl #8
    1f60:	00040000 	andeq	r0, r4, r0
    1f64:	a8090500 	stmdage	r9, {r8, sl}
    1f68:	05000095 	streq	r0, [r0, #-149]	; 0xffffff6b
    1f6c:	003e1e11 	eorseq	r1, lr, r1, lsl lr
    1f70:	f2120500 	vrshl.s16	d0, d0, d2
    1f74:	0500006c 	streq	r0, [r0, #-108]	; 0xffffff94
    1f78:	00212b13 	eoreq	r2, r1, r3, lsl fp
    1f7c:	00040000 	andeq	r0, r4, r0
    1f80:	062d0500 	strteq	r0, [sp], -r0, lsl #10
    1f84:	0500003f 	streq	r0, [r0, #-63]	; 0xffffffc1
    1f88:	008c142e 	addeq	r1, ip, lr, lsr #8
    1f8c:	002f0500 	eoreq	r0, pc, r0, lsl #10
    1f90:	0500006d 	streq	r0, [r0, #-109]	; 0xffffff93
    1f94:	0049a330 	subeq	sl, r9, r0, lsr r3
    1f98:	2e310500 	cfabs32cs	mvfx0, mvfx1
    1f9c:	0500006a 	streq	r0, [r0, #-106]	; 0xffffff96
    1fa0:	00201335 	eoreq	r1, r0, r5, lsr r3
    1fa4:	87360500 	ldrhi	r0, [r6, -r0, lsl #10]!
    1fa8:	05000010 	streq	r0, [r0, #-16]
    1fac:	0030d737 	eorseq	sp, r0, r7, lsr r7
    1fb0:	a73a0500 	ldrge	r0, [sl, -r0, lsl #10]!
    1fb4:	0500005b 	streq	r0, [r0, #-91]	; 0xffffffa5
    1fb8:	0070b13b 	rsbseq	fp, r0, fp, lsr r1
    1fbc:	1f3f0500 	svcne	0x003f0500
    1fc0:	05000070 	streq	r0, [r0, #-112]	; 0xffffff90
    1fc4:	0030c440 	eorseq	ip, r0, r0, asr #8
    1fc8:	11410500 	cmpne	r1, r0, lsl #10
    1fcc:	05000030 	streq	r0, [r0, #-48]	; 0xffffffd0
    1fd0:	00773342 	rsbseq	r3, r7, r2, asr #6
    1fd4:	d3430500 	movtle	r0, #13568	; 0x3500
    1fd8:	05000002 	streq	r0, [r0, #-2]
    1fdc:	008dc244 	addeq	ip, sp, r4, asr #4
    1fe0:	68450500 	stmdavs	r5, {r8, sl}^
    1fe4:	05000070 	streq	r0, [r0, #-112]	; 0xffffff90
    1fe8:	0063ec46 	rsbeq	lr, r3, r6, asr #24
    1fec:	fb470500 	blx	11c33f6 <_Min_Stack_Size+0x11c2ff6>
    1ff0:	05000038 	streq	r0, [r0, #-56]	; 0xffffffc8
    1ff4:	008b6d4a 	addeq	r6, fp, sl, asr #26
    1ff8:	d04b0500 	suble	r0, fp, r0, lsl #10
    1ffc:	05000036 	streq	r0, [r0, #-54]	; 0xffffffca
    2000:	00846f4c 	addeq	r6, r4, ip, asr #30
    2004:	db500500 	blle	140340c <_Min_Stack_Size+0x140300c>
    2008:	0500005a 	streq	r0, [r0, #-90]	; 0xffffffa6
    200c:	00555d51 	subseq	r5, r5, r1, asr sp
    2010:	88520500 	ldmdahi	r2, {r8, sl}^
    2014:	0500008a 	streq	r0, [r0, #-138]	; 0xffffff76
    2018:	002c3c53 	eoreq	r3, ip, r3, asr ip
    201c:	2d580500 	cfldr64cs	mvdx0, [r8, #-0]
    2020:	05000059 	streq	r0, [r0, #-89]	; 0xffffffa7
    2024:	00903c59 	addseq	r3, r0, r9, asr ip
    2028:	0c5a0500 	cfldr64eq	mvdx0, [sl], {-0}
    202c:	0500009b 	streq	r0, [r0, #-155]	; 0xffffff65
    2030:	0010135b 	andseq	r1, r0, fp, asr r3
    2034:	af600500 	svcge	0x00600500
    2038:	05000039 	streq	r0, [r0, #-57]	; 0xffffffc7
    203c:	0086f961 	addeq	pc, r6, r1, ror #18
    2040:	d4620500 	strbtle	r0, [r2], #-1280	; 0xfffffb00
    2044:	05000079 	streq	r0, [r0, #-121]	; 0xffffff87
    2048:	0010fd63 	andseq	pc, r0, r3, ror #26
    204c:	48640500 	stmdami	r4!, {r8, sl}^
    2050:	0500004b 	streq	r0, [r0, #-75]	; 0xffffffb5
    2054:	0026b565 	eoreq	fp, r6, r5, ror #10
    2058:	00040000 	andeq	r0, r4, r0
    205c:	0008f602 	andeq	pc, r8, r2, lsl #12
    2060:	019e0700 	orrseq	r0, lr, r0, lsl #14
    2064:	00030000 	andeq	r0, r3, r0
    2068:	04090301 	streq	r0, [r9], #-769	; 0xfffffcff
    206c:	91390905 	teqls	r9, r5, lsl #18
    2070:	0d030000 	stceq	0, cr0, [r3, #-0]
    2074:	7f080507 	svcvc	0x00080507
    2078:	03000087 	movweq	r0, #135	; 0x87
    207c:	2607080a 	strcs	r0, [r7], -sl, lsl #16
    2080:	0400000c 	streq	r0, [r0], #-12
    2084:	05090b03 	streq	r0, [r9, #-2819]	; 0xfffff4fd
    2088:	0058b808 	subseq	fp, r8, r8, lsl #16
    208c:	0a0a0300 	beq	282c94 <_Min_Stack_Size+0x282894>
    2090:	14000805 	strne	r0, [r0], #-2053	; 0xfffff7fb
    2094:	0e030000 	cdpeq	0, 0, cr0, cr3, cr0, {0}
    2098:	0c3e070b 	ldceq	7, cr0, [lr], #-44	; 0xffffffd4
    209c:	07040000 	streq	r0, [r4, -r0]
    20a0:	00000c60 	andeq	r0, r0, r0, ror #24
    20a4:	0c0b0304 	stceq	3, cr0, [fp], {4}
    20a8:	86570205 	ldrbhi	r0, [r7], -r5, lsl #4
    20ac:	04030000 	streq	r0, [r3], #-0
    20b0:	05030408 	streq	r0, [r3, #-1032]	; 0xfffffbf8
    20b4:	0cac070d 	stceq	7, cr0, [ip], #52	; 0x34
    20b8:	07040000 	streq	r0, [r4, -r0]
    20bc:	00000d40 	andeq	r0, r0, r0, asr #26
    20c0:	0d7c0704 	ldcleq	7, cr0, [ip, #-16]!
    20c4:	07040000 	streq	r0, [r4, -r0]
    20c8:	00000db0 			; <UNDEFINED> instruction: 0x00000db0
    20cc:	070e1003 	streq	r1, [lr, -r3]
    20d0:	00000dc6 	andeq	r0, r0, r6, asr #27
    20d4:	0f120304 	svceq	0x00120304
    20d8:	5ca90b05 	fstmiaxpl	r9!, {d0-d1}	;@ Deprecated
    20dc:	0d030000 	stceq	0, cr0, [r3, #-0]
    20e0:	0e030409 	cdpeq	4, 0, cr0, cr3, cr9, {0}
    20e4:	0ed4070e 	cdpeq	7, 13, cr0, cr4, cr14, {0}
    20e8:	03040000 	movweq	r0, #16384	; 0x4000
    20ec:	6107100f 	tstvs	r7, pc
    20f0:	0300000f 	movweq	r0, #15
    20f4:	77070e18 	smladvc	r7, r8, lr, r0
    20f8:	0400000f 	streq	r0, [r0], #-15
    20fc:	05111b03 	ldreq	r1, [r1, #-2819]	; 0xfffff4fd
    2100:	00610806 	rsbeq	r0, r1, r6, lsl #16
    2104:	02070300 	andeq	r0, r7, #0, 6
    2108:	000fba07 	andeq	fp, pc, r7, lsl #20
    210c:	07040400 	streq	r0, [r4, -r0, lsl #8]
    2110:	00001011 	andeq	r1, r0, r1, lsl r0
    2114:	10450704 	subne	r0, r5, r4, lsl #14
    2118:	22030000 	andcs	r0, r3, #0
    211c:	10550712 	subsne	r0, r5, r2, lsl r7
    2120:	07040000 	streq	r0, [r4, -r0]
    2124:	000010ad 	andeq	r1, r0, sp, lsr #1
    2128:	1303f703 	movwne	pc, #14083	; 0x3703	; <UNPREDICTABLE>
    212c:	00111e07 	andseq	r1, r1, r7, lsl #28
    2130:	3a070400 	bcc	1c3138 <_Min_Stack_Size+0x1c2d38>
    2134:	04000011 	streq	r0, [r0], #-17	; 0xffffffef
    2138:	05141303 	ldreq	r1, [r4, #-771]	; 0xfffffcfd
    213c:	008b072b 	addeq	r0, fp, fp, lsr #14
    2140:	0e2f0300 	cdpeq	3, 2, cr0, cr15, cr0, {0}
    2144:	12640704 	rsbne	r0, r4, #4, 14	; 0x100000
    2148:	03040000 	movweq	r0, #16384	; 0x4000
    214c:	02051514 	andeq	r1, r5, #20, 10	; 0x5000000
    2150:	00002873 	andeq	r2, r0, r3, ror r8
    2154:	16160304 	ldrne	r0, [r6], -r4, lsl #6
    2158:	0015a507 	andseq	sl, r5, r7, lsl #10
    215c:	bb070400 	bllt	1c3164 <_Min_Stack_Size+0x1c2d64>
    2160:	04000015 	streq	r0, [r0], #-21	; 0xffffffeb
    2164:	03170e03 	tsteq	r7, #3, 28	; 0x30
    2168:	0a051809 	beq	148194 <_Min_Stack_Size+0x147d94>
    216c:	000006d5 	ldrdeq	r0, [r0], -r5
    2170:	07190d03 	ldreq	r0, [r9, -r3, lsl #26]
    2174:	000015e4 	andeq	r1, r0, r4, ror #11
    2178:	030e0304 	movweq	r0, #58116	; 0xe304
    217c:	0016e707 	andseq	lr, r6, r7, lsl #14
    2180:	51070400 	tstpl	r7, r0, lsl #8
    2184:	04000017 	streq	r0, [r0], #-23	; 0xffffffe9
    2188:	06cc0d05 	strbeq	r0, [ip], r5, lsl #26
    218c:	07040000 	streq	r0, [r4, -r0]
    2190:	00001930 	andeq	r1, r0, r0, lsr r9
    2194:	060a0304 	streq	r0, [sl], -r4, lsl #6
    2198:	7f790905 	svcvc	0x00790905
    219c:	0e030000 	cdpeq	0, 0, cr0, cr3, cr0, {0}
    21a0:	0c100705 	ldceq	7, cr0, [r0], {5}
    21a4:	10030000 	andne	r0, r3, r0
    21a8:	88070404 	stmdahi	r7, {r2, sl}
    21ac:	0400001c 	streq	r0, [r0], #-28	; 0xffffffe4
    21b0:	001d4007 	andseq	r4, sp, r7
    21b4:	0b030400 	bleq	c31bc <_Min_Stack_Size+0xc2dbc>
    21b8:	5b050405 	blpl	1431d4 <_Min_Stack_Size+0x142dd4>
    21bc:	00009d04 	andeq	r9, r0, r4, lsl #26
    21c0:	00040004 	andeq	r0, r4, r4
    21c4:	00140e02 	andseq	r0, r4, r2, lsl #28
    21c8:	019e0700 	orrseq	r0, lr, r0, lsl #14
    21cc:	00030000 	andeq	r0, r3, r0
    21d0:	04090301 	streq	r0, [r9], #-769	; 0xfffffcff
    21d4:	91390905 	teqls	r9, r5, lsl #18
    21d8:	0d030000 	stceq	0, cr0, [r3, #-0]
    21dc:	7f080508 	svcvc	0x00080508
    21e0:	03000087 	movweq	r0, #135	; 0x87
    21e4:	2607090a 	strcs	r0, [r7], -sl, lsl #18
    21e8:	0400000c 	streq	r0, [r0], #-12
    21ec:	050a0b03 	streq	r0, [sl, #-2819]	; 0xfffff4fd
    21f0:	0058b808 	subseq	fp, r8, r8, lsl #16
    21f4:	0b0a0300 	bleq	282dfc <_Min_Stack_Size+0x2829fc>
    21f8:	14000805 	strne	r0, [r0], #-2053	; 0xfffff7fb
    21fc:	0e030000 	cdpeq	0, 0, cr0, cr3, cr0, {0}
    2200:	0c3e070c 	ldceq	7, cr0, [lr], #-48	; 0xffffffd0
    2204:	07040000 	streq	r0, [r4, -r0]
    2208:	00000c60 	andeq	r0, r0, r0, ror #24
    220c:	0d0b0304 	stceq	3, cr0, [fp, #-16]
    2210:	86570205 	ldrbhi	r0, [r7], -r5, lsl #4
    2214:	04030000 	streq	r0, [r3], #-0
    2218:	05030409 	streq	r0, [r3, #-1033]	; 0xfffffbf7
    221c:	0cac070e 	stceq	7, cr0, [ip], #56	; 0x38
    2220:	07040000 	streq	r0, [r4, -r0]
    2224:	00000d40 	andeq	r0, r0, r0, asr #26
    2228:	0d7c0704 	ldcleq	7, cr0, [ip, #-16]!
    222c:	07040000 	streq	r0, [r4, -r0]
    2230:	00000db0 			; <UNDEFINED> instruction: 0x00000db0
    2234:	070f1003 	streq	r1, [pc, -r3]
    2238:	00000dc6 	andeq	r0, r0, r6, asr #27
    223c:	10120304 	andsne	r0, r2, r4, lsl #6
    2240:	5ca90b05 	fstmiaxpl	r9!, {d0-d1}	;@ Deprecated
    2244:	0d030000 	stceq	0, cr0, [r3, #-0]
    2248:	0e03040a 	cdpeq	4, 0, cr0, cr3, cr10, {0}
    224c:	0ed4070f 	cdpeq	7, 13, cr0, cr4, cr15, {0}
    2250:	03040000 	movweq	r0, #16384	; 0x4000
    2254:	6107110f 	tstvs	r7, pc, lsl #2
    2258:	0300000f 	movweq	r0, #15
    225c:	77070f18 	smladvc	r7, r8, pc, r0	; <UNPREDICTABLE>
    2260:	0400000f 	streq	r0, [r0], #-15
    2264:	05121b03 	ldreq	r1, [r2, #-2819]	; 0xfffff4fd
    2268:	00610806 	rsbeq	r0, r1, r6, lsl #16
    226c:	02070300 	andeq	r0, r7, #0, 6
    2270:	000fba07 	andeq	fp, pc, r7, lsl #20
    2274:	07040400 	streq	r0, [r4, -r0, lsl #8]
    2278:	00001011 	andeq	r1, r0, r1, lsl r0
    227c:	10450704 	subne	r0, r5, r4, lsl #14
    2280:	22030000 	andcs	r0, r3, #0
    2284:	10550713 	subsne	r0, r5, r3, lsl r7
    2288:	07040000 	streq	r0, [r4, -r0]
    228c:	000010ad 	andeq	r1, r0, sp, lsr #1
    2290:	1403f703 	strne	pc, [r3], #-1795	; 0xfffff8fd
    2294:	00111e07 	andseq	r1, r1, r7, lsl #28
    2298:	3a070400 	bcc	1c32a0 <_Min_Stack_Size+0x1c2ea0>
    229c:	04000011 	streq	r0, [r0], #-17	; 0xffffffef
    22a0:	05151303 	ldreq	r1, [r5, #-771]	; 0xfffffcfd
    22a4:	008b072b 	addeq	r0, fp, fp, lsr #14
    22a8:	0f2f0300 	svceq	0x002f0300
    22ac:	12640704 	rsbne	r0, r4, #4, 14	; 0x100000
    22b0:	03040000 	movweq	r0, #16384	; 0x4000
    22b4:	02051614 	andeq	r1, r5, #20, 12	; 0x1400000
    22b8:	00002873 	andeq	r2, r0, r3, ror r8
    22bc:	17160304 	ldrne	r0, [r6, -r4, lsl #6]
    22c0:	0015a507 	andseq	sl, r5, r7, lsl #10
    22c4:	bb070400 	bllt	1c32cc <_Min_Stack_Size+0x1c2ecc>
    22c8:	04000015 	streq	r0, [r0], #-21	; 0xffffffeb
    22cc:	03180e03 	tsteq	r8, #3, 28	; 0x30
    22d0:	0a051909 	beq	1486fc <_Min_Stack_Size+0x1482fc>
    22d4:	000006d5 	ldrdeq	r0, [r0], -r5
    22d8:	071a0d03 	ldreq	r0, [sl, -r3, lsl #26]
    22dc:	000015e4 	andeq	r1, r0, r4, ror #11
    22e0:	030e0304 	movweq	r0, #58116	; 0xe304
    22e4:	0016e707 	andseq	lr, r6, r7, lsl #14
    22e8:	51070400 	tstpl	r7, r0, lsl #8
    22ec:	04000017 	streq	r0, [r0], #-23	; 0xffffffe9
    22f0:	06cc0d05 	strbeq	r0, [ip], r5, lsl #26
    22f4:	07040000 	streq	r0, [r4, -r0]
    22f8:	00001930 	andeq	r1, r0, r0, lsr r9
    22fc:	060a0304 	streq	r0, [sl], -r4, lsl #6
    2300:	8b160905 	blhi	58471c <_Min_Stack_Size+0x58431c>
    2304:	0c030000 	stceq	0, cr0, [r3], {-0}
    2308:	0d030404 	cfstrseq	mvf0, [r3, #-16]
    230c:	00000705 	andeq	r0, r0, r5, lsl #14
    2310:	03040000 	movweq	r0, #16384	; 0x4000
    2314:	6207070e 	andvs	r0, r7, #3670016	; 0x380000
    2318:	0400001f 	streq	r0, [r0], #-31	; 0xffffffe1
    231c:	001f7e07 	andseq	r7, pc, r7, lsl #28
    2320:	0b030400 	bleq	c3328 <_Min_Stack_Size+0xc2f28>
    2324:	00040405 	andeq	r0, r4, r5, lsl #8
    2328:	54020004 	strpl	r0, [r2], #-4
    232c:	0700001d 	smladeq	r0, sp, r0, r0
    2330:	0000019e 	muleq	r0, lr, r1
    2334:	03010003 	movweq	r0, #4099	; 0x1003
    2338:	10070512 	andne	r0, r7, r2, lsl r5
    233c:	0300000c 	movweq	r0, #12
    2340:	09050410 	stmdbeq	r5, {r4, sl}
    2344:	00009139 	andeq	r9, r0, r9, lsr r1
    2348:	05060d03 	streq	r0, [r6, #-3331]	; 0xfffff2fd
    234c:	00877f08 	addeq	r7, r7, r8, lsl #30
    2350:	070a0300 	streq	r0, [sl, -r0, lsl #6]
    2354:	000c2607 	andeq	r2, ip, r7, lsl #12
    2358:	0b030400 	bleq	c3360 <_Min_Stack_Size+0xc2f60>
    235c:	b8080508 	stmdalt	r8, {r3, r8, sl}
    2360:	03000058 	movweq	r0, #88	; 0x58
    2364:	0805090a 	stmdaeq	r5, {r1, r3, r8, fp}
    2368:	00001400 	andeq	r1, r0, r0, lsl #8
    236c:	070a0e03 	streq	r0, [sl, -r3, lsl #28]
    2370:	00000c3e 	andeq	r0, r0, lr, lsr ip
    2374:	0c600704 	stcleq	7, cr0, [r0], #-16
    2378:	03040000 	movweq	r0, #16384	; 0x4000
    237c:	02050b0b 	andeq	r0, r5, #11264	; 0x2c00
    2380:	00008657 	andeq	r8, r0, r7, asr r6
    2384:	04070403 	streq	r0, [r7], #-1027	; 0xfffffbfd
    2388:	070c0503 	streq	r0, [ip, -r3, lsl #10]
    238c:	00000cac 	andeq	r0, r0, ip, lsr #25
    2390:	0d400704 	stcleq	7, cr0, [r0, #-16]
    2394:	07040000 	streq	r0, [r4, -r0]
    2398:	00000d7c 	andeq	r0, r0, ip, ror sp
    239c:	0db00704 	ldceq	7, cr0, [r0, #16]!
    23a0:	10030000 	andne	r0, r3, r0
    23a4:	0dc6070d 	stcleq	7, cr0, [r6, #52]	; 0x34
    23a8:	03040000 	movweq	r0, #16384	; 0x4000
    23ac:	0b050e12 	bleq	145bfc <_Min_Stack_Size+0x1457fc>
    23b0:	00005ca9 	andeq	r5, r0, r9, lsr #25
    23b4:	04080d03 	streq	r0, [r8], #-3331	; 0xfffff2fd
    23b8:	070d0e03 	streq	r0, [sp, -r3, lsl #28]
    23bc:	00000ed4 	ldrdeq	r0, [r0], -r4
    23c0:	0f0f0304 	svceq	0x000f0304
    23c4:	000f6107 	andeq	r6, pc, r7, lsl #2
    23c8:	0d180300 	ldceq	3, cr0, [r8, #-0]
    23cc:	000f7707 	andeq	r7, pc, r7, lsl #14
    23d0:	1b030400 	blne	c33d8 <_Min_Stack_Size+0xc2fd8>
    23d4:	08060510 	stmdaeq	r6, {r4, r8, sl}
    23d8:	03000061 	movweq	r0, #97	; 0x61
    23dc:	ba070207 	blt	1c2c00 <_Min_Stack_Size+0x1c2800>
    23e0:	0400000f 	streq	r0, [r0], #-15
    23e4:	10110704 	andsne	r0, r1, r4, lsl #14
    23e8:	07040000 	streq	r0, [r4, -r0]
    23ec:	00001045 	andeq	r1, r0, r5, asr #32
    23f0:	07112203 	ldreq	r2, [r1, -r3, lsl #4]
    23f4:	00001055 	andeq	r1, r0, r5, asr r0
    23f8:	10ad0704 	adcne	r0, sp, r4, lsl #14
    23fc:	f7030000 			; <UNDEFINED> instruction: 0xf7030000
    2400:	1e071203 	cdpne	2, 0, cr1, cr7, cr3, {0}
    2404:	04000011 	streq	r0, [r0], #-17	; 0xffffffef
    2408:	00113a07 	andseq	r3, r1, r7, lsl #20
    240c:	13030400 	movwne	r0, #13312	; 0x3400
    2410:	072b0513 			; <UNDEFINED> instruction: 0x072b0513
    2414:	0300008b 	movweq	r0, #139	; 0x8b
    2418:	07040d2f 	streq	r0, [r4, -pc, lsr #26]
    241c:	00001264 	andeq	r1, r0, r4, ror #4
    2420:	14140304 	ldrne	r0, [r4], #-772	; 0xfffffcfc
    2424:	28730205 	ldmdacs	r3!, {r0, r2, r9}^
    2428:	03040000 	movweq	r0, #16384	; 0x4000
    242c:	a5071516 	strge	r1, [r7, #-1302]	; 0xfffffaea
    2430:	04000015 	streq	r0, [r0], #-21	; 0xffffffeb
    2434:	0015bb07 	andseq	fp, r5, r7, lsl #22
    2438:	0e030400 	cfcpyseq	mvf0, mvf3
    243c:	17090316 	smladne	r9, r6, r3, r0
    2440:	06d50a05 	ldrbeq	r0, [r5], r5, lsl #20
    2444:	0d030000 	stceq	0, cr0, [r3, #-0]
    2448:	15e40718 	strbne	r0, [r4, #1816]!	; 0x718
    244c:	03040000 	movweq	r0, #16384	; 0x4000
    2450:	e707030e 	str	r0, [r7, -lr, lsl #6]
    2454:	04000016 	streq	r0, [r0], #-22	; 0xffffffea
    2458:	00175107 	andseq	r5, r7, r7, lsl #2
    245c:	0d050400 	cfstrseq	mvf0, [r5, #-0]
    2460:	000006cc 	andeq	r0, r0, ip, asr #13
    2464:	19300704 	ldmdbne	r0!, {r2, r8, r9, sl}
    2468:	07040000 	streq	r0, [r4, -r0]
    246c:	00001c88 	andeq	r1, r0, r8, lsl #25
    2470:	04130304 	ldreq	r0, [r3], #-772	; 0xfffffcfc
    2474:	Address 0x0000000000002474 is out of bounds.


Disassembly of section .debug_line:

00000000 <.debug_line>:
       0:	0000086e 	andeq	r0, r0, lr, ror #16
       4:	06fe0003 	ldrbteq	r0, [lr], r3
       8:	01020000 	mrseq	r0, (UNDEF: 2)
       c:	000d0efb 	strdeq	r0, [sp], -fp
      10:	01010101 	tsteq	r1, r1, lsl #2
      14:	01000000 	mrseq	r0, (UNDEF: 0)
      18:	2e010000 	cdpcs	0, 0, cr0, cr1, cr0, {0}
      1c:	72532f2e 	subsvc	r2, r3, #46, 30	; 0xb8
      20:	3a670063 	bcc	19c01b4 <_Min_Stack_Size+0x19bfdb4>
      24:	2e6e655c 	mcrcs	5, 3, r6, cr14, cr12, {2}
      28:	732d7473 			; <UNDEFINED> instruction: 0x732d7473
      2c:	32336d74 	eorscc	r6, r3, #116, 26	; 0x1d00
      30:	65627563 	strbvs	r7, [r2, #-1379]!	; 0xfffffa9d
      34:	5f656469 	svcpl	0x00656469
      38:	2e342e31 	mrccs	14, 1, r2, cr4, cr1, {1}
      3c:	35375f30 	ldrcc	r5, [r7, #-3888]!	; 0xfffff0d0
      40:	325f3131 	subscc	r3, pc, #1073741836	; 0x4000000c
      44:	30303230 	eorscc	r3, r0, r0, lsr r2
      48:	5f303237 	svcpl	0x00303237
      4c:	38323930 	ldmdacc	r2!, {r4, r5, r8, fp, ip, sp}
      50:	3638785f 			; <UNDEFINED> instruction: 0x3638785f
      54:	5f34365f 	svcpl	0x0034365f
      58:	5c657865 	stclpl	8, cr7, [r5], #-404	; 0xfffffe6c
      5c:	336d7473 	cmncc	sp, #1929379840	; 0x73000000
      60:	62756332 	rsbsvs	r6, r5, #-939524096	; 0xc8000000
      64:	65646965 	strbvs	r6, [r4, #-2405]!	; 0xfffff69b
      68:	342e315f 	strtcc	r3, [lr], #-351	; 0xfffffea1
      6c:	735c302e 	cmpvc	ip, #46	; 0x2e
      70:	32336d74 	eorscc	r6, r3, #116, 26	; 0x1d00
      74:	65627563 	strbvs	r7, [r2, #-1379]!	; 0xfffffa9d
      78:	5c656469 	cfstrdpl	mvd6, [r5], #-420	; 0xfffffe5c
      7c:	67756c70 			; <UNDEFINED> instruction: 0x67756c70
      80:	5c736e69 	ldclpl	14, cr6, [r3], #-420	; 0xfffffe5c
      84:	2e6d6f63 	cdpcs	15, 6, cr6, cr13, cr3, {3}
      88:	732e7473 			; <UNDEFINED> instruction: 0x732e7473
      8c:	32336d74 	eorscc	r6, r3, #116, 26	; 0x1d00
      90:	65627563 	strbvs	r7, [r2, #-1379]!	; 0xfffffa9d
      94:	6564692e 	strbvs	r6, [r4, #-2350]!	; 0xfffff6d2
      98:	75636d2e 	strbvc	r6, [r3, #-3374]!	; 0xfffff2d2
      9c:	7478652e 	ldrbtvc	r6, [r8], #-1326	; 0xfffffad2
      a0:	616e7265 	cmnvs	lr, r5, ror #4
      a4:	6f6f746c 	svcvs	0x006f746c
      a8:	672e736c 	strvs	r7, [lr, -ip, ror #6]!
      ac:	742d756e 	strtvc	r7, [sp], #-1390	; 0xfffffa92
      b0:	736c6f6f 	cmnvc	ip, #444	; 0x1bc
      b4:	726f662d 	rsbvc	r6, pc, #47185920	; 0x2d00000
      b8:	6d74732d 	ldclvs	3, cr7, [r4, #-180]!	; 0xffffff4c
      bc:	312e3233 			; <UNDEFINED> instruction: 0x312e3233
      c0:	2d332e30 	ldccs	14, cr2, [r3, #-192]!	; 0xffffff40
      c4:	31323032 	teqcc	r2, r2, lsr r0
      c8:	2e30312e 	rsfcssp	f3, f0, #0.5
      cc:	336e6977 	cmncc	lr, #1949696	; 0x1dc000
      d0:	2e315f32 	mrccs	15, 1, r5, cr1, cr2, {1}
      d4:	30322e30 	eorscc	r2, r2, r0, lsr lr
      d8:	30322e30 	eorscc	r2, r2, r0, lsr lr
      dc:	31303332 	teqcc	r0, r2, lsr r3
      e0:	30313631 	eorscc	r3, r1, r1, lsr r6
      e4:	745c3330 	ldrbvc	r3, [ip], #-816	; 0xfffffcd0
      e8:	736c6f6f 	cmnvc	ip, #444	; 0x1bc
      ec:	6e69625c 	mcrvs	2, 3, r6, cr9, cr12, {2}
      f0:	2f2e2e5c 	svccs	0x002e2e5c
      f4:	2f62696c 	svccs	0x0062696c
      f8:	2f636367 	svccs	0x00636367
      fc:	2d6d7261 	sfmcs	f7, 2, [sp, #-388]!	; 0xfffffe7c
     100:	656e6f6e 	strbvs	r6, [lr, #-3950]!	; 0xfffff092
     104:	6261652d 	rsbvs	r6, r1, #188743680	; 0xb400000
     108:	30312f69 	eorscc	r2, r1, r9, ror #30
     10c:	312e332e 			; <UNDEFINED> instruction: 0x312e332e
     110:	2f2e2e2f 	svccs	0x002e2e2f
     114:	2e2f2e2e 	cdpcs	14, 2, cr2, cr15, cr14, {1}
     118:	2e2e2f2e 	cdpcs	15, 2, cr2, cr14, cr14, {1}
     11c:	6d72612f 	ldfvse	f6, [r2, #-188]!	; 0xffffff44
     120:	6e6f6e2d 	cdpvs	14, 6, cr6, cr15, cr13, {1}
     124:	61652d65 	cmnvs	r5, r5, ror #26
     128:	692f6962 	stmdbvs	pc!, {r1, r5, r6, r8, fp, sp, lr}	; <UNPREDICTABLE>
     12c:	756c636e 	strbvc	r6, [ip, #-878]!	; 0xfffffc92
     130:	6d2f6564 	cfstr32vs	mvfx6, [pc, #-400]!	; ffffffa8 <_estack+0xdfffd7a8>
     134:	69686361 	stmdbvs	r8!, {r0, r5, r6, r8, r9, sp, lr}^
     138:	6700656e 	strvs	r6, [r0, -lr, ror #10]
     13c:	6e655c3a 	mcrvs	12, 3, r5, cr5, cr10, {1}
     140:	2d74732e 	ldclcs	3, cr7, [r4, #-184]!	; 0xffffff48
     144:	336d7473 	cmncc	sp, #1929379840	; 0x73000000
     148:	62756332 	rsbsvs	r6, r5, #-939524096	; 0xc8000000
     14c:	65646965 	strbvs	r6, [r4, #-2405]!	; 0xfffff69b
     150:	342e315f 	strtcc	r3, [lr], #-351	; 0xfffffea1
     154:	375f302e 	ldrbcc	r3, [pc, -lr, lsr #32]
     158:	5f313135 	svcpl	0x00313135
     15c:	30323032 	eorscc	r3, r2, r2, lsr r0
     160:	30323730 	eorscc	r3, r2, r0, lsr r7
     164:	3239305f 	eorscc	r3, r9, #95	; 0x5f
     168:	38785f38 	ldmdacc	r8!, {r3, r4, r5, r8, r9, sl, fp, ip, lr}^
     16c:	34365f36 	ldrtcc	r5, [r6], #-3894	; 0xfffff0ca
     170:	6578655f 	ldrbvs	r6, [r8, #-1375]!	; 0xfffffaa1
     174:	6d74735c 	ldclvs	3, cr7, [r4, #-368]!	; 0xfffffe90
     178:	75633233 	strbvc	r3, [r3, #-563]!	; 0xfffffdcd
     17c:	64696562 	strbtvs	r6, [r9], #-1378	; 0xfffffa9e
     180:	2e315f65 	cdpcs	15, 3, cr5, cr1, cr5, {3}
     184:	5c302e34 	ldcpl	14, cr2, [r0], #-208	; 0xffffff30
     188:	336d7473 	cmncc	sp, #1929379840	; 0x73000000
     18c:	62756332 	rsbsvs	r6, r5, #-939524096	; 0xc8000000
     190:	65646965 	strbvs	r6, [r4, #-2405]!	; 0xfffff69b
     194:	756c705c 	strbvc	r7, [ip, #-92]!	; 0xffffffa4
     198:	736e6967 	cmnvc	lr, #1687552	; 0x19c000
     19c:	6d6f635c 	stclvs	3, cr6, [pc, #-368]!	; 34 <_Min_Heap_Size-0x1cc>
     1a0:	2e74732e 	cdpcs	3, 7, cr7, cr4, cr14, {1}
     1a4:	336d7473 	cmncc	sp, #1929379840	; 0x73000000
     1a8:	62756332 	rsbsvs	r6, r5, #-939524096	; 0xc8000000
     1ac:	64692e65 	strbtvs	r2, [r9], #-3685	; 0xfffff19b
     1b0:	636d2e65 	cmnvs	sp, #1616	; 0x650
     1b4:	78652e75 	stmdavc	r5!, {r0, r2, r4, r5, r6, r9, sl, fp, sp}^
     1b8:	6e726574 	mrcvs	5, 3, r6, cr2, cr4, {3}
     1bc:	6f746c61 	svcvs	0x00746c61
     1c0:	2e736c6f 	cdpcs	12, 7, cr6, cr3, cr15, {3}
     1c4:	2d756e67 	ldclcs	14, cr6, [r5, #-412]!	; 0xfffffe64
     1c8:	6c6f6f74 	stclvs	15, cr6, [pc], #-464	; 0 <_Min_Heap_Size-0x200>
     1cc:	6f662d73 	svcvs	0x00662d73
     1d0:	74732d72 	ldrbtvc	r2, [r3], #-3442	; 0xfffff28e
     1d4:	2e32336d 	cdpcs	3, 3, cr3, cr2, cr13, {3}
     1d8:	332e3031 			; <UNDEFINED> instruction: 0x332e3031
     1dc:	3230322d 	eorscc	r3, r0, #-805306366	; 0xd0000002
     1e0:	30312e31 	eorscc	r2, r1, r1, lsr lr
     1e4:	6e69772e 	cdpvs	7, 6, cr7, cr9, cr14, {1}
     1e8:	315f3233 	cmpcc	pc, r3, lsr r2	; <UNPREDICTABLE>
     1ec:	322e302e 	eorcc	r3, lr, #46	; 0x2e
     1f0:	322e3030 	eorcc	r3, lr, #48	; 0x30
     1f4:	30333230 	eorscc	r3, r3, r0, lsr r2
     1f8:	31363131 	teqcc	r6, r1, lsr r1
     1fc:	5c333030 	ldcpl	0, cr3, [r3], #-192	; 0xffffff40
     200:	6c6f6f74 	stclvs	15, cr6, [pc], #-464	; 38 <_Min_Heap_Size-0x1c8>
     204:	69625c73 	stmdbvs	r2!, {r0, r1, r4, r5, r6, sl, fp, ip, lr}^
     208:	2e2e5c6e 	cdpcs	12, 2, cr5, cr14, cr14, {3}
     20c:	62696c2f 	rsbvs	r6, r9, #12032	; 0x2f00
     210:	6363672f 	cmnvs	r3, #12320768	; 0xbc0000
     214:	6d72612f 	ldfvse	f6, [r2, #-188]!	; 0xffffff44
     218:	6e6f6e2d 	cdpvs	14, 6, cr6, cr15, cr13, {1}
     21c:	61652d65 	cmnvs	r5, r5, ror #26
     220:	312f6962 			; <UNDEFINED> instruction: 0x312f6962
     224:	2e332e30 	mrccs	14, 1, r2, cr3, cr0, {1}
     228:	2e2e2f31 	mcrcs	15, 1, r2, cr14, cr1, {1}
     22c:	2f2e2e2f 	svccs	0x002e2e2f
     230:	2e2f2e2e 	cdpcs	14, 2, cr2, cr15, cr14, {1}
     234:	72612f2e 	rsbvc	r2, r1, #46, 30	; 0xb8
     238:	6f6e2d6d 	svcvs	0x006e2d6d
     23c:	652d656e 	strvs	r6, [sp, #-1390]!	; 0xfffffa92
     240:	2f696261 	svccs	0x00696261
     244:	6c636e69 	stclvs	14, cr6, [r3], #-420	; 0xfffffe5c
     248:	2f656475 	svccs	0x00656475
     24c:	00737973 	rsbseq	r7, r3, r3, ror r9
     250:	442f3a44 	strtmi	r3, [pc], #-2628	; 258 <_Min_Heap_Size+0x58>
     254:	65766972 	ldrbvs	r6, [r6, #-2418]!	; 0xfffff68e
     258:	732f7372 			; <UNDEFINED> instruction: 0x732f7372
     25c:	32336d74 	eorscc	r6, r3, #116, 26	; 0x1d00
     260:	3031665f 	eorscc	r6, r1, pc, asr r6
     264:	5f366333 	svcpl	0x00366333
     268:	76697264 	strbtvc	r7, [r9], -r4, ror #4
     26c:	2f737265 	svccs	0x00737265
     270:	00636e49 	rsbeq	r6, r3, r9, asr #28
     274:	655c3a67 	ldrbvs	r3, [ip, #-2663]	; 0xfffff599
     278:	74732e6e 	ldrbtvc	r2, [r3], #-3694	; 0xfffff192
     27c:	6d74732d 	ldclvs	3, cr7, [r4, #-180]!	; 0xffffff4c
     280:	75633233 	strbvc	r3, [r3, #-563]!	; 0xfffffdcd
     284:	64696562 	strbtvs	r6, [r9], #-1378	; 0xfffffa9e
     288:	2e315f65 	cdpcs	15, 3, cr5, cr1, cr5, {3}
     28c:	5f302e34 	svcpl	0x00302e34
     290:	31313537 	teqcc	r1, r7, lsr r5
     294:	3230325f 	eorscc	r3, r0, #-268435451	; 0xf0000005
     298:	32373030 	eorscc	r3, r7, #48	; 0x30
     29c:	39305f30 	ldmdbcc	r0!, {r4, r5, r8, r9, sl, fp, ip, lr}
     2a0:	785f3832 	ldmdavc	pc, {r1, r4, r5, fp, ip, sp}^	; <UNPREDICTABLE>
     2a4:	365f3638 			; <UNDEFINED> instruction: 0x365f3638
     2a8:	78655f34 	stmdavc	r5!, {r2, r4, r5, r8, r9, sl, fp, ip, lr}^
     2ac:	74735c65 	ldrbtvc	r5, [r3], #-3173	; 0xfffff39b
     2b0:	6332336d 	teqvs	r2, #-1275068415	; 0xb4000001
     2b4:	69656275 	stmdbvs	r5!, {r0, r2, r4, r5, r6, r9, sp, lr}^
     2b8:	315f6564 	cmpcc	pc, r4, ror #10
     2bc:	302e342e 	eorcc	r3, lr, lr, lsr #8
     2c0:	6d74735c 	ldclvs	3, cr7, [r4, #-368]!	; 0xfffffe90
     2c4:	75633233 	strbvc	r3, [r3, #-563]!	; 0xfffffdcd
     2c8:	64696562 	strbtvs	r6, [r9], #-1378	; 0xfffffa9e
     2cc:	6c705c65 	ldclvs	12, cr5, [r0], #-404	; 0xfffffe6c
     2d0:	6e696775 	mcrvs	7, 3, r6, cr9, cr5, {3}
     2d4:	6f635c73 	svcvs	0x00635c73
     2d8:	74732e6d 	ldrbtvc	r2, [r3], #-3693	; 0xfffff193
     2dc:	6d74732e 	ldclvs	3, cr7, [r4, #-184]!	; 0xffffff48
     2e0:	75633233 	strbvc	r3, [r3, #-563]!	; 0xfffffdcd
     2e4:	692e6562 	stmdbvs	lr!, {r1, r5, r6, r8, sl, sp, lr}
     2e8:	6d2e6564 	cfstr32vs	mvfx6, [lr, #-400]!	; 0xfffffe70
     2ec:	652e7563 	strvs	r7, [lr, #-1379]!	; 0xfffffa9d
     2f0:	72657478 	rsbvc	r7, r5, #120, 8	; 0x78000000
     2f4:	746c616e 	strbtvc	r6, [ip], #-366	; 0xfffffe92
     2f8:	736c6f6f 	cmnvc	ip, #444	; 0x1bc
     2fc:	756e672e 	strbvc	r6, [lr, #-1838]!	; 0xfffff8d2
     300:	6f6f742d 	svcvs	0x006f742d
     304:	662d736c 	strtvs	r7, [sp], -ip, ror #6
     308:	732d726f 			; <UNDEFINED> instruction: 0x732d726f
     30c:	32336d74 	eorscc	r6, r3, #116, 26	; 0x1d00
     310:	2e30312e 	rsfcssp	f3, f0, #0.5
     314:	30322d33 	eorscc	r2, r2, r3, lsr sp
     318:	312e3132 			; <UNDEFINED> instruction: 0x312e3132
     31c:	69772e30 	ldmdbvs	r7!, {r4, r5, r9, sl, fp, sp}^
     320:	5f32336e 	svcpl	0x0032336e
     324:	2e302e31 	mrccs	14, 1, r2, cr0, cr1, {1}
     328:	2e303032 	mrccs	0, 1, r3, cr0, cr2, {1}
     32c:	33323032 	teqcc	r2, #50	; 0x32
     330:	36313130 			; <UNDEFINED> instruction: 0x36313130
     334:	33303031 	teqcc	r0, #49	; 0x31
     338:	6f6f745c 	svcvs	0x006f745c
     33c:	625c736c 	subsvs	r7, ip, #108, 6	; 0xb0000001
     340:	2e5c6e69 	cdpcs	14, 5, cr6, cr12, cr9, {3}
     344:	696c2f2e 	stmdbvs	ip!, {r1, r2, r3, r5, r8, r9, sl, fp, sp}^
     348:	63672f62 	cmnvs	r7, #392	; 0x188
     34c:	72612f63 	rsbvc	r2, r1, #396	; 0x18c
     350:	6f6e2d6d 	svcvs	0x006e2d6d
     354:	652d656e 	strvs	r6, [sp, #-1390]!	; 0xfffffa92
     358:	2f696261 	svccs	0x00696261
     35c:	332e3031 			; <UNDEFINED> instruction: 0x332e3031
     360:	2e2f312e 	sufcsep	f3, f7, #0.5
     364:	2e2e2f2e 	cdpcs	15, 2, cr2, cr14, cr14, {1}
     368:	2f2e2e2f 	svccs	0x002e2e2f
     36c:	612f2e2e 			; <UNDEFINED> instruction: 0x612f2e2e
     370:	6e2d6d72 	mcrvs	13, 1, r6, cr13, cr2, {3}
     374:	2d656e6f 	stclcs	14, cr6, [r5, #-444]!	; 0xfffffe44
     378:	69626165 	stmdbvs	r2!, {r0, r2, r5, r6, r8, sp, lr}^
     37c:	636e692f 	cmnvs	lr, #770048	; 0xbc000
     380:	6564756c 	strbvs	r7, [r4, #-1388]!	; 0xfffffa94
     384:	5c3a6700 	ldcpl	7, cr6, [sl], #-0
     388:	732e6e65 			; <UNDEFINED> instruction: 0x732e6e65
     38c:	74732d74 	ldrbtvc	r2, [r3], #-3444	; 0xfffff28c
     390:	6332336d 	teqvs	r2, #-1275068415	; 0xb4000001
     394:	69656275 	stmdbvs	r5!, {r0, r2, r4, r5, r6, r9, sp, lr}^
     398:	315f6564 	cmpcc	pc, r4, ror #10
     39c:	302e342e 	eorcc	r3, lr, lr, lsr #8
     3a0:	3135375f 	teqcc	r5, pc, asr r7
     3a4:	30325f31 	eorscc	r5, r2, r1, lsr pc
     3a8:	37303032 			; <UNDEFINED> instruction: 0x37303032
     3ac:	305f3032 	subscc	r3, pc, r2, lsr r0	; <UNPREDICTABLE>
     3b0:	5f383239 	svcpl	0x00383239
     3b4:	5f363878 	svcpl	0x00363878
     3b8:	655f3436 	ldrbvs	r3, [pc, #-1078]	; ffffff8a <_estack+0xdfffd78a>
     3bc:	735c6578 	cmpvc	ip, #120, 10	; 0x1e000000
     3c0:	32336d74 	eorscc	r6, r3, #116, 26	; 0x1d00
     3c4:	65627563 	strbvs	r7, [r2, #-1379]!	; 0xfffffa9d
     3c8:	5f656469 	svcpl	0x00656469
     3cc:	2e342e31 	mrccs	14, 1, r2, cr4, cr1, {1}
     3d0:	74735c30 	ldrbtvc	r5, [r3], #-3120	; 0xfffff3d0
     3d4:	6332336d 	teqvs	r2, #-1275068415	; 0xb4000001
     3d8:	69656275 	stmdbvs	r5!, {r0, r2, r4, r5, r6, r9, sp, lr}^
     3dc:	705c6564 	subsvc	r6, ip, r4, ror #10
     3e0:	6967756c 	stmdbvs	r7!, {r2, r3, r5, r6, r8, sl, ip, sp, lr}^
     3e4:	635c736e 	cmpvs	ip, #-1207959551	; 0xb8000001
     3e8:	732e6d6f 			; <UNDEFINED> instruction: 0x732e6d6f
     3ec:	74732e74 	ldrbtvc	r2, [r3], #-3700	; 0xfffff18c
     3f0:	6332336d 	teqvs	r2, #-1275068415	; 0xb4000001
     3f4:	2e656275 	mcrcs	2, 3, r6, cr5, cr5, {3}
     3f8:	2e656469 	cdpcs	4, 6, cr6, cr5, cr9, {3}
     3fc:	2e75636d 	cdpcs	3, 7, cr6, cr5, cr13, {3}
     400:	65747865 	ldrbvs	r7, [r4, #-2149]!	; 0xfffff79b
     404:	6c616e72 	stclvs	14, cr6, [r1], #-456	; 0xfffffe38
     408:	6c6f6f74 	stclvs	15, cr6, [pc], #-464	; 240 <_Min_Heap_Size+0x40>
     40c:	6e672e73 	mcrvs	14, 3, r2, cr7, cr3, {3}
     410:	6f742d75 	svcvs	0x00742d75
     414:	2d736c6f 	ldclcs	12, cr6, [r3, #-444]!	; 0xfffffe44
     418:	2d726f66 	ldclcs	15, cr6, [r2, #-408]!	; 0xfffffe68
     41c:	336d7473 	cmncc	sp, #1929379840	; 0x73000000
     420:	30312e32 	eorscc	r2, r1, r2, lsr lr
     424:	322d332e 	eorcc	r3, sp, #-1207959552	; 0xb8000000
     428:	2e313230 	mrccs	2, 1, r3, cr1, cr0, {1}
     42c:	772e3031 			; <UNDEFINED> instruction: 0x772e3031
     430:	32336e69 	eorscc	r6, r3, #1680	; 0x690
     434:	302e315f 	eorcc	r3, lr, pc, asr r1
     438:	3030322e 	eorscc	r3, r0, lr, lsr #4
     43c:	3230322e 	eorscc	r3, r0, #-536870910	; 0xe0000002
     440:	31313033 	teqcc	r1, r3, lsr r0
     444:	30303136 	eorscc	r3, r0, r6, lsr r1
     448:	6f745c33 	svcvs	0x00745c33
     44c:	5c736c6f 	ldclpl	12, cr6, [r3], #-444	; 0xfffffe44
     450:	2d6d7261 	sfmcs	f7, 2, [sp, #-388]!	; 0xfffffe7c
     454:	656e6f6e 	strbvs	r6, [lr, #-3950]!	; 0xfffff092
     458:	6261652d 	rsbvs	r6, r1, #188743680	; 0xb400000
     45c:	6e695c69 	cdpvs	12, 6, cr5, cr9, cr9, {3}
     460:	64756c63 	ldrbtvs	r6, [r5], #-3171	; 0xfffff39d
     464:	656e5c65 	strbvs	r5, [lr, #-3173]!	; 0xfffff39b
     468:	62696c77 	rsbvs	r6, r9, #30464	; 0x7700
     46c:	6e616e2d 	cdpvs	14, 6, cr6, cr1, cr13, {1}
     470:	3a67006f 	bcc	19c0634 <_Min_Stack_Size+0x19c0234>
     474:	2e6e655c 	mcrcs	5, 3, r6, cr14, cr12, {2}
     478:	732d7473 			; <UNDEFINED> instruction: 0x732d7473
     47c:	32336d74 	eorscc	r6, r3, #116, 26	; 0x1d00
     480:	65627563 	strbvs	r7, [r2, #-1379]!	; 0xfffffa9d
     484:	5f656469 	svcpl	0x00656469
     488:	2e342e31 	mrccs	14, 1, r2, cr4, cr1, {1}
     48c:	35375f30 	ldrcc	r5, [r7, #-3888]!	; 0xfffff0d0
     490:	325f3131 	subscc	r3, pc, #1073741836	; 0x4000000c
     494:	30303230 	eorscc	r3, r0, r0, lsr r2
     498:	5f303237 	svcpl	0x00303237
     49c:	38323930 	ldmdacc	r2!, {r4, r5, r8, fp, ip, sp}
     4a0:	3638785f 			; <UNDEFINED> instruction: 0x3638785f
     4a4:	5f34365f 	svcpl	0x0034365f
     4a8:	5c657865 	stclpl	8, cr7, [r5], #-404	; 0xfffffe6c
     4ac:	336d7473 	cmncc	sp, #1929379840	; 0x73000000
     4b0:	62756332 	rsbsvs	r6, r5, #-939524096	; 0xc8000000
     4b4:	65646965 	strbvs	r6, [r4, #-2405]!	; 0xfffff69b
     4b8:	342e315f 	strtcc	r3, [lr], #-351	; 0xfffffea1
     4bc:	735c302e 	cmpvc	ip, #46	; 0x2e
     4c0:	32336d74 	eorscc	r6, r3, #116, 26	; 0x1d00
     4c4:	65627563 	strbvs	r7, [r2, #-1379]!	; 0xfffffa9d
     4c8:	5c656469 	cfstrdpl	mvd6, [r5], #-420	; 0xfffffe5c
     4cc:	67756c70 			; <UNDEFINED> instruction: 0x67756c70
     4d0:	5c736e69 	ldclpl	14, cr6, [r3], #-420	; 0xfffffe5c
     4d4:	2e6d6f63 	cdpcs	15, 6, cr6, cr13, cr3, {3}
     4d8:	732e7473 			; <UNDEFINED> instruction: 0x732e7473
     4dc:	32336d74 	eorscc	r6, r3, #116, 26	; 0x1d00
     4e0:	65627563 	strbvs	r7, [r2, #-1379]!	; 0xfffffa9d
     4e4:	6564692e 	strbvs	r6, [r4, #-2350]!	; 0xfffff6d2
     4e8:	75636d2e 	strbvc	r6, [r3, #-3374]!	; 0xfffff2d2
     4ec:	7478652e 	ldrbtvc	r6, [r8], #-1326	; 0xfffffad2
     4f0:	616e7265 	cmnvs	lr, r5, ror #4
     4f4:	6f6f746c 	svcvs	0x006f746c
     4f8:	672e736c 	strvs	r7, [lr, -ip, ror #6]!
     4fc:	742d756e 	strtvc	r7, [sp], #-1390	; 0xfffffa92
     500:	736c6f6f 	cmnvc	ip, #444	; 0x1bc
     504:	726f662d 	rsbvc	r6, pc, #47185920	; 0x2d00000
     508:	6d74732d 	ldclvs	3, cr7, [r4, #-180]!	; 0xffffff4c
     50c:	312e3233 			; <UNDEFINED> instruction: 0x312e3233
     510:	2d332e30 	ldccs	14, cr2, [r3, #-192]!	; 0xffffff40
     514:	31323032 	teqcc	r2, r2, lsr r0
     518:	2e30312e 	rsfcssp	f3, f0, #0.5
     51c:	336e6977 	cmncc	lr, #1949696	; 0x1dc000
     520:	2e315f32 	mrccs	15, 1, r5, cr1, cr2, {1}
     524:	30322e30 	eorscc	r2, r2, r0, lsr lr
     528:	30322e30 	eorscc	r2, r2, r0, lsr lr
     52c:	31303332 	teqcc	r0, r2, lsr r3
     530:	30313631 	eorscc	r3, r1, r1, lsr r6
     534:	745c3330 	ldrbvc	r3, [ip], #-816	; 0xfffffcd0
     538:	736c6f6f 	cmnvc	ip, #444	; 0x1bc
     53c:	62696c5c 	rsbvs	r6, r9, #92, 24	; 0x5c00
     540:	6363675c 	cmnvs	r3, #92, 14	; 0x1700000
     544:	6d72615c 	ldfvse	f6, [r2, #-368]!	; 0xfffffe90
     548:	6e6f6e2d 	cdpvs	14, 6, cr6, cr15, cr13, {1}
     54c:	61652d65 	cmnvs	r5, r5, ror #26
     550:	315c6962 	cmpcc	ip, r2, ror #18
     554:	2e332e30 	mrccs	14, 1, r2, cr3, cr0, {1}
     558:	6e695c31 	mcrvs	12, 3, r5, cr9, cr1, {1}
     55c:	64756c63 	ldrbtvs	r6, [r5], #-3171	; 0xfffff39d
     560:	6d000065 	stcvs	0, cr0, [r0, #-404]	; 0xfffffe6c
     564:	2e6e6961 	vnmulcs.f16	s13, s28, s3	; <UNPREDICTABLE>
     568:	00010063 	andeq	r0, r1, r3, rrx
     56c:	65645f00 	strbvs	r5, [r4, #-3840]!	; 0xfffff100
     570:	6c756166 	ldfvse	f6, [r5], #-408	; 0xfffffe68
     574:	79745f74 	ldmdbvc	r4!, {r2, r4, r5, r6, r8, r9, sl, fp, ip, lr}^
     578:	2e736570 	mrccs	5, 3, r6, cr3, cr0, {3}
     57c:	00020068 	andeq	r0, r2, r8, rrx
     580:	74735f00 	ldrbtvc	r5, [r3], #-3840	; 0xfffff100
     584:	746e6964 	strbtvc	r6, [lr], #-2404	; 0xfffff69c
     588:	0300682e 	movweq	r6, #2094	; 0x82e
     58c:	74730000 	ldrbtvc	r0, [r3], #-0
     590:	5f32336d 	svcpl	0x0032336d
     594:	33303166 	teqcc	r0, #-2147483623	; 0x80000019
     598:	682e3678 	stmdavs	lr!, {r3, r4, r5, r6, r9, sl, ip, sp}
     59c:	00000400 	andeq	r0, r0, r0, lsl #8
     5a0:	336d7473 	cmncc	sp, #1929379840	; 0x73000000
     5a4:	31665f32 	cmncc	r6, r2, lsr pc
     5a8:	36633330 			; <UNDEFINED> instruction: 0x36633330
     5ac:	6972645f 	ldmdbvs	r2!, {r0, r1, r2, r3, r4, r6, sl, sp, lr}^
     5b0:	73726576 	cmnvc	r2, #494927872	; 0x1d800000
     5b4:	5458455f 	ldrbpl	r4, [r8], #-1375	; 0xfffffaa1
     5b8:	00682e49 	rsbeq	r2, r8, r9, asr #28
     5bc:	73000004 	movwvc	r0, #4
     5c0:	32336d74 	eorscc	r6, r3, #116, 26	; 0x1d00
     5c4:	3031665f 	eorscc	r6, r1, pc, asr r6
     5c8:	5f366333 	svcpl	0x00366333
     5cc:	76697264 	strbtvc	r7, [r9], -r4, ror #4
     5d0:	5f737265 	svcpl	0x00737265
     5d4:	4f495047 	svcmi	0x00495047
     5d8:	0400682e 	streq	r6, [r0], #-2094	; 0xfffff7d2
     5dc:	74730000 	ldrbtvc	r0, [r3], #-0
     5e0:	62696c64 	rsbvs	r6, r9, #100, 24	; 0x6400
     5e4:	0500682e 	streq	r6, [r0, #-2094]	; 0xfffff7d2
     5e8:	65690000 	strbvs	r0, [r9, #-0]!
     5ec:	70666565 	rsbvc	r6, r6, r5, ror #10
     5f0:	0200682e 	andeq	r6, r0, #3014656	; 0x2e0000
     5f4:	615f0000 	cmpvs	pc, r0
     5f8:	2e69736e 	cdpcs	3, 6, cr7, cr9, cr14, {3}
     5fc:	00050068 	andeq	r0, r5, r8, rrx
     600:	77656e00 	strbvc	r6, [r5, -r0, lsl #28]!
     604:	2e62696c 	vnmulcs.f16	s13, s4, s25	; <UNPREDICTABLE>
     608:	00060068 	andeq	r0, r6, r8, rrx
     60c:	656e5f00 	strbvs	r5, [lr, #-3840]!	; 0xfffff100
     610:	62696c77 	rsbvs	r6, r9, #30464	; 0x7700
     614:	7265765f 	rsbvc	r7, r5, #99614720	; 0x5f00000
     618:	6e6f6973 			; <UNDEFINED> instruction: 0x6e6f6973
     61c:	0500682e 	streq	r6, [r0, #-2094]	; 0xfffff7d2
     620:	6f630000 	svcvs	0x00630000
     624:	6769666e 	strbvs	r6, [r9, -lr, ror #12]!
     628:	0300682e 	movweq	r6, #2094	; 0x82e
     62c:	65660000 	strbvs	r0, [r6, #-0]!
     630:	72757461 	rsbsvc	r7, r5, #1627389952	; 0x61000000
     634:	682e7365 	stmdavs	lr!, {r0, r2, r5, r6, r8, r9, ip, sp, lr}
     638:	00000300 	andeq	r0, r0, r0, lsl #6
     63c:	64647473 	strbtvs	r7, [r4], #-1139	; 0xfffffb8d
     640:	682e6665 	stmdavs	lr!, {r0, r2, r5, r6, r9, sl, sp, lr}
     644:	00000700 	andeq	r0, r0, r0, lsl #14
     648:	6e656572 	mcrvs	5, 3, r6, cr5, cr2, {3}
     64c:	00682e74 	rsbeq	r2, r8, r4, ror lr
     650:	5f000003 	svcpl	0x00000003
     654:	65707974 	ldrbvs	r7, [r0, #-2420]!	; 0xfffff68c
     658:	00682e73 	rsbeq	r2, r8, r3, ror lr
     65c:	5f000003 	svcpl	0x00000003
     660:	65707974 	ldrbvs	r7, [r0, #-2420]!	; 0xfffff68c
     664:	00682e73 	rsbeq	r2, r8, r3, ror lr
     668:	6c000002 	stcvs	0, cr0, [r0], {2}
     66c:	2e6b636f 	cdpcs	3, 6, cr6, cr11, cr15, {3}
     670:	00030068 	andeq	r0, r3, r8, rrx
     674:	73736100 	cmnvc	r3, #0, 2
     678:	2e747265 	cdpcs	2, 7, cr7, cr4, cr5, {3}
     67c:	00050068 	andeq	r0, r5, r8, rrx
     680:	65646300 	strbvs	r6, [r4, #-768]!	; 0xfffffd00
     684:	682e7366 	stmdavs	lr!, {r1, r2, r5, r6, r8, r9, ip, sp, lr}
     688:	00000300 	andeq	r0, r0, r0, lsl #6
     68c:	6c647473 	cfstrdvs	mvd7, [r4], #-460	; 0xfffffe34
     690:	682e6269 	stmdavs	lr!, {r0, r3, r5, r6, r9, sp, lr}
     694:	00000200 	andeq	r0, r0, r0, lsl #4
     698:	6f6c6c61 	svcvs	0x006c6c61
     69c:	682e6163 	stmdavs	lr!, {r0, r1, r5, r6, r8, sp, lr}
     6a0:	00000500 	andeq	r0, r0, r0, lsl #10
     6a4:	69647473 	stmdbvs	r4!, {r0, r1, r4, r5, r6, sl, ip, sp, lr}^
     6a8:	682e746e 	stmdavs	lr!, {r1, r2, r3, r5, r6, sl, ip, sp, lr}
     6ac:	00000700 	andeq	r0, r0, r0, lsl #14
     6b0:	69647473 	stmdbvs	r4!, {r0, r1, r4, r5, r6, sl, ip, sp, lr}^
     6b4:	682e746e 	stmdavs	lr!, {r1, r2, r3, r5, r6, sl, ip, sp, lr}
     6b8:	00000500 	andeq	r0, r0, r0, lsl #10
     6bc:	746e695f 	strbtvc	r6, [lr], #-2399	; 0xfffff6a1
     6c0:	2e707573 	mrccs	5, 3, r7, cr0, cr3, {3}
     6c4:	00030068 	andeq	r0, r3, r8, rrx
     6c8:	6d747300 	ldclvs	3, cr7, [r4, #-0]
     6cc:	665f3233 			; <UNDEFINED> instruction: 0x665f3233
     6d0:	63333031 	teqvs	r3, #49	; 0x31
     6d4:	72645f36 	rsbvc	r5, r4, #54, 30	; 0xd8
     6d8:	72657669 	rsbvc	r7, r5, #110100480	; 0x6900000
     6dc:	53555f73 	cmppl	r5, #460	; 0x1cc
     6e0:	2e545241 	cdpcs	2, 5, cr5, cr4, cr1, {2}
     6e4:	00040068 	andeq	r0, r4, r8, rrx
     6e8:	6d747300 	ldclvs	3, cr7, [r4, #-0]
     6ec:	665f3233 			; <UNDEFINED> instruction: 0x665f3233
     6f0:	63333031 	teqvs	r3, #49	; 0x31
     6f4:	72645f36 	rsbvc	r5, r4, #54, 30	; 0xd8
     6f8:	72657669 	rsbvc	r7, r5, #110100480	; 0x6900000
     6fc:	43525f73 	cmpmi	r2, #460	; 0x1cc
     700:	00682e43 	rsbeq	r2, r8, r3, asr #28
     704:	00000004 	andeq	r0, r0, r4
     708:	05000105 	streq	r0, [r0, #-261]	; 0xfffffefb
     70c:	00017002 	andeq	r7, r1, r2
     710:	00dc0308 	sbcseq	r0, ip, r8, lsl #6
     714:	59020501 	stmdbpl	r2, {r0, r8, sl}
     718:	10030105 	andne	r0, r3, r5, lsl #2
     71c:	03030558 	movweq	r0, #13656	; 0x3558
     720:	23862072 	orrcs	r2, r6, #114	; 0x72
     724:	24010569 	strcs	r0, [r1], #-1385	; 0xfffffa97
     728:	01000502 	tsteq	r0, r2, lsl #10
     72c:	00010501 	andeq	r0, r1, r1, lsl #10
     730:	01b00205 	lslseq	r0, r5, #4
     734:	ef030800 	svc	0x00030800
     738:	02050100 	andeq	r0, r5, #0, 2
     73c:	3d01052f 	cfstr32cc	mvfx0, [r1, #-188]	; 0xffffff44
     740:	01000202 	tsteq	r0, r2, lsl #4
     744:	00170501 	andseq	r0, r7, r1, lsl #10
     748:	01c00205 	biceq	r0, r0, r5, lsl #4
     74c:	f2030800 	vadd.i8	d0, d3, d0
     750:	0e050100 	adfeqs	f0, f5, f0
     754:	2e04052f 	cfsh32cs	mvfx0, mvfx4, #31
     758:	05300f05 	ldreq	r0, [r0, #-3845]!	; 0xfffff0fb
     75c:	01052f0d 	tsteq	r5, sp, lsl #30
     760:	1b150534 	blne	541c38 <_Min_Stack_Size+0x541838>
     764:	052e0b05 	streq	r0, [lr, #-2821]!	; 0xfffff4fb
     768:	0d05300f 	stceq	0, cr3, [r5, #-60]	; 0xffffffc4
     76c:	3001052f 	andcc	r0, r1, pc, lsr #10
     770:	01000b02 	tsteq	r0, r2, lsl #22
     774:	00010501 	andeq	r0, r1, r1, lsl #10
     778:	01fc0205 	mvnseq	r0, r5, lsl #4
     77c:	fe030800 	vcmla.f16	d0, d3, d0[0], #0
     780:	11030100 	mrsne	r0, (UNDEF: 19)
     784:	0004022e 	andeq	r0, r4, lr, lsr #4
     788:	13050101 	movwne	r0, #20737	; 0x5101
     78c:	08020500 	stmdaeq	r2, {r8, sl}
     790:	03080002 	movweq	r0, #32770	; 0x8002
     794:	05010191 	streq	r0, [r1, #-401]	; 0xfffffe6f
     798:	01052f02 	tsteq	r5, r2, lsl #30
     79c:	0002023d 	andeq	r0, r2, sp, lsr r2
     7a0:	01050101 	tsteq	r5, r1, lsl #2
     7a4:	16020500 	strne	r0, [r2], -r0, lsl #10
     7a8:	03080002 	movweq	r0, #32770	; 0x8002
     7ac:	05010195 	streq	r0, [r1, #-405]	; 0xfffffe6b
     7b0:	0d05670b 	stceq	7, cr6, [r5, #-44]	; 0xffffffd4
     7b4:	2f01053c 	svccs	0x0001053c
     7b8:	01000502 	tsteq	r0, r2, lsl #10
     7bc:	00010501 	andeq	r0, r1, r1, lsl #10
     7c0:	02360205 	eorseq	r0, r6, #1342177280	; 0x50000000
     7c4:	9a030800 	bls	c27cc <_Min_Stack_Size+0xc23cc>
     7c8:	0b050101 	bleq	140bd4 <_Min_Stack_Size+0x1407d4>
     7cc:	3c0d0575 	cfstr32cc	mvfx0, [sp], {117}	; 0x75
     7d0:	052e0f05 	streq	r0, [lr, #-3845]!	; 0xfffff0fb
     7d4:	05022f01 	streq	r2, [r2, #-3841]	; 0xfffff0ff
     7d8:	05010100 	streq	r0, [r1, #-256]	; 0xffffff00
     7dc:	02050001 	andeq	r0, r5, #1
     7e0:	0800025c 	stmdaeq	r0, {r2, r3, r4, r6, r9}
     7e4:	01019f03 	tsteq	r1, r3, lsl #30
     7e8:	05301305 	ldreq	r1, [r0, #-773]!	; 0xfffffcfb
     7ec:	16054a09 	strne	r4, [r5], -r9, lsl #20
     7f0:	3c0c0531 	cfstr32cc	mvfx0, [ip], {49}	; 0x31
     7f4:	052f1805 	streq	r1, [pc, #-2053]!	; fffffff7 <_estack+0xdfffd7f7>
     7f8:	19053c0c 	stmdbne	r5, {r2, r3, sl, fp, ip, sp}
     7fc:	3c0c0531 	cfstr32cc	mvfx0, [ip], {49}	; 0x31
     800:	052f1805 	streq	r1, [pc, #-2053]!	; 3 <_Min_Heap_Size-0x1fd>
     804:	03053c0c 	movweq	r3, #23564	; 0x5c0c
     808:	21110532 	tstcs	r1, r2, lsr r5
     80c:	052e0505 	streq	r0, [lr, #-1285]!	; 0xfffffafb
     810:	845a3104 	ldrbhi	r3, [sl], #-260	; 0xfffffefc
     814:	053e1005 	ldreq	r1, [lr, #-5]!
     818:	0405660f 	streq	r6, [r5], #-1551	; 0xfffff9f1
     81c:	16052231 			; <UNDEFINED> instruction: 0x16052231
     820:	2e0b0592 	mcrcs	5, 0, r0, cr11, cr2, {4}
     824:	5a310405 	bpl	c41840 <_Min_Stack_Size+0xc41440>
     828:	3e100584 	cdpcc	5, 1, cr0, cr0, cr4, {4}
     82c:	05740f05 	ldrbeq	r0, [r4, #-3845]!	; 0xfffff0fb
     830:	05223104 	streq	r3, [r2, #-260]!	; 0xfffffefc
     834:	82610303 	rsbhi	r0, r1, #201326592	; 0xc000000
     838:	01010008 	tsteq	r1, r8
     83c:	05000105 	streq	r0, [r0, #-261]	; 0xfffffefb
     840:	00035002 	andeq	r5, r3, r2
     844:	01d30308 	bicseq	r0, r3, r8, lsl #6
     848:	3f020501 	svccc	0x00020501
     84c:	14056767 	strne	r6, [r5], #-1895	; 0xfffff899
     850:	6718056b 	ldrvs	r0, [r8, -fp, ror #10]
     854:	052f1a05 	streq	r1, [pc, #-2565]!	; fffffe57 <_estack+0xdfffd657>
     858:	02052f13 	andeq	r2, r5, #19, 30	; 0x4c
     85c:	0b055a2f 	bleq	157120 <_Min_Stack_Size+0x156d20>
     860:	3f06052f 	svccc	0x0006052f
     864:	052e0505 	streq	r0, [lr, #-1285]!	; 0xfffffafb
     868:	0505310c 	streq	r3, [r5, #-268]	; 0xfffffef4
     86c:	000a0239 	andeq	r0, sl, r9, lsr r2
     870:	00800101 	addeq	r0, r0, r1, lsl #2
     874:	00030000 	andeq	r0, r3, r0
     878:	00000039 	andeq	r0, r0, r9, lsr r0
     87c:	0efb0102 	cdpeq	1, 15, cr0, cr11, cr2, {0}
     880:	0101000d 	tsteq	r1, sp
     884:	00000101 	andeq	r0, r0, r1, lsl #2
     888:	00000100 	andeq	r0, r0, r0, lsl #2
     88c:	2f2e2e01 	svccs	0x002e2e01
     890:	72617453 	rsbvc	r7, r1, #1392508928	; 0x53000000
     894:	00707574 	rsbseq	r7, r0, r4, ror r5
     898:	61747300 	cmnvs	r4, r0, lsl #6
     89c:	70757472 	rsbsvc	r7, r5, r2, ror r4
     8a0:	6d74735f 	ldclvs	3, cr7, [r4, #-380]!	; 0xfffffe84
     8a4:	31663233 	cmncc	r6, r3, lsr r2
     8a8:	36633330 			; <UNDEFINED> instruction: 0x36633330
     8ac:	732e7874 			; <UNDEFINED> instruction: 0x732e7874
     8b0:	00000100 	andeq	r0, r0, r0, lsl #2
     8b4:	02050000 	andeq	r0, r5, #0
     8b8:	080003c8 	stmdaeq	r0, {r3, r6, r7, r8, r9}
     8bc:	21013a03 	tstcs	r1, r3, lsl #20
     8c0:	21213122 			; <UNDEFINED> instruction: 0x21213122
     8c4:	21232121 			; <UNDEFINED> instruction: 0x21232121
     8c8:	21212321 			; <UNDEFINED> instruction: 0x21212321
     8cc:	21212123 			; <UNDEFINED> instruction: 0x21212123
     8d0:	21232123 			; <UNDEFINED> instruction: 0x21232123
     8d4:	03313023 	teqeq	r1, #35	; 0x23
     8d8:	2f342056 	svccs	0x00342056
     8dc:	2e0f032f 	cdpcs	3, 0, cr0, cr15, cr15, {1}
     8e0:	0002022f 	andeq	r0, r2, pc, lsr #4
     8e4:	05000101 	streq	r0, [r0, #-257]	; 0xfffffeff
     8e8:	00041802 	andeq	r1, r4, r2, lsl #16
     8ec:	00f30308 	rscseq	r0, r3, r8, lsl #6
     8f0:	00010201 	andeq	r0, r1, r1, lsl #4
     8f4:	0b140101 	bleq	500d00 <_Min_Stack_Size+0x500900>
     8f8:	00030000 	andeq	r0, r3, r0
     8fc:	000006e6 	andeq	r0, r0, r6, ror #13
     900:	0efb0102 	cdpeq	1, 15, cr0, cr11, cr2, {0}
     904:	0101000d 	tsteq	r1, sp
     908:	00000101 	andeq	r0, r0, r1, lsl #2
     90c:	00000100 	andeq	r0, r0, r0, lsl #2
     910:	2f2e2e01 	svccs	0x002e2e01
     914:	336d7473 	cmncc	sp, #1929379840	; 0x73000000
     918:	31665f32 	cmncc	r6, r2, lsr pc
     91c:	36633330 			; <UNDEFINED> instruction: 0x36633330
     920:	6972645f 	ldmdbvs	r2!, {r0, r1, r2, r3, r4, r6, sl, sp, lr}^
     924:	73726576 	cmnvc	r2, #494927872	; 0x1d800000
     928:	5c3a6700 	ldcpl	7, cr6, [sl], #-0
     92c:	732e6e65 			; <UNDEFINED> instruction: 0x732e6e65
     930:	74732d74 	ldrbtvc	r2, [r3], #-3444	; 0xfffff28c
     934:	6332336d 	teqvs	r2, #-1275068415	; 0xb4000001
     938:	69656275 	stmdbvs	r5!, {r0, r2, r4, r5, r6, r9, sp, lr}^
     93c:	315f6564 	cmpcc	pc, r4, ror #10
     940:	302e342e 	eorcc	r3, lr, lr, lsr #8
     944:	3135375f 	teqcc	r5, pc, asr r7
     948:	30325f31 	eorscc	r5, r2, r1, lsr pc
     94c:	37303032 			; <UNDEFINED> instruction: 0x37303032
     950:	305f3032 	subscc	r3, pc, r2, lsr r0	; <UNPREDICTABLE>
     954:	5f383239 	svcpl	0x00383239
     958:	5f363878 	svcpl	0x00363878
     95c:	655f3436 	ldrbvs	r3, [pc, #-1078]	; 52e <_Min_Stack_Size+0x12e>
     960:	735c6578 	cmpvc	ip, #120, 10	; 0x1e000000
     964:	32336d74 	eorscc	r6, r3, #116, 26	; 0x1d00
     968:	65627563 	strbvs	r7, [r2, #-1379]!	; 0xfffffa9d
     96c:	5f656469 	svcpl	0x00656469
     970:	2e342e31 	mrccs	14, 1, r2, cr4, cr1, {1}
     974:	74735c30 	ldrbtvc	r5, [r3], #-3120	; 0xfffff3d0
     978:	6332336d 	teqvs	r2, #-1275068415	; 0xb4000001
     97c:	69656275 	stmdbvs	r5!, {r0, r2, r4, r5, r6, r9, sp, lr}^
     980:	705c6564 	subsvc	r6, ip, r4, ror #10
     984:	6967756c 	stmdbvs	r7!, {r2, r3, r5, r6, r8, sl, ip, sp, lr}^
     988:	635c736e 	cmpvs	ip, #-1207959551	; 0xb8000001
     98c:	732e6d6f 			; <UNDEFINED> instruction: 0x732e6d6f
     990:	74732e74 	ldrbtvc	r2, [r3], #-3700	; 0xfffff18c
     994:	6332336d 	teqvs	r2, #-1275068415	; 0xb4000001
     998:	2e656275 	mcrcs	2, 3, r6, cr5, cr5, {3}
     99c:	2e656469 	cdpcs	4, 6, cr6, cr5, cr9, {3}
     9a0:	2e75636d 	cdpcs	3, 7, cr6, cr5, cr13, {3}
     9a4:	65747865 	ldrbvs	r7, [r4, #-2149]!	; 0xfffff79b
     9a8:	6c616e72 	stclvs	14, cr6, [r1], #-456	; 0xfffffe38
     9ac:	6c6f6f74 	stclvs	15, cr6, [pc], #-464	; 7e4 <_Min_Stack_Size+0x3e4>
     9b0:	6e672e73 	mcrvs	14, 3, r2, cr7, cr3, {3}
     9b4:	6f742d75 	svcvs	0x00742d75
     9b8:	2d736c6f 	ldclcs	12, cr6, [r3, #-444]!	; 0xfffffe44
     9bc:	2d726f66 	ldclcs	15, cr6, [r2, #-408]!	; 0xfffffe68
     9c0:	336d7473 	cmncc	sp, #1929379840	; 0x73000000
     9c4:	30312e32 	eorscc	r2, r1, r2, lsr lr
     9c8:	322d332e 	eorcc	r3, sp, #-1207959552	; 0xb8000000
     9cc:	2e313230 	mrccs	2, 1, r3, cr1, cr0, {1}
     9d0:	772e3031 			; <UNDEFINED> instruction: 0x772e3031
     9d4:	32336e69 	eorscc	r6, r3, #1680	; 0x690
     9d8:	302e315f 	eorcc	r3, lr, pc, asr r1
     9dc:	3030322e 	eorscc	r3, r0, lr, lsr #4
     9e0:	3230322e 	eorscc	r3, r0, #-536870910	; 0xe0000002
     9e4:	31313033 	teqcc	r1, r3, lsr r0
     9e8:	30303136 	eorscc	r3, r0, r6, lsr r1
     9ec:	6f745c33 	svcvs	0x00745c33
     9f0:	5c736c6f 	ldclpl	12, cr6, [r3], #-444	; 0xfffffe44
     9f4:	5c6e6962 			; <UNDEFINED> instruction: 0x5c6e6962
     9f8:	6c2f2e2e 	stcvs	14, cr2, [pc], #-184	; 948 <_Min_Stack_Size+0x548>
     9fc:	672f6269 	strvs	r6, [pc, -r9, ror #4]!
     a00:	612f6363 			; <UNDEFINED> instruction: 0x612f6363
     a04:	6e2d6d72 	mcrvs	13, 1, r6, cr13, cr2, {3}
     a08:	2d656e6f 	stclcs	14, cr6, [r5, #-444]!	; 0xfffffe44
     a0c:	69626165 	stmdbvs	r2!, {r0, r2, r5, r6, r8, sp, lr}^
     a10:	2e30312f 	rsfcssp	f3, f0, #10.0
     a14:	2f312e33 	svccs	0x00312e33
     a18:	2e2f2e2e 	cdpcs	14, 2, cr2, cr15, cr14, {1}
     a1c:	2e2e2f2e 	cdpcs	15, 2, cr2, cr14, cr14, {1}
     a20:	2f2e2e2f 	svccs	0x002e2e2f
     a24:	2d6d7261 	sfmcs	f7, 2, [sp, #-388]!	; 0xfffffe7c
     a28:	656e6f6e 	strbvs	r6, [lr, #-3950]!	; 0xfffff092
     a2c:	6261652d 	rsbvs	r6, r1, #188743680	; 0xb400000
     a30:	6e692f69 	cdpvs	15, 6, cr2, cr9, cr9, {3}
     a34:	64756c63 	ldrbtvs	r6, [r5], #-3171	; 0xfffff39d
     a38:	616d2f65 	cmnvs	sp, r5, ror #30
     a3c:	6e696863 	cdpvs	8, 6, cr6, cr9, cr3, {3}
     a40:	3a670065 	bcc	19c0bdc <_Min_Stack_Size+0x19c07dc>
     a44:	2e6e655c 	mcrcs	5, 3, r6, cr14, cr12, {2}
     a48:	732d7473 			; <UNDEFINED> instruction: 0x732d7473
     a4c:	32336d74 	eorscc	r6, r3, #116, 26	; 0x1d00
     a50:	65627563 	strbvs	r7, [r2, #-1379]!	; 0xfffffa9d
     a54:	5f656469 	svcpl	0x00656469
     a58:	2e342e31 	mrccs	14, 1, r2, cr4, cr1, {1}
     a5c:	35375f30 	ldrcc	r5, [r7, #-3888]!	; 0xfffff0d0
     a60:	325f3131 	subscc	r3, pc, #1073741836	; 0x4000000c
     a64:	30303230 	eorscc	r3, r0, r0, lsr r2
     a68:	5f303237 	svcpl	0x00303237
     a6c:	38323930 	ldmdacc	r2!, {r4, r5, r8, fp, ip, sp}
     a70:	3638785f 			; <UNDEFINED> instruction: 0x3638785f
     a74:	5f34365f 	svcpl	0x0034365f
     a78:	5c657865 	stclpl	8, cr7, [r5], #-404	; 0xfffffe6c
     a7c:	336d7473 	cmncc	sp, #1929379840	; 0x73000000
     a80:	62756332 	rsbsvs	r6, r5, #-939524096	; 0xc8000000
     a84:	65646965 	strbvs	r6, [r4, #-2405]!	; 0xfffff69b
     a88:	342e315f 	strtcc	r3, [lr], #-351	; 0xfffffea1
     a8c:	735c302e 	cmpvc	ip, #46	; 0x2e
     a90:	32336d74 	eorscc	r6, r3, #116, 26	; 0x1d00
     a94:	65627563 	strbvs	r7, [r2, #-1379]!	; 0xfffffa9d
     a98:	5c656469 	cfstrdpl	mvd6, [r5], #-420	; 0xfffffe5c
     a9c:	67756c70 			; <UNDEFINED> instruction: 0x67756c70
     aa0:	5c736e69 	ldclpl	14, cr6, [r3], #-420	; 0xfffffe5c
     aa4:	2e6d6f63 	cdpcs	15, 6, cr6, cr13, cr3, {3}
     aa8:	732e7473 			; <UNDEFINED> instruction: 0x732e7473
     aac:	32336d74 	eorscc	r6, r3, #116, 26	; 0x1d00
     ab0:	65627563 	strbvs	r7, [r2, #-1379]!	; 0xfffffa9d
     ab4:	6564692e 	strbvs	r6, [r4, #-2350]!	; 0xfffff6d2
     ab8:	75636d2e 	strbvc	r6, [r3, #-3374]!	; 0xfffff2d2
     abc:	7478652e 	ldrbtvc	r6, [r8], #-1326	; 0xfffffad2
     ac0:	616e7265 	cmnvs	lr, r5, ror #4
     ac4:	6f6f746c 	svcvs	0x006f746c
     ac8:	672e736c 	strvs	r7, [lr, -ip, ror #6]!
     acc:	742d756e 	strtvc	r7, [sp], #-1390	; 0xfffffa92
     ad0:	736c6f6f 	cmnvc	ip, #444	; 0x1bc
     ad4:	726f662d 	rsbvc	r6, pc, #47185920	; 0x2d00000
     ad8:	6d74732d 	ldclvs	3, cr7, [r4, #-180]!	; 0xffffff4c
     adc:	312e3233 			; <UNDEFINED> instruction: 0x312e3233
     ae0:	2d332e30 	ldccs	14, cr2, [r3, #-192]!	; 0xffffff40
     ae4:	31323032 	teqcc	r2, r2, lsr r0
     ae8:	2e30312e 	rsfcssp	f3, f0, #0.5
     aec:	336e6977 	cmncc	lr, #1949696	; 0x1dc000
     af0:	2e315f32 	mrccs	15, 1, r5, cr1, cr2, {1}
     af4:	30322e30 	eorscc	r2, r2, r0, lsr lr
     af8:	30322e30 	eorscc	r2, r2, r0, lsr lr
     afc:	31303332 	teqcc	r0, r2, lsr r3
     b00:	30313631 	eorscc	r3, r1, r1, lsr r6
     b04:	745c3330 	ldrbvc	r3, [ip], #-816	; 0xfffffcd0
     b08:	736c6f6f 	cmnvc	ip, #444	; 0x1bc
     b0c:	6e69625c 	mcrvs	2, 3, r6, cr9, cr12, {2}
     b10:	2f2e2e5c 	svccs	0x002e2e5c
     b14:	2f62696c 	svccs	0x0062696c
     b18:	2f636367 	svccs	0x00636367
     b1c:	2d6d7261 	sfmcs	f7, 2, [sp, #-388]!	; 0xfffffe7c
     b20:	656e6f6e 	strbvs	r6, [lr, #-3950]!	; 0xfffff092
     b24:	6261652d 	rsbvs	r6, r1, #188743680	; 0xb400000
     b28:	30312f69 	eorscc	r2, r1, r9, ror #30
     b2c:	312e332e 			; <UNDEFINED> instruction: 0x312e332e
     b30:	2f2e2e2f 	svccs	0x002e2e2f
     b34:	2e2f2e2e 	cdpcs	14, 2, cr2, cr15, cr14, {1}
     b38:	2e2e2f2e 	cdpcs	15, 2, cr2, cr14, cr14, {1}
     b3c:	6d72612f 	ldfvse	f6, [r2, #-188]!	; 0xffffff44
     b40:	6e6f6e2d 	cdpvs	14, 6, cr6, cr15, cr13, {1}
     b44:	61652d65 	cmnvs	r5, r5, ror #26
     b48:	692f6962 	stmdbvs	pc!, {r1, r5, r6, r8, fp, sp, lr}	; <UNPREDICTABLE>
     b4c:	756c636e 	strbvc	r6, [ip, #-878]!	; 0xfffffc92
     b50:	732f6564 			; <UNDEFINED> instruction: 0x732f6564
     b54:	44007379 	strmi	r7, [r0], #-889	; 0xfffffc87
     b58:	72442f3a 	subvc	r2, r4, #58, 30	; 0xe8
     b5c:	72657669 	rsbvc	r7, r5, #110100480	; 0x6900000
     b60:	74732f73 	ldrbtvc	r2, [r3], #-3955	; 0xfffff08d
     b64:	5f32336d 	svcpl	0x0032336d
     b68:	33303166 	teqcc	r0, #-2147483623	; 0x80000019
     b6c:	645f3663 	ldrbvs	r3, [pc], #-1635	; b74 <_Min_Stack_Size+0x774>
     b70:	65766972 	ldrbvs	r6, [r6, #-2418]!	; 0xfffff68e
     b74:	492f7372 	stmdbmi	pc!, {r1, r4, r5, r6, r8, r9, ip, sp, lr}	; <UNPREDICTABLE>
     b78:	6700636e 	strvs	r6, [r0, -lr, ror #6]
     b7c:	6e655c3a 	mcrvs	12, 3, r5, cr5, cr10, {1}
     b80:	2d74732e 	ldclcs	3, cr7, [r4, #-184]!	; 0xffffff48
     b84:	336d7473 	cmncc	sp, #1929379840	; 0x73000000
     b88:	62756332 	rsbsvs	r6, r5, #-939524096	; 0xc8000000
     b8c:	65646965 	strbvs	r6, [r4, #-2405]!	; 0xfffff69b
     b90:	342e315f 	strtcc	r3, [lr], #-351	; 0xfffffea1
     b94:	375f302e 	ldrbcc	r3, [pc, -lr, lsr #32]
     b98:	5f313135 	svcpl	0x00313135
     b9c:	30323032 	eorscc	r3, r2, r2, lsr r0
     ba0:	30323730 	eorscc	r3, r2, r0, lsr r7
     ba4:	3239305f 	eorscc	r3, r9, #95	; 0x5f
     ba8:	38785f38 	ldmdacc	r8!, {r3, r4, r5, r8, r9, sl, fp, ip, lr}^
     bac:	34365f36 	ldrtcc	r5, [r6], #-3894	; 0xfffff0ca
     bb0:	6578655f 	ldrbvs	r6, [r8, #-1375]!	; 0xfffffaa1
     bb4:	6d74735c 	ldclvs	3, cr7, [r4, #-368]!	; 0xfffffe90
     bb8:	75633233 	strbvc	r3, [r3, #-563]!	; 0xfffffdcd
     bbc:	64696562 	strbtvs	r6, [r9], #-1378	; 0xfffffa9e
     bc0:	2e315f65 	cdpcs	15, 3, cr5, cr1, cr5, {3}
     bc4:	5c302e34 	ldcpl	14, cr2, [r0], #-208	; 0xffffff30
     bc8:	336d7473 	cmncc	sp, #1929379840	; 0x73000000
     bcc:	62756332 	rsbsvs	r6, r5, #-939524096	; 0xc8000000
     bd0:	65646965 	strbvs	r6, [r4, #-2405]!	; 0xfffff69b
     bd4:	756c705c 	strbvc	r7, [ip, #-92]!	; 0xffffffa4
     bd8:	736e6967 	cmnvc	lr, #1687552	; 0x19c000
     bdc:	6d6f635c 	stclvs	3, cr6, [pc, #-368]!	; a74 <_Min_Stack_Size+0x674>
     be0:	2e74732e 	cdpcs	3, 7, cr7, cr4, cr14, {1}
     be4:	336d7473 	cmncc	sp, #1929379840	; 0x73000000
     be8:	62756332 	rsbsvs	r6, r5, #-939524096	; 0xc8000000
     bec:	64692e65 	strbtvs	r2, [r9], #-3685	; 0xfffff19b
     bf0:	636d2e65 	cmnvs	sp, #1616	; 0x650
     bf4:	78652e75 	stmdavc	r5!, {r0, r2, r4, r5, r6, r9, sl, fp, sp}^
     bf8:	6e726574 	mrcvs	5, 3, r6, cr2, cr4, {3}
     bfc:	6f746c61 	svcvs	0x00746c61
     c00:	2e736c6f 	cdpcs	12, 7, cr6, cr3, cr15, {3}
     c04:	2d756e67 	ldclcs	14, cr6, [r5, #-412]!	; 0xfffffe64
     c08:	6c6f6f74 	stclvs	15, cr6, [pc], #-464	; a40 <_Min_Stack_Size+0x640>
     c0c:	6f662d73 	svcvs	0x00662d73
     c10:	74732d72 	ldrbtvc	r2, [r3], #-3442	; 0xfffff28e
     c14:	2e32336d 	cdpcs	3, 3, cr3, cr2, cr13, {3}
     c18:	332e3031 			; <UNDEFINED> instruction: 0x332e3031
     c1c:	3230322d 	eorscc	r3, r0, #-805306366	; 0xd0000002
     c20:	30312e31 	eorscc	r2, r1, r1, lsr lr
     c24:	6e69772e 	cdpvs	7, 6, cr7, cr9, cr14, {1}
     c28:	315f3233 	cmpcc	pc, r3, lsr r2	; <UNPREDICTABLE>
     c2c:	322e302e 	eorcc	r3, lr, #46	; 0x2e
     c30:	322e3030 	eorcc	r3, lr, #48	; 0x30
     c34:	30333230 	eorscc	r3, r3, r0, lsr r2
     c38:	31363131 	teqcc	r6, r1, lsr r1
     c3c:	5c333030 	ldcpl	0, cr3, [r3], #-192	; 0xffffff40
     c40:	6c6f6f74 	stclvs	15, cr6, [pc], #-464	; a78 <_Min_Stack_Size+0x678>
     c44:	69625c73 	stmdbvs	r2!, {r0, r1, r4, r5, r6, sl, fp, ip, lr}^
     c48:	2e2e5c6e 	cdpcs	12, 2, cr5, cr14, cr14, {3}
     c4c:	62696c2f 	rsbvs	r6, r9, #12032	; 0x2f00
     c50:	6363672f 	cmnvs	r3, #12320768	; 0xbc0000
     c54:	6d72612f 	ldfvse	f6, [r2, #-188]!	; 0xffffff44
     c58:	6e6f6e2d 	cdpvs	14, 6, cr6, cr15, cr13, {1}
     c5c:	61652d65 	cmnvs	r5, r5, ror #26
     c60:	312f6962 			; <UNDEFINED> instruction: 0x312f6962
     c64:	2e332e30 	mrccs	14, 1, r2, cr3, cr0, {1}
     c68:	2e2e2f31 	mcrcs	15, 1, r2, cr14, cr1, {1}
     c6c:	2f2e2e2f 	svccs	0x002e2e2f
     c70:	2e2f2e2e 	cdpcs	14, 2, cr2, cr15, cr14, {1}
     c74:	72612f2e 	rsbvc	r2, r1, #46, 30	; 0xb8
     c78:	6f6e2d6d 	svcvs	0x006e2d6d
     c7c:	652d656e 	strvs	r6, [sp, #-1390]!	; 0xfffffa92
     c80:	2f696261 	svccs	0x00696261
     c84:	6c636e69 	stclvs	14, cr6, [r3], #-420	; 0xfffffe5c
     c88:	00656475 	rsbeq	r6, r5, r5, ror r4
     c8c:	655c3a67 	ldrbvs	r3, [ip, #-2663]	; 0xfffff599
     c90:	74732e6e 	ldrbtvc	r2, [r3], #-3694	; 0xfffff192
     c94:	6d74732d 	ldclvs	3, cr7, [r4, #-180]!	; 0xffffff4c
     c98:	75633233 	strbvc	r3, [r3, #-563]!	; 0xfffffdcd
     c9c:	64696562 	strbtvs	r6, [r9], #-1378	; 0xfffffa9e
     ca0:	2e315f65 	cdpcs	15, 3, cr5, cr1, cr5, {3}
     ca4:	5f302e34 	svcpl	0x00302e34
     ca8:	31313537 	teqcc	r1, r7, lsr r5
     cac:	3230325f 	eorscc	r3, r0, #-268435451	; 0xf0000005
     cb0:	32373030 	eorscc	r3, r7, #48	; 0x30
     cb4:	39305f30 	ldmdbcc	r0!, {r4, r5, r8, r9, sl, fp, ip, lr}
     cb8:	785f3832 	ldmdavc	pc, {r1, r4, r5, fp, ip, sp}^	; <UNPREDICTABLE>
     cbc:	365f3638 			; <UNDEFINED> instruction: 0x365f3638
     cc0:	78655f34 	stmdavc	r5!, {r2, r4, r5, r8, r9, sl, fp, ip, lr}^
     cc4:	74735c65 	ldrbtvc	r5, [r3], #-3173	; 0xfffff39b
     cc8:	6332336d 	teqvs	r2, #-1275068415	; 0xb4000001
     ccc:	69656275 	stmdbvs	r5!, {r0, r2, r4, r5, r6, r9, sp, lr}^
     cd0:	315f6564 	cmpcc	pc, r4, ror #10
     cd4:	302e342e 	eorcc	r3, lr, lr, lsr #8
     cd8:	6d74735c 	ldclvs	3, cr7, [r4, #-368]!	; 0xfffffe90
     cdc:	75633233 	strbvc	r3, [r3, #-563]!	; 0xfffffdcd
     ce0:	64696562 	strbtvs	r6, [r9], #-1378	; 0xfffffa9e
     ce4:	6c705c65 	ldclvs	12, cr5, [r0], #-404	; 0xfffffe6c
     ce8:	6e696775 	mcrvs	7, 3, r6, cr9, cr5, {3}
     cec:	6f635c73 	svcvs	0x00635c73
     cf0:	74732e6d 	ldrbtvc	r2, [r3], #-3693	; 0xfffff193
     cf4:	6d74732e 	ldclvs	3, cr7, [r4, #-184]!	; 0xffffff48
     cf8:	75633233 	strbvc	r3, [r3, #-563]!	; 0xfffffdcd
     cfc:	692e6562 	stmdbvs	lr!, {r1, r5, r6, r8, sl, sp, lr}
     d00:	6d2e6564 	cfstr32vs	mvfx6, [lr, #-400]!	; 0xfffffe70
     d04:	652e7563 	strvs	r7, [lr, #-1379]!	; 0xfffffa9d
     d08:	72657478 	rsbvc	r7, r5, #120, 8	; 0x78000000
     d0c:	746c616e 	strbtvc	r6, [ip], #-366	; 0xfffffe92
     d10:	736c6f6f 	cmnvc	ip, #444	; 0x1bc
     d14:	756e672e 	strbvc	r6, [lr, #-1838]!	; 0xfffff8d2
     d18:	6f6f742d 	svcvs	0x006f742d
     d1c:	662d736c 	strtvs	r7, [sp], -ip, ror #6
     d20:	732d726f 			; <UNDEFINED> instruction: 0x732d726f
     d24:	32336d74 	eorscc	r6, r3, #116, 26	; 0x1d00
     d28:	2e30312e 	rsfcssp	f3, f0, #0.5
     d2c:	30322d33 	eorscc	r2, r2, r3, lsr sp
     d30:	312e3132 			; <UNDEFINED> instruction: 0x312e3132
     d34:	69772e30 	ldmdbvs	r7!, {r4, r5, r9, sl, fp, sp}^
     d38:	5f32336e 	svcpl	0x0032336e
     d3c:	2e302e31 	mrccs	14, 1, r2, cr0, cr1, {1}
     d40:	2e303032 	mrccs	0, 1, r3, cr0, cr2, {1}
     d44:	33323032 	teqcc	r2, #50	; 0x32
     d48:	36313130 			; <UNDEFINED> instruction: 0x36313130
     d4c:	33303031 	teqcc	r0, #49	; 0x31
     d50:	6f6f745c 	svcvs	0x006f745c
     d54:	615c736c 	cmpvs	ip, ip, ror #6
     d58:	6e2d6d72 	mcrvs	13, 1, r6, cr13, cr2, {3}
     d5c:	2d656e6f 	stclcs	14, cr6, [r5, #-444]!	; 0xfffffe44
     d60:	69626165 	stmdbvs	r2!, {r0, r2, r5, r6, r8, sp, lr}^
     d64:	636e695c 	cmnvs	lr, #92, 18	; 0x170000
     d68:	6564756c 	strbvs	r7, [r4, #-1388]!	; 0xfffffa94
     d6c:	77656e5c 			; <UNDEFINED> instruction: 0x77656e5c
     d70:	2d62696c 			; <UNDEFINED> instruction: 0x2d62696c
     d74:	6f6e616e 	svcvs	0x006e616e
     d78:	5c3a6700 	ldcpl	7, cr6, [sl], #-0
     d7c:	732e6e65 			; <UNDEFINED> instruction: 0x732e6e65
     d80:	74732d74 	ldrbtvc	r2, [r3], #-3444	; 0xfffff28c
     d84:	6332336d 	teqvs	r2, #-1275068415	; 0xb4000001
     d88:	69656275 	stmdbvs	r5!, {r0, r2, r4, r5, r6, r9, sp, lr}^
     d8c:	315f6564 	cmpcc	pc, r4, ror #10
     d90:	302e342e 	eorcc	r3, lr, lr, lsr #8
     d94:	3135375f 	teqcc	r5, pc, asr r7
     d98:	30325f31 	eorscc	r5, r2, r1, lsr pc
     d9c:	37303032 			; <UNDEFINED> instruction: 0x37303032
     da0:	305f3032 	subscc	r3, pc, r2, lsr r0	; <UNPREDICTABLE>
     da4:	5f383239 	svcpl	0x00383239
     da8:	5f363878 	svcpl	0x00363878
     dac:	655f3436 	ldrbvs	r3, [pc, #-1078]	; 97e <_Min_Stack_Size+0x57e>
     db0:	735c6578 	cmpvc	ip, #120, 10	; 0x1e000000
     db4:	32336d74 	eorscc	r6, r3, #116, 26	; 0x1d00
     db8:	65627563 	strbvs	r7, [r2, #-1379]!	; 0xfffffa9d
     dbc:	5f656469 	svcpl	0x00656469
     dc0:	2e342e31 	mrccs	14, 1, r2, cr4, cr1, {1}
     dc4:	74735c30 	ldrbtvc	r5, [r3], #-3120	; 0xfffff3d0
     dc8:	6332336d 	teqvs	r2, #-1275068415	; 0xb4000001
     dcc:	69656275 	stmdbvs	r5!, {r0, r2, r4, r5, r6, r9, sp, lr}^
     dd0:	705c6564 	subsvc	r6, ip, r4, ror #10
     dd4:	6967756c 	stmdbvs	r7!, {r2, r3, r5, r6, r8, sl, ip, sp, lr}^
     dd8:	635c736e 	cmpvs	ip, #-1207959551	; 0xb8000001
     ddc:	732e6d6f 			; <UNDEFINED> instruction: 0x732e6d6f
     de0:	74732e74 	ldrbtvc	r2, [r3], #-3700	; 0xfffff18c
     de4:	6332336d 	teqvs	r2, #-1275068415	; 0xb4000001
     de8:	2e656275 	mcrcs	2, 3, r6, cr5, cr5, {3}
     dec:	2e656469 	cdpcs	4, 6, cr6, cr5, cr9, {3}
     df0:	2e75636d 	cdpcs	3, 7, cr6, cr5, cr13, {3}
     df4:	65747865 	ldrbvs	r7, [r4, #-2149]!	; 0xfffff79b
     df8:	6c616e72 	stclvs	14, cr6, [r1], #-456	; 0xfffffe38
     dfc:	6c6f6f74 	stclvs	15, cr6, [pc], #-464	; c34 <_Min_Stack_Size+0x834>
     e00:	6e672e73 	mcrvs	14, 3, r2, cr7, cr3, {3}
     e04:	6f742d75 	svcvs	0x00742d75
     e08:	2d736c6f 	ldclcs	12, cr6, [r3, #-444]!	; 0xfffffe44
     e0c:	2d726f66 	ldclcs	15, cr6, [r2, #-408]!	; 0xfffffe68
     e10:	336d7473 	cmncc	sp, #1929379840	; 0x73000000
     e14:	30312e32 	eorscc	r2, r1, r2, lsr lr
     e18:	322d332e 	eorcc	r3, sp, #-1207959552	; 0xb8000000
     e1c:	2e313230 	mrccs	2, 1, r3, cr1, cr0, {1}
     e20:	772e3031 			; <UNDEFINED> instruction: 0x772e3031
     e24:	32336e69 	eorscc	r6, r3, #1680	; 0x690
     e28:	302e315f 	eorcc	r3, lr, pc, asr r1
     e2c:	3030322e 	eorscc	r3, r0, lr, lsr #4
     e30:	3230322e 	eorscc	r3, r0, #-536870910	; 0xe0000002
     e34:	31313033 	teqcc	r1, r3, lsr r0
     e38:	30303136 	eorscc	r3, r0, r6, lsr r1
     e3c:	6f745c33 	svcvs	0x00745c33
     e40:	5c736c6f 	ldclpl	12, cr6, [r3], #-444	; 0xfffffe44
     e44:	5c62696c 			; <UNDEFINED> instruction: 0x5c62696c
     e48:	5c636367 	stclpl	3, cr6, [r3], #-412	; 0xfffffe64
     e4c:	2d6d7261 	sfmcs	f7, 2, [sp, #-388]!	; 0xfffffe7c
     e50:	656e6f6e 	strbvs	r6, [lr, #-3950]!	; 0xfffff092
     e54:	6261652d 	rsbvs	r6, r1, #188743680	; 0xb400000
     e58:	30315c69 	eorscc	r5, r1, r9, ror #24
     e5c:	312e332e 			; <UNDEFINED> instruction: 0x312e332e
     e60:	636e695c 	cmnvs	lr, #92, 18	; 0x170000
     e64:	6564756c 	strbvs	r7, [r4, #-1388]!	; 0xfffffa94
     e68:	74730000 	ldrbtvc	r0, [r3], #-0
     e6c:	5f32336d 	svcpl	0x0032336d
     e70:	33303166 	teqcc	r0, #-2147483623	; 0x80000019
     e74:	645f3663 	ldrbvs	r3, [pc], #-1635	; e7c <_Min_Stack_Size+0xa7c>
     e78:	65766972 	ldrbvs	r6, [r6, #-2418]!	; 0xfffff68e
     e7c:	455f7372 	ldrbmi	r7, [pc, #-882]	; b12 <_Min_Stack_Size+0x712>
     e80:	2e495458 	mcrcs	4, 2, r5, cr9, cr8, {2}
     e84:	00010063 	andeq	r0, r1, r3, rrx
     e88:	65645f00 	strbvs	r5, [r4, #-3840]!	; 0xfffff100
     e8c:	6c756166 	ldfvse	f6, [r5], #-408	; 0xfffffe68
     e90:	79745f74 	ldmdbvc	r4!, {r2, r4, r5, r6, r8, r9, sl, fp, ip, lr}^
     e94:	2e736570 	mrccs	5, 3, r6, cr3, cr0, {3}
     e98:	00020068 	andeq	r0, r2, r8, rrx
     e9c:	74735f00 	ldrbtvc	r5, [r3], #-3840	; 0xfffff100
     ea0:	746e6964 	strbtvc	r6, [lr], #-2404	; 0xfffff69c
     ea4:	0300682e 	movweq	r6, #2094	; 0x82e
     ea8:	74730000 	ldrbtvc	r0, [r3], #-0
     eac:	5f32336d 	svcpl	0x0032336d
     eb0:	33303166 	teqcc	r0, #-2147483623	; 0x80000019
     eb4:	682e3678 	stmdavs	lr!, {r3, r4, r5, r6, r9, sl, ip, sp}
     eb8:	00000400 	andeq	r0, r0, r0, lsl #8
     ebc:	336d7473 	cmncc	sp, #1929379840	; 0x73000000
     ec0:	31665f32 	cmncc	r6, r2, lsr pc
     ec4:	36633330 			; <UNDEFINED> instruction: 0x36633330
     ec8:	6972645f 	ldmdbvs	r2!, {r0, r1, r2, r3, r4, r6, sl, sp, lr}^
     ecc:	73726576 	cmnvc	r2, #494927872	; 0x1d800000
     ed0:	4950475f 	ldmdbmi	r0, {r0, r1, r2, r3, r4, r6, r8, r9, sl, lr}^
     ed4:	00682e4f 	rsbeq	r2, r8, pc, asr #28
     ed8:	73000004 	movwvc	r0, #4
     edc:	32336d74 	eorscc	r6, r3, #116, 26	; 0x1d00
     ee0:	3031665f 	eorscc	r6, r1, pc, asr r6
     ee4:	5f366333 	svcpl	0x00366333
     ee8:	76697264 	strbtvc	r7, [r9], -r4, ror #4
     eec:	5f737265 	svcpl	0x00737265
     ef0:	49545845 	ldmdbmi	r4, {r0, r2, r6, fp, ip, lr}^
     ef4:	0400682e 	streq	r6, [r0], #-2094	; 0xfffff7d2
     ef8:	74730000 	ldrbtvc	r0, [r3], #-0
     efc:	62696c64 	rsbvs	r6, r9, #100, 24	; 0x6400
     f00:	0500682e 	streq	r6, [r0, #-2094]	; 0xfffff7d2
     f04:	65690000 	strbvs	r0, [r9, #-0]!
     f08:	70666565 	rsbvc	r6, r6, r5, ror #10
     f0c:	0200682e 	andeq	r6, r0, #3014656	; 0x2e0000
     f10:	615f0000 	cmpvs	pc, r0
     f14:	2e69736e 	cdpcs	3, 6, cr7, cr9, cr14, {3}
     f18:	00050068 	andeq	r0, r5, r8, rrx
     f1c:	77656e00 	strbvc	r6, [r5, -r0, lsl #28]!
     f20:	2e62696c 	vnmulcs.f16	s13, s4, s25	; <UNPREDICTABLE>
     f24:	00060068 	andeq	r0, r6, r8, rrx
     f28:	656e5f00 	strbvs	r5, [lr, #-3840]!	; 0xfffff100
     f2c:	62696c77 	rsbvs	r6, r9, #30464	; 0x7700
     f30:	7265765f 	rsbvc	r7, r5, #99614720	; 0x5f00000
     f34:	6e6f6973 			; <UNDEFINED> instruction: 0x6e6f6973
     f38:	0500682e 	streq	r6, [r0, #-2094]	; 0xfffff7d2
     f3c:	6f630000 	svcvs	0x00630000
     f40:	6769666e 	strbvs	r6, [r9, -lr, ror #12]!
     f44:	0300682e 	movweq	r6, #2094	; 0x82e
     f48:	65660000 	strbvs	r0, [r6, #-0]!
     f4c:	72757461 	rsbsvc	r7, r5, #1627389952	; 0x61000000
     f50:	682e7365 	stmdavs	lr!, {r0, r2, r5, r6, r8, r9, ip, sp, lr}
     f54:	00000300 	andeq	r0, r0, r0, lsl #6
     f58:	64647473 	strbtvs	r7, [r4], #-1139	; 0xfffffb8d
     f5c:	682e6665 	stmdavs	lr!, {r0, r2, r5, r6, r9, sl, sp, lr}
     f60:	00000700 	andeq	r0, r0, r0, lsl #14
     f64:	6e656572 	mcrvs	5, 3, r6, cr5, cr2, {3}
     f68:	00682e74 	rsbeq	r2, r8, r4, ror lr
     f6c:	5f000003 	svcpl	0x00000003
     f70:	65707974 	ldrbvs	r7, [r0, #-2420]!	; 0xfffff68c
     f74:	00682e73 	rsbeq	r2, r8, r3, ror lr
     f78:	5f000003 	svcpl	0x00000003
     f7c:	65707974 	ldrbvs	r7, [r0, #-2420]!	; 0xfffff68c
     f80:	00682e73 	rsbeq	r2, r8, r3, ror lr
     f84:	6c000002 	stcvs	0, cr0, [r0], {2}
     f88:	2e6b636f 	cdpcs	3, 6, cr6, cr11, cr15, {3}
     f8c:	00030068 	andeq	r0, r3, r8, rrx
     f90:	73736100 	cmnvc	r3, #0, 2
     f94:	2e747265 	cdpcs	2, 7, cr7, cr4, cr5, {3}
     f98:	00050068 	andeq	r0, r5, r8, rrx
     f9c:	65646300 	strbvs	r6, [r4, #-768]!	; 0xfffffd00
     fa0:	682e7366 	stmdavs	lr!, {r1, r2, r5, r6, r8, r9, ip, sp, lr}
     fa4:	00000300 	andeq	r0, r0, r0, lsl #6
     fa8:	6c647473 	cfstrdvs	mvd7, [r4], #-460	; 0xfffffe34
     fac:	682e6269 	stmdavs	lr!, {r0, r3, r5, r6, r9, sp, lr}
     fb0:	00000200 	andeq	r0, r0, r0, lsl #4
     fb4:	6f6c6c61 	svcvs	0x006c6c61
     fb8:	682e6163 	stmdavs	lr!, {r0, r1, r5, r6, r8, sp, lr}
     fbc:	00000500 	andeq	r0, r0, r0, lsl #10
     fc0:	69647473 	stmdbvs	r4!, {r0, r1, r4, r5, r6, sl, ip, sp, lr}^
     fc4:	682e746e 	stmdavs	lr!, {r1, r2, r3, r5, r6, sl, ip, sp, lr}
     fc8:	00000700 	andeq	r0, r0, r0, lsl #14
     fcc:	69647473 	stmdbvs	r4!, {r0, r1, r4, r5, r6, sl, ip, sp, lr}^
     fd0:	682e746e 	stmdavs	lr!, {r1, r2, r3, r5, r6, sl, ip, sp, lr}
     fd4:	00000500 	andeq	r0, r0, r0, lsl #10
     fd8:	746e695f 	strbtvc	r6, [lr], #-2399	; 0xfffff6a1
     fdc:	2e707573 	mrccs	5, 3, r7, cr0, cr3, {3}
     fe0:	00030068 	andeq	r0, r3, r8, rrx
     fe4:	02050000 	andeq	r0, r5, #0
     fe8:	1c020500 	cfstr32ne	mvfx0, [r2], {-0}
     fec:	03080004 	movweq	r0, #32772	; 0x8004
     ff0:	03050111 	movweq	r0, #20753	; 0x5111
     ff4:	02040559 	andeq	r0, r4, #373293056	; 0x16400000
     ff8:	05671525 	strbeq	r1, [r7, #-1317]!	; 0xfffffadb
     ffc:	22672206 	rsbcs	r2, r7, #1610612736	; 0x60000000
    1000:	05672267 	strbeq	r2, [r7, #-615]!	; 0xfffffd99
    1004:	05672205 	strbeq	r2, [r7, #-517]!	; 0xfffffdfb
    1008:	26672607 	strbtcs	r2, [r7], -r7, lsl #12
    100c:	22020567 	andcs	r0, r2, #432013312	; 0x19c00000
    1010:	01000902 	tsteq	r0, r2, lsl #18
    1014:	00020501 	andeq	r0, r2, r1, lsl #10
    1018:	04e40205 	strbteq	r0, [r4], #517	; 0x205
    101c:	35030800 	strcc	r0, [r3, #-2048]	; 0xfffff800
    1020:	59030501 	stmdbpl	r3, {r0, r8, sl}
    1024:	25020405 	strcs	r0, [r2, #-1029]	; 0xfffffbfb
    1028:	06056715 			; <UNDEFINED> instruction: 0x06056715
    102c:	67226722 	strvs	r6, [r2, -r2, lsr #14]!
    1030:	05056722 	streq	r6, [r5, #-1826]	; 0xfffff8de
    1034:	08056722 	stmdaeq	r5, {r1, r5, r8, r9, sl, sp, lr}
    1038:	06056726 	streq	r6, [r5], -r6, lsr #14
    103c:	67080526 	strvs	r0, [r8, -r6, lsr #10]
    1040:	02220205 	eoreq	r0, r2, #1342177280	; 0x50000000
    1044:	01010009 	tsteq	r1, r9
    1048:	05000105 	streq	r0, [r0, #-261]	; 0xfffffefb
    104c:	0005ac02 	andeq	sl, r5, r2, lsl #24
    1050:	00e50308 	rsceq	r0, r5, r8, lsl #6
    1054:	4f350501 	svcmi	0x00350501
    1058:	052e1b05 	streq	r1, [lr, #-2821]!	; 0xfffff4fb
    105c:	02052116 	andeq	r2, r5, #-2147483643	; 0x80000005
    1060:	8636052f 	ldrthi	r0, [r6], -pc, lsr #10
    1064:	052e0a05 	streq	r0, [lr, #-2565]!	; 0xfffff5fb
    1068:	0a053e3a 	beq	150958 <_Min_Stack_Size+0x150558>
    106c:	6822052e 	stmdavs	r2!, {r1, r2, r3, r5, r8, sl}
    1070:	05582b05 	ldrbeq	r2, [r8, #-2821]	; 0xfffff4fb
    1074:	22054a25 	andcs	r4, r5, #151552	; 0x25000
    1078:	2905682e 	stmdbcs	r5, {r1, r2, r3, r5, fp, sp, lr}
    107c:	2e5f0558 	mrccs	5, 2, r0, cr15, cr8, {2}
    1080:	02002905 	andeq	r2, r0, #81920	; 0x14000
    1084:	053c0104 	ldreq	r0, [ip, #-260]!	; 0xfffffefc
    1088:	0402005f 	streq	r0, [r2], #-95	; 0xffffffa1
    108c:	29052e01 	stmdbcs	r5, {r0, r9, sl, fp, sp}
    1090:	03040200 	movweq	r0, #16896	; 0x4200
    1094:	005f053c 	subseq	r0, pc, ip, lsr r5	; <UNPREDICTABLE>
    1098:	2e030402 	cdpcs	4, 0, cr0, cr3, cr2, {0}
    109c:	02002905 	andeq	r2, r0, #81920	; 0x14000
    10a0:	053c0504 	ldreq	r0, [ip, #-1284]!	; 0xfffffafc
    10a4:	0402005f 	streq	r0, [r2], #-95	; 0xffffffa1
    10a8:	02002e05 	andeq	r2, r0, #5, 28	; 0x50
    10ac:	3c060704 	stccc	7, cr0, [r6], {4}
    10b0:	08040200 	stmdaeq	r4, {r9}
    10b4:	0402002e 	streq	r0, [r2], #-46	; 0xffffffd2
    10b8:	02002e06 	andeq	r2, r0, #6, 28	; 0x60
    10bc:	002e0404 	eoreq	r0, lr, r4, lsl #8
    10c0:	2e020402 	cdpcs	4, 0, cr0, cr2, cr2, {0}
    10c4:	02006605 	andeq	r6, r0, #5242880	; 0x500000
    10c8:	20061004 	andcs	r1, r6, r4
    10cc:	02002205 	andeq	r2, r0, #1342177280	; 0x50000000
    10d0:	053c1004 	ldreq	r1, [ip, #-4]!
    10d4:	0402000d 	streq	r0, [r2], #-13
    10d8:	2c056a10 			; <UNDEFINED> instruction: 0x2c056a10
    10dc:	10040200 	andne	r0, r4, r0, lsl #4
    10e0:	0012052e 	andseq	r0, r2, lr, lsr #10
    10e4:	3c100402 	cfldrscc	mvf0, [r0], {2}
    10e8:	02000f05 	andeq	r0, r0, #5, 30
    10ec:	052e1004 	streq	r1, [lr, #-4]!
    10f0:	0402000d 	streq	r0, [r2], #-13
    10f4:	02002e10 	andeq	r2, r0, #16, 28	; 0x100
    10f8:	053d1004 	ldreq	r1, [sp, #-4]!
    10fc:	0402002c 	streq	r0, [r2], #-44	; 0xffffffd4
    1100:	12052e10 	andne	r2, r5, #16, 28	; 0x100
    1104:	10040200 	andne	r0, r4, r0, lsl #4
    1108:	000f053c 	andeq	r0, pc, ip, lsr r5	; <UNPREDICTABLE>
    110c:	2e100402 	cfmulscs	mvf0, mvf0, mvf2
    1110:	02000d05 	andeq	r0, r0, #320	; 0x140
    1114:	052e1004 	streq	r1, [lr, #-4]!
    1118:	04020013 	streq	r0, [r2], #-19	; 0xffffffed
    111c:	04053e10 	streq	r3, [r5], #-3600	; 0xfffff1f0
    1120:	10040200 	andne	r0, r4, r0, lsl #4
    1124:	300e052e 	andcc	r0, lr, lr, lsr #10
    1128:	052e2d05 	streq	r2, [lr, #-3333]!	; 0xfffff2fb
    112c:	0e053c13 	mcreq	12, 0, r3, cr5, cr3, {0}
    1130:	4b19053c 	blmi	642628 <_Min_Stack_Size+0x642228>
    1134:	052e0a05 	streq	r0, [lr, #-2565]!	; 0xfffff5fb
    1138:	2d05300e 	stccs	0, cr3, [r5, #-56]	; 0xffffffc8
    113c:	3c13052e 	cfldr32cc	mvfx0, [r3], {46}	; 0x2e
    1140:	4d3c0e05 	ldcmi	14, cr0, [ip, #-20]!	; 0xffffffec
    1144:	052e2d05 	streq	r2, [lr, #-3333]!	; 0xfffff2fb
    1148:	0e053c13 	mcreq	12, 0, r3, cr5, cr3, {0}
    114c:	2d053d3c 	stccs	13, cr3, [r5, #-240]	; 0xffffff10
    1150:	3c13052e 	cfldr32cc	mvfx0, [r3], {46}	; 0x2e
    1154:	053c0e05 	ldreq	r0, [ip, #-3589]!	; 0xfffff1fb
    1158:	5105402a 	tstpl	r5, sl, lsr #32
    115c:	2e41053c 	mcrcs	5, 2, r0, cr1, cr12, {1}
    1160:	05411305 	strbeq	r1, [r1, #-773]	; 0xfffffcfb
    1164:	0d052e04 	stceq	14, cr2, [r5, #-16]
    1168:	2e2b0530 	mcrcs	5, 1, r0, cr11, cr0, {1}
    116c:	053c1105 	ldreq	r1, [ip, #-261]!	; 0xfffffefb
    1170:	03053c0d 	movweq	r3, #23565	; 0x5c0d
    1174:	6001053d 	andvs	r0, r1, sp, lsr r5
    1178:	051b0d05 	ldreq	r0, [fp, #-3333]	; 0xfffff2fb
    117c:	12052e2c 	andne	r2, r5, #44, 28	; 0x2c0
    1180:	2e0f053c 	mcrcs	5, 0, r0, cr15, cr12, {1}
    1184:	052e0d05 	streq	r0, [lr, #-3333]!	; 0xfffff2fb
    1188:	01053d03 	tsteq	r5, r3, lsl #26
    118c:	0012025c 	andseq	r0, r2, ip, asr r2
    1190:	01050101 	tsteq	r5, r1, lsl #2
    1194:	00020500 	andeq	r0, r2, r0, lsl #10
    1198:	03000000 	movweq	r0, #0
    119c:	050101a7 	streq	r0, [r1, #-423]	; 0xfffffe59
    11a0:	0c053006 	stceq	0, cr3, [r5], {6}
    11a4:	2f060520 	svccs	0x00060520
    11a8:	05200c05 	streq	r0, [r0, #-3077]!	; 0xfffff3fb
    11ac:	0d052f06 	stceq	15, cr2, [r5, #-24]	; 0xffffffe8
    11b0:	2f060520 	svccs	0x00060520
    11b4:	05200d05 	streq	r0, [r0, #-3333]!	; 0xfffff2fb
    11b8:	0d052f06 	stceq	15, cr2, [r5, #-24]	; 0xffffffe8
    11bc:	32060520 	andcc	r0, r6, #32, 10	; 0x8000000
    11c0:	05200b05 	streq	r0, [r0, #-2821]!	; 0xfffff4fb
    11c4:	67673f02 	strbvs	r3, [r7, -r2, lsl #30]!
    11c8:	67676767 	strbvs	r6, [r7, -r7, ror #14]!
    11cc:	02670105 	rsbeq	r0, r7, #1073741825	; 0x40000001
    11d0:	0101000b 	tsteq	r1, fp
    11d4:	05000105 	streq	r0, [r0, #-261]	; 0xfffffefb
    11d8:	00000002 	andeq	r0, r0, r2
    11dc:	01c90300 	biceq	r0, r9, r0, lsl #6
    11e0:	4b020501 	blmi	825ec <_Min_Stack_Size+0x821ec>
    11e4:	023d0105 	eorseq	r0, sp, #1073741825	; 0x40000001
    11e8:	01010004 	tsteq	r1, r4
    11ec:	05000105 	streq	r0, [r0, #-261]	; 0xfffffefb
    11f0:	00077c02 	andeq	r7, r7, r2, lsl #24
    11f4:	01d80308 	bicseq	r0, r8, r8, lsl #6
    11f8:	4b020501 	blmi	82604 <_Min_Stack_Size+0x82204>
    11fc:	023d0105 	eorseq	r0, sp, #1073741825	; 0x40000001
    1200:	01010004 	tsteq	r1, r4
    1204:	05000105 	streq	r0, [r0, #-261]	; 0xfffffefb
    1208:	00079402 	andeq	r9, r7, r2, lsl #8
    120c:	01e00308 	mvneq	r0, r8, lsl #6
    1210:	2f0b0501 	svccs	0x000b0501
    1214:	05671105 	strbeq	r1, [r7, #-261]!	; 0xfffffefb
    1218:	01052e02 	tsteq	r5, r2, lsl #28
    121c:	00070221 	andeq	r0, r7, r1, lsr #4
    1220:	01050101 	tsteq	r5, r1, lsl #2
    1224:	b8020500 	stmdalt	r2, {r8, sl}
    1228:	03080007 	movweq	r0, #32775	; 0x8007
    122c:	050101e5 	streq	r0, [r1, #-485]	; 0xfffffe1b
    1230:	11052f0b 	tstne	r5, fp, lsl #30
    1234:	2e020567 	cfsh32cs	mvfx0, mvfx2, #55
    1238:	02210105 	eoreq	r0, r1, #1073741825	; 0x40000001
    123c:	01010007 	tsteq	r1, r7
    1240:	05000105 	streq	r0, [r0, #-261]	; 0xfffffefb
    1244:	0007dc02 	andeq	sp, r7, r2, lsl #24
    1248:	01ea0308 	mvneq	r0, r8, lsl #6
    124c:	2f0b0501 	svccs	0x000b0501
    1250:	05671105 	strbeq	r1, [r7, #-261]!	; 0xfffffefb
    1254:	01052e02 	tsteq	r5, r2, lsl #28
    1258:	00070221 	andeq	r0, r7, r1, lsr #4
    125c:	01050101 	tsteq	r5, r1, lsl #2
    1260:	00020500 	andeq	r0, r2, r0, lsl #10
    1264:	03080008 	movweq	r0, #32776	; 0x8008
    1268:	050101ef 	streq	r0, [r1, #-495]	; 0xfffffe11
    126c:	11052f0b 	tstne	r5, fp, lsl #30
    1270:	2e020567 	cfsh32cs	mvfx0, mvfx2, #55
    1274:	02210105 	eoreq	r0, r1, #1073741825	; 0x40000001
    1278:	01010007 	tsteq	r1, r7
    127c:	05000105 	streq	r0, [r0, #-261]	; 0xfffffefb
    1280:	00082402 	andeq	r2, r8, r2, lsl #8
    1284:	01f40308 	mvnseq	r0, r8, lsl #6
    1288:	2f0b0501 	svccs	0x000b0501
    128c:	05671105 	strbeq	r1, [r7, #-261]!	; 0xfffffefb
    1290:	01052e02 	tsteq	r5, r2, lsl #28
    1294:	00070221 	andeq	r0, r7, r1, lsr #4
    1298:	01050101 	tsteq	r5, r1, lsl #2
    129c:	48020500 	stmdami	r2, {r8, sl}
    12a0:	03080008 	movweq	r0, #32776	; 0x8008
    12a4:	050101fa 	streq	r0, [r1, #-506]	; 0xfffffe06
    12a8:	0e052f09 	cdpeq	15, 0, cr2, cr5, cr9, {0}
    12ac:	2e04052e 	cfsh32cs	mvfx0, mvfx4, #30
    12b0:	02002105 	andeq	r2, r0, #1073741825	; 0x40000001
    12b4:	052e0104 	streq	r0, [lr, #-260]!	; 0xfffffefc
    12b8:	0402003c 	streq	r0, [r2], #-60	; 0xffffffc4
    12bc:	2d056601 	stccs	6, cr6, [r5, #-4]
    12c0:	01040200 	mrseq	r0, R12_usr
    12c4:	2109052e 	tstcs	r9, lr, lsr #10
    12c8:	052e0e05 	streq	r0, [lr, #-3589]!	; 0xfffff1fb
    12cc:	21052e04 	tstcs	r5, r4, lsl #28
    12d0:	01040200 	mrseq	r0, R12_usr
    12d4:	003c052e 	eorseq	r0, ip, lr, lsr #10
    12d8:	66010402 	strvs	r0, [r1], -r2, lsl #8
    12dc:	02002d05 	andeq	r2, r0, #320	; 0x140
    12e0:	052e0104 	streq	r0, [lr, #-260]!	; 0xfffffefc
    12e4:	0e052109 	adfeqs	f2, f5, #1.0
    12e8:	2e04052e 	cfsh32cs	mvfx0, mvfx4, #30
    12ec:	02002105 	andeq	r2, r0, #1073741825	; 0x40000001
    12f0:	052e0104 	streq	r0, [lr, #-260]!	; 0xfffffefc
    12f4:	0402003c 	streq	r0, [r2], #-60	; 0xffffffc4
    12f8:	2d056601 	stccs	6, cr6, [r5, #-4]
    12fc:	01040200 	mrseq	r0, R12_usr
    1300:	2109052e 	tstcs	r9, lr, lsr #10
    1304:	052e0e05 	streq	r0, [lr, #-3589]!	; 0xfffff1fb
    1308:	21052e04 	tstcs	r5, r4, lsl #28
    130c:	01040200 	mrseq	r0, R12_usr
    1310:	003c052e 	eorseq	r0, ip, lr, lsr #10
    1314:	66010402 	strvs	r0, [r1], -r2, lsl #8
    1318:	02002d05 	andeq	r2, r0, #320	; 0x140
    131c:	052e0104 	streq	r0, [lr, #-260]!	; 0xfffffefc
    1320:	0e052109 	adfeqs	f2, f5, #1.0
    1324:	2e04052e 	cfsh32cs	mvfx0, mvfx4, #30
    1328:	02002105 	andeq	r2, r0, #1073741825	; 0x40000001
    132c:	052e0104 	streq	r0, [lr, #-260]!	; 0xfffffefc
    1330:	0402003c 	streq	r0, [r2], #-60	; 0xffffffc4
    1334:	2d056601 	stccs	6, cr6, [r5, #-4]
    1338:	01040200 	mrseq	r0, R12_usr
    133c:	2101052e 	tstcs	r1, lr, lsr #10
    1340:	01000702 	tsteq	r0, r2, lsl #14
    1344:	00010501 	andeq	r0, r1, r1, lsl #10
    1348:	08f00205 	ldmeq	r0!, {r0, r2, r9}^
    134c:	82030800 	andhi	r0, r3, #0, 16
    1350:	09050102 	stmdbeq	r5, {r1, r8}
    1354:	2e0e052f 	cfsh32cs	mvfx0, mvfx14, #31
    1358:	052e0405 	streq	r0, [lr, #-1029]!	; 0xfffffbfb
    135c:	04020022 	streq	r0, [r2], #-34	; 0xffffffde
    1360:	3e052e01 	cdpcc	14, 0, cr2, cr5, cr1, {0}
    1364:	01040200 	mrseq	r0, R12_usr
    1368:	002f0566 	eoreq	r0, pc, r6, ror #10
    136c:	2e010402 	cdpcs	4, 0, cr0, cr1, cr2, {0}
    1370:	05210905 	streq	r0, [r1, #-2309]!	; 0xfffff6fb
    1374:	04052e0e 	streq	r2, [r5], #-3598	; 0xfffff1f2
    1378:	0022052e 	eoreq	r0, r2, lr, lsr #10
    137c:	2e010402 	cdpcs	4, 0, cr0, cr1, cr2, {0}
    1380:	02003e05 	andeq	r3, r0, #5, 28	; 0x50
    1384:	05660104 	strbeq	r0, [r6, #-260]!	; 0xfffffefc
    1388:	0402002f 	streq	r0, [r2], #-47	; 0xffffffd1
    138c:	09052e01 	stmdbeq	r5, {r0, r9, sl, fp, sp}
    1390:	2e0e0521 	cfsh32cs	mvfx0, mvfx14, #17
    1394:	052e0405 	streq	r0, [lr, #-1029]!	; 0xfffffbfb
    1398:	04020022 	streq	r0, [r2], #-34	; 0xffffffde
    139c:	3e052e01 	cdpcc	14, 0, cr2, cr5, cr1, {0}
    13a0:	01040200 	mrseq	r0, R12_usr
    13a4:	002f0566 	eoreq	r0, pc, r6, ror #10
    13a8:	2e010402 	cdpcs	4, 0, cr0, cr1, cr2, {0}
    13ac:	05210905 	streq	r0, [r1, #-2309]!	; 0xfffff6fb
    13b0:	04052e0e 	streq	r2, [r5], #-3598	; 0xfffff1f2
    13b4:	0022052e 	eoreq	r0, r2, lr, lsr #10
    13b8:	2e010402 	cdpcs	4, 0, cr0, cr1, cr2, {0}
    13bc:	02003e05 	andeq	r3, r0, #5, 28	; 0x50
    13c0:	05660104 	strbeq	r0, [r6, #-260]!	; 0xfffffefc
    13c4:	0402002f 	streq	r0, [r2], #-47	; 0xffffffd1
    13c8:	09052e01 	stmdbeq	r5, {r0, r9, sl, fp, sp}
    13cc:	2e0e0521 	cfsh32cs	mvfx0, mvfx14, #17
    13d0:	052e0405 	streq	r0, [lr, #-1029]!	; 0xfffffbfb
    13d4:	04020022 	streq	r0, [r2], #-34	; 0xffffffde
    13d8:	3e052e01 	cdpcc	14, 0, cr2, cr5, cr1, {0}
    13dc:	01040200 	mrseq	r0, R12_usr
    13e0:	002f0566 	eoreq	r0, pc, r6, ror #10
    13e4:	2e010402 	cdpcs	4, 0, cr0, cr1, cr2, {0}
    13e8:	05210905 	streq	r0, [r1, #-2309]!	; 0xfffff6fb
    13ec:	04052e0e 	streq	r2, [r5], #-3598	; 0xfffff1f2
    13f0:	0022052e 	eoreq	r0, r2, lr, lsr #10
    13f4:	2e010402 	cdpcs	4, 0, cr0, cr1, cr2, {0}
    13f8:	02003e05 	andeq	r3, r0, #5, 28	; 0x50
    13fc:	05660104 	strbeq	r0, [r6, #-260]!	; 0xfffffefc
    1400:	0402002f 	streq	r0, [r2], #-47	; 0xffffffd1
    1404:	01052e01 	tsteq	r5, r1, lsl #28
    1408:	00060221 	andeq	r0, r6, r1, lsr #4
    140c:	09420101 	stmdbeq	r2, {r0, r8}^
    1410:	00030000 	andeq	r0, r3, r0
    1414:	00000706 	andeq	r0, r0, r6, lsl #14
    1418:	0efb0102 	cdpeq	1, 15, cr0, cr11, cr2, {0}
    141c:	0101000d 	tsteq	r1, sp
    1420:	00000101 	andeq	r0, r0, r1, lsl #2
    1424:	00000100 	andeq	r0, r0, r0, lsl #2
    1428:	2f2e2e01 	svccs	0x002e2e01
    142c:	336d7473 	cmncc	sp, #1929379840	; 0x73000000
    1430:	31665f32 	cmncc	r6, r2, lsr pc
    1434:	36633330 			; <UNDEFINED> instruction: 0x36633330
    1438:	6972645f 	ldmdbvs	r2!, {r0, r1, r2, r3, r4, r6, sl, sp, lr}^
    143c:	73726576 	cmnvc	r2, #494927872	; 0x1d800000
    1440:	5c3a6700 	ldcpl	7, cr6, [sl], #-0
    1444:	732e6e65 			; <UNDEFINED> instruction: 0x732e6e65
    1448:	74732d74 	ldrbtvc	r2, [r3], #-3444	; 0xfffff28c
    144c:	6332336d 	teqvs	r2, #-1275068415	; 0xb4000001
    1450:	69656275 	stmdbvs	r5!, {r0, r2, r4, r5, r6, r9, sp, lr}^
    1454:	315f6564 	cmpcc	pc, r4, ror #10
    1458:	302e342e 	eorcc	r3, lr, lr, lsr #8
    145c:	3135375f 	teqcc	r5, pc, asr r7
    1460:	30325f31 	eorscc	r5, r2, r1, lsr pc
    1464:	37303032 			; <UNDEFINED> instruction: 0x37303032
    1468:	305f3032 	subscc	r3, pc, r2, lsr r0	; <UNPREDICTABLE>
    146c:	5f383239 	svcpl	0x00383239
    1470:	5f363878 	svcpl	0x00363878
    1474:	655f3436 	ldrbvs	r3, [pc, #-1078]	; 1046 <_Min_Stack_Size+0xc46>
    1478:	735c6578 	cmpvc	ip, #120, 10	; 0x1e000000
    147c:	32336d74 	eorscc	r6, r3, #116, 26	; 0x1d00
    1480:	65627563 	strbvs	r7, [r2, #-1379]!	; 0xfffffa9d
    1484:	5f656469 	svcpl	0x00656469
    1488:	2e342e31 	mrccs	14, 1, r2, cr4, cr1, {1}
    148c:	74735c30 	ldrbtvc	r5, [r3], #-3120	; 0xfffff3d0
    1490:	6332336d 	teqvs	r2, #-1275068415	; 0xb4000001
    1494:	69656275 	stmdbvs	r5!, {r0, r2, r4, r5, r6, r9, sp, lr}^
    1498:	705c6564 	subsvc	r6, ip, r4, ror #10
    149c:	6967756c 	stmdbvs	r7!, {r2, r3, r5, r6, r8, sl, ip, sp, lr}^
    14a0:	635c736e 	cmpvs	ip, #-1207959551	; 0xb8000001
    14a4:	732e6d6f 			; <UNDEFINED> instruction: 0x732e6d6f
    14a8:	74732e74 	ldrbtvc	r2, [r3], #-3700	; 0xfffff18c
    14ac:	6332336d 	teqvs	r2, #-1275068415	; 0xb4000001
    14b0:	2e656275 	mcrcs	2, 3, r6, cr5, cr5, {3}
    14b4:	2e656469 	cdpcs	4, 6, cr6, cr5, cr9, {3}
    14b8:	2e75636d 	cdpcs	3, 7, cr6, cr5, cr13, {3}
    14bc:	65747865 	ldrbvs	r7, [r4, #-2149]!	; 0xfffff79b
    14c0:	6c616e72 	stclvs	14, cr6, [r1], #-456	; 0xfffffe38
    14c4:	6c6f6f74 	stclvs	15, cr6, [pc], #-464	; 12fc <_Min_Stack_Size+0xefc>
    14c8:	6e672e73 	mcrvs	14, 3, r2, cr7, cr3, {3}
    14cc:	6f742d75 	svcvs	0x00742d75
    14d0:	2d736c6f 	ldclcs	12, cr6, [r3, #-444]!	; 0xfffffe44
    14d4:	2d726f66 	ldclcs	15, cr6, [r2, #-408]!	; 0xfffffe68
    14d8:	336d7473 	cmncc	sp, #1929379840	; 0x73000000
    14dc:	30312e32 	eorscc	r2, r1, r2, lsr lr
    14e0:	322d332e 	eorcc	r3, sp, #-1207959552	; 0xb8000000
    14e4:	2e313230 	mrccs	2, 1, r3, cr1, cr0, {1}
    14e8:	772e3031 			; <UNDEFINED> instruction: 0x772e3031
    14ec:	32336e69 	eorscc	r6, r3, #1680	; 0x690
    14f0:	302e315f 	eorcc	r3, lr, pc, asr r1
    14f4:	3030322e 	eorscc	r3, r0, lr, lsr #4
    14f8:	3230322e 	eorscc	r3, r0, #-536870910	; 0xe0000002
    14fc:	31313033 	teqcc	r1, r3, lsr r0
    1500:	30303136 	eorscc	r3, r0, r6, lsr r1
    1504:	6f745c33 	svcvs	0x00745c33
    1508:	5c736c6f 	ldclpl	12, cr6, [r3], #-444	; 0xfffffe44
    150c:	5c6e6962 			; <UNDEFINED> instruction: 0x5c6e6962
    1510:	6c2f2e2e 	stcvs	14, cr2, [pc], #-184	; 1460 <_Min_Stack_Size+0x1060>
    1514:	672f6269 	strvs	r6, [pc, -r9, ror #4]!
    1518:	612f6363 			; <UNDEFINED> instruction: 0x612f6363
    151c:	6e2d6d72 	mcrvs	13, 1, r6, cr13, cr2, {3}
    1520:	2d656e6f 	stclcs	14, cr6, [r5, #-444]!	; 0xfffffe44
    1524:	69626165 	stmdbvs	r2!, {r0, r2, r5, r6, r8, sp, lr}^
    1528:	2e30312f 	rsfcssp	f3, f0, #10.0
    152c:	2f312e33 	svccs	0x00312e33
    1530:	2e2f2e2e 	cdpcs	14, 2, cr2, cr15, cr14, {1}
    1534:	2e2e2f2e 	cdpcs	15, 2, cr2, cr14, cr14, {1}
    1538:	2f2e2e2f 	svccs	0x002e2e2f
    153c:	2d6d7261 	sfmcs	f7, 2, [sp, #-388]!	; 0xfffffe7c
    1540:	656e6f6e 	strbvs	r6, [lr, #-3950]!	; 0xfffff092
    1544:	6261652d 	rsbvs	r6, r1, #188743680	; 0xb400000
    1548:	6e692f69 	cdpvs	15, 6, cr2, cr9, cr9, {3}
    154c:	64756c63 	ldrbtvs	r6, [r5], #-3171	; 0xfffff39d
    1550:	616d2f65 	cmnvs	sp, r5, ror #30
    1554:	6e696863 	cdpvs	8, 6, cr6, cr9, cr3, {3}
    1558:	3a670065 	bcc	19c16f4 <_Min_Stack_Size+0x19c12f4>
    155c:	2e6e655c 	mcrcs	5, 3, r6, cr14, cr12, {2}
    1560:	732d7473 			; <UNDEFINED> instruction: 0x732d7473
    1564:	32336d74 	eorscc	r6, r3, #116, 26	; 0x1d00
    1568:	65627563 	strbvs	r7, [r2, #-1379]!	; 0xfffffa9d
    156c:	5f656469 	svcpl	0x00656469
    1570:	2e342e31 	mrccs	14, 1, r2, cr4, cr1, {1}
    1574:	35375f30 	ldrcc	r5, [r7, #-3888]!	; 0xfffff0d0
    1578:	325f3131 	subscc	r3, pc, #1073741836	; 0x4000000c
    157c:	30303230 	eorscc	r3, r0, r0, lsr r2
    1580:	5f303237 	svcpl	0x00303237
    1584:	38323930 	ldmdacc	r2!, {r4, r5, r8, fp, ip, sp}
    1588:	3638785f 			; <UNDEFINED> instruction: 0x3638785f
    158c:	5f34365f 	svcpl	0x0034365f
    1590:	5c657865 	stclpl	8, cr7, [r5], #-404	; 0xfffffe6c
    1594:	336d7473 	cmncc	sp, #1929379840	; 0x73000000
    1598:	62756332 	rsbsvs	r6, r5, #-939524096	; 0xc8000000
    159c:	65646965 	strbvs	r6, [r4, #-2405]!	; 0xfffff69b
    15a0:	342e315f 	strtcc	r3, [lr], #-351	; 0xfffffea1
    15a4:	735c302e 	cmpvc	ip, #46	; 0x2e
    15a8:	32336d74 	eorscc	r6, r3, #116, 26	; 0x1d00
    15ac:	65627563 	strbvs	r7, [r2, #-1379]!	; 0xfffffa9d
    15b0:	5c656469 	cfstrdpl	mvd6, [r5], #-420	; 0xfffffe5c
    15b4:	67756c70 			; <UNDEFINED> instruction: 0x67756c70
    15b8:	5c736e69 	ldclpl	14, cr6, [r3], #-420	; 0xfffffe5c
    15bc:	2e6d6f63 	cdpcs	15, 6, cr6, cr13, cr3, {3}
    15c0:	732e7473 			; <UNDEFINED> instruction: 0x732e7473
    15c4:	32336d74 	eorscc	r6, r3, #116, 26	; 0x1d00
    15c8:	65627563 	strbvs	r7, [r2, #-1379]!	; 0xfffffa9d
    15cc:	6564692e 	strbvs	r6, [r4, #-2350]!	; 0xfffff6d2
    15d0:	75636d2e 	strbvc	r6, [r3, #-3374]!	; 0xfffff2d2
    15d4:	7478652e 	ldrbtvc	r6, [r8], #-1326	; 0xfffffad2
    15d8:	616e7265 	cmnvs	lr, r5, ror #4
    15dc:	6f6f746c 	svcvs	0x006f746c
    15e0:	672e736c 	strvs	r7, [lr, -ip, ror #6]!
    15e4:	742d756e 	strtvc	r7, [sp], #-1390	; 0xfffffa92
    15e8:	736c6f6f 	cmnvc	ip, #444	; 0x1bc
    15ec:	726f662d 	rsbvc	r6, pc, #47185920	; 0x2d00000
    15f0:	6d74732d 	ldclvs	3, cr7, [r4, #-180]!	; 0xffffff4c
    15f4:	312e3233 			; <UNDEFINED> instruction: 0x312e3233
    15f8:	2d332e30 	ldccs	14, cr2, [r3, #-192]!	; 0xffffff40
    15fc:	31323032 	teqcc	r2, r2, lsr r0
    1600:	2e30312e 	rsfcssp	f3, f0, #0.5
    1604:	336e6977 	cmncc	lr, #1949696	; 0x1dc000
    1608:	2e315f32 	mrccs	15, 1, r5, cr1, cr2, {1}
    160c:	30322e30 	eorscc	r2, r2, r0, lsr lr
    1610:	30322e30 	eorscc	r2, r2, r0, lsr lr
    1614:	31303332 	teqcc	r0, r2, lsr r3
    1618:	30313631 	eorscc	r3, r1, r1, lsr r6
    161c:	745c3330 	ldrbvc	r3, [ip], #-816	; 0xfffffcd0
    1620:	736c6f6f 	cmnvc	ip, #444	; 0x1bc
    1624:	6e69625c 	mcrvs	2, 3, r6, cr9, cr12, {2}
    1628:	2f2e2e5c 	svccs	0x002e2e5c
    162c:	2f62696c 	svccs	0x0062696c
    1630:	2f636367 	svccs	0x00636367
    1634:	2d6d7261 	sfmcs	f7, 2, [sp, #-388]!	; 0xfffffe7c
    1638:	656e6f6e 	strbvs	r6, [lr, #-3950]!	; 0xfffff092
    163c:	6261652d 	rsbvs	r6, r1, #188743680	; 0xb400000
    1640:	30312f69 	eorscc	r2, r1, r9, ror #30
    1644:	312e332e 			; <UNDEFINED> instruction: 0x312e332e
    1648:	2f2e2e2f 	svccs	0x002e2e2f
    164c:	2e2f2e2e 	cdpcs	14, 2, cr2, cr15, cr14, {1}
    1650:	2e2e2f2e 	cdpcs	15, 2, cr2, cr14, cr14, {1}
    1654:	6d72612f 	ldfvse	f6, [r2, #-188]!	; 0xffffff44
    1658:	6e6f6e2d 	cdpvs	14, 6, cr6, cr15, cr13, {1}
    165c:	61652d65 	cmnvs	r5, r5, ror #26
    1660:	692f6962 	stmdbvs	pc!, {r1, r5, r6, r8, fp, sp, lr}	; <UNPREDICTABLE>
    1664:	756c636e 	strbvc	r6, [ip, #-878]!	; 0xfffffc92
    1668:	732f6564 			; <UNDEFINED> instruction: 0x732f6564
    166c:	44007379 	strmi	r7, [r0], #-889	; 0xfffffc87
    1670:	72442f3a 	subvc	r2, r4, #58, 30	; 0xe8
    1674:	72657669 	rsbvc	r7, r5, #110100480	; 0x6900000
    1678:	74732f73 	ldrbtvc	r2, [r3], #-3955	; 0xfffff08d
    167c:	5f32336d 	svcpl	0x0032336d
    1680:	33303166 	teqcc	r0, #-2147483623	; 0x80000019
    1684:	645f3663 	ldrbvs	r3, [pc], #-1635	; 168c <_Min_Stack_Size+0x128c>
    1688:	65766972 	ldrbvs	r6, [r6, #-2418]!	; 0xfffff68e
    168c:	492f7372 	stmdbmi	pc!, {r1, r4, r5, r6, r8, r9, ip, sp, lr}	; <UNPREDICTABLE>
    1690:	6700636e 	strvs	r6, [r0, -lr, ror #6]
    1694:	6e655c3a 	mcrvs	12, 3, r5, cr5, cr10, {1}
    1698:	2d74732e 	ldclcs	3, cr7, [r4, #-184]!	; 0xffffff48
    169c:	336d7473 	cmncc	sp, #1929379840	; 0x73000000
    16a0:	62756332 	rsbsvs	r6, r5, #-939524096	; 0xc8000000
    16a4:	65646965 	strbvs	r6, [r4, #-2405]!	; 0xfffff69b
    16a8:	342e315f 	strtcc	r3, [lr], #-351	; 0xfffffea1
    16ac:	375f302e 	ldrbcc	r3, [pc, -lr, lsr #32]
    16b0:	5f313135 	svcpl	0x00313135
    16b4:	30323032 	eorscc	r3, r2, r2, lsr r0
    16b8:	30323730 	eorscc	r3, r2, r0, lsr r7
    16bc:	3239305f 	eorscc	r3, r9, #95	; 0x5f
    16c0:	38785f38 	ldmdacc	r8!, {r3, r4, r5, r8, r9, sl, fp, ip, lr}^
    16c4:	34365f36 	ldrtcc	r5, [r6], #-3894	; 0xfffff0ca
    16c8:	6578655f 	ldrbvs	r6, [r8, #-1375]!	; 0xfffffaa1
    16cc:	6d74735c 	ldclvs	3, cr7, [r4, #-368]!	; 0xfffffe90
    16d0:	75633233 	strbvc	r3, [r3, #-563]!	; 0xfffffdcd
    16d4:	64696562 	strbtvs	r6, [r9], #-1378	; 0xfffffa9e
    16d8:	2e315f65 	cdpcs	15, 3, cr5, cr1, cr5, {3}
    16dc:	5c302e34 	ldcpl	14, cr2, [r0], #-208	; 0xffffff30
    16e0:	336d7473 	cmncc	sp, #1929379840	; 0x73000000
    16e4:	62756332 	rsbsvs	r6, r5, #-939524096	; 0xc8000000
    16e8:	65646965 	strbvs	r6, [r4, #-2405]!	; 0xfffff69b
    16ec:	756c705c 	strbvc	r7, [ip, #-92]!	; 0xffffffa4
    16f0:	736e6967 	cmnvc	lr, #1687552	; 0x19c000
    16f4:	6d6f635c 	stclvs	3, cr6, [pc, #-368]!	; 158c <_Min_Stack_Size+0x118c>
    16f8:	2e74732e 	cdpcs	3, 7, cr7, cr4, cr14, {1}
    16fc:	336d7473 	cmncc	sp, #1929379840	; 0x73000000
    1700:	62756332 	rsbsvs	r6, r5, #-939524096	; 0xc8000000
    1704:	64692e65 	strbtvs	r2, [r9], #-3685	; 0xfffff19b
    1708:	636d2e65 	cmnvs	sp, #1616	; 0x650
    170c:	78652e75 	stmdavc	r5!, {r0, r2, r4, r5, r6, r9, sl, fp, sp}^
    1710:	6e726574 	mrcvs	5, 3, r6, cr2, cr4, {3}
    1714:	6f746c61 	svcvs	0x00746c61
    1718:	2e736c6f 	cdpcs	12, 7, cr6, cr3, cr15, {3}
    171c:	2d756e67 	ldclcs	14, cr6, [r5, #-412]!	; 0xfffffe64
    1720:	6c6f6f74 	stclvs	15, cr6, [pc], #-464	; 1558 <_Min_Stack_Size+0x1158>
    1724:	6f662d73 	svcvs	0x00662d73
    1728:	74732d72 	ldrbtvc	r2, [r3], #-3442	; 0xfffff28e
    172c:	2e32336d 	cdpcs	3, 3, cr3, cr2, cr13, {3}
    1730:	332e3031 			; <UNDEFINED> instruction: 0x332e3031
    1734:	3230322d 	eorscc	r3, r0, #-805306366	; 0xd0000002
    1738:	30312e31 	eorscc	r2, r1, r1, lsr lr
    173c:	6e69772e 	cdpvs	7, 6, cr7, cr9, cr14, {1}
    1740:	315f3233 	cmpcc	pc, r3, lsr r2	; <UNPREDICTABLE>
    1744:	322e302e 	eorcc	r3, lr, #46	; 0x2e
    1748:	322e3030 	eorcc	r3, lr, #48	; 0x30
    174c:	30333230 	eorscc	r3, r3, r0, lsr r2
    1750:	31363131 	teqcc	r6, r1, lsr r1
    1754:	5c333030 	ldcpl	0, cr3, [r3], #-192	; 0xffffff40
    1758:	6c6f6f74 	stclvs	15, cr6, [pc], #-464	; 1590 <_Min_Stack_Size+0x1190>
    175c:	69625c73 	stmdbvs	r2!, {r0, r1, r4, r5, r6, sl, fp, ip, lr}^
    1760:	2e2e5c6e 	cdpcs	12, 2, cr5, cr14, cr14, {3}
    1764:	62696c2f 	rsbvs	r6, r9, #12032	; 0x2f00
    1768:	6363672f 	cmnvs	r3, #12320768	; 0xbc0000
    176c:	6d72612f 	ldfvse	f6, [r2, #-188]!	; 0xffffff44
    1770:	6e6f6e2d 	cdpvs	14, 6, cr6, cr15, cr13, {1}
    1774:	61652d65 	cmnvs	r5, r5, ror #26
    1778:	312f6962 			; <UNDEFINED> instruction: 0x312f6962
    177c:	2e332e30 	mrccs	14, 1, r2, cr3, cr0, {1}
    1780:	2e2e2f31 	mcrcs	15, 1, r2, cr14, cr1, {1}
    1784:	2f2e2e2f 	svccs	0x002e2e2f
    1788:	2e2f2e2e 	cdpcs	14, 2, cr2, cr15, cr14, {1}
    178c:	72612f2e 	rsbvc	r2, r1, #46, 30	; 0xb8
    1790:	6f6e2d6d 	svcvs	0x006e2d6d
    1794:	652d656e 	strvs	r6, [sp, #-1390]!	; 0xfffffa92
    1798:	2f696261 	svccs	0x00696261
    179c:	6c636e69 	stclvs	14, cr6, [r3], #-420	; 0xfffffe5c
    17a0:	00656475 	rsbeq	r6, r5, r5, ror r4
    17a4:	655c3a67 	ldrbvs	r3, [ip, #-2663]	; 0xfffff599
    17a8:	74732e6e 	ldrbtvc	r2, [r3], #-3694	; 0xfffff192
    17ac:	6d74732d 	ldclvs	3, cr7, [r4, #-180]!	; 0xffffff4c
    17b0:	75633233 	strbvc	r3, [r3, #-563]!	; 0xfffffdcd
    17b4:	64696562 	strbtvs	r6, [r9], #-1378	; 0xfffffa9e
    17b8:	2e315f65 	cdpcs	15, 3, cr5, cr1, cr5, {3}
    17bc:	5f302e34 	svcpl	0x00302e34
    17c0:	31313537 	teqcc	r1, r7, lsr r5
    17c4:	3230325f 	eorscc	r3, r0, #-268435451	; 0xf0000005
    17c8:	32373030 	eorscc	r3, r7, #48	; 0x30
    17cc:	39305f30 	ldmdbcc	r0!, {r4, r5, r8, r9, sl, fp, ip, lr}
    17d0:	785f3832 	ldmdavc	pc, {r1, r4, r5, fp, ip, sp}^	; <UNPREDICTABLE>
    17d4:	365f3638 			; <UNDEFINED> instruction: 0x365f3638
    17d8:	78655f34 	stmdavc	r5!, {r2, r4, r5, r8, r9, sl, fp, ip, lr}^
    17dc:	74735c65 	ldrbtvc	r5, [r3], #-3173	; 0xfffff39b
    17e0:	6332336d 	teqvs	r2, #-1275068415	; 0xb4000001
    17e4:	69656275 	stmdbvs	r5!, {r0, r2, r4, r5, r6, r9, sp, lr}^
    17e8:	315f6564 	cmpcc	pc, r4, ror #10
    17ec:	302e342e 	eorcc	r3, lr, lr, lsr #8
    17f0:	6d74735c 	ldclvs	3, cr7, [r4, #-368]!	; 0xfffffe90
    17f4:	75633233 	strbvc	r3, [r3, #-563]!	; 0xfffffdcd
    17f8:	64696562 	strbtvs	r6, [r9], #-1378	; 0xfffffa9e
    17fc:	6c705c65 	ldclvs	12, cr5, [r0], #-404	; 0xfffffe6c
    1800:	6e696775 	mcrvs	7, 3, r6, cr9, cr5, {3}
    1804:	6f635c73 	svcvs	0x00635c73
    1808:	74732e6d 	ldrbtvc	r2, [r3], #-3693	; 0xfffff193
    180c:	6d74732e 	ldclvs	3, cr7, [r4, #-184]!	; 0xffffff48
    1810:	75633233 	strbvc	r3, [r3, #-563]!	; 0xfffffdcd
    1814:	692e6562 	stmdbvs	lr!, {r1, r5, r6, r8, sl, sp, lr}
    1818:	6d2e6564 	cfstr32vs	mvfx6, [lr, #-400]!	; 0xfffffe70
    181c:	652e7563 	strvs	r7, [lr, #-1379]!	; 0xfffffa9d
    1820:	72657478 	rsbvc	r7, r5, #120, 8	; 0x78000000
    1824:	746c616e 	strbtvc	r6, [ip], #-366	; 0xfffffe92
    1828:	736c6f6f 	cmnvc	ip, #444	; 0x1bc
    182c:	756e672e 	strbvc	r6, [lr, #-1838]!	; 0xfffff8d2
    1830:	6f6f742d 	svcvs	0x006f742d
    1834:	662d736c 	strtvs	r7, [sp], -ip, ror #6
    1838:	732d726f 			; <UNDEFINED> instruction: 0x732d726f
    183c:	32336d74 	eorscc	r6, r3, #116, 26	; 0x1d00
    1840:	2e30312e 	rsfcssp	f3, f0, #0.5
    1844:	30322d33 	eorscc	r2, r2, r3, lsr sp
    1848:	312e3132 			; <UNDEFINED> instruction: 0x312e3132
    184c:	69772e30 	ldmdbvs	r7!, {r4, r5, r9, sl, fp, sp}^
    1850:	5f32336e 	svcpl	0x0032336e
    1854:	2e302e31 	mrccs	14, 1, r2, cr0, cr1, {1}
    1858:	2e303032 	mrccs	0, 1, r3, cr0, cr2, {1}
    185c:	33323032 	teqcc	r2, #50	; 0x32
    1860:	36313130 			; <UNDEFINED> instruction: 0x36313130
    1864:	33303031 	teqcc	r0, #49	; 0x31
    1868:	6f6f745c 	svcvs	0x006f745c
    186c:	615c736c 	cmpvs	ip, ip, ror #6
    1870:	6e2d6d72 	mcrvs	13, 1, r6, cr13, cr2, {3}
    1874:	2d656e6f 	stclcs	14, cr6, [r5, #-444]!	; 0xfffffe44
    1878:	69626165 	stmdbvs	r2!, {r0, r2, r5, r6, r8, sp, lr}^
    187c:	636e695c 	cmnvs	lr, #92, 18	; 0x170000
    1880:	6564756c 	strbvs	r7, [r4, #-1388]!	; 0xfffffa94
    1884:	77656e5c 			; <UNDEFINED> instruction: 0x77656e5c
    1888:	2d62696c 			; <UNDEFINED> instruction: 0x2d62696c
    188c:	6f6e616e 	svcvs	0x006e616e
    1890:	5c3a6700 	ldcpl	7, cr6, [sl], #-0
    1894:	732e6e65 			; <UNDEFINED> instruction: 0x732e6e65
    1898:	74732d74 	ldrbtvc	r2, [r3], #-3444	; 0xfffff28c
    189c:	6332336d 	teqvs	r2, #-1275068415	; 0xb4000001
    18a0:	69656275 	stmdbvs	r5!, {r0, r2, r4, r5, r6, r9, sp, lr}^
    18a4:	315f6564 	cmpcc	pc, r4, ror #10
    18a8:	302e342e 	eorcc	r3, lr, lr, lsr #8
    18ac:	3135375f 	teqcc	r5, pc, asr r7
    18b0:	30325f31 	eorscc	r5, r2, r1, lsr pc
    18b4:	37303032 			; <UNDEFINED> instruction: 0x37303032
    18b8:	305f3032 	subscc	r3, pc, r2, lsr r0	; <UNPREDICTABLE>
    18bc:	5f383239 	svcpl	0x00383239
    18c0:	5f363878 	svcpl	0x00363878
    18c4:	655f3436 	ldrbvs	r3, [pc, #-1078]	; 1496 <_Min_Stack_Size+0x1096>
    18c8:	735c6578 	cmpvc	ip, #120, 10	; 0x1e000000
    18cc:	32336d74 	eorscc	r6, r3, #116, 26	; 0x1d00
    18d0:	65627563 	strbvs	r7, [r2, #-1379]!	; 0xfffffa9d
    18d4:	5f656469 	svcpl	0x00656469
    18d8:	2e342e31 	mrccs	14, 1, r2, cr4, cr1, {1}
    18dc:	74735c30 	ldrbtvc	r5, [r3], #-3120	; 0xfffff3d0
    18e0:	6332336d 	teqvs	r2, #-1275068415	; 0xb4000001
    18e4:	69656275 	stmdbvs	r5!, {r0, r2, r4, r5, r6, r9, sp, lr}^
    18e8:	705c6564 	subsvc	r6, ip, r4, ror #10
    18ec:	6967756c 	stmdbvs	r7!, {r2, r3, r5, r6, r8, sl, ip, sp, lr}^
    18f0:	635c736e 	cmpvs	ip, #-1207959551	; 0xb8000001
    18f4:	732e6d6f 			; <UNDEFINED> instruction: 0x732e6d6f
    18f8:	74732e74 	ldrbtvc	r2, [r3], #-3700	; 0xfffff18c
    18fc:	6332336d 	teqvs	r2, #-1275068415	; 0xb4000001
    1900:	2e656275 	mcrcs	2, 3, r6, cr5, cr5, {3}
    1904:	2e656469 	cdpcs	4, 6, cr6, cr5, cr9, {3}
    1908:	2e75636d 	cdpcs	3, 7, cr6, cr5, cr13, {3}
    190c:	65747865 	ldrbvs	r7, [r4, #-2149]!	; 0xfffff79b
    1910:	6c616e72 	stclvs	14, cr6, [r1], #-456	; 0xfffffe38
    1914:	6c6f6f74 	stclvs	15, cr6, [pc], #-464	; 174c <_Min_Stack_Size+0x134c>
    1918:	6e672e73 	mcrvs	14, 3, r2, cr7, cr3, {3}
    191c:	6f742d75 	svcvs	0x00742d75
    1920:	2d736c6f 	ldclcs	12, cr6, [r3, #-444]!	; 0xfffffe44
    1924:	2d726f66 	ldclcs	15, cr6, [r2, #-408]!	; 0xfffffe68
    1928:	336d7473 	cmncc	sp, #1929379840	; 0x73000000
    192c:	30312e32 	eorscc	r2, r1, r2, lsr lr
    1930:	322d332e 	eorcc	r3, sp, #-1207959552	; 0xb8000000
    1934:	2e313230 	mrccs	2, 1, r3, cr1, cr0, {1}
    1938:	772e3031 			; <UNDEFINED> instruction: 0x772e3031
    193c:	32336e69 	eorscc	r6, r3, #1680	; 0x690
    1940:	302e315f 	eorcc	r3, lr, pc, asr r1
    1944:	3030322e 	eorscc	r3, r0, lr, lsr #4
    1948:	3230322e 	eorscc	r3, r0, #-536870910	; 0xe0000002
    194c:	31313033 	teqcc	r1, r3, lsr r0
    1950:	30303136 	eorscc	r3, r0, r6, lsr r1
    1954:	6f745c33 	svcvs	0x00745c33
    1958:	5c736c6f 	ldclpl	12, cr6, [r3], #-444	; 0xfffffe44
    195c:	5c62696c 			; <UNDEFINED> instruction: 0x5c62696c
    1960:	5c636367 	stclpl	3, cr6, [r3], #-412	; 0xfffffe64
    1964:	2d6d7261 	sfmcs	f7, 2, [sp, #-388]!	; 0xfffffe7c
    1968:	656e6f6e 	strbvs	r6, [lr, #-3950]!	; 0xfffff092
    196c:	6261652d 	rsbvs	r6, r1, #188743680	; 0xb400000
    1970:	30315c69 	eorscc	r5, r1, r9, ror #24
    1974:	312e332e 			; <UNDEFINED> instruction: 0x312e332e
    1978:	636e695c 	cmnvs	lr, #92, 18	; 0x170000
    197c:	6564756c 	strbvs	r7, [r4, #-1388]!	; 0xfffffa94
    1980:	74730000 	ldrbtvc	r0, [r3], #-0
    1984:	5f32336d 	svcpl	0x0032336d
    1988:	33303166 	teqcc	r0, #-2147483623	; 0x80000019
    198c:	645f3663 	ldrbvs	r3, [pc], #-1635	; 1994 <_Min_Stack_Size+0x1594>
    1990:	65766972 	ldrbvs	r6, [r6, #-2418]!	; 0xfffff68e
    1994:	555f7372 	ldrbpl	r7, [pc, #-882]	; 162a <_Min_Stack_Size+0x122a>
    1998:	54524153 	ldrbpl	r4, [r2], #-339	; 0xfffffead
    199c:	0100632e 	tsteq	r0, lr, lsr #6
    19a0:	645f0000 	ldrbvs	r0, [pc], #-0	; 19a8 <_Min_Stack_Size+0x15a8>
    19a4:	75616665 	strbvc	r6, [r1, #-1637]!	; 0xfffff99b
    19a8:	745f746c 	ldrbvc	r7, [pc], #-1132	; 19b0 <_Min_Stack_Size+0x15b0>
    19ac:	73657079 	cmnvc	r5, #121	; 0x79
    19b0:	0200682e 	andeq	r6, r0, #3014656	; 0x2e0000
    19b4:	735f0000 	cmpvc	pc, #0
    19b8:	6e696474 	mcrvs	4, 3, r6, cr9, cr4, {3}
    19bc:	00682e74 	rsbeq	r2, r8, r4, ror lr
    19c0:	73000003 	movwvc	r0, #3
    19c4:	32336d74 	eorscc	r6, r3, #116, 26	; 0x1d00
    19c8:	3031665f 	eorscc	r6, r1, pc, asr r6
    19cc:	2e367833 	mrccs	8, 1, r7, cr6, cr3, {1}
    19d0:	00040068 	andeq	r0, r4, r8, rrx
    19d4:	6d747300 	ldclvs	3, cr7, [r4, #-0]
    19d8:	665f3233 			; <UNDEFINED> instruction: 0x665f3233
    19dc:	63333031 	teqvs	r3, #49	; 0x31
    19e0:	72645f36 	rsbvc	r5, r4, #54, 30	; 0xd8
    19e4:	72657669 	rsbvc	r7, r5, #110100480	; 0x6900000
    19e8:	50475f73 	subpl	r5, r7, r3, ror pc
    19ec:	682e4f49 	stmdavs	lr!, {r0, r3, r6, r8, r9, sl, fp, lr}
    19f0:	00000400 	andeq	r0, r0, r0, lsl #8
    19f4:	336d7473 	cmncc	sp, #1929379840	; 0x73000000
    19f8:	31665f32 	cmncc	r6, r2, lsr pc
    19fc:	36633330 			; <UNDEFINED> instruction: 0x36633330
    1a00:	6972645f 	ldmdbvs	r2!, {r0, r1, r2, r3, r4, r6, sl, sp, lr}^
    1a04:	73726576 	cmnvc	r2, #494927872	; 0x1d800000
    1a08:	4153555f 	cmpmi	r3, pc, asr r5
    1a0c:	682e5452 	stmdavs	lr!, {r1, r4, r6, sl, ip, lr}
    1a10:	00000400 	andeq	r0, r0, r0, lsl #8
    1a14:	336d7473 	cmncc	sp, #1929379840	; 0x73000000
    1a18:	31665f32 	cmncc	r6, r2, lsr pc
    1a1c:	36633330 			; <UNDEFINED> instruction: 0x36633330
    1a20:	6972645f 	ldmdbvs	r2!, {r0, r1, r2, r3, r4, r6, sl, sp, lr}^
    1a24:	73726576 	cmnvc	r2, #494927872	; 0x1d800000
    1a28:	4343525f 	movtmi	r5, #12895	; 0x325f
    1a2c:	0400682e 	streq	r6, [r0], #-2094	; 0xfffff7d2
    1a30:	74730000 	ldrbtvc	r0, [r3], #-0
    1a34:	62696c64 	rsbvs	r6, r9, #100, 24	; 0x6400
    1a38:	0500682e 	streq	r6, [r0, #-2094]	; 0xfffff7d2
    1a3c:	65690000 	strbvs	r0, [r9, #-0]!
    1a40:	70666565 	rsbvc	r6, r6, r5, ror #10
    1a44:	0200682e 	andeq	r6, r0, #3014656	; 0x2e0000
    1a48:	615f0000 	cmpvs	pc, r0
    1a4c:	2e69736e 	cdpcs	3, 6, cr7, cr9, cr14, {3}
    1a50:	00050068 	andeq	r0, r5, r8, rrx
    1a54:	77656e00 	strbvc	r6, [r5, -r0, lsl #28]!
    1a58:	2e62696c 	vnmulcs.f16	s13, s4, s25	; <UNPREDICTABLE>
    1a5c:	00060068 	andeq	r0, r6, r8, rrx
    1a60:	656e5f00 	strbvs	r5, [lr, #-3840]!	; 0xfffff100
    1a64:	62696c77 	rsbvs	r6, r9, #30464	; 0x7700
    1a68:	7265765f 	rsbvc	r7, r5, #99614720	; 0x5f00000
    1a6c:	6e6f6973 			; <UNDEFINED> instruction: 0x6e6f6973
    1a70:	0500682e 	streq	r6, [r0, #-2094]	; 0xfffff7d2
    1a74:	6f630000 	svcvs	0x00630000
    1a78:	6769666e 	strbvs	r6, [r9, -lr, ror #12]!
    1a7c:	0300682e 	movweq	r6, #2094	; 0x82e
    1a80:	65660000 	strbvs	r0, [r6, #-0]!
    1a84:	72757461 	rsbsvc	r7, r5, #1627389952	; 0x61000000
    1a88:	682e7365 	stmdavs	lr!, {r0, r2, r5, r6, r8, r9, ip, sp, lr}
    1a8c:	00000300 	andeq	r0, r0, r0, lsl #6
    1a90:	64647473 	strbtvs	r7, [r4], #-1139	; 0xfffffb8d
    1a94:	682e6665 	stmdavs	lr!, {r0, r2, r5, r6, r9, sl, sp, lr}
    1a98:	00000700 	andeq	r0, r0, r0, lsl #14
    1a9c:	6e656572 	mcrvs	5, 3, r6, cr5, cr2, {3}
    1aa0:	00682e74 	rsbeq	r2, r8, r4, ror lr
    1aa4:	5f000003 	svcpl	0x00000003
    1aa8:	65707974 	ldrbvs	r7, [r0, #-2420]!	; 0xfffff68c
    1aac:	00682e73 	rsbeq	r2, r8, r3, ror lr
    1ab0:	5f000003 	svcpl	0x00000003
    1ab4:	65707974 	ldrbvs	r7, [r0, #-2420]!	; 0xfffff68c
    1ab8:	00682e73 	rsbeq	r2, r8, r3, ror lr
    1abc:	6c000002 	stcvs	0, cr0, [r0], {2}
    1ac0:	2e6b636f 	cdpcs	3, 6, cr6, cr11, cr15, {3}
    1ac4:	00030068 	andeq	r0, r3, r8, rrx
    1ac8:	73736100 	cmnvc	r3, #0, 2
    1acc:	2e747265 	cdpcs	2, 7, cr7, cr4, cr5, {3}
    1ad0:	00050068 	andeq	r0, r5, r8, rrx
    1ad4:	65646300 	strbvs	r6, [r4, #-768]!	; 0xfffffd00
    1ad8:	682e7366 	stmdavs	lr!, {r1, r2, r5, r6, r8, r9, ip, sp, lr}
    1adc:	00000300 	andeq	r0, r0, r0, lsl #6
    1ae0:	6c647473 	cfstrdvs	mvd7, [r4], #-460	; 0xfffffe34
    1ae4:	682e6269 	stmdavs	lr!, {r0, r3, r5, r6, r9, sp, lr}
    1ae8:	00000200 	andeq	r0, r0, r0, lsl #4
    1aec:	6f6c6c61 	svcvs	0x006c6c61
    1af0:	682e6163 	stmdavs	lr!, {r0, r1, r5, r6, r8, sp, lr}
    1af4:	00000500 	andeq	r0, r0, r0, lsl #10
    1af8:	69647473 	stmdbvs	r4!, {r0, r1, r4, r5, r6, sl, ip, sp, lr}^
    1afc:	682e746e 	stmdavs	lr!, {r1, r2, r3, r5, r6, sl, ip, sp, lr}
    1b00:	00000700 	andeq	r0, r0, r0, lsl #14
    1b04:	69647473 	stmdbvs	r4!, {r0, r1, r4, r5, r6, sl, ip, sp, lr}^
    1b08:	682e746e 	stmdavs	lr!, {r1, r2, r3, r5, r6, sl, ip, sp, lr}
    1b0c:	00000500 	andeq	r0, r0, r0, lsl #10
    1b10:	746e695f 	strbtvc	r6, [lr], #-2399	; 0xfffff6a1
    1b14:	2e707573 	mrccs	5, 3, r7, cr0, cr3, {3}
    1b18:	00030068 	andeq	r0, r3, r8, rrx
    1b1c:	01050000 	mrseq	r0, (UNDEF: 5)
    1b20:	00020500 	andeq	r0, r2, r0, lsl #10
    1b24:	03000000 	movweq	r0, #0
    1b28:	11050137 	tstne	r5, r7, lsr r1
    1b2c:	40040559 	andmi	r0, r4, r9, asr r5
    1b30:	054b0305 	strbeq	r0, [fp, #-773]	; 0xfffffcfb
    1b34:	0305750a 	movweq	r7, #21770	; 0x550a
    1b38:	750b054b 	strvc	r0, [fp, #-1355]	; 0xfffffab5
    1b3c:	054b0305 	strbeq	r0, [fp, #-773]	; 0xfffffcfb
    1b40:	05696a14 	strbeq	r6, [r9, #-2580]!	; 0xfffff5ec
    1b44:	14052e22 	strne	r2, [r5], #-3618	; 0xfffff1de
    1b48:	22053f2e 	andcs	r3, r5, #46, 30	; 0xb8
    1b4c:	2e14052e 	cfmul64cs	mvdx0, mvdx4, mvdx14
    1b50:	2e22053f 	mcrcs	5, 1, r0, cr2, cr15, {1}
    1b54:	3f2e1405 	svccc	0x002e1405
    1b58:	052e2205 	streq	r2, [lr, #-517]!	; 0xfffffdfb
    1b5c:	053f2e14 	ldreq	r2, [pc, #-3604]!	; d50 <_Min_Stack_Size+0x950>
    1b60:	14052e22 	strne	r2, [r5], #-3618	; 0xfffff1de
    1b64:	3f04052e 	svccc	0x0004052e
    1b68:	054c0905 	strbeq	r0, [ip, #-2309]	; 0xfffff6fb
    1b6c:	09053c07 	stmdbeq	r5, {r0, r1, r2, sl, fp, ip, sp}
    1b70:	3c070531 	cfstr32cc	mvfx0, [r7], {49}	; 0x31
    1b74:	05221905 	streq	r1, [r2, #-2309]!	; 0xfffff6fb
    1b78:	12260216 	eorne	r0, r6, #1610612737	; 0x60000001
    1b7c:	05311005 	ldreq	r1, [r1, #-5]!
    1b80:	16052e04 	strne	r2, [r5], -r4, lsl #28
    1b84:	2e240530 	mcrcs	5, 1, r0, cr4, cr0, {1}
    1b88:	052e1605 	streq	r1, [lr, #-1541]!	; 0xfffff9fb
    1b8c:	04053e05 	streq	r3, [r5], #-3589	; 0xfffff1fb
    1b90:	0301054b 	movweq	r0, #5451	; 0x154b
    1b94:	0a056609 	beq	15b3c0 <_Min_Stack_Size+0x15afc0>
    1b98:	05207903 	streq	r7, [r0, #-2307]!	; 0xfffff6fd
    1b9c:	01054b04 	tsteq	r5, r4, lsl #22
    1ba0:	1c0a056c 	cfstr32ne	mvfx0, [sl], {108}	; 0x6c
    1ba4:	054b0405 	strbeq	r0, [fp, #-1029]	; 0xfffffbfb
    1ba8:	00086901 	andeq	r6, r8, r1, lsl #18
    1bac:	01050101 	tsteq	r5, r1, lsl #2
    1bb0:	00020500 	andeq	r0, r2, r0, lsl #10
    1bb4:	03000000 	movweq	r0, #0
    1bb8:	050100f9 	streq	r0, [r1, #-249]	; 0xffffff07
    1bbc:	19054c04 	stmdbne	r5, {r2, sl, fp, lr}
    1bc0:	3d14054e 	cfldr32cc	mvfx0, [r4, #-312]	; 0xfffffec8
    1bc4:	052f1c05 	streq	r1, [pc, #-3077]!	; fc7 <_Min_Stack_Size+0xbc7>
    1bc8:	19052f03 	stmdbne	r5, {r0, r1, r8, r9, sl, fp, sp}
    1bcc:	3d14056a 	cfldr32cc	mvfx0, [r4, #-424]	; 0xfffffe58
    1bd0:	052f1c05 	streq	r1, [pc, #-3077]!	; fd3 <_Min_Stack_Size+0xbd3>
    1bd4:	04052f03 	streq	r2, [r5], #-3843	; 0xfffff0fd
    1bd8:	05661503 	strbeq	r1, [r6, #-1283]!	; 0xfffffafd
    1bdc:	14054e19 	strne	r4, [r5], #-3609	; 0xfffff1e7
    1be0:	2f1c052f 	svccs	0x001c052f
    1be4:	052f0305 	streq	r0, [pc, #-773]!	; 18e7 <_Min_Stack_Size+0x14e7>
    1be8:	14056a19 	strne	r6, [r5], #-2585	; 0xfffff5e7
    1bec:	2f1c052f 	svccs	0x001c052f
    1bf0:	052f0305 	streq	r0, [pc, #-773]!	; 18f3 <_Min_Stack_Size+0x14f3>
    1bf4:	66140304 	ldrvs	r0, [r4], -r4, lsl #6
    1bf8:	054e1905 	strbeq	r1, [lr, #-2309]	; 0xfffff6fb
    1bfc:	1c053d14 	stcne	13, cr3, [r5], {20}
    1c00:	2f03052f 	svccs	0x0003052f
    1c04:	056a1905 	strbeq	r1, [sl, #-2309]!	; 0xfffff6fb
    1c08:	1c053d14 	stcne	13, cr3, [r5], {20}
    1c0c:	2f03052f 	svccs	0x0003052f
    1c10:	14030105 	strne	r0, [r3], #-261	; 0xfffffefb
    1c14:	000c0266 	andeq	r0, ip, r6, ror #4
    1c18:	01050101 	tsteq	r5, r1, lsl #2
    1c1c:	00020500 	andeq	r0, r2, r0, lsl #10
    1c20:	03000000 	movweq	r0, #0
    1c24:	050101f0 	streq	r0, [r1, #-496]	; 0xfffffe10
    1c28:	03054b04 	movweq	r4, #23300	; 0x5b04
    1c2c:	0105674c 	tsteq	r5, ip, asr #14
    1c30:	05660b03 	strbeq	r0, [r6, #-2819]!	; 0xfffff4fd
    1c34:	2076030a 	rsbscs	r0, r6, sl, lsl #6
    1c38:	674c0305 	strbvs	r0, [ip, -r5, lsl #6]
    1c3c:	056d0105 	strbeq	r0, [sp, #-261]!	; 0xfffffefb
    1c40:	03051b0a 	movweq	r1, #23306	; 0x5b0a
    1c44:	0105674c 	tsteq	r5, ip, asr #14
    1c48:	000e0268 	andeq	r0, lr, r8, ror #4
    1c4c:	01050101 	tsteq	r5, r1, lsl #2
    1c50:	00020500 	andeq	r0, r2, r0, lsl #10
    1c54:	03000000 	movweq	r0, #0
    1c58:	05010296 	streq	r0, [r1, #-662]	; 0xfffffd6a
    1c5c:	08057704 	stmdaeq	r5, {r2, r8, r9, sl, ip, sp, lr}
    1c60:	0012053d 	andseq	r0, r2, sp, lsr r5
    1c64:	20010402 	andcs	r0, r1, r2, lsl #8
    1c68:	02001d05 	andeq	r1, r0, #320	; 0x140
    1c6c:	052e0104 	streq	r0, [lr, #-260]!	; 0xfffffefc
    1c70:	04020008 	streq	r0, [r2], #-8
    1c74:	16052e01 	strne	r2, [r5], -r1, lsl #28
    1c78:	2e1c0533 	mrccs	5, 0, r0, cr12, cr3, {1}
    1c7c:	05201405 	streq	r1, [r0, #-1029]!	; 0xfffffbfb
    1c80:	05023001 	streq	r3, [r2, #-1]
    1c84:	05010100 	streq	r0, [r1, #-256]	; 0xffffff00
    1c88:	02050001 	andeq	r0, r5, #1
    1c8c:	00000000 	andeq	r0, r0, r0
    1c90:	0102a503 	tsteq	r2, r3, lsl #10
    1c94:	05770505 	ldrbeq	r0, [r7, #-1285]!	; 0xfffffafb
    1c98:	13053e08 	movwne	r3, #24072	; 0x5e08
    1c9c:	01040200 	mrseq	r0, R12_usr
    1ca0:	001e0520 	andseq	r0, lr, r0, lsr #10
    1ca4:	2e010402 	cdpcs	4, 0, cr0, cr1, cr2, {0}
    1ca8:	02000805 	andeq	r0, r0, #327680	; 0x50000
    1cac:	052e0104 	streq	r0, [lr, #-260]!	; 0xfffffefc
    1cb0:	2e160315 	mrccs	3, 0, r0, cr6, cr5, {0}
    1cb4:	053c0605 	ldreq	r0, [ip, #-1541]!	; 0xfffff9fb
    1cb8:	33053127 	movwcc	r3, #20775	; 0x5127
    1cbc:	3c1d052e 	cfldr32cc	mvfx0, [sp], {46}	; 0x2e
    1cc0:	09030105 	stmdbeq	r3, {r0, r2, r8}
    1cc4:	1c27052e 	cfstr32ne	mvfx0, [r7], #-184	; 0xffffff48
    1cc8:	052e3305 	streq	r3, [lr, #-773]!	; 0xfffffcfb
    1ccc:	01054a1d 	tsteq	r5, sp, lsl sl
    1cd0:	00080232 	andeq	r0, r8, r2, lsr r2
    1cd4:	01050101 	tsteq	r5, r1, lsl #2
    1cd8:	00020500 	andeq	r0, r2, r0, lsl #10
    1cdc:	03000000 	movweq	r0, #0
    1ce0:	050102d1 	streq	r0, [r1, #-721]	; 0xfffffd2f
    1ce4:	12054c07 	andne	r4, r5, #1792	; 0x700
    1ce8:	01040200 	mrseq	r0, R12_usr
    1cec:	001d0520 	andseq	r0, sp, r0, lsr #10
    1cf0:	2e010402 	cdpcs	4, 0, cr0, cr1, cr2, {0}
    1cf4:	02000705 	andeq	r0, r0, #1310720	; 0x140000
    1cf8:	052e0104 	streq	r0, [lr, #-260]!	; 0xfffffefc
    1cfc:	06022f01 	streq	r2, [r2], -r1, lsl #30
    1d00:	05010100 	streq	r0, [r1, #-256]	; 0xffffff00
    1d04:	02050001 	andeq	r0, r5, #1
    1d08:	080009b4 	stmdaeq	r0, {r2, r4, r5, r7, r8, fp}
    1d0c:	0102de03 	tsteq	r2, r3, lsl #28
    1d10:	05301005 	ldreq	r1, [r0, #-5]!
    1d14:	01053c02 	tsteq	r5, r2, lsl #24
    1d18:	00040222 	andeq	r0, r4, r2, lsr #4
    1d1c:	01050101 	tsteq	r5, r1, lsl #2
    1d20:	c8020500 	stmdagt	r2, {r8, sl}
    1d24:	03080009 	movweq	r0, #32777	; 0x8009
    1d28:	050102e5 	streq	r0, [r1, #-741]	; 0xfffffd1b
    1d2c:	02052f10 	andeq	r2, r5, #16, 30	; 0x40
    1d30:	2201053c 	andcs	r0, r1, #60, 10	; 0xf000000
    1d34:	01000402 	tsteq	r0, r2, lsl #8
    1d38:	00010501 	andeq	r0, r1, r1, lsl #10
    1d3c:	09dc0205 	ldmibeq	ip, {r0, r2, r9}^
    1d40:	ea030800 	b	c3d48 <_Min_Stack_Size+0xc3948>
    1d44:	10050102 	andne	r0, r5, r2, lsl #2
    1d48:	3c02052f 	cfstr32cc	mvfx0, [r2], {47}	; 0x2f
    1d4c:	02230105 	eoreq	r0, r3, #1073741825	; 0x40000001
    1d50:	01010004 	tsteq	r1, r4
    1d54:	000008be 			; <UNDEFINED> instruction: 0x000008be
    1d58:	06c70003 	strbeq	r0, [r7], r3
    1d5c:	01020000 	mrseq	r0, (UNDEF: 2)
    1d60:	000d0efb 	strdeq	r0, [sp], -fp
    1d64:	01010101 	tsteq	r1, r1, lsl #2
    1d68:	01000000 	mrseq	r0, (UNDEF: 0)
    1d6c:	2e010000 	cdpcs	0, 0, cr0, cr1, cr0, {0}
    1d70:	74732f2e 	ldrbtvc	r2, [r3], #-3886	; 0xfffff0d2
    1d74:	5f32336d 	svcpl	0x0032336d
    1d78:	33303166 	teqcc	r0, #-2147483623	; 0x80000019
    1d7c:	645f3663 	ldrbvs	r3, [pc], #-1635	; 1d84 <_Min_Stack_Size+0x1984>
    1d80:	65766972 	ldrbvs	r6, [r6, #-2418]!	; 0xfffff68e
    1d84:	67007372 	smlsdxvs	r0, r2, r3, r7
    1d88:	6e655c3a 	mcrvs	12, 3, r5, cr5, cr10, {1}
    1d8c:	2d74732e 	ldclcs	3, cr7, [r4, #-184]!	; 0xffffff48
    1d90:	336d7473 	cmncc	sp, #1929379840	; 0x73000000
    1d94:	62756332 	rsbsvs	r6, r5, #-939524096	; 0xc8000000
    1d98:	65646965 	strbvs	r6, [r4, #-2405]!	; 0xfffff69b
    1d9c:	342e315f 	strtcc	r3, [lr], #-351	; 0xfffffea1
    1da0:	375f302e 	ldrbcc	r3, [pc, -lr, lsr #32]
    1da4:	5f313135 	svcpl	0x00313135
    1da8:	30323032 	eorscc	r3, r2, r2, lsr r0
    1dac:	30323730 	eorscc	r3, r2, r0, lsr r7
    1db0:	3239305f 	eorscc	r3, r9, #95	; 0x5f
    1db4:	38785f38 	ldmdacc	r8!, {r3, r4, r5, r8, r9, sl, fp, ip, lr}^
    1db8:	34365f36 	ldrtcc	r5, [r6], #-3894	; 0xfffff0ca
    1dbc:	6578655f 	ldrbvs	r6, [r8, #-1375]!	; 0xfffffaa1
    1dc0:	6d74735c 	ldclvs	3, cr7, [r4, #-368]!	; 0xfffffe90
    1dc4:	75633233 	strbvc	r3, [r3, #-563]!	; 0xfffffdcd
    1dc8:	64696562 	strbtvs	r6, [r9], #-1378	; 0xfffffa9e
    1dcc:	2e315f65 	cdpcs	15, 3, cr5, cr1, cr5, {3}
    1dd0:	5c302e34 	ldcpl	14, cr2, [r0], #-208	; 0xffffff30
    1dd4:	336d7473 	cmncc	sp, #1929379840	; 0x73000000
    1dd8:	62756332 	rsbsvs	r6, r5, #-939524096	; 0xc8000000
    1ddc:	65646965 	strbvs	r6, [r4, #-2405]!	; 0xfffff69b
    1de0:	756c705c 	strbvc	r7, [ip, #-92]!	; 0xffffffa4
    1de4:	736e6967 	cmnvc	lr, #1687552	; 0x19c000
    1de8:	6d6f635c 	stclvs	3, cr6, [pc, #-368]!	; 1c80 <_Min_Stack_Size+0x1880>
    1dec:	2e74732e 	cdpcs	3, 7, cr7, cr4, cr14, {1}
    1df0:	336d7473 	cmncc	sp, #1929379840	; 0x73000000
    1df4:	62756332 	rsbsvs	r6, r5, #-939524096	; 0xc8000000
    1df8:	64692e65 	strbtvs	r2, [r9], #-3685	; 0xfffff19b
    1dfc:	636d2e65 	cmnvs	sp, #1616	; 0x650
    1e00:	78652e75 	stmdavc	r5!, {r0, r2, r4, r5, r6, r9, sl, fp, sp}^
    1e04:	6e726574 	mrcvs	5, 3, r6, cr2, cr4, {3}
    1e08:	6f746c61 	svcvs	0x00746c61
    1e0c:	2e736c6f 	cdpcs	12, 7, cr6, cr3, cr15, {3}
    1e10:	2d756e67 	ldclcs	14, cr6, [r5, #-412]!	; 0xfffffe64
    1e14:	6c6f6f74 	stclvs	15, cr6, [pc], #-464	; 1c4c <_Min_Stack_Size+0x184c>
    1e18:	6f662d73 	svcvs	0x00662d73
    1e1c:	74732d72 	ldrbtvc	r2, [r3], #-3442	; 0xfffff28e
    1e20:	2e32336d 	cdpcs	3, 3, cr3, cr2, cr13, {3}
    1e24:	332e3031 			; <UNDEFINED> instruction: 0x332e3031
    1e28:	3230322d 	eorscc	r3, r0, #-805306366	; 0xd0000002
    1e2c:	30312e31 	eorscc	r2, r1, r1, lsr lr
    1e30:	6e69772e 	cdpvs	7, 6, cr7, cr9, cr14, {1}
    1e34:	315f3233 	cmpcc	pc, r3, lsr r2	; <UNPREDICTABLE>
    1e38:	322e302e 	eorcc	r3, lr, #46	; 0x2e
    1e3c:	322e3030 	eorcc	r3, lr, #48	; 0x30
    1e40:	30333230 	eorscc	r3, r3, r0, lsr r2
    1e44:	31363131 	teqcc	r6, r1, lsr r1
    1e48:	5c333030 	ldcpl	0, cr3, [r3], #-192	; 0xffffff40
    1e4c:	6c6f6f74 	stclvs	15, cr6, [pc], #-464	; 1c84 <_Min_Stack_Size+0x1884>
    1e50:	69625c73 	stmdbvs	r2!, {r0, r1, r4, r5, r6, sl, fp, ip, lr}^
    1e54:	2e2e5c6e 	cdpcs	12, 2, cr5, cr14, cr14, {3}
    1e58:	62696c2f 	rsbvs	r6, r9, #12032	; 0x2f00
    1e5c:	6363672f 	cmnvs	r3, #12320768	; 0xbc0000
    1e60:	6d72612f 	ldfvse	f6, [r2, #-188]!	; 0xffffff44
    1e64:	6e6f6e2d 	cdpvs	14, 6, cr6, cr15, cr13, {1}
    1e68:	61652d65 	cmnvs	r5, r5, ror #26
    1e6c:	312f6962 			; <UNDEFINED> instruction: 0x312f6962
    1e70:	2e332e30 	mrccs	14, 1, r2, cr3, cr0, {1}
    1e74:	2e2e2f31 	mcrcs	15, 1, r2, cr14, cr1, {1}
    1e78:	2f2e2e2f 	svccs	0x002e2e2f
    1e7c:	2e2f2e2e 	cdpcs	14, 2, cr2, cr15, cr14, {1}
    1e80:	72612f2e 	rsbvc	r2, r1, #46, 30	; 0xb8
    1e84:	6f6e2d6d 	svcvs	0x006e2d6d
    1e88:	652d656e 	strvs	r6, [sp, #-1390]!	; 0xfffffa92
    1e8c:	2f696261 	svccs	0x00696261
    1e90:	6c636e69 	stclvs	14, cr6, [r3], #-420	; 0xfffffe5c
    1e94:	2f656475 	svccs	0x00656475
    1e98:	6863616d 	stmdavs	r3!, {r0, r2, r3, r5, r6, r8, sp, lr}^
    1e9c:	00656e69 	rsbeq	r6, r5, r9, ror #28
    1ea0:	655c3a67 	ldrbvs	r3, [ip, #-2663]	; 0xfffff599
    1ea4:	74732e6e 	ldrbtvc	r2, [r3], #-3694	; 0xfffff192
    1ea8:	6d74732d 	ldclvs	3, cr7, [r4, #-180]!	; 0xffffff4c
    1eac:	75633233 	strbvc	r3, [r3, #-563]!	; 0xfffffdcd
    1eb0:	64696562 	strbtvs	r6, [r9], #-1378	; 0xfffffa9e
    1eb4:	2e315f65 	cdpcs	15, 3, cr5, cr1, cr5, {3}
    1eb8:	5f302e34 	svcpl	0x00302e34
    1ebc:	31313537 	teqcc	r1, r7, lsr r5
    1ec0:	3230325f 	eorscc	r3, r0, #-268435451	; 0xf0000005
    1ec4:	32373030 	eorscc	r3, r7, #48	; 0x30
    1ec8:	39305f30 	ldmdbcc	r0!, {r4, r5, r8, r9, sl, fp, ip, lr}
    1ecc:	785f3832 	ldmdavc	pc, {r1, r4, r5, fp, ip, sp}^	; <UNPREDICTABLE>
    1ed0:	365f3638 			; <UNDEFINED> instruction: 0x365f3638
    1ed4:	78655f34 	stmdavc	r5!, {r2, r4, r5, r8, r9, sl, fp, ip, lr}^
    1ed8:	74735c65 	ldrbtvc	r5, [r3], #-3173	; 0xfffff39b
    1edc:	6332336d 	teqvs	r2, #-1275068415	; 0xb4000001
    1ee0:	69656275 	stmdbvs	r5!, {r0, r2, r4, r5, r6, r9, sp, lr}^
    1ee4:	315f6564 	cmpcc	pc, r4, ror #10
    1ee8:	302e342e 	eorcc	r3, lr, lr, lsr #8
    1eec:	6d74735c 	ldclvs	3, cr7, [r4, #-368]!	; 0xfffffe90
    1ef0:	75633233 	strbvc	r3, [r3, #-563]!	; 0xfffffdcd
    1ef4:	64696562 	strbtvs	r6, [r9], #-1378	; 0xfffffa9e
    1ef8:	6c705c65 	ldclvs	12, cr5, [r0], #-404	; 0xfffffe6c
    1efc:	6e696775 	mcrvs	7, 3, r6, cr9, cr5, {3}
    1f00:	6f635c73 	svcvs	0x00635c73
    1f04:	74732e6d 	ldrbtvc	r2, [r3], #-3693	; 0xfffff193
    1f08:	6d74732e 	ldclvs	3, cr7, [r4, #-184]!	; 0xffffff48
    1f0c:	75633233 	strbvc	r3, [r3, #-563]!	; 0xfffffdcd
    1f10:	692e6562 	stmdbvs	lr!, {r1, r5, r6, r8, sl, sp, lr}
    1f14:	6d2e6564 	cfstr32vs	mvfx6, [lr, #-400]!	; 0xfffffe70
    1f18:	652e7563 	strvs	r7, [lr, #-1379]!	; 0xfffffa9d
    1f1c:	72657478 	rsbvc	r7, r5, #120, 8	; 0x78000000
    1f20:	746c616e 	strbtvc	r6, [ip], #-366	; 0xfffffe92
    1f24:	736c6f6f 	cmnvc	ip, #444	; 0x1bc
    1f28:	756e672e 	strbvc	r6, [lr, #-1838]!	; 0xfffff8d2
    1f2c:	6f6f742d 	svcvs	0x006f742d
    1f30:	662d736c 	strtvs	r7, [sp], -ip, ror #6
    1f34:	732d726f 			; <UNDEFINED> instruction: 0x732d726f
    1f38:	32336d74 	eorscc	r6, r3, #116, 26	; 0x1d00
    1f3c:	2e30312e 	rsfcssp	f3, f0, #0.5
    1f40:	30322d33 	eorscc	r2, r2, r3, lsr sp
    1f44:	312e3132 			; <UNDEFINED> instruction: 0x312e3132
    1f48:	69772e30 	ldmdbvs	r7!, {r4, r5, r9, sl, fp, sp}^
    1f4c:	5f32336e 	svcpl	0x0032336e
    1f50:	2e302e31 	mrccs	14, 1, r2, cr0, cr1, {1}
    1f54:	2e303032 	mrccs	0, 1, r3, cr0, cr2, {1}
    1f58:	33323032 	teqcc	r2, #50	; 0x32
    1f5c:	36313130 			; <UNDEFINED> instruction: 0x36313130
    1f60:	33303031 	teqcc	r0, #49	; 0x31
    1f64:	6f6f745c 	svcvs	0x006f745c
    1f68:	625c736c 	subsvs	r7, ip, #108, 6	; 0xb0000001
    1f6c:	2e5c6e69 	cdpcs	14, 5, cr6, cr12, cr9, {3}
    1f70:	696c2f2e 	stmdbvs	ip!, {r1, r2, r3, r5, r8, r9, sl, fp, sp}^
    1f74:	63672f62 	cmnvs	r7, #392	; 0x188
    1f78:	72612f63 	rsbvc	r2, r1, #396	; 0x18c
    1f7c:	6f6e2d6d 	svcvs	0x006e2d6d
    1f80:	652d656e 	strvs	r6, [sp, #-1390]!	; 0xfffffa92
    1f84:	2f696261 	svccs	0x00696261
    1f88:	332e3031 			; <UNDEFINED> instruction: 0x332e3031
    1f8c:	2e2f312e 	sufcsep	f3, f7, #0.5
    1f90:	2e2e2f2e 	cdpcs	15, 2, cr2, cr14, cr14, {1}
    1f94:	2f2e2e2f 	svccs	0x002e2e2f
    1f98:	612f2e2e 			; <UNDEFINED> instruction: 0x612f2e2e
    1f9c:	6e2d6d72 	mcrvs	13, 1, r6, cr13, cr2, {3}
    1fa0:	2d656e6f 	stclcs	14, cr6, [r5, #-444]!	; 0xfffffe44
    1fa4:	69626165 	stmdbvs	r2!, {r0, r2, r5, r6, r8, sp, lr}^
    1fa8:	636e692f 	cmnvs	lr, #770048	; 0xbc000
    1fac:	6564756c 	strbvs	r7, [r4, #-1388]!	; 0xfffffa94
    1fb0:	7379732f 	cmnvc	r9, #-1140850688	; 0xbc000000
    1fb4:	2f3a4400 	svccs	0x003a4400
    1fb8:	76697244 	strbtvc	r7, [r9], -r4, asr #4
    1fbc:	2f737265 	svccs	0x00737265
    1fc0:	336d7473 	cmncc	sp, #1929379840	; 0x73000000
    1fc4:	31665f32 	cmncc	r6, r2, lsr pc
    1fc8:	36633330 			; <UNDEFINED> instruction: 0x36633330
    1fcc:	6972645f 	ldmdbvs	r2!, {r0, r1, r2, r3, r4, r6, sl, sp, lr}^
    1fd0:	73726576 	cmnvc	r2, #494927872	; 0x1d800000
    1fd4:	636e492f 	cmnvs	lr, #770048	; 0xbc000
    1fd8:	5c3a6700 	ldcpl	7, cr6, [sl], #-0
    1fdc:	732e6e65 			; <UNDEFINED> instruction: 0x732e6e65
    1fe0:	74732d74 	ldrbtvc	r2, [r3], #-3444	; 0xfffff28c
    1fe4:	6332336d 	teqvs	r2, #-1275068415	; 0xb4000001
    1fe8:	69656275 	stmdbvs	r5!, {r0, r2, r4, r5, r6, r9, sp, lr}^
    1fec:	315f6564 	cmpcc	pc, r4, ror #10
    1ff0:	302e342e 	eorcc	r3, lr, lr, lsr #8
    1ff4:	3135375f 	teqcc	r5, pc, asr r7
    1ff8:	30325f31 	eorscc	r5, r2, r1, lsr pc
    1ffc:	37303032 			; <UNDEFINED> instruction: 0x37303032
    2000:	305f3032 	subscc	r3, pc, r2, lsr r0	; <UNPREDICTABLE>
    2004:	5f383239 	svcpl	0x00383239
    2008:	5f363878 	svcpl	0x00363878
    200c:	655f3436 	ldrbvs	r3, [pc, #-1078]	; 1bde <_Min_Stack_Size+0x17de>
    2010:	735c6578 	cmpvc	ip, #120, 10	; 0x1e000000
    2014:	32336d74 	eorscc	r6, r3, #116, 26	; 0x1d00
    2018:	65627563 	strbvs	r7, [r2, #-1379]!	; 0xfffffa9d
    201c:	5f656469 	svcpl	0x00656469
    2020:	2e342e31 	mrccs	14, 1, r2, cr4, cr1, {1}
    2024:	74735c30 	ldrbtvc	r5, [r3], #-3120	; 0xfffff3d0
    2028:	6332336d 	teqvs	r2, #-1275068415	; 0xb4000001
    202c:	69656275 	stmdbvs	r5!, {r0, r2, r4, r5, r6, r9, sp, lr}^
    2030:	705c6564 	subsvc	r6, ip, r4, ror #10
    2034:	6967756c 	stmdbvs	r7!, {r2, r3, r5, r6, r8, sl, ip, sp, lr}^
    2038:	635c736e 	cmpvs	ip, #-1207959551	; 0xb8000001
    203c:	732e6d6f 			; <UNDEFINED> instruction: 0x732e6d6f
    2040:	74732e74 	ldrbtvc	r2, [r3], #-3700	; 0xfffff18c
    2044:	6332336d 	teqvs	r2, #-1275068415	; 0xb4000001
    2048:	2e656275 	mcrcs	2, 3, r6, cr5, cr5, {3}
    204c:	2e656469 	cdpcs	4, 6, cr6, cr5, cr9, {3}
    2050:	2e75636d 	cdpcs	3, 7, cr6, cr5, cr13, {3}
    2054:	65747865 	ldrbvs	r7, [r4, #-2149]!	; 0xfffff79b
    2058:	6c616e72 	stclvs	14, cr6, [r1], #-456	; 0xfffffe38
    205c:	6c6f6f74 	stclvs	15, cr6, [pc], #-464	; 1e94 <_Min_Stack_Size+0x1a94>
    2060:	6e672e73 	mcrvs	14, 3, r2, cr7, cr3, {3}
    2064:	6f742d75 	svcvs	0x00742d75
    2068:	2d736c6f 	ldclcs	12, cr6, [r3, #-444]!	; 0xfffffe44
    206c:	2d726f66 	ldclcs	15, cr6, [r2, #-408]!	; 0xfffffe68
    2070:	336d7473 	cmncc	sp, #1929379840	; 0x73000000
    2074:	30312e32 	eorscc	r2, r1, r2, lsr lr
    2078:	322d332e 	eorcc	r3, sp, #-1207959552	; 0xb8000000
    207c:	2e313230 	mrccs	2, 1, r3, cr1, cr0, {1}
    2080:	772e3031 			; <UNDEFINED> instruction: 0x772e3031
    2084:	32336e69 	eorscc	r6, r3, #1680	; 0x690
    2088:	302e315f 	eorcc	r3, lr, pc, asr r1
    208c:	3030322e 	eorscc	r3, r0, lr, lsr #4
    2090:	3230322e 	eorscc	r3, r0, #-536870910	; 0xe0000002
    2094:	31313033 	teqcc	r1, r3, lsr r0
    2098:	30303136 	eorscc	r3, r0, r6, lsr r1
    209c:	6f745c33 	svcvs	0x00745c33
    20a0:	5c736c6f 	ldclpl	12, cr6, [r3], #-444	; 0xfffffe44
    20a4:	5c6e6962 			; <UNDEFINED> instruction: 0x5c6e6962
    20a8:	6c2f2e2e 	stcvs	14, cr2, [pc], #-184	; 1ff8 <_Min_Stack_Size+0x1bf8>
    20ac:	672f6269 	strvs	r6, [pc, -r9, ror #4]!
    20b0:	612f6363 			; <UNDEFINED> instruction: 0x612f6363
    20b4:	6e2d6d72 	mcrvs	13, 1, r6, cr13, cr2, {3}
    20b8:	2d656e6f 	stclcs	14, cr6, [r5, #-444]!	; 0xfffffe44
    20bc:	69626165 	stmdbvs	r2!, {r0, r2, r5, r6, r8, sp, lr}^
    20c0:	2e30312f 	rsfcssp	f3, f0, #10.0
    20c4:	2f312e33 	svccs	0x00312e33
    20c8:	2e2f2e2e 	cdpcs	14, 2, cr2, cr15, cr14, {1}
    20cc:	2e2e2f2e 	cdpcs	15, 2, cr2, cr14, cr14, {1}
    20d0:	2f2e2e2f 	svccs	0x002e2e2f
    20d4:	2d6d7261 	sfmcs	f7, 2, [sp, #-388]!	; 0xfffffe7c
    20d8:	656e6f6e 	strbvs	r6, [lr, #-3950]!	; 0xfffff092
    20dc:	6261652d 	rsbvs	r6, r1, #188743680	; 0xb400000
    20e0:	6e692f69 	cdpvs	15, 6, cr2, cr9, cr9, {3}
    20e4:	64756c63 	ldrbtvs	r6, [r5], #-3171	; 0xfffff39d
    20e8:	3a670065 	bcc	19c2284 <_Min_Stack_Size+0x19c1e84>
    20ec:	2e6e655c 	mcrcs	5, 3, r6, cr14, cr12, {2}
    20f0:	732d7473 			; <UNDEFINED> instruction: 0x732d7473
    20f4:	32336d74 	eorscc	r6, r3, #116, 26	; 0x1d00
    20f8:	65627563 	strbvs	r7, [r2, #-1379]!	; 0xfffffa9d
    20fc:	5f656469 	svcpl	0x00656469
    2100:	2e342e31 	mrccs	14, 1, r2, cr4, cr1, {1}
    2104:	35375f30 	ldrcc	r5, [r7, #-3888]!	; 0xfffff0d0
    2108:	325f3131 	subscc	r3, pc, #1073741836	; 0x4000000c
    210c:	30303230 	eorscc	r3, r0, r0, lsr r2
    2110:	5f303237 	svcpl	0x00303237
    2114:	38323930 	ldmdacc	r2!, {r4, r5, r8, fp, ip, sp}
    2118:	3638785f 			; <UNDEFINED> instruction: 0x3638785f
    211c:	5f34365f 	svcpl	0x0034365f
    2120:	5c657865 	stclpl	8, cr7, [r5], #-404	; 0xfffffe6c
    2124:	336d7473 	cmncc	sp, #1929379840	; 0x73000000
    2128:	62756332 	rsbsvs	r6, r5, #-939524096	; 0xc8000000
    212c:	65646965 	strbvs	r6, [r4, #-2405]!	; 0xfffff69b
    2130:	342e315f 	strtcc	r3, [lr], #-351	; 0xfffffea1
    2134:	735c302e 	cmpvc	ip, #46	; 0x2e
    2138:	32336d74 	eorscc	r6, r3, #116, 26	; 0x1d00
    213c:	65627563 	strbvs	r7, [r2, #-1379]!	; 0xfffffa9d
    2140:	5c656469 	cfstrdpl	mvd6, [r5], #-420	; 0xfffffe5c
    2144:	67756c70 			; <UNDEFINED> instruction: 0x67756c70
    2148:	5c736e69 	ldclpl	14, cr6, [r3], #-420	; 0xfffffe5c
    214c:	2e6d6f63 	cdpcs	15, 6, cr6, cr13, cr3, {3}
    2150:	732e7473 			; <UNDEFINED> instruction: 0x732e7473
    2154:	32336d74 	eorscc	r6, r3, #116, 26	; 0x1d00
    2158:	65627563 	strbvs	r7, [r2, #-1379]!	; 0xfffffa9d
    215c:	6564692e 	strbvs	r6, [r4, #-2350]!	; 0xfffff6d2
    2160:	75636d2e 	strbvc	r6, [r3, #-3374]!	; 0xfffff2d2
    2164:	7478652e 	ldrbtvc	r6, [r8], #-1326	; 0xfffffad2
    2168:	616e7265 	cmnvs	lr, r5, ror #4
    216c:	6f6f746c 	svcvs	0x006f746c
    2170:	672e736c 	strvs	r7, [lr, -ip, ror #6]!
    2174:	742d756e 	strtvc	r7, [sp], #-1390	; 0xfffffa92
    2178:	736c6f6f 	cmnvc	ip, #444	; 0x1bc
    217c:	726f662d 	rsbvc	r6, pc, #47185920	; 0x2d00000
    2180:	6d74732d 	ldclvs	3, cr7, [r4, #-180]!	; 0xffffff4c
    2184:	312e3233 			; <UNDEFINED> instruction: 0x312e3233
    2188:	2d332e30 	ldccs	14, cr2, [r3, #-192]!	; 0xffffff40
    218c:	31323032 	teqcc	r2, r2, lsr r0
    2190:	2e30312e 	rsfcssp	f3, f0, #0.5
    2194:	336e6977 	cmncc	lr, #1949696	; 0x1dc000
    2198:	2e315f32 	mrccs	15, 1, r5, cr1, cr2, {1}
    219c:	30322e30 	eorscc	r2, r2, r0, lsr lr
    21a0:	30322e30 	eorscc	r2, r2, r0, lsr lr
    21a4:	31303332 	teqcc	r0, r2, lsr r3
    21a8:	30313631 	eorscc	r3, r1, r1, lsr r6
    21ac:	745c3330 	ldrbvc	r3, [ip], #-816	; 0xfffffcd0
    21b0:	736c6f6f 	cmnvc	ip, #444	; 0x1bc
    21b4:	6d72615c 	ldfvse	f6, [r2, #-368]!	; 0xfffffe90
    21b8:	6e6f6e2d 	cdpvs	14, 6, cr6, cr15, cr13, {1}
    21bc:	61652d65 	cmnvs	r5, r5, ror #26
    21c0:	695c6962 	ldmdbvs	ip, {r1, r5, r6, r8, fp, sp, lr}^
    21c4:	756c636e 	strbvc	r6, [ip, #-878]!	; 0xfffffc92
    21c8:	6e5c6564 	cdpvs	5, 5, cr6, cr12, cr4, {3}
    21cc:	696c7765 	stmdbvs	ip!, {r0, r2, r5, r6, r8, r9, sl, ip, sp, lr}^
    21d0:	616e2d62 	cmnvs	lr, r2, ror #26
    21d4:	67006f6e 	strvs	r6, [r0, -lr, ror #30]
    21d8:	6e655c3a 	mcrvs	12, 3, r5, cr5, cr10, {1}
    21dc:	2d74732e 	ldclcs	3, cr7, [r4, #-184]!	; 0xffffff48
    21e0:	336d7473 	cmncc	sp, #1929379840	; 0x73000000
    21e4:	62756332 	rsbsvs	r6, r5, #-939524096	; 0xc8000000
    21e8:	65646965 	strbvs	r6, [r4, #-2405]!	; 0xfffff69b
    21ec:	342e315f 	strtcc	r3, [lr], #-351	; 0xfffffea1
    21f0:	375f302e 	ldrbcc	r3, [pc, -lr, lsr #32]
    21f4:	5f313135 	svcpl	0x00313135
    21f8:	30323032 	eorscc	r3, r2, r2, lsr r0
    21fc:	30323730 	eorscc	r3, r2, r0, lsr r7
    2200:	3239305f 	eorscc	r3, r9, #95	; 0x5f
    2204:	38785f38 	ldmdacc	r8!, {r3, r4, r5, r8, r9, sl, fp, ip, lr}^
    2208:	34365f36 	ldrtcc	r5, [r6], #-3894	; 0xfffff0ca
    220c:	6578655f 	ldrbvs	r6, [r8, #-1375]!	; 0xfffffaa1
    2210:	6d74735c 	ldclvs	3, cr7, [r4, #-368]!	; 0xfffffe90
    2214:	75633233 	strbvc	r3, [r3, #-563]!	; 0xfffffdcd
    2218:	64696562 	strbtvs	r6, [r9], #-1378	; 0xfffffa9e
    221c:	2e315f65 	cdpcs	15, 3, cr5, cr1, cr5, {3}
    2220:	5c302e34 	ldcpl	14, cr2, [r0], #-208	; 0xffffff30
    2224:	336d7473 	cmncc	sp, #1929379840	; 0x73000000
    2228:	62756332 	rsbsvs	r6, r5, #-939524096	; 0xc8000000
    222c:	65646965 	strbvs	r6, [r4, #-2405]!	; 0xfffff69b
    2230:	756c705c 	strbvc	r7, [ip, #-92]!	; 0xffffffa4
    2234:	736e6967 	cmnvc	lr, #1687552	; 0x19c000
    2238:	6d6f635c 	stclvs	3, cr6, [pc, #-368]!	; 20d0 <_Min_Stack_Size+0x1cd0>
    223c:	2e74732e 	cdpcs	3, 7, cr7, cr4, cr14, {1}
    2240:	336d7473 	cmncc	sp, #1929379840	; 0x73000000
    2244:	62756332 	rsbsvs	r6, r5, #-939524096	; 0xc8000000
    2248:	64692e65 	strbtvs	r2, [r9], #-3685	; 0xfffff19b
    224c:	636d2e65 	cmnvs	sp, #1616	; 0x650
    2250:	78652e75 	stmdavc	r5!, {r0, r2, r4, r5, r6, r9, sl, fp, sp}^
    2254:	6e726574 	mrcvs	5, 3, r6, cr2, cr4, {3}
    2258:	6f746c61 	svcvs	0x00746c61
    225c:	2e736c6f 	cdpcs	12, 7, cr6, cr3, cr15, {3}
    2260:	2d756e67 	ldclcs	14, cr6, [r5, #-412]!	; 0xfffffe64
    2264:	6c6f6f74 	stclvs	15, cr6, [pc], #-464	; 209c <_Min_Stack_Size+0x1c9c>
    2268:	6f662d73 	svcvs	0x00662d73
    226c:	74732d72 	ldrbtvc	r2, [r3], #-3442	; 0xfffff28e
    2270:	2e32336d 	cdpcs	3, 3, cr3, cr2, cr13, {3}
    2274:	332e3031 			; <UNDEFINED> instruction: 0x332e3031
    2278:	3230322d 	eorscc	r3, r0, #-805306366	; 0xd0000002
    227c:	30312e31 	eorscc	r2, r1, r1, lsr lr
    2280:	6e69772e 	cdpvs	7, 6, cr7, cr9, cr14, {1}
    2284:	315f3233 	cmpcc	pc, r3, lsr r2	; <UNPREDICTABLE>
    2288:	322e302e 	eorcc	r3, lr, #46	; 0x2e
    228c:	322e3030 	eorcc	r3, lr, #48	; 0x30
    2290:	30333230 	eorscc	r3, r3, r0, lsr r2
    2294:	31363131 	teqcc	r6, r1, lsr r1
    2298:	5c333030 	ldcpl	0, cr3, [r3], #-192	; 0xffffff40
    229c:	6c6f6f74 	stclvs	15, cr6, [pc], #-464	; 20d4 <_Min_Stack_Size+0x1cd4>
    22a0:	696c5c73 	stmdbvs	ip!, {r0, r1, r4, r5, r6, sl, fp, ip, lr}^
    22a4:	63675c62 	cmnvs	r7, #25088	; 0x6200
    22a8:	72615c63 	rsbvc	r5, r1, #25344	; 0x6300
    22ac:	6f6e2d6d 	svcvs	0x006e2d6d
    22b0:	652d656e 	strvs	r6, [sp, #-1390]!	; 0xfffffa92
    22b4:	5c696261 	sfmpl	f6, 2, [r9], #-388	; 0xfffffe7c
    22b8:	332e3031 			; <UNDEFINED> instruction: 0x332e3031
    22bc:	695c312e 	ldmdbvs	ip, {r1, r2, r3, r5, r8, ip, sp}^
    22c0:	756c636e 	strbvc	r6, [ip, #-878]!	; 0xfffffc92
    22c4:	00006564 	andeq	r6, r0, r4, ror #10
    22c8:	336d7473 	cmncc	sp, #1929379840	; 0x73000000
    22cc:	31665f32 	cmncc	r6, r2, lsr pc
    22d0:	36633330 			; <UNDEFINED> instruction: 0x36633330
    22d4:	6972645f 	ldmdbvs	r2!, {r0, r1, r2, r3, r4, r6, sl, sp, lr}^
    22d8:	73726576 	cmnvc	r2, #494927872	; 0x1d800000
    22dc:	6970675f 	ldmdbvs	r0!, {r0, r1, r2, r3, r4, r6, r8, r9, sl, sp, lr}^
    22e0:	00632e6f 	rsbeq	r2, r3, pc, ror #28
    22e4:	5f000001 	svcpl	0x00000001
    22e8:	61666564 	cmnvs	r6, r4, ror #10
    22ec:	5f746c75 	svcpl	0x00746c75
    22f0:	65707974 	ldrbvs	r7, [r0, #-2420]!	; 0xfffff68c
    22f4:	00682e73 	rsbeq	r2, r8, r3, ror lr
    22f8:	5f000002 	svcpl	0x00000002
    22fc:	69647473 	stmdbvs	r4!, {r0, r1, r4, r5, r6, sl, ip, sp, lr}^
    2300:	682e746e 	stmdavs	lr!, {r1, r2, r3, r5, r6, sl, ip, sp, lr}
    2304:	00000300 	andeq	r0, r0, r0, lsl #6
    2308:	336d7473 	cmncc	sp, #1929379840	; 0x73000000
    230c:	31665f32 	cmncc	r6, r2, lsr pc
    2310:	36783330 			; <UNDEFINED> instruction: 0x36783330
    2314:	0400682e 	streq	r6, [r0], #-2094	; 0xfffff7d2
    2318:	74730000 	ldrbtvc	r0, [r3], #-0
    231c:	5f32336d 	svcpl	0x0032336d
    2320:	33303166 	teqcc	r0, #-2147483623	; 0x80000019
    2324:	645f3663 	ldrbvs	r3, [pc], #-1635	; 232c <_Min_Stack_Size+0x1f2c>
    2328:	65766972 	ldrbvs	r6, [r6, #-2418]!	; 0xfffff68e
    232c:	475f7372 			; <UNDEFINED> instruction: 0x475f7372
    2330:	2e4f4950 			; <UNDEFINED> instruction: 0x2e4f4950
    2334:	00040068 	andeq	r0, r4, r8, rrx
    2338:	64747300 	ldrbtvs	r7, [r4], #-768	; 0xfffffd00
    233c:	2e62696c 	vnmulcs.f16	s13, s4, s25	; <UNPREDICTABLE>
    2340:	00050068 	andeq	r0, r5, r8, rrx
    2344:	65656900 	strbvs	r6, [r5, #-2304]!	; 0xfffff700
    2348:	2e706665 	cdpcs	6, 7, cr6, cr0, cr5, {3}
    234c:	00020068 	andeq	r0, r2, r8, rrx
    2350:	6e615f00 	cdpvs	15, 6, cr5, cr1, cr0, {0}
    2354:	682e6973 	stmdavs	lr!, {r0, r1, r4, r5, r6, r8, fp, sp, lr}
    2358:	00000500 	andeq	r0, r0, r0, lsl #10
    235c:	6c77656e 	cfldr64vs	mvdx6, [r7], #-440	; 0xfffffe48
    2360:	682e6269 	stmdavs	lr!, {r0, r3, r5, r6, r9, sp, lr}
    2364:	00000600 	andeq	r0, r0, r0, lsl #12
    2368:	77656e5f 			; <UNDEFINED> instruction: 0x77656e5f
    236c:	5f62696c 	svcpl	0x0062696c
    2370:	73726576 	cmnvc	r2, #494927872	; 0x1d800000
    2374:	2e6e6f69 	cdpcs	15, 6, cr6, cr14, cr9, {3}
    2378:	00050068 	andeq	r0, r5, r8, rrx
    237c:	6e6f6300 	cdpvs	3, 6, cr6, cr15, cr0, {0}
    2380:	2e676966 	vnmulcs.f16	s13, s14, s13	; <UNPREDICTABLE>
    2384:	00030068 	andeq	r0, r3, r8, rrx
    2388:	61656600 	cmnvs	r5, r0, lsl #12
    238c:	65727574 	ldrbvs	r7, [r2, #-1396]!	; 0xfffffa8c
    2390:	00682e73 	rsbeq	r2, r8, r3, ror lr
    2394:	73000003 	movwvc	r0, #3
    2398:	65646474 	strbvs	r6, [r4, #-1140]!	; 0xfffffb8c
    239c:	00682e66 	rsbeq	r2, r8, r6, ror #28
    23a0:	72000007 	andvc	r0, r0, #7
    23a4:	746e6565 	strbtvc	r6, [lr], #-1381	; 0xfffffa9b
    23a8:	0300682e 	movweq	r6, #2094	; 0x82e
    23ac:	745f0000 	ldrbvc	r0, [pc], #-0	; 23b4 <_Min_Stack_Size+0x1fb4>
    23b0:	73657079 	cmnvc	r5, #121	; 0x79
    23b4:	0300682e 	movweq	r6, #2094	; 0x82e
    23b8:	745f0000 	ldrbvc	r0, [pc], #-0	; 23c0 <_Min_Stack_Size+0x1fc0>
    23bc:	73657079 	cmnvc	r5, #121	; 0x79
    23c0:	0200682e 	andeq	r6, r0, #3014656	; 0x2e0000
    23c4:	6f6c0000 	svcvs	0x006c0000
    23c8:	682e6b63 	stmdavs	lr!, {r0, r1, r5, r6, r8, r9, fp, sp, lr}
    23cc:	00000300 	andeq	r0, r0, r0, lsl #6
    23d0:	65737361 	ldrbvs	r7, [r3, #-865]!	; 0xfffffc9f
    23d4:	682e7472 	stmdavs	lr!, {r1, r4, r5, r6, sl, ip, sp, lr}
    23d8:	00000500 	andeq	r0, r0, r0, lsl #10
    23dc:	66656463 	strbtvs	r6, [r5], -r3, ror #8
    23e0:	00682e73 	rsbeq	r2, r8, r3, ror lr
    23e4:	73000003 	movwvc	r0, #3
    23e8:	696c6474 	stmdbvs	ip!, {r2, r4, r5, r6, sl, sp, lr}^
    23ec:	00682e62 	rsbeq	r2, r8, r2, ror #28
    23f0:	61000002 	tstvs	r0, r2
    23f4:	636f6c6c 	cmnvs	pc, #108, 24	; 0x6c00
    23f8:	00682e61 	rsbeq	r2, r8, r1, ror #28
    23fc:	73000005 	movwvc	r0, #5
    2400:	6e696474 	mcrvs	4, 3, r6, cr9, cr4, {3}
    2404:	00682e74 	rsbeq	r2, r8, r4, ror lr
    2408:	73000007 	movwvc	r0, #7
    240c:	6e696474 	mcrvs	4, 3, r6, cr9, cr4, {3}
    2410:	00682e74 	rsbeq	r2, r8, r4, ror lr
    2414:	5f000005 	svcpl	0x00000005
    2418:	73746e69 	cmnvc	r4, #1680	; 0x690
    241c:	682e7075 	stmdavs	lr!, {r0, r2, r4, r5, r6, ip, sp, lr}
    2420:	00000300 	andeq	r0, r0, r0, lsl #6
    2424:	00010500 	andeq	r0, r1, r0, lsl #10
    2428:	09f00205 	ldmibeq	r0!, {r0, r2, r9}^
    242c:	17030800 	strne	r0, [r3, -r0, lsl #16]
    2430:	59020501 	stmdbpl	r2, {r0, r8, sl}
    2434:	8c020a05 			; <UNDEFINED> instruction: 0x8c020a05
    2438:	31311501 	teqcc	r1, r1, lsl #10
    243c:	31313131 	teqcc	r1, r1, lsr r1
    2440:	31313131 	teqcc	r1, r1, lsr r1
    2444:	31313131 	teqcc	r1, r1, lsr r1
    2448:	31090531 	tstcc	r9, r1, lsr r5
    244c:	02210105 	eoreq	r0, r1, #1073741825	; 0x40000001
    2450:	01010005 	tsteq	r1, r5
    2454:	05000105 	streq	r0, [r0, #-261]	; 0xfffffefb
    2458:	000b6002 	andeq	r6, fp, r2
    245c:	00d10308 	sbcseq	r0, r1, r8, lsl #6
    2460:	59160501 	ldmdbpl	r6, {r0, r8, sl}
    2464:	052f0a05 	streq	r0, [pc, #-2565]!	; 1a67 <_Min_Stack_Size+0x1667>
    2468:	4d052f1e 	stcmi	15, cr2, [r5, #-120]	; 0xffffff88
    246c:	0402002e 	streq	r0, [r2], #-46	; 0xffffffd2
    2470:	002e0601 	eoreq	r0, lr, r1, lsl #12
    2474:	2e020402 	cdpcs	4, 0, cr0, cr2, cr2, {0}
    2478:	02001105 	andeq	r1, r0, #1073741825	; 0x40000001
    247c:	2e060404 	cdpcs	4, 0, cr0, cr6, cr4, {0}
    2480:	02002005 	andeq	r2, r0, #5
    2484:	05230404 	streq	r0, [r3, #-1028]!	; 0xfffffbfc
    2488:	0402001c 	streq	r0, [r2], #-28	; 0xffffffe4
    248c:	16057404 	strne	r7, [r5], -r4, lsl #8
    2490:	04040200 	streq	r0, [r4], #-512	; 0xfffffe00
    2494:	0013052e 	andseq	r0, r3, lr, lsr #10
    2498:	20040402 	andcs	r0, r4, r2, lsl #8
    249c:	02000f05 	andeq	r0, r0, #5, 30
    24a0:	055b0404 	ldrbeq	r0, [fp, #-1028]	; 0xfffffbfc
    24a4:	04020004 	streq	r0, [r2], #-4
    24a8:	3f052e04 	svccc	0x00052e04
    24ac:	01040200 	mrseq	r0, R12_usr
    24b0:	0033052e 	eorseq	r0, r3, lr, lsr #10
    24b4:	2e010402 	cdpcs	4, 0, cr0, cr1, cr2, {0}
    24b8:	02006e05 	andeq	r6, r0, #5, 28	; 0x50
    24bc:	052e0204 	streq	r0, [lr, #-516]!	; 0xfffffdfc
    24c0:	04020062 	streq	r0, [r2], #-98	; 0xffffff9e
    24c4:	a0052e02 	andge	r2, r5, r2, lsl #28
    24c8:	04020001 	streq	r0, [r2], #-1
    24cc:	94052e03 	strls	r2, [r5], #-3587	; 0xfffff1fd
    24d0:	04020001 	streq	r0, [r2], #-1
    24d4:	1d052e03 	stcne	14, cr2, [r5, #-12]
    24d8:	2e290531 	mcrcs	5, 1, r0, cr9, cr1, {1}
    24dc:	05202e05 	streq	r2, [r0, #-3589]!	; 0xfffff1fb
    24e0:	40052033 	andmi	r2, r5, r3, lsr r0
    24e4:	3c560520 	cfldr64cc	mvdx0, [r6], {32}
    24e8:	053c3305 	ldreq	r3, [ip, #-773]!	; 0xfffffcfb
    24ec:	11052e0e 	tstne	r5, lr, lsl #28
    24f0:	2e050536 	mcrcs	5, 0, r0, cr5, cr6, {1}
    24f4:	02003f05 	andeq	r3, r0, #5, 30
    24f8:	052e0104 	streq	r0, [lr, #-260]!	; 0xfffffefc
    24fc:	04020032 	streq	r0, [r2], #-50	; 0xffffffce
    2500:	1d052e01 	stcne	14, cr2, [r5, #-4]
    2504:	2e0f0530 	cfmv64hrcs	mvdx15, r0
    2508:	053f1505 	ldreq	r1, [pc, #-1285]!	; 200b <_Min_Stack_Size+0x1c0b>
    250c:	0f052e0a 	svceq	0x00052e0a
    2510:	10054130 	andne	r4, r5, r0, lsr r1
    2514:	2e06052f 	cfsh32cs	mvfx0, mvfx6, #31
    2518:	05311005 	ldreq	r1, [r1, #-5]!
    251c:	10052e1c 	andne	r2, r5, ip, lsl lr
    2520:	1e054d2e 	cdpne	13, 0, cr4, cr5, cr14, {1}
    2524:	2e13052e 	cfmul64cs	mvdx0, mvdx3, mvdx14
    2528:	05201005 	streq	r1, [r0, #-5]!
    252c:	29054126 	stmdbcs	r5, {r1, r2, r5, r8, lr}
    2530:	66260520 	strtvs	r0, [r6], -r0, lsr #10
    2534:	052e1405 	streq	r1, [lr, #-1029]!	; 0xfffffbfb
    2538:	04025a01 	streq	r5, [r2], #-2561	; 0xfffff5ff
    253c:	05010100 	streq	r0, [r1, #-256]	; 0xffffff00
    2540:	02050001 	andeq	r0, r5, #1
    2544:	00000000 	andeq	r0, r0, r0
    2548:	01018b03 	tsteq	r1, r3, lsl #22
    254c:	054b0405 	strbeq	r0, [fp, #-1029]	; 0xfffffbfb
    2550:	05674b11 	strbeq	r4, [r7, #-2833]!	; 0xfffff4ef
    2554:	11056904 	tstne	r5, r4, lsl #18
    2558:	0405674b 	streq	r6, [r5], #-1867	; 0xfffff8b5
    255c:	4b110569 	blmi	443b08 <_Min_Stack_Size+0x443708>
    2560:	69040567 	stmdbvs	r4, {r0, r1, r2, r5, r6, r8, sl}
    2564:	674b1105 	strbvs	r1, [fp, -r5, lsl #2]
    2568:	05690405 	strbeq	r0, [r9, #-1029]!	; 0xfffffbfb
    256c:	05674b11 	strbeq	r4, [r7, #-2833]!	; 0xfffff4ef
    2570:	12026801 	andne	r6, r2, #65536	; 0x10000
    2574:	05010100 	streq	r0, [r1, #-256]	; 0xffffff00
    2578:	02050001 	andeq	r0, r5, #1
    257c:	00000000 	andeq	r0, r0, r0
    2580:	0101b203 	tsteq	r1, r3, lsl #4
    2584:	05680c05 	strbeq	r0, [r8, #-3077]!	; 0xfffff3fb
    2588:	04052e12 	streq	r2, [r5], #-3602	; 0xfffff1ee
    258c:	2f0d052e 	svccs	0x000d052e
    2590:	3109053e 	tstcc	r9, lr, lsr r5
    2594:	02210105 	eoreq	r0, r1, #1073741825	; 0x40000001
    2598:	01010005 	tsteq	r1, r5
    259c:	05000105 	streq	r0, [r0, #-261]	; 0xfffffefb
    25a0:	00000002 	andeq	r0, r0, r2
    25a4:	01c90300 	biceq	r0, r9, r0, lsl #6
    25a8:	4c1e0501 	cfldr32mi	mvfx0, [lr], {1}
    25ac:	052e0c05 	streq	r0, [lr, #-3077]!	; 0xfffff3fb
    25b0:	01052109 	tsteq	r5, r9, lsl #2
    25b4:	00050221 	andeq	r0, r5, r1, lsr #4
    25b8:	01050101 	tsteq	r5, r1, lsl #2
    25bc:	00020500 	andeq	r0, r2, r0, lsl #10
    25c0:	03000000 	movweq	r0, #0
    25c4:	050101dc 	streq	r0, [r1, #-476]	; 0xfffffe24
    25c8:	0d05670f 	stceq	7, cr6, [r5, #-60]	; 0xffffffc4
    25cc:	2f010520 	svccs	0x00010520
    25d0:	01000502 	tsteq	r0, r2, lsl #10
    25d4:	00010501 	andeq	r0, r1, r1, lsl #10
    25d8:	00000205 	andeq	r0, r0, r5, lsl #4
    25dc:	eb030000 	bl	c25e4 <_Min_Stack_Size+0xc21e4>
    25e0:	04050101 	streq	r0, [r5], #-257	; 0xfffffeff
    25e4:	44100583 	ldrmi	r0, [r0], #-1411	; 0xfffffa7d
    25e8:	05200f05 	streq	r0, [r0, #-3845]!	; 0xfffff0fb
    25ec:	2e090301 	cdpcs	3, 0, cr0, cr9, cr1, {0}
    25f0:	051e0f05 	ldreq	r0, [lr, #-3845]	; 0xfffff0fb
    25f4:	0105200e 	tsteq	r5, lr
    25f8:	00050230 	andeq	r0, r5, r0, lsr r2
    25fc:	01050101 	tsteq	r5, r1, lsl #2
    2600:	00020500 	andeq	r0, r2, r0, lsl #10
    2604:	03000000 	movweq	r0, #0
    2608:	0501028a 	streq	r0, [r1, #-650]	; 0xfffffd76
    260c:	0105670d 	tsteq	r5, sp, lsl #14
    2610:	00050267 	andeq	r0, r5, r7, ror #4
    2614:	Address 0x0000000000002614 is out of bounds.


Disassembly of section .debug_str:

00000000 <.debug_str>:
       0:	4e475f5f 	mcrmi	15, 2, r5, cr7, cr15, {2}
       4:	494c4355 	stmdbmi	ip, {r0, r2, r4, r6, r8, r9, lr}^
       8:	5f5f454b 	svcpl	0x005f454b
       c:	4345535f 	movtmi	r5, #21343	; 0x535f
      10:	4e4f4954 			; <UNDEFINED> instruction: 0x4e4f4954
      14:	57003120 	strpl	r3, [r0, -r0, lsr #2]
      18:	5f544e49 	svcpl	0x00544e49
      1c:	204e494d 	subcs	r4, lr, sp, asr #18
      20:	575f5f28 	ldrbpl	r5, [pc, -r8, lsr #30]
      24:	5f544e49 	svcpl	0x00544e49
      28:	5f4e494d 	svcpl	0x004e494d
      2c:	5f00295f 	svcpl	0x0000295f
      30:	4345445f 	movtmi	r4, #21599	; 0x545f
      34:	4c414d49 	mcrrmi	13, 4, r4, r1, cr9
      38:	4749445f 	smlsldmi	r4, r9, pc, r4	; <UNPREDICTABLE>
      3c:	31205f5f 			; <UNDEFINED> instruction: 0x31205f5f
      40:	656c0037 	strbvs	r0, [ip, #-55]!	; 0xffffffc9
      44:	006c6576 	rsbeq	r6, ip, r6, ror r5
      48:	48555f5f 	ldmdami	r5, {r0, r1, r2, r3, r4, r6, r8, r9, sl, fp, ip, lr}^
      4c:	42465f41 	submi	r5, r6, #260	; 0x104
      50:	5f5f5449 	svcpl	0x005f5449
      54:	5f003820 	svcpl	0x00003820
      58:	4956535f 	ldmdbmi	r6, {r0, r1, r2, r3, r4, r6, r8, r9, ip, lr}^
      5c:	49565f44 	ldmdbmi	r6, {r2, r6, r8, r9, sl, fp, ip, lr}^
      60:	4c424953 	mcrrmi	9, 5, r4, r2, cr3	; <UNPREDICTABLE>
      64:	00312045 	eorseq	r2, r1, r5, asr #32
      68:	6e695f5f 	mcrvs	15, 3, r5, cr9, cr15, {2}
      6c:	20303274 	eorscs	r3, r0, r4, ror r2
      70:	5f00322b 	svcpl	0x0000322b
      74:	544c465f 	strbpl	r4, [ip], #-1631	; 0xfffff9a1
      78:	445f3436 	ldrbmi	r3, [pc], #-1078	; 80 <_Min_Heap_Size-0x180>
      7c:	524f4e45 	subpl	r4, pc, #1104	; 0x450
      80:	494d5f4d 	stmdbmi	sp, {r0, r2, r3, r6, r8, r9, sl, fp, ip, lr}^
      84:	205f5f4e 	subscs	r5, pc, lr, asr #30
      88:	34392e34 	ldrtcc	r2, [r9], #-3636	; 0xfffff1cc
      8c:	36353630 			; <UNDEFINED> instruction: 0x36353630
      90:	34383534 	ldrtcc	r3, [r8], #-1332	; 0xfffffacc
      94:	36343231 			; <UNDEFINED> instruction: 0x36343231
      98:	2d653435 	cfstrdcs	mvd3, [r5, #-212]!	; 0xffffff2c
      9c:	46343233 			; <UNDEFINED> instruction: 0x46343233
      a0:	5f003436 	svcpl	0x00003436
      a4:	5f43435f 	svcpl	0x0043435f
      a8:	50505553 	subspl	r5, r0, r3, asr r5
      ac:	5354524f 	cmppl	r4, #-268435452	; 0xf0000004
      b0:	4c4e495f 	mcrrmi	9, 5, r4, lr, cr15	; <UNPREDICTABLE>
      b4:	20454e49 	subcs	r4, r5, r9, asr #28
      b8:	50470031 	subpl	r0, r7, r1, lsr r0
      bc:	505f4f49 	subspl	r4, pc, r9, asr #30
      c0:	6d5f4e49 	ldclvs	14, cr4, [pc, #-292]	; ffffffa4 <_estack+0xdfffd7a4>
      c4:	206b7361 	rsbcs	r7, fp, r1, ror #6
      c8:	30307830 	eorscc	r7, r0, r0, lsr r8
      cc:	46463030 			; <UNDEFINED> instruction: 0x46463030
      d0:	00754646 	rsbseq	r4, r5, r6, asr #12
      d4:	43475f5f 	movtmi	r5, #32607	; 0x7f5f
      d8:	54415f43 	strbpl	r5, [r1], #-3907	; 0xfffff0bd
      dc:	43494d4f 	movtmi	r4, #40271	; 0x9d4f
      e0:	4843575f 	stmdami	r3, {r0, r1, r2, r3, r4, r6, r8, r9, sl, ip, lr}^
      e4:	545f5241 	ldrbpl	r5, [pc], #-577	; ec <_Min_Heap_Size-0x114>
      e8:	434f4c5f 	movtmi	r4, #64607	; 0xfc5f
      ec:	52465f4b 	subpl	r5, r6, #300	; 0x12c
      f0:	32204545 	eorcc	r4, r0, #289406976	; 0x11400000
      f4:	435f5f00 	cmpmi	pc, #0, 30
      f8:	5f524148 	svcpl	0x00524148
      fc:	49534e55 	ldmdbmi	r3, {r0, r2, r4, r6, r9, sl, fp, lr}^
     100:	44454e47 	strbmi	r4, [r5], #-3655	; 0xfffff1b9
     104:	31205f5f 			; <UNDEFINED> instruction: 0x31205f5f
     108:	775f5f00 	ldrbvc	r5, [pc, -r0, lsl #30]
     10c:	5f6b6165 	svcpl	0x006b6165
     110:	626d7973 	rsbvs	r7, sp, #1884160	; 0x1cc000
     114:	5f206c6f 	svcpl	0x00206c6f
     118:	7474615f 	ldrbtvc	r6, [r4], #-351	; 0xfffffea1
     11c:	75626972 	strbvc	r6, [r2, #-2418]!	; 0xfffff68e
     120:	5f5f6574 	svcpl	0x005f6574
     124:	5f5f2828 	svcpl	0x005f2828
     128:	6b616577 	blvs	185970c <_Min_Stack_Size+0x185930c>
     12c:	29295f5f 	stmdbcs	r9!, {r0, r1, r2, r3, r4, r6, r8, r9, sl, fp, ip, lr}
     130:	465f5f00 	ldrbmi	r5, [pc], -r0, lsl #30
     134:	3436544c 	ldrtcc	r5, [r6], #-1100	; 0xfffffbb4
     138:	5341485f 	movtpl	r4, #6239	; 0x185f
     13c:	464e495f 			; <UNDEFINED> instruction: 0x464e495f
     140:	54494e49 	strbpl	r4, [r9], #-3657	; 0xfffff1b7
     144:	205f5f59 	subscs	r5, pc, r9, asr pc	; <UNPREDICTABLE>
     148:	53550031 	cmppl	r5, #49	; 0x31
     14c:	33545241 	cmpcc	r4, #268435460	; 0x10000004
     150:	5341425f 	movtpl	r4, #4703	; 0x125f
     154:	78302045 	ldmdavc	r0!, {r0, r2, r6, sp}
     158:	30303034 	eorscc	r3, r0, r4, lsr r0
     15c:	30303434 	eorscc	r3, r0, r4, lsr r4
     160:	5f5f0075 	svcpl	0x005f0075
     164:	75716572 	ldrbvc	r6, [r1, #-1394]!	; 0xfffffa8e
     168:	73657269 	cmnvc	r5, #-1879048186	; 0x90000006
     16c:	6378655f 	cmnvs	r8, #398458880	; 0x17c00000
     170:	6973756c 	ldmdbvs	r3!, {r2, r3, r5, r6, r8, sl, ip, sp, lr}^
     174:	2e286576 	mcrcs	5, 1, r6, cr8, cr6, {3}
     178:	20292e2e 	eorcs	r2, r9, lr, lsr #28
     17c:	6f6c5f5f 	svcvs	0x006c5f5f
     180:	615f6b63 	cmpvs	pc, r3, ror #22
     184:	746f6e6e 	strbtvc	r6, [pc], #-3694	; 18c <_Min_Heap_Size-0x74>
     188:	28657461 	stmdacs	r5!, {r0, r5, r6, sl, ip, sp, lr}^
     18c:	6c637865 	stclvs	8, cr7, [r3], #-404	; 0xfffffe6c
     190:	76697375 			; <UNDEFINED> instruction: 0x76697375
     194:	6f6c5f65 	svcvs	0x006c5f65
     198:	5f736b63 	svcpl	0x00736b63
     19c:	75716572 	ldrbvc	r6, [r1, #-1394]!	; 0xfffffa8e
     1a0:	64657269 	strbtvs	r7, [r5], #-617	; 0xfffffd97
     1a4:	565f5f28 	ldrbpl	r5, [pc], -r8, lsr #30
     1a8:	52415f41 	subpl	r5, r1, #260	; 0x104
     1ac:	5f5f5347 	svcpl	0x005f5347
     1b0:	5f002929 	svcpl	0x00002929
     1b4:	4e454552 	mcrmi	5, 2, r4, cr5, cr2, {2}
     1b8:	41525f54 	cmpmi	r2, r4, asr pc
     1bc:	3834444e 	ldmdacc	r4!, {r1, r2, r3, r6, sl, lr}
     1c0:	4444415f 	strbmi	r4, [r4], #-351	; 0xfffffea1
     1c4:	72747028 	rsbsvc	r7, r4, #40	; 0x28
     1c8:	28282029 	stmdacs	r8!, {r0, r3, r5, sp}
     1cc:	29727470 	ldmdbcs	r2!, {r4, r5, r6, sl, ip, sp, lr}^
     1d0:	725f3e2d 	subsvc	r3, pc, #720	; 0x2d0
     1d4:	3e2d3834 	mcrcc	8, 1, r3, cr13, cr4, {1}
     1d8:	6464615f 	strbtvs	r6, [r4], #-351	; 0xfffffea1
     1dc:	4e490029 	cdpmi	0, 4, cr0, cr9, cr9, {1}
     1e0:	5f363154 	svcpl	0x00363154
     1e4:	204e494d 	subcs	r4, lr, sp, asr #18
     1e8:	5f5f2d28 	svcpl	0x005f2d28
     1ec:	31544e49 	cmpcc	r4, r9, asr #28
     1f0:	414d5f36 	cmpmi	sp, r6, lsr pc
     1f4:	205f5f58 	subscs	r5, pc, r8, asr pc	; <UNPREDICTABLE>
     1f8:	2931202d 	ldmdbcs	r1!, {r0, r2, r3, r5, sp}
     1fc:	4c5f5f00 	mrrcmi	15, 0, r5, pc, cr0	; <UNPREDICTABLE>
     200:	4343414c 	movtmi	r4, #12620	; 0x314c
     204:	4d5f4d55 	ldclmi	13, cr4, [pc, #-340]	; b8 <_Min_Heap_Size-0x148>
     208:	5f5f4e49 	svcpl	0x005f4e49
     20c:	302d2820 	eorcc	r2, sp, r0, lsr #16
     210:	33503158 	cmpcc	r0, #88, 2
     214:	4b4c4c31 	blmi	13132e0 <_Min_Stack_Size+0x1312ee0>
     218:	3158302d 	cmpcc	r8, sp, lsr #32
     21c:	4c313350 	ldcmi	3, cr3, [r1], #-320	; 0xfffffec0
     220:	00294b4c 	eoreq	r4, r9, ip, asr #22
     224:	54524f43 	ldrbpl	r4, [r2], #-3907	; 0xfffff0bd
     228:	4d5f5845 	ldclmi	8, cr5, [pc, #-276]	; 11c <_Min_Heap_Size-0xe4>
     22c:	4e495f33 	mcrmi	15, 2, r5, cr9, cr3, {1}
     230:	4e524554 	mrcmi	5, 2, r4, cr2, cr4, {2}
     234:	505f4c41 	subspl	r4, pc, r1, asr #24
     238:	50495245 	subpl	r5, r9, r5, asr #4
     23c:	41524548 	cmpmi	r2, r8, asr #10
     240:	425f534c 	subsmi	r5, pc, #76, 6	; 0x30000001
     244:	20455341 	subcs	r5, r5, r1, asr #6
     248:	30457830 	subcc	r7, r5, r0, lsr r8
     24c:	30303030 	eorscc	r3, r0, r0, lsr r0
     250:	00753030 	rsbseq	r3, r5, r0, lsr r0
     254:	4f4c5f5f 	svcmi	0x004c5f5f
     258:	495f4b43 	ldmdbmi	pc, {r0, r1, r6, r8, r9, fp, lr}^	; <UNPREDICTABLE>
     25c:	2854494e 	ldmdacs	r4, {r1, r2, r3, r6, r8, fp, lr}^
     260:	73616c63 	cmnvc	r1, #25344	; 0x6300
     264:	6f6c2c73 	svcvs	0x006c2c73
     268:	20296b63 	eorcs	r6, r9, r3, ror #22
     26c:	65747865 	ldrbvs	r7, [r4, #-2149]!	; 0xfffff79b
     270:	73206e72 			; <UNDEFINED> instruction: 0x73206e72
     274:	63757274 	cmnvs	r5, #116, 4	; 0x40000007
     278:	5f5f2074 	svcpl	0x005f2074
     27c:	6b636f6c 	blvs	18dc034 <_Min_Stack_Size+0x18dbc34>
     280:	6c5f5f20 	mrrcvs	15, 2, r5, pc, cr0	; <UNPREDICTABLE>
     284:	5f6b636f 	svcpl	0x006b636f
     288:	20232320 	eorcs	r2, r3, r0, lsr #6
     28c:	6b636f6c 	blvs	18dc044 <_Min_Stack_Size+0x18dbc44>
     290:	6c63203b 	stclvs	0, cr2, [r3], #-236	; 0xffffff14
     294:	20737361 	rsbscs	r7, r3, r1, ror #6
     298:	434f4c5f 	movtmi	r4, #64607	; 0xfc5f
     29c:	20545f4b 	subscs	r5, r4, fp, asr #30
     2a0:	6b636f6c 	blvs	18dc058 <_Min_Stack_Size+0x18dbc58>
     2a4:	26203d20 	strtcs	r3, [r0], -r0, lsr #26
     2a8:	6f6c5f5f 	svcvs	0x006c5f5f
     2ac:	205f6b63 	subscs	r6, pc, r3, ror #22
     2b0:	6c202323 	stcvs	3, cr2, [r0], #-140	; 0xffffff74
     2b4:	006b636f 	rsbeq	r6, fp, pc, ror #6
     2b8:	54505f5f 	ldrbpl	r5, [r0], #-3935	; 0xfffff0a1
     2bc:	46494452 			; <UNDEFINED> instruction: 0x46494452
     2c0:	414d5f46 	cmpmi	sp, r6, asr #30
     2c4:	205f5f58 	subscs	r5, pc, r8, asr pc	; <UNPREDICTABLE>
     2c8:	66377830 			; <UNDEFINED> instruction: 0x66377830
     2cc:	66666666 	strbtvs	r6, [r6], -r6, ror #12
     2d0:	42006666 	andmi	r6, r0, #106954752	; 0x6600000
     2d4:	52647561 	rsbpl	r7, r4, #406847488	; 0x18400000
     2d8:	5f657461 	svcpl	0x00657461
     2dc:	32353131 	eorscc	r3, r5, #1073741836	; 0x4000000c
     2e0:	31203030 			; <UNDEFINED> instruction: 0x31203030
     2e4:	30323531 	eorscc	r3, r2, r1, lsr r5
     2e8:	4c5f0030 	mrrcmi	0, 3, r0, pc, cr0	; <UNPREDICTABLE>
     2ec:	5f474e4f 	svcpl	0x00474e4f
     2f0:	42554f44 	subsmi	r4, r5, #68, 30	; 0x110
     2f4:	6c20454c 	cfstr32vs	mvfx4, [r0], #-304	; 0xfffffed0
     2f8:	20676e6f 	rsbcs	r6, r7, pc, ror #28
     2fc:	62756f64 	rsbsvs	r6, r5, #100, 30	; 0x190
     300:	4500656c 	strmi	r6, [r0, #-1388]	; 0xfffffa94
     304:	39495458 	stmdbcc	r9, {r3, r4, r6, sl, ip, lr}^
     308:	5152495f 	cmppl	r2, pc, asr r9
     30c:	00333220 	eorseq	r3, r3, r0, lsr #4
     310:	4e495f5f 	mcrmi	15, 2, r5, cr9, cr15, {2}
     314:	58414d54 	stmdapl	r1, {r2, r4, r6, r8, sl, fp, lr}^
     318:	6328435f 			; <UNDEFINED> instruction: 0x6328435f
     31c:	20632029 	rsbcs	r2, r3, r9, lsr #32
     320:	4c202323 	stcmi	3, cr2, [r0], #-140	; 0xffffff74
     324:	555f004c 	ldrbpl	r0, [pc, #-76]	; 2e0 <_Min_Heap_Size+0xe0>
     328:	33544e49 	cmpcc	r4, #1168	; 0x490
     32c:	5f545f32 	svcpl	0x00545f32
     330:	4c434544 	cfstr64mi	mvdx4, [r3], {68}	; 0x44
     334:	44455241 	strbmi	r5, [r5], #-577	; 0xfffffdbf
     338:	5f5f0020 	svcpl	0x005f0020
     33c:	4d544e49 	ldclmi	14, cr4, [r4, #-292]	; 0xfffffedc
     340:	4d5f5841 	ldclmi	8, cr5, [pc, #-260]	; 244 <_Min_Heap_Size+0x44>
     344:	5f5f5841 	svcpl	0x005f5841
     348:	37783020 	ldrbcc	r3, [r8, -r0, lsr #32]!
     34c:	66666666 	strbtvs	r6, [r6], -r6, ror #12
     350:	66666666 	strbtvs	r6, [r6], -r6, ror #12
     354:	66666666 	strbtvs	r6, [r6], -r6, ror #12
     358:	4c666666 	stclmi	6, cr6, [r6], #-408	; 0xfffffe68
     35c:	5f5f004c 	svcpl	0x005f004c
     360:	495f5154 	ldmdbmi	pc, {r2, r4, r6, r8, ip, lr}^	; <UNPREDICTABLE>
     364:	5f544942 	svcpl	0x00544942
     368:	0030205f 	eorseq	r2, r0, pc, asr r0
     36c:	4c465f5f 	mcrrmi	15, 5, r5, r6, cr15
     370:	5f343654 	svcpl	0x00343654
     374:	49434544 	stmdbmi	r3, {r2, r6, r8, sl, lr}^
     378:	5f4c414d 	svcpl	0x004c414d
     37c:	5f474944 	svcpl	0x00474944
     380:	3731205f 			; <UNDEFINED> instruction: 0x3731205f
     384:	54584500 	ldrbpl	r4, [r8], #-1280	; 0xfffffb00
     388:	50303149 	eorspl	r3, r0, r9, asr #2
     38c:	20303141 	eorscs	r3, r0, r1, asr #2
     390:	54584528 	ldrbpl	r4, [r8], #-1320	; 0xfffffad8
     394:	50475f49 	subpl	r5, r7, r9, asr #30
     398:	4d5f4f49 	ldclmi	15, cr4, [pc, #-292]	; 27c <_Min_Heap_Size+0x7c>
     39c:	69707061 	ldmdbvs	r0!, {r0, r5, r6, ip, sp, lr}^
     3a0:	745f676e 	ldrbvc	r6, [pc], #-1902	; 3a8 <_Min_Heap_Size+0x1a8>
     3a4:	58457b29 	stmdapl	r5, {r0, r3, r5, r8, r9, fp, ip, sp, lr}^
     3a8:	30314954 	eorscc	r4, r1, r4, asr r9
     3ac:	5047202c 	subpl	r2, r7, ip, lsr #32
     3b0:	2c414f49 	mcrrcs	15, 4, r4, r1, cr9
     3b4:	49504720 	ldmdbmi	r0, {r5, r8, r9, sl, lr}^
     3b8:	49505f4f 	ldmdbmi	r0, {r0, r1, r2, r3, r6, r8, r9, sl, fp, ip, lr}^
     3bc:	30315f4e 	eorscc	r5, r1, lr, asr #30
     3c0:	5845202c 	stmdapl	r5, {r2, r3, r5, sp}^
     3c4:	30314954 	eorscc	r4, r1, r4, asr r9
     3c8:	5152495f 	cmppl	r2, pc, asr r9
     3cc:	564e007d 			; <UNDEFINED> instruction: 0x564e007d
     3d0:	555f4349 	ldrbpl	r4, [pc, #-841]	; 8f <_Min_Heap_Size-0x171>
     3d4:	54524153 	ldrbpl	r4, [r2], #-339	; 0xfffffead
     3d8:	52495f31 	subpl	r5, r9, #49, 30	; 0xc4
     3dc:	6e455f51 	mcrvs	15, 2, r5, cr5, cr1, {2}
     3e0:	656c6261 	strbvs	r6, [ip, #-609]!	; 0xfffffd9f
     3e4:	564e2820 	strbpl	r2, [lr], -r0, lsr #16
     3e8:	495f4349 	ldmdbmi	pc, {r0, r3, r6, r8, r9, lr}^	; <UNPREDICTABLE>
     3ec:	31524553 	cmpcc	r2, r3, asr r5
     3f0:	203d7c20 	eorscs	r7, sp, r0, lsr #24
     3f4:	283c3c31 	ldmdacs	ip!, {r0, r4, r5, sl, fp, ip, sp}
     3f8:	52415355 	subpl	r5, r1, #1409286145	; 0x54000001
     3fc:	495f3154 	ldmdbmi	pc, {r2, r4, r6, r8, ip, sp}^	; <UNPREDICTABLE>
     400:	2d205152 	stfcss	f5, [r0, #-328]!	; 0xfffffeb8
     404:	29323320 	ldmdbcs	r2!, {r5, r8, r9, ip, sp}
     408:	525f0029 	subspl	r0, pc, #41	; 0x29
     40c:	544e4545 	strbpl	r4, [lr], #-1349	; 0xfffffabb
     410:	4749535f 	smlsldmi	r5, r9, pc, r3	; <UNPREDICTABLE>
     414:	5f4c414e 	svcpl	0x004c414e
     418:	455a4953 	ldrbmi	r4, [sl, #-2387]	; 0xfffff6ad
     41c:	00343220 	eorseq	r3, r4, r0, lsr #4
     420:	616d4b5f 	cmnvs	sp, pc, asr fp
     424:	73282078 			; <UNDEFINED> instruction: 0x73282078
     428:	6f657a69 	svcvs	0x00657a69
     42c:	73282066 			; <UNDEFINED> instruction: 0x73282066
     430:	5f657a69 	svcpl	0x00657a69
     434:	3c202974 			; <UNDEFINED> instruction: 0x3c202974
     438:	2933203c 	ldmdbcs	r3!, {r2, r3, r4, r5, sp}
     43c:	45525f00 	ldrbmi	r5, [r2, #-3840]	; 0xfffff100
     440:	5f544e45 	svcpl	0x00544e45
     444:	43454843 	movtmi	r4, #22595	; 0x5843
     448:	49535f4b 	ldmdbmi	r3, {r0, r1, r3, r6, r8, r9, sl, fp, ip, lr}^
     44c:	4c414e47 	mcrrmi	14, 4, r4, r1, cr7
     450:	4655425f 			; <UNDEFINED> instruction: 0x4655425f
     454:	72617628 	rsbvc	r7, r1, #40, 12	; 0x2800000
     458:	525f2029 	subspl	r2, pc, #41	; 0x29
     45c:	544e4545 	strbpl	r4, [lr], #-1349	; 0xfffffabb
     460:	4548435f 	strbmi	r4, [r8, #-863]	; 0xfffffca1
     464:	76284b43 	strtvc	r4, [r8], -r3, asr #22
     468:	202c7261 	eorcs	r7, ip, r1, ror #4
     46c:	6769735f 			; <UNDEFINED> instruction: 0x6769735f
     470:	5f6c616e 	svcpl	0x006c616e
     474:	2c667562 	cfstr64cs	mvdx7, [r6], #-392	; 0xfffffe78
     478:	61686320 	cmnvs	r8, r0, lsr #6
     47c:	2c2a2072 	stccs	0, cr2, [sl], #-456	; 0xfffffe38
     480:	45525f20 	ldrbmi	r5, [r2, #-3872]	; 0xfffff0e0
     484:	5f544e45 	svcpl	0x00544e45
     488:	4e474953 			; <UNDEFINED> instruction: 0x4e474953
     48c:	535f4c41 	cmppl	pc, #16640	; 0x4100
     490:	2c455a49 	mcrrcs	10, 4, r5, r5, cr9
     494:	5f002920 	svcpl	0x00002920
     498:	52464c5f 	subpl	r4, r6, #24320	; 0x5f00
     49c:	5f544341 	svcpl	0x00544341
     4a0:	5f4e494d 	svcpl	0x004e494d
     4a4:	2d28205f 	stccs	0, cr2, [r8, #-380]!	; 0xfffffe84
     4a8:	4c352e30 	ldcmi	14, cr2, [r5], #-192	; 0xffffff40
     4ac:	2e302d52 	mrccs	13, 1, r2, cr0, cr2, {2}
     4b0:	29524c35 	ldmdbcs	r2, {r0, r2, r4, r5, sl, fp, lr}^
     4b4:	575f5f00 	ldrbpl	r5, [pc, -r0, lsl #30]
     4b8:	52414843 	subpl	r4, r1, #4390912	; 0x430000
     4bc:	58414d5f 	stmdapl	r1, {r0, r1, r2, r3, r4, r6, r8, sl, fp, lr}^
     4c0:	30205f5f 	eorcc	r5, r0, pc, asr pc
     4c4:	66666678 			; <UNDEFINED> instruction: 0x66666678
     4c8:	66666666 	strbtvs	r6, [r6], -r6, ror #12
     4cc:	52005566 	andpl	r5, r0, #427819008	; 0x19800000
     4d0:	475f4343 	ldrbmi	r4, [pc, -r3, asr #6]
     4d4:	424f4950 	submi	r4, pc, #80, 18	; 0x140000
     4d8:	4b4c435f 	blmi	131125c <_Min_Stack_Size+0x1310e5c>
     4dc:	284e455f 	stmdacs	lr, {r0, r1, r2, r3, r4, r6, r8, sl, lr}^
     4e0:	52282029 	eorpl	r2, r8, #41	; 0x29
     4e4:	3e2d4343 	cdpcc	3, 2, cr4, cr13, cr3, {2}
     4e8:	32425041 	subcc	r5, r2, #65	; 0x41
     4ec:	20524e45 	subscs	r4, r2, r5, asr #28
     4f0:	28203d7c 	stmdacs	r0!, {r2, r3, r4, r5, r6, r8, sl, fp, ip, sp}
     4f4:	333c3c31 	teqcc	ip, #12544	; 0x3100
     4f8:	5f002929 	svcpl	0x00002929
     4fc:	4e4f435f 	mcrmi	3, 2, r4, cr15, cr15, {2}
     500:	28544143 	ldmdacs	r4, {r0, r1, r6, r8, lr}^
     504:	29792c78 	ldmdbcs	r9!, {r3, r4, r5, r6, sl, fp, sp}^
     508:	435f5f20 	cmpmi	pc, #32, 30	; 0x80
     50c:	41434e4f 	cmpmi	r3, pc, asr #28
     510:	78283154 	stmdavc	r8!, {r2, r4, r6, r8, ip, sp}
     514:	0029792c 	eoreq	r7, r9, ip, lsr #18
     518:	4e475f5f 	mcrmi	15, 2, r5, cr7, cr15, {2}
     51c:	494c4355 	stmdbmi	ip, {r0, r2, r4, r6, r8, r9, lr}^
     520:	5f5f454b 	svcpl	0x005f454b
     524:	5059545f 	subspl	r5, r9, pc, asr r4
     528:	20464f45 	subcs	r4, r6, r5, asr #30
     52c:	5f5f0031 	svcpl	0x005f0031
     530:	32746e69 	rsbscc	r6, r4, #1680	; 0x690
     534:	005f5f30 	subseq	r5, pc, r0, lsr pc	; <UNPREDICTABLE>
     538:	49535f5f 	ldmdbmi	r3, {r0, r1, r2, r3, r4, r6, r8, r9, sl, fp, ip, lr}^
     53c:	464f455a 			; <UNDEFINED> instruction: 0x464f455a
     540:	4e4f4c5f 	mcrmi	12, 2, r4, cr15, cr15, {2}
     544:	4f4c5f47 	svcmi	0x004c5f47
     548:	5f5f474e 	svcpl	0x005f474e
     54c:	52003820 	andpl	r3, r0, #32, 16	; 0x200000
     550:	425f4343 	subsmi	r4, pc, #201326593	; 0xc000001
     554:	20455341 	subcs	r5, r5, r1, asr #6
     558:	30347830 	eorscc	r7, r4, r0, lsr r8
     55c:	30313230 	eorscc	r3, r1, r0, lsr r2
     560:	00553030 	subseq	r3, r5, r0, lsr r0
     564:	42445f5f 	submi	r5, r4, #380	; 0x17c
     568:	414d5f4c 	cmpmi	sp, ip, asr #30
     56c:	30315f58 	eorscc	r5, r1, r8, asr pc
     570:	5058455f 	subspl	r4, r8, pc, asr r5
     574:	33205f5f 			; <UNDEFINED> instruction: 0x33205f5f
     578:	5f003830 	svcpl	0x00003830
     57c:	544c465f 	strbpl	r4, [ip], #-1631	; 0xfffff9a1
     580:	4d5f3436 	cfldrdmi	mvd3, [pc, #-216]	; 4b0 <_Min_Stack_Size+0xb0>
     584:	5f544e41 	svcpl	0x00544e41
     588:	5f474944 	svcpl	0x00474944
     58c:	3335205f 	teqcc	r5, #95	; 0x5f
     590:	465f5f00 	ldrbmi	r5, [pc], -r0, lsl #30
     594:	54434152 	strbpl	r4, [r3], #-338	; 0xfffffeae
     598:	4e494d5f 	mcrmi	13, 2, r4, cr9, cr15, {2}
     59c:	28205f5f 	stmdacs	r0!, {r0, r1, r2, r3, r4, r6, r8, r9, sl, fp, ip, lr}
     5a0:	352e302d 	strcc	r3, [lr, #-45]!	; 0xffffffd3
     5a4:	2e302d52 	mrccs	13, 1, r2, cr0, cr2, {2}
     5a8:	00295235 	eoreq	r5, r9, r5, lsr r2
     5ac:	4c555f5f 	mrrcmi	15, 5, r5, r5, cr15	; <UNPREDICTABLE>
     5b0:	4343414c 	movtmi	r4, #12620	; 0x314c
     5b4:	4d5f4d55 	ldclmi	13, cr4, [pc, #-340]	; 468 <_Min_Stack_Size+0x68>
     5b8:	5f5f5841 	svcpl	0x005f5841
     5bc:	46583020 	ldrbmi	r3, [r8], -r0, lsr #32
     5c0:	46464646 	strbmi	r4, [r6], -r6, asr #12
     5c4:	46464646 	strbmi	r4, [r6], -r6, asr #12
     5c8:	46464646 	strbmi	r4, [r6], -r6, asr #12
     5cc:	50464646 	subpl	r4, r6, r6, asr #12
     5d0:	5532332d 	ldrpl	r3, [r2, #-813]!	; 0xfffffcd3
     5d4:	004b4c4c 	subeq	r4, fp, ip, asr #24
     5d8:	49545845 	ldmdbmi	r4, {r0, r2, r6, fp, ip, lr}^
     5dc:	42503531 	subsmi	r3, r0, #205520896	; 0xc400000
     5e0:	28203531 	stmdacs	r0!, {r0, r4, r5, r8, sl, ip, sp}
     5e4:	49545845 	ldmdbmi	r4, {r0, r2, r6, fp, ip, lr}^
     5e8:	4950475f 	ldmdbmi	r0, {r0, r1, r2, r3, r4, r6, r8, r9, sl, lr}^
     5ec:	614d5f4f 	cmpvs	sp, pc, asr #30
     5f0:	6e697070 	mcrvs	0, 3, r7, cr9, cr0, {3}
     5f4:	29745f67 	ldmdbcs	r4!, {r0, r1, r2, r5, r6, r8, r9, sl, fp, ip, lr}^
     5f8:	5458457b 	ldrbpl	r4, [r8], #-1403	; 0xfffffa85
     5fc:	2c353149 	ldfcss	f3, [r5], #-292	; 0xfffffedc
     600:	49504720 	ldmdbmi	r0, {r5, r8, r9, sl, lr}^
     604:	202c424f 	eorcs	r4, ip, pc, asr #4
     608:	4f495047 	svcmi	0x00495047
     60c:	4e49505f 	mcrmi	0, 2, r5, cr9, cr15, {2}
     610:	2c35315f 	ldfcss	f3, [r5], #-380	; 0xfffffe84
     614:	54584520 	ldrbpl	r4, [r8], #-1312	; 0xfffffae0
     618:	5f353149 	svcpl	0x00353149
     61c:	7d515249 	lfmvc	f5, 2, [r1, #-292]	; 0xfffffedc
     620:	555f5f00 	ldrbpl	r5, [pc, #-3840]	; fffff728 <_estack+0xdfffcf28>
     624:	43434153 	movtmi	r4, #12627	; 0x3153
     628:	4d5f4d55 	ldclmi	13, cr4, [pc, #-340]	; 4dc <_Min_Stack_Size+0xdc>
     62c:	5f5f5841 	svcpl	0x005f5841
     630:	46583020 	ldrbmi	r3, [r8], -r0, lsr #32
     634:	50464646 	subpl	r4, r6, r6, asr #12
     638:	4855382d 	ldmdami	r5, {r0, r2, r3, r5, fp, ip, sp}^
     63c:	5f5f004b 	svcpl	0x005f004b
     640:	41524653 	cmpmi	r2, r3, asr r6
     644:	465f5443 	ldrbmi	r5, [pc], -r3, asr #8
     648:	5f544942 	svcpl	0x00544942
     64c:	0037205f 	eorseq	r2, r7, pc, asr r0
     650:	4e495f5f 	mcrmi	15, 2, r5, cr9, cr15, {2}
     654:	58414d54 	stmdapl	r1, {r2, r4, r6, r8, sl, fp, lr}^
     658:	4449575f 	strbmi	r5, [r9], #-1887	; 0xfffff8a1
     65c:	5f5f4854 	svcpl	0x005f4854
     660:	00343620 	eorseq	r3, r4, r0, lsr #12
     664:	52415f5f 	subpl	r5, r1, #380	; 0x17c
     668:	45465f4d 	strbmi	r5, [r6, #-3917]	; 0xfffff0b3
     66c:	52555441 	subspl	r5, r5, #1090519040	; 0x41000000
     670:	46425f45 	strbmi	r5, [r2], -r5, asr #30
     674:	535f3631 	cmppl	pc, #51380224	; 0x3100000
     678:	414c4143 	cmpmi	ip, r3, asr #2
     67c:	52415f52 	subpl	r5, r1, #328	; 0x148
     680:	4d485449 	cfstrdmi	mvd5, [r8, #-292]	; 0xfffffedc
     684:	43495445 	movtmi	r5, #37957	; 0x9445
     688:	535f5f00 	cmppl	pc, #0, 30
     68c:	42495f51 	submi	r5, r9, #324	; 0x144
     690:	5f5f5449 	svcpl	0x005f5449
     694:	5f003020 	svcpl	0x00003020
     698:	44524f5f 	ldrbmi	r4, [r2], #-3935	; 0xfffff0a1
     69c:	505f5245 	subspl	r5, pc, r5, asr #4
     6a0:	455f5044 	ldrbmi	r5, [pc, #-68]	; 664 <_Min_Stack_Size+0x264>
     6a4:	4149444e 	cmpmi	r9, lr, asr #8
     6a8:	205f5f4e 	subscs	r5, pc, lr, asr #30
     6ac:	32313433 	eorscc	r3, r1, #855638016	; 0x33000000
     6b0:	535f5f00 	cmppl	pc, #0, 30
     6b4:	5f455a49 	svcpl	0x00455a49
     6b8:	45505954 	ldrbmi	r5, [r0, #-2388]	; 0xfffff6ac
     6bc:	75205f5f 	strvc	r5, [r0, #-3935]!	; 0xfffff0a1
     6c0:	6769736e 	strbvs	r7, [r9, -lr, ror #6]!
     6c4:	2064656e 	rsbcs	r6, r4, lr, ror #10
     6c8:	00746e69 	rsbseq	r6, r4, r9, ror #28
     6cc:	4343475f 	movtmi	r4, #14175	; 0x375f
     6d0:	4152575f 	cmpmi	r2, pc, asr r7
     6d4:	54535f50 	ldrbpl	r5, [r3], #-3920	; 0xfffff0b0
     6d8:	544e4944 	strbpl	r4, [lr], #-2372	; 0xfffff6bc
     6dc:	0020485f 	eoreq	r4, r0, pc, asr r8
     6e0:	4c465f5f 	mcrrmi	15, 5, r5, r6, cr15
     6e4:	41485f54 	cmpmi	r8, r4, asr pc
     6e8:	45445f53 	strbmi	r5, [r4, #-3923]	; 0xfffff0ad
     6ec:	4d524f4e 	ldclmi	15, cr4, [r2, #-312]	; 0xfffffec8
     6f0:	31205f5f 			; <UNDEFINED> instruction: 0x31205f5f
     6f4:	495f5f00 	ldmdbmi	pc, {r8, r9, sl, fp, ip, lr}^	; <UNPREDICTABLE>
     6f8:	5f38544e 	svcpl	0x0038544e
     6fc:	45505954 	ldrbmi	r5, [r0, #-2388]	; 0xfffff6ac
     700:	73205f5f 			; <UNDEFINED> instruction: 0x73205f5f
     704:	656e6769 	strbvs	r6, [lr, #-1897]!	; 0xfffff897
     708:	68632064 	stmdavs	r3!, {r2, r5, r6, sp}^
     70c:	5f007261 	svcpl	0x00007261
     710:	4d52415f 	ldfmie	f4, [r2, #-380]	; 0xfffffe84
     714:	4352415f 	cmpmi	r2, #-1073741801	; 0xc0000017
     718:	52505f48 	subspl	r5, r0, #72, 30	; 0x120
     71c:	4c49464f 	mcrrmi	6, 4, r4, r9, cr15
     720:	37372045 	ldrcc	r2, [r7, -r5, asr #32]!
     724:	49504700 	ldmdbmi	r0, {r8, r9, sl, lr}^
     728:	2820454f 	stmdacs	r0!, {r0, r1, r2, r3, r6, r8, sl, lr}
     72c:	49504728 	ldmdbmi	r0, {r3, r5, r8, r9, sl, lr}^
     730:	79545f4f 	ldmdbvc	r4, {r0, r1, r2, r3, r6, r8, r9, sl, fp, ip, lr}^
     734:	65646570 	strbvs	r6, [r4, #-1392]!	; 0xfffffa90
     738:	20745f66 	rsbscs	r5, r4, r6, ror #30
     73c:	5047292a 	subpl	r2, r7, sl, lsr #18
     740:	5f454f49 	svcpl	0x00454f49
     744:	45534142 	ldrbmi	r4, [r3, #-322]	; 0xfffffebe
     748:	5f5f0029 	svcpl	0x005f0029
     74c:	43415355 	movtmi	r5, #4949	; 0x1355
     750:	5f4d5543 	svcpl	0x004d5543
     754:	5f4e494d 	svcpl	0x004e494d
     758:	2e30205f 	mrccs	0, 1, r2, cr0, cr15, {2}
     75c:	4b485530 	blmi	1215c24 <_Min_Stack_Size+0x1215824>
     760:	49564e00 	ldmdbmi	r6, {r9, sl, fp, lr}^
     764:	58455f43 	stmdapl	r5, {r0, r1, r6, r8, r9, sl, fp, ip, lr}^
     768:	5f334954 	svcpl	0x00334954
     76c:	5f515249 	svcpl	0x00515249
     770:	62616e45 	rsbvs	r6, r1, #1104	; 0x450
     774:	2820656c 	stmdacs	r0!, {r2, r3, r5, r6, r8, sl, sp, lr}
     778:	4349564e 	movtmi	r5, #38478	; 0x964e
     77c:	4553495f 	ldrbmi	r4, [r3, #-2399]	; 0xfffff6a1
     780:	7c203052 	stcvc	0, cr3, [r0], #-328	; 0xfffffeb8
     784:	3c31203d 	ldccc	0, cr2, [r1], #-244	; 0xffffff0c
     788:	0029393c 	eoreq	r3, r9, ip, lsr r9
     78c:	4c465f5f 	mcrrmi	15, 5, r5, r6, cr15
     790:	5f323354 	svcpl	0x00323354
     794:	49434544 	stmdbmi	r3, {r2, r6, r8, sl, lr}^
     798:	5f4c414d 	svcpl	0x004c414d
     79c:	5f474944 	svcpl	0x00474944
     7a0:	0039205f 	eorseq	r2, r9, pc, asr r0
     7a4:	444c5f5f 	strbmi	r5, [ip], #-3935	; 0xfffff0a1
     7a8:	4d5f4c42 	ldclmi	12, cr4, [pc, #-264]	; 6a8 <_Min_Stack_Size+0x2a8>
     7ac:	455f4e49 	ldrbmi	r4, [pc, #-3657]	; fffff96b <_estack+0xdfffd16b>
     7b0:	5f5f5058 	svcpl	0x005f5058
     7b4:	312d2820 			; <UNDEFINED> instruction: 0x312d2820
     7b8:	29313230 	ldmdbcs	r1!, {r4, r5, r9, ip, sp}
     7bc:	45525f00 	ldrbmi	r5, [r2, #-3840]	; 0xfffff100
     7c0:	5f544e45 	svcpl	0x00544e45
     7c4:	54494e49 	strbpl	r4, [r9], #-3657	; 0xfffff1b7
     7c8:	4e41525f 	mcrmi	2, 2, r5, cr1, cr15, {2}
     7cc:	28383444 	ldmdacs	r8!, {r2, r6, sl, ip, sp}
     7d0:	29726176 	ldmdbcs	r2!, {r1, r2, r4, r5, r6, r8, sp, lr}^
     7d4:	206f6420 	rsbcs	r6, pc, r0, lsr #8
     7d8:	7473207b 	ldrbtvc	r2, [r3], #-123	; 0xffffff85
     7dc:	74637572 	strbtvc	r7, [r3], #-1394	; 0xfffffa8e
     7e0:	65725f20 	ldrbvs	r5, [r2, #-3872]!	; 0xfffff0e0
     7e4:	20746e65 	rsbscs	r6, r4, r5, ror #28
     7e8:	20725f2a 	rsbscs	r5, r2, sl, lsr #30
     7ec:	7628203d 			; <UNDEFINED> instruction: 0x7628203d
     7f0:	3b297261 	blcc	a5d17c <_Min_Stack_Size+0xa5cd7c>
     7f4:	2d725f20 	ldclcs	15, cr5, [r2, #-128]!	; 0xffffff80
     7f8:	34725f3e 	ldrbtcc	r5, [r2], #-3902	; 0xfffff0c2
     7fc:	5f3e2d38 	svcpl	0x003e2d38
     800:	64656573 	strbtvs	r6, [r5], #-1395	; 0xfffffa8d
     804:	205d305b 	subscs	r3, sp, fp, asr r0
     808:	525f203d 	subspl	r2, pc, #61	; 0x3d
     80c:	34444e41 	strbcc	r4, [r4], #-3649	; 0xfffff1bf
     810:	45535f38 	ldrbmi	r5, [r3, #-3896]	; 0xfffff0c8
     814:	305f4445 	subscc	r4, pc, r5, asr #8
     818:	725f203b 	subsvc	r2, pc, #59	; 0x3b
     81c:	725f3e2d 	subsvc	r3, pc, #720	; 0x2d0
     820:	3e2d3834 	mcrcc	8, 1, r3, cr13, cr4, {1}
     824:	6565735f 	strbvs	r7, [r5, #-863]!	; 0xfffffca1
     828:	5d315b64 	vldmdbpl	r1!, {d5-<overflow reg d54>}
     82c:	5f203d20 	svcpl	0x00203d20
     830:	444e4152 	strbmi	r4, [lr], #-338	; 0xfffffeae
     834:	535f3834 	cmppl	pc, #52, 16	; 0x340000
     838:	5f444545 	svcpl	0x00444545
     83c:	5f203b31 	svcpl	0x00203b31
     840:	5f3e2d72 	svcpl	0x003e2d72
     844:	2d383472 	cfldrscs	mvf3, [r8, #-456]!	; 0xfffffe38
     848:	65735f3e 	ldrbvs	r5, [r3, #-3902]!	; 0xfffff0c2
     84c:	325b6465 	subscc	r6, fp, #1694498816	; 0x65000000
     850:	203d205d 	eorscs	r2, sp, sp, asr r0
     854:	4e41525f 	mcrmi	2, 2, r5, cr1, cr15, {2}
     858:	5f383444 	svcpl	0x00383444
     85c:	44454553 	strbmi	r4, [r5], #-1363	; 0xfffffaad
     860:	203b325f 	eorscs	r3, fp, pc, asr r2
     864:	3e2d725f 	mcrcc	2, 1, r7, cr13, cr15, {2}
     868:	3834725f 	ldmdacc	r4!, {r0, r1, r2, r3, r4, r6, r9, ip, sp, lr}
     86c:	6d5f3e2d 	ldclvs	14, cr3, [pc, #-180]	; 7c0 <_Min_Stack_Size+0x3c0>
     870:	5b746c75 	blpl	1d1ba4c <_Min_Stack_Size+0x1d1b64c>
     874:	3d205d30 	stccc	13, cr5, [r0, #-192]!	; 0xffffff40
     878:	41525f20 	cmpmi	r2, r0, lsr #30
     87c:	3834444e 	ldmdacc	r4!, {r1, r2, r3, r6, sl, lr}
     880:	4c554d5f 	mrrcmi	13, 5, r4, r5, cr15
     884:	3b305f54 	blcc	c185dc <_Min_Stack_Size+0xc181dc>
     888:	2d725f20 	ldclcs	15, cr5, [r2, #-128]!	; 0xffffff80
     88c:	34725f3e 	ldrbtcc	r5, [r2], #-3902	; 0xfffff0c2
     890:	5f3e2d38 	svcpl	0x003e2d38
     894:	746c756d 	strbtvc	r7, [ip], #-1389	; 0xfffffa93
     898:	205d315b 	subscs	r3, sp, fp, asr r1
     89c:	525f203d 	subspl	r2, pc, #61	; 0x3d
     8a0:	34444e41 	strbcc	r4, [r4], #-3649	; 0xfffff1bf
     8a4:	554d5f38 	strbpl	r5, [sp, #-3896]	; 0xfffff0c8
     8a8:	315f544c 	cmpcc	pc, ip, asr #8
     8ac:	725f203b 	subsvc	r2, pc, #59	; 0x3b
     8b0:	725f3e2d 	subsvc	r3, pc, #720	; 0x2d0
     8b4:	3e2d3834 	mcrcc	8, 1, r3, cr13, cr4, {1}
     8b8:	6c756d5f 	ldclvs	13, cr6, [r5], #-380	; 0xfffffe84
     8bc:	5d325b74 	vldmdbpl	r2!, {d5-<overflow reg d62>}
     8c0:	5f203d20 	svcpl	0x00203d20
     8c4:	444e4152 	strbmi	r4, [lr], #-338	; 0xfffffeae
     8c8:	4d5f3834 	ldclmi	8, cr3, [pc, #-208]	; 800 <_Min_Stack_Size+0x400>
     8cc:	5f544c55 	svcpl	0x00544c55
     8d0:	5f203b32 	svcpl	0x00203b32
     8d4:	5f3e2d72 	svcpl	0x003e2d72
     8d8:	2d383472 	cfldrscs	mvf3, [r8, #-456]!	; 0xfffffe38
     8dc:	64615f3e 	strbtvs	r5, [r1], #-3902	; 0xfffff0c2
     8e0:	203d2064 	eorscs	r2, sp, r4, rrx
     8e4:	4e41525f 	mcrmi	2, 2, r5, cr1, cr15, {2}
     8e8:	5f383444 	svcpl	0x00383444
     8ec:	3b444441 	blcc	11119f8 <_Min_Stack_Size+0x11115f8>
     8f0:	2d725f20 	ldclcs	15, cr5, [r2, #-128]!	; 0xffffff80
     8f4:	34725f3e 	ldrbtcc	r5, [r2], #-3902	; 0xfffff0c2
     8f8:	5f3e2d38 	svcpl	0x003e2d38
     8fc:	646e6172 	strbtvs	r6, [lr], #-370	; 0xfffffe8e
     900:	78656e5f 	stmdavc	r5!, {r0, r1, r2, r3, r4, r6, r9, sl, fp, sp, lr}^
     904:	203d2074 	eorscs	r2, sp, r4, ror r0
     908:	7d203b31 	fstmdbxvc	r0!, {d3-d26}	;@ Deprecated
     90c:	69687720 	stmdbvs	r8!, {r5, r8, r9, sl, ip, sp, lr}^
     910:	2820656c 	stmdacs	r0!, {r2, r3, r5, r6, r8, sl, sp, lr}
     914:	5f002930 	svcpl	0x00002930
     918:	42444c5f 	submi	r4, r4, #24320	; 0x5f00
     91c:	414d5f4c 	cmpmi	sp, ip, asr #30
     920:	445f544e 	ldrbmi	r5, [pc], #-1102	; 928 <_Min_Stack_Size+0x528>
     924:	5f5f4749 	svcpl	0x005f4749
     928:	00333520 	eorseq	r3, r3, r0, lsr #10
     92c:	5f544e49 	svcpl	0x00544e49
     930:	54534146 	ldrbpl	r4, [r3], #-326	; 0xfffffeba
     934:	4d5f3631 	ldclmi	6, cr3, [pc, #-196]	; 878 <_Min_Stack_Size+0x478>
     938:	28204e49 	stmdacs	r0!, {r0, r3, r6, r9, sl, fp, lr}
     93c:	495f5f2d 	ldmdbmi	pc, {r0, r2, r3, r5, r8, r9, sl, fp, ip, lr}^	; <UNPREDICTABLE>
     940:	465f544e 	ldrbmi	r5, [pc], -lr, asr #8
     944:	31545341 	cmpcc	r4, r1, asr #6
     948:	414d5f36 	cmpmi	sp, r6, lsr pc
     94c:	205f5f58 	subscs	r5, pc, r8, asr pc	; <UNPREDICTABLE>
     950:	2931202d 	ldmdbcs	r1!, {r0, r2, r3, r5, sp}
     954:	54584500 	ldrbpl	r4, [r8], #-1280	; 0xfffffb00
     958:	44503349 	ldrbmi	r3, [r0], #-841	; 0xfffffcb7
     95c:	45282033 	strmi	r2, [r8, #-51]!	; 0xffffffcd
     960:	5f495458 	svcpl	0x00495458
     964:	4f495047 	svcmi	0x00495047
     968:	70614d5f 	rsbvc	r4, r1, pc, asr sp
     96c:	676e6970 			; <UNDEFINED> instruction: 0x676e6970
     970:	7b29745f 	blvc	a5daf4 <_Min_Stack_Size+0xa5d6f4>
     974:	49545845 	ldmdbmi	r4, {r0, r2, r6, fp, ip, lr}^
     978:	47202c33 			; <UNDEFINED> instruction: 0x47202c33
     97c:	444f4950 	strbmi	r4, [pc], #-2384	; 984 <_Min_Stack_Size+0x584>
     980:	5047202c 	subpl	r2, r7, ip, lsr #32
     984:	505f4f49 	subspl	r4, pc, r9, asr #30
     988:	335f4e49 	cmpcc	pc, #1168	; 0x490
     98c:	5845202c 	stmdapl	r5, {r2, r3, r5, sp}^
     990:	5f334954 	svcpl	0x00334954
     994:	7d515249 	lfmvc	f5, 2, [r1, #-292]	; 0xfffffedc
     998:	555f5f00 	ldrbpl	r5, [pc, #-3840]	; fffffaa0 <_estack+0xdfffd2a0>
     99c:	38544e49 	ldmdacc	r4, {r0, r3, r6, r9, sl, fp, lr}^
     9a0:	6328435f 			; <UNDEFINED> instruction: 0x6328435f
     9a4:	00632029 	rsbeq	r2, r3, r9, lsr #32
     9a8:	49545845 	ldmdbmi	r4, {r0, r2, r6, fp, ip, lr}^
     9ac:	32445032 	subcc	r5, r4, #50	; 0x32
     9b0:	58452820 	stmdapl	r5, {r5, fp, sp}^
     9b4:	475f4954 			; <UNDEFINED> instruction: 0x475f4954
     9b8:	5f4f4950 	svcpl	0x004f4950
     9bc:	7070614d 	rsbsvc	r6, r0, sp, asr #2
     9c0:	5f676e69 	svcpl	0x00676e69
     9c4:	457b2974 	ldrbmi	r2, [fp, #-2420]!	; 0xfffff68c
     9c8:	32495458 	subcc	r5, r9, #88, 8	; 0x58000000
     9cc:	5047202c 	subpl	r2, r7, ip, lsr #32
     9d0:	2c444f49 	mcrrcs	15, 4, r4, r4, cr9
     9d4:	49504720 	ldmdbmi	r0, {r5, r8, r9, sl, lr}^
     9d8:	49505f4f 	ldmdbmi	r0, {r0, r1, r2, r3, r6, r8, r9, sl, fp, ip, lr}^
     9dc:	2c325f4e 	ldccs	15, cr5, [r2], #-312	; 0xfffffec8
     9e0:	54584520 	ldrbpl	r4, [r8], #-1312	; 0xfffffae0
     9e4:	495f3249 	ldmdbmi	pc, {r0, r3, r6, r9, ip, sp}^	; <UNPREDICTABLE>
     9e8:	007d5152 	rsbseq	r5, sp, r2, asr r1
     9ec:	4e495f5f 	mcrmi	15, 2, r5, cr9, cr15, {2}
     9f0:	5f363154 	svcpl	0x00363154
     9f4:	45505954 	ldrbmi	r5, [r0, #-2388]	; 0xfffff6ac
     9f8:	73205f5f 			; <UNDEFINED> instruction: 0x73205f5f
     9fc:	74726f68 	ldrbtvc	r6, [r2], #-3944	; 0xfffff098
     a00:	746e6920 	strbtvc	r6, [lr], #-2336	; 0xfffff6e0
     a04:	615f5f00 	cmpvs	pc, r0, lsl #30
     a08:	6e67696c 	vnmulvs.f16	s13, s14, s25	; <UNPREDICTABLE>
     a0c:	78286465 	stmdavc	r8!, {r0, r2, r5, r6, sl, sp, lr}
     a10:	5f5f2029 	svcpl	0x005f2029
     a14:	72747461 	rsbsvc	r7, r4, #1627389952	; 0x61000000
     a18:	74756269 	ldrbtvc	r6, [r5], #-617	; 0xfffffd97
     a1c:	285f5f65 	ldmdacs	pc, {r0, r2, r5, r6, r8, r9, sl, fp, ip, lr}^	; <UNPREDICTABLE>
     a20:	615f5f28 	cmpvs	pc, r8, lsr #30
     a24:	6e67696c 	vnmulvs.f16	s13, s14, s25	; <UNPREDICTABLE>
     a28:	5f5f6465 	svcpl	0x005f6465
     a2c:	29297828 	stmdbcs	r9!, {r3, r5, fp, ip, sp, lr}
     a30:	58450029 	stmdapl	r5, {r0, r3, r5}^
     a34:	50364954 	eorspl	r4, r6, r4, asr r9
     a38:	28203642 	stmdacs	r0!, {r1, r6, r9, sl, ip, sp}
     a3c:	49545845 	ldmdbmi	r4, {r0, r2, r6, fp, ip, lr}^
     a40:	4950475f 	ldmdbmi	r0, {r0, r1, r2, r3, r4, r6, r8, r9, sl, lr}^
     a44:	614d5f4f 	cmpvs	sp, pc, asr #30
     a48:	6e697070 	mcrvs	0, 3, r7, cr9, cr0, {3}
     a4c:	29745f67 	ldmdbcs	r4!, {r0, r1, r2, r5, r6, r8, r9, sl, fp, ip, lr}^
     a50:	5458457b 	ldrbpl	r4, [r8], #-1403	; 0xfffffa85
     a54:	202c3649 	eorcs	r3, ip, r9, asr #12
     a58:	4f495047 	svcmi	0x00495047
     a5c:	47202c42 	strmi	r2, [r0, -r2, asr #24]!
     a60:	5f4f4950 	svcpl	0x004f4950
     a64:	5f4e4950 	svcpl	0x004e4950
     a68:	45202c36 	strmi	r2, [r0, #-3126]!	; 0xfffff3ca
     a6c:	36495458 			; <UNDEFINED> instruction: 0x36495458
     a70:	5152495f 	cmppl	r2, pc, asr r9
     a74:	5f5f007d 	svcpl	0x005f007d
     a78:	36544c46 	ldrbcc	r4, [r4], -r6, asr #24
     a7c:	414d5f34 	cmpmi	sp, r4, lsr pc
     a80:	205f5f58 	subscs	r5, pc, r8, asr pc	; <UNPREDICTABLE>
     a84:	39372e31 	ldmdbcc	r7!, {r0, r4, r5, r9, sl, fp, sp}
     a88:	33393637 	teqcc	r9, #57671680	; 0x3700000
     a8c:	38343331 	ldmdacc	r4!, {r0, r4, r5, r8, r9, ip, sp}
     a90:	31333236 	teqcc	r3, r6, lsr r2
     a94:	2b653735 	blcs	194e770 <_Min_Stack_Size+0x194e370>
     a98:	46383033 			; <UNDEFINED> instruction: 0x46383033
     a9c:	4e003436 	cfmvdhrmi	mvd0, r3
     aa0:	5f434956 	svcpl	0x00434956
     aa4:	49545845 	ldmdbmi	r4, {r0, r2, r6, fp, ip, lr}^
     aa8:	52495f32 	subpl	r5, r9, #50, 30	; 0xc8
     aac:	6e455f51 	mcrvs	15, 2, r5, cr5, cr1, {2}
     ab0:	656c6261 	strbvs	r6, [ip, #-609]!	; 0xfffffd9f
     ab4:	564e2820 	strbpl	r2, [lr], -r0, lsr #16
     ab8:	495f4349 	ldmdbmi	pc, {r0, r3, r6, r8, r9, lr}^	; <UNPREDICTABLE>
     abc:	30524553 	subscc	r4, r2, r3, asr r5
     ac0:	203d7c20 	eorscs	r7, sp, r0, lsr #24
     ac4:	383c3c31 	ldmdacc	ip!, {r0, r4, r5, sl, fp, ip, sp}
     ac8:	525f0029 	subspl	r0, pc, #41	; 0x29
     acc:	544e4545 	strbpl	r4, [lr], #-1349	; 0xfffffabb
     ad0:	5343575f 	movtpl	r5, #14175	; 0x375f
     ad4:	4d4f5452 	cfstrdmi	mvd5, [pc, #-328]	; 994 <_Min_Stack_Size+0x594>
     ad8:	535f5342 	cmppl	pc, #134217729	; 0x8000001
     adc:	45544154 	ldrbmi	r4, [r4, #-340]	; 0xfffffeac
     ae0:	72747028 	rsbsvc	r7, r4, #40	; 0x28
     ae4:	28282029 	stmdacs	r8!, {r0, r3, r5, sp}
     ae8:	29727470 	ldmdbcs	r2!, {r4, r5, r6, sl, ip, sp, lr}^
     aec:	6d5f3e2d 	ldclvs	14, cr3, [pc, #-180]	; a40 <_Min_Stack_Size+0x640>
     af0:	2d637369 	stclcs	3, cr7, [r3, #-420]!	; 0xfffffe5c
     af4:	63775f3e 	cmnvs	r7, #62, 30	; 0xf8
     af8:	6f747273 	svcvs	0x00747273
     afc:	5f73626d 	svcpl	0x0073626d
     b00:	74617473 	strbtvc	r7, [r1], #-1139	; 0xfffffb8d
     b04:	53002965 	movwpl	r2, #2405	; 0x965
     b08:	20334950 	eorscs	r4, r3, r0, asr r9
     b0c:	50532828 	subspl	r2, r3, r8, lsr #16
     b10:	79545f49 	ldmdbvc	r4, {r0, r3, r6, r8, r9, sl, fp, ip, lr}^
     b14:	65646570 	strbvs	r6, [r4, #-1392]!	; 0xfffffa90
     b18:	20745f66 	rsbscs	r5, r4, r6, ror #30
     b1c:	5053292a 	subspl	r2, r3, sl, lsr #18
     b20:	425f3349 	subsmi	r3, pc, #603979777	; 0x24000001
     b24:	29455341 	stmdbcs	r5, {r0, r6, r8, r9, ip, lr}^
     b28:	755f5f00 	ldrbvc	r5, [pc, #-3840]	; fffffc30 <_estack+0xdfffd430>
     b2c:	756f626e 	strbvc	r6, [pc, #-622]!	; 8c6 <_Min_Stack_Size+0x4c6>
     b30:	6465646e 	strbtvs	r6, [r5], #-1134	; 0xfffffb92
     b34:	58450020 	stmdapl	r5, {r5}^
     b38:	35314954 	ldrcc	r4, [r1, #-2388]!	; 0xfffff6ac
     b3c:	35314150 	ldrcc	r4, [r1, #-336]!	; 0xfffffeb0
     b40:	58452820 	stmdapl	r5, {r5, fp, sp}^
     b44:	475f4954 			; <UNDEFINED> instruction: 0x475f4954
     b48:	5f4f4950 	svcpl	0x004f4950
     b4c:	7070614d 	rsbsvc	r6, r0, sp, asr #2
     b50:	5f676e69 	svcpl	0x00676e69
     b54:	457b2974 	ldrbmi	r2, [fp, #-2420]!	; 0xfffff68c
     b58:	31495458 	cmpcc	r9, r8, asr r4
     b5c:	47202c35 			; <UNDEFINED> instruction: 0x47202c35
     b60:	414f4950 	cmpmi	pc, r0, asr r9	; <UNPREDICTABLE>
     b64:	5047202c 	subpl	r2, r7, ip, lsr #32
     b68:	505f4f49 	subspl	r4, pc, r9, asr #30
     b6c:	315f4e49 	cmpcc	pc, r9, asr #28
     b70:	45202c35 	strmi	r2, [r0, #-3125]!	; 0xfffff3cb
     b74:	31495458 	cmpcc	r9, r8, asr r4
     b78:	52495f35 	subpl	r5, r9, #53, 30	; 0xd4
     b7c:	5f007d51 	svcpl	0x00007d51
     b80:	544e495f 	strbpl	r4, [lr], #-2399	; 0xfffff6a1
     b84:	68222038 	stmdavs	r2!, {r3, r4, r5, sp}
     b88:	45002268 	strmi	r2, [r0, #-616]	; 0xfffffd98
     b8c:	5f495458 	svcpl	0x00495458
     b90:	67697274 			; <UNDEFINED> instruction: 0x67697274
     b94:	5f726567 	svcpl	0x00726567
     b98:	6c6c6166 	stfvse	f6, [ip], #-408	; 0xfffffe68
     b9c:	20676e69 	rsbcs	r6, r7, r9, ror #28
     ba0:	49540031 	ldmdbmi	r4, {r0, r4, r5}^
     ba4:	425f354d 	subsmi	r3, pc, #322961408	; 0x13400000
     ba8:	20455341 	subcs	r5, r5, r1, asr #6
     bac:	30347830 	eorscc	r7, r4, r0, lsr r8
     bb0:	43303030 	teqmi	r0, #48	; 0x30
     bb4:	00753030 	rsbseq	r3, r5, r0, lsr r0
     bb8:	43475f5f 	movtmi	r5, #32607	; 0x7f5f
     bbc:	41485f43 	cmpmi	r8, r3, asr #30
     bc0:	535f4556 	cmppl	pc, #360710144	; 0x15800000
     bc4:	5f434e59 	svcpl	0x00434e59
     bc8:	504d4f43 	subpl	r4, sp, r3, asr #30
     bcc:	5f455241 	svcpl	0x00455241
     bd0:	5f444e41 	svcpl	0x00444e41
     bd4:	50415753 	subpl	r5, r1, r3, asr r7
     bd8:	3120315f 			; <UNDEFINED> instruction: 0x3120315f
     bdc:	544e4900 	strbpl	r4, [lr], #-2304	; 0xfffff700
     be0:	41454c5f 	cmpmi	r5, pc, asr ip
     be4:	36315453 			; <UNDEFINED> instruction: 0x36315453
     be8:	58414d5f 	stmdapl	r1, {r0, r1, r2, r3, r4, r6, r8, sl, fp, lr}^
     bec:	5f5f2820 	svcpl	0x005f2820
     bf0:	5f544e49 	svcpl	0x00544e49
     bf4:	5341454c 	movtpl	r4, #5452	; 0x154c
     bf8:	5f363154 	svcpl	0x00363154
     bfc:	5f58414d 	svcpl	0x0058414d
     c00:	5f00295f 	svcpl	0x0000295f
     c04:	4454535f 	ldrbmi	r5, [r4], #-863	; 0xfffffca1
     c08:	4f485f43 	svcmi	0x00485f43
     c0c:	44455453 	strbmi	r5, [r5], #-1107	; 0xfffffbad
     c10:	31205f5f 			; <UNDEFINED> instruction: 0x31205f5f
     c14:	555f5f00 	ldrbpl	r5, [pc, #-3840]	; fffffd1c <_estack+0xdfffd51c>
     c18:	52464c4c 	subpl	r4, r6, #76, 24	; 0x4c00
     c1c:	5f544341 	svcpl	0x00544341
     c20:	54494246 	strbpl	r4, [r9], #-582	; 0xfffffdba
     c24:	36205f5f 	qsaxcc	r5, r0, pc	; <UNPREDICTABLE>
     c28:	50530034 	subspl	r0, r3, r4, lsr r0
     c2c:	28203249 	stmdacs	r0!, {r0, r3, r6, r9, ip, sp}
     c30:	49505328 	ldmdbmi	r0, {r3, r5, r8, r9, ip, lr}^
     c34:	7079545f 	rsbsvc	r5, r9, pc, asr r4
     c38:	66656465 	strbtvs	r6, [r5], -r5, ror #8
     c3c:	2a20745f 	bcs	81ddc0 <_Min_Stack_Size+0x81d9c0>
     c40:	49505329 	ldmdbmi	r0, {r0, r3, r5, r8, r9, ip, lr}^
     c44:	41425f32 	cmpmi	r2, r2, lsr pc
     c48:	00294553 	eoreq	r4, r9, r3, asr r5
     c4c:	42444c5f 	submi	r4, r4, #24320	; 0x5f00
     c50:	51455f4c 	cmppl	r5, ip, asr #30
     c54:	4c42445f 	cfstrdmi	mvd4, [r2], {95}	; 0x5f
     c58:	47003120 	strmi	r3, [r0, -r0, lsr #2]
     c5c:	5f4f4950 	svcpl	0x004f4950
     c60:	5f4e4950 	svcpl	0x004e4950
     c64:	28282034 	stmdacs	r8!, {r2, r4, r5, sp}
     c68:	746e6975 	strbtvc	r6, [lr], #-2421	; 0xfffff68b
     c6c:	745f3631 	ldrbvc	r3, [pc], #-1585	; c74 <_Min_Stack_Size+0x874>
     c70:	78302029 	ldmdavc	r0!, {r0, r3, r5, sp}
     c74:	30313030 	eorscc	r3, r1, r0, lsr r0
     c78:	5f5f0029 	svcpl	0x005f0029
     c7c:	5f544e49 	svcpl	0x00544e49
     c80:	54534146 	ldrbpl	r4, [r3], #-326	; 0xfffffeba
     c84:	545f3436 	ldrbpl	r3, [pc], #-1078	; c8c <_Min_Stack_Size+0x88c>
     c88:	5f455059 	svcpl	0x00455059
     c8c:	6f6c205f 	svcvs	0x006c205f
     c90:	6c20676e 	stcvs	7, cr6, [r0], #-440	; 0xfffffe48
     c94:	20676e6f 	rsbcs	r6, r7, pc, ror #28
     c98:	00746e69 	rsbseq	r6, r4, r9, ror #28
     c9c:	52415f5f 	subpl	r5, r1, #380	; 0x17c
     ca0:	45465f4d 	strbmi	r5, [r6, #-3917]	; 0xfffff0b3
     ca4:	52555441 	subspl	r5, r5, #1090519040	; 0x41000000
     ca8:	4f435f45 	svcmi	0x00435f45
     cac:	434f5250 	movtmi	r5, #62032	; 0xf250
     cb0:	00353120 	eorseq	r3, r5, r0, lsr #2
     cb4:	5f434352 	svcpl	0x00434352
     cb8:	4f495047 	svcmi	0x00495047
     cbc:	4c435f43 	mcrrmi	15, 4, r5, r3, cr3
     cc0:	4e455f4b 	cdpmi	15, 4, cr5, cr5, cr11, {2}
     cc4:	28202928 	stmdacs	r0!, {r3, r5, r8, fp, sp}
     cc8:	2d434352 	stclcs	3, cr4, [r3, #-328]	; 0xfffffeb8
     ccc:	4250413e 	subsmi	r4, r0, #-2147483633	; 0x8000000f
     cd0:	524e4532 	subpl	r4, lr, #209715200	; 0xc800000
     cd4:	203d7c20 	eorscs	r7, sp, r0, lsr #24
     cd8:	3c3c3128 	ldfccs	f3, [ip], #-160	; 0xffffff60
     cdc:	00292934 	eoreq	r2, r9, r4, lsr r9
     ce0:	38544e49 	ldmdacc	r4, {r0, r3, r6, r9, sl, fp, lr}^
     ce4:	58414d5f 	stmdapl	r1, {r0, r1, r2, r3, r4, r6, r8, sl, fp, lr}^
     ce8:	5f5f2820 	svcpl	0x005f2820
     cec:	38544e49 	ldmdacc	r4, {r0, r3, r6, r9, sl, fp, lr}^
     cf0:	58414d5f 	stmdapl	r1, {r0, r1, r2, r3, r4, r6, r8, sl, fp, lr}^
     cf4:	00295f5f 	eoreq	r5, r9, pc, asr pc
     cf8:	535f534f 	cmppl	pc, #1006632961	; 0x3c000001
     cfc:	63746977 	cmnvs	r4, #1949696	; 0x1dc000
     d00:	50535f68 	subspl	r5, r3, r8, ror #30
     d04:	5f6f745f 	svcpl	0x006f745f
     d08:	20505350 	subscs	r5, r0, r0, asr r3
     d0c:	73615f5f 	cmnvc	r1, #380	; 0x17c
     d10:	6f76206d 	svcvs	0x0076206d
     d14:	6974616c 	ldmdbvs	r4!, {r2, r3, r5, r6, r8, sp, lr}^
     d18:	2228656c 	eorcs	r6, r8, #108, 10	; 0x1b000000
     d1c:	2053524d 	subscs	r5, r3, sp, asr #4
     d20:	432c3072 			; <UNDEFINED> instruction: 0x432c3072
     d24:	52544e4f 	subspl	r4, r4, #1264	; 0x4f0
     d28:	5c204c4f 	stcpl	12, cr4, [r0], #-316	; 0xfffffec4
     d2c:	20745c6e 	rsbscs	r5, r4, lr, ror #24
     d30:	20564f4d 	subscs	r4, r6, sp, asr #30
     d34:	232c3172 			; <UNDEFINED> instruction: 0x232c3172
     d38:	32307830 	eorscc	r7, r0, #48, 16	; 0x300000
     d3c:	5c6e5c20 	stclpl	12, cr5, [lr], #-128	; 0xffffff80
     d40:	524f2074 	subpl	r2, pc, #116	; 0x74
     d44:	30722052 	rsbscc	r2, r2, r2, asr r0
     d48:	2c30722c 	lfmcs	f7, 4, [r0], #-176	; 0xffffff50
     d4c:	5c203172 	stfpls	f3, [r0], #-456	; 0xfffffe38
     d50:	20745c6e 	rsbscs	r5, r4, lr, ror #24
     d54:	2052534d 	subscs	r5, r2, sp, asr #6
     d58:	544e4f43 	strbpl	r4, [lr], #-3907	; 0xfffff0bd
     d5c:	2c4c4f52 	mcrrcs	15, 5, r4, ip, cr2
     d60:	22307220 	eorscs	r7, r0, #32, 4
     d64:	5f5f0029 	svcpl	0x005f0029
     d68:	455a4953 	ldrbmi	r4, [sl, #-2387]	; 0xfffff6ad
     d6c:	5f5f545f 	svcpl	0x005f545f
     d70:	54500020 	ldrbpl	r0, [r0], #-32	; 0xffffffe0
     d74:	46494452 			; <UNDEFINED> instruction: 0x46494452
     d78:	414d5f46 	cmpmi	sp, r6, asr #30
     d7c:	5f282058 	svcpl	0x00282058
     d80:	5254505f 	subspl	r5, r4, #95	; 0x5f
     d84:	46464944 	strbmi	r4, [r6], -r4, asr #18
     d88:	58414d5f 	stmdapl	r1, {r0, r1, r2, r3, r4, r6, r8, sl, fp, lr}^
     d8c:	00295f5f 	eoreq	r5, r9, pc, asr pc
     d90:	4c465f5f 	mcrrmi	15, 5, r5, r6, cr15
     d94:	5f323354 	svcpl	0x00323354
     d98:	5f58414d 	svcpl	0x0058414d
     d9c:	455f3031 	ldrbmi	r3, [pc, #-49]	; d73 <_Min_Stack_Size+0x973>
     da0:	5f5f5058 	svcpl	0x005f5058
     da4:	00383320 	eorseq	r3, r8, r0, lsr #6
     da8:	49555f5f 	ldmdbmi	r5, {r0, r1, r2, r3, r4, r6, r8, r9, sl, fp, ip, lr}^
     dac:	3631544e 	ldrtcc	r5, [r1], -lr, asr #8
     db0:	5059545f 	subspl	r5, r9, pc, asr r4
     db4:	205f5f45 	subscs	r5, pc, r5, asr #30
     db8:	726f6873 	rsbvc	r6, pc, #7536640	; 0x730000
     dbc:	6e752074 	mrcvs	0, 3, r2, cr5, cr4, {3}
     dc0:	6e676973 			; <UNDEFINED> instruction: 0x6e676973
     dc4:	69206465 	stmdbvs	r0!, {r0, r2, r5, r6, sl, sp, lr}
     dc8:	4700746e 	strmi	r7, [r0, -lr, ror #8]
     dcc:	5f4f4950 	svcpl	0x004f4950
     dd0:	45455053 	strbmi	r5, [r5, #-83]	; 0xffffffad
     dd4:	4d325f44 	ldcmi	15, cr5, [r2, #-272]!	; 0xfffffef0
     dd8:	30783020 	rsbscc	r3, r8, r0, lsr #32
     ddc:	30303030 	eorscc	r3, r0, r0, lsr r0
     de0:	75323030 	ldrvc	r3, [r2, #-48]!	; 0xffffffd0
     de4:	49504700 	ldmdbmi	r0, {r8, r9, sl, lr}^
     de8:	49505f4f 	ldmdbmi	r0, {r0, r1, r2, r3, r6, r8, r9, sl, fp, ip, lr}^
     dec:	20375f4e 	eorscs	r5, r7, lr, asr #30
     df0:	69752828 	ldmdbvs	r5!, {r3, r5, fp, sp}^
     df4:	3631746e 	ldrtcc	r7, [r1], -lr, ror #8
     df8:	2029745f 	eorcs	r7, r9, pc, asr r4
     dfc:	30307830 	eorscc	r7, r0, r0, lsr r8
     e00:	00293038 	eoreq	r3, r9, r8, lsr r0
     e04:	4545525f 	strbmi	r5, [r5, #-607]	; 0xfffffda1
     e08:	435f544e 	cmpmi	pc, #1308622848	; 0x4e000000
     e0c:	4b434548 	blmi	10d2334 <_Min_Stack_Size+0x10d1f34>
     e10:	284d545f 	stmdacs	sp, {r0, r1, r2, r3, r4, r6, sl, ip, lr}^
     e14:	29726176 	ldmdbcs	r2!, {r1, r2, r4, r5, r6, r8, sp, lr}^
     e18:	45525f20 	ldrbmi	r5, [r2, #-3872]	; 0xfffff0e0
     e1c:	5f544e45 	svcpl	0x00544e45
     e20:	43454843 	movtmi	r4, #22595	; 0x5843
     e24:	6176284b 	cmnvs	r6, fp, asr #16
     e28:	5f202c72 	svcpl	0x00202c72
     e2c:	61636f6c 	cmnvs	r3, ip, ror #30
     e30:	6d69746c 	cfstrdvs	mvd7, [r9, #-432]!	; 0xfffffe50
     e34:	75625f65 	strbvc	r5, [r2, #-3941]!	; 0xfffff09b
     e38:	73202c66 			; <UNDEFINED> instruction: 0x73202c66
     e3c:	63757274 	cmnvs	r5, #116, 4	; 0x40000007
     e40:	5f5f2074 	svcpl	0x005f2074
     e44:	2a206d74 	bcs	81c41c <_Min_Stack_Size+0x81c01c>
     e48:	6973202c 	ldmdbvs	r3!, {r2, r3, r5, sp}^
     e4c:	666f657a 			; <UNDEFINED> instruction: 0x666f657a
     e50:	28282a20 	stmdacs	r8!, {r5, r9, fp, sp}
     e54:	29726176 	ldmdbcs	r2!, {r1, r2, r4, r5, r6, r8, sp, lr}^
     e58:	6c5f3e2d 	mrrcvs	14, 2, r3, pc, cr13	; <UNPREDICTABLE>
     e5c:	6c61636f 	stclvs	3, cr6, [r1], #-444	; 0xfffffe44
     e60:	656d6974 	strbvs	r6, [sp, #-2420]!	; 0xfffff68c
     e64:	6675625f 			; <UNDEFINED> instruction: 0x6675625f
     e68:	29202c29 	stmdbcs	r0!, {r0, r3, r5, sl, fp, sp}
     e6c:	5f534f00 	svcpl	0x00534f00
     e70:	74697753 	strbtvc	r7, [r9], #-1875	; 0xfffff8ad
     e74:	535f6863 	cmppl	pc, #6488064	; 0x630000
     e78:	6f745f50 	svcvs	0x00745f50
     e7c:	50534d5f 	subspl	r4, r3, pc, asr sp
     e80:	615f5f20 	cmpvs	pc, r0, lsr #30
     e84:	76206d73 			; <UNDEFINED> instruction: 0x76206d73
     e88:	74616c6f 	strbtvc	r6, [r1], #-3183	; 0xfffff391
     e8c:	28656c69 	stmdacs	r5!, {r0, r3, r5, r6, sl, fp, sp, lr}^
     e90:	53524d22 	cmppl	r2, #2176	; 0x880
     e94:	2c307220 	lfmcs	f7, 4, [r0], #-128	; 0xffffff80
     e98:	544e4f43 	strbpl	r4, [lr], #-3907	; 0xfffff0bd
     e9c:	204c4f52 	subcs	r4, ip, r2, asr pc
     ea0:	745c6e5c 	ldrbvc	r6, [ip], #-3676	; 0xfffff1a4
     ea4:	564f4d20 	strbpl	r4, [pc], -r0, lsr #26
     ea8:	2c317220 	lfmcs	f7, 4, [r1], #-128	; 0xffffff80
     eac:	30783023 	rsbscc	r3, r8, r3, lsr #32
     eb0:	6e5c2035 	mrcvs	0, 2, r2, cr12, cr5, {1}
     eb4:	4120745c 			; <UNDEFINED> instruction: 0x4120745c
     eb8:	7220444e 	eorvc	r4, r0, #1308622848	; 0x4e000000
     ebc:	30722c30 	rsbscc	r2, r2, r0, lsr ip
     ec0:	2031722c 	eorscs	r7, r1, ip, lsr #4
     ec4:	745c6e5c 	ldrbvc	r6, [ip], #-3676	; 0xfffff1a4
     ec8:	52534d20 	subspl	r4, r3, #32, 26	; 0x800
     ecc:	4e4f4320 	cdpmi	3, 4, cr4, cr15, cr0, {1}
     ed0:	4c4f5254 	sfmmi	f5, 2, [pc], {84}	; 0x54
     ed4:	3072202c 	rsbscc	r2, r2, ip, lsr #32
     ed8:	5f002922 	svcpl	0x00002922
     edc:	4653555f 			; <UNDEFINED> instruction: 0x4653555f
     ee0:	54434152 	strbpl	r4, [r3], #-338	; 0xfffffeae
     ee4:	58414d5f 	stmdapl	r1, {r0, r1, r2, r3, r4, r6, r8, sl, fp, lr}^
     ee8:	30205f5f 	eorcc	r5, r0, pc, asr pc
     eec:	50464658 	subpl	r4, r6, r8, asr r6
     ef0:	4855382d 	ldmdami	r5, {r0, r2, r3, r5, fp, ip, sp}^
     ef4:	58450052 	stmdapl	r5, {r1, r4, r6}^
     ef8:	30314954 	eorscc	r4, r1, r4, asr r9
     efc:	00303120 	eorseq	r3, r0, r0, lsr #2
     f00:	49555f5f 	ldmdbmi	r5, {r0, r1, r2, r3, r4, r6, r8, r9, sl, fp, ip, lr}^
     f04:	5450544e 	ldrbpl	r5, [r0], #-1102	; 0xfffffbb2
     f08:	414d5f52 	cmpmi	sp, r2, asr pc
     f0c:	205f5f58 	subscs	r5, pc, r8, asr pc	; <UNPREDICTABLE>
     f10:	66667830 			; <UNDEFINED> instruction: 0x66667830
     f14:	66666666 	strbtvs	r6, [r6], -r6, ror #12
     f18:	00556666 	subseq	r6, r5, r6, ror #12
     f1c:	656e5f5f 	strbvs	r5, [lr, #-3935]!	; 0xfffff0a1
     f20:	775f6465 	ldrbvc	r6, [pc, -r5, ror #8]
     f24:	72616863 	rsbvc	r6, r1, #6488064	; 0x630000
     f28:	5f00745f 	svcpl	0x0000745f
     f2c:	544c465f 	strbpl	r4, [ip], #-1631	; 0xfffff9a1
     f30:	4d5f3233 	lfmmi	f3, 2, [pc, #-204]	; e6c <_Min_Stack_Size+0xa6c>
     f34:	455f4e49 	ldrbmi	r4, [pc, #-3657]	; f3 <_Min_Heap_Size-0x10d>
     f38:	5f5f5058 	svcpl	0x005f5058
     f3c:	312d2820 			; <UNDEFINED> instruction: 0x312d2820
     f40:	00293532 	eoreq	r3, r9, r2, lsr r5
     f44:	65725f5f 	ldrbvs	r5, [r2, #-3935]!	; 0xfffff0a1
     f48:	746c7573 	strbtvc	r7, [ip], #-1395	; 0xfffffa8d
     f4c:	6573755f 	ldrbvs	r7, [r3, #-1375]!	; 0xfffffaa1
     f50:	6568635f 	strbvs	r6, [r8, #-863]!	; 0xfffffca1
     f54:	5f206b63 	svcpl	0x00206b63
     f58:	7474615f 	ldrbtvc	r6, [r4], #-351	; 0xfffffea1
     f5c:	75626972 	strbvc	r6, [r2, #-2418]!	; 0xfffff68e
     f60:	5f5f6574 	svcpl	0x005f6574
     f64:	5f5f2828 	svcpl	0x005f2828
     f68:	6e726177 	mrcvs	1, 3, r6, cr2, cr7, {3}
     f6c:	756e755f 	strbvc	r7, [lr, #-1375]!	; 0xfffffaa1
     f70:	5f646573 	svcpl	0x00646573
     f74:	75736572 	ldrbvc	r6, [r3, #-1394]!	; 0xfffffa8e
     f78:	5f5f746c 	svcpl	0x005f746c
     f7c:	45002929 	strmi	r2, [r0, #-2345]	; 0xfffff6d7
     f80:	31495458 	cmpcc	r9, r8, asr r4
     f84:	31425032 	cmpcc	r2, r2, lsr r0
     f88:	45282032 	strmi	r2, [r8, #-50]!	; 0xffffffce
     f8c:	5f495458 	svcpl	0x00495458
     f90:	4f495047 	svcmi	0x00495047
     f94:	70614d5f 	rsbvc	r4, r1, pc, asr sp
     f98:	676e6970 			; <UNDEFINED> instruction: 0x676e6970
     f9c:	7b29745f 	blvc	a5e120 <_Min_Stack_Size+0xa5dd20>
     fa0:	49545845 	ldmdbmi	r4, {r0, r2, r6, fp, ip, lr}^
     fa4:	202c3231 	eorcs	r3, ip, r1, lsr r2
     fa8:	4f495047 	svcmi	0x00495047
     fac:	47202c42 	strmi	r2, [r0, -r2, asr #24]!
     fb0:	5f4f4950 	svcpl	0x004f4950
     fb4:	5f4e4950 	svcpl	0x004e4950
     fb8:	202c3231 	eorcs	r3, ip, r1, lsr r2
     fbc:	49545845 	ldmdbmi	r4, {r0, r2, r6, fp, ip, lr}^
     fc0:	495f3231 	ldmdbmi	pc, {r0, r4, r5, r9, ip, sp}^	; <UNPREDICTABLE>
     fc4:	007d5152 	rsbseq	r5, sp, r2, asr r1
     fc8:	43525f5f 	cmpmi	r2, #380	; 0x17c
     fcc:	5f444953 	svcpl	0x00444953
     fd0:	52554f53 	subspl	r4, r5, #332	; 0x14c
     fd4:	73284543 			; <UNDEFINED> instruction: 0x73284543
     fd8:	74732029 	ldrbtvc	r2, [r3], #-41	; 0xffffffd7
     fdc:	74637572 	strbtvc	r7, [r3], #-1394	; 0xfffffa8e
     fe0:	685f5f20 	ldmdavs	pc, {r5, r8, r9, sl, fp, ip, lr}^	; <UNPREDICTABLE>
     fe4:	006b6361 	rsbeq	r6, fp, r1, ror #6
     fe8:	4453425f 	ldrbmi	r4, [r3], #-607	; 0xfffffda1
     fec:	5254505f 	subspl	r5, r4, #95	; 0x5f
     ff0:	46464944 	strbmi	r4, [r6], -r4, asr #18
     ff4:	205f545f 	subscs	r5, pc, pc, asr r4	; <UNPREDICTABLE>
     ff8:	544e4900 	strbpl	r4, [lr], #-2304	; 0xfffff700
     ffc:	4d5f3631 	ldclmi	6, cr3, [pc, #-196]	; f40 <_Min_Stack_Size+0xb40>
    1000:	28205841 	stmdacs	r0!, {r0, r6, fp, ip, lr}
    1004:	4e495f5f 	mcrmi	15, 2, r5, cr9, cr15, {2}
    1008:	5f363154 	svcpl	0x00363154
    100c:	5f58414d 	svcpl	0x0058414d
    1010:	5500295f 	strpl	r2, [r0, #-2399]	; 0xfffff6a1
    1014:	5f545241 	svcpl	0x00545241
    1018:	706f7473 	rsbvc	r7, pc, r3, ror r4	; <UNPREDICTABLE>
    101c:	73746942 	cmnvc	r4, #1081344	; 0x108000
    1020:	685f315f 	ldmdavs	pc, {r0, r1, r2, r3, r4, r6, r8, ip, sp}^	; <UNPREDICTABLE>
    1024:	20666c61 	rsbcs	r6, r6, r1, ror #24
    1028:	6e697528 	cdpvs	5, 6, cr7, cr9, cr8, {1}
    102c:	5f323374 	svcpl	0x00323374
    1030:	33282974 			; <UNDEFINED> instruction: 0x33282974
    1034:	32313c3c 	eorscc	r3, r1, #60, 24	; 0x3c00
    1038:	5f5f0029 	svcpl	0x005f0029
    103c:	52464c55 	subpl	r4, r6, #21760	; 0x5500
    1040:	5f544341 	svcpl	0x00544341
    1044:	54494246 	strbpl	r4, [r9], #-582	; 0xfffffdba
    1048:	33205f5f 			; <UNDEFINED> instruction: 0x33205f5f
    104c:	45500032 	ldrbmi	r0, [r0, #-50]	; 0xffffffce
    1050:	48504952 	ldmdami	r0, {r1, r4, r6, r8, fp, lr}^
    1054:	4c415245 	sfmmi	f5, 2, [r1], {69}	; 0x45
    1058:	41425f53 	cmpmi	r2, r3, asr pc
    105c:	30204553 	eorcc	r4, r0, r3, asr r5
    1060:	30303478 	eorscc	r3, r0, r8, ror r4
    1064:	30303030 	eorscc	r3, r0, r0, lsr r0
    1068:	5f007530 	svcpl	0x00007530
    106c:	544c465f 	strbpl	r4, [ip], #-1631	; 0xfffff9a1
    1070:	4d5f3436 	cfldrdmi	mvd3, [pc, #-216]	; fa0 <_Min_Stack_Size+0xba0>
    1074:	315f4e49 	cmpcc	pc, r9, asr #28
    1078:	58455f30 	stmdapl	r5, {r4, r5, r8, r9, sl, fp, ip, lr}^
    107c:	205f5f50 	subscs	r5, pc, r0, asr pc	; <UNPREDICTABLE>
    1080:	30332d28 	eorscc	r2, r3, r8, lsr #26
    1084:	55002937 	strpl	r2, [r0, #-2359]	; 0xfffff6c9
    1088:	5f545241 	svcpl	0x00545241
    108c:	45444f4d 	strbmi	r4, [r4, #-3917]	; 0xfffff0b3
    1090:	2078525f 	rsbscs	r5, r8, pc, asr r2
    1094:	6e697528 	cdpvs	5, 6, cr7, cr9, cr8, {1}
    1098:	5f323374 	svcpl	0x00323374
    109c:	31282974 			; <UNDEFINED> instruction: 0x31282974
    10a0:	29323c3c 	ldmdbcs	r2!, {r2, r3, r4, r5, sl, fp, ip, sp}
    10a4:	735f5f00 	cmpvc	pc, #0, 30
    10a8:	5f657a69 	svcpl	0x00657a69
    10ac:	5f002074 	svcpl	0x00002074
    10b0:	756f625f 	strbvc	r6, [pc, #-607]!	; e59 <_Min_Stack_Size+0xa59>
    10b4:	6465646e 	strbtvs	r6, [r5], #-1134	; 0xfffffb92
    10b8:	5f5f0020 	svcpl	0x005f0020
    10bc:	5f746e69 	svcpl	0x00746e69
    10c0:	74736166 	ldrbtvc	r6, [r3], #-358	; 0xfffffe9a
    10c4:	745f3233 	ldrbvc	r3, [pc], #-563	; 10cc <_Min_Stack_Size+0xccc>
    10c8:	6665645f 			; <UNDEFINED> instruction: 0x6665645f
    10cc:	64656e69 	strbtvs	r6, [r5], #-3689	; 0xfffff197
    10d0:	5f003120 	svcpl	0x00003120
    10d4:	544e495f 	strbpl	r4, [lr], #-2399	; 0xfffff6a1
    10d8:	5341465f 	movtpl	r4, #5727	; 0x165f
    10dc:	5f343654 	svcpl	0x00343654
    10e0:	54444957 	strbpl	r4, [r4], #-2391	; 0xfffff6a9
    10e4:	205f5f48 	subscs	r5, pc, r8, asr #30
    10e8:	5f003436 	svcpl	0x00003436
    10ec:	6e695f5f 	mcrvs	15, 3, r5, cr9, cr15, {2}
    10f0:	63775f74 	cmnvs	r7, #116, 30	; 0x1d0
    10f4:	5f726168 	svcpl	0x00726168
    10f8:	20685f74 	rsbcs	r5, r8, r4, ror pc
    10fc:	4e414d00 	cdpmi	13, 4, cr4, cr1, cr0, {0}
    1100:	53534954 	cmppl	r3, #84, 18	; 0x150000
    1104:	63462841 	movtvs	r2, #26689	; 0x6841
    1108:	622c6b6c 	eorvs	r6, ip, #108, 22	; 0x1b000
    110c:	72647561 	rsbvc	r7, r4, #406847488	; 0x18400000
    1110:	29657461 	stmdbcs	r5!, {r0, r5, r6, sl, ip, sp, lr}^
    1114:	69752820 	ldmdbvs	r5!, {r5, fp, sp}^
    1118:	3233746e 	eorscc	r7, r3, #1845493760	; 0x6e000000
    111c:	2029745f 	eorcs	r7, r9, pc, asr r4
    1120:	41535528 	cmpmi	r3, r8, lsr #10
    1124:	445f5452 	ldrbmi	r5, [pc], #-1106	; 112c <_Min_Stack_Size+0xd2c>
    1128:	46285649 	strtmi	r5, [r8], -r9, asr #12
    112c:	2c6b6c63 	stclcs	12, cr6, [fp], #-396	; 0xfffffe74
    1130:	64756162 	ldrbtvs	r6, [r5], #-354	; 0xfffffe9e
    1134:	65746172 	ldrbvs	r6, [r4, #-370]!	; 0xfffffe8e
    1138:	49002929 	stmdbmi	r0, {r0, r3, r5, r8, fp, sp}
    113c:	3631544e 	ldrtcc	r5, [r1], -lr, asr #8
    1140:	7828435f 	stmdavc	r8!, {r0, r1, r2, r3, r4, r6, r8, r9, lr}
    1144:	5f5f2029 	svcpl	0x005f2029
    1148:	31544e49 	cmpcc	r4, r9, asr #28
    114c:	28435f36 	stmdacs	r3, {r1, r2, r4, r5, r8, r9, sl, fp, ip, lr}^
    1150:	5f002978 	svcpl	0x00002978
    1154:	5246535f 	subpl	r5, r6, #2080374785	; 0x7c000001
    1158:	5f544341 	svcpl	0x00544341
    115c:	49535045 	ldmdbmi	r3, {r0, r2, r6, ip, lr}^
    1160:	5f4e4f4c 	svcpl	0x004e4f4c
    1164:	7830205f 	ldmdavc	r0!, {r0, r1, r2, r3, r4, r6, sp}
    1168:	372d5031 			; <UNDEFINED> instruction: 0x372d5031
    116c:	5f005248 	svcpl	0x00005248
    1170:	4e4f435f 	mcrmi	3, 2, r4, cr15, cr15, {2}
    1174:	31544143 	cmpcc	r4, r3, asr #2
    1178:	792c7828 	stmdbvc	ip!, {r3, r5, fp, ip, sp, lr}
    117c:	20782029 	rsbscs	r2, r8, r9, lsr #32
    1180:	79202323 	stmdbvc	r0!, {r0, r1, r5, r8, r9, sp}
    1184:	706e7500 	rsbvc	r7, lr, r0, lsl #10
    1188:	69766972 	ldmdbvs	r6!, {r1, r4, r5, r6, r8, fp, sp, lr}^
    118c:	6567656c 	strbvs	r6, [r7, #-1388]!	; 0xfffffa94
    1190:	545f0064 	ldrbpl	r0, [pc], #-100	; 1198 <_Min_Stack_Size+0xd98>
    1194:	5a49535f 	bpl	1255f18 <_Min_Stack_Size+0x1255b18>
    1198:	5f002045 	svcpl	0x00002045
    119c:	4c42445f 	cfstrdmi	mvd4, [r2], {95}	; 0x5f
    11a0:	4e494d5f 	mcrmi	13, 2, r4, cr9, cr15, {2}
    11a4:	5f30315f 	svcpl	0x0030315f
    11a8:	5f505845 	svcpl	0x00505845
    11ac:	2d28205f 	stccs	0, cr2, [r8, #-380]!	; 0xfffffe84
    11b0:	29373033 	ldmdbcs	r7!, {r0, r1, r4, r5, ip, sp}
    11b4:	555f5f00 	ldrbpl	r5, [pc, #-3840]	; 2bc <_Min_Heap_Size+0xbc>
    11b8:	465f5153 			; <UNDEFINED> instruction: 0x465f5153
    11bc:	5f544942 	svcpl	0x00544942
    11c0:	3233205f 	eorscc	r2, r3, #95	; 0x5f
    11c4:	4f5f5f00 	svcmi	0x005f5f00
    11c8:	52454452 	subpl	r4, r5, #1375731712	; 0x52000000
    11cc:	4749425f 	smlsldmi	r4, r9, pc, r2	; <UNPREDICTABLE>
    11d0:	444e455f 	strbmi	r4, [lr], #-1375	; 0xfffffaa1
    11d4:	5f4e4149 	svcpl	0x004e4149
    11d8:	3334205f 	teqcc	r4, #95	; 0x5f
    11dc:	45003132 	strmi	r3, [r0, #-306]	; 0xfffffece
    11e0:	31495458 	cmpcc	r9, r8, asr r4
    11e4:	34312034 	ldrtcc	r2, [r1], #-52	; 0xffffffcc
    11e8:	545f5f00 	ldrbpl	r5, [pc], #-3840	; 11f0 <_Min_Stack_Size+0xdf0>
    11ec:	424d5548 	submi	r5, sp, #72, 10	; 0x12000000
    11f0:	544e495f 	strbpl	r4, [lr], #-2399	; 0xfffff6a1
    11f4:	4f575245 	svcmi	0x00575245
    11f8:	5f5f4b52 	svcpl	0x005f4b52
    11fc:	5f003120 	svcpl	0x00003120
    1200:	5f51535f 	svcpl	0x0051535f
    1204:	54494246 	strbpl	r4, [r9], #-582	; 0xfffffdba
    1208:	33205f5f 			; <UNDEFINED> instruction: 0x33205f5f
    120c:	564e0031 			; <UNDEFINED> instruction: 0x564e0031
    1210:	555f4349 	ldrbpl	r4, [pc, #-841]	; ecf <_Min_Stack_Size+0xacf>
    1214:	54524153 	ldrbpl	r4, [r2], #-339	; 0xfffffead
    1218:	52495f32 	subpl	r5, r9, #50, 30	; 0xc8
    121c:	69445f51 	stmdbvs	r4, {r0, r4, r6, r8, r9, sl, fp, ip, lr}^
    1220:	6c626173 	stfvse	f6, [r2], #-460	; 0xfffffe34
    1224:	4e282065 	cdpmi	0, 2, cr2, cr8, cr5, {3}
    1228:	5f434956 	svcpl	0x00434956
    122c:	52454349 	subpl	r4, r5, #603979777	; 0x24000001
    1230:	3d7c2031 	ldclcc	0, cr2, [ip, #-196]!	; 0xffffff3c
    1234:	3c3c3120 	ldfccs	f3, [ip], #-128	; 0xffffff80
    1238:	41535528 	cmpmi	r3, r8, lsr #10
    123c:	5f325452 	svcpl	0x00325452
    1240:	20515249 	subscs	r5, r1, r9, asr #4
    1244:	3233202d 	eorscc	r2, r3, #45	; 0x2d
    1248:	5f002929 	svcpl	0x00002929
    124c:	44494c45 	strbmi	r4, [r9], #-3141	; 0xfffff3bb
    1250:	454c4241 	strbmi	r4, [ip, #-577]	; 0xfffffdbf
    1254:	4c4e495f 	mcrrmi	9, 5, r4, lr, cr15	; <UNPREDICTABLE>
    1258:	20454e49 	subcs	r4, r5, r9, asr #28
    125c:	74617473 	strbtvc	r7, [r1], #-1139	; 0xfffffb8d
    1260:	5f206369 	svcpl	0x00206369
    1264:	6c6e695f 			; <UNDEFINED> instruction: 0x6c6e695f
    1268:	5f656e69 	svcpl	0x00656e69
    126c:	555f005f 	ldrbpl	r0, [pc, #-95]	; 1215 <_Min_Stack_Size+0xe15>
    1270:	31544e49 	cmpcc	r4, r9, asr #28
    1274:	5f545f36 	svcpl	0x00545f36
    1278:	4c434544 	cfstr64mi	mvdx4, [r3], {68}	; 0x44
    127c:	44455241 	strbmi	r5, [r5], #-577	; 0xfffffdbf
    1280:	5f5f0020 	svcpl	0x005f0020
    1284:	5f514855 	svcpl	0x00514855
    1288:	54494246 	strbpl	r4, [r9], #-582	; 0xfffffdba
    128c:	31205f5f 			; <UNDEFINED> instruction: 0x31205f5f
    1290:	4e490036 	mcrmi	0, 2, r0, cr9, cr6, {1}
    1294:	454c5f54 	strbmi	r5, [ip, #-3924]	; 0xfffff0ac
    1298:	36545341 	ldrbcc	r5, [r4], -r1, asr #6
    129c:	414d5f34 	cmpmi	sp, r4, lsr pc
    12a0:	5f282058 	svcpl	0x00282058
    12a4:	544e495f 	strbpl	r4, [lr], #-2399	; 0xfffff6a1
    12a8:	41454c5f 	cmpmi	r5, pc, asr ip
    12ac:	34365453 	ldrtcc	r5, [r6], #-1107	; 0xfffffbad
    12b0:	58414d5f 	stmdapl	r1, {r0, r1, r2, r3, r4, r6, r8, sl, fp, lr}^
    12b4:	00295f5f 	eoreq	r5, r9, pc, asr pc
    12b8:	4545525f 	strbmi	r5, [r5, #-607]	; 0xfffffda1
    12bc:	455f544e 	ldrbmi	r5, [pc, #-1102]	; e76 <_Min_Stack_Size+0xa76>
    12c0:	4752454d 	ldrbmi	r4, [r2, -sp, asr #10]
    12c4:	59434e45 	stmdbpl	r3, {r0, r2, r6, r9, sl, fp, lr}^
    12c8:	5a49535f 	bpl	125604c <_Min_Stack_Size+0x1255c4c>
    12cc:	35322045 	ldrcc	r2, [r2, #-69]!	; 0xffffffbb
    12d0:	4d495400 	cfstrdmi	mvd5, [r9, #-0]
    12d4:	41425f39 	cmpmi	r2, r9, lsr pc
    12d8:	30204553 	eorcc	r4, r0, r3, asr r5
    12dc:	30303478 	eorscc	r3, r0, r8, ror r4
    12e0:	30433431 	subcc	r3, r3, r1, lsr r4
    12e4:	5f007530 	svcpl	0x00007530
    12e8:	5254505f 	subspl	r5, r4, #95	; 0x5f
    12ec:	46464944 	strbmi	r4, [r6], -r4, asr #18
    12f0:	4449575f 	strbmi	r5, [r9], #-1887	; 0xfffff8a1
    12f4:	5f5f4854 	svcpl	0x005f4854
    12f8:	00323320 	eorseq	r3, r2, r0, lsr #6
    12fc:	65775f5f 	ldrbvs	r5, [r7, #-3935]!	; 0xfffff0a1
    1300:	725f6b61 	subsvc	r6, pc, #99328	; 0x18400
    1304:	72656665 	rsbvc	r6, r5, #105906176	; 0x6500000
    1308:	65636e65 	strbvs	r6, [r3, #-3685]!	; 0xfffff19b
    130c:	6d797328 	ldclvs	3, cr7, [r9, #-160]!	; 0xffffff60
    1310:	696c612c 	stmdbvs	ip!, {r2, r3, r5, r8, sp, lr}^
    1314:	20297361 	eorcs	r7, r9, r1, ror #6
    1318:	73615f5f 	cmnvc	r1, #380	; 0x17c
    131c:	285f5f6d 	ldmdacs	pc, {r0, r2, r3, r5, r6, r8, r9, sl, fp, ip, lr}^	; <UNPREDICTABLE>
    1320:	65772e22 	ldrbvs	r2, [r7, #-3618]!	; 0xfffff1de
    1324:	22206b61 	eorcs	r6, r0, #99328	; 0x18400
    1328:	6c612320 	stclvs	3, cr2, [r1], #-128	; 0xffffff80
    132c:	29736169 	ldmdbcs	r3!, {r0, r3, r5, r6, r8, sp, lr}^
    1330:	5f5f203b 	svcpl	0x005f203b
    1334:	5f6d7361 	svcpl	0x006d7361
    1338:	2e22285f 	mcrcs	8, 1, r2, cr2, cr15, {2}
    133c:	20757165 	rsbscs	r7, r5, r5, ror #2
    1340:	61232022 			; <UNDEFINED> instruction: 0x61232022
    1344:	7361696c 	cmnvc	r1, #108, 18	; 0x1b0000
    1348:	202c2220 	eorcs	r2, ip, r0, lsr #4
    134c:	73232022 			; <UNDEFINED> instruction: 0x73232022
    1350:	00296d79 	eoreq	r6, r9, r9, ror sp
    1354:	49555f5f 	ldmdbmi	r5, {r0, r1, r2, r3, r4, r6, r8, r9, sl, fp, ip, lr}^
    1358:	465f544e 	ldrbmi	r5, [pc], -lr, asr #8
    135c:	38545341 	ldmdacc	r4, {r0, r6, r8, r9, ip, lr}^
    1360:	58414d5f 	stmdapl	r1, {r0, r1, r2, r3, r4, r6, r8, sl, fp, lr}^
    1364:	30205f5f 	eorcc	r5, r0, pc, asr pc
    1368:	66666678 			; <UNDEFINED> instruction: 0x66666678
    136c:	66666666 	strbtvs	r6, [r6], -r6, ror #12
    1370:	5f005566 	svcpl	0x00005566
    1374:	7361685f 	cmnvc	r1, #6225920	; 0x5f0000
    1378:	7478655f 	ldrbtvc	r6, [r8], #-1375	; 0xfffffaa1
    137c:	69736e65 	ldmdbvs	r3!, {r0, r2, r5, r6, r9, sl, fp, sp, lr}^
    1380:	5f206e6f 	svcpl	0x00206e6f
    1384:	7361685f 	cmnvc	r1, #6225920	; 0x5f0000
    1388:	6165665f 	cmnvs	r5, pc, asr r6
    138c:	65727574 	ldrbvs	r7, [r2, #-1396]!	; 0xfffffa8c
    1390:	4c5f5f00 	mrrcmi	15, 0, r5, pc, cr0	; <UNPREDICTABLE>
    1394:	55434341 	strbpl	r4, [r3, #-833]	; 0xfffffcbf
    1398:	42495f4d 	submi	r5, r9, #308	; 0x134
    139c:	5f5f5449 	svcpl	0x005f5449
    13a0:	00323320 	eorseq	r3, r2, r0, lsr #6
    13a4:	49545845 	ldmdbmi	r4, {r0, r2, r6, fp, ip, lr}^
    13a8:	39425039 	stmdbcc	r2, {r0, r3, r4, r5, ip, lr}^
    13ac:	58452820 	stmdapl	r5, {r5, fp, sp}^
    13b0:	475f4954 			; <UNDEFINED> instruction: 0x475f4954
    13b4:	5f4f4950 	svcpl	0x004f4950
    13b8:	7070614d 	rsbsvc	r6, r0, sp, asr #2
    13bc:	5f676e69 	svcpl	0x00676e69
    13c0:	457b2974 	ldrbmi	r2, [fp, #-2420]!	; 0xfffff68c
    13c4:	39495458 	stmdbcc	r9, {r3, r4, r6, sl, ip, lr}^
    13c8:	5047202c 	subpl	r2, r7, ip, lsr #32
    13cc:	2c424f49 	mcrrcs	15, 4, r4, r2, cr9
    13d0:	49504720 	ldmdbmi	r0, {r5, r8, r9, sl, lr}^
    13d4:	49505f4f 	ldmdbmi	r0, {r0, r1, r2, r3, r6, r8, r9, sl, fp, ip, lr}^
    13d8:	2c395f4e 	ldccs	15, cr5, [r9], #-312	; 0xfffffec8
    13dc:	54584520 	ldrbpl	r4, [r8], #-1312	; 0xfffffae0
    13e0:	495f3949 	ldmdbmi	pc, {r0, r3, r6, r8, fp, ip, sp}^	; <UNPREDICTABLE>
    13e4:	007d5152 	rsbseq	r5, sp, r2, asr r1
    13e8:	69755f5f 	ldmdbvs	r5!, {r0, r1, r2, r3, r4, r6, r8, r9, sl, fp, ip, lr}^
    13ec:	5f38746e 	svcpl	0x0038746e
    13f0:	5f5f0074 	svcpl	0x005f0074
    13f4:	495f4148 	ldmdbmi	pc, {r3, r6, r8, lr}^	; <UNPREDICTABLE>
    13f8:	5f544942 	svcpl	0x00544942
    13fc:	0038205f 	eorseq	r2, r8, pc, asr r0
    1400:	454e5f5f 	strbmi	r5, [lr, #-3935]	; 0xfffff0a1
    1404:	42494c57 	submi	r4, r9, #22272	; 0x5700
    1408:	5f5f485f 	svcpl	0x005f485f
    140c:	5f003120 	svcpl	0x00003120
    1410:	544e495f 	strbpl	r4, [lr], #-2399	; 0xfffff6a1
    1414:	5341465f 	movtpl	r4, #5727	; 0x165f
    1418:	5f363154 	svcpl	0x00363154
    141c:	54444957 	strbpl	r4, [r4], #-2391	; 0xfffff6a9
    1420:	205f5f48 	subscs	r5, pc, r8, asr #30
    1424:	47003233 	smladxmi	r0, r3, r2, r3
    1428:	444f4950 	strbmi	r4, [pc], #-2384	; 1430 <_Min_Stack_Size+0x1030>
    142c:	5341425f 	movtpl	r4, #4703	; 0x125f
    1430:	78302045 	ldmdavc	r0!, {r0, r2, r6, sp}
    1434:	31303034 	teqcc	r0, r4, lsr r0
    1438:	30303431 	eorscc	r3, r0, r1, lsr r4
    143c:	525f0075 	subspl	r0, pc, #117	; 0x75
    1440:	544e4545 	strbpl	r4, [lr], #-1349	; 0xfffffabb
    1444:	52424d5f 	subpl	r4, r2, #6080	; 0x17c0
    1448:	43574f54 	cmpmi	r7, #84, 30	; 0x150
    144c:	4154535f 	cmpmi	r4, pc, asr r3
    1450:	70284554 	eorvc	r4, r8, r4, asr r5
    1454:	20297274 	eorcs	r7, r9, r4, ror r2
    1458:	74702828 	ldrbtvc	r2, [r0], #-2088	; 0xfffff7d8
    145c:	3e2d2972 			; <UNDEFINED> instruction: 0x3e2d2972
    1460:	73696d5f 	cmnvc	r9, #6080	; 0x17c0
    1464:	5f3e2d63 	svcpl	0x003e2d63
    1468:	7472626d 	ldrbtvc	r6, [r2], #-621	; 0xfffffd93
    146c:	5f63776f 	svcpl	0x0063776f
    1470:	74617473 	strbtvc	r7, [r1], #-1139	; 0xfffffb8d
    1474:	5f002965 	svcpl	0x00002965
    1478:	41454c5f 	cmpmi	r5, pc, asr ip
    147c:	32335453 	eorscc	r5, r3, #1392508928	; 0x53000000
    1480:	226c2220 	rsbcs	r2, ip, #32, 4
    1484:	4c5f5f00 	mrrcmi	15, 0, r5, pc, cr0	; <UNPREDICTABLE>
    1488:	4152464c 	cmpmi	r2, ip, asr #12
    148c:	4d5f5443 	cfldrdmi	mvd5, [pc, #-268]	; 1388 <_Min_Stack_Size+0xf88>
    1490:	5f5f4e49 	svcpl	0x005f4e49
    1494:	302d2820 	eorcc	r2, sp, r0, lsr #16
    1498:	4c4c352e 	cfstr64mi	mvdx3, [ip], {46}	; 0x2e
    149c:	2e302d52 	mrccs	13, 1, r2, cr0, cr2, {2}
    14a0:	524c4c35 	subpl	r4, ip, #13568	; 0x3500
    14a4:	5f5f0029 	svcpl	0x005f0029
    14a8:	50544e49 	subspl	r4, r4, r9, asr #28
    14ac:	4d5f5254 	lfmmi	f5, 2, [pc, #-336]	; 1364 <_Min_Stack_Size+0xf64>
    14b0:	5f5f5841 	svcpl	0x005f5841
    14b4:	37783020 	ldrbcc	r3, [r8, -r0, lsr #32]!
    14b8:	66666666 	strbtvs	r6, [r6], -r6, ror #12
    14bc:	00666666 	rsbeq	r6, r6, r6, ror #12
    14c0:	41525f5f 	cmpmi	r2, pc, asr pc
    14c4:	4d5f444e 	cfldrdmi	mvd4, [pc, #-312]	; 1394 <_Min_Stack_Size+0xf94>
    14c8:	30205841 	eorcc	r5, r0, r1, asr #16
    14cc:	66663778 			; <UNDEFINED> instruction: 0x66663778
    14d0:	66666666 	strbtvs	r6, [r6], -r6, ror #12
    14d4:	5f5f0066 	svcpl	0x005f0066
    14d8:	544e4955 	strbpl	r4, [lr], #-2389	; 0xfffff6ab
    14dc:	5341465f 	movtpl	r4, #5727	; 0x165f
    14e0:	5f363154 	svcpl	0x00363154
    14e4:	5f58414d 	svcpl	0x0058414d
    14e8:	7830205f 	ldmdavc	r0!, {r0, r1, r2, r3, r4, r6, sp}
    14ec:	66666666 	strbtvs	r6, [r6], -r6, ror #12
    14f0:	66666666 	strbtvs	r6, [r6], -r6, ror #12
    14f4:	4e490055 	mcrmi	0, 2, r0, cr9, cr5, {2}
    14f8:	454c5f54 	strbmi	r5, [ip, #-3924]	; 0xfffff0ac
    14fc:	36545341 	ldrbcc	r5, [r4], -r1, asr #6
    1500:	494d5f34 	stmdbmi	sp, {r2, r4, r5, r8, r9, sl, fp, ip, lr}^
    1504:	2d28204e 	stccs	0, cr2, [r8, #-312]!	; 0xfffffec8
    1508:	4e495f5f 	mcrmi	15, 2, r5, cr9, cr15, {2}
    150c:	454c5f54 	strbmi	r5, [ip, #-3924]	; 0xfffff0ac
    1510:	36545341 	ldrbcc	r5, [r4], -r1, asr #6
    1514:	414d5f34 	cmpmi	sp, r4, lsr pc
    1518:	205f5f58 	subscs	r5, pc, r8, asr pc	; <UNPREDICTABLE>
    151c:	2931202d 	ldmdbcs	r1!, {r0, r2, r3, r5, sp}
    1520:	41535500 	cmpmi	r3, r0, lsl #10
    1524:	5f325452 	svcpl	0x00325452
    1528:	45534142 	ldrbmi	r4, [r3, #-322]	; 0xfffffebe
    152c:	34783020 	ldrbtcc	r3, [r8], #-32	; 0xffffffe0
    1530:	34303030 	ldrtcc	r3, [r0], #-48	; 0xffffffd0
    1534:	75303034 	ldrvc	r3, [r0, #-52]!	; 0xffffffcc
    1538:	475f5f00 	ldrbmi	r5, [pc, -r0, lsl #30]
    153c:	4c43554e 	cfstr64mi	mvdx5, [r3], {78}	; 0x4e
    1540:	5f454b49 	svcpl	0x00454b49
    1544:	4c495542 	cfstr64mi	mvdx5, [r9], {66}	; 0x42
    1548:	5f4e4954 	svcpl	0x004e4954
    154c:	534e4f43 	movtpl	r4, #61251	; 0xef43
    1550:	544e4154 	strbpl	r4, [lr], #-340	; 0xfffffeac
    1554:	3120505f 	qsubcc	r5, pc, r0	; <UNPREDICTABLE>
    1558:	45525f00 	ldrbmi	r5, [r2, #-3840]	; 0xfffff100
    155c:	5f544e45 	svcpl	0x00544e45
    1560:	43454843 	movtmi	r4, #22595	; 0x5843
    1564:	6176284b 	cmnvs	r6, fp, asr #16
    1568:	68772c72 	ldmdavs	r7!, {r1, r4, r5, r6, sl, fp, sp}^
    156c:	742c7461 	strtvc	r7, [ip], #-1121	; 0xfffffb9f
    1570:	2c657079 	stclcs	0, cr7, [r5], #-484	; 0xfffffe1c
    1574:	657a6973 	ldrbvs	r6, [sl, #-2419]!	; 0xfffff68d
    1578:	696e692c 	stmdbvs	lr!, {r2, r3, r5, r8, fp, sp, lr}^
    157c:	64202974 	strtvs	r2, [r0], #-2420	; 0xfffff68c
    1580:	207b206f 	rsbscs	r2, fp, pc, rrx
    1584:	75727473 	ldrbvc	r7, [r2, #-1139]!	; 0xfffffb8d
    1588:	5f207463 	svcpl	0x00207463
    158c:	6e656572 	mcrvs	5, 3, r6, cr5, cr2, {3}
    1590:	5f2a2074 	svcpl	0x002a2074
    1594:	203d2072 	eorscs	r2, sp, r2, ror r0
    1598:	72617628 	rsbvc	r7, r1, #40, 12	; 0x2800000
    159c:	69203b29 	stmdbvs	r0!, {r0, r3, r5, r8, r9, fp, ip, sp}
    15a0:	5f282066 	svcpl	0x00282066
    15a4:	773e2d72 			; <UNDEFINED> instruction: 0x773e2d72
    15a8:	20746168 	rsbscs	r6, r4, r8, ror #2
    15ac:	4e203d3d 	mcrmi	13, 1, r3, cr0, cr13, {1}
    15b0:	294c4c55 	stmdbcs	ip, {r0, r2, r4, r6, sl, fp, lr}^
    15b4:	5f207b20 	svcpl	0x00207b20
    15b8:	773e2d72 			; <UNDEFINED> instruction: 0x773e2d72
    15bc:	20746168 	rsbscs	r6, r4, r8, ror #2
    15c0:	7428203d 	strtvc	r2, [r8], #-61	; 0xffffffc3
    15c4:	29657079 	stmdbcs	r5!, {r0, r3, r4, r5, r6, ip, sp, lr}^
    15c8:	6c6c616d 	stfvse	f6, [ip], #-436	; 0xfffffe4c
    15cc:	7328636f 			; <UNDEFINED> instruction: 0x7328636f
    15d0:	29657a69 	stmdbcs	r5!, {r0, r3, r5, r6, r9, fp, ip, sp, lr}^
    15d4:	5f5f203b 	svcpl	0x005f203b
    15d8:	6e656572 	mcrvs	5, 3, r6, cr5, cr2, {3}
    15dc:	73615f74 	cmnvc	r1, #116, 30	; 0x1d0
    15e0:	74726573 	ldrbtvc	r6, [r2], #-1395	; 0xfffffa8d
    15e4:	2d725f28 	ldclcs	15, cr5, [r2, #-160]!	; 0xffffff60
    15e8:	6168773e 	cmnvs	r8, lr, lsr r7
    15ec:	203b2974 	eorscs	r2, fp, r4, ror r9
    15f0:	74696e69 	strbtvc	r6, [r9], #-3689	; 0xfffff197
    15f4:	207d203b 	rsbscs	r2, sp, fp, lsr r0
    15f8:	6877207d 	ldmdavs	r7!, {r0, r2, r3, r4, r5, r6, sp}^
    15fc:	20656c69 	rsbcs	r6, r5, r9, ror #24
    1600:	00293028 	eoreq	r3, r9, r8, lsr #32
    1604:	6e6f4e5f 	mcrvs	14, 3, r4, cr15, cr15, {2}
    1608:	6c6c756e 	cfstr64vs	mvdx7, [ip], #-440	; 0xfffffe48
    160c:	5f5f0020 	svcpl	0x005f0020
    1610:	43554e47 	cmpmi	r5, #1136	; 0x470
    1614:	4552505f 	ldrbmi	r5, [r2, #-95]	; 0xffffffa1
    1618:	28514552 	ldmdacs	r1, {r1, r4, r6, r8, sl, lr}^
    161c:	2c6a616d 	stfcse	f6, [sl], #-436	; 0xfffffe4c
    1620:	296e696d 	stmdbcs	lr!, {r0, r2, r3, r5, r6, r8, fp, sp, lr}^
    1624:	5f282820 	svcpl	0x00282820
    1628:	554e475f 	strbpl	r4, [lr, #-1887]	; 0xfffff8a1
    162c:	205f5f43 	subscs	r5, pc, r3, asr #30
    1630:	31203c3c 			; <UNDEFINED> instruction: 0x31203c3c
    1634:	2b202936 	blcs	80bb14 <_Min_Stack_Size+0x80b714>
    1638:	475f5f20 	ldrbmi	r5, [pc, -r0, lsr #30]
    163c:	5f43554e 	svcpl	0x0043554e
    1640:	4f4e494d 	svcmi	0x004e494d
    1644:	205f5f52 	subscs	r5, pc, r2, asr pc	; <UNPREDICTABLE>
    1648:	28203d3e 	stmdacs	r0!, {r1, r2, r3, r4, r5, r8, sl, fp, ip, sp}
    164c:	6a616d28 	bvs	185caf4 <_Min_Stack_Size+0x185c6f4>
    1650:	3c3c2029 	ldccc	0, cr2, [ip], #-164	; 0xffffff5c
    1654:	29363120 	ldmdbcs	r6!, {r5, r8, ip, sp}
    1658:	28202b20 	stmdacs	r0!, {r5, r8, r9, fp, sp}
    165c:	296e696d 	stmdbcs	lr!, {r0, r2, r3, r5, r6, r8, fp, sp, lr}^
    1660:	545f0029 	ldrbpl	r0, [pc], #-41	; 1668 <_Min_Stack_Size+0x1268>
    1664:	4843575f 	stmdami	r3, {r0, r1, r2, r3, r4, r6, r8, r9, sl, ip, lr}^
    1668:	00205241 	eoreq	r5, r0, r1, asr #4
    166c:	356d6954 	strbcc	r6, [sp, #-2388]!	; 0xfffff6ac
    1670:	54282820 	strtpl	r2, [r8], #-2080	; 0xfffff7e0
    1674:	74324d49 	ldrtvc	r4, [r2], #-3401	; 0xfffff2b7
    1678:	79545f35 	ldmdbvc	r4, {r0, r2, r4, r5, r8, r9, sl, fp, ip, lr}^
    167c:	65446570 	strbvs	r6, [r4, #-1392]	; 0xfffffa90
    1680:	2a745f66 	bcs	1d19420 <_Min_Stack_Size+0x1d19020>
    1684:	4d495429 	cfstrdmi	mvd5, [r9, #-164]	; 0xffffff5c
    1688:	41425f35 	cmpmi	r2, r5, lsr pc
    168c:	00294553 	eoreq	r4, r9, r3, asr r5
    1690:	444c5f5f 	strbmi	r5, [ip], #-3935	; 0xfffff0a1
    1694:	485f4c42 	ldmdami	pc, {r1, r6, sl, fp, lr}^	; <UNPREDICTABLE>
    1698:	515f5341 	cmppl	pc, r1, asr #6
    169c:	54454955 	strbpl	r4, [r5], #-2389	; 0xfffff6ab
    16a0:	4e414e5f 	mcrmi	14, 2, r4, cr1, cr15, {2}
    16a4:	31205f5f 			; <UNDEFINED> instruction: 0x31205f5f
    16a8:	4e495f00 	cdpmi	15, 4, cr5, cr9, cr0, {0}
    16ac:	52545054 	subspl	r5, r4, #84	; 0x54
    16b0:	445f545f 	ldrbmi	r5, [pc], #-1119	; 16b8 <_Min_Stack_Size+0x12b8>
    16b4:	414c4345 	cmpmi	ip, r5, asr #6
    16b8:	20444552 	subcs	r4, r4, r2, asr r5
    16bc:	49504700 	ldmdbmi	r0, {r8, r9, sl, lr}^
    16c0:	49505f4f 	ldmdbmi	r0, {r0, r1, r2, r3, r6, r8, r9, sl, fp, ip, lr}^
    16c4:	34315f4e 	ldrtcc	r5, [r1], #-3918	; 0xfffff0b2
    16c8:	75282820 	strvc	r2, [r8, #-2080]!	; 0xfffff7e0
    16cc:	31746e69 	cmncc	r4, r9, ror #28
    16d0:	29745f36 	ldmdbcs	r4!, {r1, r2, r4, r5, r8, r9, sl, fp, ip, lr}^
    16d4:	34783020 	ldrbtcc	r3, [r8], #-32	; 0xffffffe0
    16d8:	29303030 	ldmdbcs	r0!, {r4, r5, ip, sp}
    16dc:	465f5f00 	ldrbmi	r5, [pc], -r0, lsl #30
    16e0:	3233544c 	eorscc	r5, r3, #76, 8	; 0x4c000000
    16e4:	41485f58 	cmpmi	r8, r8, asr pc
    16e8:	4e495f53 	mcrmi	15, 2, r5, cr9, cr3, {2}
    16ec:	494e4946 	stmdbmi	lr, {r1, r2, r6, r8, fp, lr}^
    16f0:	5f5f5954 	svcpl	0x005f5954
    16f4:	49003120 	stmdbmi	r0, {r5, r8, ip, sp}
    16f8:	465f544e 	ldrbmi	r5, [pc], -lr, asr #8
    16fc:	33545341 	cmpcc	r4, #67108865	; 0x4000001
    1700:	494d5f32 	stmdbmi	sp, {r1, r4, r5, r8, r9, sl, fp, ip, lr}^
    1704:	2d28204e 	stccs	0, cr2, [r8, #-312]!	; 0xfffffec8
    1708:	4e495f5f 	mcrmi	15, 2, r5, cr9, cr15, {2}
    170c:	41465f54 	cmpmi	r6, r4, asr pc
    1710:	32335453 	eorscc	r5, r3, #1392508928	; 0x53000000
    1714:	58414d5f 	stmdapl	r1, {r0, r1, r2, r3, r4, r6, r8, sl, fp, lr}^
    1718:	2d205f5f 	stccs	15, cr5, [r0, #-380]!	; 0xfffffe84
    171c:	00293120 	eoreq	r3, r9, r0, lsr #2
    1720:	5359535f 	cmppl	r9, #2080374785	; 0x7c000001
    1724:	5a49535f 	bpl	12564a8 <_Min_Stack_Size+0x12560a8>
    1728:	5f545f45 	svcpl	0x00545f45
    172c:	5f002048 	svcpl	0x00002048
    1730:	6175675f 	cmnvs	r5, pc, asr r7
    1734:	64656472 	strbtvs	r6, [r5], #-1138	; 0xfffffb8e
    1738:	2879625f 	ldmdacs	r9!, {r0, r1, r2, r3, r4, r6, r9, sp, lr}^
    173c:	5f202978 	svcpl	0x00202978
    1740:	636f6c5f 	cmnvs	pc, #24320	; 0x5f00
    1744:	6e615f6b 	cdpvs	15, 6, cr5, cr1, cr11, {3}
    1748:	61746f6e 	cmnvs	r4, lr, ror #30
    174c:	67286574 			; <UNDEFINED> instruction: 0x67286574
    1750:	64726175 	ldrbtvs	r6, [r2], #-373	; 0xfffffe8b
    1754:	625f6465 	subsvs	r6, pc, #1694498816	; 0x65000000
    1758:	29782879 	ldmdbcs	r8!, {r0, r3, r4, r5, r6, fp, sp}^
    175c:	45440029 	strbmi	r0, [r4, #-41]	; 0xffffffd7
    1760:	20475542 	subcs	r5, r7, r2, asr #10
    1764:	564e0031 			; <UNDEFINED> instruction: 0x564e0031
    1768:	455f4349 	ldrbmi	r4, [pc, #-841]	; 1427 <_Min_Stack_Size+0x1027>
    176c:	31495458 	cmpcc	r9, r8, asr r4
    1770:	5f355f30 	svcpl	0x00355f30
    1774:	5f515249 	svcpl	0x00515249
    1778:	62616e45 	rsbvs	r6, r1, #1104	; 0x450
    177c:	2820656c 	stmdacs	r0!, {r2, r3, r5, r6, r8, sl, sp, lr}
    1780:	4349564e 	movtmi	r5, #38478	; 0x964e
    1784:	4553495f 	ldrbmi	r4, [r3, #-2399]	; 0xfffff6a1
    1788:	7c203052 	stcvc	0, cr3, [r0], #-328	; 0xfffffeb8
    178c:	3c31203d 	ldccc	0, cr2, [r1], #-244	; 0xffffff0c
    1790:	2933323c 	ldmdbcs	r3!, {r2, r3, r4, r5, r9, ip, sp}
    1794:	6c5f5f00 	mrrcvs	15, 0, r5, pc, cr0	; <UNPREDICTABLE>
    1798:	736b636f 	cmnvc	fp, #-1140850687	; 0xbc000001
    179c:	6378655f 	cmnvs	r8, #398458880	; 0x17c00000
    17a0:	6973756c 	ldmdbvs	r3!, {r2, r3, r5, r6, r8, sl, ip, sp, lr}^
    17a4:	2e286576 	mcrcs	5, 1, r6, cr8, cr6, {3}
    17a8:	20292e2e 	eorcs	r2, r9, lr, lsr #28
    17ac:	6f6c5f5f 	svcvs	0x006c5f5f
    17b0:	615f6b63 	cmpvs	pc, r3, ror #22
    17b4:	746f6e6e 	strbtvc	r6, [pc], #-3694	; 17bc <_Min_Stack_Size+0x13bc>
    17b8:	28657461 	stmdacs	r5!, {r0, r5, r6, sl, ip, sp, lr}^
    17bc:	6c637865 	stclvs	8, cr7, [r3], #-404	; 0xfffffe6c
    17c0:	76697375 			; <UNDEFINED> instruction: 0x76697375
    17c4:	6f6c5f65 	svcvs	0x006c5f65
    17c8:	665f6b63 	ldrbvs	r6, [pc], -r3, ror #22
    17cc:	74636e75 	strbtvc	r6, [r3], #-3701	; 0xfffff18b
    17d0:	286e6f69 	stmdacs	lr!, {r0, r3, r5, r6, r8, r9, sl, fp, sp, lr}^
    17d4:	41565f5f 	cmpmi	r6, pc, asr pc
    17d8:	4752415f 			; <UNDEFINED> instruction: 0x4752415f
    17dc:	295f5f53 	ldmdbcs	pc, {r0, r1, r4, r6, r8, r9, sl, fp, ip, lr}^	; <UNPREDICTABLE>
    17e0:	5f5f0029 	svcpl	0x005f0029
    17e4:	55434341 	strbpl	r4, [r3, #-833]	; 0xfffffcbf
    17e8:	42465f4d 	submi	r5, r6, #308	; 0x134
    17ec:	5f5f5449 	svcpl	0x005f5449
    17f0:	00353120 	eorseq	r3, r5, r0, lsr #2
    17f4:	6f6c5f5f 	svcvs	0x006c5f5f
    17f8:	725f6b63 	subsvc	r6, pc, #101376	; 0x18c00
    17fc:	61656c65 	cmnvs	r5, r5, ror #24
    1800:	6c286573 	cfstr32vs	mvfx6, [r8], #-460	; 0xfffffe34
    1804:	296b636f 	stmdbcs	fp!, {r0, r1, r2, r3, r5, r6, r8, r9, sp, lr}^
    1808:	725f5f20 	subsvc	r5, pc, #32, 30	; 0x80
    180c:	72617465 	rsbvc	r7, r1, #1694498816	; 0x65000000
    1810:	5f746567 	svcpl	0x00746567
    1814:	6b636f6c 	blvs	18dd5cc <_Min_Stack_Size+0x18dd1cc>
    1818:	6c65725f 	sfmvs	f7, 2, [r5], #-380	; 0xfffffe84
    181c:	65736165 	ldrbvs	r6, [r3, #-357]!	; 0xfffffe9b
    1820:	636f6c28 	cmnvs	pc, #40, 24	; 0x2800
    1824:	5f00296b 	svcpl	0x0000296b
    1828:	4341555f 	movtmi	r5, #5471	; 0x155f
    182c:	5f4d5543 	svcpl	0x004d5543
    1830:	54494249 	strbpl	r4, [r9], #-585	; 0xfffffdb7
    1834:	31205f5f 			; <UNDEFINED> instruction: 0x31205f5f
    1838:	5f5f0036 	svcpl	0x005f0036
    183c:	6b636f6c 	blvs	18dd5f4 <_Min_Stack_Size+0x18dd1f4>
    1840:	696e695f 	stmdbvs	lr!, {r0, r1, r2, r3, r4, r6, r8, fp, sp, lr}^
    1844:	6f6c2874 	svcvs	0x006c2874
    1848:	20296b63 	eorcs	r6, r9, r3, ror #22
    184c:	65725f5f 	ldrbvs	r5, [r2, #-3935]!	; 0xfffff0a1
    1850:	67726174 			; <UNDEFINED> instruction: 0x67726174
    1854:	6c5f7465 	cfldrdvs	mvd7, [pc], {101}	; 0x65
    1858:	5f6b636f 	svcpl	0x006b636f
    185c:	74696e69 	strbtvc	r6, [r9], #-3689	; 0xfffff197
    1860:	6f6c2628 	svcvs	0x006c2628
    1864:	00296b63 	eoreq	r6, r9, r3, ror #22
    1868:	4e495f5f 	mcrmi	15, 2, r5, cr9, cr15, {2}
    186c:	41465f54 	cmpmi	r6, r4, asr pc
    1870:	34365453 	ldrtcc	r5, [r6], #-1107	; 0xfffffbad
    1874:	58414d5f 	stmdapl	r1, {r0, r1, r2, r3, r4, r6, r8, sl, fp, lr}^
    1878:	30205f5f 	eorcc	r5, r0, pc, asr pc
    187c:	66663778 			; <UNDEFINED> instruction: 0x66663778
    1880:	66666666 	strbtvs	r6, [r6], -r6, ror #12
    1884:	66666666 	strbtvs	r6, [r6], -r6, ror #12
    1888:	66666666 	strbtvs	r6, [r6], -r6, ror #12
    188c:	004c4c66 	subeq	r4, ip, r6, ror #24
    1890:	4c465f5f 	mcrrmi	15, 5, r5, r6, cr15
    1894:	58323354 	ldmdapl	r2!, {r2, r4, r6, r8, r9, ip, sp}
    1898:	4345445f 	movtmi	r4, #21599	; 0x545f
    189c:	4c414d49 	mcrrmi	13, 4, r4, r1, cr9
    18a0:	4749445f 	smlsldmi	r4, r9, pc, r4	; <UNPREDICTABLE>
    18a4:	31205f5f 			; <UNDEFINED> instruction: 0x31205f5f
    18a8:	5f5f0037 	svcpl	0x005f0037
    18ac:	5f4c4244 	svcpl	0x004c4244
    18b0:	5f4e494d 	svcpl	0x004e494d
    18b4:	2828205f 	stmdacs	r8!, {r0, r1, r2, r3, r4, r6, sp}
    18b8:	62756f64 	rsbsvs	r6, r5, #100, 30	; 0x190
    18bc:	3229656c 	eorcc	r6, r9, #108, 10	; 0x1b000000
    18c0:	3532322e 	ldrcc	r3, [r2, #-558]!	; 0xfffffdd2
    18c4:	38333730 	ldmdacc	r3!, {r4, r5, r8, r9, sl, ip, sp}
    18c8:	30353835 	eorscc	r3, r5, r5, lsr r8
    18cc:	31303237 	teqcc	r0, r7, lsr r2
    18d0:	332d6534 			; <UNDEFINED> instruction: 0x332d6534
    18d4:	294c3830 	stmdbcs	ip, {r4, r5, fp, ip, sp}^
    18d8:	465f5f00 	ldrbmi	r5, [pc], -r0, lsl #30
    18dc:	3233544c 	eorscc	r5, r3, #76, 8	; 0x4c000000
    18e0:	41485f58 	cmpmi	r8, r8, asr pc
    18e4:	55515f53 	ldrbpl	r5, [r1, #-3923]	; 0xfffff0ad
    18e8:	5f544549 	svcpl	0x00544549
    18ec:	5f4e414e 	svcpl	0x004e414e
    18f0:	0031205f 	eorseq	r2, r1, pc, asr r0
    18f4:	49545845 	ldmdbmi	r4, {r0, r2, r6, fp, ip, lr}^
    18f8:	5152495f 	cmppl	r2, pc, asr r9
    18fc:	7369645f 	cmnvc	r9, #1593835520	; 0x5f000000
    1900:	656c6261 	strbvs	r6, [ip, #-609]!	; 0xfffffd9f
    1904:	5f003020 	svcpl	0x00003020
    1908:	6c756e5f 	ldclvs	14, cr6, [r5], #-380	; 0xfffffe84
    190c:	65735f6c 	ldrbvs	r5, [r3, #-3948]!	; 0xfffff094
    1910:	6e69746e 	cdpvs	4, 6, cr7, cr9, cr14, {3}
    1914:	5f206c65 	svcpl	0x00206c65
    1918:	7474615f 	ldrbtvc	r6, [r4], #-351	; 0xfffffea1
    191c:	75626972 	strbvc	r6, [r2, #-2418]!	; 0xfffff68e
    1920:	5f5f6574 	svcpl	0x005f6574
    1924:	5f5f2828 	svcpl	0x005f2828
    1928:	746e6573 	strbtvc	r6, [lr], #-1395	; 0xfffffa8d
    192c:	6c656e69 	stclvs	14, cr6, [r5], #-420	; 0xfffffe5c
    1930:	29295f5f 	stmdbcs	r9!, {r0, r1, r2, r3, r4, r6, r8, r9, sl, fp, ip, lr}
    1934:	465f5f00 	ldrbmi	r5, [pc], -r0, lsl #30
    1938:	3233544c 	eorscc	r5, r3, #76, 8	; 0x4c000000
    193c:	50455f58 	subpl	r5, r5, r8, asr pc
    1940:	4f4c4953 	svcmi	0x004c4953
    1944:	205f5f4e 	subscs	r5, pc, lr, asr #30
    1948:	32322e32 	eorscc	r2, r2, #800	; 0x320
    194c:	36343430 			; <UNDEFINED> instruction: 0x36343430
    1950:	32393430 	eorscc	r3, r9, #48, 8	; 0x30000000
    1954:	31333035 	teqcc	r3, r5, lsr r0
    1958:	2d653133 	stfcse	f3, [r5, #-204]!	; 0xffffff34
    195c:	33463631 	movtcc	r3, #26161	; 0x6631
    1960:	5f007832 	svcpl	0x00007832
    1964:	6e695f5f 	mcrvs	15, 3, r5, cr9, cr15, {2}
    1968:	656c5f74 	strbvs	r5, [ip, #-3956]!	; 0xfffff08c
    196c:	31747361 	cmncc	r4, r1, ror #6
    1970:	5f745f36 	svcpl	0x00745f36
    1974:	69666564 	stmdbvs	r6!, {r2, r5, r6, r8, sl, sp, lr}^
    1978:	2064656e 	rsbcs	r6, r4, lr, ror #10
    197c:	5f5f0031 	svcpl	0x005f0031
    1980:	5f4d5241 	svcpl	0x004d5241
    1984:	48435241 	stmdami	r3, {r0, r6, r9, ip, lr}^
    1988:	5f4d375f 	svcpl	0x004d375f
    198c:	0031205f 	eorseq	r2, r1, pc, asr r0
    1990:	6c754e5f 	ldclvs	14, cr4, [r5], #-380	; 0xfffffe84
    1994:	6c62616c 	stfvse	f6, [r2], #-432	; 0xfffffe50
    1998:	5f002065 	svcpl	0x00002065
    199c:	544e495f 	strbpl	r4, [lr], #-2399	; 0xfffff6a1
    19a0:	5341465f 	movtpl	r4, #5727	; 0x165f
    19a4:	545f3854 	ldrbpl	r3, [pc], #-2132	; 19ac <_Min_Stack_Size+0x15ac>
    19a8:	5f455059 	svcpl	0x00455059
    19ac:	6e69205f 	mcrvs	0, 3, r2, cr9, cr15, {2}
    19b0:	4e5f0074 	mrcmi	0, 2, r0, cr15, cr4, {3}
    19b4:	4c4e494f 	mcrrmi	9, 4, r4, lr, cr15	; <UNPREDICTABLE>
    19b8:	20454e49 	subcs	r4, r5, r9, asr #28
    19bc:	74615f5f 	strbtvc	r5, [r1], #-3935	; 0xfffff0a1
    19c0:	62697274 	rsbvs	r7, r9, #116, 4	; 0x40000007
    19c4:	5f657475 	svcpl	0x00657475
    19c8:	2828205f 	stmdacs	r8!, {r0, r1, r2, r3, r4, r6, sp}
    19cc:	6f6e5f5f 	svcvs	0x006e5f5f
    19d0:	696c6e69 	stmdbvs	ip!, {r0, r3, r5, r6, r9, sl, fp, sp, lr}^
    19d4:	5f5f656e 	svcpl	0x005f656e
    19d8:	5f002929 	svcpl	0x00002929
    19dc:	4144555f 	cmpmi	r4, pc, asr r5
    19e0:	4942465f 	stmdbmi	r2, {r0, r1, r2, r3, r4, r6, r9, sl, lr}^
    19e4:	205f5f54 	subscs	r5, pc, r4, asr pc	; <UNPREDICTABLE>
    19e8:	5f003233 	svcpl	0x00003233
    19ec:	7a69735f 	bvc	1a5e770 <_Min_Stack_Size+0x1a5e370>
    19f0:	5f745f65 	svcpl	0x00745f65
    19f4:	5f00205f 	svcpl	0x0000205f
    19f8:	544c465f 	strbpl	r4, [ip], #-1631	; 0xfffff9a1
    19fc:	4d5f3436 	cfldrdmi	mvd3, [pc, #-216]	; 192c <_Min_Stack_Size+0x152c>
    1a00:	315f5841 	cmpcc	pc, r1, asr #16
    1a04:	58455f30 	stmdapl	r5, {r4, r5, r8, r9, sl, fp, ip, lr}^
    1a08:	205f5f50 	subscs	r5, pc, r0, asr pc	; <UNPREDICTABLE>
    1a0c:	00383033 	eorseq	r3, r8, r3, lsr r0
    1a10:	54524155 	ldrbpl	r4, [r2], #-341	; 0xfffffeab
    1a14:	28282035 	stmdacs	r8!, {r0, r2, r4, r5, sp}
    1a18:	52415355 	subpl	r5, r1, #1409286145	; 0x54000001
    1a1c:	79545f54 	ldmdbvc	r4, {r2, r4, r6, r8, r9, sl, fp, ip, lr}^
    1a20:	65646570 	strbvs	r6, [r4, #-1392]!	; 0xfffffa90
    1a24:	292a2066 	stmdbcs	sl!, {r1, r2, r5, r6, sp}
    1a28:	54524155 	ldrbpl	r4, [r2], #-341	; 0xfffffeab
    1a2c:	41425f35 	cmpmi	r2, r5, lsr pc
    1a30:	00294553 	eoreq	r4, r9, r3, asr r5
    1a34:	49555f5f 	ldmdbmi	r5, {r0, r1, r2, r3, r4, r6, r8, r9, sl, fp, ip, lr}^
    1a38:	414d544e 	cmpmi	sp, lr, asr #8
    1a3c:	28435f58 	stmdacs	r3, {r3, r4, r6, r8, r9, sl, fp, ip, lr}^
    1a40:	63202963 			; <UNDEFINED> instruction: 0x63202963
    1a44:	20232320 	eorcs	r2, r3, r0, lsr #6
    1a48:	004c4c55 	subeq	r4, ip, r5, asr ip
    1a4c:	54737953 	ldrbtpl	r7, [r3], #-2387	; 0xfffff6ad
    1a50:	5f6b6369 	svcpl	0x006b6369
    1a54:	646e6148 	strbtvs	r6, [lr], #-328	; 0xfffffeb8
    1a58:	0072656c 	rsbseq	r6, r2, ip, ror #10
    1a5c:	49535f5f 	ldmdbmi	r3, {r0, r1, r2, r3, r4, r6, r8, r9, sl, fp, ip, lr}^
    1a60:	464f455a 			; <UNDEFINED> instruction: 0x464f455a
    1a64:	494f505f 	stmdbmi	pc, {r0, r1, r2, r3, r4, r6, ip, lr}^	; <UNPREDICTABLE>
    1a68:	5245544e 	subpl	r5, r5, #1308622848	; 0x4e000000
    1a6c:	34205f5f 	strtcc	r5, [r0], #-3935	; 0xfffff0a1
    1a70:	495f5f00 	ldmdbmi	pc, {r8, r9, sl, fp, ip, lr}^	; <UNPREDICTABLE>
    1a74:	4c5f544e 	cfldrdmi	mvd5, [pc], {78}	; 0x4e
    1a78:	54534145 	ldrbpl	r4, [r3], #-325	; 0xfffffebb
    1a7c:	59545f38 	ldmdbpl	r4, {r3, r4, r5, r8, r9, sl, fp, ip, lr}^
    1a80:	5f5f4550 	svcpl	0x005f4550
    1a84:	67697320 	strbvs	r7, [r9, -r0, lsr #6]!
    1a88:	2064656e 	rsbcs	r6, r4, lr, ror #10
    1a8c:	72616863 	rsbvc	r6, r1, #6488064	; 0x630000
    1a90:	544e4900 	strbpl	r4, [lr], #-2304	; 0xfffff700
    1a94:	5f58414d 	svcpl	0x0058414d
    1a98:	29782843 	ldmdbcs	r8!, {r0, r1, r6, fp, sp}^
    1a9c:	495f5f20 	ldmdbmi	pc, {r5, r8, r9, sl, fp, ip, lr}^	; <UNPREDICTABLE>
    1aa0:	414d544e 	cmpmi	sp, lr, asr #8
    1aa4:	28435f58 	stmdacs	r3, {r3, r4, r6, r8, r9, sl, fp, ip, lr}^
    1aa8:	5f002978 	svcpl	0x00002978
    1aac:	4e454552 	mcrmi	5, 2, r4, cr5, cr2, {2}
    1ab0:	54535f54 	ldrbpl	r5, [r3], #-3924	; 0xfffff0ac
    1ab4:	4b4f5452 	blmi	13d6c04 <_Min_Stack_Size+0x13d6804>
    1ab8:	53414c5f 	movtpl	r4, #7263	; 0x1c5f
    1abc:	74702854 	ldrbtvc	r2, [r0], #-2132	; 0xfffff7ac
    1ac0:	28202972 	stmdacs	r0!, {r1, r4, r5, r6, r8, fp, sp}
    1ac4:	72747028 	rsbsvc	r7, r4, #40	; 0x28
    1ac8:	5f3e2d29 	svcpl	0x003e2d29
    1acc:	6373696d 	cmnvs	r3, #1785856	; 0x1b4000
    1ad0:	735f3e2d 	cmpvc	pc, #720	; 0x2d0
    1ad4:	6f747274 	svcvs	0x00747274
    1ad8:	616c5f6b 	cmnvs	ip, fp, ror #30
    1adc:	00297473 	eoreq	r7, r9, r3, ror r4
    1ae0:	49545845 	ldmdbmi	r4, {r0, r2, r6, fp, ip, lr}^
    1ae4:	4950475f 	ldmdbmi	r0, {r0, r1, r2, r3, r4, r6, r8, r9, sl, lr}^
    1ae8:	614d5f4f 	cmpvs	sp, pc, asr #30
    1aec:	6e697070 	mcrvs	0, 3, r7, cr9, cr0, {3}
    1af0:	00745f67 	rsbseq	r5, r4, r7, ror #30
    1af4:	49545845 	ldmdbmi	r4, {r0, r2, r6, fp, ip, lr}^
    1af8:	00392039 	eorseq	r2, r9, r9, lsr r0
    1afc:	5f434352 	svcpl	0x00434352
    1b00:	4f495047 	svcmi	0x00495047
    1b04:	4c435f45 	mcrrmi	15, 4, r5, r3, cr5
    1b08:	4e455f4b 	cdpmi	15, 4, cr5, cr5, cr11, {2}
    1b0c:	28202928 	stmdacs	r0!, {r3, r5, r8, fp, sp}
    1b10:	2d434352 	stclcs	3, cr4, [r3, #-328]	; 0xfffffeb8
    1b14:	4250413e 	subsmi	r4, r0, #-2147483633	; 0x8000000f
    1b18:	524e4532 	subpl	r4, lr, #209715200	; 0xc800000
    1b1c:	203d7c20 	eorscs	r7, sp, r0, lsr #24
    1b20:	3c3c3128 	ldfccs	f3, [ip], #-160	; 0xffffff60
    1b24:	00292936 	eoreq	r2, r9, r6, lsr r9
    1b28:	52415f5f 	subpl	r5, r1, #380	; 0x17c
    1b2c:	454e5f4d 	strbmi	r5, [lr, #-3917]	; 0xfffff0b3
    1b30:	5f5f4e4f 	svcpl	0x005f4e4f
    1b34:	4e495500 	cdpmi	5, 4, cr5, cr9, cr0, {0}
    1b38:	52545054 	subspl	r5, r4, #84	; 0x54
    1b3c:	58414d5f 	stmdapl	r1, {r0, r1, r2, r3, r4, r6, r8, sl, fp, lr}^
    1b40:	5f5f2820 	svcpl	0x005f2820
    1b44:	544e4955 	strbpl	r4, [lr], #-2389	; 0xfffff6ab
    1b48:	5f525450 	svcpl	0x00525450
    1b4c:	5f58414d 	svcpl	0x0058414d
    1b50:	5f00295f 	svcpl	0x0000295f
    1b54:	544c465f 	strbpl	r4, [ip], #-1631	; 0xfffff9a1
    1b58:	4d5f3233 	lfmmi	f3, 2, [pc, #-204]	; 1a94 <_Min_Stack_Size+0x1694>
    1b5c:	455f5841 	ldrbmi	r5, [pc, #-2113]	; 1323 <_Min_Stack_Size+0xf23>
    1b60:	5f5f5058 	svcpl	0x005f5058
    1b64:	38323120 	ldmdacc	r2!, {r5, r8, ip, sp}
    1b68:	545f5f00 	ldrbpl	r5, [pc], #-3840	; 1b70 <_Min_Stack_Size+0x1770>
    1b6c:	42465f41 	submi	r5, r6, #260	; 0x104
    1b70:	5f5f5449 	svcpl	0x005f5449
    1b74:	00333620 	eorseq	r3, r3, r0, lsr #12
    1b78:	49555f5f 	ldmdbmi	r5, {r0, r1, r2, r3, r4, r6, r8, r9, sl, fp, ip, lr}^
    1b7c:	414d544e 	cmpmi	sp, lr, asr #8
    1b80:	59545f58 	ldmdbpl	r4, {r3, r4, r6, r8, r9, sl, fp, ip, lr}^
    1b84:	5f5f4550 	svcpl	0x005f4550
    1b88:	6e6f6c20 	cdpvs	12, 6, cr6, cr15, cr0, {1}
    1b8c:	6f6c2067 	svcvs	0x006c2067
    1b90:	7520676e 	strvc	r6, [r0, #-1902]!	; 0xfffff892
    1b94:	6769736e 	strbvs	r7, [r9, -lr, ror #6]!
    1b98:	2064656e 	rsbcs	r6, r4, lr, ror #10
    1b9c:	00746e69 	rsbseq	r6, r4, r9, ror #28
    1ba0:	4c555f5f 	mrrcmi	15, 5, r5, r5, cr15	; <UNPREDICTABLE>
    1ba4:	4152464c 	cmpmi	r2, ip, asr #12
    1ba8:	4d5f5443 	cfldrdmi	mvd5, [pc, #-268]	; 1aa4 <_Min_Stack_Size+0x16a4>
    1bac:	5f5f5841 	svcpl	0x005f5841
    1bb0:	46583020 	ldrbmi	r3, [r8], -r0, lsr #32
    1bb4:	46464646 	strbmi	r4, [r6], -r6, asr #12
    1bb8:	46464646 	strbmi	r4, [r6], -r6, asr #12
    1bbc:	46464646 	strbmi	r4, [r6], -r6, asr #12
    1bc0:	50464646 	subpl	r4, r6, r6, asr #12
    1bc4:	5534362d 	ldrpl	r3, [r4, #-1581]!	; 0xfffff9d3
    1bc8:	00524c4c 	subseq	r4, r2, ip, asr #24
    1bcc:	49545845 	ldmdbmi	r4, {r0, r2, r6, fp, ip, lr}^
    1bd0:	36435036 			; <UNDEFINED> instruction: 0x36435036
    1bd4:	58452820 	stmdapl	r5, {r5, fp, sp}^
    1bd8:	475f4954 			; <UNDEFINED> instruction: 0x475f4954
    1bdc:	5f4f4950 	svcpl	0x004f4950
    1be0:	7070614d 	rsbsvc	r6, r0, sp, asr #2
    1be4:	5f676e69 	svcpl	0x00676e69
    1be8:	457b2974 	ldrbmi	r2, [fp, #-2420]!	; 0xfffff68c
    1bec:	36495458 			; <UNDEFINED> instruction: 0x36495458
    1bf0:	5047202c 	subpl	r2, r7, ip, lsr #32
    1bf4:	2c434f49 	mcrrcs	15, 4, r4, r3, cr9
    1bf8:	49504720 	ldmdbmi	r0, {r5, r8, r9, sl, lr}^
    1bfc:	49505f4f 	ldmdbmi	r0, {r0, r1, r2, r3, r6, r8, r9, sl, fp, ip, lr}^
    1c00:	2c365f4e 	ldccs	15, cr5, [r6], #-312	; 0xfffffec8
    1c04:	54584520 	ldrbpl	r4, [r8], #-1312	; 0xfffffae0
    1c08:	495f3649 	ldmdbmi	pc, {r0, r3, r6, r9, sl, ip, sp}^	; <UNPREDICTABLE>
    1c0c:	007d5152 	rsbseq	r5, sp, r2, asr r1
    1c10:	52415355 	subpl	r5, r1, #1409286145	; 0x54000001
    1c14:	28203354 	stmdacs	r0!, {r2, r4, r6, r8, r9, ip, sp}
    1c18:	41535528 	cmpmi	r3, r8, lsr #10
    1c1c:	545f5452 	ldrbpl	r5, [pc], #-1106	; 1c24 <_Min_Stack_Size+0x1824>
    1c20:	64657079 	strbtvs	r7, [r5], #-121	; 0xffffff87
    1c24:	2a206665 	bcs	81b5c0 <_Min_Stack_Size+0x81b1c0>
    1c28:	41535529 	cmpmi	r3, r9, lsr #10
    1c2c:	5f335452 	svcpl	0x00335452
    1c30:	45534142 	ldrbmi	r4, [r3, #-322]	; 0xfffffebe
    1c34:	5f5f0029 	svcpl	0x005f0029
    1c38:	746e695f 	strbtvc	r6, [lr], #-2399	; 0xfffff6a1
    1c3c:	7274705f 	rsbsvc	r7, r4, #95	; 0x5f
    1c40:	66666964 	strbtvs	r6, [r6], -r4, ror #18
    1c44:	685f745f 	ldmdavs	pc, {r0, r1, r2, r3, r4, r6, sl, ip, sp, lr}^	; <UNPREDICTABLE>
    1c48:	535f0020 	cmppl	pc, #32
    1c4c:	5f455a49 	svcpl	0x00455a49
    1c50:	45445f54 	strbmi	r5, [r4, #-3924]	; 0xfffff0ac
    1c54:	52414c43 	subpl	r4, r1, #17152	; 0x4300
    1c58:	00204445 	eoreq	r4, r0, r5, asr #8
    1c5c:	48435f5f 	stmdami	r3, {r0, r1, r2, r3, r4, r6, r8, r9, sl, fp, ip, lr}^
    1c60:	32335241 	eorscc	r5, r3, #268435460	; 0x10000004
    1c64:	5059545f 	subspl	r5, r9, pc, asr r4
    1c68:	205f5f45 	subscs	r5, pc, r5, asr #30
    1c6c:	676e6f6c 	strbvs	r6, [lr, -ip, ror #30]!
    1c70:	736e7520 	cmnvc	lr, #32, 10	; 0x8000000
    1c74:	656e6769 	strbvs	r6, [lr, #-1897]!	; 0xfffff897
    1c78:	6e692064 	cdpvs	0, 6, cr2, cr9, cr4, {3}
    1c7c:	5f5f0074 	svcpl	0x005f0074
    1c80:	5f4d5241 	svcpl	0x004d5241
    1c84:	54414546 	strbpl	r4, [r1], #-1350	; 0xfffffaba
    1c88:	5f455255 	svcpl	0x00455255
    1c8c:	36315046 	ldrtcc	r5, [r1], -r6, asr #32
    1c90:	4345565f 	movtmi	r5, #22111	; 0x565f
    1c94:	5f524f54 	svcpl	0x00524f54
    1c98:	54495241 	strbpl	r5, [r9], #-577	; 0xfffffdbf
    1c9c:	54454d48 	strbpl	r4, [r5], #-3400	; 0xfffff2b8
    1ca0:	5f004349 	svcpl	0x00004349
    1ca4:	49534f50 	ldmdbmi	r3, {r4, r6, r8, r9, sl, fp, lr}^
    1ca8:	5f435f58 	svcpl	0x00435f58
    1cac:	52554f53 	subspl	r4, r5, #332	; 0x14c
    1cb0:	32204543 	eorcc	r4, r0, #281018368	; 0x10c00000
    1cb4:	30383030 	eorscc	r3, r8, r0, lsr r0
    1cb8:	5f004c39 	svcpl	0x00004c39
    1cbc:	5f43435f 	svcpl	0x0043435f
    1cc0:	50505553 	subspl	r5, r0, r3, asr r5
    1cc4:	5354524f 	cmppl	r4, #-268435452	; 0xf0000004
    1cc8:	4e59445f 	mrcmi	4, 2, r4, cr9, cr15, {2}
    1ccc:	43494d41 	movtmi	r4, #40257	; 0x9d41
    1cd0:	5252415f 	subspl	r4, r2, #-1073741801	; 0xc0000017
    1cd4:	495f5941 	ldmdbmi	pc, {r0, r6, r8, fp, ip, lr}^	; <UNPREDICTABLE>
    1cd8:	2054494e 	subscs	r4, r4, lr, asr #18
    1cdc:	5f5f0031 	svcpl	0x005f0031
    1ce0:	544e4955 	strbpl	r4, [lr], #-2389	; 0xfffff6ab
    1ce4:	5341465f 	movtpl	r4, #5727	; 0x165f
    1ce8:	5f323354 	svcpl	0x00323354
    1cec:	5f58414d 	svcpl	0x0058414d
    1cf0:	7830205f 	ldmdavc	r0!, {r0, r1, r2, r3, r4, r6, sp}
    1cf4:	66666666 	strbtvs	r6, [r6], -r6, ror #12
    1cf8:	66666666 	strbtvs	r6, [r6], -r6, ror #12
    1cfc:	5f5f0055 	svcpl	0x005f0055
    1d00:	5f544c46 	svcpl	0x00544c46
    1d04:	5f58414d 	svcpl	0x0058414d
    1d08:	5f505845 	svcpl	0x00505845
    1d0c:	3231205f 	eorscc	r2, r1, #95	; 0x5f
    1d10:	5f5f0038 	svcpl	0x005f0038
    1d14:	455a4953 	ldrbmi	r4, [sl, #-2387]	; 0xfffff6ad
    1d18:	4c5f464f 	mrrcmi	6, 4, r4, pc, cr15	; <UNPREDICTABLE>
    1d1c:	5f474e4f 	svcpl	0x00474e4f
    1d20:	0034205f 	eorseq	r2, r4, pc, asr r0
    1d24:	28505f5f 	ldmdacs	r0, {r0, r1, r2, r3, r4, r6, r8, r9, sl, fp, ip, lr}^
    1d28:	746f7270 	strbtvc	r7, [pc], #-624	; 1d30 <_Min_Stack_Size+0x1930>
    1d2c:	2029736f 	eorcs	r7, r9, pc, ror #6
    1d30:	746f7270 	strbtvc	r7, [pc], #-624	; 1d38 <_Min_Stack_Size+0x1938>
    1d34:	5200736f 	andpl	r7, r0, #-1140850687	; 0xbc000001
    1d38:	535f4343 	cmppl	pc, #201326593	; 0xc000001
    1d3c:	5f334950 	svcpl	0x00334950
    1d40:	5f4b4c43 	svcpl	0x004b4c43
    1d44:	29284e45 	stmdbcs	r8!, {r0, r2, r6, r9, sl, fp, lr}
    1d48:	43522820 	cmpmi	r2, #32, 16	; 0x200000
    1d4c:	413e2d43 	teqmi	lr, r3, asr #26
    1d50:	45314250 	ldrmi	r4, [r1, #-592]!	; 0xfffffdb0
    1d54:	7c20524e 	sfmvc	f5, 4, [r0], #-312	; 0xfffffec8
    1d58:	3128203d 			; <UNDEFINED> instruction: 0x3128203d
    1d5c:	35313c3c 	ldrcc	r3, [r1, #-3132]!	; 0xfffff3c4
    1d60:	41002929 	tstmi	r0, r9, lsr #18
    1d64:	45324250 	ldrmi	r4, [r2, #-592]!	; 0xfffffdb0
    1d68:	5f00524e 	svcpl	0x0000524e
    1d6c:	7274735f 	rsbsvc	r7, r4, #2080374785	; 0x7c000001
    1d70:	6e6f6d66 	cdpvs	13, 6, cr6, cr15, cr6, {3}
    1d74:	656b696c 	strbvs	r6, [fp, #-2412]!	; 0xfffff694
    1d78:	746d6628 	strbtvc	r6, [sp], #-1576	; 0xfffff9d8
    1d7c:	2c677261 	sfmcs	f7, 2, [r7], #-388	; 0xfffffe7c
    1d80:	73726966 	cmnvc	r2, #1671168	; 0x198000
    1d84:	72617674 	rsbvc	r7, r1, #116, 12	; 0x7400000
    1d88:	29677261 	stmdbcs	r7!, {r0, r5, r6, r9, ip, sp, lr}^
    1d8c:	615f5f20 	cmpvs	pc, r0, lsr #30
    1d90:	69727474 	ldmdbvs	r2!, {r2, r4, r5, r6, sl, ip, sp, lr}^
    1d94:	65747562 	ldrbvs	r7, [r4, #-1378]!	; 0xfffffa9e
    1d98:	28285f5f 	stmdacs	r8!, {r0, r1, r2, r3, r4, r6, r8, r9, sl, fp, ip, lr}
    1d9c:	6f665f5f 	svcvs	0x00665f5f
    1da0:	74616d72 	strbtvc	r6, [r1], #-3442	; 0xfffff28e
    1da4:	28205f5f 	stmdacs	r0!, {r0, r1, r2, r3, r4, r6, r8, r9, sl, fp, ip, lr}
    1da8:	74735f5f 	ldrbtvc	r5, [r3], #-3935	; 0xfffff0a1
    1dac:	6f6d6672 	svcvs	0x006d6672
    1db0:	2c5f5f6e 	mrrccs	15, 6, r5, pc, cr14	; <UNPREDICTABLE>
    1db4:	746d6620 	strbtvc	r6, [sp], #-1568	; 0xfffff9e0
    1db8:	2c677261 	sfmcs	f7, 2, [r7], #-388	; 0xfffffe7c
    1dbc:	72696620 	rsbvc	r6, r9, #32, 12	; 0x2000000
    1dc0:	61767473 	cmnvs	r6, r3, ror r4
    1dc4:	67726172 			; <UNDEFINED> instruction: 0x67726172
    1dc8:	00292929 	eoreq	r2, r9, r9, lsr #18
    1dcc:	54524155 	ldrbpl	r4, [r2], #-341	; 0xfffffeab
    1dd0:	41425f35 	cmpmi	r2, r5, lsr pc
    1dd4:	30204553 	eorcc	r4, r0, r3, asr r5
    1dd8:	30303478 	eorscc	r3, r0, r8, ror r4
    1ddc:	30303530 	eorscc	r3, r0, r0, lsr r5
    1de0:	5f007530 	svcpl	0x00007530
    1de4:	4e454552 	mcrmi	5, 2, r4, cr5, cr2, {2}
    1de8:	504d5f54 	subpl	r5, sp, r4, asr pc
    1dec:	5345525f 	movtpl	r5, #21087	; 0x525f
    1df0:	5f544c55 	svcpl	0x00544c55
    1df4:	7470284b 	ldrbtvc	r2, [r0], #-2123	; 0xfffff7b5
    1df8:	28202972 	stmdacs	r0!, {r1, r4, r5, r6, r8, fp, sp}
    1dfc:	72747028 	rsbsvc	r7, r4, #40	; 0x28
    1e00:	5f3e2d29 	svcpl	0x003e2d29
    1e04:	3e2d706d 	cdpcc	0, 2, cr7, cr13, cr13, {3}
    1e08:	7365725f 	cmnvc	r5, #-268435451	; 0xf0000005
    1e0c:	5f746c75 	svcpl	0x00746c75
    1e10:	5f00296b 	svcpl	0x0000296b
    1e14:	5a49535f 	bpl	1256b98 <_Min_Stack_Size+0x1256798>
    1e18:	5f464f45 	svcpl	0x00464f45
    1e1c:	42554f44 	subsmi	r4, r5, #68, 30	; 0x110
    1e20:	5f5f454c 	svcpl	0x005f454c
    1e24:	5f003820 	svcpl	0x00003820
    1e28:	544e495f 	strbpl	r4, [lr], #-2399	; 0xfffff6a1
    1e2c:	41454c5f 	cmpmi	r5, pc, asr ip
    1e30:	32335453 	eorscc	r5, r3, #1392508928	; 0x53000000
    1e34:	4449575f 	strbmi	r5, [r9], #-1887	; 0xfffff8a1
    1e38:	5f5f4854 	svcpl	0x005f4854
    1e3c:	00323320 	eorseq	r3, r2, r0, lsr #6
    1e40:	4f4c435f 	svcmi	0x004c435f
    1e44:	545f4b43 	ldrbpl	r4, [pc], #-2883	; 1e4c <_Min_Stack_Size+0x1a4c>
    1e48:	6e75205f 	mrcvs	0, 3, r2, cr5, cr15, {2}
    1e4c:	6e676973 			; <UNDEFINED> instruction: 0x6e676973
    1e50:	6c206465 	cfstrsvs	mvf6, [r0], #-404	; 0xfffffe6c
    1e54:	00676e6f 	rsbeq	r6, r7, pc, ror #28
    1e58:	4d49545f 	cfstrdmi	mvd5, [r9, #-380]	; 0xfffffe84
    1e5c:	5f545f45 	svcpl	0x00545f45
    1e60:	695f5f20 	ldmdbvs	pc, {r5, r8, r9, sl, fp, ip, lr}^	; <UNPREDICTABLE>
    1e64:	6c5f746e 	cfldrdvs	mvd7, [pc], {110}	; 0x6e
    1e68:	74736165 	ldrbtvc	r6, [r3], #-357	; 0xfffffe9b
    1e6c:	745f3436 	ldrbvc	r3, [pc], #-1078	; 1e74 <_Min_Stack_Size+0x1a74>
    1e70:	54584500 	ldrbpl	r4, [r8], #-1280	; 0xfffffb00
    1e74:	50303149 	eorspl	r3, r0, r9, asr #2
    1e78:	20303144 	eorscs	r3, r0, r4, asr #2
    1e7c:	54584528 	ldrbpl	r4, [r8], #-1320	; 0xfffffad8
    1e80:	50475f49 	subpl	r5, r7, r9, asr #30
    1e84:	4d5f4f49 	ldclmi	15, cr4, [pc, #-292]	; 1d68 <_Min_Stack_Size+0x1968>
    1e88:	69707061 	ldmdbvs	r0!, {r0, r5, r6, ip, sp, lr}^
    1e8c:	745f676e 	ldrbvc	r6, [pc], #-1902	; 1e94 <_Min_Stack_Size+0x1a94>
    1e90:	58457b29 	stmdapl	r5, {r0, r3, r5, r8, r9, fp, ip, sp, lr}^
    1e94:	30314954 	eorscc	r4, r1, r4, asr r9
    1e98:	5047202c 	subpl	r2, r7, ip, lsr #32
    1e9c:	2c444f49 	mcrrcs	15, 4, r4, r4, cr9
    1ea0:	49504720 	ldmdbmi	r0, {r5, r8, r9, sl, lr}^
    1ea4:	49505f4f 	ldmdbmi	r0, {r0, r1, r2, r3, r6, r8, r9, sl, fp, ip, lr}^
    1ea8:	30315f4e 	eorscc	r5, r1, lr, asr #30
    1eac:	5845202c 	stmdapl	r5, {r2, r3, r5, sp}^
    1eb0:	30314954 	eorscc	r4, r1, r4, asr r9
    1eb4:	5152495f 	cmppl	r2, pc, asr r9
    1eb8:	6154007d 	cmpvs	r4, sp, ror r0
    1ebc:	5f426b73 	svcpl	0x00426b73
    1ec0:	676c6146 	strbvs	r6, [ip, -r6, asr #2]!
    1ec4:	465f5f00 	ldrbmi	r5, [pc], -r0, lsl #30
    1ec8:	31545341 	cmpcc	r4, r1, asr #6
    1ecc:	5f002036 	svcpl	0x00002036
    1ed0:	544e495f 	strbpl	r4, [lr], #-2399	; 0xfffff6a1
    1ed4:	5341465f 	movtpl	r4, #5727	; 0x165f
    1ed8:	4d5f3854 	ldclmi	8, cr3, [pc, #-336]	; 1d90 <_Min_Stack_Size+0x1990>
    1edc:	5f5f5841 	svcpl	0x005f5841
    1ee0:	37783020 	ldrbcc	r3, [r8, -r0, lsr #32]!
    1ee4:	66666666 	strbtvs	r6, [r6], -r6, ror #12
    1ee8:	00666666 	rsbeq	r6, r6, r6, ror #12
    1eec:	4545525f 	strbmi	r5, [r5, #-607]	; 0xfffffda1
    1ef0:	525f544e 	subspl	r5, pc, #1308622848	; 0x4e000000
    1ef4:	34444e41 	strbcc	r4, [r4], #-3649	; 0xfffff1bf
    1ef8:	45535f38 	ldrbmi	r5, [r3, #-3896]	; 0xfffff0c8
    1efc:	70284445 	eorvc	r4, r8, r5, asr #8
    1f00:	20297274 	eorcs	r7, r9, r4, ror r2
    1f04:	74702828 	ldrbtvc	r2, [r0], #-2088	; 0xfffff7d8
    1f08:	3e2d2972 			; <UNDEFINED> instruction: 0x3e2d2972
    1f0c:	3834725f 	ldmdacc	r4!, {r0, r1, r2, r3, r4, r6, r9, ip, sp, lr}
    1f10:	735f3e2d 	cmpvc	pc, #720	; 0x2d0
    1f14:	29646565 	stmdbcs	r4!, {r0, r2, r5, r6, r8, sl, sp, lr}^
    1f18:	4c5f5f00 	mrrcmi	15, 0, r5, pc, cr0	; <UNPREDICTABLE>
    1f1c:	45475241 	strbmi	r5, [r7, #-577]	; 0xfffffdbf
    1f20:	454c4946 	strbmi	r4, [ip, #-2374]	; 0xfffff6ba
    1f24:	5349565f 	movtpl	r5, #38495	; 0x965f
    1f28:	454c4249 	strbmi	r4, [ip, #-585]	; 0xfffffdb7
    1f2c:	5f003020 	svcpl	0x00003020
    1f30:	746e695f 	strbtvc	r6, [lr], #-2399	; 0xfffff6a1
    1f34:	7361665f 	cmnvc	r1, #99614720	; 0x5f00000
    1f38:	745f3874 	ldrbvc	r3, [pc], #-2164	; 1f40 <_Min_Stack_Size+0x1b40>
    1f3c:	6665645f 			; <UNDEFINED> instruction: 0x6665645f
    1f40:	64656e69 	strbtvs	r6, [r5], #-3689	; 0xfffff197
    1f44:	5f003120 	svcpl	0x00003120
    1f48:	57454e5f 	smlsldpl	r4, r5, pc, lr	; <UNPREDICTABLE>
    1f4c:	5f42494c 	svcpl	0x0042494c
    1f50:	0034205f 	eorseq	r2, r4, pc, asr r0
    1f54:	54495845 	strbpl	r5, [r9], #-2117	; 0xfffff7bb
    1f58:	4355535f 	cmpmi	r5, #2080374785	; 0x7c000001
    1f5c:	53534543 	cmppl	r3, #281018368	; 0x10c00000
    1f60:	45003020 	strmi	r3, [r0, #-32]	; 0xffffffe0
    1f64:	36495458 			; <UNDEFINED> instruction: 0x36495458
    1f68:	5152495f 	cmppl	r2, pc, asr r9
    1f6c:	00333220 	eorseq	r3, r3, r0, lsr #4
    1f70:	54555f5f 	ldrbpl	r5, [r5], #-3935	; 0xfffff0a1
    1f74:	42465f41 	submi	r5, r6, #260	; 0x104
    1f78:	5f5f5449 	svcpl	0x005f5449
    1f7c:	00343620 	eorseq	r3, r4, r0, lsr #12
    1f80:	316d6954 	cmncc	sp, r4, asr r9
    1f84:	54282820 	strtpl	r2, [r8], #-2080	; 0xfffff7e0
    1f88:	52454d49 	subpl	r4, r5, #4672	; 0x1240
    1f8c:	5f385f31 	svcpl	0x00385f31
    1f90:	65707954 	ldrbvs	r7, [r0, #-2388]!	; 0xfffff6ac
    1f94:	5f666564 	svcpl	0x00666564
    1f98:	54292a74 	strtpl	r2, [r9], #-2676	; 0xfffff58c
    1f9c:	5f314d49 	svcpl	0x00314d49
    1fa0:	45534142 	ldrbmi	r4, [r3, #-322]	; 0xfffffebe
    1fa4:	5f5f0029 	svcpl	0x005f0029
    1fa8:	5f544c46 	svcpl	0x00544c46
    1fac:	49434544 	stmdbmi	r3, {r2, r6, r8, sl, lr}^
    1fb0:	5f4c414d 	svcpl	0x004c414d
    1fb4:	5f474944 	svcpl	0x00474944
    1fb8:	0039205f 	eorseq	r2, r9, pc, asr r0
    1fbc:	4e495f5f 	mcrmi	15, 2, r5, cr9, cr15, {2}
    1fc0:	454c5f54 	strbmi	r5, [ip, #-3924]	; 0xfffff0ac
    1fc4:	33545341 	cmpcc	r4, #67108865	; 0x4000001
    1fc8:	414d5f32 	cmpmi	sp, r2, lsr pc
    1fcc:	205f5f58 	subscs	r5, pc, r8, asr pc	; <UNPREDICTABLE>
    1fd0:	66377830 			; <UNDEFINED> instruction: 0x66377830
    1fd4:	66666666 	strbtvs	r6, [r6], -r6, ror #12
    1fd8:	004c6666 	subeq	r6, ip, r6, ror #12
    1fdc:	434f4c5f 	movtmi	r4, #64607	; 0xfc5f
    1fe0:	45525f4b 	ldrbmi	r5, [r2, #-3915]	; 0xfffff0b5
    1fe4:	53525543 	cmppl	r2, #281018368	; 0x10c00000
    1fe8:	5f455649 	svcpl	0x00455649
    1fec:	4c5f2054 	mrrcmi	0, 5, r2, pc, cr4	; <UNPREDICTABLE>
    1ff0:	5f4b434f 	svcpl	0x004b434f
    1ff4:	4e490054 	mcrmi	0, 2, r0, cr9, cr4, {2}
    1ff8:	58414d54 	stmdapl	r1, {r2, r4, r6, r8, sl, fp, lr}^
    1ffc:	4e494d5f 	mcrmi	13, 2, r4, cr9, cr15, {2}
    2000:	492d2820 	pushmi	{r5, fp, sp}
    2004:	414d544e 	cmpmi	sp, lr, asr #8
    2008:	414d5f58 	cmpmi	sp, r8, asr pc
    200c:	202d2058 	eorcs	r2, sp, r8, asr r0
    2010:	55002931 	strpl	r2, [r0, #-2353]	; 0xfffff6cf
    2014:	5f545241 	svcpl	0x00545241
    2018:	45444f4d 	strbmi	r4, [r4, #-3917]	; 0xfffff0b3
    201c:	2078545f 	rsbscs	r5, r8, pc, asr r4
    2020:	6e697528 	cdpvs	5, 6, cr7, cr9, cr8, {1}
    2024:	5f323374 	svcpl	0x00323374
    2028:	31282974 			; <UNDEFINED> instruction: 0x31282974
    202c:	29333c3c 	ldmdbcs	r3!, {r2, r3, r4, r5, sl, fp, ip, sp}
    2030:	705f5f00 	subsvc	r5, pc, r0, lsl #30
    2034:	745f7274 	ldrbvc	r7, [pc], #-628	; 203c <_Min_Stack_Size+0x1c3c>
    2038:	696f7620 	stmdbvs	pc!, {r5, r9, sl, ip, sp, lr}^	; <UNPREDICTABLE>
    203c:	002a2064 	eoreq	r2, sl, r4, rrx
    2040:	5641485f 			; <UNDEFINED> instruction: 0x5641485f
    2044:	4f4c5f45 	svcmi	0x004c5f45
    2048:	445f474e 	ldrbmi	r4, [pc], #-1870	; 2050 <_Min_Stack_Size+0x1c50>
    204c:	4c42554f 	cfstr64mi	mvdx5, [r2], {79}	; 0x4f
    2050:	00312045 	eorseq	r2, r1, r5, asr #32
    2054:	4f495047 	svcmi	0x00495047
    2058:	41425f42 	cmpmi	r2, r2, asr #30
    205c:	30204553 	eorcc	r4, r0, r3, asr r5
    2060:	30303478 	eorscc	r3, r0, r8, ror r4
    2064:	30433031 	subcc	r3, r3, r1, lsr r0
    2068:	57007530 	smladxpl	r0, r0, r5, r7
    206c:	52414843 	subpl	r4, r1, #4390912	; 0x430000
    2070:	4e494d5f 	mcrmi	13, 2, r4, cr9, cr15, {2}
    2074:	5f5f2820 	svcpl	0x005f2820
    2078:	41484357 	cmpmi	r8, r7, asr r3
    207c:	494d5f52 	stmdbmi	sp, {r1, r4, r6, r8, r9, sl, fp, ip, lr}^
    2080:	295f5f4e 	ldmdbcs	pc, {r1, r2, r3, r6, r8, r9, sl, fp, ip, lr}^	; <UNPREDICTABLE>
    2084:	465f5f00 	ldrbmi	r5, [pc], -r0, lsl #30
    2088:	54434152 	strbpl	r4, [r3], #-338	; 0xfffffeae
    208c:	4942465f 	stmdbmi	r2, {r0, r1, r2, r3, r4, r6, r9, sl, lr}^
    2090:	205f5f54 	subscs	r5, pc, r4, asr pc	; <UNPREDICTABLE>
    2094:	5f003531 	svcpl	0x00003531
    2098:	544c465f 	strbpl	r4, [ip], #-1631	; 0xfffff9a1
    209c:	5341485f 	movtpl	r4, #6239	; 0x185f
    20a0:	4955515f 	ldmdbmi	r5, {r0, r1, r2, r3, r4, r6, r8, ip, lr}^
    20a4:	4e5f5445 	cdpmi	4, 5, cr5, cr15, cr5, {2}
    20a8:	5f5f4e41 	svcpl	0x005f4e41
    20ac:	45003120 	strmi	r3, [r0, #-288]	; 0xfffffee0
    20b0:	34495458 	strbcc	r5, [r9], #-1112	; 0xfffffba8
    20b4:	20344450 	eorscs	r4, r4, r0, asr r4
    20b8:	54584528 	ldrbpl	r4, [r8], #-1320	; 0xfffffad8
    20bc:	50475f49 	subpl	r5, r7, r9, asr #30
    20c0:	4d5f4f49 	ldclmi	15, cr4, [pc, #-292]	; 1fa4 <_Min_Stack_Size+0x1ba4>
    20c4:	69707061 	ldmdbvs	r0!, {r0, r5, r6, ip, sp, lr}^
    20c8:	745f676e 	ldrbvc	r6, [pc], #-1902	; 20d0 <_Min_Stack_Size+0x1cd0>
    20cc:	58457b29 	stmdapl	r5, {r0, r3, r5, r8, r9, fp, ip, sp, lr}^
    20d0:	2c344954 			; <UNDEFINED> instruction: 0x2c344954
    20d4:	49504720 	ldmdbmi	r0, {r5, r8, r9, sl, lr}^
    20d8:	202c444f 	eorcs	r4, ip, pc, asr #8
    20dc:	4f495047 	svcmi	0x00495047
    20e0:	4e49505f 	mcrmi	0, 2, r5, cr9, cr15, {2}
    20e4:	202c345f 	eorcs	r3, ip, pc, asr r4
    20e8:	49545845 	ldmdbmi	r4, {r0, r2, r6, fp, ip, lr}^
    20ec:	52495f34 	subpl	r5, r9, #52, 30	; 0xd0
    20f0:	5f007d51 	svcpl	0x00007d51
    20f4:	554e475f 	strbpl	r4, [lr, #-1887]	; 0xfffff8a1
    20f8:	41505f43 	cmpmi	r0, r3, asr #30
    20fc:	4c484354 	mcrrmi	3, 5, r4, r8, cr4
    2100:	4c455645 	mcrrmi	6, 4, r5, r5, cr5
    2104:	31205f5f 			; <UNDEFINED> instruction: 0x31205f5f
    2108:	475f5f00 	ldrbmi	r5, [pc, -r0, lsl #30]
    210c:	415f4343 	cmpmi	pc, r3, asr #6
    2110:	494d4f54 	stmdbmi	sp, {r2, r4, r6, r8, r9, sl, fp, lr}^
    2114:	48435f43 	stmdami	r3, {r0, r1, r6, r8, r9, sl, fp, ip, lr}^
    2118:	32335241 	eorscc	r5, r3, #268435460	; 0x10000004
    211c:	4c5f545f 	cfldrdmi	mvd5, [pc], {95}	; 0x5f
    2120:	5f4b434f 	svcpl	0x004b434f
    2124:	45455246 	strbmi	r5, [r5, #-582]	; 0xfffffdba
    2128:	50003220 	andpl	r3, r0, r0, lsr #4
    212c:	665f4c4c 	ldrbvs	r4, [pc], -ip, asr #24
    2130:	20716572 	rsbscs	r6, r1, r2, ror r5
    2134:	30303831 	eorscc	r3, r0, r1, lsr r8
    2138:	615f5f00 	cmpvs	pc, r0, lsl #30
    213c:	636f6c6c 	cmnvs	pc, #108, 24	; 0x6c00
    2140:	696c615f 	stmdbvs	ip!, {r0, r1, r2, r3, r4, r6, r8, sp, lr}^
    2144:	78286e67 	stmdavc	r8!, {r0, r1, r2, r5, r6, r9, sl, fp, sp, lr}
    2148:	5f5f2029 	svcpl	0x005f2029
    214c:	72747461 	rsbsvc	r7, r4, #1627389952	; 0x61000000
    2150:	74756269 	ldrbtvc	r6, [r5], #-617	; 0xfffffd97
    2154:	285f5f65 	ldmdacs	pc, {r0, r2, r5, r6, r8, r9, sl, fp, ip, lr}^	; <UNPREDICTABLE>
    2158:	615f5f28 	cmpvs	pc, r8, lsr #30
    215c:	636f6c6c 	cmnvs	pc, #108, 24	; 0x6c00
    2160:	696c615f 	stmdbvs	ip!, {r0, r1, r2, r3, r4, r6, r8, sp, lr}^
    2164:	5f5f6e67 	svcpl	0x005f6e67
    2168:	29297828 	stmdbcs	r9!, {r3, r5, fp, ip, sp, lr}
    216c:	5f5f0029 	svcpl	0x005f0029
    2170:	544e4955 	strbpl	r4, [lr], #-2389	; 0xfffff6ab
    2174:	41454c5f 	cmpmi	r5, pc, asr ip
    2178:	36315453 			; <UNDEFINED> instruction: 0x36315453
    217c:	58414d5f 	stmdapl	r1, {r0, r1, r2, r3, r4, r6, r8, sl, fp, lr}^
    2180:	30205f5f 	eorcc	r5, r0, pc, asr pc
    2184:	66666678 			; <UNDEFINED> instruction: 0x66666678
    2188:	5f5f0066 	svcpl	0x005f0066
    218c:	4343414c 	movtmi	r4, #12620	; 0x314c
    2190:	465f4d55 			; <UNDEFINED> instruction: 0x465f4d55
    2194:	5f544942 	svcpl	0x00544942
    2198:	3133205f 	teqcc	r3, pc, asr r0
    219c:	705f5f00 	subsvc	r5, pc, r0, lsl #30
    21a0:	69646572 	stmdbvs	r4!, {r1, r4, r5, r6, r8, sl, sp, lr}^
    21a4:	745f7463 	ldrbvc	r7, [pc], #-1123	; 21ac <_Min_Stack_Size+0x1dac>
    21a8:	28657572 	stmdacs	r5!, {r1, r4, r5, r6, r8, sl, ip, sp, lr}^
    21ac:	29707865 	ldmdbcs	r0!, {r0, r2, r5, r6, fp, ip, sp, lr}^
    21b0:	625f5f20 	subsvs	r5, pc, #32, 30	; 0x80
    21b4:	746c6975 	strbtvc	r6, [ip], #-2421	; 0xfffff68b
    21b8:	655f6e69 	ldrbvs	r6, [pc, #-3689]	; 1357 <_Min_Stack_Size+0xf57>
    21bc:	63657078 	cmnvs	r5, #120	; 0x78
    21c0:	65282874 	strvs	r2, [r8, #-2164]!	; 0xfffff78c
    21c4:	2c297078 	stccs	0, cr7, [r9], #-480	; 0xfffffe20
    21c8:	00293120 	eoreq	r3, r9, r0, lsr #2
    21cc:	49545845 	ldmdbmi	r4, {r0, r2, r6, fp, ip, lr}^
    21d0:	38445038 	stmdacc	r4, {r3, r4, r5, ip, lr}^
    21d4:	58452820 	stmdapl	r5, {r5, fp, sp}^
    21d8:	475f4954 			; <UNDEFINED> instruction: 0x475f4954
    21dc:	5f4f4950 	svcpl	0x004f4950
    21e0:	7070614d 	rsbsvc	r6, r0, sp, asr #2
    21e4:	5f676e69 	svcpl	0x00676e69
    21e8:	457b2974 	ldrbmi	r2, [fp, #-2420]!	; 0xfffff68c
    21ec:	38495458 	stmdacc	r9, {r3, r4, r6, sl, ip, lr}^
    21f0:	5047202c 	subpl	r2, r7, ip, lsr #32
    21f4:	2c444f49 	mcrrcs	15, 4, r4, r4, cr9
    21f8:	49504720 	ldmdbmi	r0, {r5, r8, r9, sl, lr}^
    21fc:	49505f4f 	ldmdbmi	r0, {r0, r1, r2, r3, r6, r8, r9, sl, fp, ip, lr}^
    2200:	2c385f4e 	ldccs	15, cr5, [r8], #-312	; 0xfffffec8
    2204:	54584520 	ldrbpl	r4, [r8], #-1312	; 0xfffffae0
    2208:	495f3849 	ldmdbmi	pc, {r0, r3, r6, fp, ip, sp}^	; <UNPREDICTABLE>
    220c:	007d5152 	rsbseq	r5, sp, r2, asr r1
    2210:	6f6c5f5f 	svcvs	0x006c5f5f
    2214:	725f6b63 	subsvc	r6, pc, #101376	; 0x18c00
    2218:	61656c65 	cmnvs	r5, r5, ror #24
    221c:	725f6573 	subsvc	r6, pc, #482344960	; 0x1cc00000
    2220:	72756365 	rsbsvc	r6, r5, #-1811939327	; 0x94000001
    2224:	65766973 	ldrbvs	r6, [r6, #-2419]!	; 0xfffff68d
    2228:	636f6c28 	cmnvs	pc, #40, 24	; 0x2800
    222c:	5f20296b 	svcpl	0x0020296b
    2230:	7465725f 	strbtvc	r7, [r5], #-607	; 0xfffffda1
    2234:	65677261 	strbvs	r7, [r7, #-609]!	; 0xfffffd9f
    2238:	6f6c5f74 	svcvs	0x006c5f74
    223c:	725f6b63 	subsvc	r6, pc, #101376	; 0x18c00
    2240:	61656c65 	cmnvs	r5, r5, ror #24
    2244:	725f6573 	subsvc	r6, pc, #482344960	; 0x1cc00000
    2248:	72756365 	rsbsvc	r6, r5, #-1811939327	; 0x94000001
    224c:	65766973 	ldrbvs	r6, [r6, #-2419]!	; 0xfffff68d
    2250:	636f6c28 	cmnvs	pc, #40, 24	; 0x2800
    2254:	5f00296b 	svcpl	0x0000296b
    2258:	544c465f 	strbpl	r4, [ip], #-1631	; 0xfffff9a1
    225c:	4749445f 	smlsldmi	r4, r9, pc, r4	; <UNPREDICTABLE>
    2260:	36205f5f 	qsaxcc	r5, r0, pc	; <UNPREDICTABLE>
    2264:	54584500 	ldrbpl	r4, [r8], #-1280	; 0xfffffb00
    2268:	43503749 	cmpmi	r0, #19136512	; 0x1240000
    226c:	45282037 	strmi	r2, [r8, #-55]!	; 0xffffffc9
    2270:	5f495458 	svcpl	0x00495458
    2274:	4f495047 	svcmi	0x00495047
    2278:	70614d5f 	rsbvc	r4, r1, pc, asr sp
    227c:	676e6970 			; <UNDEFINED> instruction: 0x676e6970
    2280:	7b29745f 	blvc	a5f404 <_Min_Stack_Size+0xa5f004>
    2284:	49545845 	ldmdbmi	r4, {r0, r2, r6, fp, ip, lr}^
    2288:	47202c37 			; <UNDEFINED> instruction: 0x47202c37
    228c:	434f4950 	movtmi	r4, #63824	; 0xf950
    2290:	5047202c 	subpl	r2, r7, ip, lsr #32
    2294:	505f4f49 	subspl	r4, pc, r9, asr #30
    2298:	375f4e49 	ldrbcc	r4, [pc, -r9, asr #28]
    229c:	5845202c 	stmdapl	r5, {r2, r3, r5, sp}^
    22a0:	5f374954 	svcpl	0x00374954
    22a4:	7d515249 	lfmvc	f5, 2, [r1, #-292]	; 0xfffffedc
    22a8:	495f5f00 	ldmdbmi	pc, {r8, r9, sl, fp, ip, lr}^	; <UNPREDICTABLE>
    22ac:	465f544e 	ldrbmi	r5, [pc], -lr, asr #8
    22b0:	33545341 	cmpcc	r4, #67108865	; 0x4000001
    22b4:	49575f32 	ldmdbmi	r7, {r1, r4, r5, r8, r9, sl, fp, ip, lr}^
    22b8:	5f485444 	svcpl	0x00485444
    22bc:	3233205f 	eorscc	r2, r3, #95	; 0x5f
    22c0:	615f5f00 	cmpvs	pc, r0, lsl #30
    22c4:	69727474 	ldmdbvs	r2!, {r2, r4, r5, r6, sl, ip, sp, lr}^
    22c8:	65747562 	ldrbvs	r7, [r4, #-1378]!	; 0xfffffa9e
    22cc:	726f665f 	rsbvc	r6, pc, #99614720	; 0x5f00000
    22d0:	5f74616d 	svcpl	0x0074616d
    22d4:	66727473 			; <UNDEFINED> instruction: 0x66727473
    22d8:	5f6e6f6d 	svcpl	0x006e6f6d
    22dc:	2c61285f 	stclcs	8, cr2, [r1], #-380	; 0xfffffe84
    22e0:	00202962 	eoreq	r2, r0, r2, ror #18
    22e4:	4453425f 	ldrbmi	r4, [r3], #-607	; 0xfffffda1
    22e8:	5a49535f 	bpl	125706c <_Min_Stack_Size+0x1256c6c>
    22ec:	5f545f45 	svcpl	0x00545f45
    22f0:	49464544 	stmdbmi	r6, {r2, r6, r8, sl, lr}^
    22f4:	5f44454e 	svcpl	0x0044454e
    22f8:	5f5f0020 	svcpl	0x005f0020
    22fc:	544e4955 	strbpl	r4, [lr], #-2389	; 0xfffff6ab
    2300:	5341465f 	movtpl	r4, #5727	; 0x165f
    2304:	5f323354 	svcpl	0x00323354
    2308:	45505954 	ldrbmi	r5, [r0, #-2388]	; 0xfffff6ac
    230c:	75205f5f 	strvc	r5, [r0, #-3935]!	; 0xfffff0a1
    2310:	6769736e 	strbvs	r7, [r9, -lr, ror #6]!
    2314:	2064656e 	rsbcs	r6, r4, lr, ror #10
    2318:	00746e69 	rsbseq	r6, r4, r9, ror #28
    231c:	695f5f5f 	ldmdbvs	pc, {r0, r1, r2, r3, r4, r6, r8, r9, sl, fp, ip, lr}^	; <UNPREDICTABLE>
    2320:	735f746e 	cmpvc	pc, #1845493760	; 0x6e000000
    2324:	5f657a69 	svcpl	0x00657a69
    2328:	20685f74 	rsbcs	r5, r8, r4, ror pc
    232c:	535f5f00 	cmppl	pc, #0, 30
    2330:	5f434454 	svcpl	0x00434454
    2334:	5f465455 	svcpl	0x00465455
    2338:	5f5f3233 	svcpl	0x005f3233
    233c:	5f003120 	svcpl	0x00003120
    2340:	5a49535f 	bpl	12570c4 <_Min_Stack_Size+0x1256cc4>
    2344:	5f464f45 	svcpl	0x00464f45
    2348:	414f4c46 	cmpmi	pc, r6, asr #24
    234c:	205f5f54 	subscs	r5, pc, r4, asr pc	; <UNPREDICTABLE>
    2350:	5f5f0034 	svcpl	0x005f0034
    2354:	33544c46 	cmpcc	r4, #17920	; 0x4600
    2358:	445f5832 	ldrbmi	r5, [pc], #-2098	; 2360 <_Min_Stack_Size+0x1f60>
    235c:	524f4e45 	subpl	r4, pc, #1104	; 0x450
    2360:	494d5f4d 	stmdbmi	sp, {r0, r2, r3, r6, r8, r9, sl, fp, ip, lr}^
    2364:	205f5f4e 	subscs	r5, pc, lr, asr #30
    2368:	34392e34 	ldrtcc	r2, [r9], #-3636	; 0xfffff1cc
    236c:	36353630 			; <UNDEFINED> instruction: 0x36353630
    2370:	34383534 	ldrtcc	r3, [r8], #-1332	; 0xfffffacc
    2374:	36343231 			; <UNDEFINED> instruction: 0x36343231
    2378:	2d653435 	cfstrdcs	mvd3, [r5, #-212]!	; 0xffffff2c
    237c:	46343233 			; <UNDEFINED> instruction: 0x46343233
    2380:	00783233 	rsbseq	r3, r8, r3, lsr r2
    2384:	4e475f5f 	mcrmi	15, 2, r5, cr7, cr15, {2}
    2388:	494c4355 	stmdbmi	ip, {r0, r2, r4, r6, r8, r9, lr}^
    238c:	4d5f454b 	cfldr64mi	mvdx4, [pc, #-300]	; 2268 <_Min_Stack_Size+0x1e68>
    2390:	5f485441 	svcpl	0x00485441
    2394:	4c495542 	cfstr64mi	mvdx5, [r9], {66}	; 0x42
    2398:	5f4e4954 	svcpl	0x004e4954
    239c:	4f4c4552 	svcmi	0x004c4552
    23a0:	00205350 	eoreq	r5, r0, r0, asr r3
    23a4:	4c465f5f 	mcrrmi	15, 5, r5, r6, cr15
    23a8:	414d5f54 	cmpmi	sp, r4, asr pc
    23ac:	30315f58 	eorscc	r5, r1, r8, asr pc
    23b0:	5058455f 	subspl	r4, r8, pc, asr r5
    23b4:	33205f5f 			; <UNDEFINED> instruction: 0x33205f5f
    23b8:	5f5f0038 	svcpl	0x005f0038
    23bc:	28544d50 	ldmdacs	r4, {r4, r6, r8, sl, fp, lr}^
    23c0:	73677261 	cmnvc	r7, #268435462	; 0x10000006
    23c4:	72612029 	rsbvc	r2, r1, #41	; 0x29
    23c8:	5f007367 	svcpl	0x00007367
    23cc:	4152465f 	cmpmi	r2, pc, asr r6
    23d0:	4d5f5443 	cfldrdmi	mvd5, [pc, #-268]	; 22cc <_Min_Stack_Size+0x1ecc>
    23d4:	5f5f5841 	svcpl	0x005f5841
    23d8:	37583020 	ldrbcc	r3, [r8, -r0, lsr #32]
    23dc:	50464646 	subpl	r4, r6, r6, asr #12
    23e0:	5235312d 	eorspl	r3, r5, #1073741835	; 0x4000000b
    23e4:	49564e00 	ldmdbmi	r6, {r9, sl, fp, lr}^
    23e8:	58455f43 	stmdapl	r5, {r0, r1, r6, r8, r9, sl, fp, ip, lr}^
    23ec:	5f314954 	svcpl	0x00314954
    23f0:	5f515249 	svcpl	0x00515249
    23f4:	62616e45 	rsbvs	r6, r1, #1104	; 0x450
    23f8:	2820656c 	stmdacs	r0!, {r2, r3, r5, r6, r8, sl, sp, lr}
    23fc:	4349564e 	movtmi	r5, #38478	; 0x964e
    2400:	4553495f 	ldrbmi	r4, [r3, #-2399]	; 0xfffff6a1
    2404:	7c203052 	stcvc	0, cr3, [r0], #-328	; 0xfffffeb8
    2408:	3c31203d 	ldccc	0, cr2, [r1], #-244	; 0xffffff0c
    240c:	0029373c 	eoreq	r3, r9, ip, lsr r7
    2410:	4e495f5f 	mcrmi	15, 2, r5, cr9, cr15, {2}
    2414:	41465f54 	cmpmi	r6, r4, asr pc
    2418:	32335453 	eorscc	r5, r3, #1392508928	; 0x53000000
    241c:	58414d5f 	stmdapl	r1, {r0, r1, r2, r3, r4, r6, r8, sl, fp, lr}^
    2420:	30205f5f 	eorcc	r5, r0, pc, asr pc
    2424:	66663778 			; <UNDEFINED> instruction: 0x66663778
    2428:	66666666 	strbtvs	r6, [r6], -r6, ror #12
    242c:	5f5f0066 	svcpl	0x005f0066
    2430:	4d4f5441 	cfstrdmi	mvd5, [pc, #-260]	; 2334 <_Min_Stack_Size+0x1f34>
    2434:	535f4349 	cmppl	pc, #603979777	; 0x24000001
    2438:	435f5145 	cmpmi	pc, #1073741841	; 0x40000011
    243c:	35205453 	strcc	r5, [r0, #-1107]!	; 0xfffffbad
    2440:	45525f00 	ldrbmi	r5, [r2, #-3840]	; 0xfffff100
    2444:	575f4441 	ldrbpl	r4, [pc, -r1, asr #8]
    2448:	45544952 	ldrbmi	r4, [r4, #-2386]	; 0xfffff6ae
    244c:	5445525f 	strbpl	r5, [r5], #-607	; 0xfffffda1
    2450:	5f4e5255 	svcpl	0x004e5255
    2454:	45505954 	ldrbmi	r5, [r0, #-2388]	; 0xfffff6ac
    2458:	746e6920 	strbtvc	r6, [lr], #-2336	; 0xfffff6e0
    245c:	54584500 	ldrbpl	r4, [r8], #-1280	; 0xfffffb00
    2460:	50343149 	eorspl	r3, r4, r9, asr #2
    2464:	20343143 	eorscs	r3, r4, r3, asr #2
    2468:	54584528 	ldrbpl	r4, [r8], #-1320	; 0xfffffad8
    246c:	50475f49 	subpl	r5, r7, r9, asr #30
    2470:	4d5f4f49 	ldclmi	15, cr4, [pc, #-292]	; 2354 <_Min_Stack_Size+0x1f54>
    2474:	69707061 	ldmdbvs	r0!, {r0, r5, r6, ip, sp, lr}^
    2478:	745f676e 	ldrbvc	r6, [pc], #-1902	; 2480 <_Min_Stack_Size+0x2080>
    247c:	58457b29 	stmdapl	r5, {r0, r3, r5, r8, r9, fp, ip, sp, lr}^
    2480:	34314954 	ldrtcc	r4, [r1], #-2388	; 0xfffff6ac
    2484:	5047202c 	subpl	r2, r7, ip, lsr #32
    2488:	2c434f49 	mcrrcs	15, 4, r4, r3, cr9
    248c:	49504720 	ldmdbmi	r0, {r5, r8, r9, sl, lr}^
    2490:	49505f4f 	ldmdbmi	r0, {r0, r1, r2, r3, r6, r8, r9, sl, fp, ip, lr}^
    2494:	34315f4e 	ldrtcc	r5, [r1], #-3918	; 0xfffff0b2
    2498:	5845202c 	stmdapl	r5, {r2, r3, r5, sp}^
    249c:	34314954 	ldrtcc	r4, [r1], #-2388	; 0xfffff6ac
    24a0:	5152495f 	cmppl	r2, pc, asr r9
    24a4:	5f5f007d 	svcpl	0x005f007d
    24a8:	6465656e 	strbtvs	r6, [r5], #-1390	; 0xfffffa92
    24ac:	6e69775f 	mcrvs	7, 3, r7, cr9, cr15, {2}
    24b0:	00745f74 	rsbseq	r5, r4, r4, ror pc
    24b4:	79735f5f 	ldmdbvc	r3!, {r0, r1, r2, r3, r4, r6, r8, r9, sl, fp, ip, lr}^
    24b8:	65645f6d 	strbvs	r5, [r4, #-3949]!	; 0xfffff093
    24bc:	6c756166 	ldfvse	f6, [r5], #-408	; 0xfffffe68
    24c0:	79732874 	ldmdbvc	r3!, {r2, r4, r5, r6, fp, sp}^
    24c4:	6d692c6d 	stclvs	12, cr2, [r9, #-436]!	; 0xfffffe4c
    24c8:	762c6c70 			; <UNDEFINED> instruction: 0x762c6c70
    24cc:	64697265 	strbtvs	r7, [r9], #-613	; 0xfffffd9b
    24d0:	5f5f2029 	svcpl	0x005f2029
    24d4:	5f6d7361 	svcpl	0x006d7361
    24d8:	2e22285f 	mcrcs	8, 1, r2, cr2, cr15, {2}
    24dc:	766d7973 			; <UNDEFINED> instruction: 0x766d7973
    24e0:	22207265 	eorcs	r7, r0, #1342177286	; 0x50000006
    24e4:	6d692320 	stclvs	3, cr2, [r9, #-128]!	; 0xffffff80
    24e8:	22206c70 	eorcs	r6, r0, #112, 24	; 0x7000
    24ec:	2022202c 	eorcs	r2, r2, ip, lsr #32
    24f0:	6d797323 	ldclvs	3, cr7, [r9, #-140]!	; 0xffffff74
    24f4:	40402220 	submi	r2, r0, r0, lsr #4
    24f8:	76232022 	strtvc	r2, [r3], -r2, lsr #32
    24fc:	64697265 	strbtvs	r7, [r9], #-613	; 0xfffffd9b
    2500:	49540029 	ldmdbmi	r4, {r0, r3, r5}^
    2504:	425f374d 	subsmi	r3, pc, #20185088	; 0x1340000
    2508:	20455341 	subcs	r5, r5, r1, asr #6
    250c:	30347830 	eorscc	r7, r4, r0, lsr r8
    2510:	34313030 	ldrtcc	r3, [r1], #-48	; 0xffffffd0
    2514:	00753030 	rsbseq	r3, r5, r0, lsr r0
    2518:	5f544e49 	svcpl	0x00544e49
    251c:	54534146 	ldrbpl	r4, [r3], #-326	; 0xfffffeba
    2520:	414d5f38 	cmpmi	sp, r8, lsr pc
    2524:	5f282058 	svcpl	0x00282058
    2528:	544e495f 	strbpl	r4, [lr], #-2399	; 0xfffff6a1
    252c:	5341465f 	movtpl	r4, #5727	; 0x165f
    2530:	4d5f3854 	ldclmi	8, cr3, [pc, #-336]	; 23e8 <_Min_Stack_Size+0x1fe8>
    2534:	5f5f5841 	svcpl	0x005f5841
    2538:	50470029 	subpl	r0, r7, r9, lsr #32
    253c:	505f4f49 	subspl	r4, pc, r9, asr #30
    2540:	535f4e49 	cmppl	pc, #1168	; 0x490
    2544:	31205445 			; <UNDEFINED> instruction: 0x31205445
    2548:	615f5f00 	cmpvs	pc, r0, lsl #30
    254c:	636f6c6c 	cmnvs	pc, #108, 24	; 0x6c00
    2550:	7a69735f 	bvc	1a5f2d4 <_Min_Stack_Size+0x1a5eed4>
    2554:	6e283265 	cdpvs	2, 2, cr3, cr8, cr5, {3}
    2558:	2029782c 	eorcs	r7, r9, ip, lsr #16
    255c:	74615f5f 	strbtvc	r5, [r1], #-3935	; 0xfffff0a1
    2560:	62697274 	rsbvs	r7, r9, #116, 4	; 0x40000007
    2564:	5f657475 	svcpl	0x00657475
    2568:	5f28285f 	svcpl	0x0028285f
    256c:	6c6c615f 	stfvse	f6, [ip], #-380	; 0xfffffe84
    2570:	735f636f 	cmpvc	pc, #-1140850687	; 0xbc000001
    2574:	5f657a69 	svcpl	0x00657a69
    2578:	2c6e285f 	stclcs	8, cr2, [lr], #-380	; 0xfffffe84
    257c:	29297820 	stmdbcs	r9!, {r5, fp, ip, sp, lr}
    2580:	5f5f0029 	svcpl	0x005f0029
    2584:	544e4955 	strbpl	r4, [lr], #-2389	; 0xfffff6ab
    2588:	4d5f3631 	ldclmi	6, cr3, [pc, #-196]	; 24cc <_Min_Stack_Size+0x20cc>
    258c:	5f5f5841 	svcpl	0x005f5841
    2590:	66783020 	ldrbtvs	r3, [r8], -r0, lsr #32
    2594:	00666666 	rsbeq	r6, r6, r6, ror #12
    2598:	5f434352 	svcpl	0x00434352
    259c:	32495053 	subcc	r5, r9, #83	; 0x53
    25a0:	4b4c435f 	blmi	1313324 <_Min_Stack_Size+0x1312f24>
    25a4:	284e455f 	stmdacs	lr, {r0, r1, r2, r3, r4, r6, r8, sl, lr}^
    25a8:	52282029 	eorpl	r2, r8, #41	; 0x29
    25ac:	3e2d4343 	cdpcc	3, 2, cr4, cr13, cr3, {2}
    25b0:	31425041 	cmpcc	r2, r1, asr #32
    25b4:	20524e45 	subscs	r4, r2, r5, asr #28
    25b8:	28203d7c 	stmdacs	r0!, {r2, r3, r4, r5, r6, r8, sl, fp, ip, sp}
    25bc:	313c3c31 	teqcc	ip, r1, lsr ip
    25c0:	00292934 	eoreq	r2, r9, r4, lsr r9
    25c4:	51545f5f 	cmppl	r4, pc, asr pc
    25c8:	4942465f 	stmdbmi	r2, {r0, r1, r2, r3, r4, r6, r9, sl, lr}^
    25cc:	205f5f54 	subscs	r5, pc, r4, asr pc	; <UNPREDICTABLE>
    25d0:	00373231 	eorseq	r3, r7, r1, lsr r2
    25d4:	49545845 	ldmdbmi	r4, {r0, r2, r6, fp, ip, lr}^
    25d8:	6972745f 	ldmdbvs	r2!, {r0, r1, r2, r3, r4, r6, sl, ip, sp, lr}^
    25dc:	72656767 	rsbvc	r6, r5, #27000832	; 0x19c0000
    25e0:	7369725f 	cmnvc	r9, #-268435451	; 0xf0000005
    25e4:	20676e69 	rsbcs	r6, r7, r9, ror #28
    25e8:	58450030 	stmdapl	r5, {r4, r5}^
    25ec:	50314954 	eorspl	r4, r1, r4, asr r9
    25f0:	28203141 	stmdacs	r0!, {r0, r6, r8, ip, sp}
    25f4:	49545845 	ldmdbmi	r4, {r0, r2, r6, fp, ip, lr}^
    25f8:	4950475f 	ldmdbmi	r0, {r0, r1, r2, r3, r4, r6, r8, r9, sl, lr}^
    25fc:	614d5f4f 	cmpvs	sp, pc, asr #30
    2600:	6e697070 	mcrvs	0, 3, r7, cr9, cr0, {3}
    2604:	29745f67 	ldmdbcs	r4!, {r0, r1, r2, r5, r6, r8, r9, sl, fp, ip, lr}^
    2608:	5458457b 	ldrbpl	r4, [r8], #-1403	; 0xfffffa85
    260c:	202c3149 	eorcs	r3, ip, r9, asr #2
    2610:	4f495047 	svcmi	0x00495047
    2614:	47202c41 	strmi	r2, [r0, -r1, asr #24]!
    2618:	5f4f4950 	svcpl	0x004f4950
    261c:	5f4e4950 	svcpl	0x004e4950
    2620:	45202c31 	strmi	r2, [r0, #-3121]!	; 0xfffff3cf
    2624:	31495458 	cmpcc	r9, r8, asr r4
    2628:	5152495f 	cmppl	r2, pc, asr r9
    262c:	555f007d 	ldrbpl	r0, [pc, #-125]	; 25b7 <_Min_Stack_Size+0x21b7>
    2630:	36544e49 	ldrbcc	r4, [r4], -r9, asr #28
    2634:	5f545f34 	svcpl	0x00545f34
    2638:	4c434544 	cfstr64mi	mvdx4, [r3], {68}	; 0x44
    263c:	44455241 	strbmi	r5, [r5], #-577	; 0xfffffdbf
    2640:	5f5f0020 	svcpl	0x005f0020
    2644:	5f746e69 	svcpl	0x00746e69
    2648:	74736166 	ldrbtvc	r6, [r3], #-358	; 0xfffffe9a
    264c:	745f3436 	ldrbvc	r3, [pc], #-1078	; 2654 <_Min_Stack_Size+0x2254>
    2650:	6665645f 			; <UNDEFINED> instruction: 0x6665645f
    2654:	64656e69 	strbtvs	r6, [r5], #-3689	; 0xfffff197
    2658:	47003120 	strmi	r3, [r0, -r0, lsr #2]
    265c:	5f4f4950 	svcpl	0x004f4950
    2660:	45444f4d 	strbmi	r4, [r4, #-3917]	; 0xfffff0b3
    2664:	54554f5f 	ldrbpl	r4, [r5], #-3935	; 0xfffff0a1
    2668:	5f545550 	svcpl	0x00545550
    266c:	4f5f4641 	svcmi	0x005f4641
    2670:	78302044 	ldmdavc	r0!, {r2, r6, sp}
    2674:	30303030 	eorscc	r3, r0, r0, lsr r0
    2678:	37303030 			; <UNDEFINED> instruction: 0x37303030
    267c:	555f5f00 	ldrbpl	r5, [pc, #-3840]	; 1784 <_Min_Stack_Size+0x1384>
    2680:	5f534553 	svcpl	0x00534553
    2684:	54494e49 	strbpl	r4, [r9], #-3657	; 0xfffff1b7
    2688:	494e4946 	stmdbmi	lr, {r1, r2, r6, r8, fp, lr}^
    268c:	31205f5f 			; <UNDEFINED> instruction: 0x31205f5f
    2690:	49504700 	ldmdbmi	r0, {r8, r9, sl, lr}^
    2694:	2820414f 	stmdacs	r0!, {r0, r1, r2, r3, r6, r8, lr}
    2698:	49504728 	ldmdbmi	r0, {r3, r5, r8, r9, sl, lr}^
    269c:	79545f4f 	ldmdbvc	r4, {r0, r1, r2, r3, r6, r8, r9, sl, fp, ip, lr}^
    26a0:	65646570 	strbvs	r6, [r4, #-1392]!	; 0xfffffa90
    26a4:	2a745f66 	bcs	1d1a444 <_Min_Stack_Size+0x1d1a044>
    26a8:	49504729 	ldmdbmi	r0, {r0, r3, r5, r8, r9, sl, lr}^
    26ac:	425f414f 	subsmi	r4, pc, #-1073741805	; 0xc0000013
    26b0:	29455341 	stmdbcs	r5, {r0, r6, r8, r9, ip, lr}^
    26b4:	52415500 	subpl	r5, r1, #0, 10
    26b8:	52425f54 	subpl	r5, r2, #84, 30	; 0x150
    26bc:	65525f52 	ldrbvs	r5, [r2, #-3922]	; 0xfffff0ae
    26c0:	74736967 	ldrbtvc	r6, [r3], #-2407	; 0xfffff699
    26c4:	46287265 	strtmi	r7, [r8], -r5, ror #4
    26c8:	2c6b6c63 	stclcs	12, cr6, [fp], #-396	; 0xfffffe74
    26cc:	64756162 	ldrbtvs	r6, [r5], #-354	; 0xfffffe9e
    26d0:	65746172 	ldrbvs	r6, [r4, #-370]!	; 0xfffffe8e
    26d4:	20282029 	eorcs	r2, r8, r9, lsr #32
    26d8:	4e414d28 	cdpmi	13, 4, cr4, cr1, cr8, {1}
    26dc:	53534954 	cmppl	r3, #84, 18	; 0x150000
    26e0:	63462841 	movtvs	r2, #26689	; 0x6841
    26e4:	622c6b6c 	eorvs	r6, ip, #108, 22	; 0x1b000
    26e8:	72647561 	rsbvc	r7, r4, #406847488	; 0x18400000
    26ec:	29657461 	stmdbcs	r5!, {r0, r5, r6, sl, ip, sp, lr}^
    26f0:	3c3c2029 	ldccc	0, cr2, [ip], #-164	; 0xffffff5c
    26f4:	287c2934 	ldmdacs	ip!, {r2, r4, r5, r8, fp, sp}^
    26f8:	56494428 	strbpl	r4, [r9], -r8, lsr #8
    26fc:	4152465f 	cmpmi	r2, pc, asr r6
    2700:	4f495443 	svcmi	0x00495443
    2704:	6346284e 	movtvs	r2, #26702	; 0x684e
    2708:	622c6b6c 	eorvs	r6, ip, #108, 22	; 0x1b000
    270c:	72647561 	rsbvc	r7, r4, #406847488	; 0x18400000
    2710:	29657461 	stmdbcs	r5!, {r0, r5, r6, sl, ip, sp, lr}^
    2714:	20262029 	eorcs	r2, r6, r9, lsr #32
    2718:	20467830 	subcs	r7, r6, r0, lsr r8
    271c:	69540029 	ldmdbvs	r4, {r0, r3, r5}^
    2720:	2820336d 	stmdacs	r0!, {r0, r2, r3, r5, r6, r8, r9, ip, sp}
    2724:	4d495428 	cfstrdmi	mvd5, [r9, #-160]	; 0xffffff60
    2728:	5f357432 	svcpl	0x00357432
    272c:	65707954 	ldrbvs	r7, [r0, #-2388]!	; 0xfffff6ac
    2730:	5f666544 	svcpl	0x00666544
    2734:	54292a74 	strtpl	r2, [r9], #-2676	; 0xfffff58c
    2738:	5f334d49 	svcpl	0x00334d49
    273c:	45534142 	ldrbmi	r4, [r3, #-322]	; 0xfffffebe
    2740:	5f5f0029 	svcpl	0x005f0029
    2744:	455a4953 	ldrbmi	r4, [sl, #-2387]	; 0xfffff6ad
    2748:	535f464f 	cmppl	pc, #82837504	; 0x4f00000
    274c:	54524f48 	ldrbpl	r4, [r2], #-3912	; 0xfffff0b8
    2750:	32205f5f 	eorcc	r5, r0, #380	; 0x17c
    2754:	555f5f00 	ldrbpl	r5, [pc, #-3840]	; 185c <_Min_Stack_Size+0x145c>
    2758:	43414c4c 	movtmi	r4, #7244	; 0x1c4c
    275c:	5f4d5543 	svcpl	0x004d5543
    2760:	54494246 	strbpl	r4, [r9], #-582	; 0xfffffdba
    2764:	33205f5f 			; <UNDEFINED> instruction: 0x33205f5f
    2768:	58450032 	stmdapl	r5, {r1, r4, r5}^
    276c:	32314954 	eorscc	r4, r1, #84, 18	; 0x150000
    2770:	32314450 	eorscc	r4, r1, #80, 8	; 0x50000000
    2774:	58452820 	stmdapl	r5, {r5, fp, sp}^
    2778:	475f4954 			; <UNDEFINED> instruction: 0x475f4954
    277c:	5f4f4950 	svcpl	0x004f4950
    2780:	7070614d 	rsbsvc	r6, r0, sp, asr #2
    2784:	5f676e69 	svcpl	0x00676e69
    2788:	457b2974 	ldrbmi	r2, [fp, #-2420]!	; 0xfffff68c
    278c:	31495458 	cmpcc	r9, r8, asr r4
    2790:	47202c32 			; <UNDEFINED> instruction: 0x47202c32
    2794:	444f4950 	strbmi	r4, [pc], #-2384	; 279c <_Min_Stack_Size+0x239c>
    2798:	5047202c 	subpl	r2, r7, ip, lsr #32
    279c:	505f4f49 	subspl	r4, pc, r9, asr #30
    27a0:	315f4e49 	cmpcc	pc, r9, asr #28
    27a4:	45202c32 	strmi	r2, [r0, #-3122]!	; 0xfffff3ce
    27a8:	31495458 	cmpcc	r9, r8, asr r4
    27ac:	52495f32 	subpl	r5, r9, #50, 30	; 0xc8
    27b0:	5f007d51 	svcpl	0x00007d51
    27b4:	4345445f 	movtmi	r4, #21599	; 0x545f
    27b8:	54534e4f 	ldrbpl	r4, [r3], #-3663	; 0xfffff1b1
    27bc:	70797428 	rsbsvc	r7, r9, r8, lsr #8
    27c0:	61762c65 	cmnvs	r6, r5, ror #24
    27c4:	28202972 	stmdacs	r0!, {r1, r4, r5, r6, r8, fp, sp}
    27c8:	70797428 	rsbsvc	r7, r9, r8, lsr #8
    27cc:	5f282965 	svcpl	0x00282965
    27d0:	6e69755f 	mcrvs	5, 3, r7, cr9, cr15, {2}
    27d4:	72747074 	rsbsvc	r7, r4, #116	; 0x74
    27d8:	2829745f 	stmdacs	r9!, {r0, r1, r2, r3, r4, r6, sl, ip, sp, lr}
    27dc:	736e6f63 	cmnvc	lr, #396	; 0x18c
    27e0:	6f762074 	svcvs	0x00762074
    27e4:	2a206469 	bcs	81b990 <_Min_Stack_Size+0x81b590>
    27e8:	61762829 	cmnvs	r6, r9, lsr #16
    27ec:	00292972 	eoreq	r2, r9, r2, ror r9
    27f0:	5359535f 	cmppl	r9, #2080374785	; 0x7c000001
    27f4:	4145465f 	cmpmi	r5, pc, asr r6
    27f8:	45525554 	ldrbmi	r5, [r2, #-1364]	; 0xfffffaac
    27fc:	20485f53 	subcs	r5, r8, r3, asr pc
    2800:	4e495500 	cdpmi	5, 4, cr5, cr9, cr0, {0}
    2804:	454c5f54 	strbmi	r5, [ip, #-3924]	; 0xfffff0ac
    2808:	36545341 	ldrbcc	r5, [r4], -r1, asr #6
    280c:	414d5f34 	cmpmi	sp, r4, lsr pc
    2810:	5f282058 	svcpl	0x00282058
    2814:	4e49555f 	mcrmi	5, 2, r5, cr9, cr15, {2}
    2818:	454c5f54 	strbmi	r5, [ip, #-3924]	; 0xfffff0ac
    281c:	36545341 	ldrbcc	r5, [r4], -r1, asr #6
    2820:	414d5f34 	cmpmi	sp, r4, lsr pc
    2824:	295f5f58 	ldmdbcs	pc, {r3, r4, r6, r8, r9, sl, fp, ip, lr}^	; <UNPREDICTABLE>
    2828:	6e5f5f00 	cdpvs	15, 5, cr5, cr15, cr0, {0}
    282c:	6c6e696f 			; <UNDEFINED> instruction: 0x6c6e696f
    2830:	20656e69 	rsbcs	r6, r5, r9, ror #28
    2834:	74615f5f 	strbtvc	r5, [r1], #-3935	; 0xfffff0a1
    2838:	62697274 	rsbvs	r7, r9, #116, 4	; 0x40000007
    283c:	5f657475 	svcpl	0x00657475
    2840:	2828205f 	stmdacs	r8!, {r0, r1, r2, r3, r4, r6, sp}
    2844:	6f6e5f5f 	svcvs	0x006e5f5f
    2848:	696c6e69 	stmdbvs	ip!, {r0, r3, r5, r6, r9, sl, fp, sp, lr}^
    284c:	5f5f656e 	svcpl	0x005f656e
    2850:	47002929 	strmi	r2, [r0, -r9, lsr #18]
    2854:	5f4f4950 	svcpl	0x004f4950
    2858:	5f4e4950 	svcpl	0x004e4950
    285c:	28203231 	stmdacs	r0!, {r0, r4, r5, r9, ip, sp}
    2860:	6e697528 	cdpvs	5, 6, cr7, cr9, cr8, {1}
    2864:	5f363174 	svcpl	0x00363174
    2868:	30202974 	eorcc	r2, r0, r4, ror r9
    286c:	30303178 	eorscc	r3, r0, r8, ror r1
    2870:	5f002930 	svcpl	0x00002930
    2874:	4843414d 	stmdami	r3, {r0, r2, r3, r6, r8, lr}^
    2878:	4c445453 	cfstrdmi	mvd5, [r4], {83}	; 0x53
    287c:	485f4249 	ldmdami	pc, {r0, r3, r6, r9, lr}^	; <UNPREDICTABLE>
    2880:	5f00205f 	svcpl	0x0000205f
    2884:	5a49535f 	bpl	1257608 <_Min_Stack_Size+0x1257208>
    2888:	5f464f45 	svcpl	0x00464f45
    288c:	474e4f4c 	strbmi	r4, [lr, -ip, asr #30]
    2890:	554f445f 	strbpl	r4, [pc, #-1119]	; 2439 <_Min_Stack_Size+0x2039>
    2894:	5f454c42 	svcpl	0x00454c42
    2898:	0038205f 	eorseq	r2, r8, pc, asr r0
    289c:	4f495047 	svcmi	0x00495047
    28a0:	4e49505f 	mcrmi	0, 2, r5, cr9, cr15, {2}
    28a4:	2820355f 	stmdacs	r0!, {r0, r1, r2, r3, r4, r6, r8, sl, ip, sp}
    28a8:	6e697528 	cdpvs	5, 6, cr7, cr9, cr8, {1}
    28ac:	5f363174 	svcpl	0x00363174
    28b0:	30202974 	eorcc	r2, r0, r4, ror r9
    28b4:	32303078 	eorscc	r3, r0, #120	; 0x78
    28b8:	5f002930 	svcpl	0x00002930
    28bc:	4152505f 	cmpmi	r2, pc, asr r0
    28c0:	5f414d47 	svcpl	0x00414d47
    28c4:	45444552 	strbmi	r4, [r4, #-1362]	; 0xfffffaae
    28c8:	454e4946 	strbmi	r4, [lr, #-2374]	; 0xfffff6ba
    28cc:	5458455f 	ldrbpl	r4, [r8], #-1375	; 0xfffffaa1
    28d0:	454d414e 	strbmi	r4, [sp, #-334]	; 0xfffffeb2
    28d4:	5f003120 	svcpl	0x00003120
    28d8:	4843575f 	stmdami	r3, {r0, r1, r2, r3, r4, r6, r8, r9, sl, ip, lr}^
    28dc:	545f5241 	ldrbpl	r5, [pc], #-577	; 28e4 <_Min_Stack_Size+0x24e4>
    28e0:	5f455059 	svcpl	0x00455059
    28e4:	6e75205f 	mrcvs	0, 3, r2, cr5, cr15, {2}
    28e8:	6e676973 			; <UNDEFINED> instruction: 0x6e676973
    28ec:	69206465 	stmdbvs	r0!, {r0, r2, r5, r6, sl, sp, lr}
    28f0:	5f00746e 	svcpl	0x0000746e
    28f4:	4e454552 	mcrmi	5, 2, r4, cr5, cr2, {2}
    28f8:	49535f54 	ldmdbmi	r3, {r2, r4, r6, r8, r9, sl, fp, ip, lr}^
    28fc:	41474e47 	cmpmi	r7, r7, asr #28
    2900:	7470284d 	ldrbtvc	r2, [r0], #-2125	; 0xfffff7b3
    2904:	28202972 	stmdacs	r0!, {r1, r4, r5, r6, r8, fp, sp}
    2908:	72747028 	rsbsvc	r7, r4, #40	; 0x28
    290c:	5f3e2d29 	svcpl	0x003e2d29
    2910:	6d6d6167 	stfvse	f6, [sp, #-412]!	; 0xfffffe64
    2914:	69735f61 	ldmdbvs	r3!, {r0, r5, r6, r8, r9, sl, fp, ip, lr}^
    2918:	61676e67 	cmnvs	r7, r7, ror #28
    291c:	4500296d 	strmi	r2, [r0, #-2413]	; 0xfffff693
    2920:	36495458 			; <UNDEFINED> instruction: 0x36495458
    2924:	20364450 	eorscs	r4, r6, r0, asr r4
    2928:	54584528 	ldrbpl	r4, [r8], #-1320	; 0xfffffad8
    292c:	50475f49 	subpl	r5, r7, r9, asr #30
    2930:	4d5f4f49 	ldclmi	15, cr4, [pc, #-292]	; 2814 <_Min_Stack_Size+0x2414>
    2934:	69707061 	ldmdbvs	r0!, {r0, r5, r6, ip, sp, lr}^
    2938:	745f676e 	ldrbvc	r6, [pc], #-1902	; 2940 <_Min_Stack_Size+0x2540>
    293c:	58457b29 	stmdapl	r5, {r0, r3, r5, r8, r9, fp, ip, sp, lr}^
    2940:	2c364954 			; <UNDEFINED> instruction: 0x2c364954
    2944:	49504720 	ldmdbmi	r0, {r5, r8, r9, sl, lr}^
    2948:	202c444f 	eorcs	r4, ip, pc, asr #8
    294c:	4f495047 	svcmi	0x00495047
    2950:	4e49505f 	mcrmi	0, 2, r5, cr9, cr15, {2}
    2954:	202c365f 	eorcs	r3, ip, pc, asr r6
    2958:	49545845 	ldmdbmi	r4, {r0, r2, r6, fp, ip, lr}^
    295c:	52495f36 	subpl	r5, r9, #54, 30	; 0xd8
    2960:	45007d51 	strmi	r7, [r0, #-3409]	; 0xfffff2af
    2964:	38495458 	stmdacc	r9, {r3, r4, r6, sl, ip, lr}^
    2968:	20384250 	eorscs	r4, r8, r0, asr r2
    296c:	54584528 	ldrbpl	r4, [r8], #-1320	; 0xfffffad8
    2970:	50475f49 	subpl	r5, r7, r9, asr #30
    2974:	4d5f4f49 	ldclmi	15, cr4, [pc, #-292]	; 2858 <_Min_Stack_Size+0x2458>
    2978:	69707061 	ldmdbvs	r0!, {r0, r5, r6, ip, sp, lr}^
    297c:	745f676e 	ldrbvc	r6, [pc], #-1902	; 2984 <_Min_Stack_Size+0x2584>
    2980:	58457b29 	stmdapl	r5, {r0, r3, r5, r8, r9, fp, ip, sp, lr}^
    2984:	2c384954 			; <UNDEFINED> instruction: 0x2c384954
    2988:	49504720 	ldmdbmi	r0, {r5, r8, r9, sl, lr}^
    298c:	202c424f 	eorcs	r4, ip, pc, asr #4
    2990:	4f495047 	svcmi	0x00495047
    2994:	4e49505f 	mcrmi	0, 2, r5, cr9, cr15, {2}
    2998:	202c385f 	eorcs	r3, ip, pc, asr r8
    299c:	49545845 	ldmdbmi	r4, {r0, r2, r6, fp, ip, lr}^
    29a0:	52495f38 	subpl	r5, r9, #56, 30	; 0xe0
    29a4:	5f007d51 	svcpl	0x00007d51
    29a8:	4153555f 	cmpmi	r3, pc, asr r5
    29ac:	4942495f 	stmdbmi	r2, {r0, r1, r2, r3, r4, r6, r8, fp, lr}^
    29b0:	205f5f54 	subscs	r5, pc, r4, asr pc	; <UNPREDICTABLE>
    29b4:	45003631 	strmi	r3, [r0, #-1585]	; 0xfffff9cf
    29b8:	31495458 	cmpcc	r9, r8, asr r4
    29bc:	5152495f 	cmppl	r2, pc, asr r9
    29c0:	5f003720 	svcpl	0x00003720
    29c4:	4343475f 	movtmi	r4, #14175	; 0x375f
    29c8:	5641485f 			; <UNDEFINED> instruction: 0x5641485f
    29cc:	59535f45 	ldmdbpl	r3, {r0, r2, r6, r8, r9, sl, fp, ip, lr}^
    29d0:	435f434e 	cmpmi	pc, #939524097	; 0x38000001
    29d4:	41504d4f 	cmpmi	r0, pc, asr #26
    29d8:	415f4552 	cmpmi	pc, r2, asr r5	; <UNPREDICTABLE>
    29dc:	535f444e 	cmppl	pc, #1308622848	; 0x4e000000
    29e0:	5f504157 	svcpl	0x00504157
    29e4:	00312032 	eorseq	r2, r1, r2, lsr r0
    29e8:	52424841 	subpl	r4, r2, #4259840	; 0x410000
    29ec:	00525453 	subseq	r5, r2, r3, asr r4
    29f0:	656e5f5f 	strbvs	r5, [lr, #-3935]!	; 0xfffff0a1
    29f4:	775f6465 	ldrbvc	r6, [pc, -r5, ror #8]
    29f8:	72616863 	rsbvc	r6, r1, #6488064	; 0x630000
    29fc:	0020745f 	eoreq	r7, r0, pc, asr r4
    2a00:	69685f5f 	stmdbvs	r8!, {r0, r1, r2, r3, r4, r6, r8, r9, sl, fp, ip, lr}^
    2a04:	6e656464 	cdpvs	4, 6, cr6, cr5, cr4, {3}
    2a08:	615f5f20 	cmpvs	pc, r0, lsr #30
    2a0c:	69727474 	ldmdbvs	r2!, {r2, r4, r5, r6, sl, ip, sp, lr}^
    2a10:	65747562 	ldrbvs	r7, [r4, #-1378]!	; 0xfffffa9e
    2a14:	28285f5f 	stmdacs	r8!, {r0, r1, r2, r3, r4, r6, r8, r9, sl, fp, ip, lr}
    2a18:	69765f5f 	ldmdbvs	r6!, {r0, r1, r2, r3, r4, r6, r8, r9, sl, fp, ip, lr}^
    2a1c:	69626973 	stmdbvs	r2!, {r0, r1, r4, r5, r6, r8, fp, sp, lr}^
    2a20:	7974696c 	ldmdbvc	r4!, {r2, r3, r5, r6, r8, fp, sp, lr}^
    2a24:	22285f5f 	eorcs	r5, r8, #380	; 0x17c
    2a28:	64646968 	strbtvs	r6, [r4], #-2408	; 0xfffff698
    2a2c:	29226e65 	stmdbcs	r2!, {r0, r2, r5, r6, r9, sl, fp, sp, lr}
    2a30:	49002929 	stmdbmi	r0, {r0, r3, r5, r8, fp, sp}
    2a34:	4c5f544e 	cfldrdmi	mvd5, [pc], {78}	; 0x4e
    2a38:	54534145 	ldrbpl	r4, [r3], #-325	; 0xfffffebb
    2a3c:	4d5f3233 	lfmmi	f3, 2, [pc, #-204]	; 2978 <_Min_Stack_Size+0x2578>
    2a40:	28205841 	stmdacs	r0!, {r0, r6, fp, ip, lr}
    2a44:	4e495f5f 	mcrmi	15, 2, r5, cr9, cr15, {2}
    2a48:	454c5f54 	strbmi	r5, [ip, #-3924]	; 0xfffff0ac
    2a4c:	33545341 	cmpcc	r4, #67108865	; 0x4000001
    2a50:	414d5f32 	cmpmi	sp, r2, lsr pc
    2a54:	295f5f58 	ldmdbcs	pc, {r3, r4, r6, r8, r9, sl, fp, ip, lr}^	; <UNPREDICTABLE>
    2a58:	535f5f00 	cmppl	pc, #0, 30
    2a5c:	43415246 	movtmi	r5, #4678	; 0x1246
    2a60:	414d5f54 	cmpmi	sp, r4, asr pc
    2a64:	205f5f58 	subscs	r5, pc, r8, asr pc	; <UNPREDICTABLE>
    2a68:	46375830 			; <UNDEFINED> instruction: 0x46375830
    2a6c:	48372d50 	ldmdami	r7!, {r4, r6, r8, sl, fp, sp}
    2a70:	5f5f0052 	svcpl	0x005f0052
    2a74:	544e4955 	strbpl	r4, [lr], #-2389	; 0xfffff6ab
    2a78:	5341465f 	movtpl	r4, #5727	; 0x165f
    2a7c:	5f343654 	svcpl	0x00343654
    2a80:	45505954 	ldrbmi	r5, [r0, #-2388]	; 0xfffff6ac
    2a84:	6c205f5f 	stcvs	15, cr5, [r0], #-380	; 0xfffffe84
    2a88:	20676e6f 	rsbcs	r6, r7, pc, ror #28
    2a8c:	676e6f6c 	strbvs	r6, [lr, -ip, ror #30]!
    2a90:	736e7520 	cmnvc	lr, #32, 10	; 0x8000000
    2a94:	656e6769 	strbvs	r6, [lr, #-1897]!	; 0xfffff897
    2a98:	6e692064 	cdpvs	0, 6, cr2, cr9, cr4, {3}
    2a9c:	61540074 	cmpvs	r4, r4, ror r0
    2aa0:	00416b73 	subeq	r6, r1, r3, ror fp
    2aa4:	6b736154 	blvs	1cdaffc <_Min_Stack_Size+0x1cdabfc>
    2aa8:	535f0042 	cmppl	pc, #66	; 0x42
    2aac:	50534d5f 	subspl	r4, r3, pc, asr sp
    2ab0:	49575f00 	ldmdbmi	r7, {r8, r9, sl, fp, ip, lr}^
    2ab4:	545f544e 	ldrbpl	r5, [pc], #-1102	; 2abc <_Min_Stack_Size+0x26bc>
    2ab8:	4e490020 	cdpmi	0, 4, cr0, cr9, cr0, {1}
    2abc:	454c5f54 	strbmi	r5, [ip, #-3924]	; 0xfffff0ac
    2ac0:	38545341 	ldmdacc	r4, {r0, r6, r8, r9, ip, lr}^
    2ac4:	58414d5f 	stmdapl	r1, {r0, r1, r2, r3, r4, r6, r8, sl, fp, lr}^
    2ac8:	5f5f2820 	svcpl	0x005f2820
    2acc:	5f544e49 	svcpl	0x00544e49
    2ad0:	5341454c 	movtpl	r4, #5452	; 0x154c
    2ad4:	4d5f3854 	ldclmi	8, cr3, [pc, #-336]	; 298c <_Min_Stack_Size+0x258c>
    2ad8:	5f5f5841 	svcpl	0x005f5841
    2adc:	564e0029 	strbpl	r0, [lr], -r9, lsr #32
    2ae0:	455f4349 	ldrbmi	r4, [pc, #-841]	; 279f <_Min_Stack_Size+0x239f>
    2ae4:	30495458 	subcc	r5, r9, r8, asr r4
    2ae8:	5152495f 	cmppl	r2, pc, asr r9
    2aec:	7369445f 	cmnvc	r9, #1593835520	; 0x5f000000
    2af0:	656c6261 	strbvs	r6, [ip, #-609]!	; 0xfffffd9f
    2af4:	564e2820 	strbpl	r2, [lr], -r0, lsr #16
    2af8:	495f4349 	ldmdbmi	pc, {r0, r3, r6, r8, r9, lr}^	; <UNPREDICTABLE>
    2afc:	30524543 	subscc	r4, r2, r3, asr #10
    2b00:	203d7c20 	eorscs	r7, sp, r0, lsr #24
    2b04:	363c3c31 			; <UNDEFINED> instruction: 0x363c3c31
    2b08:	5f5f0029 	svcpl	0x005f0029
    2b0c:	5f544c46 	svcpl	0x00544c46
    2b10:	5f4e494d 	svcpl	0x004e494d
    2b14:	2e31205f 	mrccs	0, 1, r2, cr1, cr15, {2}
    2b18:	34353731 	ldrtcc	r3, [r5], #-1841	; 0xfffff8cf
    2b1c:	35333439 	ldrcc	r3, [r3, #-1081]!	; 0xfffffbc7
    2b20:	32323830 	eorscc	r3, r2, #48, 16	; 0x300000
    2b24:	35373832 	ldrcc	r3, [r7, #-2098]!	; 0xfffff7ce
    2b28:	38332d65 	ldmdacc	r3!, {r0, r2, r5, r6, r8, sl, fp, sp}
    2b2c:	5f5f0046 	svcpl	0x005f0046
    2b30:	6465656e 	strbtvs	r6, [r5], #-1390	; 0xfffffa92
    2b34:	7a69735f 	bvc	1a5f8b8 <_Min_Stack_Size+0x1a5f4b8>
    2b38:	20745f65 	rsbscs	r5, r4, r5, ror #30
    2b3c:	485f5f00 	ldmdami	pc, {r8, r9, sl, fp, ip, lr}^	; <UNPREDICTABLE>
    2b40:	42465f41 	submi	r5, r6, #260	; 0x104
    2b44:	5f5f5449 	svcpl	0x005f5449
    2b48:	5f003720 	svcpl	0x00003720
    2b4c:	5044465f 	subpl	r4, r4, pc, asr r6
    2b50:	5f5f4349 	svcpl	0x005f4349
    2b54:	555f5f00 	ldrbpl	r5, [pc, #-3840]	; 1c5c <_Min_Stack_Size+0x185c>
    2b58:	43415246 	movtmi	r5, #4678	; 0x1246
    2b5c:	494d5f54 	stmdbmi	sp, {r2, r4, r6, r8, r9, sl, fp, ip, lr}^
    2b60:	205f5f4e 	subscs	r5, pc, lr, asr #30
    2b64:	55302e30 	ldrpl	r2, [r0, #-3632]!	; 0xfffff1d0
    2b68:	5f5f0052 	svcpl	0x005f0052
    2b6c:	5f434347 	svcpl	0x00434347
    2b70:	4d4f5441 	cfstrdmi	mvd5, [pc, #-260]	; 2a74 <_Min_Stack_Size+0x2674>
    2b74:	4c5f4349 	mrrcmi	3, 4, r4, pc, cr9	; <UNPREDICTABLE>
    2b78:	474e4f4c 	strbmi	r4, [lr, -ip, asr #30]
    2b7c:	434f4c5f 	movtmi	r4, #64607	; 0xfc5f
    2b80:	52465f4b 	subpl	r5, r6, #300	; 0x12c
    2b84:	31204545 			; <UNDEFINED> instruction: 0x31204545
    2b88:	47495300 	strbmi	r5, [r9, -r0, lsl #6]
    2b8c:	4f54415f 	svcmi	0x0054415f
    2b90:	5f43494d 	svcpl	0x0043494d
    2b94:	2058414d 	subscs	r4, r8, sp, asr #2
    2b98:	535f5f28 	cmppl	pc, #40, 30	; 0xa0
    2b9c:	4e494454 	mcrmi	4, 2, r4, cr9, cr4, {2}
    2ba0:	58455f54 	stmdapl	r5, {r2, r4, r6, r8, r9, sl, fp, ip, lr}^
    2ba4:	4e492850 	mcrmi	8, 2, r2, cr9, cr0, {2}
    2ba8:	414d5f54 	cmpmi	sp, r4, asr pc
    2bac:	00292958 	eoreq	r2, r9, r8, asr r9
    2bb0:	6f635f5f 	svcvs	0x00635f5f
    2bb4:	6961746e 	stmdbvs	r1!, {r1, r2, r3, r5, r6, sl, ip, sp, lr}^
    2bb8:	6f72656e 	svcvs	0x0072656e
    2bbc:	2c782866 	ldclcs	8, cr2, [r8], #-408	; 0xfffffe68
    2bc0:	296d2c73 	stmdbcs	sp!, {r0, r1, r4, r5, r6, sl, fp, sp}^
    2bc4:	207b2820 	rsbscs	r2, fp, r0, lsr #16
    2bc8:	736e6f63 	cmnvc	lr, #396	; 0x18c
    2bcc:	6f762074 	svcvs	0x00762074
    2bd0:	6974616c 	ldmdbvs	r4!, {r2, r3, r5, r6, r8, sp, lr}^
    2bd4:	5f20656c 	svcpl	0x0020656c
    2bd8:	7079745f 	rsbsvc	r7, r9, pc, asr r4
    2bdc:	28666f65 	stmdacs	r6!, {r0, r2, r5, r6, r8, r9, sl, fp, sp, lr}^
    2be0:	20732828 	rsbscs	r2, r3, r8, lsr #16
    2be4:	2930292a 	ldmdbcs	r0!, {r1, r3, r5, r8, fp, sp}
    2be8:	296d3e2d 	stmdbcs	sp!, {r0, r2, r3, r5, r9, sl, fp, ip, sp}^
    2bec:	5f5f2a20 	svcpl	0x005f2a20
    2bf0:	203d2078 	eorscs	r2, sp, r8, ror r0
    2bf4:	3b297828 	blcc	a60c9c <_Min_Stack_Size+0xa6089c>
    2bf8:	445f5f20 	ldrbmi	r5, [pc], #-3872	; 2c00 <_Min_Stack_Size+0x2800>
    2bfc:	41555145 	cmpmi	r5, r5, asr #2
    2c00:	5946494c 	stmdbpl	r6, {r2, r3, r6, r8, fp, lr}^
    2c04:	2a207328 	bcs	81f8ac <_Min_Stack_Size+0x81f4ac>
    2c08:	6328202c 			; <UNDEFINED> instruction: 0x6328202c
    2c0c:	74736e6f 	ldrbtvc	r6, [r3], #-3695	; 0xfffff191
    2c10:	6c6f7620 	stclvs	6, cr7, [pc], #-128	; 2b98 <_Min_Stack_Size+0x2798>
    2c14:	6c697461 	cfstrdvs	mvd7, [r9], #-388	; 0xfffffe7c
    2c18:	68632065 	stmdavs	r3!, {r0, r2, r5, r6, sp}^
    2c1c:	2a207261 	bcs	81f5a8 <_Min_Stack_Size+0x81f1a8>
    2c20:	785f5f29 	ldmdavc	pc, {r0, r3, r5, r8, r9, sl, fp, ip, lr}^	; <UNPREDICTABLE>
    2c24:	5f202d20 	svcpl	0x00202d20
    2c28:	66666f5f 	uqsaxvs	r6, r6, pc	; <UNPREDICTABLE>
    2c2c:	6f746573 	svcvs	0x00746573
    2c30:	2c732866 	ldclcs	8, cr2, [r3], #-408	; 0xfffffe68
    2c34:	29296d20 	stmdbcs	r9!, {r5, r8, sl, fp, sp, lr}
    2c38:	00297d3b 	eoreq	r7, r9, fp, lsr sp
    2c3c:	665f7748 	ldrbvs	r7, [pc], -r8, asr #14
    2c40:	43776f6c 	cmnmi	r7, #108, 30	; 0x1b0
    2c44:	5f6c7274 	svcpl	0x006c7274
    2c48:	5f535443 	svcpl	0x00535443
    2c4c:	20535452 	subscs	r5, r3, r2, asr r4
    2c50:	6e697528 	cdpvs	5, 6, cr7, cr9, cr8, {1}
    2c54:	5f323374 	svcpl	0x00323374
    2c58:	31282974 			; <UNDEFINED> instruction: 0x31282974
    2c5c:	20393c3c 	eorscs	r3, r9, ip, lsr ip
    2c60:	3c3c317c 	ldfccs	f3, [ip], #-496	; 0xfffffe10
    2c64:	55002938 	strpl	r2, [r0, #-2360]	; 0xfffff6c8
    2c68:	36544e49 	ldrbcc	r4, [r4], -r9, asr #28
    2c6c:	414d5f34 	cmpmi	sp, r4, lsr pc
    2c70:	5f282058 	svcpl	0x00282058
    2c74:	4e49555f 	mcrmi	5, 2, r5, cr9, cr15, {2}
    2c78:	5f343654 	svcpl	0x00343654
    2c7c:	5f58414d 	svcpl	0x0058414d
    2c80:	5300295f 	movwpl	r2, #2399	; 0x95f
    2c84:	5f324950 	svcpl	0x00324950
    2c88:	20515249 	subscs	r5, r1, r9, asr #4
    2c8c:	47003633 	smladxmi	r0, r3, r6, r3
    2c90:	4320554e 			; <UNDEFINED> instruction: 0x4320554e
    2c94:	31203131 			; <UNDEFINED> instruction: 0x31203131
    2c98:	2e332e30 	mrccs	14, 1, r2, cr3, cr0, {1}
    2c9c:	30322031 	eorscc	r2, r2, r1, lsr r0
    2ca0:	38303132 	ldmdacc	r0!, {r1, r4, r5, r8, ip, sp}
    2ca4:	28203432 	stmdacs	r0!, {r1, r4, r5, sl, ip, sp}
    2ca8:	656c6572 	strbvs	r6, [ip, #-1394]!	; 0xfffffa8e
    2cac:	29657361 	stmdbcs	r5!, {r0, r5, r6, r8, r9, ip, sp, lr}^
    2cb0:	636d2d20 	cmnvs	sp, #32, 26	; 0x800
    2cb4:	633d7570 	teqvs	sp, #112, 10	; 0x1c000000
    2cb8:	6574726f 	ldrbvs	r7, [r4, #-623]!	; 0xfffffd91
    2cbc:	336d2d78 	cmncc	sp, #120, 26	; 0x1e00
    2cc0:	666d2d20 	strbtvs	r2, [sp], -r0, lsr #26
    2cc4:	74616f6c 	strbtvc	r6, [r1], #-3948	; 0xfffff094
    2cc8:	6962612d 	stmdbvs	r2!, {r0, r2, r3, r5, r8, sp, lr}^
    2ccc:	666f733d 			; <UNDEFINED> instruction: 0x666f733d
    2cd0:	6d2d2074 	stcvs	0, cr2, [sp, #-464]!	; 0xfffffe30
    2cd4:	6d756874 	ldclvs	8, cr6, [r5, #-464]!	; 0xfffffe30
    2cd8:	6d2d2062 	stcvs	0, cr2, [sp, #-392]!	; 0xfffffe78
    2cdc:	68637261 	stmdavs	r3!, {r0, r5, r6, r9, ip, sp, lr}^
    2ce0:	6d72613d 	ldfvse	f6, [r2, #-244]!	; 0xffffff0c
    2ce4:	6d2d3776 	stcvs	7, cr3, [sp, #-472]!	; 0xfffffe28
    2ce8:	64672d20 	strbtvs	r2, [r7], #-3360	; 0xfffff2e0
    2cec:	66726177 			; <UNDEFINED> instruction: 0x66726177
    2cf0:	2d20322d 	sfmcs	f3, 4, [r0, #-180]!	; 0xffffff4c
    2cf4:	2d203367 	stccs	3, cr3, [r0, #-412]!	; 0xfffffe64
    2cf8:	2d20304f 	stccs	0, cr3, [r0, #-316]!	; 0xfffffec4
    2cfc:	3d647473 	cfstrdcc	mvd7, [r4, #-460]!	; 0xfffffe34
    2d00:	31756e67 	cmncc	r5, r7, ror #28
    2d04:	662d2031 			; <UNDEFINED> instruction: 0x662d2031
    2d08:	636e7566 	cmnvs	lr, #427819008	; 0x19800000
    2d0c:	6e6f6974 			; <UNDEFINED> instruction: 0x6e6f6974
    2d10:	6365732d 	cmnvs	r5, #-1275068416	; 0xb4000000
    2d14:	6e6f6974 			; <UNDEFINED> instruction: 0x6e6f6974
    2d18:	662d2073 			; <UNDEFINED> instruction: 0x662d2073
    2d1c:	61746164 	cmnvs	r4, r4, ror #2
    2d20:	6365732d 	cmnvs	r5, #-1275068416	; 0xb4000000
    2d24:	6e6f6974 			; <UNDEFINED> instruction: 0x6e6f6974
    2d28:	662d2073 			; <UNDEFINED> instruction: 0x662d2073
    2d2c:	63617473 	cmnvs	r1, #1929379840	; 0x73000000
    2d30:	73752d6b 	cmnvc	r5, #6848	; 0x1ac0
    2d34:	20656761 	rsbcs	r6, r5, r1, ror #14
    2d38:	7963662d 	stmdbvc	r3!, {r0, r2, r3, r5, r9, sl, sp, lr}^
    2d3c:	6d6f6c63 	stclvs	12, cr6, [pc, #-396]!	; 2bb8 <_Min_Stack_Size+0x27b8>
    2d40:	63697461 	cmnvs	r9, #1627389952	; 0x61000000
    2d44:	6d6f632d 	stclvs	3, cr6, [pc, #-180]!	; 2c98 <_Min_Stack_Size+0x2898>
    2d48:	78656c70 	stmdavc	r5!, {r4, r5, r6, sl, fp, sp, lr}^
    2d4c:	00797469 	rsbseq	r7, r9, r9, ror #8
    2d50:	49545845 	ldmdbmi	r4, {r0, r2, r6, fp, ip, lr}^
    2d54:	495f3331 	ldmdbmi	pc, {r0, r4, r5, r8, r9, ip, sp}^	; <UNPREDICTABLE>
    2d58:	34205152 	strtcc	r5, [r0], #-338	; 0xfffffeae
    2d5c:	5f5f0030 	svcpl	0x005f0030
    2d60:	52465355 	subpl	r5, r6, #1409286145	; 0x54000001
    2d64:	5f544341 	svcpl	0x00544341
    2d68:	54494249 	strbpl	r4, [r9], #-585	; 0xfffffdb7
    2d6c:	30205f5f 	eorcc	r5, r0, pc, asr pc
    2d70:	495f5f00 	ldmdbmi	pc, {r8, r9, sl, fp, ip, lr}^	; <UNPREDICTABLE>
    2d74:	3233544e 	eorscc	r5, r3, #1308622848	; 0x4e000000
    2d78:	6328435f 			; <UNDEFINED> instruction: 0x6328435f
    2d7c:	20632029 	rsbcs	r2, r3, r9, lsr #32
    2d80:	4c202323 	stcmi	3, cr2, [r0], #-140	; 0xffffff74
    2d84:	755f5f00 	ldrbvc	r5, [pc, #-3840]	; 1e8c <_Min_Stack_Size+0x1a8c>
    2d88:	31746e69 	cmncc	r4, r9, ror #28
    2d8c:	00745f36 	rsbseq	r5, r4, r6, lsr pc
    2d90:	4545525f 	strbmi	r5, [r5, #-607]	; 0xfffffda1
    2d94:	535f544e 	cmppl	pc, #1308622848	; 0x4e000000
    2d98:	414e4749 	cmpmi	lr, r9, asr #14
    2d9c:	55425f4c 	strbpl	r5, [r2, #-3916]	; 0xfffff0b4
    2da0:	74702846 	ldrbtvc	r2, [r0], #-2118	; 0xfffff7ba
    2da4:	28202972 	stmdacs	r0!, {r1, r4, r5, r6, r8, fp, sp}
    2da8:	72747028 	rsbsvc	r7, r4, #40	; 0x28
    2dac:	5f3e2d29 	svcpl	0x003e2d29
    2db0:	6e676973 			; <UNDEFINED> instruction: 0x6e676973
    2db4:	625f6c61 	subsvs	r6, pc, #24832	; 0x6100
    2db8:	00296675 	eoreq	r6, r9, r5, ror r6
    2dbc:	4349564e 	movtmi	r5, #38478	; 0x964e
    2dc0:	4543495f 	strbmi	r4, [r3, #-2399]	; 0xfffff6a1
    2dc4:	2a203052 	bcs	80ef14 <_Min_Stack_Size+0x80eb14>
    2dc8:	6c6f7628 	stclvs	6, cr7, [pc], #-160	; 2d30 <_Min_Stack_Size+0x2930>
    2dcc:	6c697461 	cfstrdvs	mvd7, [r9], #-388	; 0xfffffe7c
    2dd0:	69752065 	ldmdbvs	r5!, {r0, r2, r5, r6, sp}^
    2dd4:	3233746e 	eorscc	r7, r3, #1845493760	; 0x6e000000
    2dd8:	202a745f 	eorcs	r7, sl, pc, asr r4
    2ddc:	564e2829 	strbpl	r2, [lr], -r9, lsr #16
    2de0:	425f4349 	subsmi	r4, pc, #603979777	; 0x24000001
    2de4:	20657361 	rsbcs	r7, r5, r1, ror #6
    2de8:	3078302b 	rsbscc	r3, r8, fp, lsr #32
    2dec:	00293038 	eoreq	r3, r9, r8, lsr r0
    2df0:	53555f5f 	cmppl	r5, #380	; 0x17c
    2df4:	43415246 	movtmi	r5, #4678	; 0x1246
    2df8:	494d5f54 	stmdbmi	sp, {r2, r4, r6, r8, r9, sl, fp, ip, lr}^
    2dfc:	205f5f4e 	subscs	r5, pc, lr, asr #30
    2e00:	55302e30 	ldrpl	r2, [r0, #-3632]!	; 0xfffff1d0
    2e04:	5f005248 	svcpl	0x00005248
    2e08:	6573755f 	ldrbvs	r7, [r3, #-1375]!	; 0xfffffaa1
    2e0c:	5f5f2064 	svcpl	0x005f2064
    2e10:	72747461 	rsbsvc	r7, r4, #1627389952	; 0x61000000
    2e14:	74756269 	ldrbtvc	r6, [r5], #-617	; 0xfffffd97
    2e18:	285f5f65 	ldmdacs	pc, {r0, r2, r5, r6, r8, r9, sl, fp, ip, lr}^	; <UNPREDICTABLE>
    2e1c:	755f5f28 	ldrbvc	r5, [pc, #-3880]	; 1efc <_Min_Stack_Size+0x1afc>
    2e20:	5f646573 	svcpl	0x00646573
    2e24:	0029295f 	eoreq	r2, r9, pc, asr r9
    2e28:	65675f5f 	strbvs	r5, [r7, #-3935]!	; 0xfffff0a1
    2e2c:	6972656e 	ldmdbvs	r2!, {r1, r2, r3, r5, r6, r8, sl, sp, lr}^
    2e30:	78652863 	stmdavc	r5!, {r0, r1, r5, r6, fp, sp}^
    2e34:	742c7270 	strtvc	r7, [ip], #-624	; 0xfffffd90
    2e38:	7365792c 	cmnvc	r5, #44, 18	; 0xb0000
    2e3c:	296f6e2c 	stmdbcs	pc!, {r2, r3, r5, r9, sl, fp, sp, lr}^	; <UNPREDICTABLE>
    2e40:	65475f20 	strbvs	r5, [r7, #-3872]	; 0xfffff0e0
    2e44:	6972656e 	ldmdbvs	r2!, {r1, r2, r3, r5, r6, r8, sl, sp, lr}^
    2e48:	78652863 	stmdavc	r5!, {r0, r1, r5, r6, fp, sp}^
    2e4c:	202c7270 	eorcs	r7, ip, r0, ror r2
    2e50:	79203a74 	stmdbvc	r0!, {r2, r4, r5, r6, r9, fp, ip, sp}
    2e54:	202c7365 	eorcs	r7, ip, r5, ror #6
    2e58:	61666564 	cmnvs	r6, r4, ror #10
    2e5c:	3a746c75 	bcc	1d1e038 <_Min_Stack_Size+0x1d1dc38>
    2e60:	296f6e20 	stmdbcs	pc!, {r5, r9, sl, fp, sp, lr}^	; <UNPREDICTABLE>
    2e64:	415f5f00 	cmpmi	pc, r0, lsl #30
    2e68:	4e5f4d52 	mrcmi	13, 2, r4, cr15, cr2, {2}
    2e6c:	004e4f45 	subeq	r4, lr, r5, asr #30
    2e70:	4545525f 	strbmi	r5, [r5, #-607]	; 0xfffffda1
    2e74:	455f544e 	ldrbmi	r5, [pc, #-1102]	; 2a2e <_Min_Stack_Size+0x262e>
    2e78:	4752454d 	ldrbmi	r4, [r2, -sp, asr #10]
    2e7c:	59434e45 	stmdbpl	r3, {r0, r2, r6, r9, sl, fp, lr}^
    2e80:	72747028 	rsbsvc	r7, r4, #40	; 0x28
    2e84:	28282029 	stmdacs	r8!, {r0, r3, r5, sp}
    2e88:	29727470 	ldmdbcs	r2!, {r4, r5, r6, sl, ip, sp, lr}^
    2e8c:	655f3e2d 	ldrbvs	r3, [pc, #-3629]	; 2067 <_Min_Stack_Size+0x1c67>
    2e90:	6772656d 	ldrbvs	r6, [r2, -sp, ror #10]!
    2e94:	79636e65 	stmdbvc	r3!, {r0, r2, r5, r6, r9, sl, fp, sp, lr}^
    2e98:	5f5f0029 	svcpl	0x005f0029
    2e9c:	43554e47 	cmpmi	r5, #1136	; 0x470
    2ea0:	454b494c 	strbmi	r4, [fp, #-2380]	; 0xfffff6b4
    2ea4:	4f54435f 	svcmi	0x0054435f
    2ea8:	45535f52 	ldrbmi	r5, [r3, #-3922]	; 0xfffff0ae
    2eac:	4f495443 	svcmi	0x00495443
    2eb0:	41485f4e 	cmpmi	r8, lr, asr #30
    2eb4:	494c444e 	stmdbmi	ip, {r1, r2, r3, r6, sl, lr}^
    2eb8:	3120474e 			; <UNDEFINED> instruction: 0x3120474e
    2ebc:	555f5f00 	ldrbpl	r5, [pc, #-3840]	; 1fc4 <_Min_Stack_Size+0x1bc4>
    2ec0:	38544e49 	ldmdacc	r4, {r0, r3, r6, r9, sl, fp, lr}^
    2ec4:	58414d5f 	stmdapl	r1, {r0, r1, r2, r3, r4, r6, r8, sl, fp, lr}^
    2ec8:	30205f5f 	eorcc	r5, r0, pc, asr pc
    2ecc:	00666678 	rsbeq	r6, r6, r8, ror r6
    2ed0:	6f6c5f5f 	svcvs	0x006c5f5f
    2ed4:	615f6b63 	cmpvs	pc, r3, ror #22
    2ed8:	69757163 	ldmdbvs	r5!, {r0, r1, r5, r6, r8, ip, sp, lr}^
    2edc:	725f6572 	subsvc	r6, pc, #478150656	; 0x1c800000
    2ee0:	72756365 	rsbsvc	r6, r5, #-1811939327	; 0x94000001
    2ee4:	65766973 	ldrbvs	r6, [r6, #-2419]!	; 0xfffff68d
    2ee8:	636f6c28 	cmnvs	pc, #40, 24	; 0x2800
    2eec:	5f20296b 	svcpl	0x0020296b
    2ef0:	7465725f 	strbtvc	r7, [r5], #-607	; 0xfffffda1
    2ef4:	65677261 	strbvs	r7, [r7, #-609]!	; 0xfffffd9f
    2ef8:	6f6c5f74 	svcvs	0x006c5f74
    2efc:	615f6b63 	cmpvs	pc, r3, ror #22
    2f00:	69757163 	ldmdbvs	r5!, {r0, r1, r5, r6, r8, ip, sp, lr}^
    2f04:	725f6572 	subsvc	r6, pc, #478150656	; 0x1c800000
    2f08:	72756365 	rsbsvc	r6, r5, #-1811939327	; 0x94000001
    2f0c:	65766973 	ldrbvs	r6, [r6, #-2419]!	; 0xfffff68d
    2f10:	636f6c28 	cmnvs	pc, #40, 24	; 0x2800
    2f14:	5f00296b 	svcpl	0x0000296b
    2f18:	4e454552 	mcrmi	5, 2, r4, cr5, cr2, {2}
    2f1c:	695f2054 	ldmdbvs	pc, {r2, r4, r6, sp}^	; <UNPREDICTABLE>
    2f20:	7275706d 	rsbsvc	r7, r5, #109	; 0x6d
    2f24:	74705f65 	ldrbtvc	r5, [r0], #-3941	; 0xfffff09b
    2f28:	5f5f0072 	svcpl	0x005f0072
    2f2c:	4c42444c 	cfstrdmi	mvd4, [r2], {76}	; 0x4c
    2f30:	58414d5f 	stmdapl	r1, {r0, r1, r2, r3, r4, r6, r8, sl, fp, lr}^
    2f34:	5058455f 	subspl	r4, r8, pc, asr r5
    2f38:	31205f5f 			; <UNDEFINED> instruction: 0x31205f5f
    2f3c:	00343230 	eorseq	r3, r4, r0, lsr r2
    2f40:	49545845 	ldmdbmi	r4, {r0, r2, r6, fp, ip, lr}^
    2f44:	6e69505f 	mcrvs	0, 3, r5, cr9, cr15, {2}
    2f48:	666e6f43 	strbtvs	r6, [lr], -r3, asr #30
    2f4c:	745f6769 	ldrbvc	r6, [pc], #-1897	; 2f54 <_Min_Stack_Size+0x2b54>
    2f50:	54584500 	ldrbpl	r4, [r8], #-1280	; 0xfffffb00
    2f54:	495f3249 	ldmdbmi	pc, {r0, r3, r6, r9, ip, sp}^	; <UNPREDICTABLE>
    2f58:	38205152 	stmdacc	r0!, {r1, r4, r6, r8, ip, lr}
    2f5c:	655f5f00 	ldrbvs	r5, [pc, #-3840]	; 2064 <_Min_Stack_Size+0x1c64>
    2f60:	726f7078 	rsbvc	r7, pc, #120	; 0x78
    2f64:	20646574 	rsbcs	r6, r4, r4, ror r5
    2f68:	74615f5f 	strbtvc	r5, [r1], #-3935	; 0xfffff0a1
    2f6c:	62697274 	rsbvs	r7, r9, #116, 4	; 0x40000007
    2f70:	5f657475 	svcpl	0x00657475
    2f74:	5f28285f 	svcpl	0x0028285f
    2f78:	7369765f 	cmnvc	r9, #99614720	; 0x5f00000
    2f7c:	6c696269 	sfmvs	f6, 2, [r9], #-420	; 0xfffffe5c
    2f80:	5f797469 	svcpl	0x00797469
    2f84:	6422285f 	strtvs	r2, [r2], #-2143	; 0xfffff7a1
    2f88:	75616665 	strbvc	r6, [r1, #-1637]!	; 0xfffff99b
    2f8c:	2922746c 	stmdbcs	r2!, {r2, r3, r5, r6, sl, ip, sp, lr}
    2f90:	5f002929 	svcpl	0x00002929
    2f94:	4343535f 	movtmi	r5, #13151	; 0x335f
    2f98:	28444953 	stmdacs	r4, {r0, r1, r4, r6, r8, fp, lr}^
    2f9c:	73202973 			; <UNDEFINED> instruction: 0x73202973
    2fa0:	63757274 	cmnvs	r5, #116, 4	; 0x40000007
    2fa4:	5f5f2074 	svcpl	0x005f2074
    2fa8:	6b636168 	blvs	18db550 <_Min_Stack_Size+0x18db150>
    2fac:	445f5f00 	ldrbmi	r5, [pc], #-3840	; 2fb4 <_Min_Stack_Size+0x2bb4>
    2fb0:	485f4c42 	ldmdami	pc, {r1, r6, sl, fp, lr}^	; <UNPREDICTABLE>
    2fb4:	445f5341 	ldrbmi	r5, [pc], #-833	; 2fbc <_Min_Stack_Size+0x2bbc>
    2fb8:	524f4e45 	subpl	r4, pc, #1104	; 0x450
    2fbc:	205f5f4d 	subscs	r5, pc, sp, asr #30
    2fc0:	5f5f0031 	svcpl	0x005f0031
    2fc4:	6b636f6c 	blvs	18ded7c <_Min_Stack_Size+0x18de97c>
    2fc8:	7972745f 	ldmdbvc	r2!, {r0, r1, r2, r3, r4, r6, sl, ip, sp, lr}^
    2fcc:	7163615f 	cmnvc	r3, pc, asr r1
    2fd0:	65726975 	ldrbvs	r6, [r2, #-2421]!	; 0xfffff68b
    2fd4:	6365725f 	cmnvs	r5, #-268435451	; 0xf0000005
    2fd8:	69737275 	ldmdbvs	r3!, {r0, r2, r4, r5, r6, r9, ip, sp, lr}^
    2fdc:	6c286576 	cfstr32vs	mvfx6, [r8], #-472	; 0xfffffe28
    2fe0:	296b636f 	stmdbcs	fp!, {r0, r1, r2, r3, r5, r6, r8, r9, sp, lr}^
    2fe4:	725f5f20 	subsvc	r5, pc, #32, 30	; 0x80
    2fe8:	72617465 	rsbvc	r7, r1, #1694498816	; 0x65000000
    2fec:	5f746567 	svcpl	0x00746567
    2ff0:	6b636f6c 	blvs	18deda8 <_Min_Stack_Size+0x18de9a8>
    2ff4:	7972745f 	ldmdbvc	r2!, {r0, r1, r2, r3, r4, r6, sl, ip, sp, lr}^
    2ff8:	7163615f 	cmnvc	r3, pc, asr r1
    2ffc:	65726975 	ldrbvs	r6, [r2, #-2421]!	; 0xfffff68b
    3000:	6365725f 	cmnvs	r5, #-268435451	; 0xf0000005
    3004:	69737275 	ldmdbvs	r3!, {r0, r2, r4, r5, r6, r9, ip, sp, lr}^
    3008:	6c286576 	cfstr32vs	mvfx6, [r8], #-472	; 0xfffffe28
    300c:	296b636f 	stmdbcs	fp!, {r0, r1, r2, r3, r5, r6, r8, r9, sp, lr}^
    3010:	75614200 	strbvc	r4, [r1, #-512]!	; 0xfffffe00
    3014:	74615264 	strbtvc	r5, [r1], #-612	; 0xfffffd9c
    3018:	39315f65 	ldmdbcc	r1!, {r0, r2, r5, r6, r8, r9, sl, fp, ip, lr}
    301c:	20303032 	eorscs	r3, r0, r2, lsr r0
    3020:	30323931 	eorscc	r3, r2, r1, lsr r9
    3024:	5f5f0030 	svcpl	0x005f0030
    3028:	535f4343 	cmppl	pc, #201326593	; 0xc000001
    302c:	4f505055 	svcmi	0x00505055
    3030:	5f535452 	svcpl	0x00535452
    3034:	4e495f5f 	mcrmi	15, 2, r5, cr9, cr15, {2}
    3038:	454e494c 	strbmi	r4, [lr, #-2380]	; 0xfffff6b4
    303c:	5f003120 	svcpl	0x00003120
    3040:	4c5f424d 	lfmmi	f4, 2, [pc], {77}	; 0x4d
    3044:	4d5f4e45 	ldclmi	14, cr4, [pc, #-276]	; 2f38 <_Min_Stack_Size+0x2b38>
    3048:	31205841 			; <UNDEFINED> instruction: 0x31205841
    304c:	544e4900 	strbpl	r4, [lr], #-2304	; 0xfffff700
    3050:	5f58414d 	svcpl	0x0058414d
    3054:	2058414d 	subscs	r4, r8, sp, asr #2
    3058:	495f5f28 	ldmdbmi	pc, {r3, r5, r8, r9, sl, fp, ip, lr}^	; <UNPREDICTABLE>
    305c:	414d544e 	cmpmi	sp, lr, asr #8
    3060:	414d5f58 	cmpmi	sp, r8, asr pc
    3064:	295f5f58 	ldmdbcs	pc, {r3, r4, r6, r8, r9, sl, fp, ip, lr}^	; <UNPREDICTABLE>
    3068:	544e4900 	strbpl	r4, [lr], #-2304	; 0xfffff700
    306c:	4d5f3233 	lfmmi	f3, 2, [pc, #-204]	; 2fa8 <_Min_Stack_Size+0x2ba8>
    3070:	28205841 	stmdacs	r0!, {r0, r6, fp, ip, lr}
    3074:	4e495f5f 	mcrmi	15, 2, r5, cr9, cr15, {2}
    3078:	5f323354 	svcpl	0x00323354
    307c:	5f58414d 	svcpl	0x0058414d
    3080:	5f00295f 	svcpl	0x0000295f
    3084:	5f41445f 	svcpl	0x0041445f
    3088:	54494246 	strbpl	r4, [r9], #-582	; 0xfffffdba
    308c:	33205f5f 			; <UNDEFINED> instruction: 0x33205f5f
    3090:	5f5f0031 	svcpl	0x005f0031
    3094:	5f585847 	svcpl	0x00585847
    3098:	5f494241 	svcpl	0x00494241
    309c:	53524556 	cmppl	r2, #360710144	; 0x15800000
    30a0:	204e4f49 	subcs	r4, lr, r9, asr #30
    30a4:	34313031 	ldrtcc	r3, [r1], #-49	; 0xffffffcf
    30a8:	495f5f00 	ldmdbmi	pc, {r8, r9, sl, fp, ip, lr}^	; <UNPREDICTABLE>
    30ac:	4c5f544e 	cfldrdmi	mvd5, [pc], {78}	; 0x4e
    30b0:	54534145 	ldrbpl	r4, [r3], #-325	; 0xfffffebb
    30b4:	4d5f3631 	ldclmi	6, cr3, [pc, #-196]	; 2ff8 <_Min_Stack_Size+0x2bf8>
    30b8:	5f5f5841 	svcpl	0x005f5841
    30bc:	37783020 	ldrbcc	r3, [r8, -r0, lsr #32]!
    30c0:	00666666 	rsbeq	r6, r6, r6, ror #12
    30c4:	64756142 	ldrbtvs	r6, [r5], #-322	; 0xfffffebe
    30c8:	65746152 	ldrbvs	r6, [r4, #-338]!	; 0xfffffeae
    30cc:	3036395f 	eorscc	r3, r6, pc, asr r9
    30d0:	36392030 			; <UNDEFINED> instruction: 0x36392030
    30d4:	55003030 	strpl	r3, [r0, #-48]	; 0xffffffd0
    30d8:	5f545241 	svcpl	0x00545241
    30dc:	45444f4d 	strbmi	r4, [r4, #-3917]	; 0xfffff0b3
    30e0:	5f78525f 	svcpl	0x0078525f
    30e4:	28207854 	stmdacs	r0!, {r2, r4, r6, fp, ip, sp, lr}
    30e8:	746e6975 	strbtvc	r6, [lr], #-2421	; 0xfffff68b
    30ec:	745f3233 	ldrbvc	r3, [pc], #-563	; 30f4 <_Min_Stack_Size+0x2cf4>
    30f0:	3c312829 	ldccc	8, cr2, [r1], #-164	; 0xffffff5c
    30f4:	7c20323c 	sfmvc	f3, 4, [r0], #-240	; 0xffffff10
    30f8:	3c3c3120 	ldfccs	f3, [ip], #-128	; 0xffffff80
    30fc:	5f002933 	svcpl	0x00002933
    3100:	544c465f 	strbpl	r4, [ip], #-1631	; 0xfffff9a1
    3104:	4e45445f 	mcrmi	4, 2, r4, cr5, cr15, {2}
    3108:	5f4d524f 	svcpl	0x004d524f
    310c:	5f4e494d 	svcpl	0x004e494d
    3110:	2e31205f 	mrccs	0, 1, r2, cr1, cr15, {2}
    3114:	32313034 	eorscc	r3, r1, #52	; 0x34
    3118:	36343839 			; <UNDEFINED> instruction: 0x36343839
    311c:	34323334 	ldrtcc	r3, [r2], #-820	; 0xfffffccc
    3120:	31373138 	teqcc	r7, r8, lsr r1
    3124:	35342d65 	ldrcc	r2, [r4, #-3429]!	; 0xfffff29b
    3128:	5f5f0046 	svcpl	0x005f0046
    312c:	5341454c 	movtpl	r4, #5452	; 0x154c
    3130:	22203854 	eorcs	r3, r0, #84, 16	; 0x540000
    3134:	00226868 	eoreq	r6, r2, r8, ror #16
    3138:	544e4955 	strbpl	r4, [lr], #-2389	; 0xfffff6ab
    313c:	5341465f 	movtpl	r4, #5727	; 0x165f
    3140:	5f363154 	svcpl	0x00363154
    3144:	2058414d 	subscs	r4, r8, sp, asr #2
    3148:	555f5f28 	ldrbpl	r5, [pc, #-3880]	; 2228 <_Min_Stack_Size+0x1e28>
    314c:	5f544e49 	svcpl	0x00544e49
    3150:	54534146 	ldrbpl	r4, [r3], #-326	; 0xfffffeba
    3154:	4d5f3631 	ldclmi	6, cr3, [pc, #-196]	; 3098 <_Min_Stack_Size+0x2c98>
    3158:	5f5f5841 	svcpl	0x005f5841
    315c:	50470029 	subpl	r0, r7, r9, lsr #32
    3160:	4d5f4f49 	ldclmi	15, cr4, [pc, #-292]	; 3044 <_Min_Stack_Size+0x2c44>
    3164:	5f45444f 	svcpl	0x0045444f
    3168:	6c616e41 	stclvs	14, cr6, [r1], #-260	; 0xfffffefc
    316c:	3020676f 	eorcc	r6, r0, pc, ror #14
    3170:	30303078 	eorscc	r3, r0, r8, ror r0
    3174:	30303030 	eorscc	r3, r0, r0, lsr r0
    3178:	5f5f0030 	svcpl	0x005f0030
    317c:	75746572 	ldrbvc	r6, [r4, #-1394]!	; 0xfffffa8e
    3180:	5f736e72 	svcpl	0x00736e72
    3184:	63697774 	cmnvs	r9, #116, 14	; 0x1d00000
    3188:	5f5f2065 	svcpl	0x005f2065
    318c:	72747461 	rsbsvc	r7, r4, #1627389952	; 0x61000000
    3190:	74756269 	ldrbtvc	r6, [r5], #-617	; 0xfffffd97
    3194:	285f5f65 	ldmdacs	pc, {r0, r2, r5, r6, r8, r9, sl, fp, ip, lr}^	; <UNPREDICTABLE>
    3198:	725f5f28 	subsvc	r5, pc, #40, 30	; 0xa0
    319c:	72757465 	rsbsvc	r7, r5, #1694498816	; 0x65000000
    31a0:	745f736e 	ldrbvc	r7, [pc], #-878	; 31a8 <_Min_Stack_Size+0x2da8>
    31a4:	65636977 	strbvs	r6, [r3, #-2423]!	; 0xfffff689
    31a8:	29295f5f 	stmdbcs	r9!, {r0, r1, r2, r3, r4, r6, r8, r9, sl, fp, ip, lr}
    31ac:	49504700 	ldmdbmi	r0, {r8, r9, sl, lr}^
    31b0:	49505f4f 	ldmdbmi	r0, {r0, r1, r2, r3, r6, r8, r9, sl, fp, ip, lr}^
    31b4:	33315f4e 	teqcc	r1, #312	; 0x138
    31b8:	75282820 	strvc	r2, [r8, #-2080]!	; 0xfffff7e0
    31bc:	31746e69 	cmncc	r4, r9, ror #28
    31c0:	29745f36 	ldmdbcs	r4!, {r1, r2, r4, r5, r8, r9, sl, fp, ip, lr}^
    31c4:	32783020 	rsbscc	r3, r8, #32
    31c8:	29303030 	ldmdbcs	r0!, {r4, r5, ip, sp}
    31cc:	725f5f00 	subsvc	r5, pc, #0, 30
    31d0:	69757165 	ldmdbvs	r5!, {r0, r2, r5, r6, r8, ip, sp, lr}^
    31d4:	5f736572 	svcpl	0x00736572
    31d8:	72616873 	rsbvc	r6, r1, #7536640	; 0x730000
    31dc:	2e286465 	cdpcs	4, 2, cr6, cr8, cr5, {3}
    31e0:	20292e2e 	eorcs	r2, r9, lr, lsr #28
    31e4:	6f6c5f5f 	svcvs	0x006c5f5f
    31e8:	615f6b63 	cmpvs	pc, r3, ror #22
    31ec:	746f6e6e 	strbtvc	r6, [pc], #-3694	; 31f4 <_Min_Stack_Size+0x2df4>
    31f0:	28657461 	stmdacs	r5!, {r0, r5, r6, sl, ip, sp, lr}^
    31f4:	72616873 	rsbvc	r6, r1, #7536640	; 0x730000
    31f8:	6c5f6465 	cfldrdvs	mvd6, [pc], {101}	; 0x65
    31fc:	736b636f 	cmnvc	fp, #-1140850687	; 0xbc000001
    3200:	7165725f 	cmnvc	r5, pc, asr r2
    3204:	65726975 	ldrbvs	r6, [r2, #-2421]!	; 0xfffff68b
    3208:	5f5f2864 	svcpl	0x005f2864
    320c:	415f4156 	cmpmi	pc, r6, asr r1	; <UNPREDICTABLE>
    3210:	5f534752 	svcpl	0x00534752
    3214:	0029295f 	eoreq	r2, r9, pc, asr r9
    3218:	444e455f 	strbmi	r4, [lr], #-1375	; 0xfffffaa1
    321c:	4454535f 	ldrbmi	r5, [r4], #-863	; 0xfffffca1
    3220:	0020435f 	eoreq	r4, r0, pc, asr r3
    3224:	4349564e 	movtmi	r5, #38478	; 0x964e
    3228:	4153555f 	cmpmi	r3, pc, asr r5
    322c:	5f335452 	svcpl	0x00335452
    3230:	5f515249 	svcpl	0x00515249
    3234:	62616e45 	rsbvs	r6, r1, #1104	; 0x450
    3238:	2820656c 	stmdacs	r0!, {r2, r3, r5, r6, r8, sl, sp, lr}
    323c:	4349564e 	movtmi	r5, #38478	; 0x964e
    3240:	4553495f 	ldrbmi	r4, [r3, #-2399]	; 0xfffff6a1
    3244:	7c203152 	stfvcs	f3, [r0], #-328	; 0xfffffeb8
    3248:	3c31203d 	ldccc	0, cr2, [r1], #-244	; 0xffffff0c
    324c:	5355283c 	cmppl	r5, #60, 16	; 0x3c0000
    3250:	33545241 	cmpcc	r4, #268435460	; 0x10000004
    3254:	5152495f 	cmppl	r2, pc, asr r9
    3258:	33202d20 			; <UNDEFINED> instruction: 0x33202d20
    325c:	00292932 	eoreq	r2, r9, r2, lsr r9
    3260:	544e4955 	strbpl	r4, [lr], #-2389	; 0xfffff6ab
    3264:	41454c5f 	cmpmi	r5, pc, asr ip
    3268:	36315453 			; <UNDEFINED> instruction: 0x36315453
    326c:	58414d5f 	stmdapl	r1, {r0, r1, r2, r3, r4, r6, r8, sl, fp, lr}^
    3270:	5f5f2820 	svcpl	0x005f2820
    3274:	544e4955 	strbpl	r4, [lr], #-2389	; 0xfffff6ab
    3278:	41454c5f 	cmpmi	r5, pc, asr ip
    327c:	36315453 			; <UNDEFINED> instruction: 0x36315453
    3280:	58414d5f 	stmdapl	r1, {r0, r1, r2, r3, r4, r6, r8, sl, fp, lr}^
    3284:	00295f5f 	eoreq	r5, r9, pc, asr pc
    3288:	49555f5f 	ldmdbmi	r5, {r0, r1, r2, r3, r4, r6, r8, r9, sl, fp, ip, lr}^
    328c:	3233544e 	eorscc	r5, r3, #1308622848	; 0x4e000000
    3290:	6328435f 			; <UNDEFINED> instruction: 0x6328435f
    3294:	20632029 	rsbcs	r2, r3, r9, lsr #32
    3298:	55202323 	strpl	r2, [r0, #-803]!	; 0xfffffcdd
    329c:	5f5f004c 	svcpl	0x005f004c
    32a0:	43434155 	movtmi	r4, #12629	; 0x3155
    32a4:	4d5f4d55 	ldclmi	13, cr4, [pc, #-340]	; 3158 <_Min_Stack_Size+0x2d58>
    32a8:	5f5f4e49 	svcpl	0x005f4e49
    32ac:	302e3020 	eorcc	r3, lr, r0, lsr #32
    32b0:	5f004b55 	svcpl	0x00004b55
    32b4:	4e454552 	mcrmi	5, 2, r4, cr5, cr2, {2}
    32b8:	424d5f54 	submi	r5, sp, #84, 30	; 0x150
    32bc:	43574f54 	cmpmi	r7, #84, 30	; 0x150
    32c0:	4154535f 	cmpmi	r4, pc, asr r3
    32c4:	70284554 	eorvc	r4, r8, r4, asr r5
    32c8:	20297274 	eorcs	r7, r9, r4, ror r2
    32cc:	74702828 	ldrbtvc	r2, [r0], #-2088	; 0xfffff7d8
    32d0:	3e2d2972 			; <UNDEFINED> instruction: 0x3e2d2972
    32d4:	73696d5f 	cmnvc	r9, #6080	; 0x17c0
    32d8:	5f3e2d63 	svcpl	0x003e2d63
    32dc:	6f74626d 	svcvs	0x0074626d
    32e0:	735f6377 	cmpvc	pc, #-603979775	; 0xdc000001
    32e4:	65746174 	ldrbvs	r6, [r4, #-372]!	; 0xfffffe8c
    32e8:	4e5f0029 	cdpmi	0, 5, cr0, cr15, cr9, {1}
    32ec:	5f6c6c75 	svcpl	0x006c6c75
    32f0:	70736e75 	rsbsvc	r6, r3, r5, ror lr
    32f4:	66696365 	strbtvs	r6, [r9], -r5, ror #6
    32f8:	20646569 	rsbcs	r6, r4, r9, ror #10
    32fc:	465f5f00 	ldrbmi	r5, [pc], -r0, lsl #30
    3300:	455f544c 	ldrbmi	r5, [pc, #-1100]	; 2ebc <_Min_Stack_Size+0x2abc>
    3304:	4c495350 	mcrrmi	3, 5, r5, r9, cr0
    3308:	5f5f4e4f 	svcpl	0x005f4e4f
    330c:	312e3120 			; <UNDEFINED> instruction: 0x312e3120
    3310:	39303239 	ldmdbcc	r0!, {r0, r3, r4, r5, r9, ip, sp}
    3314:	35393832 	ldrcc	r3, [r9, #-2098]!	; 0xfffff7ce
    3318:	38373035 	ldmdacc	r7!, {r0, r2, r4, r5, ip, sp}
    331c:	65353231 	ldrvs	r3, [r5, #-561]!	; 0xfffffdcf
    3320:	0046372d 	subeq	r3, r6, sp, lsr #14
    3324:	53585f5f 	cmppl	r8, #380	; 0x17c
    3328:	4e495254 	mcrmi	2, 2, r5, cr9, cr4, {2}
    332c:	29782847 	ldmdbcs	r8!, {r0, r1, r2, r6, fp, sp}^
    3330:	535f5f20 	cmppl	pc, #32, 30	; 0x80
    3334:	4e495254 	mcrmi	2, 2, r5, cr9, cr4, {2}
    3338:	29782847 	ldmdbcs	r8!, {r0, r1, r2, r6, fp, sp}^
    333c:	615f5f00 	cmpvs	pc, r0, lsl #30
    3340:	69727474 	ldmdbvs	r2!, {r2, r4, r5, r6, sl, ip, sp, lr}^
    3344:	65747562 	ldrbvs	r7, [r4, #-1378]!	; 0xfffffa9e
    3348:	7275705f 	rsbsvc	r7, r5, #95	; 0x5f
    334c:	205f5f65 	subscs	r5, pc, r5, ror #30
    3350:	49505300 	ldmdbmi	r0, {r8, r9, ip, lr}^
    3354:	28282031 	stmdacs	r8!, {r0, r4, r5, sp}
    3358:	5f495053 	svcpl	0x00495053
    335c:	65707954 	ldrbvs	r7, [r0, #-2388]!	; 0xfffff6ac
    3360:	5f666564 	svcpl	0x00666564
    3364:	292a2074 	stmdbcs	sl!, {r2, r4, r5, r6, sp}
    3368:	31495053 	qdaddcc	r5, r3, r9
    336c:	5341425f 	movtpl	r4, #4703	; 0x125f
    3370:	5f002945 	svcpl	0x00002945
    3374:	5254505f 	subspl	r5, r4, #95	; 0x5f
    3378:	46464944 	strbmi	r4, [r6], -r4, asr #18
    337c:	5059545f 	subspl	r5, r9, pc, asr r4
    3380:	205f5f45 	subscs	r5, pc, r5, asr #30
    3384:	00746e69 	rsbseq	r6, r4, r9, ror #28
    3388:	52415f5f 	subpl	r5, r1, #380	; 0x17c
    338c:	52415f4d 	subpl	r5, r1, #308	; 0x134
    3390:	495f4843 	ldmdbmi	pc, {r0, r1, r6, fp, lr}^	; <UNPREDICTABLE>
    3394:	545f4153 	ldrbpl	r4, [pc], #-339	; 339c <_Min_Stack_Size+0x2f9c>
    3398:	424d5548 	submi	r5, sp, #72, 10	; 0x12000000
    339c:	54584500 	ldrbpl	r4, [r8], #-1280	; 0xfffffb00
    33a0:	28282049 	stmdacs	r8!, {r0, r3, r6, sp}
    33a4:	49545845 	ldmdbmi	r4, {r0, r2, r6, fp, ip, lr}^
    33a8:	7079545f 	rsbsvc	r5, r9, pc, asr r4
    33ac:	66656465 	strbtvs	r6, [r5], -r5, ror #8
    33b0:	2a20745f 	bcs	820534 <_Min_Stack_Size+0x820134>
    33b4:	54584529 	ldrbpl	r4, [r8], #-1321	; 0xfffffad7
    33b8:	41425f49 	cmpmi	r2, r9, asr #30
    33bc:	00294553 	eoreq	r4, r9, r3, asr r5
    33c0:	5f515249 	svcpl	0x00515249
    33c4:	67616c46 	strbvs	r6, [r1, -r6, asr #24]!
    33c8:	475f5f00 	ldrbmi	r5, [pc, -r0, lsl #30]
    33cc:	4c43554e 	cfstr64mi	mvdx5, [r3], {78}	; 0x4e
    33d0:	5f454b49 	svcpl	0x00454b49
    33d4:	4c495542 	cfstr64mi	mvdx5, [r9], {66}	; 0x42
    33d8:	5f4e4954 	svcpl	0x004e4954
    33dc:	41524156 	cmpmi	r2, r6, asr r1
    33e0:	20534752 	subscs	r4, r3, r2, asr r7
    33e4:	49540031 	ldmdbmi	r4, {r0, r4, r5}^
    33e8:	425f334d 	subsmi	r3, pc, #872415233	; 0x34000001
    33ec:	20455341 	subcs	r5, r5, r1, asr #6
    33f0:	30347830 	eorscc	r7, r4, r0, lsr r8
    33f4:	34303030 	ldrtcc	r3, [r0], #-48	; 0xffffffd0
    33f8:	00753030 	rsbseq	r3, r5, r0, lsr r0
    33fc:	52415f5f 	subpl	r5, r1, #380	; 0x17c
    3400:	45465f4d 	strbmi	r5, [r6, #-3917]	; 0xfffff0b3
    3404:	52555441 	subspl	r5, r5, #1090519040	; 0x41000000
    3408:	414d5f45 	cmpmi	sp, r5, asr #30
    340c:	4c554d54 	mrrcmi	13, 5, r4, r5, cr4
    3410:	544e495f 	strbpl	r4, [lr], #-2399	; 0xfffff6a1
    3414:	5f5f0038 	svcpl	0x005f0038
    3418:	544e4955 	strbpl	r4, [lr], #-2389	; 0xfffff6ab
    341c:	59545f38 	ldmdbpl	r4, {r3, r4, r5, r8, r9, sl, fp, ip, lr}^
    3420:	5f5f4550 	svcpl	0x005f4550
    3424:	736e7520 	cmnvc	lr, #32, 10	; 0x8000000
    3428:	656e6769 	strbvs	r6, [lr, #-1897]!	; 0xfffff897
    342c:	68632064 	stmdavs	r3!, {r2, r5, r6, sp}^
    3430:	55007261 	strpl	r7, [r0, #-609]	; 0xfffffd9f
    3434:	34545241 	ldrbcc	r5, [r4], #-577	; 0xfffffdbf
    3438:	5341425f 	movtpl	r4, #4703	; 0x125f
    343c:	78302045 	ldmdavc	r0!, {r0, r2, r6, sp}
    3440:	30303034 	eorscc	r3, r0, r4, lsr r0
    3444:	30304334 	eorscc	r4, r0, r4, lsr r3
    3448:	4e490075 	mcrmi	0, 2, r0, cr9, cr5, {3}
    344c:	454c5f54 	strbmi	r5, [ip, #-3924]	; 0xfffff0ac
    3450:	33545341 	cmpcc	r4, #67108865	; 0x4000001
    3454:	494d5f32 	stmdbmi	sp, {r1, r4, r5, r8, r9, sl, fp, ip, lr}^
    3458:	2d28204e 	stccs	0, cr2, [r8, #-312]!	; 0xfffffec8
    345c:	4e495f5f 	mcrmi	15, 2, r5, cr9, cr15, {2}
    3460:	454c5f54 	strbmi	r5, [ip, #-3924]	; 0xfffff0ac
    3464:	33545341 	cmpcc	r4, #67108865	; 0x4000001
    3468:	414d5f32 	cmpmi	sp, r2, lsr pc
    346c:	205f5f58 	subscs	r5, pc, r8, asr pc	; <UNPREDICTABLE>
    3470:	2931202d 	ldmdbcs	r1!, {r0, r2, r3, r5, sp}
    3474:	475f5f00 	ldrbmi	r5, [pc, -r0, lsl #30]
    3478:	415f4343 	cmpmi	pc, r3, asr #6
    347c:	494d4f54 	stmdbmi	sp, {r2, r4, r6, r8, r9, sl, fp, lr}^
    3480:	48535f43 	ldmdami	r3, {r0, r1, r6, r8, r9, sl, fp, ip, lr}^
    3484:	5f54524f 	svcpl	0x0054524f
    3488:	4b434f4c 	blmi	10d71c0 <_Min_Stack_Size+0x10d6dc0>
    348c:	4552465f 	ldrbmi	r4, [r2, #-1631]	; 0xfffff9a1
    3490:	00322045 	eorseq	r2, r2, r5, asr #32
    3494:	532f2e2e 			; <UNDEFINED> instruction: 0x532f2e2e
    3498:	6d2f6372 	stcvs	3, cr6, [pc, #-456]!	; 32d8 <_Min_Stack_Size+0x2ed8>
    349c:	2e6e6961 	vnmulcs.f16	s13, s28, s3	; <UNPREDICTABLE>
    34a0:	49550063 	ldmdbmi	r5, {r0, r1, r5, r6}^
    34a4:	3233544e 	eorscc	r5, r3, #1308622848	; 0x4e000000
    34a8:	58414d5f 	stmdapl	r1, {r0, r1, r2, r3, r4, r6, r8, sl, fp, lr}^
    34ac:	5f5f2820 	svcpl	0x005f2820
    34b0:	544e4955 	strbpl	r4, [lr], #-2389	; 0xfffff6ab
    34b4:	4d5f3233 	lfmmi	f3, 2, [pc, #-204]	; 33f0 <_Min_Stack_Size+0x2ff0>
    34b8:	5f5f5841 	svcpl	0x005f5841
    34bc:	58450029 	stmdapl	r5, {r0, r3, r5}^
    34c0:	35314954 	ldrcc	r4, [r1, #-2388]!	; 0xfffff6ac
    34c4:	35314450 	ldrcc	r4, [r1, #-1104]!	; 0xfffffbb0
    34c8:	58452820 	stmdapl	r5, {r5, fp, sp}^
    34cc:	475f4954 			; <UNDEFINED> instruction: 0x475f4954
    34d0:	5f4f4950 	svcpl	0x004f4950
    34d4:	7070614d 	rsbsvc	r6, r0, sp, asr #2
    34d8:	5f676e69 	svcpl	0x00676e69
    34dc:	457b2974 	ldrbmi	r2, [fp, #-2420]!	; 0xfffff68c
    34e0:	31495458 	cmpcc	r9, r8, asr r4
    34e4:	47202c35 			; <UNDEFINED> instruction: 0x47202c35
    34e8:	444f4950 	strbmi	r4, [pc], #-2384	; 34f0 <_Min_Stack_Size+0x30f0>
    34ec:	5047202c 	subpl	r2, r7, ip, lsr #32
    34f0:	505f4f49 	subspl	r4, pc, r9, asr #30
    34f4:	315f4e49 	cmpcc	pc, r9, asr #28
    34f8:	45202c35 	strmi	r2, [r0, #-3125]!	; 0xfffff3cb
    34fc:	31495458 	cmpcc	r9, r8, asr r4
    3500:	52495f35 	subpl	r5, r9, #53, 30	; 0xd4
    3504:	5f007d51 	svcpl	0x00007d51
    3508:	4153555f 	cmpmi	r3, pc, asr r5
    350c:	4d554343 	ldclmi	3, cr4, [r5, #-268]	; 0xfffffef4
    3510:	4942465f 	stmdbmi	r2, {r0, r1, r2, r3, r4, r6, r9, sl, lr}^
    3514:	205f5f54 	subscs	r5, pc, r4, asr pc	; <UNPREDICTABLE>
    3518:	52530038 	subspl	r0, r3, #56	; 0x38
    351c:	425f4d41 	subsmi	r4, pc, #4160	; 0x1040
    3520:	20455341 	subcs	r5, r5, r1, asr #6
    3524:	30327830 	eorscc	r7, r2, r0, lsr r8
    3528:	30303030 	eorscc	r3, r0, r0, lsr r0
    352c:	00753030 	rsbseq	r3, r5, r0, lsr r0
    3530:	43475f5f 	movtmi	r5, #32607	; 0x7f5f
    3534:	54415f43 	strbpl	r5, [r1], #-3907	; 0xfffff0bd
    3538:	43494d4f 	movtmi	r4, #40271	; 0x9d4f
    353c:	5345545f 	movtpl	r5, #21599	; 0x545f
    3540:	4e415f54 	mcrmi	15, 2, r5, cr1, cr4, {2}
    3544:	45535f44 	ldrbmi	r5, [r3, #-3908]	; 0xfffff0bc
    3548:	52545f54 	subspl	r5, r4, #84, 30	; 0x150
    354c:	41564555 	cmpmi	r6, r5, asr r5
    3550:	0031204c 	eorseq	r2, r1, ip, asr #32
    3554:	4c455f5f 	mcrrmi	15, 5, r5, r5, cr15
    3558:	205f5f46 	subscs	r5, pc, r6, asr #30
    355c:	44420031 	strbmi	r0, [r2], #-49	; 0xffffffcf
    3560:	47005243 	strmi	r5, [r0, -r3, asr #4]
    3564:	5f4f4950 	svcpl	0x004f4950
    3568:	5f4e4950 	svcpl	0x004e4950
    356c:	45534552 	ldrbmi	r4, [r3, #-1362]	; 0xfffffaae
    3570:	00302054 	eorseq	r2, r0, r4, asr r0
    3574:	4c465f5f 	mcrrmi	15, 5, r5, r6, cr15
    3578:	5f323354 	svcpl	0x00323354
    357c:	5f534148 	svcpl	0x00534148
    3580:	45495551 	strbmi	r5, [r9, #-1361]	; 0xfffffaaf
    3584:	414e5f54 	cmpmi	lr, r4, asr pc
    3588:	205f5f4e 	subscs	r5, pc, lr, asr #30
    358c:	5f5f0031 	svcpl	0x005f0031
    3590:	4f53424f 	svcmi	0x0053424f
    3594:	4554454c 	ldrbmi	r4, [r4, #-1356]	; 0xfffffab4
    3598:	54414d5f 	strbpl	r4, [r1], #-3423	; 0xfffff2a1
    359c:	5f5f2048 	svcpl	0x005f2048
    35a0:	4f53424f 	svcmi	0x0053424f
    35a4:	4554454c 	ldrbmi	r4, [r4, #-1356]	; 0xfffffab4
    35a8:	54414d5f 	strbpl	r4, [r1], #-3423	; 0xfffff2a1
    35ac:	45445f48 	strbmi	r5, [r4, #-3912]	; 0xfffff0b8
    35b0:	4c554146 	ldfmie	f4, [r5], {70}	; 0x46
    35b4:	5f5f0054 	svcpl	0x005f0054
    35b8:	4c42444c 	cfstrdmi	mvd4, [r2], {76}	; 0x4c
    35bc:	5341485f 	movtpl	r4, #6239	; 0x185f
    35c0:	464e495f 			; <UNDEFINED> instruction: 0x464e495f
    35c4:	54494e49 	strbpl	r4, [r9], #-3657	; 0xfffff1b7
    35c8:	205f5f59 	subscs	r5, pc, r9, asr pc	; <UNPREDICTABLE>
    35cc:	58450031 	stmdapl	r5, {r0, r4, r5}^
    35d0:	50324954 	eorspl	r4, r2, r4, asr r9
    35d4:	28203243 	stmdacs	r0!, {r0, r1, r6, r9, ip, sp}
    35d8:	49545845 	ldmdbmi	r4, {r0, r2, r6, fp, ip, lr}^
    35dc:	4950475f 	ldmdbmi	r0, {r0, r1, r2, r3, r4, r6, r8, r9, sl, lr}^
    35e0:	614d5f4f 	cmpvs	sp, pc, asr #30
    35e4:	6e697070 	mcrvs	0, 3, r7, cr9, cr0, {3}
    35e8:	29745f67 	ldmdbcs	r4!, {r0, r1, r2, r5, r6, r8, r9, sl, fp, ip, lr}^
    35ec:	5458457b 	ldrbpl	r4, [r8], #-1403	; 0xfffffa85
    35f0:	202c3249 	eorcs	r3, ip, r9, asr #4
    35f4:	4f495047 	svcmi	0x00495047
    35f8:	47202c43 	strmi	r2, [r0, -r3, asr #24]!
    35fc:	5f4f4950 	svcpl	0x004f4950
    3600:	5f4e4950 	svcpl	0x004e4950
    3604:	45202c32 	strmi	r2, [r0, #-3122]!	; 0xfffff3ce
    3608:	32495458 	subcc	r5, r9, #88, 8	; 0x58000000
    360c:	5152495f 	cmppl	r2, pc, asr r9
    3610:	4955007d 	ldmdbmi	r5, {r0, r2, r3, r4, r5, r6}^
    3614:	465f544e 	ldrbmi	r5, [pc], -lr, asr #8
    3618:	36545341 	ldrbcc	r5, [r4], -r1, asr #6
    361c:	414d5f34 	cmpmi	sp, r4, lsr pc
    3620:	5f282058 	svcpl	0x00282058
    3624:	4e49555f 	mcrmi	5, 2, r5, cr9, cr15, {2}
    3628:	41465f54 	cmpmi	r6, r4, asr pc
    362c:	34365453 	ldrtcc	r5, [r6], #-1107	; 0xfffffbad
    3630:	58414d5f 	stmdapl	r1, {r0, r1, r2, r3, r4, r6, r8, sl, fp, lr}^
    3634:	00295f5f 	eoreq	r5, r9, pc, asr pc
    3638:	41535f5f 	cmpmi	r3, pc, asr pc
    363c:	4d554343 	ldclmi	3, cr4, [r5, #-268]	; 0xfffffef4
    3640:	4942465f 	stmdbmi	r2, {r0, r1, r2, r3, r4, r6, r9, sl, lr}^
    3644:	205f5f54 	subscs	r5, pc, r4, asr pc	; <UNPREDICTABLE>
    3648:	58450037 	stmdapl	r5, {r0, r1, r2, r4, r5}^
    364c:	20304954 	eorscs	r4, r0, r4, asr r9
    3650:	58450030 	stmdapl	r5, {r4, r5}^
    3654:	5f334954 	svcpl	0x00334954
    3658:	20515249 	subscs	r5, r1, r9, asr #4
    365c:	49540039 	ldmdbmi	r4, {r0, r3, r4, r5}^
    3660:	5f31314d 	svcpl	0x0031314d
    3664:	45534142 	ldrbmi	r4, [r3, #-322]	; 0xfffffebe
    3668:	34783020 	ldrbtcc	r3, [r8], #-32	; 0xffffffe0
    366c:	35313030 	ldrcc	r3, [r1, #-48]!	; 0xffffffd0
    3670:	75303034 	ldrvc	r3, [r0, #-52]!	; 0xffffffcc
    3674:	465f5f00 	ldrbmi	r5, [pc], -r0, lsl #30
    3678:	3233544c 	eorscc	r5, r3, #76, 8	; 0x4c000000
    367c:	414d5f58 	cmpmi	sp, r8, asr pc
    3680:	30315f58 	eorscc	r5, r1, r8, asr pc
    3684:	5058455f 	subspl	r4, r8, pc, asr r5
    3688:	33205f5f 			; <UNDEFINED> instruction: 0x33205f5f
    368c:	5f003830 	svcpl	0x00003830
    3690:	544e4157 	strbpl	r4, [lr], #-343	; 0xfffffea9
    3694:	4545525f 	strbmi	r5, [r5, #-607]	; 0xfffffda1
    3698:	535f544e 	cmppl	pc, #1308622848	; 0x4e000000
    369c:	4c4c414d 	stfmie	f4, [ip], {77}	; 0x4d
    36a0:	5f003120 	svcpl	0x00003120
    36a4:	4d52415f 	ldfmie	f4, [r2, #-380]	; 0xfffffe84
    36a8:	5343505f 	movtpl	r5, #12383	; 0x305f
    36ac:	5f003120 	svcpl	0x00003120
    36b0:	7275705f 	rsbsvc	r7, r5, #95	; 0x5f
    36b4:	5f5f2065 	svcpl	0x005f2065
    36b8:	72747461 	rsbsvc	r7, r4, #1627389952	; 0x61000000
    36bc:	74756269 	ldrbtvc	r6, [r5], #-617	; 0xfffffd97
    36c0:	285f5f65 	ldmdacs	pc, {r0, r2, r5, r6, r8, r9, sl, fp, ip, lr}^	; <UNPREDICTABLE>
    36c4:	705f5f28 	subsvc	r5, pc, r8, lsr #30
    36c8:	5f657275 	svcpl	0x00657275
    36cc:	0029295f 	eoreq	r2, r9, pc, asr r9
    36d0:	69726170 	ldmdbvs	r2!, {r4, r5, r6, r8, sp, lr}^
    36d4:	655f7974 	ldrbvs	r7, [pc, #-2420]	; 2d68 <_Min_Stack_Size+0x2968>
    36d8:	206e6576 	rsbcs	r6, lr, r6, ror r5
    36dc:	6e697528 	cdpvs	5, 6, cr7, cr9, cr8, {1}
    36e0:	5f323374 	svcpl	0x00323374
    36e4:	31282974 			; <UNDEFINED> instruction: 0x31282974
    36e8:	30313c3c 	eorscc	r3, r1, ip, lsr ip
    36ec:	5f5f0029 	svcpl	0x005f0029
    36f0:	5f474953 	svcpl	0x00474953
    36f4:	4d4f5441 	cfstrdmi	mvd5, [pc, #-260]	; 35f8 <_Min_Stack_Size+0x31f8>
    36f8:	4d5f4349 	ldclmi	3, cr4, [pc, #-292]	; 35dc <_Min_Stack_Size+0x31dc>
    36fc:	5f5f4e49 	svcpl	0x005f4e49
    3700:	5f2d2820 	svcpl	0x002d2820
    3704:	4749535f 	smlsldmi	r5, r9, pc, r3	; <UNPREDICTABLE>
    3708:	4f54415f 	svcmi	0x0054415f
    370c:	5f43494d 	svcpl	0x0043494d
    3710:	5f58414d 	svcpl	0x0058414d
    3714:	202d205f 	eorcs	r2, sp, pc, asr r0
    3718:	44002931 	strmi	r2, [r0], #-2353	; 0xfffff6cf
    371c:	72442f3a 	subvc	r2, r4, #58, 30	; 0xe8
    3720:	72657669 	rsbvc	r7, r5, #110100480	; 0x6900000
    3724:	65442f73 	strbvs	r2, [r4, #-3955]	; 0xfffff08d
    3728:	00677562 	rsbeq	r7, r7, r2, ror #10
    372c:	49545845 	ldmdbmi	r4, {r0, r2, r6, fp, ip, lr}^
    3730:	00352035 	eorseq	r2, r5, r5, lsr r0
    3734:	4545525f 	strbmi	r5, [r5, #-607]	; 0xfffffda1
    3738:	435f544e 	cmpmi	pc, #1308622848	; 0x4e000000
    373c:	4b434548 	blmi	10d4c64 <_Min_Stack_Size+0x10d4864>
    3740:	4353415f 	cmpmi	r3, #-1073741801	; 0xc0000017
    3744:	454d4954 	strbmi	r4, [sp, #-2388]	; 0xfffff6ac
    3748:	4655425f 			; <UNDEFINED> instruction: 0x4655425f
    374c:	72617628 	rsbvc	r7, r1, #40, 12	; 0x2800000
    3750:	525f2029 	subspl	r2, pc, #41	; 0x29
    3754:	544e4545 	strbpl	r4, [lr], #-1349	; 0xfffffabb
    3758:	4548435f 	strbmi	r4, [r8, #-863]	; 0xfffffca1
    375c:	76284b43 	strtvc	r4, [r8], -r3, asr #22
    3760:	202c7261 	eorcs	r7, ip, r1, ror #4
    3764:	6373615f 	cmnvs	r3, #-1073741801	; 0xc0000017
    3768:	656d6974 	strbvs	r6, [sp, #-2420]!	; 0xfffff68c
    376c:	6675625f 			; <UNDEFINED> instruction: 0x6675625f
    3770:	6863202c 	stmdavs	r3!, {r2, r3, r5, sp}^
    3774:	2a207261 	bcs	820100 <_Min_Stack_Size+0x81fd00>
    3778:	525f202c 	subspl	r2, pc, #44	; 0x2c
    377c:	544e4545 	strbpl	r4, [lr], #-1349	; 0xfffffabb
    3780:	4353415f 	cmpmi	r3, #-1073741801	; 0xc0000017
    3784:	454d4954 	strbmi	r4, [sp, #-2388]	; 0xfffff6ac
    3788:	5a49535f 	bpl	125850c <_Min_Stack_Size+0x125810c>
    378c:	6d202c45 	stcvs	12, cr2, [r0, #-276]!	; 0xfffffeec
    3790:	65736d65 	ldrbvs	r6, [r3, #-3429]!	; 0xfffff29b
    3794:	76282874 			; <UNDEFINED> instruction: 0x76282874
    3798:	2d297261 	sfmcs	f7, 4, [r9, #-388]!	; 0xfffffe7c
    379c:	73615f3e 	cmnvc	r1, #62, 30	; 0xf8
    37a0:	6d697463 	cfstrdvs	mvd7, [r9, #-396]!	; 0xfffffe74
    37a4:	75625f65 	strbvc	r5, [r2, #-3941]!	; 0xfffff09b
    37a8:	30202c66 	eorcc	r2, r0, r6, ror #24
    37ac:	525f202c 	subspl	r2, pc, #44	; 0x2c
    37b0:	544e4545 	strbpl	r4, [lr], #-1349	; 0xfffffabb
    37b4:	4353415f 	cmpmi	r3, #-1073741801	; 0xc0000017
    37b8:	454d4954 	strbmi	r4, [sp, #-2388]	; 0xfffff6ac
    37bc:	5a49535f 	bpl	1258540 <_Min_Stack_Size+0x1258140>
    37c0:	00292945 	eoreq	r2, r9, r5, asr #18
    37c4:	49545845 	ldmdbmi	r4, {r0, r2, r6, fp, ip, lr}^
    37c8:	30425030 	subcc	r5, r2, r0, lsr r0
    37cc:	58452820 	stmdapl	r5, {r5, fp, sp}^
    37d0:	475f4954 			; <UNDEFINED> instruction: 0x475f4954
    37d4:	5f4f4950 	svcpl	0x004f4950
    37d8:	7070614d 	rsbsvc	r6, r0, sp, asr #2
    37dc:	5f676e69 	svcpl	0x00676e69
    37e0:	457b2974 	ldrbmi	r2, [fp, #-2420]!	; 0xfffff68c
    37e4:	30495458 	subcc	r5, r9, r8, asr r4
    37e8:	5047202c 	subpl	r2, r7, ip, lsr #32
    37ec:	2c424f49 	mcrrcs	15, 4, r4, r2, cr9
    37f0:	49504720 	ldmdbmi	r0, {r5, r8, r9, sl, lr}^
    37f4:	49505f4f 	ldmdbmi	r0, {r0, r1, r2, r3, r6, r8, r9, sl, fp, ip, lr}^
    37f8:	2c305f4e 	ldccs	15, cr5, [r0], #-312	; 0xfffffec8
    37fc:	54584520 	ldrbpl	r4, [r8], #-1312	; 0xfffffae0
    3800:	495f3049 	ldmdbmi	pc, {r0, r3, r6, ip, sp}^	; <UNPREDICTABLE>
    3804:	007d5152 	rsbseq	r5, sp, r2, asr r1
    3808:	4453425f 	ldrbmi	r4, [r3], #-607	; 0xfffffda1
    380c:	4843575f 	stmdami	r3, {r0, r1, r2, r3, r4, r6, r8, r9, sl, ip, lr}^
    3810:	545f5241 	ldrbpl	r5, [pc], #-577	; 3818 <_Min_Stack_Size+0x3418>
    3814:	5300205f 	movwpl	r2, #95	; 0x5f
    3818:	45545359 	ldrbmi	r5, [r4, #-857]	; 0xfffffca7
    381c:	454d5f4d 	strbmi	r5, [sp, #-3917]	; 0xfffff0b3
    3820:	59524f4d 	ldmdbpl	r2, {r0, r2, r3, r6, r8, r9, sl, fp, lr}^
    3824:	5341425f 	movtpl	r4, #4703	; 0x125f
    3828:	78302045 	ldmdavc	r0!, {r0, r2, r6, sp}
    382c:	46464631 			; <UNDEFINED> instruction: 0x46464631
    3830:	30303046 	eorscc	r3, r0, r6, asr #32
    3834:	58450075 	stmdapl	r5, {r0, r2, r4, r5, r6}^
    3838:	50334954 	eorspl	r4, r3, r4, asr r9
    383c:	28203341 	stmdacs	r0!, {r0, r6, r8, r9, ip, sp}
    3840:	49545845 	ldmdbmi	r4, {r0, r2, r6, fp, ip, lr}^
    3844:	4950475f 	ldmdbmi	r0, {r0, r1, r2, r3, r4, r6, r8, r9, sl, lr}^
    3848:	614d5f4f 	cmpvs	sp, pc, asr #30
    384c:	6e697070 	mcrvs	0, 3, r7, cr9, cr0, {3}
    3850:	29745f67 	ldmdbcs	r4!, {r0, r1, r2, r5, r6, r8, r9, sl, fp, ip, lr}^
    3854:	5458457b 	ldrbpl	r4, [r8], #-1403	; 0xfffffa85
    3858:	202c3349 	eorcs	r3, ip, r9, asr #6
    385c:	4f495047 	svcmi	0x00495047
    3860:	47202c41 	strmi	r2, [r0, -r1, asr #24]!
    3864:	5f4f4950 	svcpl	0x004f4950
    3868:	5f4e4950 	svcpl	0x004e4950
    386c:	45202c33 	strmi	r2, [r0, #-3123]!	; 0xfffff3cd
    3870:	33495458 	movtcc	r5, #37976	; 0x9458
    3874:	5152495f 	cmppl	r2, pc, asr r9
    3878:	5f5f007d 	svcpl	0x005f007d
    387c:	61736f6e 	cmnvs	r3, lr, ror #30
    3880:	6974696e 	ldmdbvs	r4!, {r1, r2, r3, r5, r6, r8, fp, sp, lr}^
    3884:	6461657a 	strbtvs	r6, [r1], #-1402	; 0xfffffa86
    3888:	73657264 	cmnvc	r5, #100, 4	; 0x40000006
    388c:	5f002073 	svcpl	0x00002073
    3890:	4e454552 	mcrmi	5, 2, r4, cr5, cr2, {2}
    3894:	504d5f54 	subpl	r5, sp, r4, asr pc
    3898:	5335505f 	teqpl	r5, #95	; 0x5f
    389c:	72747028 	rsbsvc	r7, r4, #40	; 0x28
    38a0:	28282029 	stmdacs	r8!, {r0, r3, r5, sp}
    38a4:	29727470 	ldmdbcs	r2!, {r4, r5, r6, sl, ip, sp, lr}^
    38a8:	6d5f3e2d 	ldclvs	14, cr3, [pc, #-180]	; 37fc <_Min_Stack_Size+0x33fc>
    38ac:	5f3e2d70 	svcpl	0x003e2d70
    38b0:	29733570 	ldmdbcs	r3!, {r4, r5, r6, r8, sl, ip, sp}^
    38b4:	47495300 	strbmi	r5, [r9, -r0, lsl #6]
    38b8:	4f54415f 	svcmi	0x0054415f
    38bc:	5f43494d 	svcpl	0x0043494d
    38c0:	204e494d 	subcs	r4, lr, sp, asr #18
    38c4:	5f5f2d28 	svcpl	0x005f2d28
    38c8:	49445453 	stmdbmi	r4, {r0, r1, r4, r6, sl, ip, lr}^
    38cc:	455f544e 	ldrbmi	r5, [pc, #-1102]	; 3486 <_Min_Stack_Size+0x3086>
    38d0:	49285058 	stmdbmi	r8!, {r3, r4, r6, ip, lr}
    38d4:	4d5f544e 	cfldrdmi	mvd5, [pc, #-312]	; 37a4 <_Min_Stack_Size+0x33a4>
    38d8:	20295841 	eorcs	r5, r9, r1, asr #16
    38dc:	2931202d 	ldmdbcs	r1!, {r0, r2, r3, r5, sp}
    38e0:	4e495500 	cdpmi	5, 4, cr5, cr9, cr0, {0}
    38e4:	5f363154 	svcpl	0x00363154
    38e8:	29782843 	ldmdbcs	r8!, {r0, r1, r6, fp, sp}^
    38ec:	555f5f20 	ldrbpl	r5, [pc, #-3872]	; 29d4 <_Min_Stack_Size+0x25d4>
    38f0:	31544e49 	cmpcc	r4, r9, asr #28
    38f4:	28435f36 	stmdacs	r3, {r1, r2, r4, r5, r8, r9, sl, fp, ip, lr}^
    38f8:	42002978 	andmi	r2, r0, #120, 18	; 0x1e0000
    38fc:	52647561 	rsbpl	r7, r4, #406847488	; 0x18400000
    3900:	5f657461 	svcpl	0x00657461
    3904:	30353232 	eorscc	r3, r5, r2, lsr r2
    3908:	20303030 	eorscs	r3, r0, r0, lsr r0
    390c:	30353232 	eorscc	r3, r5, r2, lsr r2
    3910:	00303030 	eorseq	r3, r0, r0, lsr r0
    3914:	544e495f 	strbpl	r4, [lr], #-2399	; 0xfffff6a1
    3918:	545f3631 	ldrbpl	r3, [pc], #-1585	; 3920 <_Min_Stack_Size+0x3520>
    391c:	4345445f 	movtmi	r4, #21599	; 0x545f
    3920:	4552414c 	ldrbmi	r4, [r2, #-332]	; 0xfffffeb4
    3924:	45002044 	strmi	r2, [r0, #-68]	; 0xffffffbc
    3928:	39495458 	stmdbcc	r9, {r3, r4, r6, sl, ip, lr}^
    392c:	20394150 	eorscs	r4, r9, r0, asr r1
    3930:	54584528 	ldrbpl	r4, [r8], #-1320	; 0xfffffad8
    3934:	50475f49 	subpl	r5, r7, r9, asr #30
    3938:	4d5f4f49 	ldclmi	15, cr4, [pc, #-292]	; 381c <_Min_Stack_Size+0x341c>
    393c:	69707061 	ldmdbvs	r0!, {r0, r5, r6, ip, sp, lr}^
    3940:	745f676e 	ldrbvc	r6, [pc], #-1902	; 3948 <_Min_Stack_Size+0x3548>
    3944:	58457b29 	stmdapl	r5, {r0, r3, r5, r8, r9, fp, ip, sp, lr}^
    3948:	2c394954 			; <UNDEFINED> instruction: 0x2c394954
    394c:	49504720 	ldmdbmi	r0, {r5, r8, r9, sl, lr}^
    3950:	202c414f 	eorcs	r4, ip, pc, asr #2
    3954:	4f495047 	svcmi	0x00495047
    3958:	4e49505f 	mcrmi	0, 2, r5, cr9, cr15, {2}
    395c:	202c395f 	eorcs	r3, ip, pc, asr r9
    3960:	49545845 	ldmdbmi	r4, {r0, r2, r6, fp, ip, lr}^
    3964:	52495f39 	subpl	r5, r9, #57, 30	; 0xe4
    3968:	45007d51 	strmi	r7, [r0, #-3409]	; 0xfffff2af
    396c:	35495458 	strbcc	r5, [r9, #-1112]	; 0xfffffba8
    3970:	20354450 	eorscs	r4, r5, r0, asr r4
    3974:	54584528 	ldrbpl	r4, [r8], #-1320	; 0xfffffad8
    3978:	50475f49 	subpl	r5, r7, r9, asr #30
    397c:	4d5f4f49 	ldclmi	15, cr4, [pc, #-292]	; 3860 <_Min_Stack_Size+0x3460>
    3980:	69707061 	ldmdbvs	r0!, {r0, r5, r6, ip, sp, lr}^
    3984:	745f676e 	ldrbvc	r6, [pc], #-1902	; 398c <_Min_Stack_Size+0x358c>
    3988:	58457b29 	stmdapl	r5, {r0, r3, r5, r8, r9, fp, ip, sp, lr}^
    398c:	2c354954 			; <UNDEFINED> instruction: 0x2c354954
    3990:	49504720 	ldmdbmi	r0, {r5, r8, r9, sl, lr}^
    3994:	202c444f 	eorcs	r4, ip, pc, asr #8
    3998:	4f495047 	svcmi	0x00495047
    399c:	4e49505f 	mcrmi	0, 2, r5, cr9, cr15, {2}
    39a0:	202c355f 	eorcs	r3, ip, pc, asr r5
    39a4:	49545845 	ldmdbmi	r4, {r0, r2, r6, fp, ip, lr}^
    39a8:	52495f35 	subpl	r5, r9, #53, 30	; 0xd4
    39ac:	55007d51 	strpl	r7, [r0, #-3409]	; 0xfffff2af
    39b0:	54524153 	ldrbpl	r4, [r2], #-339	; 0xfffffead
    39b4:	5649445f 			; <UNDEFINED> instruction: 0x5649445f
    39b8:	6c634628 	stclvs	6, cr4, [r3], #-160	; 0xffffff60
    39bc:	61622c6b 	cmnvs	r2, fp, ror #24
    39c0:	61726475 	cmnvs	r2, r5, ror r4
    39c4:	20296574 	eorcs	r6, r9, r4, ror r5
    39c8:	6e697528 	cdpvs	5, 6, cr7, cr9, cr8, {1}
    39cc:	5f323374 	svcpl	0x00323374
    39d0:	28202974 	stmdacs	r0!, {r2, r4, r5, r6, r8, fp, sp}
    39d4:	6b6c6346 	blvs	1b1c6f4 <_Min_Stack_Size+0x1b1c2f4>
    39d8:	6162282f 	cmnvs	r2, pc, lsr #16
    39dc:	61726475 	cmnvs	r2, r5, ror r4
    39e0:	312a6574 			; <UNDEFINED> instruction: 0x312a6574
    39e4:	00292936 	eoreq	r2, r9, r6, lsr r9
    39e8:	4e495f5f 	mcrmi	15, 2, r5, cr9, cr15, {2}
    39ec:	454c5f54 	strbmi	r5, [ip, #-3924]	; 0xfffff0ac
    39f0:	31545341 	cmpcc	r4, r1, asr #6
    39f4:	49575f36 	ldmdbmi	r7, {r1, r2, r4, r5, r8, r9, sl, fp, ip, lr}^
    39f8:	5f485444 	svcpl	0x00485444
    39fc:	3631205f 			; <UNDEFINED> instruction: 0x3631205f
    3a00:	43435200 	movtmi	r5, #12800	; 0x3200
    3a04:	4153555f 	cmpmi	r3, pc, asr r5
    3a08:	5f315452 	svcpl	0x00315452
    3a0c:	5f4b4c43 	svcpl	0x004b4c43
    3a10:	29284e45 	stmdbcs	r8!, {r0, r2, r6, r9, sl, fp, lr}
    3a14:	43522820 	cmpmi	r2, #32, 16	; 0x200000
    3a18:	413e2d43 	teqmi	lr, r3, asr #26
    3a1c:	45324250 	ldrmi	r4, [r2, #-592]!	; 0xfffffdb0
    3a20:	7c20524e 	sfmvc	f5, 4, [r0], #-312	; 0xfffffec8
    3a24:	3128203d 			; <UNDEFINED> instruction: 0x3128203d
    3a28:	34313c3c 	ldrtcc	r3, [r1], #-3132	; 0xfffff3c4
    3a2c:	5f002929 	svcpl	0x00002929
    3a30:	4345445f 	movtmi	r4, #21599	; 0x545f
    3a34:	4156455f 	cmpmi	r6, pc, asr r5
    3a38:	454d5f4c 	strbmi	r5, [sp, #-3916]	; 0xfffff0b4
    3a3c:	444f4854 	strbmi	r4, [pc], #-2132	; 3a44 <_Min_Stack_Size+0x3644>
    3a40:	32205f5f 	eorcc	r5, r0, #380	; 0x17c
    3a44:	415f5f00 	cmpmi	pc, r0, lsl #30
    3a48:	465f4d52 			; <UNDEFINED> instruction: 0x465f4d52
    3a4c:	55544145 	ldrbpl	r4, [r4, #-325]	; 0xfffffebb
    3a50:	465f4552 			; <UNDEFINED> instruction: 0x465f4552
    3a54:	5f363150 	svcpl	0x00363150
    3a58:	004c4d46 	subeq	r4, ip, r6, asr #26
    3a5c:	48555f5f 	ldmdami	r5, {r0, r1, r2, r3, r4, r6, r8, r9, sl, fp, ip, lr}^
    3a60:	42495f41 	submi	r5, r9, #260	; 0x104
    3a64:	5f5f5449 	svcpl	0x005f5449
    3a68:	5f003820 	svcpl	0x00003820
    3a6c:	7365725f 	cmnvc	r5, #-268435451	; 0xf0000005
    3a70:	63697274 	cmnvs	r9, #116, 4	; 0x40000007
    3a74:	65722074 	ldrbvs	r2, [r2, #-116]!	; 0xffffff8c
    3a78:	69727473 	ldmdbvs	r2!, {r0, r1, r4, r5, r6, sl, ip, sp, lr}^
    3a7c:	5f007463 	svcpl	0x00007463
    3a80:	4653555f 			; <UNDEFINED> instruction: 0x4653555f
    3a84:	54434152 	strbpl	r4, [r3], #-338	; 0xfffffeae
    3a88:	5350455f 	cmppl	r0, #398458880	; 0x17c00000
    3a8c:	4e4f4c49 	cdpmi	12, 4, cr4, cr15, cr9, {2}
    3a90:	30205f5f 	eorcc	r5, r0, pc, asr pc
    3a94:	2d503178 	ldfcse	f3, [r0, #-480]	; 0xfffffe20
    3a98:	52485538 	subpl	r5, r8, #56, 10	; 0xe000000
    3a9c:	4c554e00 	mrrcmi	14, 0, r4, r5, cr0
    3aa0:	2828204c 	stmdacs	r8!, {r2, r3, r6, sp}
    3aa4:	64696f76 	strbtvs	r6, [r9], #-3958	; 0xfffff08a
    3aa8:	30292a20 	eorcc	r2, r9, r0, lsr #20
    3aac:	5f5f0029 	svcpl	0x005f0029
    3ab0:	65737361 	ldrbvs	r7, [r3, #-865]!	; 0xfffffc9f
    3ab4:	5f737472 	svcpl	0x00737472
    3ab8:	6c637865 	stclvs	8, cr7, [r3], #-404	; 0xfffffe6c
    3abc:	76697375 			; <UNDEFINED> instruction: 0x76697375
    3ac0:	2e2e2865 	cdpcs	8, 2, cr2, cr14, cr5, {3}
    3ac4:	5f20292e 	svcpl	0x0020292e
    3ac8:	636f6c5f 	cmnvs	pc, #24320	; 0x5f00
    3acc:	6e615f6b 	cdpvs	15, 6, cr5, cr1, cr11, {3}
    3ad0:	61746f6e 	cmnvs	r4, lr, ror #30
    3ad4:	61286574 			; <UNDEFINED> instruction: 0x61286574
    3ad8:	72657373 	rsbvc	r7, r5, #-872415231	; 0xcc000001
    3adc:	78655f74 	stmdavc	r5!, {r2, r4, r5, r6, r8, r9, sl, fp, ip, lr}^
    3ae0:	73756c63 	cmnvc	r5, #25344	; 0x6300
    3ae4:	5f657669 	svcpl	0x00657669
    3ae8:	6b636f6c 	blvs	18df8a0 <_Min_Stack_Size+0x18df4a0>
    3aec:	565f5f28 	ldrbpl	r5, [pc], -r8, lsr #30
    3af0:	52415f41 	subpl	r5, r1, #260	; 0x104
    3af4:	5f5f5347 	svcpl	0x005f5347
    3af8:	43002929 	movwmi	r2, #2345	; 0x929
    3afc:	00524746 	subseq	r4, r2, r6, asr #14
    3b00:	4349564e 	movtmi	r5, #38478	; 0x964e
    3b04:	4153555f 	cmpmi	r3, pc, asr r5
    3b08:	5f315452 	svcpl	0x00315452
    3b0c:	5f515249 	svcpl	0x00515249
    3b10:	61736944 	cmnvs	r3, r4, asr #18
    3b14:	20656c62 	rsbcs	r6, r5, r2, ror #24
    3b18:	49564e28 	ldmdbmi	r6, {r3, r5, r9, sl, fp, lr}^
    3b1c:	43495f43 	movtmi	r5, #40771	; 0x9f43
    3b20:	20315245 	eorscs	r5, r1, r5, asr #4
    3b24:	31203d7c 			; <UNDEFINED> instruction: 0x31203d7c
    3b28:	55283c3c 	strpl	r3, [r8, #-3132]!	; 0xfffff3c4
    3b2c:	54524153 	ldrbpl	r4, [r2], #-339	; 0xfffffead
    3b30:	52495f31 	subpl	r5, r9, #49, 30	; 0xc4
    3b34:	202d2051 	eorcs	r2, sp, r1, asr r0
    3b38:	29293233 	stmdbcs	r9!, {r0, r1, r4, r5, r9, ip, sp}
    3b3c:	5f5f5f00 	svcpl	0x005f5f00
    3b40:	5f746e69 	svcpl	0x00746e69
    3b44:	7361656c 	cmnvc	r1, #108, 10	; 0x1b000000
    3b48:	5f323374 	svcpl	0x00323374
    3b4c:	65645f74 	strbvs	r5, [r4, #-3956]!	; 0xfffff08c
    3b50:	656e6966 	strbvs	r6, [lr, #-2406]!	; 0xfffff69a
    3b54:	00312064 	eorseq	r2, r1, r4, rrx
    3b58:	4c4c5f5f 	mcrrmi	15, 5, r5, ip, cr15
    3b5c:	55434341 	strbpl	r4, [r3, #-833]	; 0xfffffcbf
    3b60:	414d5f4d 	cmpmi	sp, sp, asr #30
    3b64:	205f5f58 	subscs	r5, pc, r8, asr pc	; <UNPREDICTABLE>
    3b68:	46375830 			; <UNDEFINED> instruction: 0x46375830
    3b6c:	46464646 	strbmi	r4, [r6], -r6, asr #12
    3b70:	46464646 	strbmi	r4, [r6], -r6, asr #12
    3b74:	46464646 	strbmi	r4, [r6], -r6, asr #12
    3b78:	2d504646 	ldclcs	6, cr4, [r0, #-280]	; 0xfffffee8
    3b7c:	4c4c3133 	stfmie	f3, [ip], {51}	; 0x33
    3b80:	5f5f004b 	svcpl	0x005f004b
    3b84:	6465656e 	strbtvs	r6, [r5], #-1390	; 0xfffffa92
    3b88:	4c554e5f 	mrrcmi	14, 5, r4, r5, cr15
    3b8c:	5845004c 	stmdapl	r5, {r2, r3, r6}^
    3b90:	32314954 	eorscc	r4, r1, #84, 18	; 0x150000
    3b94:	32314150 	eorscc	r4, r1, #80, 2
    3b98:	58452820 	stmdapl	r5, {r5, fp, sp}^
    3b9c:	475f4954 			; <UNDEFINED> instruction: 0x475f4954
    3ba0:	5f4f4950 	svcpl	0x004f4950
    3ba4:	7070614d 	rsbsvc	r6, r0, sp, asr #2
    3ba8:	5f676e69 	svcpl	0x00676e69
    3bac:	457b2974 	ldrbmi	r2, [fp, #-2420]!	; 0xfffff68c
    3bb0:	31495458 	cmpcc	r9, r8, asr r4
    3bb4:	47202c32 			; <UNDEFINED> instruction: 0x47202c32
    3bb8:	414f4950 	cmpmi	pc, r0, asr r9	; <UNPREDICTABLE>
    3bbc:	5047202c 	subpl	r2, r7, ip, lsr #32
    3bc0:	505f4f49 	subspl	r4, pc, r9, asr #30
    3bc4:	315f4e49 	cmpcc	pc, r9, asr #28
    3bc8:	45202c32 	strmi	r2, [r0, #-3122]!	; 0xfffff3ce
    3bcc:	31495458 	cmpcc	r9, r8, asr r4
    3bd0:	52495f32 	subpl	r5, r9, #50, 30	; 0xc8
    3bd4:	4e007d51 	mcrmi	13, 0, r7, cr0, cr1, {2}
    3bd8:	5f434956 	svcpl	0x00434956
    3bdc:	49545845 	ldmdbmi	r4, {r0, r2, r6, fp, ip, lr}^
    3be0:	315f3531 	cmpcc	pc, r1, lsr r5	; <UNPREDICTABLE>
    3be4:	52495f30 	subpl	r5, r9, #48, 30	; 0xc0
    3be8:	6e455f51 	mcrvs	15, 2, r5, cr5, cr1, {2}
    3bec:	656c6261 	strbvs	r6, [ip, #-609]!	; 0xfffffd9f
    3bf0:	564e2820 	strbpl	r2, [lr], -r0, lsr #16
    3bf4:	495f4349 	ldmdbmi	pc, {r0, r3, r6, r8, r9, lr}^	; <UNPREDICTABLE>
    3bf8:	31524553 	cmpcc	r2, r3, asr r5
    3bfc:	203d7c20 	eorscs	r7, sp, r0, lsr #24
    3c00:	383c3c31 	ldmdacc	ip!, {r0, r4, r5, sl, fp, ip, sp}
    3c04:	5f5f0029 	svcpl	0x005f0029
    3c08:	52455355 	subpl	r5, r5, #1409286145	; 0x54000001
    3c0c:	42414c5f 	submi	r4, r1, #24320	; 0x5f00
    3c10:	505f4c45 	subspl	r4, pc, r5, asr #24
    3c14:	49464552 	stmdbmi	r6, {r1, r4, r6, r8, sl, lr}^
    3c18:	205f5f58 	subscs	r5, pc, r8, asr pc	; <UNPREDICTABLE>
    3c1c:	555f5f00 	ldrbpl	r5, [pc, #-3840]	; 2d24 <_Min_Stack_Size+0x2924>
    3c20:	36544e49 	ldrbcc	r4, [r4], -r9, asr #28
    3c24:	414d5f34 	cmpmi	sp, r4, lsr pc
    3c28:	205f5f58 	subscs	r5, pc, r8, asr pc	; <UNPREDICTABLE>
    3c2c:	66667830 			; <UNDEFINED> instruction: 0x66667830
    3c30:	66666666 	strbtvs	r6, [r6], -r6, ror #12
    3c34:	66666666 	strbtvs	r6, [r6], -r6, ror #12
    3c38:	66666666 	strbtvs	r6, [r6], -r6, ror #12
    3c3c:	4c556666 	mrrcmi	6, 6, r6, r5, cr6
    3c40:	5845004c 	stmdapl	r5, {r2, r3, r6}^
    3c44:	50344954 	eorspl	r4, r4, r4, asr r9
    3c48:	28203442 	stmdacs	r0!, {r1, r6, sl, ip, sp}
    3c4c:	49545845 	ldmdbmi	r4, {r0, r2, r6, fp, ip, lr}^
    3c50:	4950475f 	ldmdbmi	r0, {r0, r1, r2, r3, r4, r6, r8, r9, sl, lr}^
    3c54:	614d5f4f 	cmpvs	sp, pc, asr #30
    3c58:	6e697070 	mcrvs	0, 3, r7, cr9, cr0, {3}
    3c5c:	29745f67 	ldmdbcs	r4!, {r0, r1, r2, r5, r6, r8, r9, sl, fp, ip, lr}^
    3c60:	5458457b 	ldrbpl	r4, [r8], #-1403	; 0xfffffa85
    3c64:	202c3449 	eorcs	r3, ip, r9, asr #8
    3c68:	4f495047 	svcmi	0x00495047
    3c6c:	47202c42 	strmi	r2, [r0, -r2, asr #24]!
    3c70:	5f4f4950 	svcpl	0x004f4950
    3c74:	5f4e4950 	svcpl	0x004e4950
    3c78:	45202c34 	strmi	r2, [r0, #-3124]!	; 0xfffff3cc
    3c7c:	34495458 	strbcc	r5, [r9], #-1112	; 0xfffffba8
    3c80:	5152495f 	cmppl	r2, pc, asr r9
    3c84:	5f5f007d 	svcpl	0x005f007d
    3c88:	544e4955 	strbpl	r4, [lr], #-2389	; 0xfffff6ab
    3c8c:	4d5f3233 	lfmmi	f3, 2, [pc, #-204]	; 3bc8 <_Min_Stack_Size+0x37c8>
    3c90:	5f5f5841 	svcpl	0x005f5841
    3c94:	66783020 	ldrbtvs	r3, [r8], -r0, lsr #32
    3c98:	66666666 	strbtvs	r6, [r6], -r6, ror #12
    3c9c:	55666666 	strbpl	r6, [r6, #-1638]!	; 0xfffff99a
    3ca0:	4e49004c 	cdpmi	0, 4, cr0, cr9, cr12, {2}
    3ca4:	5f343654 	svcpl	0x00343654
    3ca8:	29782843 	ldmdbcs	r8!, {r0, r1, r6, fp, sp}^
    3cac:	495f5f20 	ldmdbmi	pc, {r5, r8, r9, sl, fp, ip, lr}^	; <UNPREDICTABLE>
    3cb0:	3436544e 	ldrtcc	r5, [r6], #-1102	; 0xfffffbb2
    3cb4:	7828435f 	stmdavc	r8!, {r0, r1, r2, r3, r4, r6, r8, r9, lr}
    3cb8:	415f0029 	cmpmi	pc, r9, lsr #32
    3cbc:	4c494654 	mcrrmi	6, 5, r4, r9, cr4
    3cc0:	4f535f45 	svcmi	0x00535f45
    3cc4:	45435255 	strbmi	r5, [r3, #-597]	; 0xfffffdab
    3cc8:	544e4900 	strbpl	r4, [lr], #-2304	; 0xfffff700
    3ccc:	494d5f38 	stmdbmi	sp, {r3, r4, r5, r8, r9, sl, fp, ip, lr}^
    3cd0:	2d28204e 	stccs	0, cr2, [r8, #-312]!	; 0xfffffec8
    3cd4:	4e495f5f 	mcrmi	15, 2, r5, cr9, cr15, {2}
    3cd8:	4d5f3854 	ldclmi	8, cr3, [pc, #-336]	; 3b90 <_Min_Stack_Size+0x3790>
    3cdc:	5f5f5841 	svcpl	0x005f5841
    3ce0:	31202d20 			; <UNDEFINED> instruction: 0x31202d20
    3ce4:	5f5f0029 	svcpl	0x005f0029
    3ce8:	43445453 	movtmi	r5, #17491	; 0x4453
    3cec:	5245565f 	subpl	r5, r5, #99614720	; 0x5f00000
    3cf0:	4e4f4953 			; <UNDEFINED> instruction: 0x4e4f4953
    3cf4:	32205f5f 	eorcc	r5, r0, #380	; 0x17c
    3cf8:	31313130 	teqcc	r1, r0, lsr r1
    3cfc:	5f004c32 	svcpl	0x00004c32
    3d00:	7972745f 	ldmdbvc	r2!, {r0, r1, r2, r3, r4, r6, sl, ip, sp, lr}^
    3d04:	6b636f6c 	blvs	18dfabc <_Min_Stack_Size+0x18df6bc>
    3d08:	68735f73 	ldmdavs	r3!, {r0, r1, r4, r5, r6, r8, r9, sl, fp, ip, lr}^
    3d0c:	64657261 	strbtvs	r7, [r5], #-609	; 0xfffffd9f
    3d10:	2e2e2e28 	cdpcs	14, 2, cr2, cr14, cr8, {1}
    3d14:	5f5f2029 	svcpl	0x005f2029
    3d18:	6b636f6c 	blvs	18dfad0 <_Min_Stack_Size+0x18df6d0>
    3d1c:	6e6e615f 	mcrvs	1, 3, r6, cr14, cr15, {2}
    3d20:	7461746f 	strbtvc	r7, [r1], #-1135	; 0xfffffb91
    3d24:	68732865 	ldmdavs	r3!, {r0, r2, r5, r6, fp, sp}^
    3d28:	64657261 	strbtvs	r7, [r5], #-609	; 0xfffffd9f
    3d2c:	7972745f 	ldmdbvc	r2!, {r0, r1, r2, r3, r4, r6, sl, ip, sp, lr}^
    3d30:	6b636f6c 	blvs	18dfae8 <_Min_Stack_Size+0x18df6e8>
    3d34:	6e75665f 	mrcvs	6, 3, r6, cr5, cr15, {2}
    3d38:	6f697463 	svcvs	0x00697463
    3d3c:	5f5f286e 	svcpl	0x005f286e
    3d40:	415f4156 	cmpmi	pc, r6, asr r1	; <UNPREDICTABLE>
    3d44:	5f534752 	svcpl	0x00534752
    3d48:	0029295f 	eoreq	r2, r9, pc, asr r9
    3d4c:	4e495f5f 	mcrmi	15, 2, r5, cr9, cr15, {2}
    3d50:	454c5f54 	strbmi	r5, [ip, #-3924]	; 0xfffff0ac
    3d54:	38545341 	ldmdacc	r4, {r0, r6, r8, r9, ip, lr}^
    3d58:	58414d5f 	stmdapl	r1, {r0, r1, r2, r3, r4, r6, r8, sl, fp, lr}^
    3d5c:	30205f5f 	eorcc	r5, r0, pc, asr pc
    3d60:	00663778 	rsbeq	r3, r6, r8, ror r7
    3d64:	43475f5f 	movtmi	r5, #32607	; 0x7f5f
    3d68:	54415f43 	strbpl	r5, [r1], #-3907	; 0xfffff0bd
    3d6c:	43494d4f 	movtmi	r4, #40271	; 0x9d4f
    3d70:	494f505f 	stmdbmi	pc, {r0, r1, r2, r3, r4, r6, ip, lr}^	; <UNPREDICTABLE>
    3d74:	5245544e 	subpl	r5, r5, #1308622848	; 0x4e000000
    3d78:	434f4c5f 	movtmi	r4, #64607	; 0xfc5f
    3d7c:	52465f4b 	subpl	r5, r6, #300	; 0x12c
    3d80:	32204545 	eorcc	r4, r0, #289406976	; 0x11400000
    3d84:	415f5f00 	cmpmi	pc, r0, lsl #30
    3d88:	465f4d52 			; <UNDEFINED> instruction: 0x465f4d52
    3d8c:	55544145 	ldrbpl	r4, [r4, #-325]	; 0xfffffebb
    3d90:	515f4552 	cmppl	pc, r2, asr r5	; <UNPREDICTABLE>
    3d94:	20544942 	subscs	r4, r4, r2, asr #18
    3d98:	5f5f0031 	svcpl	0x005f0031
    3d9c:	5f4d5241 	svcpl	0x004d5241
    3da0:	54414546 	strbpl	r4, [r1], #-1350	; 0xfffffaba
    3da4:	5f455255 	svcpl	0x00455255
    3da8:	205a4c43 	subscs	r4, sl, r3, asr #24
    3dac:	5f5f0031 	svcpl	0x005f0031
    3db0:	4d4f5441 	cfstrdmi	mvd5, [pc, #-260]	; 3cb4 <_Min_Stack_Size+0x38b4>
    3db4:	415f4349 	cmpmi	pc, r9, asr #6
    3db8:	49555143 	ldmdbmi	r5, {r0, r1, r6, r8, ip, lr}^
    3dbc:	32204552 	eorcc	r4, r0, #343932928	; 0x14800000
    3dc0:	415f5f00 	cmpmi	pc, r0, lsl #30
    3dc4:	465f4d52 			; <UNDEFINED> instruction: 0x465f4d52
    3dc8:	55544145 	ldrbpl	r4, [r4, #-325]	; 0xfffffebb
    3dcc:	435f4552 	cmpmi	pc, #343932928	; 0x14800000
    3dd0:	4c504d4f 	mrrcmi	13, 4, r4, r0, cr15
    3dd4:	5f005845 	svcpl	0x00005845
    3dd8:	636f6c5f 	cmnvs	pc, #24320	; 0x5f00
    3ddc:	735f736b 	cmpvc	pc, #-1409286143	; 0xac000001
    3de0:	65726168 	ldrbvs	r6, [r2, #-360]!	; 0xfffffe98
    3de4:	2e2e2864 	cdpcs	8, 2, cr2, cr14, cr4, {3}
    3de8:	5f20292e 	svcpl	0x0020292e
    3dec:	636f6c5f 	cmnvs	pc, #24320	; 0x5f00
    3df0:	6e615f6b 	cdpvs	15, 6, cr5, cr1, cr11, {3}
    3df4:	61746f6e 	cmnvs	r4, lr, ror #30
    3df8:	73286574 			; <UNDEFINED> instruction: 0x73286574
    3dfc:	65726168 	ldrbvs	r6, [r2, #-360]!	; 0xfffffe98
    3e00:	6f6c5f64 	svcvs	0x006c5f64
    3e04:	665f6b63 	ldrbvs	r6, [pc], -r3, ror #22
    3e08:	74636e75 	strbtvc	r6, [r3], #-3701	; 0xfffff18b
    3e0c:	286e6f69 	stmdacs	lr!, {r0, r3, r5, r6, r8, r9, sl, fp, sp, lr}^
    3e10:	41565f5f 	cmpmi	r6, pc, asr pc
    3e14:	4752415f 			; <UNDEFINED> instruction: 0x4752415f
    3e18:	295f5f53 	ldmdbcs	pc, {r0, r1, r4, r6, r8, r9, sl, fp, ip, lr}^	; <UNPREDICTABLE>
    3e1c:	53480029 	movtpl	r0, #32809	; 0x8029
    3e20:	72665f49 	rsbvc	r5, r6, #292	; 0x124
    3e24:	38207165 	stmdacc	r0!, {r0, r2, r5, r6, r8, ip, sp, lr}
    3e28:	495f5f00 	ldmdbmi	pc, {r8, r9, sl, fp, ip, lr}^	; <UNPREDICTABLE>
    3e2c:	3631544e 	ldrtcc	r5, [r1], -lr, asr #8
    3e30:	22682220 	rsbcs	r2, r8, #32, 4
    3e34:	736e7500 	cmnvc	lr, #0, 10
    3e38:	656e6769 	strbvs	r6, [lr, #-1897]!	; 0xfffff897
    3e3c:	69732064 	ldmdbvs	r3!, {r2, r5, r6, sp}^
    3e40:	64656e67 	strbtvs	r6, [r5], #-3687	; 0xfffff199
    3e44:	4d495400 	cfstrdmi	mvd5, [r9, #-0]
    3e48:	425f3031 	subsmi	r3, pc, #49	; 0x31
    3e4c:	20455341 	subcs	r5, r5, r1, asr #6
    3e50:	30347830 	eorscc	r7, r4, r0, lsr r8
    3e54:	30353130 	eorscc	r3, r5, r0, lsr r1
    3e58:	00753030 	rsbseq	r3, r5, r0, lsr r0
    3e5c:	49555f5f 	ldmdbmi	r5, {r0, r1, r2, r3, r4, r6, r8, r9, sl, fp, ip, lr}^
    3e60:	3436544e 	ldrtcc	r5, [r6], #-1102	; 0xfffffbb2
    3e64:	5059545f 	subspl	r5, r9, pc, asr r4
    3e68:	205f5f45 	subscs	r5, pc, r5, asr #30
    3e6c:	676e6f6c 	strbvs	r6, [lr, -ip, ror #30]!
    3e70:	6e6f6c20 	cdpvs	12, 6, cr6, cr15, cr0, {1}
    3e74:	6e752067 	cdpvs	0, 7, cr2, cr5, cr7, {3}
    3e78:	6e676973 			; <UNDEFINED> instruction: 0x6e676973
    3e7c:	69206465 	stmdbvs	r0!, {r0, r2, r5, r6, sl, sp, lr}
    3e80:	5f00746e 	svcpl	0x0000746e
    3e84:	50544e49 	subspl	r4, r4, r9, asr #28
    3e88:	455f5254 	ldrbmi	r5, [pc, #-596]	; 3c3c <_Min_Stack_Size+0x383c>
    3e8c:	4e495f51 	mcrmi	15, 2, r5, cr9, cr1, {2}
    3e90:	5f002054 	svcpl	0x00002054
    3e94:	4d52415f 	ldfmie	f4, [r2, #-380]	; 0xfffffe84
    3e98:	5a49535f 	bpl	1258c1c <_Min_Stack_Size+0x125881c>
    3e9c:	5f464f45 	svcpl	0x00464f45
    3ea0:	41484357 	cmpmi	r8, r7, asr r3
    3ea4:	20545f52 	subscs	r5, r4, r2, asr pc
    3ea8:	5f5f0034 	svcpl	0x005f0034
    3eac:	33544c46 	cmpcc	r4, #17920	; 0x4600
    3eb0:	4d5f5832 	ldclmi	8, cr5, [pc, #-200]	; 3df0 <_Min_Stack_Size+0x39f0>
    3eb4:	455f5841 	ldrbmi	r5, [pc, #-2113]	; 367b <_Min_Stack_Size+0x327b>
    3eb8:	5f5f5058 	svcpl	0x005f5058
    3ebc:	32303120 	eorscc	r3, r0, #32, 2
    3ec0:	58450034 	stmdapl	r5, {r2, r4, r5}^
    3ec4:	50334954 	eorspl	r4, r3, r4, asr r9
    3ec8:	28203343 	stmdacs	r0!, {r0, r1, r6, r8, r9, ip, sp}
    3ecc:	49545845 	ldmdbmi	r4, {r0, r2, r6, fp, ip, lr}^
    3ed0:	4950475f 	ldmdbmi	r0, {r0, r1, r2, r3, r4, r6, r8, r9, sl, lr}^
    3ed4:	614d5f4f 	cmpvs	sp, pc, asr #30
    3ed8:	6e697070 	mcrvs	0, 3, r7, cr9, cr0, {3}
    3edc:	29745f67 	ldmdbcs	r4!, {r0, r1, r2, r5, r6, r8, r9, sl, fp, ip, lr}^
    3ee0:	5458457b 	ldrbpl	r4, [r8], #-1403	; 0xfffffa85
    3ee4:	202c3349 	eorcs	r3, ip, r9, asr #6
    3ee8:	4f495047 	svcmi	0x00495047
    3eec:	47202c43 	strmi	r2, [r0, -r3, asr #24]!
    3ef0:	5f4f4950 	svcpl	0x004f4950
    3ef4:	5f4e4950 	svcpl	0x004e4950
    3ef8:	45202c33 	strmi	r2, [r0, #-3123]!	; 0xfffff3cd
    3efc:	33495458 	movtcc	r5, #37976	; 0x9458
    3f00:	5152495f 	cmppl	r2, pc, asr r9
    3f04:	4155007d 	cmpmi	r5, sp, ror r0
    3f08:	495f5452 	ldmdbmi	pc, {r1, r4, r6, sl, ip, lr}^	; <UNPREDICTABLE>
    3f0c:	505f5152 	subspl	r5, pc, r2, asr r1	; <UNPREDICTABLE>
    3f10:	75282045 	strvc	r2, [r8, #-69]!	; 0xffffffbb
    3f14:	33746e69 	cmncc	r4, #1680	; 0x690
    3f18:	29745f32 	ldmdbcs	r4!, {r1, r4, r5, r8, r9, sl, fp, ip, lr}^
    3f1c:	3c3c3128 	ldfccs	f3, [ip], #-160	; 0xffffff60
    3f20:	52002938 	andpl	r2, r0, #56, 18	; 0xe0000
    3f24:	28204343 	stmdacs	r0!, {r0, r1, r6, r8, r9, lr}
    3f28:	43435228 	movtmi	r5, #12840	; 0x3228
    3f2c:	7079545f 	rsbsvc	r5, r9, pc, asr r4
    3f30:	66656465 	strbtvs	r6, [r5], -r5, ror #8
    3f34:	2a20745f 	bcs	8210b8 <_Min_Stack_Size+0x820cb8>
    3f38:	43435229 	movtmi	r5, #12841	; 0x3229
    3f3c:	5341425f 	movtpl	r4, #4703	; 0x125f
    3f40:	4e002945 	vmlsmi.f16	s4, s0, s10	; <UNPREDICTABLE>
    3f44:	5f434956 	svcpl	0x00434956
    3f48:	49545845 	ldmdbmi	r4, {r0, r2, r6, fp, ip, lr}^
    3f4c:	52495f34 	subpl	r5, r9, #52, 30	; 0xd0
    3f50:	6e455f51 	mcrvs	15, 2, r5, cr5, cr1, {2}
    3f54:	656c6261 	strbvs	r6, [ip, #-609]!	; 0xfffffd9f
    3f58:	564e2820 	strbpl	r2, [lr], -r0, lsr #16
    3f5c:	495f4349 	ldmdbmi	pc, {r0, r3, r6, r8, r9, lr}^	; <UNPREDICTABLE>
    3f60:	30524553 	subscc	r4, r2, r3, asr r5
    3f64:	203d7c20 	eorscs	r7, sp, r0, lsr #24
    3f68:	313c3c31 	teqcc	ip, r1, lsr ip
    3f6c:	5f002930 	svcpl	0x00002930
    3f70:	4e49555f 	mcrmi	5, 2, r5, cr9, cr15, {2}
    3f74:	454c5f54 	strbmi	r5, [ip, #-3924]	; 0xfffff0ac
    3f78:	33545341 	cmpcc	r4, #67108865	; 0x4000001
    3f7c:	414d5f32 	cmpmi	sp, r2, lsr pc
    3f80:	205f5f58 	subscs	r5, pc, r8, asr pc	; <UNPREDICTABLE>
    3f84:	66667830 			; <UNDEFINED> instruction: 0x66667830
    3f88:	66666666 	strbtvs	r6, [r6], -r6, ror #12
    3f8c:	4c556666 	mrrcmi	6, 6, r6, r5, cr6
    3f90:	54584500 	ldrbpl	r4, [r8], #-1280	; 0xfffffb00
    3f94:	41503549 	cmpmi	r0, r9, asr #10
    3f98:	45282035 	strmi	r2, [r8, #-53]!	; 0xffffffcb
    3f9c:	5f495458 	svcpl	0x00495458
    3fa0:	4f495047 	svcmi	0x00495047
    3fa4:	70614d5f 	rsbvc	r4, r1, pc, asr sp
    3fa8:	676e6970 			; <UNDEFINED> instruction: 0x676e6970
    3fac:	7b29745f 	blvc	a61130 <_Min_Stack_Size+0xa60d30>
    3fb0:	49545845 	ldmdbmi	r4, {r0, r2, r6, fp, ip, lr}^
    3fb4:	47202c35 			; <UNDEFINED> instruction: 0x47202c35
    3fb8:	414f4950 	cmpmi	pc, r0, asr r9	; <UNPREDICTABLE>
    3fbc:	5047202c 	subpl	r2, r7, ip, lsr #32
    3fc0:	505f4f49 	subspl	r4, pc, r9, asr #30
    3fc4:	355f4e49 	ldrbcc	r4, [pc, #-3657]	; 3183 <_Min_Stack_Size+0x2d83>
    3fc8:	5845202c 	stmdapl	r5, {r2, r3, r5, sp}^
    3fcc:	5f354954 	svcpl	0x00354954
    3fd0:	7d515249 	lfmvc	f5, 2, [r1, #-292]	; 0xfffffedc
    3fd4:	445f5f00 	ldrbmi	r5, [pc], #-3840	; 3fdc <_Min_Stack_Size+0x3bdc>
    3fd8:	455f4c42 	ldrbmi	r4, [pc, #-3138]	; 339e <_Min_Stack_Size+0x2f9e>
    3fdc:	4c495350 	mcrrmi	3, 5, r5, r9, cr0
    3fe0:	5f5f4e4f 	svcpl	0x005f4e4f
    3fe4:	64282820 	strtvs	r2, [r8], #-2080	; 0xfffff7e0
    3fe8:	6c62756f 	cfstr64vs	mvdx7, [r2], #-444	; 0xfffffe44
    3fec:	2e322965 	vsubcs.f16	s4, s4, s11	; <UNPREDICTABLE>
    3ff0:	34303232 	ldrtcc	r3, [r0], #-562	; 0xfffffdce
    3ff4:	34303634 	ldrtcc	r3, [r0], #-1588	; 0xfffff9cc
    3ff8:	30353239 	eorscc	r3, r5, r9, lsr r2
    3ffc:	31333133 	teqcc	r3, r3, lsr r1
    4000:	36312d65 	ldrtcc	r2, [r1], -r5, ror #26
    4004:	4700294c 	strmi	r2, [r0, -ip, asr #18]
    4008:	5f4f4950 	svcpl	0x004f4950
    400c:	45455053 	strbmi	r5, [r5, #-83]	; 0xffffffad
    4010:	30355f44 	eorscc	r5, r5, r4, asr #30
    4014:	7830204d 	ldmdavc	r0!, {r0, r2, r3, r6, sp}
    4018:	30303030 	eorscc	r3, r0, r0, lsr r0
    401c:	33303030 	teqcc	r0, #48	; 0x30
    4020:	5f5f0075 	svcpl	0x005f0075
    4024:	4d4f5441 	cfstrdmi	mvd5, [pc, #-260]	; 3f28 <_Min_Stack_Size+0x3b28>
    4028:	435f4349 	cmpmi	pc, #603979777	; 0x24000001
    402c:	55534e4f 	ldrbpl	r4, [r3, #-3663]	; 0xfffff1b1
    4030:	3120454d 			; <UNDEFINED> instruction: 0x3120454d
    4034:	495f5f00 	ldmdbmi	pc, {r8, r9, sl, fp, ip, lr}^	; <UNPREDICTABLE>
    4038:	4c5f544e 	cfldrdmi	mvd5, [pc], {78}	; 0x4e
    403c:	54534145 	ldrbpl	r4, [r3], #-325	; 0xfffffebb
    4040:	575f3436 	smmlarpl	pc, r6, r4, r3	; <UNPREDICTABLE>
    4044:	48544449 	ldmdami	r4, {r0, r3, r6, sl, lr}^
    4048:	36205f5f 	qsaxcc	r5, r0, pc	; <UNPREDICTABLE>
    404c:	5f5f0034 	svcpl	0x005f0034
    4050:	5f544c46 	svcpl	0x00544c46
    4054:	5f534148 	svcpl	0x00534148
    4058:	49464e49 	stmdbmi	r6, {r0, r3, r6, r9, sl, fp, lr}^
    405c:	5954494e 	ldmdbpl	r4, {r1, r2, r3, r6, r8, fp, lr}^
    4060:	31205f5f 			; <UNDEFINED> instruction: 0x31205f5f
    4064:	45525f00 	ldrbmi	r5, [r2, #-3840]	; 0xfffff100
    4068:	5f544e45 	svcpl	0x00544e45
    406c:	424f4c47 	submi	r4, pc, #18176	; 0x4700
    4070:	415f4c41 	cmpmi	pc, r1, asr #24
    4074:	49584554 	ldmdbmi	r8, {r2, r4, r6, r8, sl, lr}^
    4078:	00312054 	eorseq	r2, r1, r4, asr r0
    407c:	43415f5f 	movtmi	r5, #8031	; 0x1f5f
    4080:	5f4d5543 	svcpl	0x004d5543
    4084:	5f58414d 	svcpl	0x0058414d
    4088:	5830205f 	ldmdapl	r0!, {r0, r1, r2, r3, r4, r6, sp}
    408c:	46464637 			; <UNDEFINED> instruction: 0x46464637
    4090:	46464646 	strbmi	r4, [r6], -r6, asr #12
    4094:	35312d50 	ldrcc	r2, [r1, #-3408]!	; 0xfffff2b0
    4098:	5f5f004b 	svcpl	0x005f004b
    409c:	38544e49 	ldmdacc	r4, {r0, r3, r6, r9, sl, fp, lr}^
    40a0:	58414d5f 	stmdapl	r1, {r0, r1, r2, r3, r4, r6, r8, sl, fp, lr}^
    40a4:	30205f5f 	eorcc	r5, r0, pc, asr pc
    40a8:	00663778 	rsbeq	r3, r6, r8, ror r7
    40ac:	5f434e49 	svcpl	0x00434e49
    40b0:	334d5453 	movtcc	r5, #54355	; 0xd453
    40b4:	31465f32 	cmpcc	r6, r2, lsr pc
    40b8:	36433330 			; <UNDEFINED> instruction: 0x36433330
    40bc:	4952445f 	ldmdbmi	r2, {r0, r1, r2, r3, r4, r6, sl, lr}^
    40c0:	53524556 	cmppl	r2, #360710144	; 0x15800000
    40c4:	4950475f 	ldmdbmi	r0, {r0, r1, r2, r3, r4, r6, r8, r9, sl, lr}^
    40c8:	5f485f4f 	svcpl	0x00485f4f
    40cc:	5f5f0020 	svcpl	0x005f0020
    40d0:	5f434347 	svcpl	0x00434347
    40d4:	45564148 	ldrbmi	r4, [r6, #-328]	; 0xfffffeb8
    40d8:	4157445f 	cmpmi	r7, pc, asr r4
    40dc:	5f324652 	svcpl	0x00324652
    40e0:	5f494643 	svcpl	0x00494643
    40e4:	204d5341 	subcs	r5, sp, r1, asr #6
    40e8:	5f5f0031 	svcpl	0x005f0031
    40ec:	746e695f 	strbtvc	r6, [lr], #-2399	; 0xfffff6a1
    40f0:	5f745f38 	svcpl	0x00745f38
    40f4:	69666564 	stmdbvs	r6!, {r2, r5, r6, r8, sl, sp, lr}^
    40f8:	2064656e 	rsbcs	r6, r4, lr, ror #10
    40fc:	5f5f0031 	svcpl	0x005f0031
    4100:	41524653 	cmpmi	r2, r3, asr r6
    4104:	4d5f5443 	cfldrdmi	mvd5, [pc, #-268]	; 4000 <_Min_Stack_Size+0x3c00>
    4108:	5f5f4e49 	svcpl	0x005f4e49
    410c:	302d2820 	eorcc	r2, sp, r0, lsr #16
    4110:	5248352e 	subpl	r3, r8, #192937984	; 0xb800000
    4114:	352e302d 	strcc	r3, [lr, #-45]!	; 0xffffffd3
    4118:	00295248 	eoreq	r5, r9, r8, asr #4
    411c:	41535f5f 	cmpmi	r3, pc, asr pc
    4120:	4942495f 	stmdbmi	r2, {r0, r1, r2, r3, r4, r6, r8, fp, lr}^
    4124:	205f5f54 	subscs	r5, pc, r4, asr pc	; <UNPREDICTABLE>
    4128:	5f003631 	svcpl	0x00003631
    412c:	4e49555f 	mcrmi	5, 2, r5, cr9, cr15, {2}
    4130:	41465f54 	cmpmi	r6, r4, asr pc
    4134:	36315453 			; <UNDEFINED> instruction: 0x36315453
    4138:	5059545f 	subspl	r5, r9, pc, asr r4
    413c:	205f5f45 	subscs	r5, pc, r5, asr #30
    4140:	69736e75 	ldmdbvs	r3!, {r0, r2, r4, r5, r6, r9, sl, fp, sp, lr}^
    4144:	64656e67 	strbtvs	r6, [r5], #-3687	; 0xfffff199
    4148:	746e6920 	strbtvc	r6, [lr], #-2336	; 0xfffff6e0
    414c:	6f5f5f00 	svcvs	0x005f5f00
    4150:	65736666 	ldrbvs	r6, [r3, #-1638]!	; 0xfffff99a
    4154:	28666f74 	stmdacs	r6!, {r2, r4, r5, r6, r8, r9, sl, fp, sp, lr}^
    4158:	65707974 	ldrbvs	r7, [r0, #-2420]!	; 0xfffff68c
    415c:	6569662c 	strbvs	r6, [r9, #-1580]!	; 0xfffff9d4
    4160:	2029646c 	eorcs	r6, r9, ip, ror #8
    4164:	7366666f 	cmnvc	r6, #116391936	; 0x6f00000
    4168:	666f7465 	strbtvs	r7, [pc], -r5, ror #8
    416c:	70797428 	rsbsvc	r7, r9, r8, lsr #8
    4170:	66202c65 	strtvs	r2, [r0], -r5, ror #24
    4174:	646c6569 	strbtvs	r6, [ip], #-1385	; 0xfffffa97
    4178:	5f5f0029 	svcpl	0x005f0029
    417c:	5f434347 	svcpl	0x00434347
    4180:	5f434549 	svcpl	0x00434549
    4184:	5f393535 	svcpl	0x00393535
    4188:	504d4f43 	subpl	r4, sp, r3, asr #30
    418c:	2058454c 	subscs	r4, r8, ip, asr #10
    4190:	5f5f0030 	svcpl	0x005f0030
    4194:	5f4d5241 	svcpl	0x004d5241
    4198:	54414546 	strbpl	r4, [r1], #-1350	; 0xfffffaba
    419c:	5f455255 	svcpl	0x00455255
    41a0:	0045564d 	subeq	r5, r5, sp, asr #12
    41a4:	6f6e5f5f 	svcvs	0x006e5f5f
    41a8:	6c756e6e 	ldclvs	14, cr6, [r5], #-440	; 0xfffffe48
    41ac:	6c615f6c 	stclvs	15, cr5, [r1], #-432	; 0xfffffe50
    41b0:	5f5f206c 	svcpl	0x005f206c
    41b4:	72747461 	rsbsvc	r7, r4, #1627389952	; 0x61000000
    41b8:	74756269 	ldrbtvc	r6, [r5], #-617	; 0xfffffd97
    41bc:	285f5f65 	ldmdacs	pc, {r0, r2, r5, r6, r8, r9, sl, fp, ip, lr}^	; <UNPREDICTABLE>
    41c0:	6e5f5f28 	cdpvs	15, 5, cr5, cr15, cr8, {1}
    41c4:	756e6e6f 	strbvc	r6, [lr, #-3695]!	; 0xfffff191
    41c8:	5f5f6c6c 	svcpl	0x005f6c6c
    41cc:	5f002929 	svcpl	0x00002929
    41d0:	4d52415f 	ldfmie	f4, [r2, #-380]	; 0xfffffe84
    41d4:	3150465f 	cmpcc	r0, pc, asr r6
    41d8:	4f465f36 	svcmi	0x00465f36
    41dc:	54414d52 	strbpl	r4, [r1], #-3410	; 0xfffff2ae
    41e0:	4545495f 	strbmi	r4, [r5, #-2399]	; 0xfffff6a1
    41e4:	525f0045 	subspl	r0, pc, #69	; 0x45
    41e8:	544e4545 	strbpl	r4, [lr], #-1349	; 0xfffffabb
    41ec:	53424d5f 	movtpl	r4, #11615	; 0x2d5f
    41f0:	574f5452 	smlsldpl	r5, pc, r2, r4	; <UNPREDICTABLE>
    41f4:	535f5343 	cmppl	pc, #201326593	; 0xc000001
    41f8:	45544154 	ldrbmi	r4, [r4, #-340]	; 0xfffffeac
    41fc:	72747028 	rsbsvc	r7, r4, #40	; 0x28
    4200:	28282029 	stmdacs	r8!, {r0, r3, r5, sp}
    4204:	29727470 	ldmdbcs	r2!, {r4, r5, r6, sl, ip, sp, lr}^
    4208:	6d5f3e2d 	ldclvs	14, cr3, [pc, #-180]	; 415c <_Min_Stack_Size+0x3d5c>
    420c:	2d637369 	stclcs	3, cr7, [r3, #-420]!	; 0xfffffe5c
    4210:	626d5f3e 	rsbvs	r5, sp, #62, 30	; 0xf8
    4214:	6f747273 	svcvs	0x00747273
    4218:	5f736377 	svcpl	0x00736377
    421c:	74617473 	strbtvc	r7, [r1], #-1139	; 0xfffffb8d
    4220:	5f002965 	svcpl	0x00002965
    4224:	49534f50 	ldmdbmi	r3, {r4, r6, r8, r9, sl, fp, lr}^
    4228:	4f535f58 	svcmi	0x00535f58
    422c:	45435255 	strbmi	r5, [r3, #-597]	; 0xfffffdab
    4230:	4e415200 	cdpmi	2, 4, cr5, cr1, cr0, {0}
    4234:	414d5f44 	cmpmi	sp, r4, asr #30
    4238:	5f5f2058 	svcpl	0x005f2058
    423c:	444e4152 	strbmi	r4, [lr], #-338	; 0xfffffeae
    4240:	58414d5f 	stmdapl	r1, {r0, r1, r2, r3, r4, r6, r8, sl, fp, lr}^
    4244:	755f5f00 	ldrbvc	r5, [pc, #-3840]	; 334c <_Min_Stack_Size+0x2f4c>
    4248:	33746e69 	cmncc	r4, #1680	; 0x690
    424c:	00745f32 	rsbseq	r5, r4, r2, lsr pc
    4250:	4f495047 	svcmi	0x00495047
    4254:	444f4d5f 	strbmi	r4, [pc], #-3423	; 425c <_Min_Stack_Size+0x3e5c>
    4258:	4e495f45 	cdpmi	15, 4, cr5, cr9, cr5, {2}
    425c:	5f545550 	svcpl	0x00545550
    4260:	30204450 	eorcc	r4, r0, r0, asr r4
    4264:	30303078 	eorscc	r3, r0, r8, ror r0
    4268:	30303030 	eorscc	r3, r0, r0, lsr r0
    426c:	5f5f0033 	svcpl	0x005f0033
    4270:	54464f53 	strbpl	r4, [r6], #-3923	; 0xfffff0ad
    4274:	5f5f5046 	svcpl	0x005f5046
    4278:	5f003120 	svcpl	0x00003120
    427c:	4e454552 	mcrmi	5, 2, r4, cr5, cr2, {2}
    4280:	4d545f54 	ldclmi	15, cr5, [r4, #-336]	; 0xfffffeb0
    4284:	72747028 	rsbsvc	r7, r4, #40	; 0x28
    4288:	28282029 	stmdacs	r8!, {r0, r3, r5, sp}
    428c:	29727470 	ldmdbcs	r2!, {r4, r5, r6, sl, ip, sp, lr}^
    4290:	6c5f3e2d 	mrrcvs	14, 2, r3, pc, cr13	; <UNPREDICTABLE>
    4294:	6c61636f 	stclvs	3, cr6, [r1], #-444	; 0xfffffe44
    4298:	656d6974 	strbvs	r6, [sp, #-2420]!	; 0xfffff68c
    429c:	6675625f 			; <UNDEFINED> instruction: 0x6675625f
    42a0:	545f0029 	ldrbpl	r0, [pc], #-41	; 42a8 <_Min_Stack_Size+0x3ea8>
    42a4:	5a49535f 	bpl	1259028 <_Min_Stack_Size+0x1258c28>
    42a8:	00205f45 	eoreq	r5, r0, r5, asr #30
    42ac:	4c465f5f 	mcrrmi	15, 5, r5, r6, cr15
    42b0:	56455f54 			; <UNDEFINED> instruction: 0x56455f54
    42b4:	4d5f4c41 	ldclmi	12, cr4, [pc, #-260]	; 41b8 <_Min_Stack_Size+0x3db8>
    42b8:	4f485445 	svcmi	0x00485445
    42bc:	53545f44 	cmppl	r4, #68, 30	; 0x110
    42c0:	3638315f 			; <UNDEFINED> instruction: 0x3638315f
    42c4:	335f3136 	cmpcc	pc, #-2147483635	; 0x8000000d
    42c8:	30205f5f 	eorcc	r5, r0, pc, asr pc
    42cc:	615f5f00 	cmpvs	pc, r0, lsl #30
    42d0:	69727474 	ldmdbvs	r2!, {r2, r4, r5, r6, sl, ip, sp, lr}^
    42d4:	65747562 	ldrbvs	r7, [r4, #-1378]!	; 0xfffffa9e
    42d8:	6c616d5f 	stclvs	13, cr6, [r1], #-380	; 0xfffffe84
    42dc:	5f636f6c 	svcpl	0x00636f6c
    42e0:	4500205f 	strmi	r2, [r0, #-95]	; 0xffffffa1
    42e4:	31495458 	cmpcc	r9, r8, asr r4
    42e8:	31425034 	cmpcc	r2, r4, lsr r0
    42ec:	45282034 	strmi	r2, [r8, #-52]!	; 0xffffffcc
    42f0:	5f495458 	svcpl	0x00495458
    42f4:	4f495047 	svcmi	0x00495047
    42f8:	70614d5f 	rsbvc	r4, r1, pc, asr sp
    42fc:	676e6970 			; <UNDEFINED> instruction: 0x676e6970
    4300:	7b29745f 	blvc	a61484 <_Min_Stack_Size+0xa61084>
    4304:	49545845 	ldmdbmi	r4, {r0, r2, r6, fp, ip, lr}^
    4308:	202c3431 	eorcs	r3, ip, r1, lsr r4
    430c:	4f495047 	svcmi	0x00495047
    4310:	47202c42 	strmi	r2, [r0, -r2, asr #24]!
    4314:	5f4f4950 	svcpl	0x004f4950
    4318:	5f4e4950 	svcpl	0x004e4950
    431c:	202c3431 	eorcs	r3, ip, r1, lsr r4
    4320:	49545845 	ldmdbmi	r4, {r0, r2, r6, fp, ip, lr}^
    4324:	495f3431 	ldmdbmi	pc, {r0, r4, r5, sl, ip, sp}^	; <UNPREDICTABLE>
    4328:	007d5152 	rsbseq	r5, sp, r2, asr r1
    432c:	43535f5f 	cmpmi	r3, #380	; 0x17c
    4330:	5f524148 	svcpl	0x00524148
    4334:	54444957 	strbpl	r4, [r4], #-2391	; 0xfffff6a9
    4338:	205f5f48 	subscs	r5, pc, r8, asr #30
    433c:	43520038 	cmpmi	r2, #56	; 0x38
    4340:	53555f43 	cmppl	r5, #268	; 0x10c
    4344:	31545241 	cmpcc	r4, r1, asr #4
    4348:	4b4c435f 	blmi	13150cc <_Min_Stack_Size+0x1314ccc>
    434c:	7365725f 	cmnvc	r5, #-268435451	; 0xf0000005
    4350:	29287465 	stmdbcs	r8!, {r0, r2, r5, r6, sl, ip, sp, lr}
    4354:	43522820 	cmpmi	r2, #32, 16	; 0x200000
    4358:	413e2d43 	teqmi	lr, r3, asr #26
    435c:	52324250 	eorspl	r4, r2, #80, 4
    4360:	20525453 	subscs	r5, r2, r3, asr r4
    4364:	28203d7c 	stmdacs	r0!, {r2, r3, r4, r5, r6, r8, sl, fp, ip, sp}
    4368:	313c3c31 	teqcc	ip, r1, lsr ip
    436c:	00292934 	eoreq	r2, r9, r4, lsr r9
    4370:	38544e49 	ldmdacc	r4, {r0, r3, r6, r9, sl, fp, lr}^
    4374:	7828435f 	stmdavc	r8!, {r0, r1, r2, r3, r4, r6, r8, r9, lr}
    4378:	5f5f2029 	svcpl	0x005f2029
    437c:	38544e49 	ldmdacc	r4, {r0, r3, r6, r9, sl, fp, lr}^
    4380:	7828435f 	stmdavc	r8!, {r0, r1, r2, r3, r4, r6, r8, r9, lr}
    4384:	5f5f0029 	svcpl	0x005f0029
    4388:	4c4c554e 	cfstr64mi	mvdx5, [ip], {78}	; 0x4e
    438c:	4c494241 	sfmmi	f4, 2, [r9], {65}	; 0x41
    4390:	5f595449 	svcpl	0x00595449
    4394:	47415250 	smlsldmi	r5, r1, r0, r2
    4398:	505f414d 	subspl	r4, pc, sp, asr #2
    439c:	0020504f 	eoreq	r5, r0, pc, asr #32
    43a0:	49555f5f 	ldmdbmi	r5, {r0, r1, r2, r3, r4, r6, r8, r9, sl, fp, ip, lr}^
    43a4:	465f544e 	ldrbmi	r5, [pc], -lr, asr #8
    43a8:	38545341 	ldmdacc	r4, {r0, r6, r8, r9, ip, lr}^
    43ac:	5059545f 	subspl	r5, r9, pc, asr r4
    43b0:	205f5f45 	subscs	r5, pc, r5, asr #30
    43b4:	69736e75 	ldmdbvs	r3!, {r0, r2, r4, r5, r6, r9, sl, fp, sp, lr}^
    43b8:	64656e67 	strbtvs	r6, [r5], #-3687	; 0xfffff199
    43bc:	746e6920 	strbtvc	r6, [lr], #-2336	; 0xfffff6e0
    43c0:	4c5f5f00 	mrrcmi	15, 0, r5, pc, cr0	; <UNPREDICTABLE>
    43c4:	4343414c 	movtmi	r4, #12620	; 0x314c
    43c8:	495f4d55 	ldmdbmi	pc, {r0, r2, r4, r6, r8, sl, fp, lr}^	; <UNPREDICTABLE>
    43cc:	5f544942 	svcpl	0x00544942
    43d0:	3233205f 	eorscc	r2, r3, #95	; 0x5f
    43d4:	6c5f5f00 	mrrcvs	15, 0, r5, pc, cr0	; <UNPREDICTABLE>
    43d8:	5f6b636f 	svcpl	0x006b636f
    43dc:	736f6c63 	cmnvc	pc, #25344	; 0x6300
    43e0:	65725f65 	ldrbvs	r5, [r2, #-3941]!	; 0xfffff09b
    43e4:	73727563 	cmnvc	r2, #415236096	; 0x18c00000
    43e8:	28657669 	stmdacs	r5!, {r0, r3, r5, r6, r9, sl, ip, sp, lr}^
    43ec:	6b636f6c 	blvs	18e01a4 <_Min_Stack_Size+0x18dfda4>
    43f0:	5f5f2029 	svcpl	0x005f2029
    43f4:	61746572 	cmnvs	r4, r2, ror r5
    43f8:	74656772 	strbtvc	r6, [r5], #-1906	; 0xfffff88e
    43fc:	636f6c5f 	cmnvs	pc, #24320	; 0x5f00
    4400:	6c635f6b 	stclvs	15, cr5, [r3], #-428	; 0xfffffe54
    4404:	5f65736f 	svcpl	0x0065736f
    4408:	75636572 	strbvc	r6, [r3, #-1394]!	; 0xfffffa8e
    440c:	76697372 			; <UNDEFINED> instruction: 0x76697372
    4410:	6f6c2865 	svcvs	0x006c2865
    4414:	00296b63 	eoreq	r6, r9, r3, ror #22
    4418:	49545845 	ldmdbmi	r4, {r0, r2, r6, fp, ip, lr}^
    441c:	30445030 	subcc	r5, r4, r0, lsr r0
    4420:	58452820 	stmdapl	r5, {r5, fp, sp}^
    4424:	475f4954 			; <UNDEFINED> instruction: 0x475f4954
    4428:	5f4f4950 	svcpl	0x004f4950
    442c:	7070614d 	rsbsvc	r6, r0, sp, asr #2
    4430:	5f676e69 	svcpl	0x00676e69
    4434:	457b2974 	ldrbmi	r2, [fp, #-2420]!	; 0xfffff68c
    4438:	30495458 	subcc	r5, r9, r8, asr r4
    443c:	5047202c 	subpl	r2, r7, ip, lsr #32
    4440:	2c444f49 	mcrrcs	15, 4, r4, r4, cr9
    4444:	49504720 	ldmdbmi	r0, {r5, r8, r9, sl, lr}^
    4448:	49505f4f 	ldmdbmi	r0, {r0, r1, r2, r3, r6, r8, r9, sl, fp, ip, lr}^
    444c:	2c305f4e 	ldccs	15, cr5, [r0], #-312	; 0xfffffec8
    4450:	54584520 	ldrbpl	r4, [r8], #-1312	; 0xfffffae0
    4454:	495f3049 	ldmdbmi	pc, {r0, r3, r6, ip, sp}^	; <UNPREDICTABLE>
    4458:	007d5152 	rsbseq	r5, sp, r2, asr r1
    445c:	4e495f5f 	mcrmi	15, 2, r5, cr9, cr15, {2}
    4460:	5f323354 	svcpl	0x00323354
    4464:	5f58414d 	svcpl	0x0058414d
    4468:	7830205f 	ldmdavc	r0!, {r0, r1, r2, r3, r4, r6, sp}
    446c:	66666637 			; <UNDEFINED> instruction: 0x66666637
    4470:	66666666 	strbtvs	r6, [r6], -r6, ror #12
    4474:	5f5f004c 	svcpl	0x005f004c
    4478:	5f6e696d 	svcpl	0x006e696d
    447c:	657a6973 	ldrbvs	r6, [sl, #-2419]!	; 0xfffff68d
    4480:	20297828 	eorcs	r7, r9, r8, lsr #16
    4484:	74617473 	strbtvc	r7, [r1], #-1139	; 0xfffffb8d
    4488:	28206369 	stmdacs	r0!, {r0, r3, r5, r6, r8, r9, sp, lr}
    448c:	5f002978 	svcpl	0x00002978
    4490:	454d4954 	strbmi	r4, [sp, #-2388]	; 0xfffff6ac
    4494:	5f545f52 	svcpl	0x00545f52
    4498:	736e7520 	cmnvc	lr, #32, 10	; 0x8000000
    449c:	656e6769 	strbvs	r6, [lr, #-1897]!	; 0xfffff897
    44a0:	6f6c2064 	svcvs	0x006c2064
    44a4:	5f00676e 	svcpl	0x0000676e
    44a8:	4745425f 	smlsldmi	r4, r5, pc, r2	; <UNPREDICTABLE>
    44ac:	445f4e49 	ldrbmi	r4, [pc], #-3657	; 44b4 <_Min_Stack_Size+0x40b4>
    44b0:	534c4345 	movtpl	r4, #49989	; 0xc345
    44b4:	5f5f0020 	svcpl	0x005f0020
    44b8:	5f544e49 	svcpl	0x00544e49
    44bc:	5341454c 	movtpl	r4, #5452	; 0x154c
    44c0:	5f343654 	svcpl	0x00343654
    44c4:	5f58414d 	svcpl	0x0058414d
    44c8:	7830205f 	ldmdavc	r0!, {r0, r1, r2, r3, r4, r6, sp}
    44cc:	66666637 			; <UNDEFINED> instruction: 0x66666637
    44d0:	66666666 	strbtvs	r6, [r6], -r6, ror #12
    44d4:	66666666 	strbtvs	r6, [r6], -r6, ror #12
    44d8:	66666666 	strbtvs	r6, [r6], -r6, ror #12
    44dc:	5f004c4c 	svcpl	0x00004c4c
    44e0:	4350415f 	cmpmi	r0, #-1073741801	; 0xc0000017
    44e4:	32335f53 	eorscc	r5, r3, #332	; 0x14c
    44e8:	31205f5f 			; <UNDEFINED> instruction: 0x31205f5f
    44ec:	415f5f00 	cmpmi	pc, r0, lsl #30
    44f0:	465f4d52 			; <UNDEFINED> instruction: 0x465f4d52
    44f4:	55544145 	ldrbpl	r4, [r4, #-325]	; 0xfffffebb
    44f8:	425f4552 	subsmi	r4, pc, #343932928	; 0x14800000
    44fc:	5f363146 	svcpl	0x00363146
    4500:	54434556 	strbpl	r4, [r3], #-1366	; 0xfffffaaa
    4504:	415f524f 	cmpmi	pc, pc, asr #4
    4508:	48544952 	ldmdami	r4, {r1, r4, r6, r8, fp, lr}^
    450c:	4954454d 	ldmdbmi	r4, {r0, r2, r3, r6, r8, sl, lr}^
    4510:	535f0043 	cmppl	pc, #67	; 0x43
    4514:	5f5f5359 	svcpl	0x005f5359
    4518:	49445453 	stmdbmi	r4, {r0, r1, r4, r6, sl, ip, lr}^
    451c:	485f544e 	ldmdami	pc, {r1, r2, r3, r6, sl, ip, lr}^	; <UNPREDICTABLE>
    4520:	5f5f0020 	svcpl	0x005f0020
    4524:	6465656e 	strbtvs	r6, [r5], #-1390	; 0xfffffa92
    4528:	4c554e5f 	mrrcmi	14, 5, r4, r5, cr15
    452c:	4600204c 	strmi	r2, [r0], -ip, asr #32
    4530:	4853414c 	ldmdami	r3, {r2, r3, r6, r8, lr}^
    4534:	5341425f 	movtpl	r4, #4703	; 0x125f
    4538:	78302045 	ldmdavc	r0!, {r0, r2, r6, sp}
    453c:	30303830 	eorscc	r3, r0, r0, lsr r8
    4540:	30303030 	eorscc	r3, r0, r0, lsr r0
    4544:	445f0075 	ldrbmi	r0, [pc], #-117	; 454c <_Min_Stack_Size+0x414c>
    4548:	55414645 	strbpl	r4, [r1, #-1605]	; 0xfffff9bb
    454c:	535f544c 	cmppl	pc, #76, 8	; 0x4c000000
    4550:	4352554f 	cmpmi	r2, #331350016	; 0x13c00000
    4554:	00312045 	eorseq	r2, r1, r5, asr #32
    4558:	4c465f5f 	mcrrmi	15, 5, r5, r6, cr15
    455c:	5f323354 	svcpl	0x00323354
    4560:	544e414d 	strbpl	r4, [lr], #-333	; 0xfffffeb3
    4564:	4749445f 	smlsldmi	r4, r9, pc, r4	; <UNPREDICTABLE>
    4568:	32205f5f 	eorcc	r5, r0, #380	; 0x17c
    456c:	455f0034 	ldrbmi	r0, [pc, #-52]	; 4540 <_Min_Stack_Size+0x4140>
    4570:	50534d5f 	subspl	r4, r3, pc, asr sp
    4574:	735f5f00 	cmpvc	pc, #0, 30
    4578:	69746365 	ldmdbvs	r4!, {r0, r2, r5, r6, r8, r9, sp, lr}^
    457c:	78286e6f 	stmdavc	r8!, {r0, r1, r2, r3, r5, r6, r9, sl, fp, sp, lr}
    4580:	5f5f2029 	svcpl	0x005f2029
    4584:	72747461 	rsbsvc	r7, r4, #1627389952	; 0x61000000
    4588:	74756269 	ldrbtvc	r6, [r5], #-617	; 0xfffffd97
    458c:	285f5f65 	ldmdacs	pc, {r0, r2, r5, r6, r8, r9, sl, fp, ip, lr}^	; <UNPREDICTABLE>
    4590:	735f5f28 	cmpvc	pc, #40, 30	; 0xa0
    4594:	69746365 	ldmdbvs	r4!, {r0, r2, r5, r6, r8, r9, sp, lr}^
    4598:	5f5f6e6f 	svcpl	0x005f6e6f
    459c:	29297828 	stmdbcs	r9!, {r3, r5, fp, ip, sp, lr}
    45a0:	666f0029 	strbtvs	r0, [pc], -r9, lsr #32
    45a4:	74657366 	strbtvc	r7, [r5], #-870	; 0xfffffc9a
    45a8:	5428666f 	strtpl	r6, [r8], #-1647	; 0xfffff991
    45ac:	2c455059 	mcrrcs	0, 5, r5, r5, cr9
    45b0:	424d454d 	submi	r4, sp, #322961408	; 0x13400000
    45b4:	20295245 	eorcs	r5, r9, r5, asr #4
    45b8:	75625f5f 	strbvc	r5, [r2, #-3935]!	; 0xfffff0a1
    45bc:	69746c69 	ldmdbvs	r4!, {r0, r3, r5, r6, sl, fp, sp, lr}^
    45c0:	666f5f6e 	strbtvs	r5, [pc], -lr, ror #30
    45c4:	74657366 	strbtvc	r7, [r5], #-870	; 0xfffffc9a
    45c8:	2820666f 	stmdacs	r0!, {r0, r1, r2, r3, r5, r6, r9, sl, sp, lr}
    45cc:	45505954 	ldrbmi	r5, [r0, #-2388]	; 0xfffff6ac
    45d0:	454d202c 	strbmi	r2, [sp, #-44]	; 0xffffffd4
    45d4:	5245424d 	subpl	r4, r5, #-805306364	; 0xd0000004
    45d8:	5f5f0029 	svcpl	0x005f0029
    45dc:	544e4955 	strbpl	r4, [lr], #-2389	; 0xfffff6ab
    45e0:	435f3436 	cmpmi	pc, #905969664	; 0x36000000
    45e4:	20296328 	eorcs	r6, r9, r8, lsr #6
    45e8:	23232063 			; <UNDEFINED> instruction: 0x23232063
    45ec:	4c4c5520 	cfstr64mi	mvdx5, [ip], {32}
    45f0:	555f5f00 	ldrbpl	r5, [pc, #-3840]	; 36f8 <_Min_Stack_Size+0x32f8>
    45f4:	5f544e49 	svcpl	0x00544e49
    45f8:	5341454c 	movtpl	r4, #5452	; 0x154c
    45fc:	5f343654 	svcpl	0x00343654
    4600:	45505954 	ldrbmi	r5, [r0, #-2388]	; 0xfffff6ac
    4604:	6c205f5f 	stcvs	15, cr5, [r0], #-380	; 0xfffffe84
    4608:	20676e6f 	rsbcs	r6, r7, pc, ror #28
    460c:	676e6f6c 	strbvs	r6, [lr, -ip, ror #30]!
    4610:	736e7520 	cmnvc	lr, #32, 10	; 0x8000000
    4614:	656e6769 	strbvs	r6, [lr, #-1897]!	; 0xfffff897
    4618:	6e692064 	cdpvs	0, 6, cr2, cr9, cr4, {3}
    461c:	50470074 	subpl	r0, r7, r4, ror r0
    4620:	4d5f4f49 	ldclmi	15, cr4, [pc, #-292]	; 4504 <_Min_Stack_Size+0x4104>
    4624:	5f45444f 	svcpl	0x0045444f
    4628:	55504e49 	ldrbpl	r4, [r0, #-3657]	; 0xfffff1b7
    462c:	4c465f54 	mcrrmi	15, 5, r5, r6, cr4
    4630:	7830204f 	ldmdavc	r0!, {r0, r1, r2, r3, r6, sp}
    4634:	30303030 	eorscc	r3, r0, r0, lsr r0
    4638:	31303030 	teqcc	r0, r0, lsr r0
    463c:	555f5f00 	ldrbpl	r5, [pc, #-3840]	; 3744 <_Min_Stack_Size+0x3344>
    4640:	41524653 	cmpmi	r2, r3, asr r6
    4644:	465f5443 	ldrbmi	r5, [pc], -r3, asr #8
    4648:	5f544942 	svcpl	0x00544942
    464c:	0038205f 	eorseq	r2, r8, pc, asr r0
    4650:	444c5f5f 	strbmi	r5, [ip], #-3935	; 0xfffff0a1
    4654:	455f4c42 	ldrbmi	r4, [pc, #-3138]	; 3a1a <_Min_Stack_Size+0x361a>
    4658:	4c495350 	mcrrmi	3, 5, r5, r9, cr0
    465c:	5f5f4e4f 	svcpl	0x005f4e4f
    4660:	322e3220 	eorcc	r3, lr, #32, 4
    4664:	34343032 	ldrtcc	r3, [r4], #-50	; 0xffffffce
    4668:	39343036 	ldmdbcc	r4!, {r1, r2, r4, r5, ip, sp}
    466c:	33303532 	teqcc	r0, #209715200	; 0xc800000
    4670:	65313331 	ldrvs	r3, [r1, #-817]!	; 0xfffffccf
    4674:	4c36312d 	ldfmis	f3, [r6], #-180	; 0xffffff4c
    4678:	73615400 	cmnvc	r1, #0, 8
    467c:	735f426b 	cmpvc	pc, #-1342177274	; 0xb0000006
    4680:	6b636174 	blvs	18dcc58 <_Min_Stack_Size+0x18dc858>
    4684:	7a69735f 	bvc	1a61408 <_Min_Stack_Size+0x1a61008>
    4688:	30312065 	eorscc	r2, r1, r5, rrx
    468c:	58450030 	stmdapl	r5, {r4, r5}^
    4690:	31314954 	teqcc	r1, r4, asr r9
    4694:	31314350 	teqcc	r1, r0, asr r3
    4698:	58452820 	stmdapl	r5, {r5, fp, sp}^
    469c:	475f4954 			; <UNDEFINED> instruction: 0x475f4954
    46a0:	5f4f4950 	svcpl	0x004f4950
    46a4:	7070614d 	rsbsvc	r6, r0, sp, asr #2
    46a8:	5f676e69 	svcpl	0x00676e69
    46ac:	457b2974 	ldrbmi	r2, [fp, #-2420]!	; 0xfffff68c
    46b0:	31495458 	cmpcc	r9, r8, asr r4
    46b4:	47202c31 			; <UNDEFINED> instruction: 0x47202c31
    46b8:	434f4950 	movtmi	r4, #63824	; 0xf950
    46bc:	5047202c 	subpl	r2, r7, ip, lsr #32
    46c0:	505f4f49 	subspl	r4, pc, r9, asr #30
    46c4:	315f4e49 	cmpcc	pc, r9, asr #28
    46c8:	45202c31 	strmi	r2, [r0, #-3121]!	; 0xfffff3cf
    46cc:	31495458 	cmpcc	r9, r8, asr r4
    46d0:	52495f31 	subpl	r5, r9, #49, 30	; 0xc4
    46d4:	49007d51 	stmdbmi	r0, {r0, r4, r6, r8, sl, fp, ip, sp, lr}
    46d8:	465f544e 	ldrbmi	r5, [pc], -lr, asr #8
    46dc:	36545341 	ldrbcc	r5, [r4], -r1, asr #6
    46e0:	414d5f34 	cmpmi	sp, r4, lsr pc
    46e4:	5f282058 	svcpl	0x00282058
    46e8:	544e495f 	strbpl	r4, [lr], #-2399	; 0xfffff6a1
    46ec:	5341465f 	movtpl	r4, #5727	; 0x165f
    46f0:	5f343654 	svcpl	0x00343654
    46f4:	5f58414d 	svcpl	0x0058414d
    46f8:	5f00295f 	svcpl	0x0000295f
    46fc:	7275705f 	rsbsvc	r7, r5, #95	; 0x5f
    4700:	5f203265 	svcpl	0x00203265
    4704:	7474615f 	ldrbtvc	r6, [r4], #-351	; 0xfffffea1
    4708:	75626972 	strbvc	r6, [r2, #-2418]!	; 0xfffff68e
    470c:	5f5f6574 	svcpl	0x005f6574
    4710:	5f5f2828 	svcpl	0x005f2828
    4714:	736e6f63 	cmnvc	lr, #396	; 0x18c
    4718:	295f5f74 	ldmdbcs	pc, {r2, r4, r5, r6, r8, r9, sl, fp, ip, lr}^	; <UNPREDICTABLE>
    471c:	5f5f0029 	svcpl	0x005f0029
    4720:	5f434347 	svcpl	0x00434347
    4724:	4d4f5441 	cfstrdmi	mvd5, [pc, #-260]	; 4628 <_Min_Stack_Size+0x4228>
    4728:	435f4349 	cmpmi	pc, #603979777	; 0x24000001
    472c:	31524148 	cmpcc	r2, r8, asr #2
    4730:	5f545f36 	svcpl	0x00545f36
    4734:	4b434f4c 	blmi	10d846c <_Min_Stack_Size+0x10d806c>
    4738:	4552465f 	ldrbmi	r4, [r2, #-1631]	; 0xfffff9a1
    473c:	00322045 	eorseq	r2, r2, r5, asr #32
    4740:	554e5f5f 	strbpl	r5, [lr, #-3935]	; 0xfffff0a1
    4744:	42414c4c 	submi	r4, r1, #76, 24	; 0x4c00
    4748:	54494c49 	strbpl	r4, [r9], #-3145	; 0xfffff3b7
    474c:	52505f59 	subspl	r5, r0, #356	; 0x164
    4750:	414d4741 	cmpmi	sp, r1, asr #14
    4754:	5355505f 	cmppl	r5, #95	; 0x5f
    4758:	45002048 	strmi	r2, [r0, #-72]	; 0xffffffb8
    475c:	32495458 	subcc	r5, r9, #88, 8	; 0x58000000
    4760:	20324150 	eorscs	r4, r2, r0, asr r1
    4764:	54584528 	ldrbpl	r4, [r8], #-1320	; 0xfffffad8
    4768:	50475f49 	subpl	r5, r7, r9, asr #30
    476c:	4d5f4f49 	ldclmi	15, cr4, [pc, #-292]	; 4650 <_Min_Stack_Size+0x4250>
    4770:	69707061 	ldmdbvs	r0!, {r0, r5, r6, ip, sp, lr}^
    4774:	745f676e 	ldrbvc	r6, [pc], #-1902	; 477c <_Min_Stack_Size+0x437c>
    4778:	58457b29 	stmdapl	r5, {r0, r3, r5, r8, r9, fp, ip, sp, lr}^
    477c:	2c324954 			; <UNDEFINED> instruction: 0x2c324954
    4780:	49504720 	ldmdbmi	r0, {r5, r8, r9, sl, lr}^
    4784:	202c414f 	eorcs	r4, ip, pc, asr #2
    4788:	4f495047 	svcmi	0x00495047
    478c:	4e49505f 	mcrmi	0, 2, r5, cr9, cr15, {2}
    4790:	202c325f 	eorcs	r3, ip, pc, asr r2
    4794:	49545845 	ldmdbmi	r4, {r0, r2, r6, fp, ip, lr}^
    4798:	52495f32 	subpl	r5, r9, #50, 30	; 0xc8
    479c:	4c007d51 	stcmi	13, cr7, [r0], {81}	; 0x51
    47a0:	00524b43 	subseq	r4, r2, r3, asr #22
    47a4:	42445f5f 	submi	r5, r4, #380	; 0x17c
    47a8:	414d5f4c 	cmpmi	sp, ip, asr #30
    47ac:	58455f58 	stmdapl	r5, {r3, r4, r6, r8, r9, sl, fp, ip, lr}^
    47b0:	205f5f50 	subscs	r5, pc, r0, asr pc	; <UNPREDICTABLE>
    47b4:	34323031 	ldrtcc	r3, [r2], #-49	; 0xffffffcf
    47b8:	465f5f00 	ldrbmi	r5, [pc], -r0, lsl #30
    47bc:	36545341 	ldrbcc	r5, [r4], -r1, asr #6
    47c0:	6c222034 	stcvs	0, cr2, [r2], #-208	; 0xffffff30
    47c4:	5f00226c 	svcpl	0x0000226c
    47c8:	4f54415f 	svcmi	0x0054415f
    47cc:	5f43494d 	svcpl	0x0043494d
    47d0:	454c4552 	strbmi	r4, [ip, #-1362]	; 0xfffffaae
    47d4:	20455341 	subcs	r5, r5, r1, asr #6
    47d8:	6e750033 	mrcvs	0, 3, r0, cr5, cr3, {1}
    47dc:	6e676973 			; <UNDEFINED> instruction: 0x6e676973
    47e0:	2b206465 	blcs	81d97c <_Min_Stack_Size+0x81d57c>
    47e4:	5f5f0030 	svcpl	0x005f0030
    47e8:	33544c46 	cmpcc	r4, #17920	; 0x4600
    47ec:	485f5832 	ldmdami	pc, {r1, r4, r5, fp, ip, lr}^	; <UNPREDICTABLE>
    47f0:	445f5341 	ldrbmi	r5, [pc], #-833	; 47f8 <_Min_Stack_Size+0x43f8>
    47f4:	524f4e45 	subpl	r4, pc, #1104	; 0x450
    47f8:	205f5f4d 	subscs	r5, pc, sp, asr #30
    47fc:	5f5f0031 	svcpl	0x005f0031
    4800:	5f544c46 	svcpl	0x00544c46
    4804:	544e414d 	strbpl	r4, [lr], #-333	; 0xfffffeb3
    4808:	4749445f 	smlsldmi	r4, r9, pc, r4	; <UNPREDICTABLE>
    480c:	32205f5f 	eorcc	r5, r0, #380	; 0x17c
    4810:	53550034 	cmppl	r5, #52	; 0x34
    4814:	31545241 	cmpcc	r4, r1, asr #4
    4818:	5152495f 	cmppl	r2, pc, asr r9
    481c:	00373320 	eorseq	r3, r7, r0, lsr #6
    4820:	4e41525f 	mcrmi	2, 2, r5, cr1, cr15, {2}
    4824:	5f383444 	svcpl	0x00383444
    4828:	44454553 	strbmi	r4, [r5], #-1363	; 0xfffffaad
    482c:	2820315f 	stmdacs	r0!, {r0, r1, r2, r3, r4, r6, r8, ip, sp}
    4830:	62617830 	rsbvs	r7, r1, #48, 16	; 0x300000
    4834:	00296463 	eoreq	r6, r9, r3, ror #8
    4838:	44555f5f 	ldrbmi	r5, [r5], #-3935	; 0xfffff0a1
    483c:	42495f51 	submi	r5, r9, #324	; 0x144
    4840:	5f5f5449 	svcpl	0x005f5449
    4844:	5f003020 	svcpl	0x00003020
    4848:	424f4c47 	submi	r4, pc, #18176	; 0x4700
    484c:	415f4c41 	cmpmi	pc, r1, asr #24
    4850:	49584554 	ldmdbmi	r8, {r2, r4, r6, r8, sl, lr}^
    4854:	675f2054 			; <UNDEFINED> instruction: 0x675f2054
    4858:	61626f6c 	cmnvs	r2, ip, ror #30
    485c:	74615f6c 	strbtvc	r5, [r1], #-3948	; 0xfffff094
    4860:	74697865 	strbtvc	r7, [r9], #-2149	; 0xfffff79b
    4864:	495f5f00 	ldmdbmi	pc, {r8, r9, sl, fp, ip, lr}^	; <UNPREDICTABLE>
    4868:	4c5f544e 	cfldrdmi	mvd5, [pc], {78}	; 0x4e
    486c:	54534145 	ldrbpl	r4, [r3], #-325	; 0xfffffebb
    4870:	545f3233 	ldrbpl	r3, [pc], #-563	; 4878 <_Min_Stack_Size+0x4478>
    4874:	5f455059 	svcpl	0x00455059
    4878:	6f6c205f 	svcvs	0x006c205f
    487c:	6920676e 	stmdbvs	r0!, {r1, r2, r3, r5, r6, r8, r9, sl, sp, lr}
    4880:	5500746e 	strpl	r7, [r0, #-1134]	; 0xfffffb92
    4884:	4d544e49 	ldclmi	14, cr4, [r4, #-292]	; 0xfffffedc
    4888:	4d5f5841 	ldclmi	8, cr5, [pc, #-260]	; 478c <_Min_Stack_Size+0x438c>
    488c:	28205841 	stmdacs	r0!, {r0, r6, fp, ip, lr}
    4890:	49555f5f 	ldmdbmi	r5, {r0, r1, r2, r3, r4, r6, r8, r9, sl, fp, ip, lr}^
    4894:	414d544e 	cmpmi	sp, lr, asr #8
    4898:	414d5f58 	cmpmi	sp, r8, asr pc
    489c:	295f5f58 	ldmdbcs	pc, {r3, r4, r6, r8, r9, sl, fp, ip, lr}^	; <UNPREDICTABLE>
    48a0:	41535500 	cmpmi	r3, r0, lsl #10
    48a4:	20325452 	eorscs	r5, r2, r2, asr r4
    48a8:	53552828 	cmppl	r5, #40, 16	; 0x280000
    48ac:	5f545241 	svcpl	0x00545241
    48b0:	65707954 	ldrbvs	r7, [r0, #-2388]!	; 0xfffff6ac
    48b4:	20666564 	rsbcs	r6, r6, r4, ror #10
    48b8:	5355292a 	cmppl	r5, #688128	; 0xa8000
    48bc:	32545241 	subscc	r5, r4, #268435460	; 0x10000004
    48c0:	5341425f 	movtpl	r4, #4703	; 0x125f
    48c4:	55002945 	strpl	r2, [r0, #-2373]	; 0xfffff6bb
    48c8:	54524153 	ldrbpl	r4, [r2], #-339	; 0xfffffead
    48cc:	52495f33 	subpl	r5, r9, #51, 30	; 0xcc
    48d0:	39332051 	ldmdbcc	r3!, {r0, r4, r6, sp}
    48d4:	54584500 	ldrbpl	r4, [r8], #-1280	; 0xfffffb00
    48d8:	42503549 	subsmi	r3, r0, #306184192	; 0x12400000
    48dc:	45282035 	strmi	r2, [r8, #-53]!	; 0xffffffcb
    48e0:	5f495458 	svcpl	0x00495458
    48e4:	4f495047 	svcmi	0x00495047
    48e8:	70614d5f 	rsbvc	r4, r1, pc, asr sp
    48ec:	676e6970 			; <UNDEFINED> instruction: 0x676e6970
    48f0:	7b29745f 	blvc	a61a74 <_Min_Stack_Size+0xa61674>
    48f4:	49545845 	ldmdbmi	r4, {r0, r2, r6, fp, ip, lr}^
    48f8:	47202c35 			; <UNDEFINED> instruction: 0x47202c35
    48fc:	424f4950 	submi	r4, pc, #80, 18	; 0x140000
    4900:	5047202c 	subpl	r2, r7, ip, lsr #32
    4904:	505f4f49 	subspl	r4, pc, r9, asr #30
    4908:	355f4e49 	ldrbcc	r4, [pc, #-3657]	; 3ac7 <_Min_Stack_Size+0x36c7>
    490c:	5845202c 	stmdapl	r5, {r2, r3, r5, sp}^
    4910:	5f354954 	svcpl	0x00354954
    4914:	7d515249 	lfmvc	f5, 2, [r1, #-292]	; 0xfffffedc
    4918:	555f5f00 	ldrbpl	r5, [pc, #-3840]	; 3a20 <_Min_Stack_Size+0x3620>
    491c:	55434341 	strbpl	r4, [r3, #-833]	; 0xfffffcbf
    4920:	414d5f4d 	cmpmi	sp, sp, asr #30
    4924:	205f5f58 	subscs	r5, pc, r8, asr pc	; <UNPREDICTABLE>
    4928:	46465830 			; <UNDEFINED> instruction: 0x46465830
    492c:	46464646 	strbmi	r4, [r6], -r6, asr #12
    4930:	2d504646 	ldclcs	6, cr4, [r0, #-280]	; 0xfffffee8
    4934:	4b553631 	blmi	1552200 <_Min_Stack_Size+0x1551e00>
    4938:	435f5f00 	cmpmi	pc, #0, 30
    493c:	55535f43 	ldrbpl	r5, [r3, #-3907]	; 0xfffff0bd
    4940:	524f5050 	subpl	r5, pc, #80	; 0x50
    4944:	5f5f5354 	svcpl	0x005f5354
    4948:	4e55465f 	mrcmi	6, 2, r4, cr5, cr15, {2}
    494c:	205f5f43 	subscs	r5, pc, r3, asr #30
    4950:	5f5f0031 	svcpl	0x005f0031
    4954:	36544c46 	ldrbcc	r4, [r4], -r6, asr #24
    4958:	4f4e5f34 	svcmi	0x004e5f34
    495c:	4d5f4d52 	ldclmi	13, cr4, [pc, #-328]	; 481c <_Min_Stack_Size+0x441c>
    4960:	5f5f5841 	svcpl	0x005f5841
    4964:	372e3120 	strcc	r3, [lr, -r0, lsr #2]!
    4968:	39363739 	ldmdbcc	r6!, {r0, r3, r4, r5, r8, r9, sl, ip, sp}
    496c:	34333133 	ldrtcc	r3, [r3], #-307	; 0xfffffecd
    4970:	33323638 	teqcc	r2, #56, 12	; 0x3800000
    4974:	65373531 	ldrvs	r3, [r7, #-1329]!	; 0xfffffacf
    4978:	3830332b 	ldmdacc	r0!, {r0, r1, r3, r5, r8, r9, ip, sp}
    497c:	00343646 	eorseq	r3, r4, r6, asr #12
    4980:	4e475f5f 	mcrmi	15, 2, r5, cr7, cr15, {2}
    4984:	494c4355 	stmdbmi	ip, {r0, r2, r4, r6, r8, r9, lr}^
    4988:	4d5f454b 	cfldr64mi	mvdx4, [pc, #-300]	; 4864 <_Min_Stack_Size+0x4464>
    498c:	5f485441 	svcpl	0x00485441
    4990:	4c495542 	cfstr64mi	mvdx5, [r9], {66}	; 0x42
    4994:	5f4e4954 	svcpl	0x004e4954
    4998:	534e4f43 	movtpl	r4, #61251	; 0xef43
    499c:	544e4154 	strbpl	r4, [lr], #-340	; 0xfffffeac
    49a0:	55002053 	strpl	r2, [r0, #-83]	; 0xffffffad
    49a4:	5f545241 	svcpl	0x00545241
    49a8:	5f515249 	svcpl	0x00515249
    49ac:	454e5852 	strbmi	r5, [lr, #-2130]	; 0xfffff7ae
    49b0:	69752820 	ldmdbvs	r5!, {r5, fp, sp}^
    49b4:	3233746e 	eorscc	r7, r3, #1845493760	; 0x6e000000
    49b8:	2829745f 	stmdacs	r9!, {r0, r1, r2, r3, r4, r6, sl, ip, sp, lr}
    49bc:	353c3c31 	ldrcc	r3, [ip, #-3121]!	; 0xfffff3cf
    49c0:	525f0029 	subspl	r0, pc, #41	; 0x29
    49c4:	544e4545 	strbpl	r4, [lr], #-1349	; 0xfffffabb
    49c8:	4353415f 	cmpmi	r3, #-1073741801	; 0xc0000017
    49cc:	454d4954 	strbmi	r4, [sp, #-2388]	; 0xfffff6ac
    49d0:	4655425f 			; <UNDEFINED> instruction: 0x4655425f
    49d4:	72747028 	rsbsvc	r7, r4, #40	; 0x28
    49d8:	28282029 	stmdacs	r8!, {r0, r3, r5, sp}
    49dc:	29727470 	ldmdbcs	r2!, {r4, r5, r6, sl, ip, sp, lr}^
    49e0:	615f3e2d 	cmpvs	pc, sp, lsr #28
    49e4:	69746373 	ldmdbvs	r4!, {r0, r1, r4, r5, r6, r8, r9, sp, lr}^
    49e8:	625f656d 	subsvs	r6, pc, #457179136	; 0x1b400000
    49ec:	00296675 	eoreq	r6, r9, r5, ror r6
    49f0:	505f545f 	subspl	r5, pc, pc, asr r4	; <UNPREDICTABLE>
    49f4:	49445254 	stmdbmi	r4, {r2, r4, r6, r9, ip, lr}^
    49f8:	205f4646 	subscs	r4, pc, r6, asr #12
    49fc:	4c5f5f00 	mrrcmi	15, 0, r5, pc, cr0	; <UNPREDICTABLE>
    4a00:	5f4c4244 	svcpl	0x004c4244
    4a04:	4f4e4544 	svcmi	0x004e4544
    4a08:	4d5f4d52 	ldclmi	13, cr4, [pc, #-328]	; 48c8 <_Min_Stack_Size+0x44c8>
    4a0c:	5f5f4e49 	svcpl	0x005f4e49
    4a10:	392e3420 	stmdbcc	lr!, {r5, sl, ip, sp}
    4a14:	35363034 	ldrcc	r3, [r6, #-52]!	; 0xffffffcc
    4a18:	38353436 	ldmdacc	r5!, {r1, r2, r4, r5, sl, ip, sp}
    4a1c:	34323134 	ldrtcc	r3, [r2], #-308	; 0xfffffecc
    4a20:	65343536 	ldrvs	r3, [r4, #-1334]!	; 0xfffffaca
    4a24:	3432332d 	ldrtcc	r3, [r2], #-813	; 0xfffffcd3
    4a28:	5f5f004c 	svcpl	0x005f004c
    4a2c:	36544e49 	ldrbcc	r4, [r4], -r9, asr #28
    4a30:	414d5f34 	cmpmi	sp, r4, lsr pc
    4a34:	205f5f58 	subscs	r5, pc, r8, asr pc	; <UNPREDICTABLE>
    4a38:	66377830 			; <UNDEFINED> instruction: 0x66377830
    4a3c:	66666666 	strbtvs	r6, [r6], -r6, ror #12
    4a40:	66666666 	strbtvs	r6, [r6], -r6, ror #12
    4a44:	66666666 	strbtvs	r6, [r6], -r6, ror #12
    4a48:	4c4c6666 	mcrrmi	6, 6, r6, ip, cr6
    4a4c:	73736100 	cmnvc	r3, #0, 2
    4a50:	28747265 	ldmdacs	r4!, {r0, r2, r5, r6, r9, ip, sp, lr}^
    4a54:	29655f5f 	stmdbcs	r5!, {r0, r1, r2, r3, r4, r6, r8, r9, sl, fp, ip, lr}^
    4a58:	5f282820 	svcpl	0x00282820
    4a5c:	2029655f 	eorcs	r6, r9, pc, asr r5
    4a60:	7628203f 			; <UNDEFINED> instruction: 0x7628203f
    4a64:	2964696f 	stmdbcs	r4!, {r0, r1, r2, r3, r5, r6, r8, fp, sp, lr}^
    4a68:	203a2030 	eorscs	r2, sl, r0, lsr r0
    4a6c:	73615f5f 	cmnvc	r1, #380	; 0x17c
    4a70:	74726573 	ldrbtvc	r6, [r2], #-1395	; 0xfffffa8d
    4a74:	6e75665f 	mrcvs	6, 3, r6, cr5, cr15, {2}
    4a78:	5f282063 	svcpl	0x00282063
    4a7c:	4c49465f 	mcrrmi	6, 5, r4, r9, cr15
    4a80:	2c5f5f45 	mrrccs	15, 4, r5, pc, cr5	; <UNPREDICTABLE>
    4a84:	4c5f5f20 	mrrcmi	15, 2, r5, pc, cr0	; <UNPREDICTABLE>
    4a88:	5f454e49 	svcpl	0x00454e49
    4a8c:	5f202c5f 	svcpl	0x00202c5f
    4a90:	5353415f 	cmppl	r3, #-1073741801	; 0xc0000017
    4a94:	5f545245 	svcpl	0x00545245
    4a98:	434e5546 	movtmi	r5, #58694	; 0xe546
    4a9c:	5f23202c 	svcpl	0x0023202c
    4aa0:	2929655f 	stmdbcs	r9!, {r0, r1, r2, r3, r4, r6, r8, sl, sp, lr}
    4aa4:	555f5f00 	ldrbpl	r5, [pc, #-3840]	; 3bac <_Min_Stack_Size+0x37ac>
    4aa8:	52464c4c 	subpl	r4, r6, #76, 24	; 0x4c00
    4aac:	5f544341 	svcpl	0x00544341
    4ab0:	54494249 	strbpl	r4, [r9], #-585	; 0xfffffdb7
    4ab4:	30205f5f 	eorcc	r5, r0, pc, asr pc
    4ab8:	4e415f00 	cdpmi	15, 4, cr5, cr1, cr0, {0}
    4abc:	535f4953 	cmppl	pc, #1359872	; 0x14c000
    4ac0:	45444454 	strbmi	r4, [r4, #-1108]	; 0xfffffbac
    4ac4:	20485f46 	subcs	r5, r8, r6, asr #30
    4ac8:	49504700 	ldmdbmi	r0, {r8, r9, sl, lr}^
    4acc:	49505f4f 	ldmdbmi	r0, {r0, r1, r2, r3, r6, r8, r9, sl, fp, ip, lr}^
    4ad0:	20365f4e 	eorscs	r5, r6, lr, asr #30
    4ad4:	69752828 	ldmdbvs	r5!, {r3, r5, fp, sp}^
    4ad8:	3631746e 	ldrtcc	r7, [r1], -lr, ror #8
    4adc:	2029745f 	eorcs	r7, r9, pc, asr r4
    4ae0:	30307830 	eorscc	r7, r0, r0, lsr r8
    4ae4:	00293034 	eoreq	r3, r9, r4, lsr r0
    4ae8:	4349564e 	movtmi	r5, #38478	; 0x964e
    4aec:	4553495f 	ldrbmi	r4, [r3, #-2399]	; 0xfffff6a1
    4af0:	2a203052 	bcs	810c40 <_Min_Stack_Size+0x810840>
    4af4:	6c6f7628 	stclvs	6, cr7, [pc], #-160	; 4a5c <_Min_Stack_Size+0x465c>
    4af8:	6c697461 	cfstrdvs	mvd7, [r9], #-388	; 0xfffffe7c
    4afc:	69752065 	ldmdbvs	r5!, {r0, r2, r5, r6, sp}^
    4b00:	3233746e 	eorscc	r7, r3, #1845493760	; 0x6e000000
    4b04:	202a745f 	eorcs	r7, sl, pc, asr r4
    4b08:	564e2829 	strbpl	r2, [lr], -r9, lsr #16
    4b0c:	425f4349 	subsmi	r4, pc, #603979777	; 0x24000001
    4b10:	20657361 	rsbcs	r7, r5, r1, ror #6
    4b14:	3078302b 	rsbscc	r3, r8, fp, lsr #32
    4b18:	00293030 	eoreq	r3, r9, r0, lsr r0
    4b1c:	4e475f5f 	mcrmi	15, 2, r5, cr7, cr15, {2}
    4b20:	5f5f4355 	svcpl	0x005f4355
    4b24:	00303120 	eorseq	r3, r0, r0, lsr #2
    4b28:	41485f5f 	cmpmi	r8, pc, asr pc
    4b2c:	535f4556 	cmppl	pc, #360710144	; 0x15800000
    4b30:	55434550 	strbpl	r4, [r3, #-1360]	; 0xfffffab0
    4b34:	4954414c 	ldmdbmi	r4, {r2, r3, r6, r8, lr}^
    4b38:	535f4e4f 	cmppl	pc, #1264	; 0x4f0
    4b3c:	5f454641 	svcpl	0x00454641
    4b40:	554c4156 	strbpl	r4, [ip, #-342]	; 0xfffffeaa
    4b44:	00312045 	eorseq	r2, r1, r5, asr #32
    4b48:	5f564944 	svcpl	0x00564944
    4b4c:	43415246 	movtmi	r5, #4678	; 0x1246
    4b50:	4e4f4954 			; <UNDEFINED> instruction: 0x4e4f4954
    4b54:	6c634628 	stclvs	6, cr4, [r3], #-160	; 0xffffff60
    4b58:	61622c6b 	cmnvs	r2, fp, ror #24
    4b5c:	61726475 	cmnvs	r2, r5, ror r4
    4b60:	20296574 	eorcs	r6, r9, r4, ror r5
    4b64:	6e697528 	cdpvs	5, 6, cr7, cr9, cr8, {1}
    4b68:	5f323374 	svcpl	0x00323374
    4b6c:	28202974 	stmdacs	r0!, {r2, r4, r5, r6, r8, fp, sp}
    4b70:	53552828 	cmppl	r5, #40, 16	; 0x280000
    4b74:	5f545241 	svcpl	0x00545241
    4b78:	5f564944 	svcpl	0x00564944
    4b7c:	314c554d 	cmpcc	ip, sp, asr #10
    4b80:	46283030 			; <UNDEFINED> instruction: 0x46283030
    4b84:	2c6b6c63 	stclcs	12, cr6, [fp], #-396	; 0xfffffe74
    4b88:	64756162 	ldrbtvs	r6, [r5], #-354	; 0xfffffe9e
    4b8c:	65746172 	ldrbvs	r6, [r4, #-370]!	; 0xfffffe8e
    4b90:	202d2029 	eorcs	r2, sp, r9, lsr #32
    4b94:	544e414d 	strbpl	r4, [lr], #-333	; 0xfffffeb3
    4b98:	41535349 	cmpmi	r3, r9, asr #6
    4b9c:	4c554d5f 	mrrcmi	13, 5, r4, r5, cr15
    4ba0:	28303031 	ldmdacs	r0!, {r0, r4, r5, ip, sp}
    4ba4:	6b6c6346 	blvs	1b1d8c4 <_Min_Stack_Size+0x1b1d4c4>
    4ba8:	7561622c 	strbvc	r6, [r1, #-556]!	; 0xfffffdd4
    4bac:	74617264 	strbtvc	r7, [r1], #-612	; 0xfffffd9c
    4bb0:	2a292965 	bcs	a4f14c <_Min_Stack_Size+0xa4ed4c>
    4bb4:	2f293631 	svccs	0x00293631
    4bb8:	29303031 	ldmdbcs	r0!, {r0, r4, r5, ip, sp}
    4bbc:	45525f00 	ldrbmi	r5, [r2, #-3840]	; 0xfffff100
    4bc0:	5f544e45 	svcpl	0x00544e45
    4bc4:	54524357 	ldrbpl	r4, [r2], #-855	; 0xfffffca9
    4bc8:	5f424d4f 	svcpl	0x00424d4f
    4bcc:	54415453 	strbpl	r5, [r1], #-1107	; 0xfffffbad
    4bd0:	74702845 	ldrbtvc	r2, [r0], #-2117	; 0xfffff7bb
    4bd4:	28202972 	stmdacs	r0!, {r1, r4, r5, r6, r8, fp, sp}
    4bd8:	72747028 	rsbsvc	r7, r4, #40	; 0x28
    4bdc:	5f3e2d29 	svcpl	0x003e2d29
    4be0:	6373696d 	cmnvs	r3, #1785856	; 0x1b4000
    4be4:	775f3e2d 	ldrbvc	r3, [pc, -sp, lsr #28]
    4be8:	6f747263 	svcvs	0x00747263
    4bec:	735f626d 	cmpvc	pc, #-805306362	; 0xd0000006
    4bf0:	65746174 	ldrbvs	r6, [r4, #-372]!	; 0xfffffe8c
    4bf4:	5f5f0029 	svcpl	0x005f0029
    4bf8:	6f6c6c61 	svcvs	0x006c6c61
    4bfc:	69735f63 	ldmdbvs	r3!, {r0, r1, r5, r6, r8, r9, sl, fp, ip, lr}^
    4c00:	7828657a 	stmdavc	r8!, {r1, r3, r4, r5, r6, r8, sl, sp, lr}
    4c04:	5f5f2029 	svcpl	0x005f2029
    4c08:	72747461 	rsbsvc	r7, r4, #1627389952	; 0x61000000
    4c0c:	74756269 	ldrbtvc	r6, [r5], #-617	; 0xfffffd97
    4c10:	285f5f65 	ldmdacs	pc, {r0, r2, r5, r6, r8, r9, sl, fp, ip, lr}^	; <UNPREDICTABLE>
    4c14:	615f5f28 	cmpvs	pc, r8, lsr #30
    4c18:	636f6c6c 	cmnvs	pc, #108, 24	; 0x6c00
    4c1c:	7a69735f 	bvc	1a619a0 <_Min_Stack_Size+0x1a615a0>
    4c20:	285f5f65 	ldmdacs	pc, {r0, r2, r5, r6, r8, r9, sl, fp, ip, lr}^	; <UNPREDICTABLE>
    4c24:	29292978 	stmdbcs	r9!, {r3, r4, r5, r6, r8, fp, sp}
    4c28:	4c5f5f00 	mrrcmi	15, 0, r5, pc, cr0	; <UNPREDICTABLE>
    4c2c:	5f474e4f 	svcpl	0x00474e4f
    4c30:	54444957 	strbpl	r4, [r4], #-2391	; 0xfffff6a9
    4c34:	205f5f48 	subscs	r5, pc, r8, asr #30
    4c38:	54003233 	strpl	r3, [r0], #-563	; 0xfffffdcd
    4c3c:	20346d69 	eorscs	r6, r4, r9, ror #26
    4c40:	49542828 	ldmdbmi	r4, {r3, r5, fp, sp}^
    4c44:	3574324d 	ldrbcc	r3, [r4, #-589]!	; 0xfffffdb3
    4c48:	7079545f 	rsbsvc	r5, r9, pc, asr r4
    4c4c:	66654465 	strbtvs	r4, [r5], -r5, ror #8
    4c50:	292a745f 	stmdbcs	sl!, {r0, r1, r2, r3, r4, r6, sl, ip, sp, lr}
    4c54:	344d4954 	strbcc	r4, [sp], #-2388	; 0xfffff6ac
    4c58:	5341425f 	movtpl	r4, #4703	; 0x125f
    4c5c:	5f002945 	svcpl	0x00002945
    4c60:	544c465f 	strbpl	r4, [ip], #-1631	; 0xfffff9a1
    4c64:	58414d5f 	stmdapl	r1, {r0, r1, r2, r3, r4, r6, r8, sl, fp, lr}^
    4c68:	33205f5f 			; <UNDEFINED> instruction: 0x33205f5f
    4c6c:	3230342e 	eorscc	r3, r0, #771751936	; 0x2e000000
    4c70:	34333238 	ldrtcc	r3, [r3], #-568	; 0xfffffdc8
    4c74:	38333636 	ldmdacc	r3!, {r1, r2, r4, r5, r9, sl, ip, sp}
    4c78:	38383235 	ldmdacc	r8!, {r0, r2, r4, r5, r9, ip, sp}
    4c7c:	332b6536 			; <UNDEFINED> instruction: 0x332b6536
    4c80:	47004638 	smladxmi	r0, r8, r6, r4
    4c84:	464f4950 			; <UNDEFINED> instruction: 0x464f4950
    4c88:	5341425f 	movtpl	r4, #4703	; 0x125f
    4c8c:	78302045 	ldmdavc	r0!, {r0, r2, r6, sp}
    4c90:	31303034 	teqcc	r0, r4, lsr r0
    4c94:	30304331 	eorscc	r4, r0, r1, lsr r3
    4c98:	5f5f0075 	svcpl	0x005f0075
    4c9c:	43434155 	movtmi	r4, #12629	; 0x3155
    4ca0:	465f4d55 			; <UNDEFINED> instruction: 0x465f4d55
    4ca4:	5f544942 	svcpl	0x00544942
    4ca8:	3631205f 			; <UNDEFINED> instruction: 0x3631205f
    4cac:	775f5f00 	ldrbvc	r5, [pc, -r0, lsl #30]
    4cb0:	5f6e7261 	svcpl	0x006e7261
    4cb4:	65666572 	strbvs	r6, [r6, #-1394]!	; 0xfffffa8e
    4cb8:	636e6572 	cmnvs	lr, #478150656	; 0x1c800000
    4cbc:	73287365 			; <UNDEFINED> instruction: 0x73287365
    4cc0:	6d2c6d79 	stcvs	13, cr6, [ip, #-484]!	; 0xfffffe1c
    4cc4:	20296773 	eorcs	r6, r9, r3, ror r7
    4cc8:	73615f5f 	cmnvc	r1, #380	; 0x17c
    4ccc:	285f5f6d 	ldmdacs	pc, {r0, r2, r3, r5, r6, r8, r9, sl, fp, ip, lr}^	; <UNPREDICTABLE>
    4cd0:	65732e22 	ldrbvs	r2, [r3, #-3618]!	; 0xfffff1de
    4cd4:	6f697463 	svcvs	0x00697463
    4cd8:	672e206e 	strvs	r2, [lr, -lr, rrx]!
    4cdc:	772e756e 	strvc	r7, [lr, -lr, ror #10]!
    4ce0:	696e7261 	stmdbvs	lr!, {r0, r5, r6, r9, ip, sp, lr}^
    4ce4:	222e676e 	eorcs	r6, lr, #28835840	; 0x1b80000
    4ce8:	79732320 	ldmdbvc	r3!, {r5, r8, r9, sp}^
    4cec:	203b296d 	eorscs	r2, fp, sp, ror #18
    4cf0:	73615f5f 	cmnvc	r1, #380	; 0x17c
    4cf4:	285f5f6d 	ldmdacs	pc, {r0, r2, r3, r5, r6, r8, r9, sl, fp, ip, lr}^	; <UNPREDICTABLE>
    4cf8:	73612e22 	cmnvc	r1, #544	; 0x220
    4cfc:	207a6963 	rsbscs	r6, sl, r3, ror #18
    4d00:	2022225c 	eorcs	r2, r2, ip, asr r2
    4d04:	2067736d 	rsbcs	r7, r7, sp, ror #6
    4d08:	22225c22 	eorcs	r5, r2, #8704	; 0x2200
    4d0c:	5f203b29 	svcpl	0x00203b29
    4d10:	6d73615f 	ldfvse	f6, [r3, #-380]!	; 0xfffffe84
    4d14:	22285f5f 	eorcs	r5, r8, #380	; 0x17c
    4d18:	6572702e 	ldrbvs	r7, [r2, #-46]!	; 0xffffffd2
    4d1c:	756f6976 	strbvc	r6, [pc, #-2422]!	; 43ae <_Min_Stack_Size+0x3fae>
    4d20:	00292273 	eoreq	r2, r9, r3, ror r2
    4d24:	46555f5f 	usaxmi	r5, r5, pc	; <UNPREDICTABLE>
    4d28:	54434152 	strbpl	r4, [r3], #-338	; 0xfffffeae
    4d2c:	5350455f 	cmppl	r0, #398458880	; 0x17c00000
    4d30:	4e4f4c49 	cdpmi	12, 4, cr4, cr15, cr9, {2}
    4d34:	30205f5f 	eorcc	r5, r0, pc, asr pc
    4d38:	2d503178 	ldfcse	f3, [r0, #-480]	; 0xfffffe20
    4d3c:	52553631 	subspl	r3, r5, #51380224	; 0x3100000
    4d40:	575f5f00 	ldrbpl	r5, [pc, -r0, lsl #30]
    4d44:	52414843 	subpl	r4, r1, #4390912	; 0x430000
    4d48:	4e494d5f 	mcrmi	13, 2, r4, cr9, cr15, {2}
    4d4c:	30205f5f 	eorcc	r5, r0, pc, asr pc
    4d50:	5f5f0055 	svcpl	0x005f0055
    4d54:	5f515155 	svcpl	0x00515155
    4d58:	54494249 	strbpl	r4, [r9], #-585	; 0xfffffdb7
    4d5c:	30205f5f 	eorcc	r5, r0, pc, asr pc
    4d60:	454e5f00 	strbmi	r5, [lr, #-3840]	; 0xfffff100
    4d64:	42494c57 	submi	r4, r9, #22272	; 0x5700
    4d68:	5245565f 	subpl	r5, r5, #99614720	; 0x5f00000
    4d6c:	4e4f4953 			; <UNDEFINED> instruction: 0x4e4f4953
    4d70:	5f5f485f 	svcpl	0x005f485f
    4d74:	5f003120 	svcpl	0x00003120
    4d78:	4343475f 	movtmi	r4, #14175	; 0x375f
    4d7c:	4f54415f 	svcmi	0x0054415f
    4d80:	5f43494d 	svcpl	0x0043494d
    4d84:	474e4f4c 	strbmi	r4, [lr, -ip, asr #30]
    4d88:	434f4c5f 	movtmi	r4, #64607	; 0xfc5f
    4d8c:	52465f4b 	subpl	r5, r6, #300	; 0x12c
    4d90:	32204545 	eorcc	r4, r0, #289406976	; 0x11400000
    4d94:	555f5f00 	ldrbpl	r5, [pc, #-3840]	; 3e9c <_Min_Stack_Size+0x3a9c>
    4d98:	4343414c 	movtmi	r4, #12620	; 0x314c
    4d9c:	4d5f4d55 	ldclmi	13, cr4, [pc, #-340]	; 4c50 <_Min_Stack_Size+0x4850>
    4da0:	5f5f4e49 	svcpl	0x005f4e49
    4da4:	302e3020 	eorcc	r3, lr, r0, lsr #32
    4da8:	004b4c55 	subeq	r4, fp, r5, asr ip
    4dac:	4554415f 	ldrbmi	r4, [r4, #-351]	; 0xfffffea1
    4db0:	5f544958 	svcpl	0x00544958
    4db4:	414e5944 	cmpmi	lr, r4, asr #18
    4db8:	5f43494d 	svcpl	0x0043494d
    4dbc:	4f4c4c41 	svcmi	0x004c4c41
    4dc0:	00312043 	eorseq	r2, r1, r3, asr #32
    4dc4:	656e5f5f 	strbvs	r5, [lr, #-3935]!	; 0xfffff0a1
    4dc8:	735f6465 	cmpvc	pc, #1694498816	; 0x65000000
    4dcc:	5f657a69 	svcpl	0x00657a69
    4dd0:	5f5f0074 	svcpl	0x005f0074
    4dd4:	4c42444c 	cfstrdmi	mvd4, [r2], {76}	; 0x4c
    4dd8:	58414d5f 	stmdapl	r1, {r0, r1, r2, r3, r4, r6, r8, sl, fp, lr}^
    4ddc:	31205f5f 			; <UNDEFINED> instruction: 0x31205f5f
    4de0:	3739372e 	ldrcc	r3, [r9, -lr, lsr #14]!
    4de4:	31333936 	teqcc	r3, r6, lsr r9
    4de8:	36383433 			; <UNDEFINED> instruction: 0x36383433
    4dec:	35313332 	ldrcc	r3, [r1, #-818]!	; 0xfffffcce
    4df0:	332b6537 			; <UNDEFINED> instruction: 0x332b6537
    4df4:	004c3830 	subeq	r3, ip, r0, lsr r8
    4df8:	52415f5f 	subpl	r5, r1, #380	; 0x17c
    4dfc:	52415f4d 	subpl	r5, r1, #308	; 0x134
    4e00:	37204843 	strcc	r4, [r0, -r3, asr #16]!
    4e04:	465f5f00 	ldrbmi	r5, [pc], -r0, lsl #30
    4e08:	525f544c 	subspl	r5, pc, #76, 8	; 0x4c000000
    4e0c:	58494441 	stmdapl	r9, {r0, r6, sl, lr}^
    4e10:	32205f5f 	eorcc	r5, r0, #380	; 0x17c
    4e14:	49504700 	ldmdbmi	r0, {r8, r9, sl, lr}^
    4e18:	425f454f 	subsmi	r4, pc, #331350016	; 0x13c00000
    4e1c:	20455341 	subcs	r5, r5, r1, asr #6
    4e20:	30347830 	eorscc	r7, r4, r0, lsr r8
    4e24:	38313130 	ldmdacc	r1!, {r4, r5, r8, ip, sp}
    4e28:	00753030 	rsbseq	r3, r5, r0, lsr r0
    4e2c:	36544e49 	ldrbcc	r4, [r4], -r9, asr #28
    4e30:	414d5f34 	cmpmi	sp, r4, lsr pc
    4e34:	5f282058 	svcpl	0x00282058
    4e38:	544e495f 	strbpl	r4, [lr], #-2399	; 0xfffff6a1
    4e3c:	4d5f3436 	cfldrdmi	mvd3, [pc, #-216]	; 4d6c <_Min_Stack_Size+0x496c>
    4e40:	5f5f5841 	svcpl	0x005f5841
    4e44:	5f5f0029 	svcpl	0x005f0029
    4e48:	5f4d5241 	svcpl	0x004d5241
    4e4c:	54414546 	strbpl	r4, [r1], #-1350	; 0xfffffaba
    4e50:	5f455255 	svcpl	0x00455255
    4e54:	45534d43 	ldrbmi	r4, [r3, #-3395]	; 0xfffff2bd
    4e58:	49564e00 	ldmdbmi	r6, {r9, sl, fp, lr}^
    4e5c:	53555f43 	cmppl	r5, #268	; 0x10c
    4e60:	33545241 	cmpcc	r4, #268435460	; 0x10000004
    4e64:	5152495f 	cmppl	r2, pc, asr r9
    4e68:	7369445f 	cmnvc	r9, #1593835520	; 0x5f000000
    4e6c:	656c6261 	strbvs	r6, [ip, #-609]!	; 0xfffffd9f
    4e70:	564e2820 	strbpl	r2, [lr], -r0, lsr #16
    4e74:	495f4349 	ldmdbmi	pc, {r0, r3, r6, r8, r9, lr}^	; <UNPREDICTABLE>
    4e78:	31524543 	cmpcc	r2, r3, asr #10
    4e7c:	203d7c20 	eorscs	r7, sp, r0, lsr #24
    4e80:	283c3c31 	ldmdacs	ip!, {r0, r4, r5, sl, fp, ip, sp}
    4e84:	52415355 	subpl	r5, r1, #1409286145	; 0x54000001
    4e88:	495f3354 	ldmdbmi	pc, {r2, r4, r6, r8, r9, ip, sp}^	; <UNPREDICTABLE>
    4e8c:	2d205152 	stfcss	f5, [r0, #-328]!	; 0xfffffeb8
    4e90:	29323320 	ldmdbcs	r2!, {r5, r8, r9, ip, sp}
    4e94:	5f5f0029 	svcpl	0x005f0029
    4e98:	4343414c 	movtmi	r4, #12620	; 0x314c
    4e9c:	455f4d55 	ldrbmi	r4, [pc, #-3413]	; 414f <_Min_Stack_Size+0x3d4f>
    4ea0:	4c495350 	mcrrmi	3, 5, r5, r9, cr0
    4ea4:	5f5f4e4f 	svcpl	0x005f4e4f
    4ea8:	31783020 	cmncc	r8, r0, lsr #32
    4eac:	31332d50 	teqcc	r3, r0, asr sp
    4eb0:	4e004b4c 	vmlsmi.f64	d4, d0, d12
    4eb4:	5f434956 	svcpl	0x00434956
    4eb8:	52454349 	subpl	r4, r5, #603979777	; 0x24000001
    4ebc:	282a2031 	stmdacs	sl!, {r0, r4, r5, sp}
    4ec0:	616c6f76 	smcvs	50934	; 0xc6f6
    4ec4:	656c6974 	strbvs	r6, [ip, #-2420]!	; 0xfffff68c
    4ec8:	6e697520 	cdpvs	5, 6, cr7, cr9, cr0, {1}
    4ecc:	5f323374 	svcpl	0x00323374
    4ed0:	29202a74 	stmdbcs	r0!, {r2, r4, r5, r6, r9, fp, sp}
    4ed4:	49564e28 	ldmdbmi	r6, {r3, r5, r9, sl, fp, lr}^
    4ed8:	61425f43 	cmpvs	r2, r3, asr #30
    4edc:	2b206573 	blcs	81e4b0 <_Min_Stack_Size+0x81e0b0>
    4ee0:	38307830 	ldmdacc	r0!, {r4, r5, fp, ip, sp, lr}
    4ee4:	5f002934 	svcpl	0x00002934
    4ee8:	4343475f 	movtmi	r4, #14175	; 0x375f
    4eec:	4f54415f 	svcmi	0x0054415f
    4ef0:	5f43494d 	svcpl	0x0043494d
    4ef4:	4c4f4f42 	mcrrmi	15, 4, r4, pc, cr2
    4ef8:	434f4c5f 	movtmi	r4, #64607	; 0xfc5f
    4efc:	52465f4b 	subpl	r5, r6, #300	; 0x12c
    4f00:	32204545 	eorcc	r4, r0, #289406976	; 0x11400000
    4f04:	775f5f00 	ldrbvc	r5, [pc, -r0, lsl #30]
    4f08:	72616863 	rsbvc	r6, r1, #6488064	; 0x630000
    4f0c:	5f5f745f 	svcpl	0x005f745f
    4f10:	525f0020 	subspl	r0, pc, #32
    4f14:	544e4545 	strbpl	r4, [lr], #-1349	; 0xfffffabb
    4f18:	494e495f 	stmdbmi	lr, {r0, r1, r2, r3, r4, r6, r8, fp, lr}^
    4f1c:	494d5f54 	stmdbmi	sp, {r2, r4, r6, r8, r9, sl, fp, ip, lr}^
    4f20:	76284353 			; <UNDEFINED> instruction: 0x76284353
    4f24:	20297261 	eorcs	r7, r9, r1, ror #4
    4f28:	7b206f64 	blvc	820cc0 <_Min_Stack_Size+0x8208c0>
    4f2c:	72747320 	rsbsvc	r7, r4, #32, 6	; 0x80000000
    4f30:	20746375 	rsbscs	r6, r4, r5, ror r3
    4f34:	6565725f 	strbvs	r7, [r5, #-607]!	; 0xfffffda1
    4f38:	2a20746e 	bcs	8220f8 <_Min_Stack_Size+0x821cf8>
    4f3c:	3d20725f 	sfmcc	f7, 4, [r0, #-380]!	; 0xfffffe84
    4f40:	61762820 	cmnvs	r6, r0, lsr #16
    4f44:	203b2972 	eorscs	r2, fp, r2, ror r9
    4f48:	3e2d725f 	mcrcc	2, 1, r7, cr13, cr15, {2}
    4f4c:	73696d5f 	cmnvc	r9, #6080	; 0x17c0
    4f50:	5f3e2d63 	svcpl	0x003e2d63
    4f54:	74727473 	ldrbtvc	r7, [r2], #-1139	; 0xfffffb8d
    4f58:	6c5f6b6f 	mrrcvs	11, 6, r6, pc, cr15	; <UNPREDICTABLE>
    4f5c:	20747361 	rsbscs	r7, r4, r1, ror #6
    4f60:	4e5f203d 	mrcmi	0, 2, r2, cr15, cr13, {1}
    4f64:	3b4c4c55 	blcc	13180c0 <_Min_Stack_Size+0x1317cc0>
    4f68:	2d725f20 	ldclcs	15, cr5, [r2, #-128]!	; 0xffffff80
    4f6c:	696d5f3e 	stmdbvs	sp!, {r1, r2, r3, r4, r5, r8, r9, sl, fp, ip, lr}^
    4f70:	3e2d6373 	mcrcc	3, 1, r6, cr13, cr3, {3}
    4f74:	6c626d5f 	stclvs	13, cr6, [r2], #-380	; 0xfffffe84
    4f78:	735f6e65 	cmpvc	pc, #1616	; 0x650
    4f7c:	65746174 	ldrbvs	r6, [r4, #-372]!	; 0xfffffe8c
    4f80:	635f5f2e 	cmpvs	pc, #46, 30	; 0xb8
    4f84:	746e756f 	strbtvc	r7, [lr], #-1391	; 0xfffffa91
    4f88:	30203d20 	eorcc	r3, r0, r0, lsr #26
    4f8c:	725f203b 	subsvc	r2, pc, #59	; 0x3b
    4f90:	6d5f3e2d 	ldclvs	14, cr3, [pc, #-180]	; 4ee4 <_Min_Stack_Size+0x4ae4>
    4f94:	2d637369 	stclcs	3, cr7, [r3, #-420]!	; 0xfffffe5c
    4f98:	626d5f3e 	rsbvs	r5, sp, #62, 30	; 0xf8
    4f9c:	5f6e656c 	svcpl	0x006e656c
    4fa0:	74617473 	strbtvc	r7, [r1], #-1139	; 0xfffffb8d
    4fa4:	5f5f2e65 	svcpl	0x005f2e65
    4fa8:	756c6176 	strbvc	r6, [ip, #-374]!	; 0xfffffe8a
    4fac:	5f5f2e65 	svcpl	0x005f2e65
    4fb0:	20686377 	rsbcs	r6, r8, r7, ror r3
    4fb4:	3b30203d 	blcc	c0d0b0 <_Min_Stack_Size+0xc0ccb0>
    4fb8:	2d725f20 	ldclcs	15, cr5, [r2, #-128]!	; 0xffffff80
    4fbc:	696d5f3e 	stmdbvs	sp!, {r1, r2, r3, r4, r5, r8, r9, sl, fp, ip, lr}^
    4fc0:	3e2d6373 	mcrcc	3, 1, r6, cr13, cr3, {3}
    4fc4:	7463775f 	strbtvc	r7, [r3], #-1887	; 0xfffff8a1
    4fc8:	5f626d6f 	svcpl	0x00626d6f
    4fcc:	74617473 	strbtvc	r7, [r1], #-1139	; 0xfffffb8d
    4fd0:	5f5f2e65 	svcpl	0x005f2e65
    4fd4:	6e756f63 	cdpvs	15, 7, cr6, cr5, cr3, {3}
    4fd8:	203d2074 	eorscs	r2, sp, r4, ror r0
    4fdc:	5f203b30 	svcpl	0x00203b30
    4fe0:	5f3e2d72 	svcpl	0x003e2d72
    4fe4:	6373696d 	cmnvs	r3, #1785856	; 0x1b4000
    4fe8:	775f3e2d 	ldrbvc	r3, [pc, -sp, lsr #28]
    4fec:	6d6f7463 	cfstrdvs	mvd7, [pc, #-396]!	; 4e68 <_Min_Stack_Size+0x4a68>
    4ff0:	74735f62 	ldrbtvc	r5, [r3], #-3938	; 0xfffff09e
    4ff4:	2e657461 	cdpcs	4, 6, cr7, cr5, cr1, {3}
    4ff8:	61765f5f 	cmnvs	r6, pc, asr pc
    4ffc:	2e65756c 	cdpcs	5, 6, cr7, cr5, cr12, {3}
    5000:	63775f5f 	cmnvs	r7, #380	; 0x17c
    5004:	203d2068 	eorscs	r2, sp, r8, rrx
    5008:	5f203b30 	svcpl	0x00203b30
    500c:	5f3e2d72 	svcpl	0x003e2d72
    5010:	6373696d 	cmnvs	r3, #1785856	; 0x1b4000
    5014:	6d5f3e2d 	ldclvs	14, cr3, [pc, #-180]	; 4f68 <_Min_Stack_Size+0x4b68>
    5018:	776f7462 	strbvc	r7, [pc, -r2, ror #8]!
    501c:	74735f63 	ldrbtvc	r5, [r3], #-3939	; 0xfffff09d
    5020:	2e657461 	cdpcs	4, 6, cr7, cr5, cr1, {3}
    5024:	6f635f5f 	svcvs	0x00635f5f
    5028:	20746e75 	rsbscs	r6, r4, r5, ror lr
    502c:	3b30203d 	blcc	c0d128 <_Min_Stack_Size+0xc0cd28>
    5030:	2d725f20 	ldclcs	15, cr5, [r2, #-128]!	; 0xffffff80
    5034:	696d5f3e 	stmdbvs	sp!, {r1, r2, r3, r4, r5, r8, r9, sl, fp, ip, lr}^
    5038:	3e2d6373 	mcrcc	3, 1, r6, cr13, cr3, {3}
    503c:	74626d5f 	strbtvc	r6, [r2], #-3423	; 0xfffff2a1
    5040:	5f63776f 	svcpl	0x0063776f
    5044:	74617473 	strbtvc	r7, [r1], #-1139	; 0xfffffb8d
    5048:	5f5f2e65 	svcpl	0x005f2e65
    504c:	756c6176 	strbvc	r6, [ip, #-374]!	; 0xfffffe8a
    5050:	5f5f2e65 	svcpl	0x005f2e65
    5054:	20686377 	rsbcs	r6, r8, r7, ror r3
    5058:	3b30203d 	blcc	c0d154 <_Min_Stack_Size+0xc0cd54>
    505c:	2d725f20 	ldclcs	15, cr5, [r2, #-128]!	; 0xffffff80
    5060:	696d5f3e 	stmdbvs	sp!, {r1, r2, r3, r4, r5, r8, r9, sl, fp, ip, lr}^
    5064:	3e2d6373 	mcrcc	3, 1, r6, cr13, cr3, {3}
    5068:	72626d5f 	rsbvc	r6, r2, #6080	; 0x17c0
    506c:	5f6e656c 	svcpl	0x006e656c
    5070:	74617473 	strbtvc	r7, [r1], #-1139	; 0xfffffb8d
    5074:	5f5f2e65 	svcpl	0x005f2e65
    5078:	6e756f63 	cdpvs	15, 7, cr6, cr5, cr3, {3}
    507c:	203d2074 	eorscs	r2, sp, r4, ror r0
    5080:	5f203b30 	svcpl	0x00203b30
    5084:	5f3e2d72 	svcpl	0x003e2d72
    5088:	6373696d 	cmnvs	r3, #1785856	; 0x1b4000
    508c:	6d5f3e2d 	ldclvs	14, cr3, [pc, #-180]	; 4fe0 <_Min_Stack_Size+0x4be0>
    5090:	656c7262 	strbvs	r7, [ip, #-610]!	; 0xfffffd9e
    5094:	74735f6e 	ldrbtvc	r5, [r3], #-3950	; 0xfffff092
    5098:	2e657461 	cdpcs	4, 6, cr7, cr5, cr1, {3}
    509c:	61765f5f 	cmnvs	r6, pc, asr pc
    50a0:	2e65756c 	cdpcs	5, 6, cr7, cr5, cr12, {3}
    50a4:	63775f5f 	cmnvs	r7, #380	; 0x17c
    50a8:	203d2068 	eorscs	r2, sp, r8, rrx
    50ac:	5f203b30 	svcpl	0x00203b30
    50b0:	5f3e2d72 	svcpl	0x003e2d72
    50b4:	6373696d 	cmnvs	r3, #1785856	; 0x1b4000
    50b8:	6d5f3e2d 	ldclvs	14, cr3, [pc, #-180]	; 500c <_Min_Stack_Size+0x4c0c>
    50bc:	6f747262 	svcvs	0x00747262
    50c0:	735f6377 	cmpvc	pc, #-603979775	; 0xdc000001
    50c4:	65746174 	ldrbvs	r6, [r4, #-372]!	; 0xfffffe8c
    50c8:	635f5f2e 	cmpvs	pc, #46, 30	; 0xb8
    50cc:	746e756f 	strbtvc	r7, [lr], #-1391	; 0xfffffa91
    50d0:	30203d20 	eorcc	r3, r0, r0, lsr #26
    50d4:	725f203b 	subsvc	r2, pc, #59	; 0x3b
    50d8:	6d5f3e2d 	ldclvs	14, cr3, [pc, #-180]	; 502c <_Min_Stack_Size+0x4c2c>
    50dc:	2d637369 	stclcs	3, cr7, [r3, #-420]!	; 0xfffffe5c
    50e0:	626d5f3e 	rsbvs	r5, sp, #62, 30	; 0xf8
    50e4:	776f7472 			; <UNDEFINED> instruction: 0x776f7472
    50e8:	74735f63 	ldrbtvc	r5, [r3], #-3939	; 0xfffff09d
    50ec:	2e657461 	cdpcs	4, 6, cr7, cr5, cr1, {3}
    50f0:	61765f5f 	cmnvs	r6, pc, asr pc
    50f4:	2e65756c 	cdpcs	5, 6, cr7, cr5, cr12, {3}
    50f8:	63775f5f 	cmnvs	r7, #380	; 0x17c
    50fc:	203d2068 	eorscs	r2, sp, r8, rrx
    5100:	5f203b30 	svcpl	0x00203b30
    5104:	5f3e2d72 	svcpl	0x003e2d72
    5108:	6373696d 	cmnvs	r3, #1785856	; 0x1b4000
    510c:	6d5f3e2d 	ldclvs	14, cr3, [pc, #-180]	; 5060 <_Min_Stack_Size+0x4c60>
    5110:	74727362 	ldrbtvc	r7, [r2], #-866	; 0xfffffc9e
    5114:	7363776f 	cmnvc	r3, #29097984	; 0x1bc0000
    5118:	6174735f 	cmnvs	r4, pc, asr r3
    511c:	5f2e6574 	svcpl	0x002e6574
    5120:	756f635f 	strbvc	r6, [pc, #-863]!	; 4dc9 <_Min_Stack_Size+0x49c9>
    5124:	3d20746e 	cfstrscc	mvf7, [r0, #-440]!	; 0xfffffe48
    5128:	203b3020 	eorscs	r3, fp, r0, lsr #32
    512c:	3e2d725f 	mcrcc	2, 1, r7, cr13, cr15, {2}
    5130:	73696d5f 	cmnvc	r9, #6080	; 0x17c0
    5134:	5f3e2d63 	svcpl	0x003e2d63
    5138:	7273626d 	rsbsvc	r6, r3, #-805306362	; 0xd0000006
    513c:	63776f74 	cmnvs	r7, #116, 30	; 0x1d0
    5140:	74735f73 	ldrbtvc	r5, [r3], #-3955	; 0xfffff08d
    5144:	2e657461 	cdpcs	4, 6, cr7, cr5, cr1, {3}
    5148:	61765f5f 	cmnvs	r6, pc, asr pc
    514c:	2e65756c 	cdpcs	5, 6, cr7, cr5, cr12, {3}
    5150:	63775f5f 	cmnvs	r7, #380	; 0x17c
    5154:	203d2068 	eorscs	r2, sp, r8, rrx
    5158:	5f203b30 	svcpl	0x00203b30
    515c:	5f3e2d72 	svcpl	0x003e2d72
    5160:	6373696d 	cmnvs	r3, #1785856	; 0x1b4000
    5164:	775f3e2d 	ldrbvc	r3, [pc, -sp, lsr #28]
    5168:	6f747263 	svcvs	0x00747263
    516c:	735f626d 	cmpvc	pc, #-805306362	; 0xd0000006
    5170:	65746174 	ldrbvs	r6, [r4, #-372]!	; 0xfffffe8c
    5174:	635f5f2e 	cmpvs	pc, #46, 30	; 0xb8
    5178:	746e756f 	strbtvc	r7, [lr], #-1391	; 0xfffffa91
    517c:	30203d20 	eorcc	r3, r0, r0, lsr #26
    5180:	725f203b 	subsvc	r2, pc, #59	; 0x3b
    5184:	6d5f3e2d 	ldclvs	14, cr3, [pc, #-180]	; 50d8 <_Min_Stack_Size+0x4cd8>
    5188:	2d637369 	stclcs	3, cr7, [r3, #-420]!	; 0xfffffe5c
    518c:	63775f3e 	cmnvs	r7, #62, 30	; 0xf8
    5190:	6d6f7472 	cfstrdvs	mvd7, [pc, #-456]!	; 4fd0 <_Min_Stack_Size+0x4bd0>
    5194:	74735f62 	ldrbtvc	r5, [r3], #-3938	; 0xfffff09e
    5198:	2e657461 	cdpcs	4, 6, cr7, cr5, cr1, {3}
    519c:	61765f5f 	cmnvs	r6, pc, asr pc
    51a0:	2e65756c 	cdpcs	5, 6, cr7, cr5, cr12, {3}
    51a4:	63775f5f 	cmnvs	r7, #380	; 0x17c
    51a8:	203d2068 	eorscs	r2, sp, r8, rrx
    51ac:	5f203b30 	svcpl	0x00203b30
    51b0:	5f3e2d72 	svcpl	0x003e2d72
    51b4:	6373696d 	cmnvs	r3, #1785856	; 0x1b4000
    51b8:	775f3e2d 	ldrbvc	r3, [pc, -sp, lsr #28]
    51bc:	74727363 	ldrbtvc	r7, [r2], #-867	; 0xfffffc9d
    51c0:	73626d6f 	cmnvc	r2, #7104	; 0x1bc0
    51c4:	6174735f 	cmnvs	r4, pc, asr r3
    51c8:	5f2e6574 	svcpl	0x002e6574
    51cc:	756f635f 	strbvc	r6, [pc, #-863]!	; 4e75 <_Min_Stack_Size+0x4a75>
    51d0:	3d20746e 	cfstrscc	mvf7, [r0, #-440]!	; 0xfffffe48
    51d4:	203b3020 	eorscs	r3, fp, r0, lsr #32
    51d8:	3e2d725f 	mcrcc	2, 1, r7, cr13, cr15, {2}
    51dc:	73696d5f 	cmnvc	r9, #6080	; 0x17c0
    51e0:	5f3e2d63 	svcpl	0x003e2d63
    51e4:	72736377 	rsbsvc	r6, r3, #-603979775	; 0xdc000001
    51e8:	626d6f74 	rsbvs	r6, sp, #116, 30	; 0x1d0
    51ec:	74735f73 	ldrbtvc	r5, [r3], #-3955	; 0xfffff08d
    51f0:	2e657461 	cdpcs	4, 6, cr7, cr5, cr1, {3}
    51f4:	61765f5f 	cmnvs	r6, pc, asr pc
    51f8:	2e65756c 	cdpcs	5, 6, cr7, cr5, cr12, {3}
    51fc:	63775f5f 	cmnvs	r7, #380	; 0x17c
    5200:	203d2068 	eorscs	r2, sp, r8, rrx
    5204:	5f203b30 	svcpl	0x00203b30
    5208:	5f3e2d72 	svcpl	0x003e2d72
    520c:	6373696d 	cmnvs	r3, #1785856	; 0x1b4000
    5210:	6c5f3e2d 	mrrcvs	14, 2, r3, pc, cr13	; <UNPREDICTABLE>
    5214:	5f613436 	svcpl	0x00613436
    5218:	5b667562 	blpl	19a27a8 <_Min_Stack_Size+0x19a23a8>
    521c:	3d205d30 	stccc	13, cr5, [r0, #-192]!	; 0xffffff40
    5220:	305c2720 	subscc	r2, ip, r0, lsr #14
    5224:	5f203b27 	svcpl	0x00203b27
    5228:	5f3e2d72 	svcpl	0x003e2d72
    522c:	6373696d 	cmnvs	r3, #1785856	; 0x1b4000
    5230:	675f3e2d 	ldrbvs	r3, [pc, -sp, lsr #28]
    5234:	61647465 	cmnvs	r4, r5, ror #8
    5238:	655f6574 	ldrbvs	r6, [pc, #-1396]	; 4ccc <_Min_Stack_Size+0x48cc>
    523c:	3d207272 	sfmcc	f7, 4, [r0, #-456]!	; 0xfffffe38
    5240:	203b3020 	eorscs	r3, fp, r0, lsr #32
    5244:	6877207d 	ldmdavs	r7!, {r0, r2, r3, r4, r5, r6, sp}^
    5248:	20656c69 	rsbcs	r6, r5, r9, ror #24
    524c:	00293028 	eoreq	r3, r9, r8, lsr #32
    5250:	4f4c5f5f 	svcmi	0x004c5f5f
    5254:	4c5f474e 	mrrcmi	7, 4, r4, pc, cr14	; <UNPREDICTABLE>
    5258:	5f474e4f 	svcpl	0x00474e4f
    525c:	54444957 	strbpl	r4, [r4], #-2391	; 0xfffff6a9
    5260:	205f5f48 	subscs	r5, pc, r8, asr #30
    5264:	45003436 	strmi	r3, [r0, #-1078]	; 0xfffffbca
    5268:	31495458 	cmpcc	r9, r8, asr r4
    526c:	32312032 	eorscc	r2, r1, #50	; 0x32
    5270:	4e495700 	cdpmi	7, 4, cr5, cr9, cr0, {0}
    5274:	414d5f54 	cmpmi	sp, r4, asr pc
    5278:	5f282058 	svcpl	0x00282058
    527c:	4e49575f 	mcrmi	7, 2, r5, cr9, cr15, {2}
    5280:	414d5f54 	cmpmi	sp, r4, asr pc
    5284:	295f5f58 	ldmdbcs	pc, {r3, r4, r6, r8, r9, sl, fp, ip, lr}^	; <UNPREDICTABLE>
    5288:	49504700 	ldmdbmi	r0, {r8, r9, sl, lr}^
    528c:	2820444f 	stmdacs	r0!, {r0, r1, r2, r3, r6, sl, lr}
    5290:	49504728 	ldmdbmi	r0, {r3, r5, r8, r9, sl, lr}^
    5294:	79545f4f 	ldmdbvc	r4, {r0, r1, r2, r3, r6, r8, r9, sl, fp, ip, lr}^
    5298:	65646570 	strbvs	r6, [r4, #-1392]!	; 0xfffffa90
    529c:	20745f66 	rsbscs	r5, r4, r6, ror #30
    52a0:	5047292a 	subpl	r2, r7, sl, lsr #18
    52a4:	5f444f49 	svcpl	0x00444f49
    52a8:	45534142 	ldrbmi	r4, [r3, #-322]	; 0xfffffebe
    52ac:	5f5f0029 	svcpl	0x005f0029
    52b0:	544e4955 	strbpl	r4, [lr], #-2389	; 0xfffff6ab
    52b4:	5341465f 	movtpl	r4, #5727	; 0x165f
    52b8:	5f343654 	svcpl	0x00343654
    52bc:	5f58414d 	svcpl	0x0058414d
    52c0:	7830205f 	ldmdavc	r0!, {r0, r1, r2, r3, r4, r6, sp}
    52c4:	66666666 	strbtvs	r6, [r6], -r6, ror #12
    52c8:	66666666 	strbtvs	r6, [r6], -r6, ror #12
    52cc:	66666666 	strbtvs	r6, [r6], -r6, ror #12
    52d0:	66666666 	strbtvs	r6, [r6], -r6, ror #12
    52d4:	004c4c55 	subeq	r4, ip, r5, asr ip
    52d8:	52415f5f 	subpl	r5, r1, #380	; 0x17c
    52dc:	50465f4d 	subpl	r5, r6, sp, asr #30
    52e0:	45525f00 	ldrbmi	r5, [r2, #-3840]	; 0xfffff100
    52e4:	5f544e45 	svcpl	0x00544e45
    52e8:	43454843 	movtmi	r4, #22595	; 0x5843
    52ec:	4d455f4b 	stclmi	15, cr5, [r5, #-300]	; 0xfffffed4
    52f0:	45475245 	strbmi	r5, [r7, #-581]	; 0xfffffdbb
    52f4:	2859434e 	ldmdacs	r9, {r1, r2, r3, r6, r8, r9, lr}^
    52f8:	29726176 	ldmdbcs	r2!, {r1, r2, r4, r5, r6, r8, sp, lr}^
    52fc:	45525f20 	ldrbmi	r5, [r2, #-3872]	; 0xfffff0e0
    5300:	5f544e45 	svcpl	0x00544e45
    5304:	43454843 	movtmi	r4, #22595	; 0x5843
    5308:	6176284b 	cmnvs	r6, fp, asr #16
    530c:	5f202c72 	svcpl	0x00202c72
    5310:	72656d65 	rsbvc	r6, r5, #6464	; 0x1940
    5314:	636e6567 	cmnvs	lr, #432013312	; 0x19c00000
    5318:	63202c79 			; <UNDEFINED> instruction: 0x63202c79
    531c:	20726168 	rsbscs	r6, r2, r8, ror #2
    5320:	5f202c2a 	svcpl	0x00202c2a
    5324:	4e454552 	mcrmi	5, 2, r4, cr5, cr2, {2}
    5328:	4d455f54 	stclmi	15, cr5, [r5, #-336]	; 0xfffffeb0
    532c:	45475245 	strbmi	r5, [r7, #-581]	; 0xfffffdbb
    5330:	5f59434e 	svcpl	0x0059434e
    5334:	455a4953 	ldrbmi	r4, [sl, #-2387]	; 0xfffff6ad
    5338:	0029202c 	eoreq	r2, r9, ip, lsr #32
    533c:	52415f5f 	subpl	r5, r1, #380	; 0x17c
    5340:	45465f4d 	strbmi	r5, [r6, #-3917]	; 0xfffff0b3
    5344:	52555441 	subspl	r5, r5, #1090519040	; 0x41000000
    5348:	53445f45 	movtpl	r5, #20293	; 0x4f45
    534c:	5f5f0050 	svcpl	0x005f0050
    5350:	50544e49 	subspl	r4, r4, r9, asr #28
    5354:	575f5254 			; <UNDEFINED> instruction: 0x575f5254
    5358:	48544449 	ldmdami	r4, {r0, r3, r6, sl, lr}^
    535c:	33205f5f 			; <UNDEFINED> instruction: 0x33205f5f
    5360:	525f0032 	subspl	r0, pc, #50	; 0x32
    5364:	544e4545 	strbpl	r4, [lr], #-1349	; 0xfffffabb
    5368:	494e495f 	stmdbmi	lr, {r0, r1, r2, r3, r4, r6, r8, fp, lr}^
    536c:	504d5f54 	subpl	r5, sp, r4, asr pc
    5370:	72617628 	rsbvc	r7, r1, #40, 12	; 0x2800000
    5374:	6f642029 	svcvs	0x00642029
    5378:	73207b20 			; <UNDEFINED> instruction: 0x73207b20
    537c:	63757274 	cmnvs	r5, #116, 4	; 0x40000007
    5380:	725f2074 	subsvc	r2, pc, #116	; 0x74
    5384:	746e6565 	strbtvc	r6, [lr], #-1381	; 0xfffffa9b
    5388:	725f2a20 	subsvc	r2, pc, #32, 20	; 0x20000
    538c:	28203d20 	stmdacs	r0!, {r5, r8, sl, fp, ip, sp}
    5390:	29726176 	ldmdbcs	r2!, {r1, r2, r4, r5, r6, r8, sp, lr}^
    5394:	725f203b 	subsvc	r2, pc, #59	; 0x3b
    5398:	6d5f3e2d 	ldclvs	14, cr3, [pc, #-180]	; 52ec <_Min_Stack_Size+0x4eec>
    539c:	5f3e2d70 	svcpl	0x003e2d70
    53a0:	75736572 	ldrbvc	r6, [r3, #-1394]!	; 0xfffffa8e
    53a4:	6b5f746c 	blvs	17e255c <_Min_Stack_Size+0x17e215c>
    53a8:	30203d20 	eorcc	r3, r0, r0, lsr #26
    53ac:	725f203b 	subsvc	r2, pc, #59	; 0x3b
    53b0:	6d5f3e2d 	ldclvs	14, cr3, [pc, #-180]	; 5304 <_Min_Stack_Size+0x4f04>
    53b4:	5f3e2d70 	svcpl	0x003e2d70
    53b8:	75736572 	ldrbvc	r6, [r3, #-1394]!	; 0xfffffa8e
    53bc:	3d20746c 	cfstrscc	mvf7, [r0, #-432]!	; 0xfffffe50
    53c0:	2d725f20 	ldclcs	15, cr5, [r2, #-128]!	; 0xffffff80
    53c4:	706d5f3e 	rsbvc	r5, sp, lr, lsr pc
    53c8:	705f3e2d 	subsvc	r3, pc, sp, lsr #28
    53cc:	3d207335 	stccc	3, cr7, [r0, #-212]!	; 0xffffff2c
    53d0:	554e5f20 	strbpl	r5, [lr, #-3872]	; 0xfffff0e0
    53d4:	203b4c4c 	eorscs	r4, fp, ip, asr #24
    53d8:	3e2d725f 	mcrcc	2, 1, r7, cr13, cr15, {2}
    53dc:	2d706d5f 	ldclcs	13, cr6, [r0, #-380]!	; 0xfffffe84
    53e0:	72665f3e 	rsbvc	r5, r6, #62, 30	; 0xf8
    53e4:	696c6565 	stmdbvs	ip!, {r0, r2, r5, r6, r8, sl, sp, lr}^
    53e8:	3d207473 	cfstrscc	mvf7, [r0, #-460]!	; 0xfffffe34
    53ec:	554e5f20 	strbpl	r5, [lr, #-3872]	; 0xfffff0e0
    53f0:	203b4c4c 	eorscs	r4, fp, ip, asr #24
    53f4:	6877207d 	ldmdavs	r7!, {r0, r2, r3, r4, r5, r6, sp}^
    53f8:	20656c69 	rsbcs	r6, r5, r9, ror #24
    53fc:	00293028 	eoreq	r3, r9, r8, lsr #32
    5400:	49545845 	ldmdbmi	r4, {r0, r2, r6, fp, ip, lr}^
    5404:	706e495f 	rsbvc	r4, lr, pc, asr r9
    5408:	694c7475 	stmdbvs	ip, {r0, r2, r4, r5, r6, sl, ip, sp, lr}^
    540c:	754e656e 	strbvc	r6, [lr, #-1390]	; 0xfffffa92
    5410:	7265626d 	rsbvc	r6, r5, #-805306362	; 0xd0000006
    5414:	49504700 	ldmdbmi	r0, {r8, r9, sl, lr}^
    5418:	4f4d5f4f 	svcmi	0x004d5f4f
    541c:	4f5f4544 	svcmi	0x005f4544
    5420:	55505455 	ldrbpl	r5, [r0, #-1109]	; 0xfffffbab
    5424:	46415f54 			; <UNDEFINED> instruction: 0x46415f54
    5428:	2050505f 	subscs	r5, r0, pc, asr r0
    542c:	30307830 	eorscc	r7, r0, r0, lsr r8
    5430:	30303030 	eorscc	r3, r0, r0, lsr r0
    5434:	5f003630 	svcpl	0x00003630
    5438:	544c465f 	strbpl	r4, [ip], #-1631	; 0xfffff9a1
    543c:	5f583233 	svcpl	0x00583233
    5440:	5f4e494d 	svcpl	0x004e494d
    5444:	2e32205f 	mrccs	0, 1, r2, cr2, cr15, {2}
    5448:	30353232 	eorscc	r3, r5, r2, lsr r2
    544c:	35383337 	ldrcc	r3, [r8, #-823]!	; 0xfffffcc9
    5450:	37303538 			; <UNDEFINED> instruction: 0x37303538
    5454:	34313032 	ldrtcc	r3, [r1], #-50	; 0xffffffce
    5458:	30332d65 	eorscc	r2, r3, r5, ror #26
    545c:	32334638 	eorscc	r4, r3, #56, 12	; 0x3800000
    5460:	58450078 	stmdapl	r5, {r3, r4, r5, r6}^
    5464:	50334954 	eorspl	r4, r3, r4, asr r9
    5468:	28203342 	stmdacs	r0!, {r1, r6, r8, r9, ip, sp}
    546c:	49545845 	ldmdbmi	r4, {r0, r2, r6, fp, ip, lr}^
    5470:	4950475f 	ldmdbmi	r0, {r0, r1, r2, r3, r4, r6, r8, r9, sl, lr}^
    5474:	614d5f4f 	cmpvs	sp, pc, asr #30
    5478:	6e697070 	mcrvs	0, 3, r7, cr9, cr0, {3}
    547c:	29745f67 	ldmdbcs	r4!, {r0, r1, r2, r5, r6, r8, r9, sl, fp, ip, lr}^
    5480:	5458457b 	ldrbpl	r4, [r8], #-1403	; 0xfffffa85
    5484:	202c3349 	eorcs	r3, ip, r9, asr #6
    5488:	4f495047 	svcmi	0x00495047
    548c:	47202c42 	strmi	r2, [r0, -r2, asr #24]!
    5490:	5f4f4950 	svcpl	0x004f4950
    5494:	5f4e4950 	svcpl	0x004e4950
    5498:	45202c33 	strmi	r2, [r0, #-3123]!	; 0xfffff3cd
    549c:	33495458 	movtcc	r5, #37976	; 0x9458
    54a0:	5152495f 	cmppl	r2, pc, asr r9
    54a4:	525f007d 	subspl	r0, pc, #125	; 0x7d
    54a8:	544e4545 	strbpl	r4, [lr], #-1349	; 0xfffffabb
    54ac:	4e41525f 	mcrmi	2, 2, r5, cr1, cr15, {2}
    54b0:	5f383444 	svcpl	0x00383444
    54b4:	544c554d 	strbpl	r5, [ip], #-1357	; 0xfffffab3
    54b8:	72747028 	rsbsvc	r7, r4, #40	; 0x28
    54bc:	28282029 	stmdacs	r8!, {r0, r3, r5, sp}
    54c0:	29727470 	ldmdbcs	r2!, {r4, r5, r6, sl, ip, sp, lr}^
    54c4:	725f3e2d 	subsvc	r3, pc, #720	; 0x2d0
    54c8:	3e2d3834 	mcrcc	8, 1, r3, cr13, cr4, {1}
    54cc:	6c756d5f 	ldclvs	13, cr6, [r5], #-380	; 0xfffffe84
    54d0:	5f002974 	svcpl	0x00002974
    54d4:	544c465f 	strbpl	r4, [ip], #-1631	; 0xfffff9a1
    54d8:	4d5f3436 	cfldrdmi	mvd3, [pc, #-216]	; 5408 <_Min_Stack_Size+0x5008>
    54dc:	455f5841 	ldrbmi	r5, [pc, #-2113]	; 4ca3 <_Min_Stack_Size+0x48a3>
    54e0:	5f5f5058 	svcpl	0x005f5058
    54e4:	32303120 	eorscc	r3, r0, #32, 2
    54e8:	5f5f0034 	svcpl	0x005f0034
    54ec:	41484357 	cmpmi	r8, r7, asr r3
    54f0:	20545f52 	subscs	r5, r4, r2, asr pc
    54f4:	5f424d00 	svcpl	0x00424d00
    54f8:	5f525543 	svcpl	0x00525543
    54fc:	2058414d 	subscs	r4, r8, sp, asr #2
    5500:	6f6c5f5f 	svcvs	0x006c5f5f
    5504:	656c6163 	strbvs	r6, [ip, #-355]!	; 0xfffffe9d
    5508:	5f626d5f 	svcpl	0x00626d5f
    550c:	5f727563 	svcpl	0x00727563
    5510:	2878616d 	ldmdacs	r8!, {r0, r2, r3, r5, r6, r8, sp, lr}^
    5514:	5f5f0029 	svcpl	0x005f0029
    5518:	36544c46 	ldrbcc	r4, [r4], -r6, asr #24
    551c:	494d5f34 	stmdbmi	sp, {r2, r4, r5, r8, r9, sl, fp, ip, lr}^
    5520:	205f5f4e 	subscs	r5, pc, lr, asr #30
    5524:	32322e32 	eorscc	r2, r2, #800	; 0x320
    5528:	33373035 	teqcc	r7, #53	; 0x35
    552c:	35383538 	ldrcc	r3, [r8, #-1336]!	; 0xfffffac8
    5530:	30323730 	eorscc	r3, r2, r0, lsr r7
    5534:	2d653431 	cfstrdcs	mvd3, [r5, #-196]!	; 0xffffff3c
    5538:	46383033 			; <UNDEFINED> instruction: 0x46383033
    553c:	5f003436 	svcpl	0x00003436
    5540:	6e695f5f 	mcrvs	15, 3, r5, cr9, cr15, {2}
    5544:	5f323374 	svcpl	0x00323374
    5548:	65645f74 	strbvs	r5, [r4, #-3956]!	; 0xfffff08c
    554c:	656e6966 	strbvs	r6, [lr, #-2406]!	; 0xfffff69a
    5550:	00312064 	eorseq	r2, r1, r4, rrx
    5554:	32425041 	subcc	r5, r2, #65	; 0x41
    5558:	52545352 	subspl	r5, r4, #1207959553	; 0x48000001
    555c:	5f774800 	svcpl	0x00774800
    5560:	776f6c66 	strbvc	r6, [pc, -r6, ror #24]!
    5564:	6c727443 	cfldrdvs	mvd7, [r2], #-268	; 0xfffffef4
    5568:	5354435f 	cmppl	r4, #2080374785	; 0x7c000001
    556c:	69752820 	ldmdbvs	r5!, {r5, fp, sp}^
    5570:	3233746e 	eorscc	r7, r3, #1845493760	; 0x6e000000
    5574:	2829745f 	stmdacs	r9!, {r0, r1, r2, r3, r4, r6, sl, ip, sp, lr}
    5578:	393c3c31 	ldmdbcc	ip!, {r0, r4, r5, sl, fp, ip, sp}
    557c:	50470029 	subpl	r0, r7, r9, lsr #32
    5580:	505f4f49 	subspl	r4, pc, r9, asr #30
    5584:	385f4e49 	ldmdacc	pc, {r0, r3, r6, r9, sl, fp, lr}^	; <UNPREDICTABLE>
    5588:	75282820 	strvc	r2, [r8, #-2080]!	; 0xfffff7e0
    558c:	31746e69 	cmncc	r4, r9, ror #28
    5590:	29745f36 	ldmdbcs	r4!, {r1, r2, r4, r5, r8, r9, sl, fp, ip, lr}^
    5594:	30783020 	rsbscc	r3, r8, r0, lsr #32
    5598:	29303031 	ldmdbcs	r0!, {r0, r4, r5, ip, sp}
    559c:	465f5f00 	ldrbmi	r5, [pc], -r0, lsl #30
    55a0:	4d5f544c 	cfldrdmi	mvd5, [pc, #-304]	; 5478 <_Min_Stack_Size+0x5078>
    55a4:	455f4e49 	ldrbmi	r4, [pc, #-3657]	; 4763 <_Min_Stack_Size+0x4363>
    55a8:	5f5f5058 	svcpl	0x005f5058
    55ac:	312d2820 			; <UNDEFINED> instruction: 0x312d2820
    55b0:	00293532 	eoreq	r3, r9, r2, lsr r5
    55b4:	52415f5f 	subpl	r5, r1, #380	; 0x17c
    55b8:	52415f4d 	subpl	r5, r1, #308	; 0x134
    55bc:	505f4843 	subspl	r4, pc, r3, asr #16
    55c0:	49464f52 	stmdbmi	r6, {r1, r4, r6, r8, r9, sl, fp, lr}^
    55c4:	5f00454c 	svcpl	0x0000454c
    55c8:	544e495f 	strbpl	r4, [lr], #-2399	; 0xfffff6a1
    55cc:	545f3436 	ldrbpl	r3, [pc], #-1078	; 55d4 <_Min_Stack_Size+0x51d4>
    55d0:	5f455059 	svcpl	0x00455059
    55d4:	6f6c205f 	svcvs	0x006c205f
    55d8:	6c20676e 	stcvs	7, cr6, [r0], #-440	; 0xfffffe48
    55dc:	20676e6f 	rsbcs	r6, r7, pc, ror #28
    55e0:	00746e69 	rsbseq	r6, r4, r9, ror #28
    55e4:	464c5f5f 			; <UNDEFINED> instruction: 0x464c5f5f
    55e8:	54434152 	strbpl	r4, [r3], #-338	; 0xfffffeae
    55ec:	4942465f 	stmdbmi	r2, {r0, r1, r2, r3, r4, r6, r9, sl, lr}^
    55f0:	205f5f54 	subscs	r5, pc, r4, asr pc	; <UNPREDICTABLE>
    55f4:	5f003133 	svcpl	0x00003133
    55f8:	4148435f 	cmpmi	r8, pc, asr r3
    55fc:	49425f52 	stmdbmi	r2, {r1, r4, r6, r8, r9, sl, fp, ip, lr}^
    5600:	205f5f54 	subscs	r5, pc, r4, asr pc	; <UNPREDICTABLE>
    5604:	58450038 	stmdapl	r5, {r3, r4, r5}^
    5608:	505f4954 	subspl	r4, pc, r4, asr r9	; <UNPREDICTABLE>
    560c:	5f004e49 	svcpl	0x00004e49
    5610:	4453425f 	ldrbmi	r4, [r3], #-607	; 0xfffffda1
    5614:	5349565f 	movtpl	r5, #38495	; 0x965f
    5618:	454c4249 	strbmi	r4, [ip, #-585]	; 0xfffffdb7
    561c:	49003120 	stmdbmi	r0, {r5, r8, ip, sp}
    5620:	4c5f544e 	cfldrdmi	mvd5, [pc], {78}	; 0x4e
    5624:	54534145 	ldrbpl	r4, [r3], #-325	; 0xfffffebb
    5628:	4d5f3631 	ldclmi	6, cr3, [pc, #-196]	; 556c <_Min_Stack_Size+0x516c>
    562c:	28204e49 	stmdacs	r0!, {r0, r3, r6, r9, sl, fp, lr}
    5630:	495f5f2d 	ldmdbmi	pc, {r0, r2, r3, r5, r8, r9, sl, fp, ip, lr}^	; <UNPREDICTABLE>
    5634:	4c5f544e 	cfldrdmi	mvd5, [pc], {78}	; 0x4e
    5638:	54534145 	ldrbpl	r4, [r3], #-325	; 0xfffffebb
    563c:	4d5f3631 	ldclmi	6, cr3, [pc, #-196]	; 5580 <_Min_Stack_Size+0x5180>
    5640:	5f5f5841 	svcpl	0x005f5841
    5644:	31202d20 			; <UNDEFINED> instruction: 0x31202d20
    5648:	5f5f0029 	svcpl	0x005f0029
    564c:	73756e75 	cmnvc	r5, #1872	; 0x750
    5650:	5f206465 	svcpl	0x00206465
    5654:	7474615f 	ldrbtvc	r6, [r4], #-351	; 0xfffffea1
    5658:	75626972 	strbvc	r6, [r2, #-2418]!	; 0xfffff68e
    565c:	5f5f6574 	svcpl	0x005f6574
    5660:	5f5f2828 	svcpl	0x005f2828
    5664:	73756e75 	cmnvc	r5, #1872	; 0x750
    5668:	5f5f6465 	svcpl	0x005f6465
    566c:	4f002929 	svcmi	0x00002929
    5670:	65535f53 	ldrbvs	r5, [r3, #-3923]	; 0xfffff0ad
    5674:	53505f74 	cmppl	r0, #116, 30	; 0x1d0
    5678:	64612850 	strbtvs	r2, [r1], #-2128	; 0xfffff7b0
    567c:	5f202964 	svcpl	0x00202964
    5680:	6d73615f 	ldfvse	f6, [r3, #-380]!	; 0xfffffe84
    5684:	6c6f7620 	stclvs	6, cr7, [pc], #-128	; 560c <_Min_Stack_Size+0x520c>
    5688:	6c697461 	cfstrdvs	mvd7, [r9], #-388	; 0xfffffe7c
    568c:	4d222865 	stcmi	8, cr2, [r2, #-404]!	; 0xfffffe6c
    5690:	7220564f 	eorvc	r5, r0, #82837504	; 0x4f00000
    5694:	30252c30 	eorcc	r2, r5, r0, lsr ip
    5698:	5c6e5c20 	stclpl	12, cr5, [lr], #-128	; 0xffffff80
    569c:	534d2074 	movtpl	r2, #53364	; 0xd074
    56a0:	53502052 	cmppl	r0, #82	; 0x52
    56a4:	30722c50 	rsbscc	r2, r2, r0, asr ip
    56a8:	203a2022 	eorscs	r2, sl, r2, lsr #32
    56ac:	2272223a 	rsbscs	r2, r2, #-1610612733	; 0xa0000003
    56b0:	64612820 	strbtvs	r2, [r1], #-2080	; 0xfffff7e0
    56b4:	00292964 	eoreq	r2, r9, r4, ror #18
    56b8:	53415f5f 	movtpl	r5, #8031	; 0x1f5f
    56bc:	54524553 	ldrbpl	r4, [r2], #-1363	; 0xfffffaad
    56c0:	4e55465f 	mrcmi	6, 2, r4, cr5, cr15, {2}
    56c4:	5f5f2043 	svcpl	0x005f2043
    56c8:	636e7566 	cmnvs	lr, #427819008	; 0x19800000
    56cc:	55005f5f 	strpl	r5, [r0, #-3935]	; 0xfffff0a1
    56d0:	54524153 	ldrbpl	r4, [r2], #-339	; 0xfffffead
    56d4:	52495f32 	subpl	r5, r9, #50, 30	; 0xc8
    56d8:	38332051 	ldmdacc	r3!, {r0, r4, r6, sp}
    56dc:	555f5f00 	ldrbpl	r5, [pc, #-3840]	; 47e4 <_Min_Stack_Size+0x43e4>
    56e0:	43415246 	movtmi	r5, #4678	; 0x1246
    56e4:	414d5f54 	cmpmi	sp, r4, asr pc
    56e8:	205f5f58 	subscs	r5, pc, r8, asr pc	; <UNPREDICTABLE>
    56ec:	46465830 			; <UNDEFINED> instruction: 0x46465830
    56f0:	2d504646 	ldclcs	6, cr4, [r0, #-280]	; 0xfffffee8
    56f4:	52553631 	subspl	r3, r5, #51380224	; 0x3100000
    56f8:	5f5f5f00 	svcpl	0x005f5f00
    56fc:	5f746e69 	svcpl	0x00746e69
    5700:	7361656c 	cmnvc	r1, #108, 10	; 0x1b000000
    5704:	5f343674 	svcpl	0x00343674
    5708:	65645f74 	strbvs	r5, [r4, #-3956]!	; 0xfffff08c
    570c:	656e6966 	strbvs	r6, [lr, #-2406]!	; 0xfffff69a
    5710:	00312064 	eorseq	r2, r1, r4, rrx
    5714:	49545845 	ldmdbmi	r4, {r0, r2, r6, fp, ip, lr}^
    5718:	43503031 	cmpmi	r0, #49	; 0x31
    571c:	28203031 	stmdacs	r0!, {r0, r4, r5, ip, sp}
    5720:	49545845 	ldmdbmi	r4, {r0, r2, r6, fp, ip, lr}^
    5724:	4950475f 	ldmdbmi	r0, {r0, r1, r2, r3, r4, r6, r8, r9, sl, lr}^
    5728:	614d5f4f 	cmpvs	sp, pc, asr #30
    572c:	6e697070 	mcrvs	0, 3, r7, cr9, cr0, {3}
    5730:	29745f67 	ldmdbcs	r4!, {r0, r1, r2, r5, r6, r8, r9, sl, fp, ip, lr}^
    5734:	5458457b 	ldrbpl	r4, [r8], #-1403	; 0xfffffa85
    5738:	2c303149 	ldfcss	f3, [r0], #-292	; 0xfffffedc
    573c:	49504720 	ldmdbmi	r0, {r5, r8, r9, sl, lr}^
    5740:	202c434f 	eorcs	r4, ip, pc, asr #6
    5744:	4f495047 	svcmi	0x00495047
    5748:	4e49505f 	mcrmi	0, 2, r5, cr9, cr15, {2}
    574c:	2c30315f 	ldfcss	f3, [r0], #-380	; 0xfffffe84
    5750:	54584520 	ldrbpl	r4, [r8], #-1312	; 0xfffffae0
    5754:	5f303149 	svcpl	0x00303149
    5758:	7d515249 	lfmvc	f5, 2, [r1, #-292]	; 0xfffffedc
    575c:	545f5f00 	ldrbpl	r5, [pc], #-3840	; 5764 <_Min_Stack_Size+0x5364>
    5760:	574f5248 	strbpl	r5, [pc, -r8, asr #4]
    5764:	525f0020 	subspl	r0, pc, #32
    5768:	544e4545 	strbpl	r4, [lr], #-1349	; 0xfffffabb
    576c:	4548435f 	strbmi	r4, [r8, #-863]	; 0xfffffca1
    5770:	4d5f4b43 	vldrmi	d20, [pc, #-268]	; 566c <_Min_Stack_Size+0x526c>
    5774:	61762850 	cmnvs	r6, r0, asr r8
    5778:	5f202972 	svcpl	0x00202972
    577c:	4e454552 	mcrmi	5, 2, r4, cr5, cr2, {2}
    5780:	48435f54 	stmdami	r3, {r2, r4, r6, r8, r9, sl, fp, ip, lr}^
    5784:	284b4345 	stmdacs	fp, {r0, r2, r6, r8, r9, lr}^
    5788:	2c726176 	ldfcse	f6, [r2], #-472	; 0xfffffe28
    578c:	706d5f20 	rsbvc	r5, sp, r0, lsr #30
    5790:	7473202c 	ldrbtvc	r2, [r3], #-44	; 0xffffffd4
    5794:	74637572 	strbtvc	r7, [r3], #-1394	; 0xfffffa8e
    5798:	706d5f20 	rsbvc	r5, sp, r0, lsr #30
    579c:	20636572 	rsbcs	r6, r3, r2, ror r5
    57a0:	73202c2a 			; <UNDEFINED> instruction: 0x73202c2a
    57a4:	6f657a69 	svcvs	0x00657a69
    57a8:	282a2066 	stmdacs	sl!, {r1, r2, r5, r6, sp}
    57ac:	72617628 	rsbvc	r7, r1, #40, 12	; 0x2800000
    57b0:	5f3e2d29 	svcpl	0x003e2d29
    57b4:	2c29706d 	stccs	0, cr7, [r9], #-436	; 0xfffffe4c
    57b8:	45525f20 	ldrbmi	r5, [r2, #-3872]	; 0xfffff0e0
    57bc:	5f544e45 	svcpl	0x00544e45
    57c0:	54494e49 	strbpl	r4, [r9], #-3657	; 0xfffff1b7
    57c4:	28504d5f 	ldmdacs	r0, {r0, r1, r2, r3, r4, r6, r8, sl, fp, lr}^
    57c8:	29726176 	ldmdbcs	r2!, {r1, r2, r4, r5, r6, r8, sp, lr}^
    57cc:	5f5f0029 	svcpl	0x005f0029
    57d0:	41524653 	cmpmi	r2, r3, asr r6
    57d4:	495f5443 	ldmdbmi	pc, {r0, r1, r6, sl, ip, lr}^	; <UNPREDICTABLE>
    57d8:	5f544942 	svcpl	0x00544942
    57dc:	0030205f 	eorseq	r2, r0, pc, asr r0
    57e0:	4349564e 	movtmi	r5, #38478	; 0x964e
    57e4:	5458455f 	ldrbpl	r4, [r8], #-1375	; 0xfffffaa1
    57e8:	495f3349 	ldmdbmi	pc, {r0, r3, r6, r8, r9, ip, sp}^	; <UNPREDICTABLE>
    57ec:	445f5152 	ldrbmi	r5, [pc], #-338	; 57f4 <_Min_Stack_Size+0x53f4>
    57f0:	62617369 	rsbvs	r7, r1, #-1543503871	; 0xa4000001
    57f4:	2820656c 	stmdacs	r0!, {r2, r3, r5, r6, r8, sl, sp, lr}
    57f8:	4349564e 	movtmi	r5, #38478	; 0x964e
    57fc:	4543495f 	strbmi	r4, [r3, #-2399]	; 0xfffff6a1
    5800:	7c203052 	stcvc	0, cr3, [r0], #-328	; 0xfffffeb8
    5804:	3c31203d 	ldccc	0, cr2, [r1], #-244	; 0xffffff0c
    5808:	0029393c 	eoreq	r3, r9, ip, lsr r9
    580c:	4654415f 			; <UNDEFINED> instruction: 0x4654415f
    5810:	5f454c49 	svcpl	0x00454c49
    5814:	52554f53 	subspl	r4, r5, #332	; 0x14c
    5818:	31204543 			; <UNDEFINED> instruction: 0x31204543
    581c:	535f5f00 	cmppl	pc, #0, 30
    5820:	4e494454 	mcrmi	4, 2, r4, cr9, cr4, {2}
    5824:	58455f54 	stmdapl	r5, {r2, r4, r6, r8, r9, sl, fp, ip, lr}^
    5828:	29782850 	ldmdbcs	r8!, {r4, r6, fp, sp}^
    582c:	205f5f20 	subscs	r5, pc, r0, lsr #30
    5830:	20782323 	rsbscs	r2, r8, r3, lsr #6
    5834:	5f5f2323 	svcpl	0x005f2323
    5838:	455f5f00 	ldrbmi	r5, [pc, #-3840]	; 4940 <_Min_Stack_Size+0x4540>
    583c:	78285058 	stmdavc	r8!, {r3, r4, r6, ip, lr}
    5840:	5f5f2029 	svcpl	0x005f2029
    5844:	78232320 	stmdavc	r3!, {r5, r8, r9, sp}
    5848:	5f232320 	svcpl	0x00232320
    584c:	5f5f005f 	svcpl	0x005f005f
    5850:	45545942 	ldrbmi	r5, [r4, #-2370]	; 0xfffff6be
    5854:	44524f5f 	ldrbmi	r4, [r2], #-3935	; 0xfffff0a1
    5858:	5f5f5245 	svcpl	0x005f5245
    585c:	4f5f5f20 	svcmi	0x005f5f20
    5860:	52454452 	subpl	r4, r5, #1375731712	; 0x52000000
    5864:	54494c5f 	strbpl	r4, [r9], #-3167	; 0xfffff3a1
    5868:	5f454c54 	svcpl	0x00454c54
    586c:	49444e45 	stmdbmi	r4, {r0, r2, r6, r9, sl, fp, lr}^
    5870:	5f5f4e41 	svcpl	0x005f4e41
    5874:	465f5f00 	ldrbmi	r5, [pc], -r0, lsl #30
    5878:	3233544c 	eorscc	r5, r3, #76, 8	; 0x4c000000
    587c:	5350455f 	cmppl	r0, #398458880	; 0x17c00000
    5880:	4e4f4c49 	cdpmi	12, 4, cr4, cr15, cr9, {2}
    5884:	31205f5f 			; <UNDEFINED> instruction: 0x31205f5f
    5888:	3239312e 	eorscc	r3, r9, #-2147483637	; 0x8000000b
    588c:	38323930 	ldmdacc	r2!, {r4, r5, r8, fp, ip, sp}
    5890:	30353539 	eorscc	r3, r5, r9, lsr r5
    5894:	32313837 	eorscc	r3, r1, #3604480	; 0x370000
    5898:	372d6535 			; <UNDEFINED> instruction: 0x372d6535
    589c:	00323346 	eorseq	r3, r2, r6, asr #6
    58a0:	52415f5f 	subpl	r5, r1, #380	; 0x17c
    58a4:	454e5f4d 	strbmi	r5, [lr, #-3917]	; 0xfffff0b3
    58a8:	465f4e4f 	ldrbmi	r4, [pc], -pc, asr #28
    58ac:	4e5f0050 	mrcmi	0, 2, r0, cr15, cr0, {2}
    58b0:	5248544f 	subpl	r5, r8, #1325400064	; 0x4f000000
    58b4:	0020574f 	eoreq	r5, r0, pc, asr #14
    58b8:	534e415f 	movtpl	r4, #57695	; 0xe15f
    58bc:	43454449 	movtmi	r4, #21577	; 0x5449
    58c0:	5f485f4c 	svcpl	0x00485f4c
    58c4:	58450020 	stmdapl	r5, {r5}^
    58c8:	30314954 	eorscc	r4, r1, r4, asr r9
    58cc:	5152495f 	cmppl	r2, pc, asr r9
    58d0:	00303420 	eorseq	r3, r0, r0, lsr #8
    58d4:	5f434352 	svcpl	0x00434352
    58d8:	31495053 	qdaddcc	r5, r3, r9
    58dc:	4b4c435f 	blmi	1316660 <_Min_Stack_Size+0x1316260>
    58e0:	284e455f 	stmdacs	lr, {r0, r1, r2, r3, r4, r6, r8, sl, lr}^
    58e4:	52282029 	eorpl	r2, r8, #41	; 0x29
    58e8:	3e2d4343 	cdpcc	3, 2, cr4, cr13, cr3, {2}
    58ec:	32425041 	subcc	r5, r2, #65	; 0x41
    58f0:	20524e45 	subscs	r4, r2, r5, asr #28
    58f4:	28203d7c 	stmdacs	r0!, {r2, r3, r4, r5, r6, r8, sl, fp, ip, sp}
    58f8:	313c3c31 	teqcc	ip, r1, lsr ip
    58fc:	00292932 	eoreq	r2, r9, r2, lsr r9
    5900:	31495053 	qdaddcc	r5, r3, r9
    5904:	5341425f 	movtpl	r4, #4703	; 0x125f
    5908:	78302045 	ldmdavc	r0!, {r0, r2, r6, sp}
    590c:	31303034 	teqcc	r0, r4, lsr r0
    5910:	30303033 	eorscc	r3, r0, r3, lsr r0
    5914:	5f5f0075 	svcpl	0x005f0075
    5918:	49534f50 	ldmdbmi	r3, {r4, r6, r8, r9, sl, fp, lr}^
    591c:	49565f58 	ldmdbmi	r6, {r3, r4, r6, r8, r9, sl, fp, ip, lr}^
    5920:	4c424953 	mcrrmi	9, 5, r4, r2, cr3	; <UNPREDICTABLE>
    5924:	30322045 	eorscc	r2, r2, r5, asr #32
    5928:	39303830 	ldmdbcc	r0!, {r4, r5, fp, ip, sp}
    592c:	52415500 	subpl	r5, r1, #0, 10
    5930:	74735f54 	ldrbtvc	r5, [r3], #-3924	; 0xfffff0ac
    5934:	6942706f 	stmdbvs	r2, {r0, r1, r2, r3, r5, r6, ip, sp, lr}^
    5938:	315f7374 	cmpcc	pc, r4, ror r3	; <UNPREDICTABLE>
    593c:	69752820 	ldmdbvs	r5!, {r5, fp, sp}^
    5940:	3233746e 	eorscc	r7, r3, #1845493760	; 0x6e000000
    5944:	3029745f 	eorcc	r7, r9, pc, asr r4
    5948:	54584500 	ldrbpl	r4, [r8], #-1280	; 0xfffffb00
    594c:	5f343149 	svcpl	0x00343149
    5950:	20515249 	subscs	r5, r1, r9, asr #4
    5954:	45003034 	strmi	r3, [r0, #-52]	; 0xffffffcc
    5958:	31495458 	cmpcc	r9, r8, asr r4
    595c:	5f003120 	svcpl	0x00003120
    5960:	5246555f 	subpl	r5, r6, #398458880	; 0x17c00000
    5964:	5f544341 	svcpl	0x00544341
    5968:	54494246 	strbpl	r4, [r9], #-582	; 0xfffffdba
    596c:	31205f5f 			; <UNDEFINED> instruction: 0x31205f5f
    5970:	58450036 	stmdapl	r5, {r1, r2, r4, r5}^
    5974:	425f4954 	subsmi	r4, pc, #84, 18	; 0x150000
    5978:	20455341 	subcs	r5, r5, r1, asr #6
    597c:	30347830 	eorscc	r7, r4, r0, lsr r8
    5980:	34303130 	ldrtcc	r3, [r0], #-304	; 0xfffffed0
    5984:	00753030 	rsbseq	r3, r5, r0, lsr r0
    5988:	44555f5f 	ldrbmi	r5, [r5], #-3935	; 0xfffff0a1
    598c:	42465f51 	submi	r5, r6, #324	; 0x144
    5990:	5f5f5449 	svcpl	0x005f5449
    5994:	00343620 	eorseq	r3, r4, r0, lsr #12
    5998:	42445f5f 	submi	r5, r4, #380	; 0x17c
    599c:	4f4e5f4c 	svcmi	0x004e5f4c
    59a0:	4d5f4d52 	ldclmi	13, cr4, [pc, #-328]	; 5860 <_Min_Stack_Size+0x5460>
    59a4:	5f5f5841 	svcpl	0x005f5841
    59a8:	64282820 	strtvs	r2, [r8], #-2080	; 0xfffff7e0
    59ac:	6c62756f 	cfstr64vs	mvdx7, [r2], #-444	; 0xfffffe44
    59b0:	2e312965 	vsubcs.f16	s4, s2, s11	; <UNPREDICTABLE>
    59b4:	36373937 			; <UNDEFINED> instruction: 0x36373937
    59b8:	33313339 	teqcc	r1, #-469762048	; 0xe4000000
    59bc:	32363834 	eorscc	r3, r6, #52, 16	; 0x340000
    59c0:	37353133 			; <UNDEFINED> instruction: 0x37353133
    59c4:	30332b65 	eorscc	r2, r3, r5, ror #22
    59c8:	00294c38 	eoreq	r4, r9, r8, lsr ip
    59cc:	4e475f5f 	mcrmi	15, 2, r5, cr7, cr15, {2}
    59d0:	494c4355 	stmdbmi	ip, {r0, r2, r4, r6, r8, r9, lr}^
    59d4:	425f454b 	subsmi	r4, pc, #314572800	; 0x12c00000
    59d8:	544c4955 	strbpl	r4, [ip], #-2389	; 0xfffff6ab
    59dc:	4d5f4e49 	ldclmi	14, cr4, [pc, #-292]	; 58c0 <_Min_Stack_Size+0x54c0>
    59e0:	50434d45 	subpl	r4, r3, r5, asr #26
    59e4:	00312059 	eorseq	r2, r1, r9, asr r0
    59e8:	6c61634d 	stclvs	3, cr6, [r1], #-308	; 0xfffffecc
    59ec:	5458455f 	ldrbpl	r4, [r8], #-1375	; 0xfffffaa1
    59f0:	50475f49 	subpl	r5, r7, r9, asr #30
    59f4:	695f4f49 	ldmdbvs	pc, {r0, r3, r6, r8, r9, sl, fp, lr}^	; <UNPREDICTABLE>
    59f8:	0074696e 	rsbseq	r6, r4, lr, ror #18
    59fc:	444c5f5f 	strbmi	r5, [ip], #-3935	; 0xfffff0a1
    5a00:	4d5f4c42 	ldclmi	12, cr4, [pc, #-264]	; 5900 <_Min_Stack_Size+0x5500>
    5a04:	315f5841 	cmpcc	pc, r1, asr #16
    5a08:	58455f30 	stmdapl	r5, {r4, r5, r8, r9, sl, fp, ip, lr}^
    5a0c:	205f5f50 	subscs	r5, pc, r0, asr pc	; <UNPREDICTABLE>
    5a10:	00383033 	eorseq	r3, r8, r3, lsr r0
    5a14:	4545525f 	strbmi	r5, [r5, #-607]	; 0xfffffda1
    5a18:	4d5f544e 	cfldrdmi	mvd5, [pc, #-312]	; 58e8 <_Min_Stack_Size+0x54e8>
    5a1c:	454c5242 	strbmi	r5, [ip, #-578]	; 0xfffffdbe
    5a20:	54535f4e 	ldrbpl	r5, [r3], #-3918	; 0xfffff0b2
    5a24:	28455441 	stmdacs	r5, {r0, r6, sl, ip, lr}^
    5a28:	29727470 	ldmdbcs	r2!, {r4, r5, r6, sl, ip, sp, lr}^
    5a2c:	70282820 	eorvc	r2, r8, r0, lsr #16
    5a30:	2d297274 	sfmcs	f7, 4, [r9, #-464]!	; 0xfffffe30
    5a34:	696d5f3e 	stmdbvs	sp!, {r1, r2, r3, r4, r5, r8, r9, sl, fp, ip, lr}^
    5a38:	3e2d6373 	mcrcc	3, 1, r6, cr13, cr3, {3}
    5a3c:	72626d5f 	rsbvc	r6, r2, #6080	; 0x17c0
    5a40:	5f6e656c 	svcpl	0x006e656c
    5a44:	74617473 	strbtvc	r7, [r1], #-1139	; 0xfffffb8d
    5a48:	45002965 	strmi	r2, [r0, #-2405]	; 0xfffff69b
    5a4c:	38495458 	stmdacc	r9, {r3, r4, r6, sl, ip, lr}^
    5a50:	20384150 	eorscs	r4, r8, r0, asr r1
    5a54:	54584528 	ldrbpl	r4, [r8], #-1320	; 0xfffffad8
    5a58:	50475f49 	subpl	r5, r7, r9, asr #30
    5a5c:	4d5f4f49 	ldclmi	15, cr4, [pc, #-292]	; 5940 <_Min_Stack_Size+0x5540>
    5a60:	69707061 	ldmdbvs	r0!, {r0, r5, r6, ip, sp, lr}^
    5a64:	745f676e 	ldrbvc	r6, [pc], #-1902	; 5a6c <_Min_Stack_Size+0x566c>
    5a68:	58457b29 	stmdapl	r5, {r0, r3, r5, r8, r9, fp, ip, sp, lr}^
    5a6c:	2c384954 			; <UNDEFINED> instruction: 0x2c384954
    5a70:	49504720 	ldmdbmi	r0, {r5, r8, r9, sl, lr}^
    5a74:	202c414f 	eorcs	r4, ip, pc, asr #2
    5a78:	4f495047 	svcmi	0x00495047
    5a7c:	4e49505f 	mcrmi	0, 2, r5, cr9, cr15, {2}
    5a80:	202c385f 	eorcs	r3, ip, pc, asr r8
    5a84:	49545845 	ldmdbmi	r4, {r0, r2, r6, fp, ip, lr}^
    5a88:	52495f38 	subpl	r5, r9, #56, 30	; 0xe0
    5a8c:	5f007d51 	svcpl	0x00007d51
    5a90:	4c42445f 	cfstrdmi	mvd4, [r2], {95}	; 0x5f
    5a94:	4e45445f 	mcrmi	4, 2, r4, cr5, cr15, {2}
    5a98:	5f4d524f 	svcpl	0x004d524f
    5a9c:	5f4e494d 	svcpl	0x004e494d
    5aa0:	2828205f 	stmdacs	r8!, {r0, r1, r2, r3, r4, r6, sp}
    5aa4:	62756f64 	rsbsvs	r6, r5, #100, 30	; 0x190
    5aa8:	3429656c 	strtcc	r6, [r9], #-1388	; 0xfffffa94
    5aac:	3034392e 	eorscc	r3, r4, lr, lsr #18
    5ab0:	34363536 	ldrtcc	r3, [r6], #-1334	; 0xfffffaca
    5ab4:	31343835 	teqcc	r4, r5, lsr r8
    5ab8:	35363432 	ldrcc	r3, [r6, #-1074]!	; 0xfffffbce
    5abc:	332d6534 			; <UNDEFINED> instruction: 0x332d6534
    5ac0:	294c3432 	stmdbcs	ip, {r1, r4, r5, sl, ip, sp}^
    5ac4:	4d495400 	cfstrdmi	mvd5, [r9, #-0]
    5ac8:	41425f34 	cmpmi	r2, r4, lsr pc
    5acc:	30204553 	eorcc	r4, r0, r3, asr r5
    5ad0:	30303478 	eorscc	r3, r0, r8, ror r4
    5ad4:	30383030 	eorscc	r3, r8, r0, lsr r0
    5ad8:	48007530 	stmdami	r0, {r4, r5, r8, sl, ip, sp, lr}
    5adc:	6c665f77 	stclvs	15, cr5, [r6], #-476	; 0xfffffe24
    5ae0:	7443776f 	strbvc	r7, [r3], #-1903	; 0xfffff891
    5ae4:	6e5f6c72 	mrcvs	12, 2, r6, cr15, cr2, {3}
    5ae8:	20656e6f 	rsbcs	r6, r5, pc, ror #28
    5aec:	6e697528 	cdpvs	5, 6, cr7, cr9, cr8, {1}
    5af0:	5f323374 	svcpl	0x00323374
    5af4:	00302974 	eorseq	r2, r0, r4, ror r9
    5af8:	4e495f5f 	mcrmi	15, 2, r5, cr9, cr15, {2}
    5afc:	41465f54 	cmpmi	r6, r4, asr pc
    5b00:	32335453 	eorscc	r5, r3, #1392508928	; 0x53000000
    5b04:	5059545f 	subspl	r5, r9, pc, asr r4
    5b08:	205f5f45 	subscs	r5, pc, r5, asr #30
    5b0c:	00746e69 	rsbseq	r6, r4, r9, ror #28
    5b10:	4f495047 	svcmi	0x00495047
    5b14:	7079545f 	rsbsvc	r5, r9, pc, asr r4
    5b18:	66656465 	strbtvs	r6, [r5], -r5, ror #8
    5b1c:	5300745f 	movwpl	r7, #1119	; 0x45f
    5b20:	32334d54 	eorscc	r4, r3, #84, 26	; 0x1500
    5b24:	33303146 	teqcc	r0, #-2147483631	; 0x80000011
    5b28:	78543643 	ldmdavc	r4, {r0, r1, r6, r9, sl, ip, sp}^
    5b2c:	45003120 	strmi	r3, [r0, #-288]	; 0xfffffee0
    5b30:	36495458 			; <UNDEFINED> instruction: 0x36495458
    5b34:	5f003620 	svcpl	0x00003620
    5b38:	57454e5f 	smlsldpl	r4, r5, pc, lr	; <UNPREDICTABLE>
    5b3c:	5f42494c 	svcpl	0x0042494c
    5b40:	4f4e494d 	svcmi	0x004e494d
    5b44:	205f5f52 	subscs	r5, pc, r2, asr pc	; <UNPREDICTABLE>
    5b48:	58450031 	stmdapl	r5, {r0, r4, r5}^
    5b4c:	5f354954 	svcpl	0x00354954
    5b50:	20515249 	subscs	r5, r1, r9, asr #4
    5b54:	5f003332 	svcpl	0x00003332
    5b58:	455a4953 	ldrbmi	r4, [sl, #-2387]	; 0xfffff6ad
    5b5c:	00205f54 	eoreq	r5, r0, r4, asr pc
    5b60:	4c465f5f 	mcrrmi	15, 5, r5, r6, cr15
    5b64:	5f343654 	svcpl	0x00343654
    5b68:	5f534148 	svcpl	0x00534148
    5b6c:	45495551 	strbmi	r5, [r9, #-1361]	; 0xfffffaaf
    5b70:	414e5f54 	cmpmi	lr, r4, asr pc
    5b74:	205f5f4e 	subscs	r5, pc, lr, asr #30
    5b78:	49550031 	ldmdbmi	r5, {r0, r4, r5}^
    5b7c:	3233544e 	eorscc	r5, r3, #1308622848	; 0x4e000000
    5b80:	7828435f 	stmdavc	r8!, {r0, r1, r2, r3, r4, r6, r8, r9, lr}
    5b84:	5f5f2029 	svcpl	0x005f2029
    5b88:	544e4955 	strbpl	r4, [lr], #-2389	; 0xfffff6ab
    5b8c:	435f3233 	cmpmi	pc, #805306371	; 0x30000003
    5b90:	00297828 	eoreq	r7, r9, r8, lsr #16
    5b94:	53555f5f 	cmppl	r5, #380	; 0x17c
    5b98:	55434341 	strbpl	r4, [r3, #-833]	; 0xfffffcbf
    5b9c:	42495f4d 	submi	r5, r9, #308	; 0x134
    5ba0:	5f5f5449 	svcpl	0x005f5449
    5ba4:	55003820 	strpl	r3, [r0, #-2080]	; 0xfffff7e0
    5ba8:	5f545241 	svcpl	0x00545241
    5bac:	6c796150 	ldfvse	f6, [r9], #-320	; 0xfffffec0
    5bb0:	5f64616f 	svcpl	0x0064616f
    5bb4:	676e656c 	strbvs	r6, [lr, -ip, ror #10]!
    5bb8:	385f7468 	ldmdacc	pc, {r3, r5, r6, sl, ip, sp, lr}^	; <UNPREDICTABLE>
    5bbc:	69752820 	ldmdbvs	r5!, {r5, fp, sp}^
    5bc0:	3233746e 	eorscc	r7, r3, #1845493760	; 0x6e000000
    5bc4:	2029745f 	eorcs	r7, r9, pc, asr r4
    5bc8:	00293028 	eoreq	r3, r9, r8, lsr #32
    5bcc:	5f544e49 	svcpl	0x00544e49
    5bd0:	54534146 	ldrbpl	r4, [r3], #-326	; 0xfffffeba
    5bd4:	494d5f38 	stmdbmi	sp, {r3, r4, r5, r8, r9, sl, fp, ip, lr}^
    5bd8:	2d28204e 	stccs	0, cr2, [r8, #-312]!	; 0xfffffec8
    5bdc:	4e495f5f 	mcrmi	15, 2, r5, cr9, cr15, {2}
    5be0:	41465f54 	cmpmi	r6, r4, asr pc
    5be4:	5f385453 	svcpl	0x00385453
    5be8:	5f58414d 	svcpl	0x0058414d
    5bec:	202d205f 	eorcs	r2, sp, pc, asr r0
    5bf0:	5f002931 	svcpl	0x00002931
    5bf4:	6572705f 	ldrbvs	r7, [r2, #-95]!	; 0xffffffa1
    5bf8:	74636964 	strbtvc	r6, [r3], #-2404	; 0xfffff69c
    5bfc:	6c61665f 	stclvs	6, cr6, [r1], #-380	; 0xfffffe84
    5c00:	65286573 	strvs	r6, [r8, #-1395]!	; 0xfffffa8d
    5c04:	20297078 	eorcs	r7, r9, r8, ror r0
    5c08:	75625f5f 	strbvc	r5, [r2, #-3935]!	; 0xfffff0a1
    5c0c:	69746c69 	ldmdbvs	r4!, {r0, r3, r5, r6, sl, fp, sp, lr}^
    5c10:	78655f6e 	stmdavc	r5!, {r1, r2, r3, r5, r6, r8, r9, sl, fp, ip, lr}^
    5c14:	74636570 	strbtvc	r6, [r3], #-1392	; 0xfffffa90
    5c18:	78652828 	stmdavc	r5!, {r3, r5, fp, sp}^
    5c1c:	202c2970 	eorcs	r2, ip, r0, ror r9
    5c20:	5f002930 	svcpl	0x00002930
    5c24:	544c465f 	strbpl	r4, [ip], #-1631	; 0xfffff9a1
    5c28:	485f3436 	ldmdami	pc, {r1, r2, r4, r5, sl, ip, sp}^	; <UNPREDICTABLE>
    5c2c:	445f5341 	ldrbmi	r5, [pc], #-833	; 5c34 <_Min_Stack_Size+0x5834>
    5c30:	524f4e45 	subpl	r4, pc, #1104	; 0x450
    5c34:	205f5f4d 	subscs	r5, pc, sp, asr #30
    5c38:	5f5f0031 	svcpl	0x005f0031
    5c3c:	414c4c55 	cmpmi	ip, r5, asr ip
    5c40:	4d554343 	ldclmi	3, cr4, [r5, #-268]	; 0xfffffef4
    5c44:	4942495f 	stmdbmi	r2, {r0, r1, r2, r3, r4, r6, r8, fp, lr}^
    5c48:	205f5f54 	subscs	r5, pc, r4, asr pc	; <UNPREDICTABLE>
    5c4c:	5f003233 	svcpl	0x00003233
    5c50:	4341555f 	movtmi	r5, #5471	; 0x155f
    5c54:	5f4d5543 	svcpl	0x004d5543
    5c58:	49535045 	ldmdbmi	r3, {r0, r2, r6, ip, lr}^
    5c5c:	5f4e4f4c 	svcpl	0x004e4f4c
    5c60:	7830205f 	ldmdavc	r0!, {r0, r1, r2, r3, r4, r6, sp}
    5c64:	312d5031 			; <UNDEFINED> instruction: 0x312d5031
    5c68:	004b5536 	subeq	r5, fp, r6, lsr r5
    5c6c:	52474643 	subpl	r4, r7, #70254592	; 0x4300000
    5c70:	575f0032 	smmlarpl	pc, r2, r0, r0	; <UNPREDICTABLE>
    5c74:	52414843 	subpl	r4, r1, #4390912	; 0x430000
    5c78:	445f545f 	ldrbmi	r5, [pc], #-1119	; 5c80 <_Min_Stack_Size+0x5880>
    5c7c:	414c4345 	cmpmi	ip, r5, asr #6
    5c80:	20444552 	subcs	r4, r4, r2, asr r5
    5c84:	544e4900 	strbpl	r4, [lr], #-2304	; 0xfffff700
    5c88:	5341465f 	movtpl	r4, #5727	; 0x165f
    5c8c:	5f363154 	svcpl	0x00363154
    5c90:	2058414d 	subscs	r4, r8, sp, asr #2
    5c94:	495f5f28 	ldmdbmi	pc, {r3, r5, r8, r9, sl, fp, ip, lr}^	; <UNPREDICTABLE>
    5c98:	465f544e 	ldrbmi	r5, [pc], -lr, asr #8
    5c9c:	31545341 	cmpcc	r4, r1, asr #6
    5ca0:	414d5f36 	cmpmi	sp, r6, lsr pc
    5ca4:	295f5f58 	ldmdbcs	pc, {r3, r4, r6, r8, r9, sl, fp, ip, lr}^	; <UNPREDICTABLE>
    5ca8:	59535f00 	ldmdbpl	r3, {r8, r9, sl, fp, ip, lr}^
    5cac:	45525f53 	ldrbmi	r5, [r2, #-3923]	; 0xfffff0ad
    5cb0:	5f544e45 	svcpl	0x00544e45
    5cb4:	00205f48 	eoreq	r5, r0, r8, asr #30
    5cb8:	4c465f5f 	mcrrmi	15, 5, r5, r6, cr15
    5cbc:	56455f54 			; <UNDEFINED> instruction: 0x56455f54
    5cc0:	4d5f4c41 	ldclmi	12, cr4, [pc, #-260]	; 5bc4 <_Min_Stack_Size+0x57c4>
    5cc4:	4f485445 	svcmi	0x00485445
    5cc8:	205f5f44 	subscs	r5, pc, r4, asr #30
    5ccc:	61540030 	cmpvs	r4, r0, lsr r0
    5cd0:	5f416b73 	svcpl	0x00416b73
    5cd4:	676c6146 	strbvs	r6, [ip, -r6, asr #2]!
    5cd8:	535f5f00 	cmppl	pc, #0, 30
    5cdc:	52414843 	subpl	r4, r1, #4390912	; 0x430000
    5ce0:	58414d5f 	stmdapl	r1, {r0, r1, r2, r3, r4, r6, r8, sl, fp, lr}^
    5ce4:	30205f5f 	eorcc	r5, r0, pc, asr pc
    5ce8:	00663778 	rsbeq	r3, r6, r8, ror r7
    5cec:	4e495f5f 	mcrmi	15, 2, r5, cr9, cr15, {2}
    5cf0:	41465f54 	cmpmi	r6, r4, asr pc
    5cf4:	5f385453 	svcpl	0x00385453
    5cf8:	54444957 	strbpl	r4, [r4], #-2391	; 0xfffff6a9
    5cfc:	205f5f48 	subscs	r5, pc, r8, asr #30
    5d00:	5f003233 	svcpl	0x00003233
    5d04:	4454535f 	ldrbmi	r5, [r4], #-863	; 0xfffffca1
    5d08:	54555f43 	ldrbpl	r5, [r5], #-3907	; 0xfffff0bd
    5d0c:	36315f46 	ldrtcc	r5, [r1], -r6, asr #30
    5d10:	31205f5f 			; <UNDEFINED> instruction: 0x31205f5f
    5d14:	41525f00 	cmpmi	r2, r0, lsl #30
    5d18:	3834444e 	ldmdacc	r4!, {r1, r2, r3, r6, sl, lr}
    5d1c:	4c554d5f 	mrrcmi	13, 5, r4, r5, cr15
    5d20:	20325f54 	eorscs	r5, r2, r4, asr pc
    5d24:	30783028 	rsbscc	r3, r8, r8, lsr #32
    5d28:	29353030 	ldmdbcs	r5!, {r4, r5, ip, sp}
    5d2c:	415f5f00 	cmpmi	pc, r0, lsl #30
    5d30:	465f4d52 			; <UNDEFINED> instruction: 0x465f4d52
    5d34:	55544145 	ldrbpl	r4, [r4, #-325]	; 0xfffffebb
    5d38:	4c5f4552 	cfldr64mi	mvdx4, [pc], {82}	; 0x52
    5d3c:	58455244 	stmdapl	r5, {r2, r6, r9, ip, lr}^
    5d40:	45525f00 	ldrbmi	r5, [r2, #-3840]	; 0xfffff100
    5d44:	5f544e45 	svcpl	0x00544e45
    5d48:	43454843 	movtmi	r4, #22595	; 0x5843
    5d4c:	494d5f4b 	stmdbmi	sp, {r0, r1, r3, r6, r8, r9, sl, fp, ip, lr}^
    5d50:	76284353 			; <UNDEFINED> instruction: 0x76284353
    5d54:	20297261 	eorcs	r7, r9, r1, ror #4
    5d58:	4545525f 	strbmi	r5, [r5, #-607]	; 0xfffffda1
    5d5c:	435f544e 	cmpmi	pc, #1308622848	; 0x4e000000
    5d60:	4b434548 	blmi	10d7288 <_Min_Stack_Size+0x10d6e88>
    5d64:	72617628 	rsbvc	r7, r1, #40, 12	; 0x2800000
    5d68:	6d5f202c 	ldclvs	0, cr2, [pc, #-176]	; 5cc0 <_Min_Stack_Size+0x58c0>
    5d6c:	2c637369 	stclcs	3, cr7, [r3], #-420	; 0xfffffe5c
    5d70:	72747320 	rsbsvc	r7, r4, #32, 6	; 0x80000000
    5d74:	20746375 	rsbscs	r6, r4, r5, ror r3
    5d78:	73696d5f 	cmnvc	r9, #6080	; 0x17c0
    5d7c:	65725f63 	ldrbvs	r5, [r2, #-3939]!	; 0xfffff09d
    5d80:	20746e65 	rsbscs	r6, r4, r5, ror #28
    5d84:	73202c2a 			; <UNDEFINED> instruction: 0x73202c2a
    5d88:	6f657a69 	svcvs	0x00657a69
    5d8c:	282a2066 	stmdacs	sl!, {r1, r2, r5, r6, sp}
    5d90:	72617628 	rsbvc	r7, r1, #40, 12	; 0x2800000
    5d94:	5f3e2d29 	svcpl	0x003e2d29
    5d98:	6373696d 	cmnvs	r3, #1785856	; 0x1b4000
    5d9c:	5f202c29 	svcpl	0x00202c29
    5da0:	4e454552 	mcrmi	5, 2, r4, cr5, cr2, {2}
    5da4:	4e495f54 	mcrmi	15, 2, r5, cr9, cr4, {2}
    5da8:	4d5f5449 	cfldrdmi	mvd5, [pc, #-292]	; 5c8c <_Min_Stack_Size+0x588c>
    5dac:	28435349 	stmdacs	r3, {r0, r3, r6, r8, r9, ip, lr}^
    5db0:	29726176 	ldmdbcs	r2!, {r1, r2, r4, r5, r6, r8, sp, lr}^
    5db4:	545f0029 	ldrbpl	r0, [pc], #-41	; 5dbc <_Min_Stack_Size+0x59bc>
    5db8:	5254505f 	subspl	r5, r4, #95	; 0x5f
    5dbc:	46464944 	strbmi	r4, [r6], -r4, asr #18
    5dc0:	5f5f0020 	svcpl	0x005f0020
    5dc4:	5f515155 	svcpl	0x00515155
    5dc8:	54494246 	strbpl	r4, [r9], #-582	; 0xfffffdba
    5dcc:	38205f5f 	stmdacc	r0!, {r0, r1, r2, r3, r4, r6, r8, r9, sl, fp, ip, lr}
    5dd0:	49564e00 	ldmdbmi	r6, {r9, sl, fp, lr}^
    5dd4:	50535f43 	subspl	r5, r3, r3, asr #30
    5dd8:	495f3249 	ldmdbmi	pc, {r0, r3, r6, r9, ip, sp}^	; <UNPREDICTABLE>
    5ddc:	445f5152 	ldrbmi	r5, [pc], #-338	; 5de4 <_Min_Stack_Size+0x59e4>
    5de0:	62617369 	rsbvs	r7, r1, #-1543503871	; 0xa4000001
    5de4:	2820656c 	stmdacs	r0!, {r2, r3, r5, r6, r8, sl, sp, lr}
    5de8:	4349564e 	movtmi	r5, #38478	; 0x964e
    5dec:	4543495f 	strbmi	r4, [r3, #-2399]	; 0xfffff6a1
    5df0:	7c203152 	stfvcs	f3, [r0], #-328	; 0xfffffeb8
    5df4:	3c31203d 	ldccc	0, cr2, [r1], #-244	; 0xffffff0c
    5df8:	5053283c 	subspl	r2, r3, ip, lsr r8
    5dfc:	495f3249 	ldmdbmi	pc, {r0, r3, r6, r9, ip, sp}^	; <UNPREDICTABLE>
    5e00:	2d205152 	stfcss	f5, [r0, #-328]!	; 0xfffffeb8
    5e04:	29323320 	ldmdbcs	r2!, {r5, r8, r9, ip, sp}
    5e08:	5f5f0029 	svcpl	0x005f0029
    5e0c:	544e4957 	strbpl	r4, [lr], #-2391	; 0xfffff6a9
    5e10:	5059545f 	subspl	r5, r9, pc, asr r4
    5e14:	205f5f45 	subscs	r5, pc, r5, asr #30
    5e18:	69736e75 	ldmdbvs	r3!, {r0, r2, r4, r5, r6, r9, sl, fp, sp, lr}^
    5e1c:	64656e67 	strbtvs	r6, [r5], #-3687	; 0xfffff199
    5e20:	746e6920 	strbtvc	r6, [lr], #-2336	; 0xfffff6e0
    5e24:	746e6900 	strbtvc	r6, [lr], #-2304	; 0xfffff700
    5e28:	00322b20 	eorseq	r2, r2, r0, lsr #22
    5e2c:	52415f5f 	subpl	r5, r1, #380	; 0x17c
    5e30:	50465f4d 	subpl	r5, r6, sp, asr #30
    5e34:	415f3631 	cmpmi	pc, r1, lsr r6	; <UNPREDICTABLE>
    5e38:	00534752 	subseq	r4, r3, r2, asr r7
    5e3c:	43475f5f 	movtmi	r5, #32607	; 0x7f5f
    5e40:	45495f43 	strbmi	r5, [r9, #-3907]	; 0xfffff0bd
    5e44:	35355f43 	ldrcc	r5, [r5, #-3907]!	; 0xfffff0bd
    5e48:	00302039 	eorseq	r2, r0, r9, lsr r0
    5e4c:	65725f5f 	ldrbvs	r5, [r2, #-3935]!	; 0xfffff0a1
    5e50:	72697571 	rsbvc	r7, r9, #473956352	; 0x1c400000
    5e54:	755f7365 	ldrbvc	r7, [pc, #-869]	; 5af7 <_Min_Stack_Size+0x56f7>
    5e58:	636f6c6e 	cmnvs	pc, #28160	; 0x6e00
    5e5c:	2864656b 	stmdacs	r4!, {r0, r1, r3, r5, r6, r8, sl, sp, lr}^
    5e60:	292e2e2e 	stmdbcs	lr!, {r1, r2, r3, r5, r9, sl, fp, sp}
    5e64:	6c5f5f20 	mrrcvs	15, 2, r5, pc, cr0	; <UNPREDICTABLE>
    5e68:	5f6b636f 	svcpl	0x006b636f
    5e6c:	6f6e6e61 	svcvs	0x006e6e61
    5e70:	65746174 	ldrbvs	r6, [r4, #-372]!	; 0xfffffe8c
    5e74:	636f6c28 	cmnvs	pc, #40, 24	; 0x2800
    5e78:	655f736b 	ldrbvs	r7, [pc, #-875]	; 5b15 <_Min_Stack_Size+0x5715>
    5e7c:	756c6378 	strbvc	r6, [ip, #-888]!	; 0xfffffc88
    5e80:	28646564 	stmdacs	r4!, {r2, r5, r6, r8, sl, sp, lr}^
    5e84:	41565f5f 	cmpmi	r6, pc, asr pc
    5e88:	4752415f 			; <UNDEFINED> instruction: 0x4752415f
    5e8c:	295f5f53 	ldmdbcs	pc, {r0, r1, r4, r6, r8, r9, sl, fp, ip, lr}^	; <UNPREDICTABLE>
    5e90:	68630029 	stmdavs	r3!, {r0, r3, r5}^
    5e94:	2b207261 	blcs	822820 <_Min_Stack_Size+0x822420>
    5e98:	6c610030 	stclvs	0, cr0, [r1], #-192	; 0xffffff40
    5e9c:	61636f6c 	cmnvs	r3, ip, ror #30
    5ea0:	4c5f5f00 	mrrcmi	15, 0, r5, pc, cr0	; <UNPREDICTABLE>
    5ea4:	43415246 	movtmi	r5, #4678	; 0x1246
    5ea8:	414d5f54 	cmpmi	sp, r4, asr pc
    5eac:	205f5f58 	subscs	r5, pc, r8, asr pc	; <UNPREDICTABLE>
    5eb0:	46375830 			; <UNDEFINED> instruction: 0x46375830
    5eb4:	46464646 	strbmi	r4, [r6], -r6, asr #12
    5eb8:	2d504646 	ldclcs	6, cr4, [r0, #-280]	; 0xfffffee8
    5ebc:	524c3133 	subpl	r3, ip, #-1073741812	; 0xc000000c
    5ec0:	535f5f00 	cmppl	pc, #0, 30
    5ec4:	4f455a49 	svcmi	0x00455a49
    5ec8:	54505f46 	ldrbpl	r5, [r0], #-3910	; 0xfffff0ba
    5ecc:	46494452 			; <UNDEFINED> instruction: 0x46494452
    5ed0:	5f545f46 	svcpl	0x00545f46
    5ed4:	0034205f 	eorseq	r2, r4, pc, asr r0
    5ed8:	49545845 	ldmdbmi	r4, {r0, r2, r6, fp, ip, lr}^
    5edc:	31203131 			; <UNDEFINED> instruction: 0x31203131
    5ee0:	5f5f0031 	svcpl	0x005f0031
    5ee4:	41484357 	cmpmi	r8, r7, asr r3
    5ee8:	5f545f52 	svcpl	0x00545f52
    5eec:	5f00205f 	svcpl	0x0000205f
    5ef0:	6e695f5f 	mcrvs	15, 3, r5, cr9, cr15, {2}
    5ef4:	656c5f74 	strbvs	r5, [ip, #-3956]!	; 0xfffff08c
    5ef8:	38747361 	ldmdacc	r4!, {r0, r5, r6, r8, r9, ip, sp, lr}^
    5efc:	645f745f 	ldrbvs	r7, [pc], #-1119	; 5f04 <_Min_Stack_Size+0x5b04>
    5f00:	6e696665 	cdpvs	6, 6, cr6, cr9, cr5, {3}
    5f04:	31206465 			; <UNDEFINED> instruction: 0x31206465
    5f08:	415f5f00 	cmpmi	pc, r0, lsl #30
    5f0c:	465f4d52 			; <UNDEFINED> instruction: 0x465f4d52
    5f10:	55544145 	ldrbpl	r4, [r4, #-325]	; 0xfffffebb
    5f14:	495f4552 	ldmdbmi	pc, {r1, r4, r6, r8, sl, lr}^	; <UNPREDICTABLE>
    5f18:	20564944 	subscs	r4, r6, r4, asr #18
    5f1c:	53550031 	cmppl	r5, #49	; 0x31
    5f20:	31545241 	cmpcc	r4, r1, asr #4
    5f24:	5341425f 	movtpl	r4, #4703	; 0x125f
    5f28:	78302045 	ldmdavc	r0!, {r0, r2, r6, sp}
    5f2c:	31303034 	teqcc	r0, r4, lsr r0
    5f30:	30303833 	eorscc	r3, r0, r3, lsr r8
    5f34:	5f5f0075 	svcpl	0x005f0075
    5f38:	414f4c46 	cmpmi	pc, r6, asr #24
    5f3c:	4f575f54 	svcmi	0x00575f54
    5f40:	4f5f4452 	svcmi	0x005f4452
    5f44:	52454452 	subpl	r4, r5, #1375731712	; 0x52000000
    5f48:	5f205f5f 	svcpl	0x00205f5f
    5f4c:	44524f5f 	ldrbmi	r4, [r2], #-3935	; 0xfffff0a1
    5f50:	4c5f5245 	lfmmi	f5, 2, [pc], {69}	; 0x45
    5f54:	4c545449 	cfldrdmi	mvd5, [r4], {73}	; 0x49
    5f58:	4e455f45 	cdpmi	15, 4, cr5, cr5, cr5, {2}
    5f5c:	4e414944 	vmlsmi.f16	s9, s2, s8	; <UNPREDICTABLE>
    5f60:	5f005f5f 	svcpl	0x00005f5f
    5f64:	5f434347 	svcpl	0x00434347
    5f68:	41484357 	cmpmi	r8, r7, asr r3
    5f6c:	20545f52 	subscs	r5, r4, r2, asr pc
    5f70:	755f5f00 	ldrbvc	r5, [pc, #-3840]	; 5078 <_Min_Stack_Size+0x4c78>
    5f74:	636f6c6e 	cmnvs	pc, #28160	; 0x6e00
    5f78:	2e28736b 	cdpcs	3, 2, cr7, cr8, cr11, {3}
    5f7c:	20292e2e 	eorcs	r2, r9, lr, lsr #28
    5f80:	6f6c5f5f 	svcvs	0x006c5f5f
    5f84:	615f6b63 	cmpvs	pc, r3, ror #22
    5f88:	746f6e6e 	strbtvc	r6, [pc], #-3694	; 5f90 <_Min_Stack_Size+0x5b90>
    5f8c:	28657461 	stmdacs	r5!, {r0, r5, r6, sl, ip, sp, lr}^
    5f90:	6f6c6e75 	svcvs	0x006c6e75
    5f94:	665f6b63 	ldrbvs	r6, [pc], -r3, ror #22
    5f98:	74636e75 	strbtvc	r6, [r3], #-3701	; 0xfffff18b
    5f9c:	286e6f69 	stmdacs	lr!, {r0, r3, r5, r6, r8, r9, sl, fp, sp, lr}^
    5fa0:	41565f5f 	cmpmi	r6, pc, asr pc
    5fa4:	4752415f 			; <UNDEFINED> instruction: 0x4752415f
    5fa8:	295f5f53 	ldmdbcs	pc, {r0, r1, r4, r6, r8, r9, sl, fp, ip, lr}^	; <UNPREDICTABLE>
    5fac:	5f5f0029 	svcpl	0x005f0029
    5fb0:	4f505845 	svcmi	0x00505845
    5fb4:	00205452 	eoreq	r5, r0, r2, asr r4
    5fb8:	49555f5f 	ldmdbmi	r5, {r0, r1, r2, r3, r4, r6, r8, r9, sl, fp, ip, lr}^
    5fbc:	4c5f544e 	cfldrdmi	mvd5, [pc], {78}	; 0x4e
    5fc0:	54534145 	ldrbpl	r4, [r3], #-325	; 0xfffffebb
    5fc4:	59545f38 	ldmdbpl	r4, {r3, r4, r5, r8, r9, sl, fp, ip, lr}^
    5fc8:	5f5f4550 	svcpl	0x005f4550
    5fcc:	736e7520 	cmnvc	lr, #32, 10	; 0x8000000
    5fd0:	656e6769 	strbvs	r6, [lr, #-1897]!	; 0xfffff897
    5fd4:	68632064 	stmdavs	r3!, {r2, r5, r6, sp}^
    5fd8:	5f007261 	svcpl	0x00007261
    5fdc:	53424f5f 	movtpl	r4, #12127	; 0x2f5f
    5fe0:	54454c4f 	strbpl	r4, [r5], #-3151	; 0xfffff3b1
    5fe4:	414d5f45 	cmpmi	sp, r5, asr #30
    5fe8:	445f4854 	ldrbmi	r4, [pc], #-2132	; 5ff0 <_Min_Stack_Size+0x5bf0>
    5fec:	55414645 	strbpl	r4, [r1, #-1605]	; 0xfffff9bb
    5ff0:	3120544c 			; <UNDEFINED> instruction: 0x3120544c
    5ff4:	695f5f00 	ldmdbvs	pc, {r8, r9, sl, fp, ip, lr}^	; <UNPREDICTABLE>
    5ff8:	665f746e 	ldrbvs	r7, [pc], -lr, ror #8
    5ffc:	31747361 	cmncc	r4, r1, ror #6
    6000:	5f745f36 	svcpl	0x00745f36
    6004:	69666564 	stmdbvs	r6!, {r2, r5, r6, r8, sl, sp, lr}^
    6008:	2064656e 	rsbcs	r6, r4, lr, ror #10
    600c:	61480031 	cmpvs	r8, r1, lsr r0
    6010:	61466472 	hvcvs	26178	; 0x6642
    6014:	5f746c75 	svcpl	0x00746c75
    6018:	646e6148 	strbtvs	r6, [lr], #-328	; 0xfffffeb8
    601c:	0072656c 	rsbseq	r6, r2, ip, ror #10
    6020:	48535f5f 	ldmdami	r3, {r0, r1, r2, r3, r4, r6, r8, r9, sl, fp, ip, lr}^
    6024:	575f5452 			; <UNDEFINED> instruction: 0x575f5452
    6028:	48544449 	ldmdami	r4, {r0, r3, r6, sl, lr}^
    602c:	31205f5f 			; <UNDEFINED> instruction: 0x31205f5f
    6030:	525f0036 	subspl	r0, pc, #54	; 0x36
    6034:	5f444145 	svcpl	0x00444145
    6038:	54495257 	strbpl	r5, [r9], #-599	; 0xfffffda9
    603c:	55425f45 	strbpl	r5, [r2, #-3909]	; 0xfffff0bb
    6040:	5a495346 	bpl	125ad60 <_Min_Stack_Size+0x125a960>
    6044:	59545f45 	ldmdbpl	r4, {r0, r2, r6, r8, r9, sl, fp, ip, lr}^
    6048:	69204550 	stmdbvs	r0!, {r4, r6, r8, sl, lr}
    604c:	4e00746e 	cdpmi	4, 0, cr7, cr0, cr14, {3}
    6050:	5f434956 	svcpl	0x00434956
    6054:	52455349 	subpl	r5, r5, #603979777	; 0x24000001
    6058:	282a2032 	stmdacs	sl!, {r1, r4, r5, sp}
    605c:	616c6f76 	smcvs	50934	; 0xc6f6
    6060:	656c6974 	strbvs	r6, [ip, #-2420]!	; 0xfffff68c
    6064:	6e697520 	cdpvs	5, 6, cr7, cr9, cr0, {1}
    6068:	5f323374 	svcpl	0x00323374
    606c:	29202a74 	stmdbcs	r0!, {r2, r4, r5, r6, r9, fp, sp}
    6070:	49564e28 	ldmdbmi	r6, {r3, r5, r9, sl, fp, lr}^
    6074:	61425f43 	cmpvs	r2, r3, asr #30
    6078:	2b206573 	blcs	81f64c <_Min_Stack_Size+0x81f24c>
    607c:	38307830 	ldmdacc	r0!, {r4, r5, fp, ip, sp, lr}
    6080:	58450029 	stmdapl	r5, {r0, r3, r5}^
    6084:	5f394954 	svcpl	0x00394954
    6088:	6c6c6163 	stfvse	f6, [ip], #-396	; 0xfffffe74
    608c:	6b636142 	blvs	18de59c <_Min_Stack_Size+0x18de19c>
    6090:	544e4900 	strbpl	r4, [lr], #-2304	; 0xfffff700
    6094:	5f525450 	svcpl	0x00525450
    6098:	2058414d 	subscs	r4, r8, sp, asr #2
    609c:	495f5f28 	ldmdbmi	pc, {r3, r5, r8, r9, sl, fp, ip, lr}^	; <UNPREDICTABLE>
    60a0:	5450544e 	ldrbpl	r5, [r0], #-1102	; 0xfffffbb2
    60a4:	414d5f52 	cmpmi	sp, r2, asr pc
    60a8:	295f5f58 	ldmdbcs	pc, {r3, r4, r6, r8, r9, sl, fp, ip, lr}^	; <UNPREDICTABLE>
    60ac:	495f5f00 	ldmdbmi	pc, {r8, r9, sl, fp, ip, lr}^	; <UNPREDICTABLE>
    60b0:	524f504d 	subpl	r5, pc, #77	; 0x4d
    60b4:	5f002054 	svcpl	0x00002054
    60b8:	444e4152 	strbmi	r4, [lr], #-338	; 0xfffffeae
    60bc:	535f3834 	cmppl	pc, #52, 16	; 0x340000
    60c0:	5f444545 	svcpl	0x00444545
    60c4:	30282032 	eorcc	r2, r8, r2, lsr r0
    60c8:	33323178 	teqcc	r2, #120, 2
    60cc:	5f002934 	svcpl	0x00002934
    60d0:	44525450 	ldrbmi	r5, [r2], #-1104	; 0xfffffbb0
    60d4:	5f464649 	svcpl	0x00464649
    60d8:	45445f54 	strbmi	r5, [r4, #-3924]	; 0xfffff0ac
    60dc:	52414c43 	subpl	r4, r1, #17152	; 0x4300
    60e0:	00204445 	eoreq	r4, r0, r5, asr #8
    60e4:	53555f5f 	cmppl	r5, #380	; 0x17c
    60e8:	42465f41 	submi	r5, r6, #260	; 0x104
    60ec:	5f5f5449 	svcpl	0x005f5449
    60f0:	00363120 	eorseq	r3, r6, r0, lsr #2
    60f4:	6f765f5f 	svcvs	0x00765f5f
    60f8:	6974616c 	ldmdbvs	r4!, {r2, r3, r5, r6, r8, sp, lr}^
    60fc:	7620656c 	strtvc	r6, [r0], -ip, ror #10
    6100:	74616c6f 	strbtvc	r6, [r1], #-3183	; 0xfffff391
    6104:	00656c69 	rsbeq	r6, r5, r9, ror #24
    6108:	43414d5f 	movtmi	r4, #7519	; 0x1d5f
    610c:	454e4948 	strbmi	r4, [lr, #-2376]	; 0xfffff6b8
    6110:	59545f5f 	ldmdbpl	r4, {r0, r1, r2, r3, r4, r6, r8, r9, sl, fp, ip, lr}^
    6114:	5f534550 	svcpl	0x00534550
    6118:	5f002048 	svcpl	0x00002048
    611c:	4545495f 	strbmi	r4, [r5, #-2399]	; 0xfffff6a1
    6120:	494c5f45 	stmdbmi	ip, {r0, r2, r6, r8, r9, sl, fp, ip, lr}^
    6124:	454c5454 	strbmi	r5, [ip, #-1108]	; 0xfffffbac
    6128:	444e455f 	strbmi	r4, [lr], #-1375	; 0xfffffaa1
    612c:	204e4149 	subcs	r4, lr, r9, asr #2
    6130:	4c5f5f00 	mrrcmi	15, 0, r5, pc, cr0	; <UNPREDICTABLE>
    6134:	5f4c4244 	svcpl	0x004c4244
    6138:	5f4e494d 	svcpl	0x004e494d
    613c:	455f3031 	ldrbmi	r3, [pc, #-49]	; 6113 <_Min_Stack_Size+0x5d13>
    6140:	5f5f5058 	svcpl	0x005f5058
    6144:	332d2820 			; <UNDEFINED> instruction: 0x332d2820
    6148:	00293730 	eoreq	r3, r9, r0, lsr r7
    614c:	54415f5f 	strbpl	r5, [r1], #-3935	; 0xfffff0a1
    6150:	454c4946 	strbmi	r4, [ip, #-2374]	; 0xfffff6ba
    6154:	5349565f 	movtpl	r5, #38495	; 0x965f
    6158:	454c4249 	strbmi	r4, [ip, #-585]	; 0xfffffdb7
    615c:	45003120 	strmi	r3, [r0, #-288]	; 0xfffffee0
    6160:	5f495458 	svcpl	0x00495458
    6164:	67697274 			; <UNDEFINED> instruction: 0x67697274
    6168:	5f726567 	svcpl	0x00726567
    616c:	69736972 	ldmdbvs	r3!, {r1, r4, r5, r6, r8, fp, sp, lr}^
    6170:	4e41676e 	cdpmi	7, 4, cr6, cr1, cr14, {3}
    6174:	6c616644 	stclvs	6, cr6, [r1], #-272	; 0xfffffef0
    6178:	676e696c 	strbvs	r6, [lr, -ip, ror #18]!
    617c:	45003220 	strmi	r3, [r0, #-544]	; 0xfffffde0
    6180:	31495458 	cmpcc	r9, r8, asr r4
    6184:	35312035 	ldrcc	r2, [r1, #-53]!	; 0xffffffcb
    6188:	4c5f5f00 	mrrcmi	15, 0, r5, pc, cr0	; <UNPREDICTABLE>
    618c:	43415246 	movtmi	r5, #4678	; 0x1246
    6190:	50455f54 	subpl	r5, r5, r4, asr pc
    6194:	4f4c4953 	svcmi	0x004c4953
    6198:	205f5f4e 	subscs	r5, pc, lr, asr #30
    619c:	50317830 	eorspl	r7, r1, r0, lsr r8
    61a0:	4c31332d 	ldcmi	3, cr3, [r1], #-180	; 0xffffff4c
    61a4:	655f0052 	ldrbvs	r0, [pc, #-82]	; 615a <_Min_Stack_Size+0x5d5a>
    61a8:	63617473 	cmnvs	r1, #1929379840	; 0x73000000
    61ac:	5f5f006b 	svcpl	0x005f006b
    61b0:	6c6c616d 	stfvse	f6, [ip], #-436	; 0xfffffe4c
    61b4:	6c5f636f 	mrrcvs	3, 6, r6, pc, cr15	; <UNPREDICTABLE>
    61b8:	20656b69 	rsbcs	r6, r5, r9, ror #22
    61bc:	74615f5f 	strbtvc	r5, [r1], #-3935	; 0xfffff0a1
    61c0:	62697274 	rsbvs	r7, r9, #116, 4	; 0x40000007
    61c4:	5f657475 	svcpl	0x00657475
    61c8:	5f28285f 	svcpl	0x0028285f
    61cc:	6c616d5f 	stclvs	13, cr6, [r1], #-380	; 0xfffffe84
    61d0:	5f636f6c 	svcpl	0x00636f6c
    61d4:	0029295f 	eoreq	r2, r9, pc, asr r9
    61d8:	4545525f 	strbmi	r5, [r5, #-607]	; 0xfffffda1
    61dc:	495f544e 	ldmdbmi	pc, {r1, r2, r3, r6, sl, ip, lr}^	; <UNPREDICTABLE>
    61e0:	2854494e 	ldmdacs	r4, {r1, r2, r3, r6, r8, fp, lr}^
    61e4:	29726176 	ldmdbcs	r2!, {r1, r2, r4, r5, r6, r8, sp, lr}^
    61e8:	30207b20 	eorcc	r7, r0, r0, lsr #22
    61ec:	5f28202c 	svcpl	0x0028202c
    61f0:	4c49465f 	mcrrmi	6, 5, r4, r9, cr15
    61f4:	292a2045 	stmdbcs	sl!, {r0, r2, r6, sp}
    61f8:	735f5f26 	cmpvc	pc, #38, 30	; 0x98
    61fc:	61665f66 	cmnvs	r6, r6, ror #30
    6200:	735f656b 	cmpvc	pc, #448790528	; 0x1ac00000
    6204:	6e696474 	mcrvs	4, 3, r6, cr9, cr4, {3}
    6208:	5f28202c 	svcpl	0x0028202c
    620c:	4c49465f 	mcrrmi	6, 5, r4, r9, cr15
    6210:	292a2045 	stmdbcs	sl!, {r0, r2, r6, sp}
    6214:	735f5f26 	cmpvc	pc, #38, 30	; 0x98
    6218:	61665f66 	cmnvs	r6, r6, ror #30
    621c:	735f656b 	cmpvc	pc, #448790528	; 0x1ac00000
    6220:	756f6474 	strbvc	r6, [pc, #-1140]!	; 5db4 <_Min_Stack_Size+0x59b4>
    6224:	28202c74 	stmdacs	r0!, {r2, r4, r5, r6, sl, fp, sp}
    6228:	49465f5f 	stmdbmi	r6, {r0, r1, r2, r3, r4, r6, r8, r9, sl, fp, ip, lr}^
    622c:	2a20454c 	bcs	817764 <_Min_Stack_Size+0x817364>
    6230:	5f5f2629 	svcpl	0x005f2629
    6234:	665f6673 			; <UNDEFINED> instruction: 0x665f6673
    6238:	5f656b61 	svcpl	0x00656b61
    623c:	65647473 	strbvs	r7, [r4, #-1139]!	; 0xfffffb8d
    6240:	202c7272 	eorcs	r7, ip, r2, ror r2
    6244:	5f202c30 	svcpl	0x00202c30
    6248:	4c4c554e 	cfstr64mi	mvdx5, [ip], {78}	; 0x4e
    624c:	2c30202c 	ldccs	0, cr2, [r0], #-176	; 0xffffff50
    6250:	202c3020 	eorcs	r3, ip, r0, lsr #32
    6254:	4c554e5f 	mrrcmi	14, 5, r4, r5, cr15
    6258:	5f202c4c 	svcpl	0x00202c4c
    625c:	4c4c554e 	cfstr64mi	mvdx5, [ip], {78}	; 0x4e
    6260:	4e5f202c 	cdpmi	0, 5, cr2, cr15, cr12, {1}
    6264:	2c4c4c55 	mcrrcs	12, 5, r4, ip, cr5
    6268:	202c3020 	eorcs	r3, ip, r0, lsr #32
    626c:	5f202c30 	svcpl	0x00202c30
    6270:	4c4c554e 	cfstr64mi	mvdx5, [ip], {78}	; 0x4e
    6274:	4e5f202c 	cdpmi	0, 5, cr2, cr15, cr12, {1}
    6278:	2c4c4c55 	mcrrcs	12, 5, r4, ip, cr5
    627c:	554e5f20 	strbpl	r5, [lr, #-3872]	; 0xfffff0e0
    6280:	202c4c4c 	eorcs	r4, ip, ip, asr #24
    6284:	4c554e5f 	mrrcmi	14, 5, r4, r5, cr15
    6288:	5f202c4c 	svcpl	0x00202c4c
    628c:	4c4c554e 	cfstr64mi	mvdx5, [ip], {78}	; 0x4e
    6290:	525f202c 	subspl	r2, pc, #44	; 0x2c
    6294:	544e4545 	strbpl	r4, [lr], #-1349	; 0xfffffabb
    6298:	494e495f 	stmdbmi	lr, {r0, r1, r2, r3, r4, r6, r8, fp, lr}^
    629c:	54415f54 	strbpl	r5, [r1], #-3924	; 0xfffff0ac
    62a0:	54495845 	strbpl	r5, [r9], #-2117	; 0xfffff7bb
    62a4:	4e5f7b20 	vnmlsmi.f64	d23, d15, d16
    62a8:	2c4c4c55 	mcrrcs	12, 5, r4, ip, cr5
    62ac:	202c3020 	eorcs	r3, ip, r0, lsr #32
    62b0:	4c554e5f 	mrrcmi	14, 5, r4, r5, cr15
    62b4:	202c7d4c 	eorcs	r7, ip, ip, asr #26
    62b8:	4c554e5f 	mrrcmi	14, 5, r4, r5, cr15
    62bc:	5f202c4c 	svcpl	0x00202c4c
    62c0:	4c4c554e 	cfstr64mi	mvdx5, [ip], {78}	; 0x4e
    62c4:	4e5f202c 	cdpmi	0, 5, cr2, cr15, cr12, {1}
    62c8:	204c4c55 	subcs	r4, ip, r5, asr ip
    62cc:	5f5f007d 	svcpl	0x005f007d
    62d0:	5f4d5241 	svcpl	0x004d5241
    62d4:	455a4953 	ldrbmi	r4, [sl, #-2387]	; 0xfffff6ad
    62d8:	4d5f464f 	ldclmi	6, cr4, [pc, #-316]	; 61a4 <_Min_Stack_Size+0x5da4>
    62dc:	4d494e49 	stclmi	14, cr4, [r9, #-292]	; 0xfffffedc
    62e0:	455f4c41 	ldrbmi	r4, [pc, #-3137]	; 56a7 <_Min_Stack_Size+0x52a7>
    62e4:	204d554e 	subcs	r5, sp, lr, asr #10
    62e8:	505f0031 	subspl	r0, pc, r1, lsr r0	; <UNPREDICTABLE>
    62ec:	544e494f 	strbpl	r4, [lr], #-2383	; 0xfffff6b1
    62f0:	495f5245 	ldmdbmi	pc, {r0, r2, r6, r9, ip, lr}^	; <UNPREDICTABLE>
    62f4:	6c20544e 	cfstrsvs	mvf5, [r0], #-312	; 0xfffffec8
    62f8:	00676e6f 	rsbeq	r6, r7, pc, ror #28
    62fc:	4c465f5f 	mcrrmi	15, 5, r5, r6, cr15
    6300:	58323354 	ldmdapl	r2!, {r2, r4, r6, r8, r9, ip, sp}
    6304:	524f4e5f 	subpl	r4, pc, #1520	; 0x5f0
    6308:	414d5f4d 	cmpmi	sp, sp, asr #30
    630c:	205f5f58 	subscs	r5, pc, r8, asr pc	; <UNPREDICTABLE>
    6310:	39372e31 	ldmdbcc	r7!, {r0, r4, r5, r9, sl, fp, sp}
    6314:	33393637 	teqcc	r9, #57671680	; 0x3700000
    6318:	38343331 	ldmdacc	r4!, {r0, r4, r5, r8, r9, ip, sp}
    631c:	31333236 	teqcc	r3, r6, lsr r2
    6320:	2b653735 	blcs	1953ffc <_Min_Stack_Size+0x1953bfc>
    6324:	46383033 			; <UNDEFINED> instruction: 0x46383033
    6328:	00783233 	rsbseq	r3, r8, r3, lsr r2
    632c:	49545845 	ldmdbmi	r4, {r0, r2, r6, fp, ip, lr}^
    6330:	43503231 	cmpmi	r0, #268435459	; 0x10000003
    6334:	28203231 	stmdacs	r0!, {r0, r4, r5, r9, ip, sp}
    6338:	49545845 	ldmdbmi	r4, {r0, r2, r6, fp, ip, lr}^
    633c:	4950475f 	ldmdbmi	r0, {r0, r1, r2, r3, r4, r6, r8, r9, sl, lr}^
    6340:	614d5f4f 	cmpvs	sp, pc, asr #30
    6344:	6e697070 	mcrvs	0, 3, r7, cr9, cr0, {3}
    6348:	29745f67 	ldmdbcs	r4!, {r0, r1, r2, r5, r6, r8, r9, sl, fp, ip, lr}^
    634c:	5458457b 	ldrbpl	r4, [r8], #-1403	; 0xfffffa85
    6350:	2c323149 	ldfcss	f3, [r2], #-292	; 0xfffffedc
    6354:	49504720 	ldmdbmi	r0, {r5, r8, r9, sl, lr}^
    6358:	202c434f 	eorcs	r4, ip, pc, asr #6
    635c:	4f495047 	svcmi	0x00495047
    6360:	4e49505f 	mcrmi	0, 2, r5, cr9, cr15, {2}
    6364:	2c32315f 	ldfcss	f3, [r2], #-380	; 0xfffffe84
    6368:	54584520 	ldrbpl	r4, [r8], #-1312	; 0xfffffae0
    636c:	5f323149 	svcpl	0x00323149
    6370:	7d515249 	lfmvc	f5, 2, [r1, #-292]	; 0xfffffedc
    6374:	615f5f00 	cmpvs	pc, r0, lsl #30
    6378:	5f5f6d72 	svcpl	0x005f6d72
    637c:	5f003120 	svcpl	0x00003120
    6380:	4152465f 	cmpmi	r2, pc, asr r6
    6384:	455f5443 	ldrbmi	r5, [pc, #-1091]	; 5f49 <_Min_Stack_Size+0x5b49>
    6388:	4c495350 	mcrrmi	3, 5, r5, r9, cr0
    638c:	5f5f4e4f 	svcpl	0x005f4e4f
    6390:	31783020 	cmncc	r8, r0, lsr #32
    6394:	35312d50 	ldrcc	r2, [r1, #-3408]!	; 0xfffff2b0
    6398:	5f5f0052 	svcpl	0x005f0052
    639c:	33544c46 	cmpcc	r4, #17920	; 0x4600
    63a0:	494d5f32 	stmdbmi	sp, {r1, r4, r5, r8, r9, sl, fp, ip, lr}^
    63a4:	30315f4e 	eorscc	r5, r1, lr, asr #30
    63a8:	5058455f 	subspl	r4, r8, pc, asr r5
    63ac:	28205f5f 	stmdacs	r0!, {r0, r1, r2, r3, r4, r6, r8, r9, sl, fp, ip, lr}
    63b0:	2937332d 	ldmdbcs	r7!, {r0, r2, r3, r5, r8, r9, ip, sp}
    63b4:	45525f00 	ldrbmi	r5, [r2, #-3840]	; 0xfffff100
    63b8:	5f544e45 	svcpl	0x00544e45
    63bc:	4f544357 	svcmi	0x00544357
    63c0:	535f424d 	cmppl	pc, #-805306364	; 0xd0000004
    63c4:	45544154 	ldrbmi	r4, [r4, #-340]	; 0xfffffeac
    63c8:	72747028 	rsbsvc	r7, r4, #40	; 0x28
    63cc:	28282029 	stmdacs	r8!, {r0, r3, r5, sp}
    63d0:	29727470 	ldmdbcs	r2!, {r4, r5, r6, sl, ip, sp, lr}^
    63d4:	6d5f3e2d 	ldclvs	14, cr3, [pc, #-180]	; 6328 <_Min_Stack_Size+0x5f28>
    63d8:	2d637369 	stclcs	3, cr7, [r3, #-420]!	; 0xfffffe5c
    63dc:	63775f3e 	cmnvs	r7, #62, 30	; 0xf8
    63e0:	626d6f74 	rsbvs	r6, sp, #116, 30	; 0x1d0
    63e4:	6174735f 	cmnvs	r4, pc, asr r3
    63e8:	00296574 	eoreq	r6, r9, r4, ror r5
    63ec:	64756142 	ldrbtvs	r6, [r5], #-322	; 0xfffffebe
    63f0:	65746152 	ldrbvs	r6, [r4, #-338]!	; 0xfffffeae
    63f4:	3132395f 	teqcc	r2, pc, asr r9
    63f8:	20303036 	eorscs	r3, r0, r6, lsr r0
    63fc:	36313239 			; <UNDEFINED> instruction: 0x36313239
    6400:	5f003030 	svcpl	0x00003030
    6404:	4f53495f 	svcmi	0x0053495f
    6408:	565f435f 			; <UNDEFINED> instruction: 0x565f435f
    640c:	42495349 	submi	r5, r9, #603979777	; 0x24000001
    6410:	3220454c 	eorcc	r4, r0, #76, 10	; 0x13000000
    6414:	00313130 	eorseq	r3, r1, r0, lsr r1
    6418:	52415f5f 	subpl	r5, r1, #380	; 0x17c
    641c:	50465f4d 	subpl	r5, r6, sp, asr #30
    6420:	465f3631 			; <UNDEFINED> instruction: 0x465f3631
    6424:	414d524f 	cmpmi	sp, pc, asr #4
    6428:	4c415f54 	mcrrmi	15, 5, r5, r1, cr4
    642c:	4e524554 	mrcmi	5, 2, r4, cr2, cr4, {2}
    6430:	56495441 	strbpl	r5, [r9], -r1, asr #8
    6434:	5f5f0045 	svcpl	0x005f0045
    6438:	44534246 	ldrbmi	r4, [r3], #-582	; 0xfffffdba
    643c:	73284449 			; <UNDEFINED> instruction: 0x73284449
    6440:	74732029 	ldrbtvc	r2, [r3], #-41	; 0xffffffd7
    6444:	74637572 	strbtvc	r7, [r3], #-1394	; 0xfffffa8e
    6448:	685f5f20 	ldmdavs	pc, {r5, r8, r9, sl, fp, ip, lr}^	; <UNPREDICTABLE>
    644c:	006b6361 	rsbeq	r6, fp, r1, ror #6
    6450:	444c5f5f 	strbmi	r5, [ip], #-3935	; 0xfffff0a1
    6454:	4e5f4c42 	cdpmi	12, 5, cr4, cr15, cr2, {2}
    6458:	5f4d524f 	svcpl	0x004d524f
    645c:	5f58414d 	svcpl	0x0058414d
    6460:	2e31205f 	mrccs	0, 1, r2, cr1, cr15, {2}
    6464:	36373937 			; <UNDEFINED> instruction: 0x36373937
    6468:	33313339 	teqcc	r1, #-469762048	; 0xe4000000
    646c:	32363834 	eorscc	r3, r6, #52, 16	; 0x340000
    6470:	37353133 			; <UNDEFINED> instruction: 0x37353133
    6474:	30332b65 	eorscc	r2, r3, r5, ror #22
    6478:	4f004c38 	svcmi	0x00004c38
    647c:	65475f53 	strbvs	r5, [r7, #-3923]	; 0xfffff0ad
    6480:	6172656e 	cmnvs	r2, lr, ror #10
    6484:	455f6574 	ldrbmi	r6, [pc, #-1396]	; 5f18 <_Min_Stack_Size+0x5b18>
    6488:	70656378 	rsbvc	r6, r5, r8, ror r3
    648c:	6e6f6974 			; <UNDEFINED> instruction: 0x6e6f6974
    6490:	615f5f20 	cmpvs	pc, r0, lsr #30
    6494:	76206d73 			; <UNDEFINED> instruction: 0x76206d73
    6498:	74616c6f 	strbtvc	r6, [r1], #-3183	; 0xfffff391
    649c:	28656c69 	stmdacs	r5!, {r0, r3, r5, r6, sl, fp, sp, lr}^
    64a0:	43565322 	cmpmi	r6, #-2013265920	; 0x88000000
    64a4:	78302320 	ldmdavc	r0!, {r5, r8, r9, sp}
    64a8:	00292233 	eoreq	r2, r9, r3, lsr r2
    64ac:	5f544e49 	svcpl	0x00544e49
    64b0:	54534146 	ldrbpl	r4, [r3], #-326	; 0xfffffeba
    64b4:	4d5f3436 	cfldrdmi	mvd3, [pc, #-216]	; 63e4 <_Min_Stack_Size+0x5fe4>
    64b8:	28204e49 	stmdacs	r0!, {r0, r3, r6, r9, sl, fp, lr}
    64bc:	495f5f2d 	ldmdbmi	pc, {r0, r2, r3, r5, r8, r9, sl, fp, ip, lr}^	; <UNPREDICTABLE>
    64c0:	465f544e 	ldrbmi	r5, [pc], -lr, asr #8
    64c4:	36545341 	ldrbcc	r5, [r4], -r1, asr #6
    64c8:	414d5f34 	cmpmi	sp, r4, lsr pc
    64cc:	205f5f58 	subscs	r5, pc, r8, asr pc	; <UNPREDICTABLE>
    64d0:	2931202d 	ldmdbcs	r1!, {r0, r2, r3, r5, sp}
    64d4:	414d5f00 	cmpmi	sp, r0, lsl #30
    64d8:	4e494843 	cdpmi	8, 4, cr4, cr9, cr3, {2}
    64dc:	445f5f45 	ldrbmi	r5, [pc], #-3909	; 64e4 <_Min_Stack_Size+0x60e4>
    64e0:	55414645 	strbpl	r4, [r1, #-1605]	; 0xfffff9bb
    64e4:	545f544c 	ldrbpl	r5, [pc], #-1100	; 64ec <_Min_Stack_Size+0x60ec>
    64e8:	53455059 	movtpl	r5, #20569	; 0x5059
    64ec:	0020485f 	eoreq	r4, r0, pc, asr r8
    64f0:	49425f5f 	stmdbmi	r2, {r0, r1, r2, r3, r4, r6, r8, r9, sl, fp, ip, lr}^
    64f4:	53454747 	movtpl	r4, #22343	; 0x5747
    64f8:	4c415f54 	mcrrmi	15, 5, r5, r1, cr4
    64fc:	4d4e4749 	stclmi	7, cr4, [lr, #-292]	; 0xfffffedc
    6500:	5f544e45 	svcpl	0x00544e45
    6504:	0038205f 	eorseq	r2, r8, pc, asr r0
    6508:	61685f5f 	cmnvs	r8, pc, asr pc
    650c:	65665f73 	strbvs	r5, [r6, #-3955]!	; 0xfffff08d
    6510:	72757461 	rsbsvc	r7, r5, #1627389952	; 0x61000000
    6514:	29782865 	ldmdbcs	r8!, {r0, r2, r5, r6, fp, sp}^
    6518:	5f003020 	svcpl	0x00003020
    651c:	5f434347 	svcpl	0x00434347
    6520:	44525450 	ldrbmi	r5, [r2], #-1104	; 0xfffffbb0
    6524:	5f464649 	svcpl	0x00464649
    6528:	5f002054 	svcpl	0x00002054
    652c:	554e475f 	strbpl	r4, [lr, #-1887]	; 0xfffff8a1
    6530:	4b494c43 	blmi	1259644 <_Min_Stack_Size+0x1259244>
    6534:	55425f45 	strbpl	r5, [r2, #-3909]	; 0xfffff0bb
    6538:	49544c49 	ldmdbmi	r4, {r0, r3, r6, sl, fp, lr}^
    653c:	454e5f4e 	strbmi	r5, [lr, #-3918]	; 0xfffff0b2
    6540:	415f5458 	cmpmi	pc, r8, asr r4	; <UNPREDICTABLE>
    6544:	31204752 			; <UNDEFINED> instruction: 0x31204752
    6548:	49504700 	ldmdbmi	r0, {r8, r9, sl, lr}^
    654c:	49505f4f 	ldmdbmi	r0, {r0, r1, r2, r3, r6, r8, r9, sl, fp, ip, lr}^
    6550:	20315f4e 	eorscs	r5, r1, lr, asr #30
    6554:	69752828 	ldmdbvs	r5!, {r3, r5, fp, sp}^
    6558:	3631746e 	ldrtcc	r7, [r1], -lr, ror #8
    655c:	2029745f 	eorcs	r7, r9, pc, asr r4
    6560:	30307830 	eorscc	r7, r0, r0, lsr r8
    6564:	00293230 	eoreq	r3, r9, r0, lsr r2
    6568:	41545f5f 	cmpmi	r4, pc, asr pc
    656c:	4942495f 	stmdbmi	r2, {r0, r1, r2, r3, r4, r6, r8, fp, lr}^
    6570:	205f5f54 	subscs	r5, pc, r4, asr pc	; <UNPREDICTABLE>
    6574:	45003436 	strmi	r3, [r0, #-1078]	; 0xfffffbca
    6578:	34495458 	strbcc	r5, [r9], #-1112	; 0xfffffba8
    657c:	20344150 	eorscs	r4, r4, r0, asr r1
    6580:	54584528 	ldrbpl	r4, [r8], #-1320	; 0xfffffad8
    6584:	50475f49 	subpl	r5, r7, r9, asr #30
    6588:	4d5f4f49 	ldclmi	15, cr4, [pc, #-292]	; 646c <_Min_Stack_Size+0x606c>
    658c:	69707061 	ldmdbvs	r0!, {r0, r5, r6, ip, sp, lr}^
    6590:	745f676e 	ldrbvc	r6, [pc], #-1902	; 6598 <_Min_Stack_Size+0x6198>
    6594:	58457b29 	stmdapl	r5, {r0, r3, r5, r8, r9, fp, ip, sp, lr}^
    6598:	2c344954 			; <UNDEFINED> instruction: 0x2c344954
    659c:	49504720 	ldmdbmi	r0, {r5, r8, r9, sl, lr}^
    65a0:	202c414f 	eorcs	r4, ip, pc, asr #2
    65a4:	4f495047 	svcmi	0x00495047
    65a8:	4e49505f 	mcrmi	0, 2, r5, cr9, cr15, {2}
    65ac:	202c345f 	eorcs	r3, ip, pc, asr r4
    65b0:	49545845 	ldmdbmi	r4, {r0, r2, r6, fp, ip, lr}^
    65b4:	52495f34 	subpl	r5, r9, #52, 30	; 0xd0
    65b8:	53007d51 	movwpl	r7, #3409	; 0xd51
    65bc:	32334d54 	eorscc	r4, r3, #84, 26	; 0x1500
    65c0:	5f003120 	svcpl	0x00003120
    65c4:	41454c5f 	cmpmi	r5, pc, asr ip
    65c8:	34365453 	ldrtcc	r5, [r6], #-1107	; 0xfffffbad
    65cc:	6c6c2220 	sfmvs	f2, 2, [ip], #-128	; 0xffffff80
    65d0:	58450022 	stmdapl	r5, {r1, r5}^
    65d4:	20344954 	eorscs	r4, r4, r4, asr r9
    65d8:	5f5f0034 	svcpl	0x005f0034
    65dc:	6e656572 	mcrvs	5, 3, r6, cr5, cr2, {3}
    65e0:	73615f74 	cmnvc	r1, #116, 30	; 0x1d0
    65e4:	74726573 	ldrbtvc	r6, [r2], #-1395	; 0xfffffa8d
    65e8:	20297828 	eorcs	r7, r9, r8, lsr #16
    65ec:	29782828 	ldmdbcs	r8!, {r3, r5, fp, sp}^
    65f0:	28203f20 	stmdacs	r0!, {r5, r8, r9, sl, fp, ip, sp}
    65f4:	64696f76 	strbtvs	r6, [r9], #-3958	; 0xfffff08a
    65f8:	3a203029 	bcc	8126a4 <_Min_Stack_Size+0x8122a4>
    65fc:	615f5f20 	cmpvs	pc, r0, lsr #30
    6600:	72657373 	rsbvc	r7, r5, #-872415231	; 0xcc000001
    6604:	75665f74 	strbvc	r5, [r6, #-3956]!	; 0xfffff08c
    6608:	5f28636e 	svcpl	0x0028636e
    660c:	4c49465f 	mcrrmi	6, 5, r4, r9, cr15
    6610:	2c5f5f45 	mrrccs	15, 4, r5, pc, cr5	; <UNPREDICTABLE>
    6614:	4c5f5f20 	mrrcmi	15, 2, r5, pc, cr0	; <UNPREDICTABLE>
    6618:	5f454e49 	svcpl	0x00454e49
    661c:	28202c5f 	stmdacs	r0!, {r0, r1, r2, r3, r4, r6, sl, fp, sp}
    6620:	72616863 	rsbvc	r6, r1, #6488064	; 0x630000
    6624:	30292a20 	eorcc	r2, r9, r0, lsr #20
    6628:	5222202c 	eorpl	r2, r2, #44	; 0x2c
    662c:	544e4545 	strbpl	r4, [lr], #-1349	; 0xfffffabb
    6630:	6c616d20 	stclvs	13, cr6, [r1], #-128	; 0xffffff80
    6634:	20636f6c 	rsbcs	r6, r3, ip, ror #30
    6638:	63637573 	cmnvs	r3, #482344960	; 0x1cc00000
    663c:	65646565 	strbvs	r6, [r4, #-1381]!	; 0xfffffa9b
    6640:	29292264 	stmdbcs	r9!, {r2, r5, r6, r9, sp}
    6644:	415f5f00 	cmpmi	pc, r0, lsl #30
    6648:	465f4d52 			; <UNDEFINED> instruction: 0x465f4d52
    664c:	55544145 	ldrbpl	r4, [r4, #-325]	; 0xfffffebb
    6650:	515f4552 	cmppl	pc, r2, asr r5	; <UNPREDICTABLE>
    6654:	584d4452 	stmdapl	sp, {r1, r4, r6, sl, lr}^
    6658:	41485f00 	cmpmi	r8, r0, lsl #30
    665c:	435f4556 	cmpmi	pc, #360710144	; 0x15800000
    6660:	4e495f43 	cdpmi	15, 4, cr5, cr9, cr3, {2}
    6664:	49424948 	stmdbmi	r2, {r3, r6, r8, fp, lr}^
    6668:	4f4c5f54 	svcmi	0x004c5f54
    666c:	545f504f 	ldrbpl	r5, [pc], #-79	; 6674 <_Min_Stack_Size+0x6274>
    6670:	494c5f4f 	stmdbmi	ip, {r0, r1, r2, r3, r6, r8, r9, sl, fp, ip, lr}^
    6674:	4c414342 	mcrrmi	3, 4, r4, r1, cr2
    6678:	0031204c 	eorseq	r2, r1, ip, asr #32
    667c:	52415f5f 	subpl	r5, r1, #380	; 0x17c
    6680:	52415f4d 	subpl	r5, r1, #308	; 0x134
    6684:	495f4843 	ldmdbmi	pc, {r0, r1, r6, fp, lr}^	; <UNPREDICTABLE>
    6688:	545f4153 	ldrbpl	r4, [pc], #-339	; 6690 <_Min_Stack_Size+0x6290>
    668c:	424d5548 	submi	r5, sp, #72, 10	; 0x12000000
    6690:	41003220 	tstmi	r0, r0, lsr #4
    6694:	5f4f4946 	svcpl	0x004f4946
    6698:	5f4b4c43 	svcpl	0x004b4c43
    669c:	29284e45 	stmdbcs	r8!, {r0, r2, r6, r9, sl, fp, lr}
    66a0:	43522820 	cmpmi	r2, #32, 16	; 0x200000
    66a4:	413e2d43 	teqmi	lr, r3, asr #26
    66a8:	45324250 	ldrmi	r4, [r2, #-592]!	; 0xfffffdb0
    66ac:	7c20524e 	sfmvc	f5, 4, [r0], #-312	; 0xfffffec8
    66b0:	3128203d 			; <UNDEFINED> instruction: 0x3128203d
    66b4:	29303c3c 	ldmdbcs	r0!, {r2, r3, r4, r5, sl, fp, ip, sp}
    66b8:	5f5f0029 	svcpl	0x005f0029
    66bc:	474e4f4c 	strbmi	r4, [lr, -ip, asr #30]
    66c0:	4e4f4c5f 	mcrmi	12, 2, r4, cr15, cr15, {2}
    66c4:	414d5f47 	cmpmi	sp, r7, asr #30
    66c8:	205f5f58 	subscs	r5, pc, r8, asr pc	; <UNPREDICTABLE>
    66cc:	66377830 			; <UNDEFINED> instruction: 0x66377830
    66d0:	66666666 	strbtvs	r6, [r6], -r6, ror #12
    66d4:	66666666 	strbtvs	r6, [r6], -r6, ror #12
    66d8:	66666666 	strbtvs	r6, [r6], -r6, ror #12
    66dc:	4c4c6666 	mcrrmi	6, 6, r6, ip, cr6
    66e0:	43435200 	movtmi	r5, #12800	; 0x3200
    66e4:	4950475f 	ldmdbmi	r0, {r0, r1, r2, r3, r4, r6, r8, r9, sl, lr}^
    66e8:	435f444f 	cmpmi	pc, #1325400064	; 0x4f000000
    66ec:	455f4b4c 	ldrbmi	r4, [pc, #-2892]	; 5ba8 <_Min_Stack_Size+0x57a8>
    66f0:	2029284e 	eorcs	r2, r9, lr, asr #16
    66f4:	43435228 	movtmi	r5, #12840	; 0x3228
    66f8:	50413e2d 	subpl	r3, r1, sp, lsr #28
    66fc:	4e453242 	cdpmi	2, 4, cr3, cr5, cr2, {2}
    6700:	3d7c2052 	ldclcc	0, cr2, [ip, #-328]!	; 0xfffffeb8
    6704:	3c312820 	ldccc	8, cr2, [r1], #-128	; 0xffffff80
    6708:	2929353c 	stmdbcs	r9!, {r2, r3, r4, r5, r8, sl, ip, sp}
    670c:	615f5f00 	cmpvs	pc, r0, lsl #30
    6710:	745f6772 	ldrbvc	r6, [pc], #-1906	; 6718 <_Min_Stack_Size+0x6318>
    6714:	5f657079 	svcpl	0x00657079
    6718:	28676174 	stmdacs	r7!, {r2, r4, r5, r6, r8, sp, lr}^
    671c:	5f677261 	svcpl	0x00677261
    6720:	646e696b 	strbtvs	r6, [lr], #-2411	; 0xfffff695
    6724:	6772612c 	ldrbvs	r6, [r2, -ip, lsr #2]!
    6728:	7864695f 	stmdavc	r4!, {r0, r1, r2, r3, r4, r6, r8, fp, sp, lr}^
    672c:	7079742c 	rsbsvc	r7, r9, ip, lsr #8
    6730:	61745f65 	cmnvs	r4, r5, ror #30
    6734:	64695f67 	strbtvs	r5, [r9], #-3943	; 0xfffff099
    6738:	00202978 	eoreq	r2, r0, r8, ror r9
    673c:	31495053 	qdaddcc	r5, r3, r9
    6740:	5152495f 	cmppl	r2, pc, asr r9
    6744:	00353320 	eorseq	r3, r5, r0, lsr #6
    6748:	54535f5f 	ldrbpl	r5, [r3], #-3935	; 0xfffff0a1
    674c:	474e4952 	smlsldmi	r4, lr, r2, r9
    6750:	20297828 	eorcs	r7, r9, r8, lsr #16
    6754:	73007823 	movwvc	r7, #2083	; 0x823
    6758:	74726f68 	ldrbtvc	r6, [r2], #-3944	; 0xfffff098
    675c:	45525f00 	ldrbmi	r5, [r2, #-3840]	; 0xfffff100
    6760:	5f544e45 	svcpl	0x00544e45
    6764:	54494e49 	strbpl	r4, [r9], #-3657	; 0xfffff1b7
    6768:	5254505f 	subspl	r5, r4, #95	; 0x5f
    676c:	72617628 	rsbvc	r7, r1, #40, 12	; 0x2800000
    6770:	207b2029 	rsbscs	r2, fp, r9, lsr #32
    6774:	736d656d 	cmnvc	sp, #457179136	; 0x1b400000
    6778:	28287465 	stmdacs	r8!, {r0, r2, r5, r6, sl, ip, sp, lr}
    677c:	29726176 	ldmdbcs	r2!, {r1, r2, r4, r5, r6, r8, sp, lr}^
    6780:	2c30202c 	ldccs	0, cr2, [r0], #-176	; 0xffffff50
    6784:	7a697320 	bvc	1a6340c <_Min_Stack_Size+0x1a6300c>
    6788:	28666f65 	stmdacs	r6!, {r0, r2, r5, r6, r8, r9, sl, fp, sp, lr}^
    678c:	6176282a 	cmnvs	r6, sl, lsr #16
    6790:	29292972 	stmdbcs	r9!, {r1, r4, r5, r6, r8, fp, sp}
    6794:	525f203b 	subspl	r2, pc, #59	; 0x3b
    6798:	544e4545 	strbpl	r4, [lr], #-1349	; 0xfffffabb
    679c:	494e495f 	stmdbmi	lr, {r0, r1, r2, r3, r4, r6, r8, fp, lr}^
    67a0:	54505f54 	ldrbpl	r5, [r0], #-3924	; 0xfffff0ac
    67a4:	455a5f52 	ldrbmi	r5, [sl, #-3922]	; 0xfffff0ae
    67a8:	44454f52 	strbmi	r4, [r5], #-3922	; 0xfffff0ae
    67ac:	72617628 	rsbvc	r7, r1, #40, 12	; 0x2800000
    67b0:	7d203b29 	fstmdbxvc	r0!, {d3-d22}	;@ Deprecated
    67b4:	435f5f00 	cmpmi	pc, #0, 30
    67b8:	5259504f 	subspl	r5, r9, #79	; 0x4f
    67bc:	54484749 	strbpl	r4, [r8], #-1865	; 0xfffff8b7
    67c0:	20297328 	eorcs	r7, r9, r8, lsr #6
    67c4:	75727473 	ldrbvc	r7, [r2, #-1139]!	; 0xfffffb8d
    67c8:	5f207463 	svcpl	0x00207463
    67cc:	6361685f 	cmnvs	r1, #6225920	; 0x5f0000
    67d0:	5f5f006b 	svcpl	0x005f006b
    67d4:	41524655 	cmpmi	r2, r5, asr r6
    67d8:	495f5443 	ldmdbmi	pc, {r0, r1, r6, sl, ip, lr}^	; <UNPREDICTABLE>
    67dc:	5f544942 	svcpl	0x00544942
    67e0:	0030205f 	eorseq	r2, r0, pc, asr r0
    67e4:	52415f5f 	subpl	r5, r1, #380	; 0x17c
    67e8:	32335f4d 	eorscc	r5, r3, #308	; 0x134
    67ec:	5f544942 	svcpl	0x00544942
    67f0:	54415453 	strbpl	r5, [r1], #-1107	; 0xfffffbad
    67f4:	00312045 	eorseq	r2, r1, r5, asr #32
    67f8:	4e495f5f 	mcrmi	15, 2, r5, cr9, cr15, {2}
    67fc:	435f3854 	cmpmi	pc, #84, 16	; 0x540000
    6800:	20296328 	eorcs	r6, r9, r8, lsr #6
    6804:	5f5f0063 	svcpl	0x005f0063
    6808:	4152464c 	cmpmi	r2, ip, asr #12
    680c:	495f5443 	ldmdbmi	pc, {r0, r1, r6, sl, ip, lr}^	; <UNPREDICTABLE>
    6810:	5f544942 	svcpl	0x00544942
    6814:	0030205f 	eorseq	r2, r0, pc, asr r0
    6818:	4454535f 	ldrbmi	r5, [r4], #-863	; 0xfffffca1
    681c:	5f464544 	svcpl	0x00464544
    6820:	00205f48 	eoreq	r5, r0, r8, asr #30
    6824:	4f495047 	svcmi	0x00495047
    6828:	4550535f 	ldrbmi	r5, [r0, #-863]	; 0xfffffca1
    682c:	315f4445 	cmpcc	pc, r5, asr #8
    6830:	30204d30 	eorcc	r4, r0, r0, lsr sp
    6834:	30303078 	eorscc	r3, r0, r8, ror r0
    6838:	30303030 	eorscc	r3, r0, r0, lsr r0
    683c:	47007531 	smladxmi	r0, r1, r5, r7
    6840:	434f4950 	movtmi	r4, #63824	; 0xf950
    6844:	47282820 	strmi	r2, [r8, -r0, lsr #16]!
    6848:	5f4f4950 	svcpl	0x004f4950
    684c:	65707954 	ldrbvs	r7, [r0, #-2388]!	; 0xfffff6ac
    6850:	5f666564 	svcpl	0x00666564
    6854:	292a2074 	stmdbcs	sl!, {r2, r4, r5, r6, sp}
    6858:	4f495047 	svcmi	0x00495047
    685c:	41425f43 	cmpmi	r2, r3, asr #30
    6860:	00294553 	eoreq	r4, r9, r3, asr r5
    6864:	42445f5f 	submi	r5, r4, #380	; 0x17c
    6868:	494d5f4c 	stmdbmi	sp, {r2, r3, r6, r8, r9, sl, fp, ip, lr}^
    686c:	58455f4e 	stmdapl	r5, {r1, r2, r3, r6, r8, r9, sl, fp, ip, lr}^
    6870:	205f5f50 	subscs	r5, pc, r0, asr pc	; <UNPREDICTABLE>
    6874:	30312d28 	eorscc	r2, r1, r8, lsr #26
    6878:	00293132 	eoreq	r3, r9, r2, lsr r1
    687c:	49535f5f 	ldmdbmi	r3, {r0, r1, r2, r3, r4, r6, r8, r9, sl, fp, ip, lr}^
    6880:	545f455a 	ldrbpl	r4, [pc], #-1370	; 6888 <_Min_Stack_Size+0x6488>
    6884:	58450020 	stmdapl	r5, {r5}^
    6888:	50314954 	eorspl	r4, r1, r4, asr r9
    688c:	28203142 	stmdacs	r0!, {r1, r6, r8, ip, sp}
    6890:	49545845 	ldmdbmi	r4, {r0, r2, r6, fp, ip, lr}^
    6894:	4950475f 	ldmdbmi	r0, {r0, r1, r2, r3, r4, r6, r8, r9, sl, lr}^
    6898:	614d5f4f 	cmpvs	sp, pc, asr #30
    689c:	6e697070 	mcrvs	0, 3, r7, cr9, cr0, {3}
    68a0:	29745f67 	ldmdbcs	r4!, {r0, r1, r2, r5, r6, r8, r9, sl, fp, ip, lr}^
    68a4:	5458457b 	ldrbpl	r4, [r8], #-1403	; 0xfffffa85
    68a8:	202c3149 	eorcs	r3, ip, r9, asr #2
    68ac:	4f495047 	svcmi	0x00495047
    68b0:	47202c42 	strmi	r2, [r0, -r2, asr #24]!
    68b4:	5f4f4950 	svcpl	0x004f4950
    68b8:	5f4e4950 	svcpl	0x004e4950
    68bc:	45202c31 	strmi	r2, [r0, #-3121]!	; 0xfffff3cf
    68c0:	31495458 	cmpcc	r9, r8, asr r4
    68c4:	5152495f 	cmppl	r2, pc, asr r9
    68c8:	5f5f007d 	svcpl	0x005f007d
    68cc:	6e697270 	mcrvs	2, 3, r7, cr9, cr0, {3}
    68d0:	6c306674 	ldcvs	6, cr6, [r0], #-464	; 0xfffffe30
    68d4:	28656b69 	stmdacs	r5!, {r0, r3, r5, r6, r8, r9, fp, sp, lr}^
    68d8:	61746d66 	cmnvs	r4, r6, ror #26
    68dc:	662c6772 			; <UNDEFINED> instruction: 0x662c6772
    68e0:	74737269 	ldrbtvc	r7, [r3], #-617	; 0xfffffd97
    68e4:	61726176 	cmnvs	r2, r6, ror r1
    68e8:	20296772 	eorcs	r6, r9, r2, ror r7
    68ec:	49504700 	ldmdbmi	r0, {r8, r9, sl, lr}^
    68f0:	4f4d5f4f 	svcmi	0x004d5f4f
    68f4:	4f5f4544 	svcmi	0x005f4544
    68f8:	55505455 	ldrbpl	r5, [r0, #-1109]	; 0xfffffbab
    68fc:	50505f54 	subspl	r5, r0, r4, asr pc
    6900:	30783020 	rsbscc	r3, r8, r0, lsr #32
    6904:	30303030 	eorscc	r3, r0, r0, lsr r0
    6908:	00343030 	eorseq	r3, r4, r0, lsr r0
    690c:	4c465f5f 	mcrrmi	15, 5, r5, r6, cr15
    6910:	5f323354 	svcpl	0x00323354
    6914:	5f474944 	svcpl	0x00474944
    6918:	0036205f 	eorseq	r2, r6, pc, asr r0
    691c:	49545845 	ldmdbmi	r4, {r0, r2, r6, fp, ip, lr}^
    6920:	36415036 			; <UNDEFINED> instruction: 0x36415036
    6924:	58452820 	stmdapl	r5, {r5, fp, sp}^
    6928:	475f4954 			; <UNDEFINED> instruction: 0x475f4954
    692c:	5f4f4950 	svcpl	0x004f4950
    6930:	7070614d 	rsbsvc	r6, r0, sp, asr #2
    6934:	5f676e69 	svcpl	0x00676e69
    6938:	457b2974 	ldrbmi	r2, [fp, #-2420]!	; 0xfffff68c
    693c:	36495458 			; <UNDEFINED> instruction: 0x36495458
    6940:	5047202c 	subpl	r2, r7, ip, lsr #32
    6944:	2c414f49 	mcrrcs	15, 4, r4, r1, cr9
    6948:	49504720 	ldmdbmi	r0, {r5, r8, r9, sl, lr}^
    694c:	49505f4f 	ldmdbmi	r0, {r0, r1, r2, r3, r6, r8, r9, sl, fp, ip, lr}^
    6950:	2c365f4e 	ldccs	15, cr5, [r6], #-312	; 0xfffffec8
    6954:	54584520 	ldrbpl	r4, [r8], #-1312	; 0xfffffae0
    6958:	495f3649 	ldmdbmi	pc, {r0, r3, r6, r9, sl, ip, sp}^	; <UNPREDICTABLE>
    695c:	007d5152 	rsbseq	r5, sp, r2, asr r1
    6960:	65645f5f 	strbvs	r5, [r4, #-3935]!	; 0xfffff0a1
    6964:	20326461 	eorscs	r6, r2, r1, ror #8
    6968:	74615f5f 	strbtvc	r5, [r1], #-3935	; 0xfffff0a1
    696c:	62697274 	rsbvs	r7, r9, #116, 4	; 0x40000007
    6970:	5f657475 	svcpl	0x00657475
    6974:	5f28285f 	svcpl	0x0028285f
    6978:	726f6e5f 	rsbvc	r6, pc, #1520	; 0x5f0
    697c:	72757465 	rsbsvc	r7, r5, #1694498816	; 0x65000000
    6980:	295f5f6e 	ldmdbcs	pc, {r1, r2, r3, r5, r6, r8, r9, sl, fp, ip, lr}^	; <UNPREDICTABLE>
    6984:	5f5f0029 	svcpl	0x005f0029
    6988:	706d6f63 	rsbvc	r6, sp, r3, ror #30
    698c:	665f7261 	ldrbvs	r7, [pc], -r1, ror #4
    6990:	5f745f6e 	svcpl	0x00745f6e
    6994:	69666564 	stmdbvs	r6!, {r2, r5, r6, r8, sl, sp, lr}^
    6998:	2064656e 	rsbcs	r6, r4, lr, ror #10
    699c:	4e495500 	cdpmi	5, 4, cr5, cr9, cr0, {0}
    69a0:	58414d54 	stmdapl	r1, {r2, r4, r6, r8, sl, fp, lr}^
    69a4:	7828435f 	stmdavc	r8!, {r0, r1, r2, r3, r4, r6, r8, r9, lr}
    69a8:	5f5f2029 	svcpl	0x005f2029
    69ac:	544e4955 	strbpl	r4, [lr], #-2389	; 0xfffff6ab
    69b0:	5f58414d 	svcpl	0x0058414d
    69b4:	29782843 	ldmdbcs	r8!, {r0, r1, r6, fp, sp}^
    69b8:	4d5f5f00 	ldclmi	15, cr5, [pc, #-0]	; 69c0 <_Min_Stack_Size+0x65c0>
    69bc:	5f435349 	svcpl	0x00435349
    69c0:	49534956 	ldmdbmi	r3, {r1, r2, r4, r6, r8, fp, lr}^
    69c4:	20454c42 	subcs	r4, r5, r2, asr #24
    69c8:	5f5f0031 	svcpl	0x005f0031
    69cc:	00505845 	subseq	r5, r0, r5, asr #16
    69d0:	6e69614d 	powvsem	f6, f1, #5.0
    69d4:	5f00734f 	svcpl	0x0000734f
    69d8:	6e695f5f 	mcrvs	15, 3, r5, cr9, cr15, {2}
    69dc:	5f343674 	svcpl	0x00343674
    69e0:	65645f74 	strbvs	r5, [r4, #-3956]!	; 0xfffff08c
    69e4:	656e6966 	strbvs	r6, [lr, #-2406]!	; 0xfffff69a
    69e8:	00312064 	eorseq	r2, r1, r4, rrx
    69ec:	444c5f5f 	strbmi	r5, [ip], #-3935	; 0xfffff0a1
    69f0:	485f4c42 	ldmdami	pc, {r1, r6, sl, fp, lr}^	; <UNPREDICTABLE>
    69f4:	445f5341 	ldrbmi	r5, [pc], #-833	; 69fc <_Min_Stack_Size+0x65fc>
    69f8:	524f4e45 	subpl	r4, pc, #1104	; 0x450
    69fc:	205f5f4d 	subscs	r5, pc, sp, asr #30
    6a00:	564e0031 			; <UNDEFINED> instruction: 0x564e0031
    6a04:	455f4349 	ldrbmi	r4, [pc, #-841]	; 66c3 <_Min_Stack_Size+0x62c3>
    6a08:	32495458 	subcc	r5, r9, #88, 8	; 0x58000000
    6a0c:	5152495f 	cmppl	r2, pc, asr r9
    6a10:	7369445f 	cmnvc	r9, #1593835520	; 0x5f000000
    6a14:	656c6261 	strbvs	r6, [ip, #-609]!	; 0xfffffd9f
    6a18:	564e2820 	strbpl	r2, [lr], -r0, lsr #16
    6a1c:	495f4349 	ldmdbmi	pc, {r0, r3, r6, r8, r9, lr}^	; <UNPREDICTABLE>
    6a20:	30524543 	subscc	r4, r2, r3, asr #10
    6a24:	203d7c20 	eorscs	r7, sp, r0, lsr #24
    6a28:	383c3c31 	ldmdacc	ip!, {r0, r4, r5, sl, fp, ip, sp}
    6a2c:	41550029 	cmpmi	r5, r9, lsr #32
    6a30:	495f5452 	ldmdbmi	pc, {r1, r4, r6, sl, ip, lr}^	; <UNPREDICTABLE>
    6a34:	6e5f5152 	mrcvs	1, 2, r5, cr15, cr2, {2}
    6a38:	20656e6f 	rsbcs	r6, r5, pc, ror #28
    6a3c:	6e697528 	cdpvs	5, 6, cr7, cr9, cr8, {1}
    6a40:	5f323374 	svcpl	0x00323374
    6a44:	00302974 	eorseq	r2, r0, r4, ror r9
    6a48:	31425041 	cmpcc	r2, r1, asr #32
    6a4c:	52545352 	subspl	r5, r4, #1207959553	; 0x48000001
    6a50:	415f5f00 	cmpmi	pc, r0, lsl #30
    6a54:	4d554343 	ldclmi	3, cr4, [r5, #-268]	; 0xfffffef4
    6a58:	4e494d5f 	mcrmi	13, 2, r4, cr9, cr15, {2}
    6a5c:	28205f5f 	stmdacs	r0!, {r0, r1, r2, r3, r4, r6, r8, r9, sl, fp, ip, lr}
    6a60:	3158302d 	cmpcc	r8, sp, lsr #32
    6a64:	4b353150 	blmi	d52fac <_Min_Stack_Size+0xd52bac>
    6a68:	3158302d 	cmpcc	r8, sp, lsr #32
    6a6c:	4b353150 	blmi	d52fb4 <_Min_Stack_Size+0xd52bb4>
    6a70:	5f5f0029 	svcpl	0x005f0029
    6a74:	43554e47 	cmpmi	r5, #1136	; 0x470
    6a78:	5f41565f 	svcpl	0x0041565f
    6a7c:	5453494c 	ldrbpl	r4, [r3], #-2380	; 0xfffff6b4
    6a80:	4d4f435f 	stclmi	3, cr4, [pc, #-380]	; 690c <_Min_Stack_Size+0x650c>
    6a84:	49544150 	ldmdbmi	r4, {r4, r6, r8, lr}^
    6a88:	494c4942 	stmdbmi	ip, {r1, r6, r8, fp, lr}^
    6a8c:	31205954 			; <UNDEFINED> instruction: 0x31205954
    6a90:	415f5f00 	cmpmi	pc, r0, lsl #30
    6a94:	465f4d52 			; <UNDEFINED> instruction: 0x465f4d52
    6a98:	55544145 	ldrbpl	r4, [r4, #-325]	; 0xfffffebb
    6a9c:	435f4552 	cmpmi	pc, #343932928	; 0x14800000
    6aa0:	54505952 	ldrbpl	r5, [r0], #-2386	; 0xfffff6ae
    6aa4:	5f5f004f 	svcpl	0x005f004f
    6aa8:	455a4953 	ldrbmi	r4, [sl, #-2387]	; 0xfffff6ad
    6aac:	575f464f 	ldrbpl	r4, [pc, -pc, asr #12]
    6ab0:	52414843 	subpl	r4, r1, #4390912	; 0x430000
    6ab4:	5f5f545f 	svcpl	0x005f545f
    6ab8:	41003420 	tstmi	r0, r0, lsr #8
    6abc:	45314250 	ldrmi	r4, [r1, #-592]!	; 0xfffffdb0
    6ac0:	5f00524e 	svcpl	0x0000524e
    6ac4:	53505f45 	cmppl	r0, #276	; 0x114
    6ac8:	41545f50 	cmpmi	r4, r0, asr pc
    6acc:	5f455f00 	svcpl	0x00455f00
    6ad0:	5f505350 	svcpl	0x00505350
    6ad4:	45004254 	strmi	r4, [r0, #-596]	; 0xfffffdac
    6ad8:	34495458 	strbcc	r5, [r9], #-1112	; 0xfffffba8
    6adc:	5152495f 	cmppl	r2, pc, asr r9
    6ae0:	00303120 	eorseq	r3, r0, r0, lsr #2
    6ae4:	4349564e 	movtmi	r5, #38478	; 0x964e
    6ae8:	5458455f 	ldrbpl	r4, [r8], #-1375	; 0xfffffaa1
    6aec:	495f3149 	ldmdbmi	pc, {r0, r3, r6, r8, ip, sp}^	; <UNPREDICTABLE>
    6af0:	445f5152 	ldrbmi	r5, [pc], #-338	; 6af8 <_Min_Stack_Size+0x66f8>
    6af4:	62617369 	rsbvs	r7, r1, #-1543503871	; 0xa4000001
    6af8:	2820656c 	stmdacs	r0!, {r2, r3, r5, r6, r8, sl, sp, lr}
    6afc:	4349564e 	movtmi	r5, #38478	; 0x964e
    6b00:	4543495f 	strbmi	r4, [r3, #-2399]	; 0xfffff6a1
    6b04:	7c203052 	stcvc	0, cr3, [r0], #-328	; 0xfffffeb8
    6b08:	3c31203d 	ldccc	0, cr2, [r1], #-244	; 0xffffff0c
    6b0c:	0029373c 	eoreq	r3, r9, ip, lsr r7
    6b10:	49545845 	ldmdbmi	r4, {r0, r2, r6, fp, ip, lr}^
    6b14:	37445037 	smlaldxcc	r5, r4, r7, r0
    6b18:	58452820 	stmdapl	r5, {r5, fp, sp}^
    6b1c:	475f4954 			; <UNDEFINED> instruction: 0x475f4954
    6b20:	5f4f4950 	svcpl	0x004f4950
    6b24:	7070614d 	rsbsvc	r6, r0, sp, asr #2
    6b28:	5f676e69 	svcpl	0x00676e69
    6b2c:	457b2974 	ldrbmi	r2, [fp, #-2420]!	; 0xfffff68c
    6b30:	37495458 	smlsldcc	r5, r9, r8, r4
    6b34:	5047202c 	subpl	r2, r7, ip, lsr #32
    6b38:	2c444f49 	mcrrcs	15, 4, r4, r4, cr9
    6b3c:	49504720 	ldmdbmi	r0, {r5, r8, r9, sl, lr}^
    6b40:	49505f4f 	ldmdbmi	r0, {r0, r1, r2, r3, r6, r8, r9, sl, fp, ip, lr}^
    6b44:	2c375f4e 	ldccs	15, cr5, [r7], #-312	; 0xfffffec8
    6b48:	54584520 	ldrbpl	r4, [r8], #-1312	; 0xfffffae0
    6b4c:	495f3749 	ldmdbmi	pc, {r0, r3, r6, r8, r9, sl, ip, sp}^	; <UNPREDICTABLE>
    6b50:	007d5152 	rsbseq	r5, sp, r2, asr r1
    6b54:	49555f5f 	ldmdbmi	r5, {r0, r1, r2, r3, r4, r6, r8, r9, sl, fp, ip, lr}^
    6b58:	4c5f544e 	cfldrdmi	mvd5, [pc], {78}	; 0x4e
    6b5c:	54534145 	ldrbpl	r4, [r3], #-325	; 0xfffffebb
    6b60:	4d5f3436 	cfldrdmi	mvd3, [pc, #-216]	; 6a90 <_Min_Stack_Size+0x6690>
    6b64:	5f5f5841 	svcpl	0x005f5841
    6b68:	66783020 	ldrbtvs	r3, [r8], -r0, lsr #32
    6b6c:	66666666 	strbtvs	r6, [r6], -r6, ror #12
    6b70:	66666666 	strbtvs	r6, [r6], -r6, ror #12
    6b74:	66666666 	strbtvs	r6, [r6], -r6, ror #12
    6b78:	55666666 	strbpl	r6, [r6, #-1638]!	; 0xfffff99a
    6b7c:	5f004c4c 	svcpl	0x00004c4c
    6b80:	4152465f 	cmpmi	r2, pc, asr r6
    6b84:	495f5443 	ldmdbmi	pc, {r0, r1, r6, sl, ip, lr}^	; <UNPREDICTABLE>
    6b88:	5f544942 	svcpl	0x00544942
    6b8c:	0030205f 	eorseq	r2, r0, pc, asr r0
    6b90:	49545845 	ldmdbmi	r4, {r0, r2, r6, fp, ip, lr}^
    6b94:	495f3131 	ldmdbmi	pc, {r0, r4, r5, r8, ip, sp}^	; <UNPREDICTABLE>
    6b98:	34205152 	strtcc	r5, [r0], #-338	; 0xfffffeae
    6b9c:	5f5f0030 	svcpl	0x005f0030
    6ba0:	5f544e49 	svcpl	0x00544e49
    6ba4:	54444957 	strbpl	r4, [r4], #-2391	; 0xfffff6a9
    6ba8:	205f5f48 	subscs	r5, pc, r8, asr #30
    6bac:	5f003233 	svcpl	0x00003233
    6bb0:	57454e5f 	smlsldpl	r4, r5, pc, lr	; <UNPREDICTABLE>
    6bb4:	5f42494c 	svcpl	0x0042494c
    6bb8:	43544150 	cmpmi	r4, #80, 2
    6bbc:	56454c48 	strbpl	r4, [r5], -r8, asr #24
    6bc0:	5f5f4c45 	svcpl	0x005f4c45
    6bc4:	5f003020 	svcpl	0x00003020
    6bc8:	636f6c5f 	cmnvs	pc, #24320	; 0x5f00
    6bcc:	63615f6b 	cmnvs	r1, #428	; 0x1ac
    6bd0:	72697571 	rsbvc	r7, r9, #473956352	; 0x1c400000
    6bd4:	6f6c2865 	svcvs	0x006c2865
    6bd8:	20296b63 	eorcs	r6, r9, r3, ror #22
    6bdc:	65725f5f 	ldrbvs	r5, [r2, #-3935]!	; 0xfffff0a1
    6be0:	67726174 			; <UNDEFINED> instruction: 0x67726174
    6be4:	6c5f7465 	cfldrdvs	mvd7, [pc], {101}	; 0x65
    6be8:	5f6b636f 	svcpl	0x006b636f
    6bec:	75716361 	ldrbvc	r6, [r1, #-865]!	; 0xfffffc9f
    6bf0:	28657269 	stmdacs	r5!, {r0, r3, r5, r6, r9, ip, sp, lr}^
    6bf4:	6b636f6c 	blvs	18e29ac <_Min_Stack_Size+0x18e25ac>
    6bf8:	5f5f0029 	svcpl	0x005f0029
    6bfc:	4544524f 	strbmi	r5, [r4, #-591]	; 0xfffffdb1
    6c00:	494c5f52 	stmdbmi	ip, {r1, r4, r6, r8, r9, sl, fp, ip, lr}^
    6c04:	454c5454 	strbmi	r5, [ip, #-1108]	; 0xfffffbac
    6c08:	444e455f 	strbmi	r4, [lr], #-1375	; 0xfffffaa1
    6c0c:	5f4e4149 	svcpl	0x004e4149
    6c10:	3231205f 	eorscc	r2, r1, #95	; 0x5f
    6c14:	5f003433 	svcpl	0x00003433
    6c18:	7a69735f 	bvc	1a6399c <_Min_Stack_Size+0x1a6359c>
    6c1c:	00745f65 	rsbseq	r5, r4, r5, ror #30
    6c20:	49545845 	ldmdbmi	r4, {r0, r2, r6, fp, ip, lr}^
    6c24:	41503331 	cmpmi	r0, r1, lsr r3
    6c28:	28203331 	stmdacs	r0!, {r0, r4, r5, r8, r9, ip, sp}
    6c2c:	49545845 	ldmdbmi	r4, {r0, r2, r6, fp, ip, lr}^
    6c30:	4950475f 	ldmdbmi	r0, {r0, r1, r2, r3, r4, r6, r8, r9, sl, lr}^
    6c34:	614d5f4f 	cmpvs	sp, pc, asr #30
    6c38:	6e697070 	mcrvs	0, 3, r7, cr9, cr0, {3}
    6c3c:	29745f67 	ldmdbcs	r4!, {r0, r1, r2, r5, r6, r8, r9, sl, fp, ip, lr}^
    6c40:	5458457b 	ldrbpl	r4, [r8], #-1403	; 0xfffffa85
    6c44:	2c333149 	ldfcss	f3, [r3], #-292	; 0xfffffedc
    6c48:	49504720 	ldmdbmi	r0, {r5, r8, r9, sl, lr}^
    6c4c:	202c414f 	eorcs	r4, ip, pc, asr #2
    6c50:	4f495047 	svcmi	0x00495047
    6c54:	4e49505f 	mcrmi	0, 2, r5, cr9, cr15, {2}
    6c58:	2c33315f 	ldfcss	f3, [r3], #-380	; 0xfffffe84
    6c5c:	54584520 	ldrbpl	r4, [r8], #-1312	; 0xfffffae0
    6c60:	5f333149 	svcpl	0x00333149
    6c64:	7d515249 	lfmvc	f5, 2, [r1, #-292]	; 0xfffffedc
    6c68:	465f5f00 	ldrbmi	r5, [pc], -r0, lsl #30
    6c6c:	4e5f544c 	cdpmi	4, 5, cr5, cr15, cr12, {2}
    6c70:	5f4d524f 	svcpl	0x004d524f
    6c74:	5f58414d 	svcpl	0x0058414d
    6c78:	2e33205f 	mrccs	0, 1, r2, cr3, cr15, {2}
    6c7c:	38323034 	ldmdacc	r2!, {r2, r4, r5, ip, sp}
    6c80:	36343332 			; <UNDEFINED> instruction: 0x36343332
    6c84:	35383336 	ldrcc	r3, [r8, #-822]!	; 0xfffffcca
    6c88:	36383832 			; <UNDEFINED> instruction: 0x36383832
    6c8c:	38332b65 	ldmdacc	r3!, {r0, r2, r5, r6, r8, r9, fp, sp}
    6c90:	5f5f0046 	svcpl	0x005f0046
    6c94:	53544f44 	cmppl	r4, #68, 30	; 0x110
    6c98:	2e202c20 	cdpcs	12, 2, cr2, cr0, cr0, {1}
    6c9c:	5f002e2e 	svcpl	0x00002e2e
    6ca0:	4e454552 	mcrmi	5, 2, r4, cr5, cr2, {2}
    6ca4:	45475f54 	strbmi	r5, [r7, #-3924]	; 0xfffff0ac
    6ca8:	54414454 	strbpl	r4, [r1], #-1108	; 0xfffffbac
    6cac:	52455f45 	subpl	r5, r5, #276	; 0x114
    6cb0:	28505f52 	ldmdacs	r0, {r1, r4, r6, r8, r9, sl, fp, ip, lr}^
    6cb4:	29727470 	ldmdbcs	r2!, {r4, r5, r6, sl, ip, sp, lr}^
    6cb8:	28262820 	stmdacs	r6!, {r5, fp, sp}
    6cbc:	72747028 	rsbsvc	r7, r4, #40	; 0x28
    6cc0:	5f3e2d29 	svcpl	0x003e2d29
    6cc4:	6373696d 	cmnvs	r3, #1785856	; 0x1b4000
    6cc8:	675f3e2d 	ldrbvs	r3, [pc, -sp, lsr #28]
    6ccc:	61647465 	cmnvs	r4, r5, ror #8
    6cd0:	655f6574 	ldrbvs	r6, [pc, #-1396]	; 6764 <_Min_Stack_Size+0x6364>
    6cd4:	29297272 	stmdbcs	r9!, {r1, r4, r5, r6, r9, ip, sp, lr}
    6cd8:	465f5f00 	ldrbmi	r5, [pc], -r0, lsl #30
    6cdc:	4d5f544c 	cfldrdmi	mvd5, [pc, #-304]	; 6bb4 <_Min_Stack_Size+0x67b4>
    6ce0:	315f4e49 	cmpcc	pc, r9, asr #28
    6ce4:	58455f30 	stmdapl	r5, {r4, r5, r8, r9, sl, fp, ip, lr}^
    6ce8:	205f5f50 	subscs	r5, pc, r0, asr pc	; <UNPREDICTABLE>
    6cec:	37332d28 	ldrcc	r2, [r3, -r8, lsr #26]!
    6cf0:	53480029 	movtpl	r0, #32809	; 0x8029
    6cf4:	72665f45 	rsbvc	r5, r6, #276	; 0x114
    6cf8:	31207165 			; <UNDEFINED> instruction: 0x31207165
    6cfc:	00303036 	eorseq	r3, r0, r6, lsr r0
    6d00:	54524155 	ldrbpl	r4, [r2], #-341	; 0xfffffeab
    6d04:	5152495f 	cmppl	r2, pc, asr r9
    6d08:	2043545f 	subcs	r5, r3, pc, asr r4
    6d0c:	6e697528 	cdpvs	5, 6, cr7, cr9, cr8, {1}
    6d10:	5f323374 	svcpl	0x00323374
    6d14:	31282974 			; <UNDEFINED> instruction: 0x31282974
    6d18:	29363c3c 	ldmdbcs	r6!, {r2, r3, r4, r5, sl, fp, ip, sp}
    6d1c:	555f5f00 	ldrbpl	r5, [pc, #-3840]	; 5e24 <_Min_Stack_Size+0x5a24>
    6d20:	4343414c 	movtmi	r4, #12620	; 0x314c
    6d24:	495f4d55 	ldmdbmi	pc, {r0, r2, r4, r6, r8, sl, fp, lr}^	; <UNPREDICTABLE>
    6d28:	5f544942 	svcpl	0x00544942
    6d2c:	3233205f 	eorscc	r2, r3, #95	; 0x5f
    6d30:	535f5f00 	cmppl	pc, #0, 30
    6d34:	5f545248 	svcpl	0x00545248
    6d38:	5f58414d 	svcpl	0x0058414d
    6d3c:	7830205f 	ldmdavc	r0!, {r0, r1, r2, r3, r4, r6, sp}
    6d40:	66666637 			; <UNDEFINED> instruction: 0x66666637
    6d44:	4e495500 	cdpmi	5, 4, cr5, cr9, cr0, {0}
    6d48:	41465f54 	cmpmi	r6, r4, asr pc
    6d4c:	5f385453 	svcpl	0x00385453
    6d50:	2058414d 	subscs	r4, r8, sp, asr #2
    6d54:	555f5f28 	ldrbpl	r5, [pc, #-3880]	; 5e34 <_Min_Stack_Size+0x5a34>
    6d58:	5f544e49 	svcpl	0x00544e49
    6d5c:	54534146 	ldrbpl	r4, [r3], #-326	; 0xfffffeba
    6d60:	414d5f38 	cmpmi	sp, r8, lsr pc
    6d64:	295f5f58 	ldmdbcs	pc, {r3, r4, r6, r8, r9, sl, fp, ip, lr}^	; <UNPREDICTABLE>
    6d68:	555f5f00 	ldrbpl	r5, [pc, #-3840]	; 5e70 <_Min_Stack_Size+0x5a70>
    6d6c:	43414c4c 	movtmi	r4, #7244	; 0x1c4c
    6d70:	5f4d5543 	svcpl	0x004d5543
    6d74:	49535045 	ldmdbmi	r3, {r0, r2, r6, ip, lr}^
    6d78:	5f4e4f4c 	svcpl	0x004e4f4c
    6d7c:	7830205f 	ldmdavc	r0!, {r0, r1, r2, r3, r4, r6, sp}
    6d80:	332d5031 			; <UNDEFINED> instruction: 0x332d5031
    6d84:	4c4c5532 	cfstr64mi	mvdx5, [ip], {50}	; 0x32
    6d88:	535f004b 	cmppl	pc, #75	; 0x4b
    6d8c:	5f455a49 	svcpl	0x00455a49
    6d90:	45445f54 	strbmi	r5, [r4, #-3924]	; 0xfffff0ac
    6d94:	454e4946 	strbmi	r4, [lr, #-2374]	; 0xfffff6ba
    6d98:	5f002044 	svcpl	0x00002044
    6d9c:	5f51445f 	svcpl	0x0051445f
    6da0:	54494246 	strbpl	r4, [r9], #-582	; 0xfffffdba
    6da4:	36205f5f 	qsaxcc	r5, r0, pc	; <UNPREDICTABLE>
    6da8:	5f5f0033 	svcpl	0x005f0033
    6dac:	5f554e47 	svcpl	0x00554e47
    6db0:	49534956 	ldmdbmi	r3, {r1, r2, r4, r6, r8, fp, lr}^
    6db4:	20454c42 	subcs	r4, r5, r2, asr #24
    6db8:	58450030 	stmdapl	r5, {r4, r5}^
    6dbc:	50374954 	eorspl	r4, r7, r4, asr r9
    6dc0:	28203741 	stmdacs	r0!, {r0, r6, r8, r9, sl, ip, sp}
    6dc4:	49545845 	ldmdbmi	r4, {r0, r2, r6, fp, ip, lr}^
    6dc8:	4950475f 	ldmdbmi	r0, {r0, r1, r2, r3, r4, r6, r8, r9, sl, lr}^
    6dcc:	614d5f4f 	cmpvs	sp, pc, asr #30
    6dd0:	6e697070 	mcrvs	0, 3, r7, cr9, cr0, {3}
    6dd4:	29745f67 	ldmdbcs	r4!, {r0, r1, r2, r5, r6, r8, r9, sl, fp, ip, lr}^
    6dd8:	5458457b 	ldrbpl	r4, [r8], #-1403	; 0xfffffa85
    6ddc:	202c3749 	eorcs	r3, ip, r9, asr #14
    6de0:	4f495047 	svcmi	0x00495047
    6de4:	47202c41 	strmi	r2, [r0, -r1, asr #24]!
    6de8:	5f4f4950 	svcpl	0x004f4950
    6dec:	5f4e4950 	svcpl	0x004e4950
    6df0:	45202c37 	strmi	r2, [r0, #-3127]!	; 0xfffff3c9
    6df4:	37495458 	smlsldcc	r5, r9, r8, r4
    6df8:	5152495f 	cmppl	r2, pc, asr r9
    6dfc:	5f5f007d 	svcpl	0x005f007d
    6e00:	43434153 	movtmi	r4, #12627	; 0x3153
    6e04:	495f4d55 	ldmdbmi	pc, {r0, r2, r4, r6, r8, sl, fp, lr}^	; <UNPREDICTABLE>
    6e08:	5f544942 	svcpl	0x00544942
    6e0c:	0038205f 	eorseq	r2, r8, pc, asr r0
    6e10:	54505f5f 	ldrbpl	r5, [r0], #-3935	; 0xfffff0a1
    6e14:	46494452 			; <UNDEFINED> instruction: 0x46494452
    6e18:	20545f46 	subscs	r5, r4, r6, asr #30
    6e1c:	555f5f00 	ldrbpl	r5, [pc, #-3840]	; 5f24 <_Min_Stack_Size+0x5b24>
    6e20:	495f5148 	ldmdbmi	pc, {r3, r6, r8, ip, lr}^	; <UNPREDICTABLE>
    6e24:	5f544942 	svcpl	0x00544942
    6e28:	0030205f 	eorseq	r2, r0, pc, asr r0
    6e2c:	54524155 	ldrbpl	r4, [r2], #-341	; 0xfffffeab
    6e30:	28282034 	stmdacs	r8!, {r2, r4, r5, sp}
    6e34:	52415355 	subpl	r5, r1, #1409286145	; 0x54000001
    6e38:	79545f54 	ldmdbvc	r4, {r2, r4, r6, r8, r9, sl, fp, ip, lr}^
    6e3c:	65646570 	strbvs	r6, [r4, #-1392]!	; 0xfffffa90
    6e40:	292a2066 	stmdbcs	sl!, {r1, r2, r5, r6, sp}
    6e44:	54524155 	ldrbpl	r4, [r2], #-341	; 0xfffffeab
    6e48:	41425f34 	cmpmi	r2, r4, lsr pc
    6e4c:	00294553 	eoreq	r4, r9, r3, asr r5
    6e50:	43475f5f 	movtmi	r5, #32607	; 0x7f5f
    6e54:	41485f43 	cmpmi	r8, r3, asr #30
    6e58:	535f4556 	cmppl	pc, #360710144	; 0x15800000
    6e5c:	5f434e59 	svcpl	0x00434e59
    6e60:	504d4f43 	subpl	r4, sp, r3, asr #30
    6e64:	5f455241 	svcpl	0x00455241
    6e68:	5f444e41 	svcpl	0x00444e41
    6e6c:	50415753 	subpl	r5, r1, r3, asr r7
    6e70:	3120345f 			; <UNDEFINED> instruction: 0x3120345f
    6e74:	495f5f00 	ldmdbmi	pc, {r8, r9, sl, fp, ip, lr}^	; <UNPREDICTABLE>
    6e78:	465f544e 	ldrbmi	r5, [pc], -lr, asr #8
    6e7c:	31545341 	cmpcc	r4, r1, asr #6
    6e80:	59545f36 	ldmdbpl	r4, {r1, r2, r4, r5, r8, r9, sl, fp, ip, lr}^
    6e84:	5f5f4550 	svcpl	0x005f4550
    6e88:	746e6920 	strbtvc	r6, [lr], #-2336	; 0xfffff6e0
    6e8c:	73615400 	cmnvc	r1, #0, 8
    6e90:	735f416b 	cmpvc	pc, #-1073741798	; 0xc000001a
    6e94:	6b636174 	blvs	18df46c <_Min_Stack_Size+0x18df06c>
    6e98:	7a69735f 	bvc	1a63c1c <_Min_Stack_Size+0x1a6381c>
    6e9c:	30312065 	eorscc	r2, r1, r5, rrx
    6ea0:	555f0030 	ldrbpl	r0, [pc, #-48]	; 6e78 <_Min_Stack_Size+0x6a78>
    6ea4:	4d544e49 	ldclmi	14, cr4, [r4, #-292]	; 0xfffffedc
    6ea8:	545f5841 	ldrbpl	r5, [pc], #-2113	; 6eb0 <_Min_Stack_Size+0x6ab0>
    6eac:	4345445f 	movtmi	r4, #21599	; 0x545f
    6eb0:	4552414c 	ldrbmi	r4, [r2, #-332]	; 0xfffffeb4
    6eb4:	5f002044 	svcpl	0x00002044
    6eb8:	4749535f 	smlsldmi	r5, r9, pc, r3	; <UNPREDICTABLE>
    6ebc:	4f54415f 	svcmi	0x0054415f
    6ec0:	5f43494d 	svcpl	0x0043494d
    6ec4:	45505954 	ldrbmi	r5, [r0, #-2388]	; 0xfffff6ac
    6ec8:	69205f5f 	stmdbvs	r0!, {r0, r1, r2, r3, r4, r6, r8, r9, sl, fp, ip, lr}
    6ecc:	5f00746e 	svcpl	0x0000746e
    6ed0:	4341535f 	movtmi	r5, #4959	; 0x135f
    6ed4:	5f4d5543 	svcpl	0x004d5543
    6ed8:	5f4e494d 	svcpl	0x004e494d
    6edc:	2d28205f 	stccs	0, cr2, [r8, #-380]!	; 0xfffffe84
    6ee0:	50315830 	eorspl	r5, r1, r0, lsr r8
    6ee4:	2d4b4837 	stclcs	8, cr4, [fp, #-220]	; 0xffffff24
    6ee8:	50315830 	eorspl	r5, r1, r0, lsr r8
    6eec:	294b4837 	stmdbcs	fp, {r0, r1, r2, r4, r5, fp, lr}^
    6ef0:	555f5f00 	ldrbpl	r5, [pc, #-3840]	; 5ff8 <_Min_Stack_Size+0x5bf8>
    6ef4:	4152464c 	cmpmi	r2, ip, asr #12
    6ef8:	4d5f5443 	cfldrdmi	mvd5, [pc, #-268]	; 6df4 <_Min_Stack_Size+0x69f4>
    6efc:	5f5f5841 	svcpl	0x005f5841
    6f00:	46583020 	ldrbmi	r3, [r8], -r0, lsr #32
    6f04:	46464646 	strbmi	r4, [r6], -r6, asr #12
    6f08:	50464646 	subpl	r4, r6, r6, asr #12
    6f0c:	5532332d 	ldrpl	r3, [r2, #-813]!	; 0xfffffcd3
    6f10:	5f00524c 	svcpl	0x0000524c
    6f14:	4e49555f 	mcrmi	5, 2, r5, cr9, cr15, {2}
    6f18:	454c5f54 	strbmi	r5, [ip, #-3924]	; 0xfffff0ac
    6f1c:	31545341 	cmpcc	r4, r1, asr #6
    6f20:	59545f36 	ldmdbpl	r4, {r1, r2, r4, r5, r8, r9, sl, fp, ip, lr}^
    6f24:	5f5f4550 	svcpl	0x005f4550
    6f28:	6f687320 	svcvs	0x00687320
    6f2c:	75207472 	strvc	r7, [r0, #-1138]!	; 0xfffffb8e
    6f30:	6769736e 	strbvs	r7, [r9, -lr, ror #6]!
    6f34:	2064656e 	rsbcs	r6, r4, lr, ror #10
    6f38:	00746e69 	rsbseq	r6, r4, r9, ror #28
    6f3c:	52415f5f 	subpl	r5, r1, #380	; 0x17c
    6f40:	45465f4d 	strbmi	r5, [r6, #-3917]	; 0xfffff0b3
    6f44:	52555441 	subspl	r5, r5, #1090519040	; 0x41000000
    6f48:	4d465f45 	stclmi	15, cr5, [r6, #-276]	; 0xfffffeec
    6f4c:	5f5f0041 	svcpl	0x005f0041
    6f50:	4343414c 	movtmi	r4, #12620	; 0x314c
    6f54:	4d5f4d55 	ldclmi	13, cr4, [pc, #-340]	; 6e08 <_Min_Stack_Size+0x6a08>
    6f58:	5f5f5841 	svcpl	0x005f5841
    6f5c:	37583020 	ldrbcc	r3, [r8, -r0, lsr #32]
    6f60:	46464646 	strbmi	r4, [r6], -r6, asr #12
    6f64:	46464646 	strbmi	r4, [r6], -r6, asr #12
    6f68:	46464646 	strbmi	r4, [r6], -r6, asr #12
    6f6c:	50464646 	subpl	r4, r6, r6, asr #12
    6f70:	4c31332d 	ldcmi	3, cr3, [r1], #-180	; 0xffffff4c
    6f74:	5f5f004b 	svcpl	0x005f004b
    6f78:	52414843 	subpl	r4, r1, #4390912	; 0x430000
    6f7c:	545f3631 	ldrbpl	r3, [pc], #-1585	; 6f84 <_Min_Stack_Size+0x6b84>
    6f80:	5f455059 	svcpl	0x00455059
    6f84:	6873205f 	ldmdavs	r3!, {r0, r1, r2, r3, r4, r6, sp}^
    6f88:	2074726f 	rsbscs	r7, r4, pc, ror #4
    6f8c:	69736e75 	ldmdbvs	r3!, {r0, r2, r4, r5, r6, r9, sl, fp, sp, lr}^
    6f90:	64656e67 	strbtvs	r6, [r5], #-3687	; 0xfffff199
    6f94:	746e6920 	strbtvc	r6, [lr], #-2336	; 0xfffff6e0
    6f98:	54584500 	ldrbpl	r4, [r8], #-1280	; 0xfffffb00
    6f9c:	50313149 	eorspl	r3, r1, r9, asr #2
    6fa0:	20313141 	eorscs	r3, r1, r1, asr #2
    6fa4:	54584528 	ldrbpl	r4, [r8], #-1320	; 0xfffffad8
    6fa8:	50475f49 	subpl	r5, r7, r9, asr #30
    6fac:	4d5f4f49 	ldclmi	15, cr4, [pc, #-292]	; 6e90 <_Min_Stack_Size+0x6a90>
    6fb0:	69707061 	ldmdbvs	r0!, {r0, r5, r6, ip, sp, lr}^
    6fb4:	745f676e 	ldrbvc	r6, [pc], #-1902	; 6fbc <_Min_Stack_Size+0x6bbc>
    6fb8:	58457b29 	stmdapl	r5, {r0, r3, r5, r8, r9, fp, ip, sp, lr}^
    6fbc:	31314954 	teqcc	r1, r4, asr r9
    6fc0:	5047202c 	subpl	r2, r7, ip, lsr #32
    6fc4:	2c414f49 	mcrrcs	15, 4, r4, r1, cr9
    6fc8:	49504720 	ldmdbmi	r0, {r5, r8, r9, sl, lr}^
    6fcc:	49505f4f 	ldmdbmi	r0, {r0, r1, r2, r3, r6, r8, r9, sl, fp, ip, lr}^
    6fd0:	31315f4e 	teqcc	r1, lr, asr #30
    6fd4:	5845202c 	stmdapl	r5, {r2, r3, r5, sp}^
    6fd8:	31314954 	teqcc	r1, r4, asr r9
    6fdc:	5152495f 	cmppl	r2, pc, asr r9
    6fe0:	5047007d 	subpl	r0, r7, sp, ror r0
    6fe4:	505f4f49 	subspl	r4, pc, r9, asr #30
    6fe8:	0074726f 	rsbseq	r7, r4, pc, ror #4
    6fec:	4c465f5f 	mcrrmi	15, 5, r5, r6, cr15
    6ff0:	58323354 	ldmdapl	r2!, {r2, r4, r6, r8, r9, ip, sp}
    6ff4:	4749445f 	smlsldmi	r4, r9, pc, r4	; <UNPREDICTABLE>
    6ff8:	31205f5f 			; <UNDEFINED> instruction: 0x31205f5f
    6ffc:	5f5f0035 	svcpl	0x005f0035
    7000:	6e676973 			; <UNDEFINED> instruction: 0x6e676973
    7004:	73206465 			; <UNDEFINED> instruction: 0x73206465
    7008:	656e6769 	strbvs	r6, [lr, #-1897]!	; 0xfffff897
    700c:	5f5f0064 	svcpl	0x005f0064
    7010:	5f515455 	svcpl	0x00515455
    7014:	54494246 	strbpl	r4, [r9], #-582	; 0xfffffdba
    7018:	31205f5f 			; <UNDEFINED> instruction: 0x31205f5f
    701c:	42003832 	andmi	r3, r0, #3276800	; 0x320000
    7020:	52647561 	rsbpl	r7, r4, #406847488	; 0x18400000
    7024:	5f657461 	svcpl	0x00657461
    7028:	30303432 	eorscc	r3, r0, r2, lsr r4
    702c:	30343220 	eorscc	r3, r4, r0, lsr #4
    7030:	5f5f0030 	svcpl	0x005f0030
    7034:	43414c4c 	movtmi	r4, #7244	; 0x1c4c
    7038:	5f4d5543 	svcpl	0x004d5543
    703c:	49535045 	ldmdbmi	r3, {r0, r2, r6, ip, lr}^
    7040:	5f4e4f4c 	svcpl	0x004e4f4c
    7044:	7830205f 	ldmdavc	r0!, {r0, r1, r2, r3, r4, r6, sp}
    7048:	332d5031 			; <UNDEFINED> instruction: 0x332d5031
    704c:	4b4c4c31 	blmi	131a118 <_Min_Stack_Size+0x1319d18>
    7050:	465f5f00 	ldrbmi	r5, [pc], -r0, lsl #30
    7054:	54494e49 	strbpl	r4, [r9], #-3657	; 0xfffff1b7
    7058:	414d5f45 	cmpmi	sp, r5, asr #30
    705c:	4f5f4854 	svcmi	0x005f4854
    7060:	5f594c4e 	svcpl	0x00594c4e
    7064:	0030205f 	eorseq	r2, r0, pc, asr r0
    7068:	64756142 	ldrbtvs	r6, [r5], #-322	; 0xfffffebe
    706c:	65746152 	ldrbvs	r6, [r4, #-338]!	; 0xfffffeae
    7070:	3036345f 	eorscc	r3, r6, pc, asr r4
    7074:	20303038 	eorscs	r3, r0, r8, lsr r0
    7078:	38303634 	ldmdacc	r0!, {r2, r4, r5, r9, sl, ip, sp}
    707c:	5f003030 	svcpl	0x00003030
    7080:	544e495f 	strbpl	r4, [lr], #-2399	; 0xfffff6a1
    7084:	5341465f 	movtpl	r4, #5727	; 0x165f
    7088:	5f363154 	svcpl	0x00363154
    708c:	5f58414d 	svcpl	0x0058414d
    7090:	7830205f 	ldmdavc	r0!, {r0, r1, r2, r3, r4, r6, sp}
    7094:	66666637 			; <UNDEFINED> instruction: 0x66666637
    7098:	66666666 	strbtvs	r6, [r6], -r6, ror #12
    709c:	685f5f00 	ldmdavs	pc, {r8, r9, sl, fp, ip, lr}^	; <UNPREDICTABLE>
    70a0:	5f657661 	svcpl	0x00657661
    70a4:	676e6f6c 	strbvs	r6, [lr, -ip, ror #30]!
    70a8:	676e6f6c 	strbvs	r6, [lr, -ip, ror #30]!
    70ac:	31203436 			; <UNDEFINED> instruction: 0x31203436
    70b0:	52415500 	subpl	r5, r1, #0, 10
    70b4:	61505f54 	cmpvs	r0, r4, asr pc
    70b8:	616f6c79 	smcvs	63177	; 0xf6c9
    70bc:	656c5f64 	strbvs	r5, [ip, #-3940]!	; 0xfffff09c
    70c0:	7468676e 	strbtvc	r6, [r8], #-1902	; 0xfffff892
    70c4:	2820395f 	stmdacs	r0!, {r0, r1, r2, r3, r4, r6, r8, fp, ip, sp}
    70c8:	746e6975 	strbtvc	r6, [lr], #-2421	; 0xfffff68b
    70cc:	745f3233 	ldrbvc	r3, [pc], #-563	; 70d4 <_Min_Stack_Size+0x6cd4>
    70d0:	31282029 			; <UNDEFINED> instruction: 0x31282029
    70d4:	32313c3c 	eorscc	r3, r1, #60, 24	; 0x3c00
    70d8:	555f0029 	ldrbpl	r0, [pc, #-41]	; 70b7 <_Min_Stack_Size+0x6cb7>
    70dc:	38544e49 	ldmdacc	r4, {r0, r3, r6, r9, sl, fp, lr}^
    70e0:	445f545f 	ldrbmi	r5, [pc], #-1119	; 70e8 <_Min_Stack_Size+0x6ce8>
    70e4:	414c4345 	cmpmi	ip, r5, asr #6
    70e8:	20444552 	subcs	r4, r4, r2, asr r5
    70ec:	49504700 	ldmdbmi	r0, {r8, r9, sl, lr}^
    70f0:	49505f4f 	ldmdbmi	r0, {r0, r1, r2, r3, r6, r8, r9, sl, fp, ip, lr}^
    70f4:	564e004e 	strbpl	r0, [lr], -lr, asr #32
    70f8:	455f4349 	ldrbmi	r4, [pc, #-841]	; 6db7 <_Min_Stack_Size+0x69b7>
    70fc:	31495458 	cmpcc	r9, r8, asr r4
    7100:	30315f35 	eorscc	r5, r1, r5, lsr pc
    7104:	5152495f 	cmppl	r2, pc, asr r9
    7108:	7369445f 	cmnvc	r9, #1593835520	; 0x5f000000
    710c:	656c6261 	strbvs	r6, [ip, #-609]!	; 0xfffffd9f
    7110:	564e2820 	strbpl	r2, [lr], -r0, lsr #16
    7114:	495f4349 	ldmdbmi	pc, {r0, r3, r6, r8, r9, lr}^	; <UNPREDICTABLE>
    7118:	31524543 	cmpcc	r2, r3, asr #10
    711c:	203d7c20 	eorscs	r7, sp, r0, lsr #24
    7120:	383c3c31 	ldmdacc	ip!, {r0, r4, r5, sl, fp, ip, sp}
    7124:	5f5f0029 	svcpl	0x005f0029
    7128:	6b636f6c 	blvs	18e2ee0 <_Min_Stack_Size+0x18e2ae0>
    712c:	7972745f 	ldmdbvc	r2!, {r0, r1, r2, r3, r4, r6, sl, ip, sp, lr}^
    7130:	7163615f 	cmnvc	r3, pc, asr r1
    7134:	65726975 	ldrbvs	r6, [r2, #-2421]!	; 0xfffff68b
    7138:	636f6c28 	cmnvs	pc, #40, 24	; 0x2800
    713c:	5f20296b 	svcpl	0x0020296b
    7140:	7465725f 	strbtvc	r7, [r5], #-607	; 0xfffffda1
    7144:	65677261 	strbvs	r7, [r7, #-609]!	; 0xfffffd9f
    7148:	6f6c5f74 	svcvs	0x006c5f74
    714c:	745f6b63 	ldrbvc	r6, [pc], #-2915	; 7154 <_Min_Stack_Size+0x6d54>
    7150:	615f7972 	cmpvs	pc, r2, ror r9	; <UNPREDICTABLE>
    7154:	69757163 	ldmdbvs	r5!, {r0, r1, r5, r6, r8, ip, sp, lr}^
    7158:	6c286572 	cfstr32vs	mvfx6, [r8], #-456	; 0xfffffe38
    715c:	296b636f 	stmdbcs	fp!, {r0, r1, r2, r3, r5, r6, r8, r9, sp, lr}^
    7160:	49555f00 	ldmdbmi	r5, {r8, r9, sl, fp, ip, lr}^
    7164:	5450544e 	ldrbpl	r5, [r0], #-1102	; 0xfffffbb2
    7168:	5f545f52 	svcpl	0x00545f52
    716c:	4c434544 	cfstr64mi	mvdx4, [r3], {68}	; 0x44
    7170:	44455241 	strbmi	r5, [r5], #-577	; 0xfffffdbf
    7174:	564e0020 	strbpl	r0, [lr], -r0, lsr #32
    7178:	455f4349 	ldrbmi	r4, [pc, #-841]	; 6e37 <_Min_Stack_Size+0x6a37>
    717c:	30495458 	subcc	r5, r9, r8, asr r4
    7180:	5152495f 	cmppl	r2, pc, asr r9
    7184:	616e455f 	cmnvs	lr, pc, asr r5
    7188:	20656c62 	rsbcs	r6, r5, r2, ror #24
    718c:	49564e28 	ldmdbmi	r6, {r3, r5, r9, sl, fp, lr}^
    7190:	53495f43 	movtpl	r5, #40771	; 0x9f43
    7194:	20305245 	eorscs	r5, r0, r5, asr #4
    7198:	31203d7c 			; <UNDEFINED> instruction: 0x31203d7c
    719c:	29363c3c 	ldmdbcs	r6!, {r2, r3, r4, r5, sl, fp, ip, sp}
    71a0:	54584500 	ldrbpl	r4, [r8], #-1280	; 0xfffffb00
    71a4:	5f353149 	svcpl	0x00353149
    71a8:	20515249 	subscs	r5, r1, r9, asr #4
    71ac:	45003034 	strmi	r3, [r0, #-52]	; 0xffffffcc
    71b0:	30495458 	subcc	r5, r9, r8, asr r4
    71b4:	20304150 	eorscs	r4, r0, r0, asr r1
    71b8:	54584528 	ldrbpl	r4, [r8], #-1320	; 0xfffffad8
    71bc:	50475f49 	subpl	r5, r7, r9, asr #30
    71c0:	4d5f4f49 	ldclmi	15, cr4, [pc, #-292]	; 70a4 <_Min_Stack_Size+0x6ca4>
    71c4:	69707061 	ldmdbvs	r0!, {r0, r5, r6, ip, sp, lr}^
    71c8:	745f676e 	ldrbvc	r6, [pc], #-1902	; 71d0 <_Min_Stack_Size+0x6dd0>
    71cc:	58457b29 	stmdapl	r5, {r0, r3, r5, r8, r9, fp, ip, sp, lr}^
    71d0:	2c304954 			; <UNDEFINED> instruction: 0x2c304954
    71d4:	49504720 	ldmdbmi	r0, {r5, r8, r9, sl, lr}^
    71d8:	202c414f 	eorcs	r4, ip, pc, asr #2
    71dc:	4f495047 	svcmi	0x00495047
    71e0:	4e49505f 	mcrmi	0, 2, r5, cr9, cr15, {2}
    71e4:	202c305f 	eorcs	r3, ip, pc, asr r0
    71e8:	49545845 	ldmdbmi	r4, {r0, r2, r6, fp, ip, lr}^
    71ec:	52495f30 	subpl	r5, r9, #48, 30	; 0xc0
    71f0:	5f007d51 	svcpl	0x00007d51
    71f4:	41484357 	cmpmi	r8, r7, asr r3
    71f8:	5f545f52 	svcpl	0x00545f52
    71fc:	49464544 	stmdbmi	r6, {r2, r6, r8, sl, lr}^
    7200:	2044454e 	subcs	r4, r4, lr, asr #10
    7204:	555f5f00 	ldrbpl	r5, [pc, #-3840]	; 630c <_Min_Stack_Size+0x5f0c>
    7208:	4343414c 	movtmi	r4, #12620	; 0x314c
    720c:	4d5f4d55 	ldclmi	13, cr4, [pc, #-340]	; 70c0 <_Min_Stack_Size+0x6cc0>
    7210:	5f5f5841 	svcpl	0x005f5841
    7214:	46583020 	ldrbmi	r3, [r8], -r0, lsr #32
    7218:	46464646 	strbmi	r4, [r6], -r6, asr #12
    721c:	46464646 	strbmi	r4, [r6], -r6, asr #12
    7220:	46464646 	strbmi	r4, [r6], -r6, asr #12
    7224:	50464646 	subpl	r4, r6, r6, asr #12
    7228:	5532332d 	ldrpl	r3, [r2, #-813]!	; 0xfffffcd3
    722c:	5f004b4c 	svcpl	0x00004b4c
    7230:	7972745f 	ldmdbvc	r2!, {r0, r1, r2, r3, r4, r6, sl, ip, sp, lr}^
    7234:	6b636f6c 	blvs	18e2fec <_Min_Stack_Size+0x18e2bec>
    7238:	78655f73 	stmdavc	r5!, {r0, r1, r4, r5, r6, r8, r9, sl, fp, ip, lr}^
    723c:	73756c63 	cmnvc	r5, #25344	; 0x6300
    7240:	28657669 	stmdacs	r5!, {r0, r3, r5, r6, r9, sl, ip, sp, lr}^
    7244:	292e2e2e 	stmdbcs	lr!, {r1, r2, r3, r5, r9, sl, fp, sp}
    7248:	6c5f5f20 	mrrcvs	15, 2, r5, pc, cr0	; <UNPREDICTABLE>
    724c:	5f6b636f 	svcpl	0x006b636f
    7250:	6f6e6e61 	svcvs	0x006e6e61
    7254:	65746174 	ldrbvs	r6, [r4, #-372]!	; 0xfffffe8c
    7258:	63786528 	cmnvs	r8, #40, 10	; 0xa000000
    725c:	6973756c 	ldmdbvs	r3!, {r2, r3, r5, r6, r8, sl, ip, sp, lr}^
    7260:	745f6576 	ldrbvc	r6, [pc], #-1398	; 7268 <_Min_Stack_Size+0x6e68>
    7264:	6f6c7972 	svcvs	0x006c7972
    7268:	665f6b63 	ldrbvs	r6, [pc], -r3, ror #22
    726c:	74636e75 	strbtvc	r6, [r3], #-3701	; 0xfffff18b
    7270:	286e6f69 	stmdacs	lr!, {r0, r3, r5, r6, r8, r9, sl, fp, sp, lr}^
    7274:	41565f5f 	cmpmi	r6, pc, asr pc
    7278:	4752415f 			; <UNDEFINED> instruction: 0x4752415f
    727c:	295f5f53 	ldmdbcs	pc, {r0, r1, r4, r6, r8, r9, sl, fp, ip, lr}^	; <UNPREDICTABLE>
    7280:	50470029 	subpl	r0, r7, r9, lsr #32
    7284:	505f4f49 	subspl	r4, pc, r9, asr #30
    7288:	315f4e49 	cmpcc	pc, r9, asr #28
    728c:	28282035 	stmdacs	r8!, {r0, r2, r4, r5, sp}
    7290:	746e6975 	strbtvc	r6, [lr], #-2421	; 0xfffff68b
    7294:	745f3631 	ldrbvc	r3, [pc], #-1585	; 729c <_Min_Stack_Size+0x6e9c>
    7298:	78302029 	ldmdavc	r0!, {r0, r3, r5, sp}
    729c:	30303038 	eorscc	r3, r0, r8, lsr r0
    72a0:	525f0029 	subspl	r0, pc, #41	; 0x29
    72a4:	544e4545 	strbpl	r4, [lr], #-1349	; 0xfffffabb
    72a8:	4e41525f 	mcrmi	2, 2, r5, cr1, cr15, {2}
    72ac:	454e5f44 	strbmi	r5, [lr, #-3908]	; 0xfffff0bc
    72b0:	70285458 	eorvc	r5, r8, r8, asr r4
    72b4:	20297274 	eorcs	r7, r9, r4, ror r2
    72b8:	74702828 	ldrbtvc	r2, [r0], #-2088	; 0xfffff7d8
    72bc:	3e2d2972 			; <UNDEFINED> instruction: 0x3e2d2972
    72c0:	3834725f 	ldmdacc	r4!, {r0, r1, r2, r3, r4, r6, r9, ip, sp, lr}
    72c4:	725f3e2d 	subsvc	r3, pc, #720	; 0x2d0
    72c8:	5f646e61 	svcpl	0x00646e61
    72cc:	7478656e 	ldrbtvc	r6, [r8], #-1390	; 0xfffffa92
    72d0:	58450029 	stmdapl	r5, {r0, r3, r5}^
    72d4:	5f304954 	svcpl	0x00304954
    72d8:	20515249 	subscs	r5, r1, r9, asr #4
    72dc:	5f5f0036 	svcpl	0x005f0036
    72e0:	52464c55 	subpl	r4, r6, #21760	; 0x5500
    72e4:	5f544341 	svcpl	0x00544341
    72e8:	5f4e494d 	svcpl	0x004e494d
    72ec:	2e30205f 	mrccs	0, 1, r2, cr0, cr15, {2}
    72f0:	524c5530 	subpl	r5, ip, #48, 10	; 0xc000000
    72f4:	5a495300 	bpl	125befc <_Min_Stack_Size+0x125bafc>
    72f8:	414d5f45 	cmpmi	sp, r5, asr #30
    72fc:	5f282058 	svcpl	0x00282058
    7300:	5a49535f 	bpl	125c084 <_Min_Stack_Size+0x125bc84>
    7304:	414d5f45 	cmpmi	sp, r5, asr #30
    7308:	295f5f58 	ldmdbcs	pc, {r3, r4, r6, r8, r9, sl, fp, ip, lr}^	; <UNPREDICTABLE>
    730c:	445f5f00 	ldrbmi	r5, [pc], #-3840	; 7314 <_Min_Stack_Size+0x6f14>
    7310:	42495f51 	submi	r5, r9, #324	; 0x144
    7314:	5f5f5449 	svcpl	0x005f5449
    7318:	5f003020 	svcpl	0x00003020
    731c:	4d52415f 	ldfmie	f4, [r2, #-380]	; 0xfffffe84
    7320:	3146425f 	cmpcc	r6, pc, asr r2
    7324:	4f465f36 	svcmi	0x00465f36
    7328:	54414d52 	strbpl	r4, [r1], #-3410	; 0xfffff2ae
    732c:	544c415f 	strbpl	r4, [ip], #-351	; 0xfffffea1
    7330:	414e5245 	cmpmi	lr, r5, asr #4
    7334:	45564954 	ldrbmi	r4, [r6, #-2388]	; 0xfffff6ac
    7338:	495f5f00 	ldmdbmi	pc, {r8, r9, sl, fp, ip, lr}^	; <UNPREDICTABLE>
    733c:	3233544e 	eorscc	r5, r3, #1308622848	; 0x4e000000
    7340:	5059545f 	subspl	r5, r9, pc, asr r4
    7344:	205f5f45 	subscs	r5, pc, r5, asr #30
    7348:	676e6f6c 	strbvs	r6, [lr, -ip, ror #30]!
    734c:	746e6920 	strbtvc	r6, [lr], #-2336	; 0xfffff6e0
    7350:	555f5f00 	ldrbpl	r5, [pc, #-3840]	; 6458 <_Min_Stack_Size+0x6058>
    7354:	5f544e49 	svcpl	0x00544e49
    7358:	5341454c 	movtpl	r4, #5452	; 0x154c
    735c:	4d5f3854 	ldclmi	8, cr3, [pc, #-336]	; 7214 <_Min_Stack_Size+0x6e14>
    7360:	5f5f5841 	svcpl	0x005f5841
    7364:	66783020 	ldrbtvs	r3, [r8], -r0, lsr #32
    7368:	5f5f0066 	svcpl	0x005f0066
    736c:	5f504656 	svcpl	0x00504656
    7370:	5f5f5046 	svcpl	0x005f5046
    7374:	5f003120 	svcpl	0x00003120
    7378:	58455441 	stmdapl	r5, {r0, r6, sl, ip, lr}^
    737c:	535f5449 	cmppl	pc, #1224736768	; 0x49000000
    7380:	20455a49 	subcs	r5, r5, r9, asr #20
    7384:	4e003233 	mcrmi	2, 0, r3, cr0, cr3, {1}
    7388:	5f434956 	svcpl	0x00434956
    738c:	31495053 	qdaddcc	r5, r3, r9
    7390:	5152495f 	cmppl	r2, pc, asr r9
    7394:	7369445f 	cmnvc	r9, #1593835520	; 0x5f000000
    7398:	656c6261 	strbvs	r6, [ip, #-609]!	; 0xfffffd9f
    739c:	564e2820 	strbpl	r2, [lr], -r0, lsr #16
    73a0:	495f4349 	ldmdbmi	pc, {r0, r3, r6, r8, r9, lr}^	; <UNPREDICTABLE>
    73a4:	31524543 	cmpcc	r2, r3, asr #10
    73a8:	203d7c20 	eorscs	r7, sp, r0, lsr #24
    73ac:	283c3c31 	ldmdacs	ip!, {r0, r4, r5, sl, fp, ip, sp}
    73b0:	31495053 	qdaddcc	r5, r3, r9
    73b4:	5152495f 	cmppl	r2, pc, asr r9
    73b8:	33202d20 			; <UNDEFINED> instruction: 0x33202d20
    73bc:	00292932 	eoreq	r2, r9, r2, lsr r9
    73c0:	4453425f 	ldrbmi	r4, [r3], #-607	; 0xfffffda1
    73c4:	5a49535f 	bpl	125c148 <_Min_Stack_Size+0x125bd48>
    73c8:	5f545f45 	svcpl	0x00545f45
    73cc:	5f5f0020 	svcpl	0x005f0020
    73d0:	32746e69 	rsbscc	r6, r4, #1680	; 0x690
    73d4:	205f5f30 	subscs	r5, pc, r0, lsr pc	; <UNPREDICTABLE>
    73d8:	4500322b 	strmi	r3, [r0, #-555]	; 0xfffffdd5
    73dc:	31495458 	cmpcc	r9, r8, asr r4
    73e0:	31425030 	cmpcc	r2, r0, lsr r0
    73e4:	45282030 	strmi	r2, [r8, #-48]!	; 0xffffffd0
    73e8:	5f495458 	svcpl	0x00495458
    73ec:	4f495047 	svcmi	0x00495047
    73f0:	70614d5f 	rsbvc	r4, r1, pc, asr sp
    73f4:	676e6970 			; <UNDEFINED> instruction: 0x676e6970
    73f8:	7b29745f 	blvc	a6457c <_Min_Stack_Size+0xa6417c>
    73fc:	49545845 	ldmdbmi	r4, {r0, r2, r6, fp, ip, lr}^
    7400:	202c3031 	eorcs	r3, ip, r1, lsr r0
    7404:	4f495047 	svcmi	0x00495047
    7408:	47202c42 	strmi	r2, [r0, -r2, asr #24]!
    740c:	5f4f4950 	svcpl	0x004f4950
    7410:	5f4e4950 	svcpl	0x004e4950
    7414:	202c3031 	eorcs	r3, ip, r1, lsr r0
    7418:	49545845 	ldmdbmi	r4, {r0, r2, r6, fp, ip, lr}^
    741c:	495f3031 	ldmdbmi	pc, {r0, r4, r5, ip, sp}^	; <UNPREDICTABLE>
    7420:	007d5152 	rsbseq	r5, sp, r2, asr r1
    7424:	6f6e5f5f 	svcvs	0x006e5f5f
    7428:	636f6c5f 	cmnvs	pc, #24320	; 0x5f00
    742c:	6e615f6b 	cdpvs	15, 6, cr5, cr1, cr11, {3}
    7430:	73796c61 	cmnvc	r9, #24832	; 0x6100
    7434:	5f207369 	svcpl	0x00207369
    7438:	636f6c5f 	cmnvs	pc, #24320	; 0x5f00
    743c:	6e615f6b 	cdpvs	15, 6, cr5, cr1, cr11, {3}
    7440:	61746f6e 	cmnvs	r4, lr, ror #30
    7444:	6e286574 	mcrvs	5, 1, r6, cr8, cr4, {3}
    7448:	68745f6f 	ldmdavs	r4!, {r0, r1, r2, r3, r5, r6, r8, r9, sl, fp, ip, lr}^
    744c:	64616572 	strbtvs	r6, [r1], #-1394	; 0xfffffa8e
    7450:	6661735f 			; <UNDEFINED> instruction: 0x6661735f
    7454:	5f797465 	svcpl	0x00797465
    7458:	6c616e61 	stclvs	14, cr6, [r1], #-388	; 0xfffffe7c
    745c:	73697379 	cmnvc	r9, #-469762047	; 0xe4000001
    7460:	50470029 	subpl	r0, r7, r9, lsr #32
    7464:	505f4f49 	subspl	r4, pc, r9, asr #30
    7468:	315f4e49 	cmpcc	pc, r9, asr #28
    746c:	28282031 	stmdacs	r8!, {r0, r4, r5, sp}
    7470:	746e6975 	strbtvc	r6, [lr], #-2421	; 0xfffff68b
    7474:	745f3631 	ldrbvc	r3, [pc], #-1585	; 747c <_Min_Stack_Size+0x707c>
    7478:	78302029 	ldmdavc	r0!, {r0, r3, r5, sp}
    747c:	30303830 	eorscc	r3, r0, r0, lsr r8
    7480:	495f0029 	ldmdbmi	pc, {r0, r3, r5}^	; <UNPREDICTABLE>
    7484:	3436544e 	ldrtcc	r5, [r6], #-1102	; 0xfffffbb2
    7488:	445f545f 	ldrbmi	r5, [pc], #-1119	; 7490 <_Min_Stack_Size+0x7090>
    748c:	414c4345 	cmpmi	ip, r5, asr #6
    7490:	20444552 	subcs	r4, r4, r2, asr r5
    7494:	43435200 	movtmi	r5, #12800	; 0x3200
    7498:	4153555f 	cmpmi	r3, pc, asr r5
    749c:	5f325452 	svcpl	0x00325452
    74a0:	5f4b4c43 	svcpl	0x004b4c43
    74a4:	29284e45 	stmdbcs	r8!, {r0, r2, r6, r9, sl, fp, lr}
    74a8:	43522820 	cmpmi	r2, #32, 16	; 0x200000
    74ac:	413e2d43 	teqmi	lr, r3, asr #26
    74b0:	45314250 	ldrmi	r4, [r1, #-592]!	; 0xfffffdb0
    74b4:	7c20524e 	sfmvc	f5, 4, [r0], #-312	; 0xfffffec8
    74b8:	3128203d 			; <UNDEFINED> instruction: 0x3128203d
    74bc:	37313c3c 			; <UNDEFINED> instruction: 0x37313c3c
    74c0:	4e002929 	vmlami.f16	s4, s0, s19	; <UNPREDICTABLE>
    74c4:	5f434956 	svcpl	0x00434956
    74c8:	52455349 	subpl	r5, r5, #603979777	; 0x24000001
    74cc:	282a2031 	stmdacs	sl!, {r0, r4, r5, sp}
    74d0:	616c6f76 	smcvs	50934	; 0xc6f6
    74d4:	656c6974 	strbvs	r6, [ip, #-2420]!	; 0xfffff68c
    74d8:	6e697520 	cdpvs	5, 6, cr7, cr9, cr0, {1}
    74dc:	5f323374 	svcpl	0x00323374
    74e0:	29202a74 	stmdbcs	r0!, {r2, r4, r5, r6, r9, fp, sp}
    74e4:	49564e28 	ldmdbmi	r6, {r3, r5, r9, sl, fp, lr}^
    74e8:	61425f43 	cmpvs	r2, r3, asr #30
    74ec:	2b206573 	blcs	820ac0 <_Min_Stack_Size+0x8206c0>
    74f0:	30307830 	eorscc	r7, r0, r0, lsr r8
    74f4:	5f002934 	svcpl	0x00002934
    74f8:	49474542 	stmdbmi	r7, {r1, r6, r8, sl, lr}^
    74fc:	54535f4e 	ldrbpl	r5, [r3], #-3918	; 0xfffff0b2
    7500:	20435f44 	subcs	r5, r3, r4, asr #30
    7504:	45525f00 	ldrbmi	r5, [r2, #-3840]	; 0xfffff100
    7508:	5f544e45 	svcpl	0x00544e45
    750c:	465f504d 	ldrbmi	r5, [pc], -sp, asr #32
    7510:	4c454552 	cfstr64mi	mvdx4, [r5], {82}	; 0x52
    7514:	28545349 	ldmdacs	r4, {r0, r3, r6, r8, r9, ip, lr}^
    7518:	29727470 	ldmdbcs	r2!, {r4, r5, r6, sl, ip, sp, lr}^
    751c:	70282820 	eorvc	r2, r8, r0, lsr #16
    7520:	2d297274 	sfmcs	f7, 4, [r9, #-464]!	; 0xfffffe30
    7524:	706d5f3e 	rsbvc	r5, sp, lr, lsr pc
    7528:	665f3e2d 	ldrbvs	r3, [pc], -sp, lsr #28
    752c:	6c656572 	cfstr64vs	mvdx6, [r5], #-456	; 0xfffffe38
    7530:	29747369 	ldmdbcs	r4!, {r0, r3, r5, r6, r8, r9, ip, sp, lr}^
    7534:	6c6c6100 	stfvse	f6, [ip], #-0
    7538:	2861636f 	stmdacs	r1!, {r0, r1, r2, r3, r5, r6, r8, r9, sp, lr}^
    753c:	657a6973 	ldrbvs	r6, [sl, #-2419]!	; 0xfffff68d
    7540:	5f5f2029 	svcpl	0x005f2029
    7544:	6c697562 	cfstr64vs	mvdx7, [r9], #-392	; 0xfffffe78
    7548:	5f6e6974 	svcpl	0x006e6974
    754c:	6f6c6c61 	svcvs	0x006c6c61
    7550:	73286163 			; <UNDEFINED> instruction: 0x73286163
    7554:	29657a69 	stmdbcs	r5!, {r0, r3, r5, r6, r9, fp, ip, sp, lr}^
    7558:	4c435f00 	mcrrmi	15, 0, r5, r3, cr0
    755c:	494b434f 	stmdbmi	fp, {r0, r1, r2, r3, r6, r8, r9, lr}^
    7560:	5f545f44 	svcpl	0x00545f44
    7564:	736e7520 	cmnvc	lr, #32, 10	; 0x8000000
    7568:	656e6769 	strbvs	r6, [lr, #-1897]!	; 0xfffff897
    756c:	6f6c2064 	svcvs	0x006c2064
    7570:	5500676e 	strpl	r6, [r0, #-1902]	; 0xfffff892
    7574:	54524153 	ldrbpl	r4, [r2], #-339	; 0xfffffead
    7578:	28282031 	stmdacs	r8!, {r0, r4, r5, sp}
    757c:	52415355 	subpl	r5, r1, #1409286145	; 0x54000001
    7580:	79545f54 	ldmdbvc	r4, {r2, r4, r6, r8, r9, sl, fp, ip, lr}^
    7584:	65646570 	strbvs	r6, [r4, #-1392]!	; 0xfffffa90
    7588:	292a2066 	stmdbcs	sl!, {r1, r2, r5, r6, sp}
    758c:	52415355 	subpl	r5, r1, #1409286145	; 0x54000001
    7590:	425f3154 	subsmi	r3, pc, #84, 2
    7594:	29455341 	stmdbcs	r5, {r0, r6, r8, r9, ip, lr}^
    7598:	555f5f00 	ldrbpl	r5, [pc, #-3840]	; 66a0 <_Min_Stack_Size+0x62a0>
    759c:	495f5154 	ldmdbmi	pc, {r2, r4, r6, r8, ip, lr}^	; <UNPREDICTABLE>
    75a0:	5f544942 	svcpl	0x00544942
    75a4:	0030205f 	eorseq	r2, r0, pc, asr r0
    75a8:	49545845 	ldmdbmi	r4, {r0, r2, r6, fp, ip, lr}^
    75ac:	00322032 	eorseq	r2, r2, r2, lsr r0
    75b0:	41535f5f 	cmpmi	r3, pc, asr pc
    75b4:	4942465f 	stmdbmi	r2, {r0, r1, r2, r3, r4, r6, r9, sl, lr}^
    75b8:	205f5f54 	subscs	r5, pc, r4, asr pc	; <UNPREDICTABLE>
    75bc:	5f003531 	svcpl	0x00003531
    75c0:	544e495f 	strbpl	r4, [lr], #-2399	; 0xfffff6a1
    75c4:	4843575f 	stmdami	r3, {r0, r1, r2, r3, r4, r6, r8, r9, sl, ip, lr}^
    75c8:	545f5241 	ldrbpl	r5, [pc], #-577	; 75d0 <_Min_Stack_Size+0x71d0>
    75cc:	0020485f 	eoreq	r4, r0, pc, asr r8
    75d0:	4c465f5f 	mcrrmi	15, 5, r5, r6, cr15
    75d4:	58323354 	ldmdapl	r2!, {r2, r4, r6, r8, r9, ip, sp}
    75d8:	58414d5f 	stmdapl	r1, {r0, r1, r2, r3, r4, r6, r8, sl, fp, lr}^
    75dc:	31205f5f 			; <UNDEFINED> instruction: 0x31205f5f
    75e0:	3739372e 	ldrcc	r3, [r9, -lr, lsr #14]!
    75e4:	31333936 	teqcc	r3, r6, lsr r9
    75e8:	36383433 			; <UNDEFINED> instruction: 0x36383433
    75ec:	35313332 	ldrcc	r3, [r1, #-818]!	; 0xfffffcce
    75f0:	332b6537 			; <UNDEFINED> instruction: 0x332b6537
    75f4:	33463830 	movtcc	r3, #26672	; 0x6830
    75f8:	45007832 	strmi	r7, [r0, #-2098]	; 0xfffff7ce
    75fc:	31495458 	cmpcc	r9, r8, asr r4
    7600:	31445034 	cmpcc	r4, r4, lsr r0
    7604:	45282034 	strmi	r2, [r8, #-52]!	; 0xffffffcc
    7608:	5f495458 	svcpl	0x00495458
    760c:	4f495047 	svcmi	0x00495047
    7610:	70614d5f 	rsbvc	r4, r1, pc, asr sp
    7614:	676e6970 			; <UNDEFINED> instruction: 0x676e6970
    7618:	7b29745f 	blvc	a6479c <_Min_Stack_Size+0xa6439c>
    761c:	49545845 	ldmdbmi	r4, {r0, r2, r6, fp, ip, lr}^
    7620:	202c3431 	eorcs	r3, ip, r1, lsr r4
    7624:	4f495047 	svcmi	0x00495047
    7628:	47202c44 	strmi	r2, [r0, -r4, asr #24]!
    762c:	5f4f4950 	svcpl	0x004f4950
    7630:	5f4e4950 	svcpl	0x004e4950
    7634:	202c3431 	eorcs	r3, ip, r1, lsr r4
    7638:	49545845 	ldmdbmi	r4, {r0, r2, r6, fp, ip, lr}^
    763c:	495f3431 	ldmdbmi	pc, {r0, r4, r5, sl, ip, sp}^	; <UNPREDICTABLE>
    7640:	007d5152 	rsbseq	r5, sp, r2, asr r1
    7644:	695f5f5f 	ldmdbvs	pc, {r0, r1, r2, r3, r4, r6, r8, r9, sl, fp, ip, lr}^	; <UNPREDICTABLE>
    7648:	3631746e 	ldrtcc	r7, [r1], -lr, ror #8
    764c:	645f745f 	ldrbvs	r7, [pc], #-1119	; 7654 <_Min_Stack_Size+0x7254>
    7650:	6e696665 	cdpvs	6, 6, cr6, cr9, cr5, {3}
    7654:	31206465 			; <UNDEFINED> instruction: 0x31206465
    7658:	48435700 	stmdami	r3, {r8, r9, sl, ip, lr}^
    765c:	4d5f5241 	lfmmi	f5, 2, [pc, #-260]	; 7560 <_Min_Stack_Size+0x7160>
    7660:	28205841 	stmdacs	r0!, {r0, r6, fp, ip, lr}
    7664:	43575f5f 	cmpmi	r7, #380	; 0x17c
    7668:	5f524148 	svcpl	0x00524148
    766c:	5f58414d 	svcpl	0x0058414d
    7670:	5f00295f 	svcpl	0x0000295f
    7674:	544c465f 	strbpl	r4, [ip], #-1631	; 0xfffff9a1
    7678:	4d5f3233 	lfmmi	f3, 2, [pc, #-204]	; 75b4 <_Min_Stack_Size+0x71b4>
    767c:	5f5f4e49 	svcpl	0x005f4e49
    7680:	312e3120 			; <UNDEFINED> instruction: 0x312e3120
    7684:	39343537 	ldmdbcc	r4!, {r0, r1, r2, r4, r5, r8, sl, ip, sp}
    7688:	30353334 	eorscc	r3, r5, r4, lsr r3
    768c:	32323238 	eorscc	r3, r2, #56, 4	; 0x80000003
    7690:	65353738 	ldrvs	r3, [r5, #-1848]!	; 0xfffff8c8
    7694:	4638332d 	ldrtmi	r3, [r8], -sp, lsr #6
    7698:	52003233 	andpl	r3, r0, #805306371	; 0x30000003
    769c:	555f4343 	ldrbpl	r4, [pc, #-835]	; 7361 <_Min_Stack_Size+0x6f61>
    76a0:	54524153 	ldrbpl	r4, [r2], #-339	; 0xfffffead
    76a4:	4c435f32 	mcrrmi	15, 3, r5, r3, cr2
    76a8:	65725f4b 	ldrbvs	r5, [r2, #-3915]!	; 0xfffff0b5
    76ac:	28746573 	ldmdacs	r4!, {r0, r1, r4, r5, r6, r8, sl, sp, lr}^
    76b0:	52282029 	eorpl	r2, r8, #41	; 0x29
    76b4:	3e2d4343 	cdpcc	3, 2, cr4, cr13, cr3, {2}
    76b8:	31425041 	cmpcc	r2, r1, asr #32
    76bc:	52545352 	subspl	r5, r4, #1207959553	; 0x48000001
    76c0:	203d7c20 	eorscs	r7, sp, r0, lsr #24
    76c4:	3c3c3128 	ldfccs	f3, [ip], #-160	; 0xffffff60
    76c8:	29293731 	stmdbcs	r9!, {r0, r4, r5, r8, r9, sl, ip, sp}
    76cc:	415f5f00 	cmpmi	pc, r0, lsl #30
    76d0:	414e4d53 	cmpmi	lr, r3, asr sp
    76d4:	6328454d 			; <UNDEFINED> instruction: 0x6328454d
    76d8:	656d616e 	strbvs	r6, [sp, #-366]!	; 0xfffffe92
    76dc:	5f5f2029 	svcpl	0x005f2029
    76e0:	52545358 	subspl	r5, r4, #88, 6	; 0x60000001
    76e4:	20474e49 	subcs	r4, r7, r9, asr #28
    76e8:	555f5f28 	ldrbpl	r5, [pc, #-3880]	; 67c8 <_Min_Stack_Size+0x63c8>
    76ec:	5f524553 	svcpl	0x00524553
    76f0:	4542414c 	strbmi	r4, [r2, #-332]	; 0xfffffeb4
    76f4:	52505f4c 	subspl	r5, r0, #76, 30	; 0x130
    76f8:	58494645 	stmdapl	r9, {r0, r2, r6, r9, sl, lr}^
    76fc:	20295f5f 	eorcs	r5, r9, pc, asr pc
    7700:	6d616e63 	stclvs	14, cr6, [r1, #-396]!	; 0xfffffe74
    7704:	4e490065 	cdpmi	0, 4, cr0, cr9, cr5, {3}
    7708:	5f323354 	svcpl	0x00323354
    770c:	204e494d 	subcs	r4, lr, sp, asr #18
    7710:	5f5f2d28 	svcpl	0x005f2d28
    7714:	33544e49 	cmpcc	r4, #1168	; 0x490
    7718:	414d5f32 	cmpmi	sp, r2, lsr pc
    771c:	205f5f58 	subscs	r5, pc, r8, asr pc	; <UNPREDICTABLE>
    7720:	2931202d 	ldmdbcs	r1!, {r0, r2, r3, r5, sp}
    7724:	545f5f00 	ldrbpl	r5, [pc], #-3840	; 772c <_Min_Stack_Size+0x732c>
    7728:	424d5548 	submi	r5, sp, #72, 10	; 0x12000000
    772c:	5f5f4c45 	svcpl	0x005f4c45
    7730:	42003120 	andmi	r3, r0, #32, 2
    7734:	52647561 	rsbpl	r7, r4, #406847488	; 0x18400000
    7738:	5f657461 	svcpl	0x00657461
    773c:	30363735 	eorscc	r3, r6, r5, lsr r7
    7740:	37352030 			; <UNDEFINED> instruction: 0x37352030
    7744:	00303036 	eorseq	r3, r0, r6, lsr r0
    7748:	33495053 	movtcc	r5, #36947	; 0x9053
    774c:	5341425f 	movtpl	r4, #4703	; 0x125f
    7750:	78302045 	ldmdavc	r0!, {r0, r2, r6, sp}
    7754:	30303034 	eorscc	r3, r0, r4, lsr r0
    7758:	30304333 	eorscc	r4, r0, r3, lsr r3
    775c:	50470075 	subpl	r0, r7, r5, ror r0
    7760:	4d5f4f49 	ldclmi	15, cr4, [pc, #-292]	; 7644 <_Min_Stack_Size+0x7244>
    7764:	5f45444f 	svcpl	0x0045444f
    7768:	5054554f 	subspl	r5, r4, pc, asr #10
    776c:	4f5f5455 	svcmi	0x005f5455
    7770:	78302044 	ldmdavc	r0!, {r2, r6, sp}
    7774:	30303030 	eorscc	r3, r0, r0, lsr r0
    7778:	35303030 	ldrcc	r3, [r0, #-48]!	; 0xffffffd0
    777c:	515f5f00 	cmppl	pc, r0, lsl #30
    7780:	42495f51 	submi	r5, r9, #324	; 0x144
    7784:	5f5f5449 	svcpl	0x005f5449
    7788:	54003020 	strpl	r3, [r0], #-32	; 0xffffffe0
    778c:	5f384d49 	svcpl	0x00384d49
    7790:	45534142 	ldrbmi	r4, [r3, #-322]	; 0xfffffebe
    7794:	34783020 	ldrbtcc	r3, [r8], #-32	; 0xffffffe0
    7798:	33313030 	teqcc	r1, #48	; 0x30
    779c:	75303034 	ldrvc	r3, [r0, #-52]!	; 0xffffffcc
    77a0:	52514900 	subspl	r4, r1, #0, 18
    77a4:	424e455f 	submi	r4, lr, #398458880	; 0x17c00000
    77a8:	61747300 	cmnvs	r4, r0, lsl #6
    77ac:	5f636974 	svcpl	0x00636974
    77b0:	65737361 	ldrbvs	r7, [r3, #-865]!	; 0xfffffc9f
    77b4:	5f207472 	svcpl	0x00207472
    77b8:	74617453 	strbtvc	r7, [r1], #-1107	; 0xfffffbad
    77bc:	615f6369 	cmpvs	pc, r9, ror #6
    77c0:	72657373 	rsbvc	r7, r5, #-872415231	; 0xcc000001
    77c4:	5f5f0074 	svcpl	0x005f0074
    77c8:	4b434f4c 	blmi	10db500 <_Min_Stack_Size+0x10db100>
    77cc:	494e495f 	stmdbmi	lr, {r0, r1, r2, r3, r4, r6, r8, fp, lr}^
    77d0:	45525f54 	ldrbmi	r5, [r2, #-3924]	; 0xfffff0ac
    77d4:	53525543 	cmppl	r2, #281018368	; 0x10c00000
    77d8:	28455649 	stmdacs	r5, {r0, r3, r6, r9, sl, ip, lr}^
    77dc:	73616c63 	cmnvc	r1, #25344	; 0x6300
    77e0:	6f6c2c73 	svcvs	0x006c2c73
    77e4:	20296b63 	eorcs	r6, r9, r3, ror #22
    77e8:	4f4c5f5f 	svcmi	0x004c5f5f
    77ec:	495f4b43 	ldmdbmi	pc, {r0, r1, r6, r8, r9, fp, lr}^	; <UNPREDICTABLE>
    77f0:	2854494e 	ldmdacs	r4, {r1, r2, r3, r6, r8, fp, lr}^
    77f4:	73616c63 	cmnvc	r1, #25344	; 0x6300
    77f8:	6f6c2c73 	svcvs	0x006c2c73
    77fc:	00296b63 	eoreq	r6, r9, r3, ror #22
    7800:	4c4c5f5f 	mcrrmi	15, 5, r5, ip, cr15
    7804:	55434341 	strbpl	r4, [r3, #-833]	; 0xfffffcbf
    7808:	42465f4d 	submi	r5, r6, #308	; 0x134
    780c:	5f5f5449 	svcpl	0x005f5449
    7810:	00313320 	eorseq	r3, r1, r0, lsr #6
    7814:	544e4955 	strbpl	r4, [lr], #-2389	; 0xfffff6ab
    7818:	4d5f3631 	ldclmi	6, cr3, [pc, #-196]	; 775c <_Min_Stack_Size+0x735c>
    781c:	28205841 	stmdacs	r0!, {r0, r6, fp, ip, lr}
    7820:	49555f5f 	ldmdbmi	r5, {r0, r1, r2, r3, r4, r6, r8, r9, sl, fp, ip, lr}^
    7824:	3631544e 	ldrtcc	r5, [r1], -lr, asr #8
    7828:	58414d5f 	stmdapl	r1, {r0, r1, r2, r3, r4, r6, r8, sl, fp, lr}^
    782c:	00295f5f 	eoreq	r5, r9, pc, asr pc
    7830:	4c465f5f 	mcrrmi	15, 5, r5, r6, cr15
    7834:	58323354 	ldmdapl	r2!, {r2, r4, r6, r8, r9, ip, sp}
    7838:	4e494d5f 	mcrmi	13, 2, r4, cr9, cr15, {2}
    783c:	5f30315f 	svcpl	0x0030315f
    7840:	5f505845 	svcpl	0x00505845
    7844:	2d28205f 	stccs	0, cr2, [r8, #-380]!	; 0xfffffe84
    7848:	29373033 	ldmdbcs	r7!, {r0, r1, r4, r5, ip, sp}
    784c:	4e495500 	cdpmi	5, 4, cr5, cr9, cr0, {0}
    7850:	454c5f54 	strbmi	r5, [ip, #-3924]	; 0xfffff0ac
    7854:	38545341 	ldmdacc	r4, {r0, r6, r8, r9, ip, lr}^
    7858:	58414d5f 	stmdapl	r1, {r0, r1, r2, r3, r4, r6, r8, sl, fp, lr}^
    785c:	5f5f2820 	svcpl	0x005f2820
    7860:	544e4955 	strbpl	r4, [lr], #-2389	; 0xfffff6ab
    7864:	41454c5f 	cmpmi	r5, pc, asr ip
    7868:	5f385453 	svcpl	0x00385453
    786c:	5f58414d 	svcpl	0x0058414d
    7870:	5f00295f 	svcpl	0x0000295f
    7874:	5153555f 	cmppl	r3, pc, asr r5
    7878:	4942495f 	stmdbmi	r2, {r0, r1, r2, r3, r4, r6, r8, fp, lr}^
    787c:	205f5f54 	subscs	r5, pc, r4, asr pc	; <UNPREDICTABLE>
    7880:	5f5f0030 	svcpl	0x005f0030
    7884:	43554e47 	cmpmi	r5, #1136	; 0x470
    7888:	4e494d5f 	mcrmi	13, 2, r4, cr9, cr15, {2}
    788c:	5f5f524f 	svcpl	0x005f524f
    7890:	5f003320 	svcpl	0x00003320
    7894:	544c465f 	strbpl	r4, [ip], #-1631	; 0xfffff9a1
    7898:	5f583233 	svcpl	0x00583233
    789c:	5f4e494d 	svcpl	0x004e494d
    78a0:	5f505845 	svcpl	0x00505845
    78a4:	2d28205f 	stccs	0, cr2, [r8, #-380]!	; 0xfffffe84
    78a8:	31323031 	teqcc	r2, r1, lsr r0
    78ac:	5f5f0029 	svcpl	0x005f0029
    78b0:	544e4955 	strbpl	r4, [lr], #-2389	; 0xfffff6ab
    78b4:	41454c5f 	cmpmi	r5, pc, asr ip
    78b8:	32335453 	eorscc	r5, r3, #1392508928	; 0x53000000
    78bc:	5059545f 	subspl	r5, r9, pc, asr r4
    78c0:	205f5f45 	subscs	r5, pc, r5, asr #30
    78c4:	676e6f6c 	strbvs	r6, [lr, -ip, ror #30]!
    78c8:	736e7520 	cmnvc	lr, #32, 10	; 0x8000000
    78cc:	656e6769 	strbvs	r6, [lr, #-1897]!	; 0xfffff897
    78d0:	6e692064 	cdpvs	0, 6, cr2, cr9, cr4, {3}
    78d4:	69540074 	ldmdbvs	r4, {r2, r4, r5, r6}^
    78d8:	2820326d 	stmdacs	r0!, {r0, r2, r3, r5, r6, r9, ip, sp}
    78dc:	4d495428 	cfstrdmi	mvd5, [r9, #-160]	; 0xffffff60
    78e0:	5f357432 	svcpl	0x00357432
    78e4:	65707954 	ldrbvs	r7, [r0, #-2388]!	; 0xfffff6ac
    78e8:	5f666544 	svcpl	0x00666544
    78ec:	54292a74 	strtpl	r2, [r9], #-2676	; 0xfffff58c
    78f0:	5f324d49 	svcpl	0x00324d49
    78f4:	45534142 	ldrbmi	r4, [r3, #-322]	; 0xfffffebe
    78f8:	5f5f0029 	svcpl	0x005f0029
    78fc:	5f4d5241 	svcpl	0x004d5241
    7900:	54414546 	strbpl	r4, [r1], #-1350	; 0xfffffaba
    7904:	5f455255 	svcpl	0x00455255
    7908:	454d554e 	strbmi	r5, [sp, #-1358]	; 0xfffffab2
    790c:	5f434952 	svcpl	0x00434952
    7910:	4d58414d 	ldfmie	f4, [r8, #-308]	; 0xfffffecc
    7914:	5f004e49 	svcpl	0x00004e49
    7918:	444e4152 	strbmi	r4, [lr], #-338	; 0xfffffeae
    791c:	4d5f3834 	ldclmi	8, cr3, [pc, #-208]	; 7854 <_Min_Stack_Size+0x7454>
    7920:	5f544c55 	svcpl	0x00544c55
    7924:	30282031 	eorcc	r2, r8, r1, lsr r0
    7928:	65656478 	strbvs	r6, [r5, #-1144]!	; 0xfffffb88
    792c:	5f002963 	svcpl	0x00002963
    7930:	544e495f 	strbpl	r4, [lr], #-2399	; 0xfffff6a1
    7934:	5f58414d 	svcpl	0x0058414d
    7938:	45505954 	ldrbmi	r5, [r0, #-2388]	; 0xfffff6ac
    793c:	6c205f5f 	stcvs	15, cr5, [r0], #-380	; 0xfffffe84
    7940:	20676e6f 	rsbcs	r6, r7, pc, ror #28
    7944:	676e6f6c 	strbvs	r6, [lr, -ip, ror #30]!
    7948:	746e6920 	strbtvc	r6, [lr], #-2336	; 0xfffff6e0
    794c:	54584500 	ldrbpl	r4, [r8], #-1280	; 0xfffffb00
    7950:	42503749 	subsmi	r3, r0, #19136512	; 0x1240000
    7954:	45282037 	strmi	r2, [r8, #-55]!	; 0xffffffc9
    7958:	5f495458 	svcpl	0x00495458
    795c:	4f495047 	svcmi	0x00495047
    7960:	70614d5f 	rsbvc	r4, r1, pc, asr sp
    7964:	676e6970 			; <UNDEFINED> instruction: 0x676e6970
    7968:	7b29745f 	blvc	a64aec <_Min_Stack_Size+0xa646ec>
    796c:	49545845 	ldmdbmi	r4, {r0, r2, r6, fp, ip, lr}^
    7970:	47202c37 			; <UNDEFINED> instruction: 0x47202c37
    7974:	424f4950 	submi	r4, pc, #80, 18	; 0x140000
    7978:	5047202c 	subpl	r2, r7, ip, lsr #32
    797c:	505f4f49 	subspl	r4, pc, r9, asr #30
    7980:	375f4e49 	ldrbcc	r4, [pc, -r9, asr #28]
    7984:	5845202c 	stmdapl	r5, {r2, r3, r5, sp}^
    7988:	5f374954 	svcpl	0x00374954
    798c:	7d515249 	lfmvc	f5, 2, [r1, #-292]	; 0xfffffedc
    7990:	4e495500 	cdpmi	5, 4, cr5, cr9, cr0, {0}
    7994:	41465f54 	cmpmi	r6, r4, asr pc
    7998:	32335453 	eorscc	r5, r3, #1392508928	; 0x53000000
    799c:	58414d5f 	stmdapl	r1, {r0, r1, r2, r3, r4, r6, r8, sl, fp, lr}^
    79a0:	5f5f2820 	svcpl	0x005f2820
    79a4:	544e4955 	strbpl	r4, [lr], #-2389	; 0xfffff6ab
    79a8:	5341465f 	movtpl	r4, #5727	; 0x165f
    79ac:	5f323354 	svcpl	0x00323354
    79b0:	5f58414d 	svcpl	0x0058414d
    79b4:	5f00295f 	svcpl	0x0000295f
    79b8:	4343475f 	movtmi	r4, #14175	; 0x375f
    79bc:	4f54415f 	svcmi	0x0054415f
    79c0:	5f43494d 	svcpl	0x0043494d
    79c4:	5f544e49 	svcpl	0x00544e49
    79c8:	4b434f4c 	blmi	10db700 <_Min_Stack_Size+0x10db300>
    79cc:	4552465f 	ldrbmi	r4, [r2, #-1631]	; 0xfffff9a1
    79d0:	00322045 	eorseq	r2, r2, r5, asr #32
    79d4:	544e414d 	strbpl	r4, [lr], #-333	; 0xfffffeb3
    79d8:	41535349 	cmpmi	r3, r9, asr #6
    79dc:	4c554d5f 	mrrcmi	13, 5, r4, r5, cr15
    79e0:	28303031 	ldmdacs	r0!, {r0, r4, r5, ip, sp}
    79e4:	6b6c6346 	blvs	1b20704 <_Min_Stack_Size+0x1b20304>
    79e8:	7561622c 	strbvc	r6, [r1, #-556]!	; 0xfffffdd4
    79ec:	74617264 	strbtvc	r7, [r1], #-612	; 0xfffffd9c
    79f0:	28202965 	stmdacs	r0!, {r0, r2, r5, r6, r8, fp, sp}
    79f4:	746e6975 	strbtvc	r6, [lr], #-2421	; 0xfffff68b
    79f8:	745f3233 	ldrbvc	r3, [pc], #-563	; 7a00 <_Min_Stack_Size+0x7600>
    79fc:	55282029 	strpl	r2, [r8, #-41]!	; 0xffffffd7
    7a00:	54524153 	ldrbpl	r4, [r2], #-339	; 0xfffffead
    7a04:	5649445f 			; <UNDEFINED> instruction: 0x5649445f
    7a08:	6c634628 	stclvs	6, cr4, [r3], #-160	; 0xffffff60
    7a0c:	61622c6b 	cmnvs	r2, fp, ror #24
    7a10:	61726475 	cmnvs	r2, r5, ror r4
    7a14:	20296574 	eorcs	r6, r9, r4, ror r5
    7a18:	3030312a 	eorscc	r3, r0, sl, lsr #2
    7a1c:	50470029 	subpl	r0, r7, r9, lsr #32
    7a20:	505f4f49 	subspl	r4, pc, r9, asr #30
    7a24:	415f4e49 	cmpmi	pc, r9, asr #28
    7a28:	28204c4c 	stmdacs	r0!, {r2, r3, r6, sl, fp, lr}
    7a2c:	6e697528 	cdpvs	5, 6, cr7, cr9, cr8, {1}
    7a30:	5f363174 	svcpl	0x00363174
    7a34:	30202974 	eorcc	r2, r0, r4, ror r9
    7a38:	46464678 			; <UNDEFINED> instruction: 0x46464678
    7a3c:	5f002946 	svcpl	0x00002946
    7a40:	444e4152 	strbmi	r4, [lr], #-338	; 0xfffffeae
    7a44:	535f3834 	cmppl	pc, #52, 16	; 0x340000
    7a48:	5f444545 	svcpl	0x00444545
    7a4c:	30282030 	eorcc	r2, r8, r0, lsr r0
    7a50:	30333378 	eorscc	r3, r3, r8, ror r3
    7a54:	45002965 	strmi	r2, [r0, #-2405]	; 0xfffff69b
    7a58:	39495458 	stmdbcc	r9, {r3, r4, r6, sl, ip, lr}^
    7a5c:	20394450 	eorscs	r4, r9, r0, asr r4
    7a60:	54584528 	ldrbpl	r4, [r8], #-1320	; 0xfffffad8
    7a64:	50475f49 	subpl	r5, r7, r9, asr #30
    7a68:	4d5f4f49 	ldclmi	15, cr4, [pc, #-292]	; 794c <_Min_Stack_Size+0x754c>
    7a6c:	69707061 	ldmdbvs	r0!, {r0, r5, r6, ip, sp, lr}^
    7a70:	745f676e 	ldrbvc	r6, [pc], #-1902	; 7a78 <_Min_Stack_Size+0x7678>
    7a74:	58457b29 	stmdapl	r5, {r0, r3, r5, r8, r9, fp, ip, sp, lr}^
    7a78:	2c394954 			; <UNDEFINED> instruction: 0x2c394954
    7a7c:	49504720 	ldmdbmi	r0, {r5, r8, r9, sl, lr}^
    7a80:	202c444f 	eorcs	r4, ip, pc, asr #8
    7a84:	4f495047 	svcmi	0x00495047
    7a88:	4e49505f 	mcrmi	0, 2, r5, cr9, cr15, {2}
    7a8c:	202c395f 	eorcs	r3, ip, pc, asr r9
    7a90:	49545845 	ldmdbmi	r4, {r0, r2, r6, fp, ip, lr}^
    7a94:	52495f39 	subpl	r5, r9, #57, 30	; 0xe4
    7a98:	5f007d51 	svcpl	0x00007d51
    7a9c:	5f434347 	svcpl	0x00434347
    7aa0:	5f58414d 	svcpl	0x0058414d
    7aa4:	47494c41 	strbmi	r4, [r9, -r1, asr #24]
    7aa8:	20545f4e 	subscs	r5, r4, lr, asr #30
    7aac:	4c5f5f00 	mrrcmi	15, 0, r5, pc, cr0	; <UNPREDICTABLE>
    7ab0:	20676e6f 	rsbcs	r6, r7, pc, ror #28
    7ab4:	676e6f6c 	strbvs	r6, [lr, -ip, ror #30]!
    7ab8:	415f5f00 	cmpmi	pc, r0, lsl #30
    7abc:	465f4d52 			; <UNDEFINED> instruction: 0x465f4d52
    7ac0:	55544145 	ldrbpl	r4, [r4, #-325]	; 0xfffffebb
    7ac4:	465f4552 			; <UNDEFINED> instruction: 0x465f4552
    7ac8:	5f363150 	svcpl	0x00363150
    7acc:	4c414353 	mcrrmi	3, 5, r4, r1, cr3
    7ad0:	415f5241 	cmpmi	pc, r1, asr #4
    7ad4:	48544952 	ldmdami	r4, {r1, r4, r6, r8, fp, lr}^
    7ad8:	4954454d 	ldmdbmi	r4, {r0, r2, r3, r6, r8, sl, lr}^
    7adc:	5f5f0043 	svcpl	0x005f0043
    7ae0:	43415355 	movtmi	r5, #4949	; 0x1355
    7ae4:	5f4d5543 	svcpl	0x004d5543
    7ae8:	49535045 	ldmdbmi	r3, {r0, r2, r6, ip, lr}^
    7aec:	5f4e4f4c 	svcpl	0x004e4f4c
    7af0:	7830205f 	ldmdavc	r0!, {r0, r1, r2, r3, r4, r6, sp}
    7af4:	382d5031 	stmdacc	sp!, {r0, r4, r5, ip, lr}
    7af8:	004b4855 	subeq	r4, fp, r5, asr r8
    7afc:	42445f5f 	submi	r5, r4, #380	; 0x17c
    7b00:	41485f4c 	cmpmi	r8, ip, asr #30
    7b04:	55515f53 	ldrbpl	r5, [r1, #-3923]	; 0xfffff0ad
    7b08:	5f544549 	svcpl	0x00544549
    7b0c:	5f4e414e 	svcpl	0x004e414e
    7b10:	0031205f 	eorseq	r2, r1, pc, asr r0
    7b14:	33544e49 	cmpcc	r4, #1168	; 0x490
    7b18:	28435f32 	stmdacs	r3, {r1, r4, r5, r8, r9, sl, fp, ip, lr}^
    7b1c:	5f202978 	svcpl	0x00202978
    7b20:	544e495f 	strbpl	r4, [lr], #-2399	; 0xfffff6a1
    7b24:	435f3233 	cmpmi	pc, #805306371	; 0x30000003
    7b28:	00297828 	eoreq	r7, r9, r8, lsr #16
    7b2c:	74705f5f 	ldrbtvc	r5, [r0], #-3935	; 0xfffff0a1
    7b30:	6c617672 	stclvs	6, cr7, [r1], #-456	; 0xfffffe38
    7b34:	00206575 	eoreq	r6, r0, r5, ror r5
    7b38:	494f4e5f 	stmdbmi	pc, {r0, r1, r2, r3, r4, r6, r9, sl, fp, lr}^	; <UNPREDICTABLE>
    7b3c:	4e494c4e 	cdpmi	12, 4, cr4, cr9, cr14, {2}
    7b40:	54535f45 	ldrbpl	r5, [r3], #-3909	; 0xfffff0bb
    7b44:	43495441 	movtmi	r5, #37953	; 0x9441
    7b48:	4f4e5f20 	svcmi	0x004e5f20
    7b4c:	494c4e49 	stmdbmi	ip, {r0, r3, r6, r9, sl, fp, lr}^
    7b50:	7320454e 			; <UNDEFINED> instruction: 0x7320454e
    7b54:	69746174 	ldmdbvs	r4!, {r2, r4, r5, r6, r8, sp, lr}^
    7b58:	5f5f0063 	svcpl	0x005f0063
    7b5c:	52464c4c 	subpl	r4, r6, #76, 24	; 0x4c00
    7b60:	5f544341 	svcpl	0x00544341
    7b64:	5f58414d 	svcpl	0x0058414d
    7b68:	5830205f 	ldmdapl	r0!, {r0, r1, r2, r3, r4, r6, sp}
    7b6c:	46464637 			; <UNDEFINED> instruction: 0x46464637
    7b70:	46464646 	strbmi	r4, [r6], -r6, asr #12
    7b74:	46464646 	strbmi	r4, [r6], -r6, asr #12
    7b78:	46464646 	strbmi	r4, [r6], -r6, asr #12
    7b7c:	33362d50 	teqcc	r6, #80, 26	; 0x1400
    7b80:	00524c4c 	subseq	r4, r2, ip, asr #24
    7b84:	6f635f5f 	svcvs	0x00635f5f
    7b88:	2074736e 	rsbscs	r7, r4, lr, ror #6
    7b8c:	736e6f63 	cmnvc	lr, #396	; 0x18c
    7b90:	58450074 	stmdapl	r5, {r2, r4, r5, r6}^
    7b94:	50304954 	eorspl	r4, r0, r4, asr r9
    7b98:	28203043 	stmdacs	r0!, {r0, r1, r6, ip, sp}
    7b9c:	49545845 	ldmdbmi	r4, {r0, r2, r6, fp, ip, lr}^
    7ba0:	4950475f 	ldmdbmi	r0, {r0, r1, r2, r3, r4, r6, r8, r9, sl, lr}^
    7ba4:	614d5f4f 	cmpvs	sp, pc, asr #30
    7ba8:	6e697070 	mcrvs	0, 3, r7, cr9, cr0, {3}
    7bac:	29745f67 	ldmdbcs	r4!, {r0, r1, r2, r5, r6, r8, r9, sl, fp, ip, lr}^
    7bb0:	5458457b 	ldrbpl	r4, [r8], #-1403	; 0xfffffa85
    7bb4:	202c3049 	eorcs	r3, ip, r9, asr #32
    7bb8:	4f495047 	svcmi	0x00495047
    7bbc:	47202c43 	strmi	r2, [r0, -r3, asr #24]!
    7bc0:	5f4f4950 	svcpl	0x004f4950
    7bc4:	5f4e4950 	svcpl	0x004e4950
    7bc8:	45202c30 	strmi	r2, [r0, #-3120]!	; 0xfffff3d0
    7bcc:	30495458 	subcc	r5, r9, r8, asr r4
    7bd0:	5152495f 	cmppl	r2, pc, asr r9
    7bd4:	4955007d 	ldmdbmi	r5, {r0, r2, r3, r4, r5, r6}^
    7bd8:	4c5f544e 	cfldrdmi	mvd5, [pc], {78}	; 0x4e
    7bdc:	54534145 	ldrbpl	r4, [r3], #-325	; 0xfffffebb
    7be0:	4d5f3233 	lfmmi	f3, 2, [pc, #-204]	; 7b1c <_Min_Stack_Size+0x771c>
    7be4:	28205841 	stmdacs	r0!, {r0, r6, fp, ip, lr}
    7be8:	49555f5f 	ldmdbmi	r5, {r0, r1, r2, r3, r4, r6, r8, r9, sl, fp, ip, lr}^
    7bec:	4c5f544e 	cfldrdmi	mvd5, [pc], {78}	; 0x4e
    7bf0:	54534145 	ldrbpl	r4, [r3], #-325	; 0xfffffebb
    7bf4:	4d5f3233 	lfmmi	f3, 2, [pc, #-204]	; 7b30 <_Min_Stack_Size+0x7730>
    7bf8:	5f5f5841 	svcpl	0x005f5841
    7bfc:	58450029 	stmdapl	r5, {r0, r3, r5}^
    7c00:	50314954 	eorspl	r4, r1, r4, asr r9
    7c04:	28203143 	stmdacs	r0!, {r0, r1, r6, r8, ip, sp}
    7c08:	49545845 	ldmdbmi	r4, {r0, r2, r6, fp, ip, lr}^
    7c0c:	4950475f 	ldmdbmi	r0, {r0, r1, r2, r3, r4, r6, r8, r9, sl, lr}^
    7c10:	614d5f4f 	cmpvs	sp, pc, asr #30
    7c14:	6e697070 	mcrvs	0, 3, r7, cr9, cr0, {3}
    7c18:	29745f67 	ldmdbcs	r4!, {r0, r1, r2, r5, r6, r8, r9, sl, fp, ip, lr}^
    7c1c:	5458457b 	ldrbpl	r4, [r8], #-1403	; 0xfffffa85
    7c20:	202c3149 	eorcs	r3, ip, r9, asr #2
    7c24:	4f495047 	svcmi	0x00495047
    7c28:	47202c43 	strmi	r2, [r0, -r3, asr #24]!
    7c2c:	5f4f4950 	svcpl	0x004f4950
    7c30:	5f4e4950 	svcpl	0x004e4950
    7c34:	45202c31 	strmi	r2, [r0, #-3121]!	; 0xfffff3cf
    7c38:	31495458 	cmpcc	r9, r8, asr r4
    7c3c:	5152495f 	cmppl	r2, pc, asr r9
    7c40:	4352007d 	cmpmi	r2, #125	; 0x7d
    7c44:	53555f43 	cmppl	r5, #268	; 0x10c
    7c48:	33545241 	cmpcc	r4, #268435460	; 0x10000004
    7c4c:	4b4c435f 	blmi	13189d0 <_Min_Stack_Size+0x13185d0>
    7c50:	284e455f 	stmdacs	lr, {r0, r1, r2, r3, r4, r6, r8, sl, lr}^
    7c54:	52282029 	eorpl	r2, r8, #41	; 0x29
    7c58:	3e2d4343 	cdpcc	3, 2, cr4, cr13, cr3, {2}
    7c5c:	31425041 	cmpcc	r2, r1, asr #32
    7c60:	20524e45 	subscs	r4, r2, r5, asr #28
    7c64:	28203d7c 	stmdacs	r0!, {r2, r3, r4, r5, r6, r8, sl, fp, ip, sp}
    7c68:	313c3c31 	teqcc	ip, r1, lsr ip
    7c6c:	00292938 	eoreq	r2, r9, r8, lsr r9
    7c70:	54535f5f 	ldrbpl	r5, [r3], #-3935	; 0xfffff0a1
    7c74:	5f5f4344 	svcpl	0x005f4344
    7c78:	5f003120 	svcpl	0x00003120
    7c7c:	4341535f 	movtmi	r5, #4959	; 0x135f
    7c80:	5f4d5543 	svcpl	0x004d5543
    7c84:	5f58414d 	svcpl	0x0058414d
    7c88:	5830205f 	ldmdapl	r0!, {r0, r1, r2, r3, r4, r6, sp}
    7c8c:	46464637 			; <UNDEFINED> instruction: 0x46464637
    7c90:	48372d50 	ldmdami	r7!, {r4, r6, r8, sl, fp, sp}
    7c94:	5f5f004b 	svcpl	0x005f004b
    7c98:	50544e49 	subspl	r4, r4, r9, asr #28
    7c9c:	545f5254 	ldrbpl	r5, [pc], #-596	; 7ca4 <_Min_Stack_Size+0x78a4>
    7ca0:	5f455059 	svcpl	0x00455059
    7ca4:	6e69205f 	mcrvs	0, 3, r2, cr9, cr15, {2}
    7ca8:	58450074 	stmdapl	r5, {r2, r4, r5, r6}^
    7cac:	5f384954 	svcpl	0x00384954
    7cb0:	20515249 	subscs	r5, r1, r9, asr #4
    7cb4:	5f003332 	svcpl	0x00003332
    7cb8:	4e49555f 	mcrmi	5, 2, r5, cr9, cr15, {2}
    7cbc:	52545054 	subspl	r5, r4, #84	; 0x54
    7cc0:	5059545f 	subspl	r5, r9, pc, asr r4
    7cc4:	205f5f45 	subscs	r5, pc, r5, asr #30
    7cc8:	69736e75 	ldmdbvs	r3!, {r0, r2, r4, r5, r6, r9, sl, fp, sp, lr}^
    7ccc:	64656e67 	strbtvs	r6, [r5], #-3687	; 0xfffff199
    7cd0:	746e6920 	strbtvc	r6, [lr], #-2336	; 0xfffff6e0
    7cd4:	49504700 	ldmdbmi	r0, {r8, r9, sl, lr}^
    7cd8:	4f4d5f4f 	svcmi	0x004d5f4f
    7cdc:	495f4544 	ldmdbmi	pc, {r2, r6, r8, sl, lr}^	; <UNPREDICTABLE>
    7ce0:	5455504e 	ldrbpl	r5, [r5], #-78	; 0xffffffb2
    7ce4:	2055505f 	subscs	r5, r5, pc, asr r0
    7ce8:	30307830 	eorscc	r7, r0, r0, lsr r8
    7cec:	30303030 	eorscc	r3, r0, r0, lsr r0
    7cf0:	47003230 	smladxmi	r0, r0, r2, r3
    7cf4:	424f4950 	submi	r4, pc, #80, 18	; 0x140000
    7cf8:	47282820 	strmi	r2, [r8, -r0, lsr #16]!
    7cfc:	5f4f4950 	svcpl	0x004f4950
    7d00:	65707954 	ldrbvs	r7, [r0, #-2388]!	; 0xfffff6ac
    7d04:	5f666564 	svcpl	0x00666564
    7d08:	292a2074 	stmdbcs	sl!, {r2, r4, r5, r6, sp}
    7d0c:	4f495047 	svcmi	0x00495047
    7d10:	41425f42 	cmpmi	r2, r2, asr #30
    7d14:	00294553 	eoreq	r4, r9, r3, asr r5
    7d18:	45525f5f 	ldrbmi	r5, [r2, #-3935]	; 0xfffff0a1
    7d1c:	54534947 	ldrbpl	r4, [r3], #-2375	; 0xfffff6b9
    7d20:	505f5245 	subspl	r5, pc, r5, asr #4
    7d24:	49464552 	stmdbmi	r6, {r1, r4, r6, r8, sl, lr}^
    7d28:	205f5f58 	subscs	r5, pc, r8, asr pc	; <UNPREDICTABLE>
    7d2c:	465f5f00 	ldrbmi	r5, [pc], -r0, lsl #30
    7d30:	3233544c 	eorscc	r5, r3, #76, 8	; 0x4c000000
    7d34:	58414d5f 	stmdapl	r1, {r0, r1, r2, r3, r4, r6, r8, sl, fp, lr}^
    7d38:	33205f5f 			; <UNDEFINED> instruction: 0x33205f5f
    7d3c:	3230342e 	eorscc	r3, r0, #771751936	; 0x2e000000
    7d40:	34333238 	ldrtcc	r3, [r3], #-568	; 0xfffffdc8
    7d44:	38333636 	ldmdacc	r3!, {r1, r2, r4, r5, r9, sl, ip, sp}
    7d48:	38383235 	ldmdacc	r8!, {r0, r2, r4, r5, r9, ip, sp}
    7d4c:	332b6536 			; <UNDEFINED> instruction: 0x332b6536
    7d50:	32334638 	eorscc	r4, r3, #56, 12	; 0x3800000
    7d54:	445f5f00 	ldrbmi	r5, [pc], #-3840	; 7d5c <_Min_Stack_Size+0x795c>
    7d58:	445f4c42 	ldrbmi	r4, [pc], #-3138	; 7d60 <_Min_Stack_Size+0x7960>
    7d5c:	5f5f4749 	svcpl	0x005f4749
    7d60:	00353120 	eorseq	r3, r5, r0, lsr #2
    7d64:	4c555f5f 	mrrcmi	15, 5, r5, r5, cr15	; <UNPREDICTABLE>
    7d68:	43415246 	movtmi	r5, #4678	; 0x1246
    7d6c:	50455f54 	subpl	r5, r5, r4, asr pc
    7d70:	4f4c4953 	svcmi	0x004c4953
    7d74:	205f5f4e 	subscs	r5, pc, lr, asr #30
    7d78:	50317830 	eorspl	r7, r1, r0, lsr r8
    7d7c:	5532332d 	ldrpl	r3, [r2, #-813]!	; 0xfffffcd3
    7d80:	5f00524c 	svcpl	0x0000524c
    7d84:	5343525f 	movtpl	r5, #12895	; 0x325f
    7d88:	73284449 			; <UNDEFINED> instruction: 0x73284449
    7d8c:	74732029 	ldrbtvc	r2, [r3], #-41	; 0xffffffd7
    7d90:	74637572 	strbtvc	r7, [r3], #-1394	; 0xfffffa8e
    7d94:	685f5f20 	ldmdavs	pc, {r5, r8, r9, sl, fp, ip, lr}^	; <UNPREDICTABLE>
    7d98:	006b6361 	rsbeq	r6, fp, r1, ror #6
    7d9c:	4f495047 	svcmi	0x00495047
    7da0:	41425f47 	cmpmi	r2, r7, asr #30
    7da4:	30204553 	eorcc	r4, r0, r3, asr r5
    7da8:	30303478 	eorscc	r3, r0, r8, ror r4
    7dac:	30303231 	eorscc	r3, r0, r1, lsr r2
    7db0:	5f007530 	svcpl	0x00007530
    7db4:	4e454552 	mcrmi	5, 2, r4, cr5, cr2, {2}
    7db8:	364c5f54 			; <UNDEFINED> instruction: 0x364c5f54
    7dbc:	425f4134 	subsmi	r4, pc, #52, 2
    7dc0:	70284655 	eorvc	r4, r8, r5, asr r6
    7dc4:	20297274 	eorcs	r7, r9, r4, ror r2
    7dc8:	74702828 	ldrbtvc	r2, [r0], #-2088	; 0xfffff7d8
    7dcc:	3e2d2972 			; <UNDEFINED> instruction: 0x3e2d2972
    7dd0:	73696d5f 	cmnvc	r9, #6080	; 0x17c0
    7dd4:	5f3e2d63 	svcpl	0x003e2d63
    7dd8:	6134366c 	teqvs	r4, ip, ror #12
    7ddc:	6675625f 			; <UNDEFINED> instruction: 0x6675625f
    7de0:	5f5f0029 	svcpl	0x005f0029
    7de4:	455a4953 	ldrbmi	r4, [sl, #-2387]	; 0xfffff6ad
    7de8:	535f464f 	cmppl	pc, #82837504	; 0x4f00000
    7dec:	5f455a49 	svcpl	0x00455a49
    7df0:	205f5f54 	subscs	r5, pc, r4, asr pc	; <UNPREDICTABLE>
    7df4:	58450034 	stmdapl	r5, {r2, r4, r5}^
    7df8:	435f4954 	cmpmi	pc, #84, 18	; 0x150000
    7dfc:	5f004746 	svcpl	0x00004746
    7e00:	544e495f 	strbpl	r4, [lr], #-2399	; 0xfffff6a1
    7e04:	435f3436 	cmpmi	pc, #905969664	; 0x36000000
    7e08:	20296328 	eorcs	r6, r9, r8, lsr #6
    7e0c:	23232063 			; <UNDEFINED> instruction: 0x23232063
    7e10:	004c4c20 	subeq	r4, ip, r0, lsr #24
    7e14:	45564148 	ldrbmi	r4, [r6, #-328]	; 0xfffffeb8
    7e18:	494e495f 	stmdbmi	lr, {r0, r1, r2, r3, r4, r6, r8, fp, lr}^
    7e1c:	4e494654 	mcrmi	6, 2, r4, cr9, cr4, {2}
    7e20:	52415f49 	subpl	r5, r1, #292	; 0x124
    7e24:	20594152 	subscs	r4, r9, r2, asr r1
    7e28:	5f5f0031 	svcpl	0x005f0031
    7e2c:	6b636f6c 	blvs	18e3be4 <_Min_Stack_Size+0x18e37e4>
    7e30:	656c6261 	strbvs	r6, [ip, #-609]!	; 0xfffffd9f
    7e34:	6c5f5f20 	mrrcvs	15, 2, r5, pc, cr0	; <UNPREDICTABLE>
    7e38:	5f6b636f 	svcpl	0x006b636f
    7e3c:	6f6e6e61 	svcvs	0x006e6e61
    7e40:	65746174 	ldrbvs	r6, [r4, #-372]!	; 0xfffffe8c
    7e44:	636f6c28 	cmnvs	pc, #40, 24	; 0x2800
    7e48:	6c62616b 	stfvse	f6, [r2], #-428	; 0xfffffe54
    7e4c:	45002965 	strmi	r2, [r0, #-2405]	; 0xfffff69b
    7e50:	31495458 	cmpcc	r9, r8, asr r4
    7e54:	31435035 	cmpcc	r3, r5, lsr r0
    7e58:	45282035 	strmi	r2, [r8, #-53]!	; 0xffffffcb
    7e5c:	5f495458 	svcpl	0x00495458
    7e60:	4f495047 	svcmi	0x00495047
    7e64:	70614d5f 	rsbvc	r4, r1, pc, asr sp
    7e68:	676e6970 			; <UNDEFINED> instruction: 0x676e6970
    7e6c:	7b29745f 	blvc	a64ff0 <_Min_Stack_Size+0xa64bf0>
    7e70:	49545845 	ldmdbmi	r4, {r0, r2, r6, fp, ip, lr}^
    7e74:	202c3531 	eorcs	r3, ip, r1, lsr r5
    7e78:	4f495047 	svcmi	0x00495047
    7e7c:	47202c43 	strmi	r2, [r0, -r3, asr #24]!
    7e80:	5f4f4950 	svcpl	0x004f4950
    7e84:	5f4e4950 	svcpl	0x004e4950
    7e88:	202c3531 	eorcs	r3, ip, r1, lsr r5
    7e8c:	49545845 	ldmdbmi	r4, {r0, r2, r6, fp, ip, lr}^
    7e90:	495f3531 	ldmdbmi	pc, {r0, r4, r5, r8, sl, ip, sp}^	; <UNPREDICTABLE>
    7e94:	007d5152 	rsbseq	r5, sp, r2, asr r1
    7e98:	4e455f5f 	mcrmi	15, 2, r5, cr5, cr15, {2}
    7e9c:	45445f44 	strbmi	r5, [r4, #-3908]	; 0xfffff0bc
    7ea0:	20534c43 	subscs	r4, r3, r3, asr #24
    7ea4:	4c5f5f00 	mrrcmi	15, 0, r5, pc, cr0	; <UNPREDICTABLE>
    7ea8:	5f4c4244 	svcpl	0x004c4244
    7eac:	5f4e494d 	svcpl	0x004e494d
    7eb0:	2e32205f 	mrccs	0, 1, r2, cr2, cr15, {2}
    7eb4:	30353232 	eorscc	r3, r5, r2, lsr r2
    7eb8:	35383337 	ldrcc	r3, [r8, #-823]!	; 0xfffffcc9
    7ebc:	37303538 			; <UNDEFINED> instruction: 0x37303538
    7ec0:	34313032 	ldrtcc	r3, [r1], #-50	; 0xffffffce
    7ec4:	30332d65 	eorscc	r2, r3, r5, ror #26
    7ec8:	4e004c38 	mcrmi	12, 0, r4, cr0, cr8, {1}
    7ecc:	5f434956 	svcpl	0x00434956
    7ed0:	33495053 	movtcc	r5, #36947	; 0x9053
    7ed4:	5152495f 	cmppl	r2, pc, asr r9
    7ed8:	616e455f 	cmnvs	lr, pc, asr r5
    7edc:	20656c62 	rsbcs	r6, r5, r2, ror #24
    7ee0:	49564e28 	ldmdbmi	r6, {r3, r5, r9, sl, fp, lr}^
    7ee4:	53495f43 	movtpl	r5, #40771	; 0x9f43
    7ee8:	20315245 	eorscs	r5, r1, r5, asr #4
    7eec:	31203d7c 			; <UNDEFINED> instruction: 0x31203d7c
    7ef0:	53283c3c 			; <UNDEFINED> instruction: 0x53283c3c
    7ef4:	5f334950 	svcpl	0x00334950
    7ef8:	20515249 	subscs	r5, r1, r9, asr #4
    7efc:	3233202d 	eorscc	r2, r3, #45	; 0x2d
    7f00:	5f002929 	svcpl	0x00002929
    7f04:	4d52415f 	ldfmie	f4, [r2, #-380]	; 0xfffffe84
    7f08:	4145465f 	cmpmi	r5, pc, asr r6
    7f0c:	45525554 	ldrbmi	r5, [r2, #-1364]	; 0xfffffaac
    7f10:	4544435f 	strbmi	r4, [r4, #-863]	; 0xfffffca1
    7f14:	415f5f00 	cmpmi	pc, r0, lsl #30
    7f18:	4d554343 	ldclmi	3, cr4, [r5, #-268]	; 0xfffffef4
    7f1c:	4942495f 	stmdbmi	r2, {r0, r1, r2, r3, r4, r6, r8, fp, lr}^
    7f20:	205f5f54 	subscs	r5, pc, r4, asr pc	; <UNPREDICTABLE>
    7f24:	45003631 	strmi	r3, [r0, #-1585]	; 0xfffff9cf
    7f28:	31495458 	cmpcc	r9, r8, asr r4
    7f2c:	31425033 	cmpcc	r2, r3, lsr r0
    7f30:	45282033 	strmi	r2, [r8, #-51]!	; 0xffffffcd
    7f34:	5f495458 	svcpl	0x00495458
    7f38:	4f495047 	svcmi	0x00495047
    7f3c:	70614d5f 	rsbvc	r4, r1, pc, asr sp
    7f40:	676e6970 			; <UNDEFINED> instruction: 0x676e6970
    7f44:	7b29745f 	blvc	a650c8 <_Min_Stack_Size+0xa64cc8>
    7f48:	49545845 	ldmdbmi	r4, {r0, r2, r6, fp, ip, lr}^
    7f4c:	202c3331 	eorcs	r3, ip, r1, lsr r3
    7f50:	4f495047 	svcmi	0x00495047
    7f54:	47202c42 	strmi	r2, [r0, -r2, asr #24]!
    7f58:	5f4f4950 	svcpl	0x004f4950
    7f5c:	5f4e4950 	svcpl	0x004e4950
    7f60:	202c3331 	eorcs	r3, ip, r1, lsr r3
    7f64:	49545845 	ldmdbmi	r4, {r0, r2, r6, fp, ip, lr}^
    7f68:	495f3331 	ldmdbmi	pc, {r0, r4, r5, r8, r9, ip, sp}^	; <UNPREDICTABLE>
    7f6c:	007d5152 	rsbseq	r5, sp, r2, asr r1
    7f70:	69736e75 	ldmdbvs	r3!, {r0, r2, r4, r5, r6, r9, sl, fp, sp, lr}^
    7f74:	64656e67 	strbtvs	r6, [r5], #-3687	; 0xfffff199
    7f78:	434e4900 	movtmi	r4, #59648	; 0xe900
    7f7c:	4d54535f 	ldclmi	3, cr5, [r4, #-380]	; 0xfffffe84
    7f80:	465f3233 			; <UNDEFINED> instruction: 0x465f3233
    7f84:	43333031 	teqmi	r3, #49	; 0x31
    7f88:	52445f36 	subpl	r5, r4, #54, 30	; 0xd8
    7f8c:	52455649 	subpl	r5, r5, #76546048	; 0x4900000
    7f90:	58455f53 	stmdapl	r5, {r0, r1, r4, r6, r8, r9, sl, fp, ip, lr}^
    7f94:	485f4954 	ldmdami	pc, {r2, r4, r6, r8, fp, lr}^	; <UNPREDICTABLE>
    7f98:	5200205f 	andpl	r2, r0, #95	; 0x5f
    7f9c:	555f4343 	ldrbpl	r4, [pc, #-835]	; 7c61 <_Min_Stack_Size+0x7861>
    7fa0:	54524153 	ldrbpl	r4, [r2], #-339	; 0xfffffead
    7fa4:	4c435f33 	mcrrmi	15, 3, r5, r3, cr3
    7fa8:	65725f4b 	ldrbvs	r5, [r2, #-3915]!	; 0xfffff0b5
    7fac:	28746573 	ldmdacs	r4!, {r0, r1, r4, r5, r6, r8, sl, sp, lr}^
    7fb0:	52282029 	eorpl	r2, r8, #41	; 0x29
    7fb4:	3e2d4343 	cdpcc	3, 2, cr4, cr13, cr3, {2}
    7fb8:	31425041 	cmpcc	r2, r1, asr #32
    7fbc:	52545352 	subspl	r5, r4, #1207959553	; 0x48000001
    7fc0:	203d7c20 	eorscs	r7, sp, r0, lsr #24
    7fc4:	3c3c3128 	ldfccs	f3, [ip], #-160	; 0xffffff60
    7fc8:	29293831 	stmdbcs	r9!, {r0, r4, r5, fp, ip, sp}
    7fcc:	49504700 	ldmdbmi	r0, {r8, r9, sl, lr}^
    7fd0:	49505f4f 	ldmdbmi	r0, {r0, r1, r2, r3, r6, r8, r9, sl, fp, ip, lr}^
    7fd4:	20305f4e 	eorscs	r5, r0, lr, asr #30
    7fd8:	69752828 	ldmdbvs	r5!, {r3, r5, fp, sp}^
    7fdc:	3631746e 	ldrtcc	r7, [r1], -lr, ror #8
    7fe0:	2029745f 	eorcs	r7, r9, pc, asr r4
    7fe4:	30307830 	eorscc	r7, r0, r0, lsr r8
    7fe8:	00293130 	eoreq	r3, r9, r0, lsr r1
    7fec:	74705f5f 	ldrbtvc	r5, [r0], #-3935	; 0xfffff0a1
    7ff0:	6175675f 	cmnvs	r5, pc, asr r7
    7ff4:	64656472 	strbtvs	r6, [r5], #-1138	; 0xfffffb8e
    7ff8:	2879625f 	ldmdacs	r9!, {r0, r1, r2, r3, r4, r6, r9, sp, lr}^
    7ffc:	5f202978 	svcpl	0x00202978
    8000:	636f6c5f 	cmnvs	pc, #24320	; 0x5f00
    8004:	6e615f6b 	cdpvs	15, 6, cr5, cr1, cr11, {3}
    8008:	61746f6e 	cmnvs	r4, lr, ror #30
    800c:	70286574 	eorvc	r6, r8, r4, ror r5
    8010:	75675f74 	strbvc	r5, [r7, #-3956]!	; 0xfffff08c
    8014:	65647261 	strbvs	r7, [r4, #-609]!	; 0xfffffd9f
    8018:	79625f64 	stmdbvc	r2!, {r2, r5, r6, r8, r9, sl, fp, ip, lr}^
    801c:	29297828 	stmdbcs	r9!, {r3, r5, fp, ip, sp, lr}
    8020:	53504900 	cmppl	r0, #0, 18
    8024:	756f5f52 	strbvc	r5, [pc, #-3922]!	; 70da <_Min_Stack_Size+0x6cda>
    8028:	58450074 	stmdapl	r5, {r2, r4, r5, r6}^
    802c:	32314954 	eorscc	r4, r1, #84, 18	; 0x150000
    8030:	5152495f 	cmppl	r2, pc, asr r9
    8034:	00303420 	eorseq	r3, r0, r0, lsr #8
    8038:	4e475f5f 	mcrmi	15, 2, r5, cr7, cr15, {2}
    803c:	494c4355 	stmdbmi	ip, {r0, r2, r4, r6, r8, r9, lr}^
    8040:	5f5f454b 	svcpl	0x005f454b
    8044:	46464f5f 			; <UNDEFINED> instruction: 0x46464f5f
    8048:	4f544553 	svcmi	0x00544553
    804c:	00312046 	eorseq	r2, r1, r6, asr #32
    8050:	49555f5f 	ldmdbmi	r5, {r0, r1, r2, r3, r4, r6, r8, r9, sl, fp, ip, lr}^
    8054:	3631544e 	ldrtcc	r5, [r1], -lr, asr #8
    8058:	6328435f 			; <UNDEFINED> instruction: 0x6328435f
    805c:	00632029 	rsbeq	r2, r3, r9, lsr #32
    8060:	4c465f5f 	mcrrmi	15, 5, r5, r6, cr15
    8064:	5f343654 	svcpl	0x00343654
    8068:	5f4e494d 	svcpl	0x004e494d
    806c:	5f505845 	svcpl	0x00505845
    8070:	2d28205f 	stccs	0, cr2, [r8, #-380]!	; 0xfffffe84
    8074:	31323031 	teqcc	r2, r1, lsr r0
    8078:	5f5f0029 	svcpl	0x005f0029
    807c:	5f6d7973 	svcpl	0x006d7973
    8080:	706d6f63 	rsbvc	r6, sp, r3, ror #30
    8084:	73287461 			; <UNDEFINED> instruction: 0x73287461
    8088:	692c6d79 	stmdbvs	ip!, {r0, r3, r4, r5, r6, r8, sl, fp, sp, lr}
    808c:	2c6c706d 	stclcs	0, cr7, [ip], #-436	; 0xfffffe4c
    8090:	69726576 	ldmdbvs	r2!, {r1, r2, r4, r5, r6, r8, sl, sp, lr}^
    8094:	5f202964 	svcpl	0x00202964
    8098:	6d73615f 	ldfvse	f6, [r3, #-380]!	; 0xfffffe84
    809c:	22285f5f 	eorcs	r5, r8, #380	; 0x17c
    80a0:	6d79732e 	ldclvs	3, cr7, [r9, #-184]!	; 0xffffff48
    80a4:	20726576 	rsbscs	r6, r2, r6, ror r5
    80a8:	69232022 	stmdbvs	r3!, {r1, r5, sp}
    80ac:	206c706d 	rsbcs	r7, ip, sp, rrx
    80b0:	22202c22 	eorcs	r2, r0, #8704	; 0x2200
    80b4:	79732320 	ldmdbvc	r3!, {r5, r8, r9, sp}^
    80b8:	4022206d 	eormi	r2, r2, sp, rrx
    80bc:	76232022 	strtvc	r2, [r3], -r2, lsr #32
    80c0:	64697265 	strbtvs	r7, [r9], #-613	; 0xfffffd9b
    80c4:	5f5f0029 	svcpl	0x005f0029
    80c8:	535f4343 	cmppl	pc, #201326593	; 0xc000001
    80cc:	4f505055 	svcmi	0x00505055
    80d0:	5f535452 	svcpl	0x00535452
    80d4:	4e495f5f 	mcrmi	15, 2, r5, cr9, cr15, {2}
    80d8:	454e494c 	strbmi	r4, [lr, #-2380]	; 0xfffff6b4
    80dc:	31205f5f 			; <UNDEFINED> instruction: 0x31205f5f
    80e0:	555f5f00 	ldrbpl	r5, [pc, #-3840]	; 71e8 <_Min_Stack_Size+0x6de8>
    80e4:	495f4144 	ldmdbmi	pc, {r2, r6, r8, lr}^	; <UNPREDICTABLE>
    80e8:	5f544942 	svcpl	0x00544942
    80ec:	3233205f 	eorscc	r2, r3, #95	; 0x5f
    80f0:	4c5f5f00 	mrrcmi	15, 0, r5, pc, cr0	; <UNPREDICTABLE>
    80f4:	54534145 	ldrbpl	r4, [r3], #-325	; 0xfffffebb
    80f8:	22203631 	eorcs	r3, r0, #51380224	; 0x3100000
    80fc:	5f002268 	svcpl	0x00002268
    8100:	6972705f 	ldmdbvs	r2!, {r0, r1, r2, r3, r4, r6, ip, sp, lr}^
    8104:	6c66746e 	cfstrdvs	mvd7, [r6], #-440	; 0xfffffe48
    8108:	28656b69 	stmdacs	r5!, {r0, r3, r5, r6, r8, r9, fp, sp, lr}^
    810c:	61746d66 	cmnvs	r4, r6, ror #26
    8110:	662c6772 			; <UNDEFINED> instruction: 0x662c6772
    8114:	74737269 	ldrbtvc	r7, [r3], #-617	; 0xfffffd97
    8118:	61726176 	cmnvs	r2, r6, ror r1
    811c:	20296772 	eorcs	r6, r9, r2, ror r7
    8120:	74615f5f 	strbtvc	r5, [r1], #-3935	; 0xfffff0a1
    8124:	62697274 	rsbvs	r7, r9, #116, 4	; 0x40000007
    8128:	5f657475 	svcpl	0x00657475
    812c:	5f28285f 	svcpl	0x0028285f
    8130:	726f665f 	rsbvc	r6, pc, #99614720	; 0x5f00000
    8134:	5f74616d 	svcpl	0x0074616d
    8138:	5f28205f 	svcpl	0x0028205f
    813c:	6972705f 	ldmdbvs	r2!, {r0, r1, r2, r3, r4, r6, ip, sp, lr}^
    8140:	5f66746e 	svcpl	0x0066746e
    8144:	66202c5f 			; <UNDEFINED> instruction: 0x66202c5f
    8148:	7261746d 	rsbvc	r7, r1, #1828716544	; 0x6d000000
    814c:	66202c67 	strtvs	r2, [r0], -r7, ror #24
    8150:	74737269 	ldrbtvc	r7, [r3], #-617	; 0xfffffd97
    8154:	61726176 	cmnvs	r2, r6, ror r1
    8158:	29296772 	stmdbcs	r9!, {r1, r4, r5, r6, r8, r9, sl, sp, lr}
    815c:	5f5f0029 	svcpl	0x005f0029
    8160:	495f4f4e 	ldmdbmi	pc, {r1, r2, r3, r6, r8, r9, sl, fp, lr}^	; <UNPREDICTABLE>
    8164:	4e494c4e 	cdpmi	12, 4, cr4, cr9, cr14, {2}
    8168:	205f5f45 	subscs	r5, pc, r5, asr #30
    816c:	564e0031 			; <UNDEFINED> instruction: 0x564e0031
    8170:	535f4349 	cmppl	pc, #603979777	; 0x24000001
    8174:	5f324950 	svcpl	0x00324950
    8178:	5f515249 	svcpl	0x00515249
    817c:	62616e45 	rsbvs	r6, r1, #1104	; 0x450
    8180:	2820656c 	stmdacs	r0!, {r2, r3, r5, r6, r8, sl, sp, lr}
    8184:	4349564e 	movtmi	r5, #38478	; 0x964e
    8188:	4553495f 	ldrbmi	r4, [r3, #-2399]	; 0xfffff6a1
    818c:	7c203152 	stfvcs	f3, [r0], #-328	; 0xfffffeb8
    8190:	3c31203d 	ldccc	0, cr2, [r1], #-244	; 0xffffff0c
    8194:	5053283c 	subspl	r2, r3, ip, lsr r8
    8198:	495f3249 	ldmdbmi	pc, {r0, r3, r6, r9, ip, sp}^	; <UNPREDICTABLE>
    819c:	2d205152 	stfcss	f5, [r0, #-328]!	; 0xfffffeb8
    81a0:	29323320 	ldmdbcs	r2!, {r5, r8, r9, ip, sp}
    81a4:	5f5f0029 	svcpl	0x005f0029
    81a8:	74736166 	ldrbtvc	r6, [r3], #-358	; 0xfffffe9a
    81ac:	6c6c6163 	stfvse	f6, [ip], #-396	; 0xfffffe74
    81b0:	615f5f20 	cmpvs	pc, r0, lsr #30
    81b4:	69727474 	ldmdbvs	r2!, {r2, r4, r5, r6, sl, ip, sp, lr}^
    81b8:	65747562 	ldrbvs	r7, [r4, #-1378]!	; 0xfffffa9e
    81bc:	28285f5f 	stmdacs	r8!, {r0, r1, r2, r3, r4, r6, r8, r9, sl, fp, ip, lr}
    81c0:	61665f5f 	cmnvs	r6, pc, asr pc
    81c4:	61637473 	smcvs	14147	; 0x3743
    81c8:	5f5f6c6c 	svcpl	0x005f6c6c
    81cc:	49002929 	stmdbmi	r0, {r0, r3, r5, r8, fp, sp}
    81d0:	3436544e 	ldrtcc	r5, [r6], #-1102	; 0xfffffbb2
    81d4:	4e494d5f 	mcrmi	13, 2, r4, cr9, cr15, {2}
    81d8:	5f2d2820 	svcpl	0x002d2820
    81dc:	544e495f 	strbpl	r4, [lr], #-2399	; 0xfffff6a1
    81e0:	4d5f3436 	cfldrdmi	mvd3, [pc, #-216]	; 8110 <_Min_Stack_Size+0x7d10>
    81e4:	5f5f5841 	svcpl	0x005f5841
    81e8:	31202d20 			; <UNDEFINED> instruction: 0x31202d20
    81ec:	5f5f0029 	svcpl	0x005f0029
    81f0:	6b636f6c 	blvs	18e3fa8 <_Min_Stack_Size+0x18e3ba8>
    81f4:	6e6e615f 	mcrvs	1, 3, r6, cr14, cr15, {2}
    81f8:	7461746f 	strbtvc	r7, [r1], #-1135	; 0xfffffb91
    81fc:	29782865 	ldmdbcs	r8!, {r0, r2, r5, r6, fp, sp}^
    8200:	4c5f0020 	mrrcmi	0, 2, r0, pc, cr0	; <UNPREDICTABLE>
    8204:	5f455449 	svcpl	0x00455449
    8208:	54495845 	strbpl	r5, [r9], #-2117	; 0xfffff7bb
    820c:	5f003120 	svcpl	0x00003120
    8210:	4f54415f 	svcmi	0x0054415f
    8214:	5f43494d 	svcpl	0x0043494d
    8218:	414c4552 	cmpmi	ip, r2, asr r5
    821c:	20444558 	subcs	r4, r4, r8, asr r5
    8220:	415f0030 	cmpmi	pc, r0, lsr r0	; <UNPREDICTABLE>
    8224:	49525454 	ldmdbmi	r2, {r2, r4, r6, sl, ip, lr}^
    8228:	45545542 	ldrbmi	r5, [r4, #-1346]	; 0xfffffabe
    822c:	74746128 	ldrbtvc	r6, [r4], #-296	; 0xfffffed8
    8230:	20297372 	eorcs	r7, r9, r2, ror r3
    8234:	74615f5f 	strbtvc	r5, [r1], #-3935	; 0xfffff0a1
    8238:	62697274 	rsbvs	r7, r9, #116, 4	; 0x40000007
    823c:	5f657475 	svcpl	0x00657475
    8240:	6128205f 	qsubvs	r2, pc, r8	; <UNPREDICTABLE>
    8244:	73727474 	cmnvc	r2, #116, 8	; 0x74000000
    8248:	5f5f0029 	svcpl	0x005f0029
    824c:	5f4d5241 	svcpl	0x004d5241
    8250:	54414546 	strbpl	r4, [r1], #-1350	; 0xfffffaba
    8254:	5f455255 	svcpl	0x00455255
    8258:	52504f43 	subspl	r4, r0, #268	; 0x10c
    825c:	5f00434f 	svcpl	0x0000434f
    8260:	5341465f 	movtpl	r4, #5727	; 0x165f
    8264:	00203854 	eoreq	r3, r0, r4, asr r8
    8268:	54415f5f 	strbpl	r5, [r1], #-3935	; 0xfffff0a1
    826c:	42495254 	submi	r5, r9, #84, 4	; 0x40000005
    8270:	5f455455 	svcpl	0x00455455
    8274:	55504d49 	ldrbpl	r4, [r0, #-3401]	; 0xfffff2b7
    8278:	505f4552 	subspl	r4, pc, r2, asr r5	; <UNPREDICTABLE>
    827c:	5f5f5254 	svcpl	0x005f5254
    8280:	5f5f0020 	svcpl	0x005f0020
    8284:	5f4c4244 	svcpl	0x004c4244
    8288:	5f534148 	svcpl	0x00534148
    828c:	49464e49 	stmdbmi	r6, {r0, r3, r6, r9, sl, fp, lr}^
    8290:	5954494e 	ldmdbpl	r4, {r1, r2, r3, r6, r8, fp, lr}^
    8294:	31205f5f 			; <UNDEFINED> instruction: 0x31205f5f
    8298:	535f5f00 	cmppl	pc, #0, 30
    829c:	415f4749 	cmpmi	pc, r9, asr #14
    82a0:	494d4f54 	stmdbmi	sp, {r2, r4, r6, r8, r9, sl, fp, lr}^
    82a4:	414d5f43 	cmpmi	sp, r3, asr #30
    82a8:	205f5f58 	subscs	r5, pc, r8, asr pc	; <UNPREDICTABLE>
    82ac:	66377830 			; <UNDEFINED> instruction: 0x66377830
    82b0:	66666666 	strbtvs	r6, [r6], -r6, ror #12
    82b4:	5f006666 	svcpl	0x00006666
    82b8:	444e4152 	strbmi	r4, [lr], #-338	; 0xfffffeae
    82bc:	4d5f3834 	ldclmi	8, cr3, [pc, #-208]	; 81f4 <_Min_Stack_Size+0x7df4>
    82c0:	5f544c55 	svcpl	0x00544c55
    82c4:	30282030 	eorcc	r2, r8, r0, lsr r0
    82c8:	36366578 			; <UNDEFINED> instruction: 0x36366578
    82cc:	47002964 	strmi	r2, [r0, -r4, ror #18]
    82d0:	5f4f4950 	svcpl	0x004f4950
    82d4:	45444f4d 	strbmi	r4, [r4, #-3917]	; 0xfffff0b3
    82d8:	504e495f 	subpl	r4, lr, pc, asr r9
    82dc:	415f5455 	cmpmi	pc, r5, asr r4	; <UNPREDICTABLE>
    82e0:	78302046 	ldmdavc	r0!, {r1, r2, r6, sp}
    82e4:	30303030 	eorscc	r3, r0, r0, lsr r0
    82e8:	38303030 	ldmdacc	r0!, {r4, r5, ip, sp}
    82ec:	45525f00 	ldrbmi	r5, [r2, #-3840]	; 0xfffff100
    82f0:	5f544e45 	svcpl	0x00544e45
    82f4:	43454843 	movtmi	r4, #22595	; 0x5843
    82f8:	41525f4b 	cmpmi	r2, fp, asr #30
    82fc:	3834444e 	ldmdacc	r4!, {r1, r2, r3, r6, sl, lr}
    8300:	72617628 	rsbvc	r7, r1, #40, 12	; 0x2800000
    8304:	525f2029 	subspl	r2, pc, #41	; 0x29
    8308:	544e4545 	strbpl	r4, [lr], #-1349	; 0xfffffabb
    830c:	4548435f 	strbmi	r4, [r8, #-863]	; 0xfffffca1
    8310:	76284b43 	strtvc	r4, [r8], -r3, asr #22
    8314:	202c7261 	eorcs	r7, ip, r1, ror #4
    8318:	3834725f 	ldmdacc	r4!, {r0, r1, r2, r3, r4, r6, r9, ip, sp, lr}
    831c:	7473202c 	ldrbtvc	r2, [r3], #-44	; 0xffffffd4
    8320:	74637572 	strbtvc	r7, [r3], #-1394	; 0xfffffa8e
    8324:	61725f20 	cmnvs	r2, r0, lsr #30
    8328:	3834646e 	ldmdacc	r4!, {r1, r2, r3, r5, r6, sl, sp, lr}
    832c:	202c2a20 	eorcs	r2, ip, r0, lsr #20
    8330:	657a6973 	ldrbvs	r6, [sl, #-2419]!	; 0xfffff68d
    8334:	2a20666f 	bcs	821cf8 <_Min_Stack_Size+0x8218f8>
    8338:	61762828 	cmnvs	r6, r8, lsr #16
    833c:	3e2d2972 			; <UNDEFINED> instruction: 0x3e2d2972
    8340:	3834725f 	ldmdacc	r4!, {r0, r1, r2, r3, r4, r6, r9, ip, sp, lr}
    8344:	5f202c29 	svcpl	0x00202c29
    8348:	4e454552 	mcrmi	5, 2, r4, cr5, cr2, {2}
    834c:	4e495f54 	mcrmi	15, 2, r5, cr9, cr4, {2}
    8350:	525f5449 	subspl	r5, pc, #1224736768	; 0x49000000
    8354:	34444e41 	strbcc	r4, [r4], #-3649	; 0xfffff1bf
    8358:	76282838 			; <UNDEFINED> instruction: 0x76282838
    835c:	29297261 	stmdbcs	r9!, {r0, r5, r6, r9, ip, sp, lr}
    8360:	525f0029 	subspl	r0, pc, #41	; 0x29
    8364:	52415445 	subpl	r5, r1, #1157627904	; 0x45000000
    8368:	41544547 	cmpmi	r4, r7, asr #10
    836c:	5f454c42 	svcpl	0x00454c42
    8370:	4b434f4c 	blmi	10dc0a8 <_Min_Stack_Size+0x10dbca8>
    8374:	20474e49 	subcs	r4, r7, r9, asr #28
    8378:	58450031 	stmdapl	r5, {r0, r4, r5}^
    837c:	50394954 	eorspl	r4, r9, r4, asr r9
    8380:	28203943 	stmdacs	r0!, {r0, r1, r6, r8, fp, ip, sp}
    8384:	49545845 	ldmdbmi	r4, {r0, r2, r6, fp, ip, lr}^
    8388:	4950475f 	ldmdbmi	r0, {r0, r1, r2, r3, r4, r6, r8, r9, sl, lr}^
    838c:	614d5f4f 	cmpvs	sp, pc, asr #30
    8390:	6e697070 	mcrvs	0, 3, r7, cr9, cr0, {3}
    8394:	29745f67 	ldmdbcs	r4!, {r0, r1, r2, r5, r6, r8, r9, sl, fp, ip, lr}^
    8398:	5458457b 	ldrbpl	r4, [r8], #-1403	; 0xfffffa85
    839c:	202c3949 	eorcs	r3, ip, r9, asr #18
    83a0:	4f495047 	svcmi	0x00495047
    83a4:	47202c43 	strmi	r2, [r0, -r3, asr #24]!
    83a8:	5f4f4950 	svcpl	0x004f4950
    83ac:	5f4e4950 	svcpl	0x004e4950
    83b0:	45202c39 	strmi	r2, [r0, #-3129]!	; 0xfffff3c7
    83b4:	39495458 	stmdbcc	r9, {r3, r4, r6, sl, ip, lr}^
    83b8:	5152495f 	cmppl	r2, pc, asr r9
    83bc:	5845007d 	stmdapl	r5, {r0, r2, r3, r4, r5, r6}^
    83c0:	5f374954 	svcpl	0x00374954
    83c4:	20515249 	subscs	r5, r1, r9, asr #4
    83c8:	5f003332 	svcpl	0x00003332
    83cc:	6e61725f 	mcrvs	2, 3, r7, cr1, cr15, {2}
    83d0:	666f6567 	strbtvs	r6, [pc], -r7, ror #10
    83d4:	70797428 	rsbsvc	r7, r9, r8, lsr #8
    83d8:	74732c65 	ldrbtvc	r2, [r3], #-3173	; 0xfffff39b
    83dc:	2c747261 	lfmcs	f7, 2, [r4], #-388	; 0xfffffe7c
    83e0:	29646e65 	stmdbcs	r4!, {r0, r2, r5, r6, r9, sl, fp, sp, lr}^
    83e4:	5f5f2820 	svcpl	0x005f2820
    83e8:	7366666f 	cmnvc	r6, #116391936	; 0x6f00000
    83ec:	666f7465 	strbtvs	r7, [pc], -r5, ror #8
    83f0:	70797428 	rsbsvc	r7, r9, r8, lsr #8
    83f4:	65202c65 	strvs	r2, [r0, #-3173]!	; 0xfffff39b
    83f8:	2029646e 	eorcs	r6, r9, lr, ror #8
    83fc:	5f5f202d 	svcpl	0x005f202d
    8400:	7366666f 	cmnvc	r6, #116391936	; 0x6f00000
    8404:	666f7465 	strbtvs	r7, [pc], -r5, ror #8
    8408:	70797428 	rsbsvc	r7, r9, r8, lsr #8
    840c:	73202c65 			; <UNDEFINED> instruction: 0x73202c65
    8410:	74726174 	ldrbtvc	r6, [r2], #-372	; 0xfffffe8c
    8414:	5f002929 	svcpl	0x00002929
    8418:	4c4c554e 	cfstr64mi	mvdx5, [ip], {78}	; 0x4e
    841c:	4e003020 	cdpmi	0, 0, cr3, cr0, cr0, {1}
    8420:	5f434956 	svcpl	0x00434956
    8424:	31495053 	qdaddcc	r5, r3, r9
    8428:	5152495f 	cmppl	r2, pc, asr r9
    842c:	616e455f 	cmnvs	lr, pc, asr r5
    8430:	20656c62 	rsbcs	r6, r5, r2, ror #24
    8434:	49564e28 	ldmdbmi	r6, {r3, r5, r9, sl, fp, lr}^
    8438:	53495f43 	movtpl	r5, #40771	; 0x9f43
    843c:	20315245 	eorscs	r5, r1, r5, asr #4
    8440:	31203d7c 			; <UNDEFINED> instruction: 0x31203d7c
    8444:	53283c3c 			; <UNDEFINED> instruction: 0x53283c3c
    8448:	5f314950 	svcpl	0x00314950
    844c:	20515249 	subscs	r5, r1, r9, asr #4
    8450:	3233202d 	eorscc	r2, r3, #45	; 0x2d
    8454:	5f002929 	svcpl	0x00002929
    8458:	4d52415f 	ldfmie	f4, [r2, #-380]	; 0xfffffe84
    845c:	4352415f 	cmpmi	r2, #-1073741801	; 0xc0000017
    8460:	58455f48 	stmdapl	r5, {r3, r6, r8, r9, sl, fp, ip, lr}^
    8464:	44495f54 	strbmi	r5, [r9], #-3924	; 0xfffff0ac
    8468:	5f5f5649 	svcpl	0x005f5649
    846c:	70003120 	andvc	r3, r0, r0, lsr #2
    8470:	74697261 	strbtvc	r7, [r9], #-609	; 0xfffffd9f
    8474:	646f5f79 	strbtvs	r5, [pc], #-3961	; 847c <_Min_Stack_Size+0x807c>
    8478:	75282064 	strvc	r2, [r8, #-100]!	; 0xffffff9c
    847c:	33746e69 	cmncc	r4, #1680	; 0x690
    8480:	29745f32 	ldmdbcs	r4!, {r1, r4, r5, r8, r9, sl, fp, ip, lr}^
    8484:	3c3c3128 	ldfccs	f3, [ip], #-160	; 0xffffff60
    8488:	7c203031 	stcvc	0, cr3, [r0], #-196	; 0xffffff3c
    848c:	3c3c3120 	ldfccs	f3, [ip], #-128	; 0xffffff80
    8490:	55002939 	strpl	r2, [r0, #-2361]	; 0xfffff6c7
    8494:	38544e49 	ldmdacc	r4, {r0, r3, r6, r9, sl, fp, lr}^
    8498:	7828435f 	stmdavc	r8!, {r0, r1, r2, r3, r4, r6, r8, r9, lr}
    849c:	5f5f2029 	svcpl	0x005f2029
    84a0:	544e4955 	strbpl	r4, [lr], #-2389	; 0xfffff6ab
    84a4:	28435f38 	stmdacs	r3, {r3, r4, r5, r8, r9, sl, fp, ip, lr}^
    84a8:	5f002978 	svcpl	0x00002978
    84ac:	65656e5f 	strbvs	r6, [r5, #-3679]!	; 0xfffff1a1
    84b0:	74705f64 	ldrbtvc	r5, [r0], #-3940	; 0xfffff09c
    84b4:	66696472 			; <UNDEFINED> instruction: 0x66696472
    84b8:	00745f66 	rsbseq	r5, r4, r6, ror #30
    84bc:	42445f5f 	submi	r5, r4, #380	; 0x17c
    84c0:	45445f4c 	strbmi	r5, [r4, #-3916]	; 0xfffff0b4
    84c4:	414d4943 	cmpmi	sp, r3, asr #18
    84c8:	49445f4c 	stmdbmi	r4, {r2, r3, r6, r8, r9, sl, fp, ip, lr}^
    84cc:	205f5f47 	subscs	r5, pc, r7, asr #30
    84d0:	5f003731 	svcpl	0x00003731
    84d4:	4d52415f 	ldfmie	f4, [r2, #-380]	; 0xfffffe84
    84d8:	4145465f 	cmpmi	r5, pc, asr r6
    84dc:	45525554 	ldrbmi	r5, [r2, #-1364]	; 0xfffffaac
    84e0:	5441535f 	strbpl	r5, [r1], #-863	; 0xfffffca1
    84e4:	5f003120 	svcpl	0x00003120
    84e8:	7661685f 			; <UNDEFINED> instruction: 0x7661685f
    84ec:	6f6c5f65 	svcvs	0x006c5f65
    84f0:	3233676e 	eorscc	r6, r3, #28835840	; 0x1b80000
    84f4:	49003120 	stmdbmi	r0, {r5, r8, ip, sp}
    84f8:	4c5f544e 	cfldrdmi	mvd5, [pc], {78}	; 0x4e
    84fc:	54534145 	ldrbpl	r4, [r3], #-325	; 0xfffffebb
    8500:	494d5f38 	stmdbmi	sp, {r3, r4, r5, r8, r9, sl, fp, ip, lr}^
    8504:	2d28204e 	stccs	0, cr2, [r8, #-312]!	; 0xfffffec8
    8508:	4e495f5f 	mcrmi	15, 2, r5, cr9, cr15, {2}
    850c:	454c5f54 	strbmi	r5, [ip, #-3924]	; 0xfffff0ac
    8510:	38545341 	ldmdacc	r4, {r0, r6, r8, r9, ip, lr}^
    8514:	58414d5f 	stmdapl	r1, {r0, r1, r2, r3, r4, r6, r8, sl, fp, lr}^
    8518:	2d205f5f 	stccs	15, cr5, [r0, #-380]!	; 0xfffffe84
    851c:	00293120 	eoreq	r3, r9, r0, lsr #2
    8520:	4f4c475f 	svcmi	0x004c475f
    8524:	5f4c4142 	svcpl	0x004c4142
    8528:	4e454552 	mcrmi	5, 2, r4, cr5, cr2, {2}
    852c:	675f2054 			; <UNDEFINED> instruction: 0x675f2054
    8530:	61626f6c 	cmnvs	r2, ip, ror #30
    8534:	6d695f6c 	stclvs	15, cr5, [r9, #-432]!	; 0xfffffe50
    8538:	65727570 	ldrbvs	r7, [r2, #-1392]!	; 0xfffffa90
    853c:	7274705f 	rsbsvc	r7, r4, #95	; 0x5f
    8540:	555f5f00 	ldrbpl	r5, [pc, #-3840]	; 7648 <_Min_Stack_Size+0x7248>
    8544:	4343414c 	movtmi	r4, #12620	; 0x314c
    8548:	465f4d55 			; <UNDEFINED> instruction: 0x465f4d55
    854c:	5f544942 	svcpl	0x00544942
    8550:	3233205f 	eorscc	r2, r3, #95	; 0x5f
    8554:	665f5f00 	ldrbvs	r5, [pc], -r0, lsl #30
    8558:	6178656c 	cmnvs	r8, ip, ror #10
    855c:	5b207272 	blpl	824f2c <_Min_Stack_Size+0x824b2c>
    8560:	4e005d30 	mcrmi	13, 0, r5, cr0, cr0, {1}
    8564:	5f434956 	svcpl	0x00434956
    8568:	65736142 	ldrbvs	r6, [r3, #-322]!	; 0xfffffebe
    856c:	45783020 	ldrbmi	r3, [r8, #-32]!	; 0xffffffe0
    8570:	45303030 	ldrmi	r3, [r0, #-48]!	; 0xffffffd0
    8574:	75303031 	ldrvc	r3, [r0, #-49]!	; 0xffffffcf
    8578:	42484100 	submi	r4, r8, #0, 2
    857c:	00524e45 	subseq	r4, r2, r5, asr #28
    8580:	544e4955 	strbpl	r4, [lr], #-2389	; 0xfffff6ab
    8584:	435f3436 	cmpmi	pc, #905969664	; 0x36000000
    8588:	20297828 	eorcs	r7, r9, r8, lsr #16
    858c:	49555f5f 	ldmdbmi	r5, {r0, r1, r2, r3, r4, r6, r8, r9, sl, fp, ip, lr}^
    8590:	3436544e 	ldrtcc	r5, [r6], #-1102	; 0xfffffbb2
    8594:	7828435f 	stmdavc	r8!, {r0, r1, r2, r3, r4, r6, r8, r9, lr}
    8598:	525f0029 	subspl	r0, pc, #41	; 0x29
    859c:	544e4545 	strbpl	r4, [lr], #-1349	; 0xfffffabb
    85a0:	494e495f 	stmdbmi	lr, {r0, r1, r2, r3, r4, r6, r8, fp, lr}^
    85a4:	54505f54 	ldrbpl	r5, [r0], #-3924	; 0xfffff0ac
    85a8:	455a5f52 	ldrbmi	r5, [sl, #-3922]	; 0xfffff0ae
    85ac:	44454f52 	strbmi	r4, [r5], #-3922	; 0xfffff0ae
    85b0:	72617628 	rsbvc	r7, r1, #40, 12	; 0x2800000
    85b4:	207b2029 	rsbscs	r2, fp, r9, lsr #32
    85b8:	72617628 	rsbvc	r7, r1, #40, 12	; 0x2800000
    85bc:	5f3e2d29 	svcpl	0x003e2d29
    85c0:	69647473 	stmdbvs	r4!, {r0, r1, r4, r5, r6, sl, ip, sp, lr}^
    85c4:	203d206e 	eorscs	r2, sp, lr, rrx
    85c8:	465f5f28 	ldrbmi	r5, [pc], -r8, lsr #30
    85cc:	20454c49 	subcs	r4, r5, r9, asr #24
    85d0:	5f26292a 	svcpl	0x0026292a
    85d4:	5f66735f 	svcpl	0x0066735f
    85d8:	656b6166 	strbvs	r6, [fp, #-358]!	; 0xfffffe9a
    85dc:	6474735f 	ldrbtvs	r7, [r4], #-863	; 0xfffffca1
    85e0:	203b6e69 	eorscs	r6, fp, r9, ror #28
    85e4:	72617628 	rsbvc	r7, r1, #40, 12	; 0x2800000
    85e8:	5f3e2d29 	svcpl	0x003e2d29
    85ec:	6f647473 	svcvs	0x00647473
    85f0:	3d207475 	cfstrscc	mvf7, [r0, #-468]!	; 0xfffffe2c
    85f4:	5f5f2820 	svcpl	0x005f2820
    85f8:	454c4946 	strbmi	r4, [ip, #-2374]	; 0xfffff6ba
    85fc:	26292a20 	strtcs	r2, [r9], -r0, lsr #20
    8600:	66735f5f 	uhsaxvs	r5, r3, pc	; <UNPREDICTABLE>
    8604:	6b61665f 	blvs	1861f88 <_Min_Stack_Size+0x1861b88>
    8608:	74735f65 	ldrbtvc	r5, [r3], #-3941	; 0xfffff09b
    860c:	74756f64 	ldrbtvc	r6, [r5], #-3940	; 0xfffff09c
    8610:	7628203b 			; <UNDEFINED> instruction: 0x7628203b
    8614:	2d297261 	sfmcs	f7, 4, [r9, #-388]!	; 0xfffffe7c
    8618:	74735f3e 	ldrbtvc	r5, [r3], #-3902	; 0xfffff0c2
    861c:	72726564 	rsbsvc	r6, r2, #100, 10	; 0x19000000
    8620:	28203d20 	stmdacs	r0!, {r5, r8, sl, fp, ip, sp}
    8624:	49465f5f 	stmdbmi	r6, {r0, r1, r2, r3, r4, r6, r8, r9, sl, fp, ip, lr}^
    8628:	2a20454c 	bcs	819b60 <_Min_Stack_Size+0x819760>
    862c:	5f5f2629 	svcpl	0x005f2629
    8630:	665f6673 			; <UNDEFINED> instruction: 0x665f6673
    8634:	5f656b61 	svcpl	0x00656b61
    8638:	65647473 	strbvs	r7, [r4, #-1139]!	; 0xfffffb8d
    863c:	203b7272 	eorscs	r7, fp, r2, ror r2
    8640:	5f5f007d 	svcpl	0x005f007d
    8644:	31544e49 	cmpcc	r4, r9, asr #28
    8648:	414d5f36 	cmpmi	sp, r6, lsr pc
    864c:	205f5f58 	subscs	r5, pc, r8, asr pc	; <UNPREDICTABLE>
    8650:	66377830 			; <UNDEFINED> instruction: 0x66377830
    8654:	5f006666 	svcpl	0x00006666
    8658:	5359535f 	cmppl	r9, #2080374785	; 0x7c000001
    865c:	4e4f435f 	mcrmi	3, 2, r4, cr15, cr15, {2}
    8660:	5f474946 	svcpl	0x00474946
    8664:	205f5f48 	subscs	r5, pc, r8, asr #30
    8668:	475f5f00 	ldrbmi	r5, [pc, -r0, lsl #30]
    866c:	415f4343 	cmpmi	pc, r3, asr #6
    8670:	494d4f54 	stmdbmi	sp, {r2, r4, r6, r8, r9, sl, fp, lr}^
    8674:	48435f43 	stmdami	r3, {r0, r1, r6, r8, r9, sl, fp, ip, lr}^
    8678:	4c5f5241 	lfmmi	f5, 2, [pc], {65}	; 0x41
    867c:	5f4b434f 	svcpl	0x004b434f
    8680:	45455246 	strbmi	r5, [r5, #-582]	; 0xfffffdba
    8684:	4e003220 	cdpmi	2, 0, cr3, cr0, cr0, {1}
    8688:	5f434956 	svcpl	0x00434956
    868c:	49545845 	ldmdbmi	r4, {r0, r2, r6, fp, ip, lr}^
    8690:	5f355f39 	svcpl	0x00355f39
    8694:	5f515249 	svcpl	0x00515249
    8698:	61736944 	cmnvs	r3, r4, asr #18
    869c:	20656c62 	rsbcs	r6, r5, r2, ror #24
    86a0:	49564e28 	ldmdbmi	r6, {r3, r5, r9, sl, fp, lr}^
    86a4:	43495f43 	movtmi	r5, #40771	; 0x9f43
    86a8:	20305245 	eorscs	r5, r0, r5, asr #4
    86ac:	31203d7c 			; <UNDEFINED> instruction: 0x31203d7c
    86b0:	33323c3c 	teqcc	r2, #60, 24	; 0x3c00
    86b4:	5f5f0029 	svcpl	0x005f0029
    86b8:	4f564544 	svcmi	0x00564544
    86bc:	4954414c 	ldmdbmi	r4, {r2, r3, r6, r8, lr}^
    86c0:	7428454c 	strtvc	r4, [r8], #-1356	; 0xfffffab4
    86c4:	2c657079 	stclcs	0, cr7, [r5], #-484	; 0xfffffe1c
    86c8:	29726176 	ldmdbcs	r2!, {r1, r2, r4, r5, r6, r8, sp, lr}^
    86cc:	74282820 	strtvc	r2, [r8], #-2080	; 0xfffff7e0
    86d0:	29657079 	stmdbcs	r5!, {r0, r3, r4, r5, r6, ip, sp, lr}^
    86d4:	755f5f28 	ldrbvc	r5, [pc, #-3880]	; 77b4 <_Min_Stack_Size+0x73b4>
    86d8:	70746e69 	rsbsvc	r6, r4, r9, ror #28
    86dc:	745f7274 	ldrbvc	r7, [pc], #-628	; 86e4 <_Min_Stack_Size+0x82e4>
    86e0:	6f762829 	svcvs	0x00762829
    86e4:	6974616c 	ldmdbvs	r4!, {r2, r3, r5, r6, r8, sp, lr}^
    86e8:	7620656c 	strtvc	r6, [r0], -ip, ror #10
    86ec:	2064696f 	rsbcs	r6, r4, pc, ror #18
    86f0:	7628292a 	strtvc	r2, [r8], -sl, lsr #18
    86f4:	29297261 	stmdbcs	r9!, {r0, r5, r6, r9, ip, sp, lr}
    86f8:	41535500 	cmpmi	r3, r0, lsl #10
    86fc:	445f5452 	ldrbmi	r5, [pc], #-1106	; 8704 <_Min_Stack_Size+0x8304>
    8700:	4d5f5649 	ldclmi	6, cr5, [pc, #-292]	; 85e4 <_Min_Stack_Size+0x81e4>
    8704:	30314c55 	eorscc	r4, r1, r5, asr ip
    8708:	63462830 	movtvs	r2, #26672	; 0x6830
    870c:	622c6b6c 	eorvs	r6, ip, #108, 22	; 0x1b000
    8710:	72647561 	rsbvc	r7, r4, #406847488	; 0x18400000
    8714:	29657461 	stmdbcs	r5!, {r0, r5, r6, sl, ip, sp, lr}^
    8718:	69752820 	ldmdbvs	r5!, {r5, fp, sp}^
    871c:	3233746e 	eorscc	r7, r3, #1845493760	; 0x6e000000
    8720:	2029745f 	eorcs	r7, r9, pc, asr r4
    8724:	63462828 	movtvs	r2, #26664	; 0x6828
    8728:	322a6b6c 	eorcc	r6, sl, #108, 22	; 0x1b000
    872c:	282f2935 	stmdacs	pc!, {r0, r2, r4, r5, r8, fp, sp}	; <UNPREDICTABLE>
    8730:	64756162 	ldrbtvs	r6, [r5], #-354	; 0xfffffe9e
    8734:	65746172 	ldrbvs	r6, [r4, #-370]!	; 0xfffffe8e
    8738:	2929342a 	stmdbcs	r9!, {r1, r3, r5, sl, ip, sp}
    873c:	535f5f00 	cmppl	pc, #0, 30
    8740:	465f5053 			; <UNDEFINED> instruction: 0x465f5053
    8744:	4954524f 	ldmdbmi	r4, {r0, r1, r2, r3, r6, r9, ip, lr}^
    8748:	4c5f5946 	mrrcmi	9, 4, r5, pc, cr6	; <UNPREDICTABLE>
    874c:	4c455645 	mcrrmi	6, 4, r5, r5, cr5
    8750:	5f003020 	svcpl	0x00003020
    8754:	554e475f 	strbpl	r4, [lr, #-1887]	; 0xfffff8a1
    8758:	4b494c43 	blmi	125b86c <_Min_Stack_Size+0x125b46c>
    875c:	55425f45 	strbpl	r5, [r2, #-3909]	; 0xfffff0bb
    8760:	49544c49 	ldmdbmi	r4, {r0, r3, r6, sl, fp, lr}^
    8764:	54535f4e 	ldrbpl	r5, [r3], #-3918	; 0xfffff0b2
    8768:	47524144 	ldrbmi	r4, [r2, -r4, asr #2]
    876c:	5f003120 	svcpl	0x00003120
    8770:	4953585f 	ldmdbmi	r3, {r0, r1, r2, r3, r4, r6, fp, ip, lr}^
    8774:	5349565f 	movtpl	r5, #38495	; 0x965f
    8778:	454c4249 	strbmi	r4, [ip, #-585]	; 0xfffffdb7
    877c:	5f003020 	svcpl	0x00003020
    8780:	4c445453 	cfstrdmi	mvd5, [r4], {83}	; 0x53
    8784:	485f4249 	ldmdami	pc, {r0, r3, r6, r9, lr}^	; <UNPREDICTABLE>
    8788:	4500205f 	strmi	r2, [r0, #-95]	; 0xffffffa1
    878c:	37495458 	smlsldcc	r5, r9, r8, r4
    8790:	42003720 	andmi	r3, r0, #32, 14	; 0x800000
    8794:	00525253 	subseq	r5, r2, r3, asr r2
    8798:	49545845 	ldmdbmi	r4, {r0, r2, r6, fp, ip, lr}^
    879c:	34435034 	strbcc	r5, [r3], #-52	; 0xffffffcc
    87a0:	58452820 	stmdapl	r5, {r5, fp, sp}^
    87a4:	475f4954 			; <UNDEFINED> instruction: 0x475f4954
    87a8:	5f4f4950 	svcpl	0x004f4950
    87ac:	7070614d 	rsbsvc	r6, r0, sp, asr #2
    87b0:	5f676e69 	svcpl	0x00676e69
    87b4:	457b2974 	ldrbmi	r2, [fp, #-2420]!	; 0xfffff68c
    87b8:	34495458 	strbcc	r5, [r9], #-1112	; 0xfffffba8
    87bc:	5047202c 	subpl	r2, r7, ip, lsr #32
    87c0:	2c434f49 	mcrrcs	15, 4, r4, r3, cr9
    87c4:	49504720 	ldmdbmi	r0, {r5, r8, r9, sl, lr}^
    87c8:	49505f4f 	ldmdbmi	r0, {r0, r1, r2, r3, r6, r8, r9, sl, fp, ip, lr}^
    87cc:	2c345f4e 	ldccs	15, cr5, [r4], #-312	; 0xfffffec8
    87d0:	54584520 	ldrbpl	r4, [r8], #-1312	; 0xfffffae0
    87d4:	495f3449 	ldmdbmi	pc, {r0, r3, r6, sl, ip, sp}^	; <UNPREDICTABLE>
    87d8:	007d5152 	rsbseq	r5, sp, r2, asr r1
    87dc:	41465f5f 	cmpmi	r6, pc, asr pc
    87e0:	32335453 	eorscc	r5, r3, #1392508928	; 0x53000000
    87e4:	5f5f0020 	svcpl	0x005f0020
    87e8:	5f474953 	svcpl	0x00474953
    87ec:	4d4f5441 	cfstrdmi	mvd5, [pc, #-260]	; 86f0 <_Min_Stack_Size+0x82f0>
    87f0:	575f4349 	ldrbpl	r4, [pc, -r9, asr #6]
    87f4:	48544449 	ldmdami	r4, {r0, r3, r6, sl, lr}^
    87f8:	33205f5f 			; <UNDEFINED> instruction: 0x33205f5f
    87fc:	50470032 	subpl	r0, r7, r2, lsr r0
    8800:	5f414f49 	svcpl	0x00414f49
    8804:	45534142 	ldrbmi	r4, [r3, #-322]	; 0xfffffebe
    8808:	34783020 	ldrbtcc	r3, [r8], #-32	; 0xffffffe0
    880c:	30313030 	eorscc	r3, r1, r0, lsr r0
    8810:	75303038 	ldrvc	r3, [r0, #-56]!	; 0xffffffc8
    8814:	465f5f00 	ldrbmi	r5, [pc], -r0, lsl #30
    8818:	3436544c 	ldrtcc	r5, [r6], #-1100	; 0xfffffbb4
    881c:	5350455f 	cmppl	r0, #398458880	; 0x17c00000
    8820:	4e4f4c49 	cdpmi	12, 4, cr4, cr15, cr9, {2}
    8824:	32205f5f 	eorcc	r5, r0, #380	; 0x17c
    8828:	3032322e 	eorscc	r3, r2, lr, lsr #4
    882c:	30363434 	eorscc	r3, r6, r4, lsr r4
    8830:	35323934 	ldrcc	r3, [r2, #-2356]!	; 0xfffff6cc
    8834:	33313330 	teqcc	r1, #48, 6	; 0xc0000000
    8838:	312d6531 			; <UNDEFINED> instruction: 0x312d6531
    883c:	34364636 	ldrtcc	r4, [r6], #-1590	; 0xfffff9ca
    8840:	45525f00 	ldrbmi	r5, [r2, #-3840]	; 0xfffff100
    8844:	5f544e45 	svcpl	0x00544e45
    8848:	54494e49 	strbpl	r4, [r9], #-3657	; 0xfffff1b7
    884c:	4554415f 	ldrbmi	r4, [r4, #-351]	; 0xfffffea1
    8850:	20544958 	subscs	r4, r4, r8, asr r9
    8854:	475f5f00 	ldrbmi	r5, [pc, -r0, lsl #30]
    8858:	5f43554e 	svcpl	0x0043554e
    885c:	52455250 	subpl	r5, r5, #80, 4
    8860:	5f5f5145 	svcpl	0x005f5145
    8864:	2c616d28 	stclcs	13, cr6, [r1], #-160	; 0xffffff60
    8868:	2029696d 	eorcs	r6, r9, sp, ror #18
    886c:	4e475f5f 	mcrmi	15, 2, r5, cr7, cr15, {2}
    8870:	505f4355 	subspl	r4, pc, r5, asr r3	; <UNPREDICTABLE>
    8874:	45524552 	ldrbmi	r4, [r2, #-1362]	; 0xfffffaae
    8878:	616d2851 	cmnvs	sp, r1, asr r8
    887c:	696d202c 	stmdbvs	sp!, {r2, r3, r5, sp}^
    8880:	5f5f0029 	svcpl	0x005f0029
    8884:	5f415455 	svcpl	0x00415455
    8888:	54494249 	strbpl	r4, [r9], #-585	; 0xfffffdb7
    888c:	36205f5f 	qsaxcc	r5, r0, pc	; <UNPREDICTABLE>
    8890:	5f5f0034 	svcpl	0x005f0034
    8894:	5f4d5241 	svcpl	0x004d5241
    8898:	54414546 	strbpl	r4, [r1], #-1350	; 0xfffffaba
    889c:	5f455255 	svcpl	0x00455255
    88a0:	33435243 	movtcc	r5, #12867	; 0x3243
    88a4:	5f5f0032 	svcpl	0x005f0032
    88a8:	6f727473 	svcvs	0x00727473
    88ac:	725f676e 	subsvc	r6, pc, #28835840	; 0x1b80000
    88b0:	72656665 	rsbvc	r6, r5, #105906176	; 0x6500000
    88b4:	65636e65 	strbvs	r6, [r3, #-3685]!	; 0xfffff19b
    88b8:	6d797328 	ldclvs	3, cr7, [r9, #-160]!	; 0xffffff60
    88bc:	696c612c 	stmdbvs	ip!, {r2, r3, r5, r8, sp, lr}^
    88c0:	79737361 	ldmdbvc	r3!, {r0, r5, r6, r8, r9, ip, sp, lr}^
    88c4:	6520296d 	strvs	r2, [r0, #-2413]!	; 0xfffff693
    88c8:	72657478 	rsbvc	r7, r5, #120, 8	; 0x78000000
    88cc:	5f5f206e 	svcpl	0x005f206e
    88d0:	65707974 	ldrbvs	r7, [r0, #-2420]!	; 0xfffff68c
    88d4:	2820666f 	stmdacs	r0!, {r0, r1, r2, r3, r5, r6, r9, sl, sp, lr}
    88d8:	296d7973 	stmdbcs	sp!, {r0, r1, r4, r5, r6, r8, fp, ip, sp, lr}^
    88dc:	696c6120 	stmdbvs	ip!, {r5, r8, sp, lr}^
    88e0:	79737361 	ldmdbvc	r3!, {r0, r5, r6, r8, r9, ip, sp, lr}^
    88e4:	5f5f206d 	svcpl	0x005f206d
    88e8:	72747461 	rsbsvc	r7, r4, #1627389952	; 0x61000000
    88ec:	74756269 	ldrbtvc	r6, [r5], #-617	; 0xfffffd97
    88f0:	205f5f65 	subscs	r5, pc, r5, ror #30
    88f4:	5f5f2828 	svcpl	0x005f2828
    88f8:	61696c61 	cmnvs	r9, r1, ror #24
    88fc:	205f5f73 	subscs	r5, pc, r3, ror pc	; <UNPREDICTABLE>
    8900:	79732328 	ldmdbvc	r3!, {r3, r5, r8, r9, sp}^
    8904:	2929296d 	stmdbcs	r9!, {r0, r2, r3, r5, r6, r8, fp, sp}
    8908:	54584500 	ldrbpl	r4, [r8], #-1280	; 0xfffffb00
    890c:	52495f49 	subpl	r5, r9, #292	; 0x124
    8910:	6e655f51 	mcrvs	15, 3, r5, cr5, cr1, {2}
    8914:	656c6261 	strbvs	r6, [ip, #-609]!	; 0xfffffd9f
    8918:	5f003120 	svcpl	0x00003120
    891c:	4c4c555f 	cfstr64mi	mvdx5, [ip], {95}	; 0x5f
    8920:	43415246 	movtmi	r5, #4678	; 0x1246
    8924:	50455f54 	subpl	r5, r5, r4, asr pc
    8928:	4f4c4953 	svcmi	0x004c4953
    892c:	205f5f4e 	subscs	r5, pc, lr, asr #30
    8930:	50317830 	eorspl	r7, r1, r0, lsr r8
    8934:	5534362d 	ldrpl	r3, [r4, #-1581]!	; 0xfffff9d3
    8938:	00524c4c 	subseq	r4, r2, ip, asr #24
    893c:	6e755f5f 	mrcvs	15, 3, r5, cr5, cr15, {2}
    8940:	63616572 	cmnvs	r1, #478150656	; 0x1c800000
    8944:	6c626168 	stfvse	f6, [r2], #-416	; 0xfffffe60
    8948:	20292865 	eorcs	r2, r9, r5, ror #16
    894c:	75625f5f 	strbvc	r5, [r2, #-3935]!	; 0xfffff0a1
    8950:	69746c69 	ldmdbvs	r4!, {r0, r3, r5, r6, sl, fp, sp, lr}^
    8954:	6e755f6e 	cdpvs	15, 7, cr5, cr5, cr14, {3}
    8958:	63616572 	cmnvs	r1, #478150656	; 0x1c800000
    895c:	6c626168 	stfvse	f6, [r2], #-416	; 0xfffffe60
    8960:	00292865 	eoreq	r2, r9, r5, ror #16
    8964:	49535f5f 	ldmdbmi	r3, {r0, r1, r2, r3, r4, r6, r8, r9, sl, fp, ip, lr}^
    8968:	464f455a 			; <UNDEFINED> instruction: 0x464f455a
    896c:	4e49575f 	mcrmi	7, 2, r5, cr9, cr15, {2}
    8970:	5f545f54 	svcpl	0x00545f54
    8974:	0034205f 	eorseq	r2, r4, pc, asr r0
    8978:	52415f5f 	subpl	r5, r1, #380	; 0x17c
    897c:	45465f4d 	strbmi	r5, [r6, #-3917]	; 0xfffff0b3
    8980:	52555441 	subspl	r5, r5, #1090519040	; 0x41000000
    8984:	4e555f45 	cdpmi	15, 5, cr5, cr5, cr5, {2}
    8988:	47494c41 	strbmi	r4, [r9, -r1, asr #24]
    898c:	2044454e 	subcs	r4, r4, lr, asr #10
    8990:	5f5f0031 	svcpl	0x005f0031
    8994:	5f585847 	svcpl	0x00585847
    8998:	45505954 	ldrbmi	r5, [r0, #-2388]	; 0xfffff6ac
    899c:	4f464e49 	svcmi	0x00464e49
    89a0:	5551455f 	ldrbpl	r4, [r1, #-1375]	; 0xfffffaa1
    89a4:	54494c41 	strbpl	r4, [r9], #-3137	; 0xfffff3bf
    89a8:	4e495f59 	mcrmi	15, 2, r5, cr9, cr9, {2}
    89ac:	454e494c 	strbmi	r4, [lr, #-2380]	; 0xfffff6b4
    89b0:	5f003020 	svcpl	0x00003020
    89b4:	42444c5f 	submi	r4, r4, #24320	; 0x5f00
    89b8:	45445f4c 	strbmi	r5, [r4, #-3916]	; 0xfffff0b4
    89bc:	414d4943 	cmpmi	sp, r3, asr #18
    89c0:	49445f4c 	stmdbmi	r4, {r2, r3, r6, r8, r9, sl, fp, ip, lr}^
    89c4:	205f5f47 	subscs	r5, pc, r7, asr #30
    89c8:	6d003731 	stcvs	7, cr3, [r0, #-196]	; 0xffffff3c
    89cc:	006e6961 	rsbeq	r6, lr, r1, ror #18
    89d0:	4e475f5f 	mcrmi	15, 2, r5, cr7, cr15, {2}
    89d4:	494c4355 	stmdbmi	ip, {r0, r2, r4, r6, r8, r9, lr}^
    89d8:	415f454b 	cmpmi	pc, fp, asr #10
    89dc:	33204d53 			; <UNDEFINED> instruction: 0x33204d53
    89e0:	4c5f5f00 	mrrcmi	15, 0, r5, pc, cr0	; <UNPREDICTABLE>
    89e4:	55434341 	strbpl	r4, [r3, #-833]	; 0xfffffcbf
    89e8:	494d5f4d 	stmdbmi	sp, {r0, r2, r3, r6, r8, r9, sl, fp, ip, lr}^
    89ec:	205f5f4e 	subscs	r5, pc, lr, asr #30
    89f0:	58302d28 	ldmdapl	r0!, {r3, r5, r8, sl, fp, sp}
    89f4:	31335031 	teqcc	r3, r1, lsr r0
    89f8:	302d4b4c 	eorcc	r4, sp, ip, asr #22
    89fc:	33503158 	cmpcc	r0, #88, 2
    8a00:	294b4c31 	stmdbcs	fp, {r0, r4, r5, sl, fp, lr}^
    8a04:	415f5f00 	cmpmi	pc, r0, lsl #30
    8a08:	455f4d52 	ldrbmi	r4, [pc, #-3410]	; 7cbe <_Min_Stack_Size+0x78be>
    8a0c:	5f494241 	svcpl	0x00494241
    8a10:	0031205f 	eorseq	r2, r1, pc, asr r0
    8a14:	4c465f5f 	mcrrmi	15, 5, r5, r6, cr15
    8a18:	5f323354 	svcpl	0x00323354
    8a1c:	5f534148 	svcpl	0x00534148
    8a20:	4f4e4544 	svcmi	0x004e4544
    8a24:	5f5f4d52 	svcpl	0x005f4d52
    8a28:	5f003120 	svcpl	0x00003120
    8a2c:	6163735f 	cmnvs	r3, pc, asr r3
    8a30:	696c666e 	stmdbvs	ip!, {r1, r2, r3, r5, r6, r9, sl, sp, lr}^
    8a34:	6628656b 	strtvs	r6, [r8], -fp, ror #10
    8a38:	7261746d 	rsbvc	r7, r1, #1828716544	; 0x6d000000
    8a3c:	69662c67 	stmdbvs	r6!, {r0, r1, r2, r5, r6, sl, fp, sp}^
    8a40:	76747372 			; <UNDEFINED> instruction: 0x76747372
    8a44:	72617261 	rsbvc	r7, r1, #268435462	; 0x10000006
    8a48:	5f202967 	svcpl	0x00202967
    8a4c:	7474615f 	ldrbtvc	r6, [r4], #-351	; 0xfffffea1
    8a50:	75626972 	strbvc	r6, [r2, #-2418]!	; 0xfffff68e
    8a54:	5f5f6574 	svcpl	0x005f6574
    8a58:	5f5f2828 	svcpl	0x005f2828
    8a5c:	6d726f66 	ldclvs	15, cr6, [r2, #-408]!	; 0xfffffe68
    8a60:	5f5f7461 	svcpl	0x005f7461
    8a64:	5f5f2820 	svcpl	0x005f2820
    8a68:	6e616373 	mcrvs	3, 3, r6, cr1, cr3, {3}
    8a6c:	2c5f5f66 	mrrccs	15, 6, r5, pc, cr6	; <UNPREDICTABLE>
    8a70:	746d6620 	strbtvc	r6, [sp], #-1568	; 0xfffff9e0
    8a74:	2c677261 	sfmcs	f7, 2, [r7], #-388	; 0xfffffe7c
    8a78:	72696620 	rsbvc	r6, r9, #32, 12	; 0x2000000
    8a7c:	61767473 	cmnvs	r6, r3, ror r4
    8a80:	67726172 			; <UNDEFINED> instruction: 0x67726172
    8a84:	00292929 	eoreq	r2, r9, r9, lsr #18
    8a88:	665f7748 	ldrbvs	r7, [pc], -r8, asr #14
    8a8c:	43776f6c 	cmnmi	r7, #108, 30	; 0x1b0
    8a90:	5f6c7274 	svcpl	0x006c7274
    8a94:	20535452 	subscs	r5, r3, r2, asr r4
    8a98:	6e697528 	cdpvs	5, 6, cr7, cr9, cr8, {1}
    8a9c:	5f323374 	svcpl	0x00323374
    8aa0:	31282974 			; <UNDEFINED> instruction: 0x31282974
    8aa4:	29383c3c 	ldmdbcs	r8!, {r2, r3, r4, r5, sl, fp, ip, sp}
    8aa8:	45525f00 	ldrbmi	r5, [r2, #-3840]	; 0xfffff100
    8aac:	5f544e45 	svcpl	0x00544e45
    8ab0:	4c414d53 	mcrrmi	13, 5, r4, r1, cr3
    8ab4:	5f00204c 	svcpl	0x0000204c
    8ab8:	4c4c555f 	cfstr64mi	mvdx5, [ip], {95}	; 0x5f
    8abc:	55434341 	strbpl	r4, [r3, #-833]	; 0xfffffcbf
    8ac0:	494d5f4d 	stmdbmi	sp, {r0, r2, r3, r6, r8, r9, sl, fp, ip, lr}^
    8ac4:	205f5f4e 	subscs	r5, pc, lr, asr #30
    8ac8:	55302e30 	ldrpl	r2, [r0, #-3632]!	; 0xfffff1d0
    8acc:	004b4c4c 	subeq	r4, fp, ip, asr #24
    8ad0:	5359535f 	cmppl	r9, #2080374785	; 0x7c000001
    8ad4:	59545f5f 	ldmdbpl	r4, {r0, r1, r2, r3, r4, r6, r8, r9, sl, fp, ip, lr}^
    8ad8:	5f534550 	svcpl	0x00534550
    8adc:	5f002048 	svcpl	0x00002048
    8ae0:	58455441 	stmdapl	r5, {r0, r6, sl, ip, lr}^
    8ae4:	495f5449 	ldmdbmi	pc, {r0, r3, r6, sl, ip, lr}^	; <UNPREDICTABLE>
    8ae8:	2054494e 	subscs	r4, r4, lr, asr #18
    8aec:	554e5f7b 	strbpl	r5, [lr, #-3963]	; 0xfffff085
    8af0:	202c4c4c 	eorcs	r4, ip, ip, asr #24
    8af4:	7b202c30 	blvc	813bbc <_Min_Stack_Size+0x8137bc>
    8af8:	4c554e5f 	mrrcmi	14, 5, r4, r5, cr15
    8afc:	202c7d4c 	eorcs	r7, ip, ip, asr #26
    8b00:	4c554e5f 	mrrcmi	14, 5, r4, r5, cr15
    8b04:	5f007d4c 	svcpl	0x00007d4c
    8b08:	5f535953 	svcpl	0x00535953
    8b0c:	46454443 	strbmi	r4, [r5], -r3, asr #8
    8b10:	5f485f53 	svcpl	0x00485f53
    8b14:	4e490020 	cdpmi	0, 4, cr0, cr9, cr0, {1}
    8b18:	54535f43 	ldrbpl	r5, [r3], #-3907	; 0xfffff0bd
    8b1c:	5f32334d 	svcpl	0x0032334d
    8b20:	33303146 	teqcc	r0, #-2147483631	; 0x80000011
    8b24:	445f3643 	ldrbmi	r3, [pc], #-1603	; 8b2c <_Min_Stack_Size+0x872c>
    8b28:	45564952 	ldrbmi	r4, [r6, #-2386]	; 0xfffff6ae
    8b2c:	555f5352 	ldrbpl	r5, [pc, #-850]	; 87e2 <_Min_Stack_Size+0x83e2>
    8b30:	54524153 	ldrbpl	r4, [r2], #-339	; 0xfffffead
    8b34:	205f485f 	subscs	r4, pc, pc, asr r8	; <UNPREDICTABLE>
    8b38:	49504700 	ldmdbmi	r0, {r8, r9, sl, lr}^
    8b3c:	425f434f 	subsmi	r4, pc, #1006632961	; 0x3c000001
    8b40:	20455341 	subcs	r5, r5, r1, asr #6
    8b44:	30347830 	eorscc	r7, r4, r0, lsr r8
    8b48:	30313130 	eorscc	r3, r1, r0, lsr r1
    8b4c:	00753030 	rsbseq	r3, r5, r0, lsr r0
    8b50:	4e475f5f 	mcrmi	15, 2, r5, cr7, cr15, {2}
    8b54:	494c4355 	stmdbmi	ip, {r0, r2, r4, r6, r8, r9, lr}^
    8b58:	425f454b 	subsmi	r4, pc, #314572800	; 0x12c00000
    8b5c:	544c4955 	strbpl	r4, [ip], #-2389	; 0xfffff6ab
    8b60:	565f4e49 	ldrbpl	r4, [pc], -r9, asr #28
    8b64:	494c4141 	stmdbmi	ip, {r0, r6, r8, lr}^
    8b68:	31205453 			; <UNDEFINED> instruction: 0x31205453
    8b6c:	72617000 	rsbvc	r7, r1, #0
    8b70:	5f797469 	svcpl	0x00797469
    8b74:	656e6f6e 	strbvs	r6, [lr, #-3950]!	; 0xfffff092
    8b78:	69752820 	ldmdbvs	r5!, {r5, fp, sp}^
    8b7c:	3233746e 	eorscc	r7, r3, #1845493760	; 0x6e000000
    8b80:	3029745f 	eorcc	r7, r9, pc, asr r4
    8b84:	454e5f00 	strbmi	r5, [lr, #-3840]	; 0xfffff100
    8b88:	42494c57 	submi	r4, r9, #22272	; 0x5700
    8b8c:	4c4c415f 	stfmie	f4, [ip], {95}	; 0x5f
    8b90:	5f41434f 	svcpl	0x0041434f
    8b94:	5f002048 	svcpl	0x00002048
    8b98:	544e495f 	strbpl	r4, [lr], #-2399	; 0xfffff6a1
    8b9c:	22203233 	eorcs	r3, r0, #805306371	; 0x30000003
    8ba0:	5f00226c 	svcpl	0x0000226c
    8ba4:	4d52415f 	ldfmie	f4, [r2, #-380]	; 0xfffffe84
    8ba8:	4d53415f 	ldfmie	f4, [r3, #-380]	; 0xfffffe84
    8bac:	4e59535f 	mrcmi	3, 2, r5, cr9, cr15, {2}
    8bb0:	5f584154 	svcpl	0x00584154
    8bb4:	46494e55 			; <UNDEFINED> instruction: 0x46494e55
    8bb8:	5f444549 	svcpl	0x00444549
    8bbc:	0031205f 	eorseq	r2, r1, pc, asr r0
    8bc0:	74727473 	ldrbtvc	r7, [r2], #-1139	; 0xfffffb8d
    8bc4:	2066646f 	rsbcs	r6, r6, pc, ror #8
    8bc8:	74727473 	ldrbtvc	r7, [r2], #-1139	; 0xfffffb8d
    8bcc:	5f00666f 	svcpl	0x0000666f
    8bd0:	4e49555f 	mcrmi	5, 2, r5, cr9, cr15, {2}
    8bd4:	5f323354 	svcpl	0x00323354
    8bd8:	45505954 	ldrbmi	r5, [r0, #-2388]	; 0xfffff6ac
    8bdc:	6c205f5f 	stcvs	15, cr5, [r0], #-380	; 0xfffffe84
    8be0:	20676e6f 	rsbcs	r6, r7, pc, ror #28
    8be4:	69736e75 	ldmdbvs	r3!, {r0, r2, r4, r5, r6, r9, sl, fp, sp, lr}^
    8be8:	64656e67 	strbtvs	r6, [r5], #-3687	; 0xfffff199
    8bec:	746e6920 	strbtvc	r6, [lr], #-2336	; 0xfffff6e0
    8bf0:	415f5f00 	cmpmi	pc, r0, lsl #30
    8bf4:	465f4d52 			; <UNDEFINED> instruction: 0x465f4d52
    8bf8:	55544145 	ldrbpl	r4, [r4, #-325]	; 0xfffffebb
    8bfc:	445f4552 	ldrbmi	r4, [pc], #-1362	; 8c04 <_Min_Stack_Size+0x8804>
    8c00:	5250544f 	subspl	r5, r0, #1325400064	; 0x4f000000
    8c04:	5f00444f 	svcpl	0x0000444f
    8c08:	7568745f 	strbvc	r7, [r8, #-1119]!	; 0xfffffba1
    8c0c:	5f32626d 	svcpl	0x0032626d
    8c10:	0031205f 	eorseq	r2, r1, pc, asr r0
    8c14:	54524155 	ldrbpl	r4, [r2], #-341	; 0xfffffeab
    8c18:	5152495f 	cmppl	r2, pc, asr r9
    8c1c:	4558545f 	ldrbmi	r5, [r8, #-1119]	; 0xfffffba1
    8c20:	69752820 	ldmdbvs	r5!, {r5, fp, sp}^
    8c24:	3233746e 	eorscc	r7, r3, #1845493760	; 0x6e000000
    8c28:	2829745f 	stmdacs	r9!, {r0, r1, r2, r3, r4, r6, sl, ip, sp, lr}
    8c2c:	373c3c31 			; <UNDEFINED> instruction: 0x373c3c31
    8c30:	77530029 	ldrbvc	r0, [r3, -r9, lsr #32]
    8c34:	68637469 	stmdavs	r3!, {r0, r3, r5, r6, sl, ip, sp, lr}^
    8c38:	5550435f 	ldrbpl	r4, [r0, #-863]	; 0xfffffca1
    8c3c:	6363415f 	cmnvs	r3, #-1073741801	; 0xc0000017
    8c40:	4c737365 	ldclmi	3, cr7, [r3], #-404	; 0xfffffe6c
    8c44:	6c657665 	stclvs	6, cr7, [r5], #-404	; 0xfffffe6c
    8c48:	45445f00 	strbmi	r5, [r4, #-3840]	; 0xfffff100
    8c4c:	4c554146 	ldfmie	f4, [r5], {70}	; 0x46
    8c50:	4f535f54 	svcmi	0x00535f54
    8c54:	45435255 	strbmi	r5, [r3, #-597]	; 0xfffffdab
    8c58:	6f687300 	svcvs	0x00687300
    8c5c:	2b207472 	blcs	825e2c <_Min_Stack_Size+0x825a2c>
    8c60:	475f0031 	smmlarmi	pc, r1, r0, r0	; <UNPREDICTABLE>
    8c64:	535f4343 	cmppl	pc, #201326593	; 0xc000001
    8c68:	5f455a49 	svcpl	0x00455a49
    8c6c:	5f002054 	svcpl	0x00002054
    8c70:	5f43435f 	svcpl	0x0043435f
    8c74:	50505553 	subspl	r5, r0, r3, asr r5
    8c78:	5354524f 	cmppl	r4, #-268435452	; 0xf0000004
    8c7c:	5241575f 	subpl	r5, r1, #24903680	; 0x17c0000
    8c80:	474e494e 	strbmi	r4, [lr, -lr, asr #18]
    8c84:	5f003120 	svcpl	0x00003120
    8c88:	4e49575f 	mcrmi	7, 2, r5, cr9, cr15, {2}
    8c8c:	49575f54 	ldmdbmi	r7, {r2, r4, r6, r8, r9, sl, fp, ip, lr}^
    8c90:	5f485444 	svcpl	0x00485444
    8c94:	3233205f 	eorscc	r2, r3, #95	; 0x5f
    8c98:	555f5f00 	ldrbpl	r5, [pc, #-3840]	; 7da0 <_Min_Stack_Size+0x79a0>
    8c9c:	52464c4c 	subpl	r4, r6, #76, 24	; 0x4c00
    8ca0:	5f544341 	svcpl	0x00544341
    8ca4:	5f4e494d 	svcpl	0x004e494d
    8ca8:	2e30205f 	mrccs	0, 1, r2, cr0, cr15, {2}
    8cac:	4c4c5530 	cfstr64mi	mvdx5, [ip], {48}	; 0x30
    8cb0:	545f0052 	ldrbpl	r0, [pc], #-82	; 8cb8 <_Min_Stack_Size+0x88b8>
    8cb4:	4843575f 	stmdami	r3, {r0, r1, r2, r3, r4, r6, r8, r9, sl, ip, lr}^
    8cb8:	205f5241 	subscs	r5, pc, r1, asr #4
    8cbc:	54584500 	ldrbpl	r4, [r8], #-1280	; 0xfffffb00
    8cc0:	50343149 	eorspl	r3, r4, r9, asr #2
    8cc4:	20343141 	eorscs	r3, r4, r1, asr #2
    8cc8:	54584528 	ldrbpl	r4, [r8], #-1320	; 0xfffffad8
    8ccc:	50475f49 	subpl	r5, r7, r9, asr #30
    8cd0:	4d5f4f49 	ldclmi	15, cr4, [pc, #-292]	; 8bb4 <_Min_Stack_Size+0x87b4>
    8cd4:	69707061 	ldmdbvs	r0!, {r0, r5, r6, ip, sp, lr}^
    8cd8:	745f676e 	ldrbvc	r6, [pc], #-1902	; 8ce0 <_Min_Stack_Size+0x88e0>
    8cdc:	58457b29 	stmdapl	r5, {r0, r3, r5, r8, r9, fp, ip, sp, lr}^
    8ce0:	34314954 	ldrtcc	r4, [r1], #-2388	; 0xfffff6ac
    8ce4:	5047202c 	subpl	r2, r7, ip, lsr #32
    8ce8:	2c414f49 	mcrrcs	15, 4, r4, r1, cr9
    8cec:	49504720 	ldmdbmi	r0, {r5, r8, r9, sl, lr}^
    8cf0:	49505f4f 	ldmdbmi	r0, {r0, r1, r2, r3, r6, r8, r9, sl, fp, ip, lr}^
    8cf4:	34315f4e 	ldrtcc	r5, [r1], #-3918	; 0xfffff0b2
    8cf8:	5845202c 	stmdapl	r5, {r2, r3, r5, sp}^
    8cfc:	34314954 	ldrtcc	r4, [r1], #-2388	; 0xfffff6ac
    8d00:	5152495f 	cmppl	r2, pc, asr r9
    8d04:	495f007d 	ldmdbmi	pc, {r0, r2, r3, r4, r5, r6}^	; <UNPREDICTABLE>
    8d08:	5f38544e 	svcpl	0x0038544e
    8d0c:	45445f54 	strbmi	r5, [r4, #-3924]	; 0xfffff0ac
    8d10:	52414c43 	subpl	r4, r1, #17152	; 0x4300
    8d14:	00204445 	eoreq	r4, r0, r5, asr #8
    8d18:	544e495f 	strbpl	r4, [lr], #-2399	; 0xfffff6a1
    8d1c:	545f3233 	ldrbpl	r3, [pc], #-563	; 8d24 <_Min_Stack_Size+0x8924>
    8d20:	4345445f 	movtmi	r4, #21599	; 0x545f
    8d24:	4552414c 	ldrbmi	r4, [r2, #-332]	; 0xfffffeb4
    8d28:	5f002044 	svcpl	0x00002044
    8d2c:	5a49535f 	bpl	125dab0 <_Min_Stack_Size+0x125d6b0>
    8d30:	5f464f45 	svcpl	0x00464f45
    8d34:	5f544e49 	svcpl	0x00544e49
    8d38:	0034205f 	eorseq	r2, r4, pc, asr r0
    8d3c:	4453425f 	ldrbmi	r4, [r3], #-607	; 0xfffffda1
    8d40:	4843575f 	stmdami	r3, {r0, r1, r2, r3, r4, r6, r8, r9, sl, ip, lr}^
    8d44:	545f5241 	ldrbpl	r5, [pc], #-577	; 8d4c <_Min_Stack_Size+0x894c>
    8d48:	4954005f 	ldmdbmi	r4, {r0, r1, r2, r3, r4, r6}^
    8d4c:	425f364d 	subsmi	r3, pc, #80740352	; 0x4d00000
    8d50:	20455341 	subcs	r5, r5, r1, asr #6
    8d54:	30347830 	eorscc	r7, r4, r0, lsr r8
    8d58:	30313030 	eorscc	r3, r1, r0, lsr r0
    8d5c:	00753030 	rsbseq	r3, r5, r0, lsr r0
    8d60:	4c4c5f5f 	mcrrmi	15, 5, r5, ip, cr15
    8d64:	43415246 	movtmi	r5, #4678	; 0x1246
    8d68:	42495f54 	submi	r5, r9, #84, 30	; 0x150
    8d6c:	5f5f5449 	svcpl	0x005f5449
    8d70:	5f003020 	svcpl	0x00003020
    8d74:	5f43435f 	svcpl	0x0043435f
    8d78:	50505553 	subspl	r5, r0, r3, asr r5
    8d7c:	5354524f 	cmppl	r4, #-268435452	; 0xf0000004
    8d80:	5241565f 	subpl	r5, r1, #99614720	; 0x5f00000
    8d84:	43494441 	movtmi	r4, #37953	; 0x9441
    8d88:	5858585f 	ldmdapl	r8, {r0, r1, r2, r3, r4, r6, fp, ip, lr}^
    8d8c:	74003120 	strvc	r3, [r0], #-288	; 0xfffffee0
    8d90:	67676972 			; <UNDEFINED> instruction: 0x67676972
    8d94:	435f7265 	cmpmi	pc, #1342177286	; 0x50000006
    8d98:	00657361 	rsbeq	r7, r5, r1, ror #6
    8d9c:	32495053 	subcc	r5, r9, #83	; 0x53
    8da0:	5341425f 	movtpl	r4, #4703	; 0x125f
    8da4:	78302045 	ldmdavc	r0!, {r0, r2, r6, sp}
    8da8:	30303034 	eorscc	r3, r0, r4, lsr r0
    8dac:	30303833 	eorscc	r3, r0, r3, lsr r8
    8db0:	535f0075 	cmppl	pc, #117	; 0x75
    8db4:	5f5f5359 	svcpl	0x005f5359
    8db8:	53544e49 	cmppl	r4, #1168	; 0x490
    8dbc:	485f5055 	ldmdami	pc, {r0, r2, r4, r6, ip, lr}^	; <UNPREDICTABLE>
    8dc0:	61420020 	cmpvs	r2, r0, lsr #32
    8dc4:	61526475 	cmpvs	r2, r5, ror r4
    8dc8:	325f6574 	subscc	r6, pc, #116, 10	; 0x1d000000
    8dcc:	30343033 	eorscc	r3, r4, r3, lsr r0
    8dd0:	33322030 	teqcc	r2, #48	; 0x30
    8dd4:	30303430 	eorscc	r3, r0, r0, lsr r4
    8dd8:	535f5f00 	cmppl	pc, #0, 30
    8ddc:	55434341 	strbpl	r4, [r3, #-833]	; 0xfffffcbf
    8de0:	50455f4d 	subpl	r5, r5, sp, asr #30
    8de4:	4f4c4953 	svcmi	0x004c4953
    8de8:	205f5f4e 	subscs	r5, pc, lr, asr #30
    8dec:	50317830 	eorspl	r7, r1, r0, lsr r8
    8df0:	4b48372d 	blmi	1216aac <_Min_Stack_Size+0x12166ac>
    8df4:	49504700 	ldmdbmi	r0, {r8, r9, sl, lr}^
    8df8:	49505f4f 	ldmdbmi	r0, {r0, r1, r2, r3, r6, r8, r9, sl, fp, ip, lr}^
    8dfc:	20325f4e 	eorscs	r5, r2, lr, asr #30
    8e00:	69752828 	ldmdbvs	r5!, {r3, r5, fp, sp}^
    8e04:	3631746e 	ldrtcc	r7, [r1], -lr, ror #8
    8e08:	2029745f 	eorcs	r7, r9, pc, asr r4
    8e0c:	30307830 	eorscc	r7, r0, r0, lsr r8
    8e10:	00293430 	eoreq	r3, r9, r0, lsr r4
    8e14:	43475f5f 	movtmi	r5, #32607	; 0x7f5f
    8e18:	53415f43 	movtpl	r5, #8003	; 0x1f43
    8e1c:	4c465f4d 	mcrrmi	15, 4, r5, r6, cr13
    8e20:	4f5f4741 	svcmi	0x005f4741
    8e24:	55505455 	ldrbpl	r5, [r0, #-1109]	; 0xfffffbab
    8e28:	5f5f5354 	svcpl	0x005f5354
    8e2c:	52003120 	andpl	r3, r0, #32, 2
    8e30:	545f4343 	ldrbpl	r4, [pc], #-835	; 8e38 <_Min_Stack_Size+0x8a38>
    8e34:	64657079 	strbtvs	r7, [r5], #-121	; 0xffffff87
    8e38:	745f6665 	ldrbvc	r6, [pc], #-1637	; 8e40 <_Min_Stack_Size+0x8a40>
    8e3c:	45525f00 	ldrbmi	r5, [r2, #-3840]	; 0xfffff100
    8e40:	5f544e45 	svcpl	0x00544e45
    8e44:	43454843 	movtmi	r4, #22595	; 0x5843
    8e48:	45565f4b 	ldrbmi	r5, [r6, #-3915]	; 0xfffff0b5
    8e4c:	59464952 	stmdbpl	r6, {r1, r4, r6, r8, fp, lr}^
    8e50:	41003120 	tstmi	r0, r0, lsr #2
    8e54:	5f4f4946 	svcpl	0x004f4946
    8e58:	45534142 	ldrbmi	r4, [r3, #-322]	; 0xfffffebe
    8e5c:	34783020 	ldrbtcc	r3, [r8], #-32	; 0xffffffe0
    8e60:	30313030 	eorscc	r3, r1, r0, lsr r0
    8e64:	75303030 	ldrvc	r3, [r0, #-48]!	; 0xffffffd0
    8e68:	4f505f00 	svcmi	0x00505f00
    8e6c:	5f584953 	svcpl	0x00584953
    8e70:	52554f53 	subspl	r4, r5, #332	; 0x14c
    8e74:	31204543 			; <UNDEFINED> instruction: 0x31204543
    8e78:	5f535f00 	svcpl	0x00535f00
    8e7c:	5f505350 	svcpl	0x00505350
    8e80:	5f004154 	svcpl	0x00004154
    8e84:	53505f53 	cmppl	r0, #332	; 0x14c
    8e88:	42545f50 	subsmi	r5, r4, #80, 30	; 0x140
    8e8c:	54584500 	ldrbpl	r4, [r8], #-1280	; 0xfffffb00
    8e90:	43503549 	cmpmi	r0, #306184192	; 0x12400000
    8e94:	45282035 	strmi	r2, [r8, #-53]!	; 0xffffffcb
    8e98:	5f495458 	svcpl	0x00495458
    8e9c:	4f495047 	svcmi	0x00495047
    8ea0:	70614d5f 	rsbvc	r4, r1, pc, asr sp
    8ea4:	676e6970 			; <UNDEFINED> instruction: 0x676e6970
    8ea8:	7b29745f 	blvc	a6602c <_Min_Stack_Size+0xa65c2c>
    8eac:	49545845 	ldmdbmi	r4, {r0, r2, r6, fp, ip, lr}^
    8eb0:	47202c35 			; <UNDEFINED> instruction: 0x47202c35
    8eb4:	434f4950 	movtmi	r4, #63824	; 0xf950
    8eb8:	5047202c 	subpl	r2, r7, ip, lsr #32
    8ebc:	505f4f49 	subspl	r4, pc, r9, asr #30
    8ec0:	355f4e49 	ldrbcc	r4, [pc, #-3657]	; 807f <_Min_Stack_Size+0x7c7f>
    8ec4:	5845202c 	stmdapl	r5, {r2, r3, r5, sp}^
    8ec8:	5f354954 	svcpl	0x00354954
    8ecc:	7d515249 	lfmvc	f5, 2, [r1, #-292]	; 0xfffffedc
    8ed0:	45525f00 	ldrbmi	r5, [r2, #-3840]	; 0xfffff100
    8ed4:	5f544e45 	svcpl	0x00544e45
    8ed8:	454c424d 	strbmi	r4, [ip, #-589]	; 0xfffffdb3
    8edc:	54535f4e 	ldrbpl	r5, [r3], #-3918	; 0xfffff0b2
    8ee0:	28455441 	stmdacs	r5, {r0, r6, sl, ip, lr}^
    8ee4:	29727470 	ldmdbcs	r2!, {r4, r5, r6, sl, ip, sp, lr}^
    8ee8:	70282820 	eorvc	r2, r8, r0, lsr #16
    8eec:	2d297274 	sfmcs	f7, 4, [r9, #-464]!	; 0xfffffe30
    8ef0:	696d5f3e 	stmdbvs	sp!, {r1, r2, r3, r4, r5, r8, r9, sl, fp, ip, lr}^
    8ef4:	3e2d6373 	mcrcc	3, 1, r6, cr13, cr3, {3}
    8ef8:	6c626d5f 	stclvs	13, cr6, [r2], #-380	; 0xfffffe84
    8efc:	735f6e65 	cmpvc	pc, #1616	; 0x650
    8f00:	65746174 	ldrbvs	r6, [r4, #-372]!	; 0xfffffe8c
    8f04:	5f5f0029 	svcpl	0x005f0029
    8f08:	43554e47 	cmpmi	r5, #1136	; 0x470
    8f0c:	4454535f 	ldrbmi	r5, [r4], #-863	; 0xfffffca1
    8f10:	4e495f43 	cdpmi	15, 4, cr5, cr9, cr3, {2}
    8f14:	454e494c 	strbmi	r4, [lr, #-2380]	; 0xfffff6b4
    8f18:	31205f5f 			; <UNDEFINED> instruction: 0x31205f5f
    8f1c:	6e5f5f00 	cdpvs	15, 5, cr5, cr15, cr0, {0}
    8f20:	5f646565 	svcpl	0x00646565
    8f24:	746e6977 	strbtvc	r6, [lr], #-2423	; 0xfffff689
    8f28:	0020745f 	eoreq	r7, r0, pc, asr r4
    8f2c:	43415f5f 	movtmi	r5, #8031	; 0x1f5f
    8f30:	5f4d5543 	svcpl	0x004d5543
    8f34:	49535045 	ldmdbmi	r3, {r0, r2, r6, ip, lr}^
    8f38:	5f4e4f4c 	svcpl	0x004e4f4c
    8f3c:	7830205f 	ldmdavc	r0!, {r0, r1, r2, r3, r4, r6, sp}
    8f40:	312d5031 			; <UNDEFINED> instruction: 0x312d5031
    8f44:	5f004b35 	svcpl	0x00004b35
    8f48:	414c555f 	cmpmi	ip, pc, asr r5
    8f4c:	4d554343 	ldclmi	3, cr4, [r5, #-268]	; 0xfffffef4
    8f50:	5350455f 	cmppl	r0, #398458880	; 0x17c00000
    8f54:	4e4f4c49 	cdpmi	12, 4, cr4, cr15, cr9, {2}
    8f58:	30205f5f 	eorcc	r5, r0, pc, asr pc
    8f5c:	2d503178 	ldfcse	f3, [r0, #-480]	; 0xfffffe20
    8f60:	4c553233 	lfmmi	f3, 2, [r5], {51}	; 0x33
    8f64:	5f5f004b 	svcpl	0x005f004b
    8f68:	4c42444c 	cfstrdmi	mvd4, [r2], {76}	; 0x4c
    8f6c:	4749445f 	smlsldmi	r4, r9, pc, r4	; <UNPREDICTABLE>
    8f70:	31205f5f 			; <UNDEFINED> instruction: 0x31205f5f
    8f74:	5f5f0035 	svcpl	0x005f0035
    8f78:	455a4953 	ldrbmi	r4, [sl, #-2387]	; 0xfffff6ad
    8f7c:	4449575f 	strbmi	r5, [r9], #-1887	; 0xfffff8a1
    8f80:	5f5f4854 	svcpl	0x005f4854
    8f84:	00323320 	eorseq	r3, r2, r0, lsr #6
    8f88:	49545845 	ldmdbmi	r4, {r0, r2, r6, fp, ip, lr}^
    8f8c:	42503131 	subsmi	r3, r0, #1073741836	; 0x4000000c
    8f90:	28203131 	stmdacs	r0!, {r0, r4, r5, r8, ip, sp}
    8f94:	49545845 	ldmdbmi	r4, {r0, r2, r6, fp, ip, lr}^
    8f98:	4950475f 	ldmdbmi	r0, {r0, r1, r2, r3, r4, r6, r8, r9, sl, lr}^
    8f9c:	614d5f4f 	cmpvs	sp, pc, asr #30
    8fa0:	6e697070 	mcrvs	0, 3, r7, cr9, cr0, {3}
    8fa4:	29745f67 	ldmdbcs	r4!, {r0, r1, r2, r5, r6, r8, r9, sl, fp, ip, lr}^
    8fa8:	5458457b 	ldrbpl	r4, [r8], #-1403	; 0xfffffa85
    8fac:	2c313149 	ldfcss	f3, [r1], #-292	; 0xfffffedc
    8fb0:	49504720 	ldmdbmi	r0, {r5, r8, r9, sl, lr}^
    8fb4:	202c424f 	eorcs	r4, ip, pc, asr #4
    8fb8:	4f495047 	svcmi	0x00495047
    8fbc:	4e49505f 	mcrmi	0, 2, r5, cr9, cr15, {2}
    8fc0:	2c31315f 	ldfcss	f3, [r1], #-380	; 0xfffffe84
    8fc4:	54584520 	ldrbpl	r4, [r8], #-1312	; 0xfffffae0
    8fc8:	5f313149 	svcpl	0x00313149
    8fcc:	7d515249 	lfmvc	f5, 2, [r1, #-292]	; 0xfffffedc
    8fd0:	45525f00 	ldrbmi	r5, [r2, #-3840]	; 0xfffff100
    8fd4:	5f544e45 	svcpl	0x00544e45
    8fd8:	525f504d 	subspl	r5, pc, #77	; 0x4d
    8fdc:	4c555345 	mrrcmi	3, 4, r5, r5, cr5	; <UNPREDICTABLE>
    8fe0:	74702854 	ldrbtvc	r2, [r0], #-2132	; 0xfffff7ac
    8fe4:	28202972 	stmdacs	r0!, {r1, r4, r5, r6, r8, fp, sp}
    8fe8:	72747028 	rsbsvc	r7, r4, #40	; 0x28
    8fec:	5f3e2d29 	svcpl	0x003e2d29
    8ff0:	3e2d706d 	cdpcc	0, 2, cr7, cr13, cr13, {3}
    8ff4:	7365725f 	cmnvc	r5, #-268435451	; 0xf0000005
    8ff8:	29746c75 	ldmdbcs	r4!, {r0, r2, r4, r5, r6, sl, fp, sp, lr}^
    8ffc:	465f5f00 	ldrbmi	r5, [pc], -r0, lsl #30
    9000:	3233544c 	eorscc	r5, r3, #76, 8	; 0x4c000000
    9004:	4e45445f 	mcrmi	4, 2, r4, cr5, cr15, {2}
    9008:	5f4d524f 	svcpl	0x004d524f
    900c:	5f4e494d 	svcpl	0x004e494d
    9010:	2e31205f 	mrccs	0, 1, r2, cr1, cr15, {2}
    9014:	32313034 	eorscc	r3, r1, #52	; 0x34
    9018:	36343839 			; <UNDEFINED> instruction: 0x36343839
    901c:	34323334 	ldrtcc	r3, [r2], #-820	; 0xfffffccc
    9020:	31373138 	teqcc	r7, r8, lsr r1
    9024:	35342d65 	ldrcc	r2, [r4, #-3429]!	; 0xfffff29b
    9028:	00323346 	eorseq	r3, r2, r6, asr #6
    902c:	49575f5f 	ldmdbmi	r7, {r0, r1, r2, r3, r4, r6, r8, r9, sl, fp, ip, lr}^
    9030:	4d5f544e 	cfldrdmi	mvd5, [pc, #-312]	; 8f00 <_Min_Stack_Size+0x8b00>
    9034:	5f5f4e49 	svcpl	0x005f4e49
    9038:	00553020 	subseq	r3, r5, r0, lsr #32
    903c:	54524155 	ldrbpl	r4, [r2], #-341	; 0xfffffeab
    9040:	6f74735f 	svcvs	0x0074735f
    9044:	74694270 	strbtvc	r4, [r9], #-624	; 0xfffffd90
    9048:	61685f73 	smcvs	34291	; 0x85f3
    904c:	2820666c 	stmdacs	r0!, {r2, r3, r5, r6, r9, sl, sp, lr}
    9050:	746e6975 	strbtvc	r6, [lr], #-2421	; 0xfffff68b
    9054:	745f3233 	ldrbvc	r3, [pc], #-563	; 905c <_Min_Stack_Size+0x8c5c>
    9058:	3c312829 	ldccc	8, cr2, [r1], #-164	; 0xffffff5c
    905c:	2932313c 	ldmdbcs	r2!, {r2, r3, r4, r5, r8, ip, sp}
    9060:	465f5f00 	ldrbmi	r5, [pc], -r0, lsl #30
    9064:	3436544c 	ldrtcc	r5, [r6], #-1100	; 0xfffffbb4
    9068:	4749445f 	smlsldmi	r4, r9, pc, r4	; <UNPREDICTABLE>
    906c:	31205f5f 			; <UNDEFINED> instruction: 0x31205f5f
    9070:	495f0035 	ldmdbmi	pc, {r0, r2, r4, r5}^	; <UNPREDICTABLE>
    9074:	3233544e 	eorscc	r5, r3, #1308622848	; 0x4e000000
    9078:	5f51455f 	svcpl	0x0051455f
    907c:	474e4f4c 	strbmi	r4, [lr, -ip, asr #30]
    9080:	50470020 	subpl	r0, r7, r0, lsr #32
    9084:	505f4f49 	subspl	r4, pc, r9, asr #30
    9088:	395f4e49 	ldmdbcc	pc, {r0, r3, r6, r9, sl, fp, lr}^	; <UNPREDICTABLE>
    908c:	75282820 	strvc	r2, [r8, #-2080]!	; 0xfffff7e0
    9090:	31746e69 	cmncc	r4, r9, ror #28
    9094:	29745f36 	ldmdbcs	r4!, {r1, r2, r4, r5, r8, r9, sl, fp, ip, lr}^
    9098:	30783020 	rsbscc	r3, r8, r0, lsr #32
    909c:	29303032 	ldmdbcs	r0!, {r1, r4, r5, ip, sp}
    90a0:	575f5f00 	ldrbpl	r5, [pc, -r0, lsl #30]
    90a4:	5f544e49 	svcpl	0x00544e49
    90a8:	5f58414d 	svcpl	0x0058414d
    90ac:	7830205f 	ldmdavc	r0!, {r0, r1, r2, r3, r4, r6, sp}
    90b0:	66666666 	strbtvs	r6, [r6], -r6, ror #12
    90b4:	66666666 	strbtvs	r6, [r6], -r6, ror #12
    90b8:	5f5f0055 	svcpl	0x005f0055
    90bc:	5f544e49 	svcpl	0x00544e49
    90c0:	5341454c 	movtpl	r4, #5452	; 0x154c
    90c4:	575f3854 			; <UNDEFINED> instruction: 0x575f3854
    90c8:	48544449 	ldmdami	r4, {r0, r3, r6, sl, lr}^
    90cc:	38205f5f 	stmdacc	r0!, {r0, r1, r2, r3, r4, r6, r8, r9, sl, fp, ip, lr}
    90d0:	49504700 	ldmdbmi	r0, {r8, r9, sl, lr}^
    90d4:	49505f4f 	ldmdbmi	r0, {r0, r1, r2, r3, r6, r8, r9, sl, fp, ip, lr}^
    90d8:	20335f4e 	eorscs	r5, r3, lr, asr #30
    90dc:	69752828 	ldmdbvs	r5!, {r3, r5, fp, sp}^
    90e0:	3631746e 	ldrtcc	r7, [r1], -lr, ror #8
    90e4:	2029745f 	eorcs	r7, r9, pc, asr r4
    90e8:	30307830 	eorscc	r7, r0, r0, lsr r8
    90ec:	00293830 	eoreq	r3, r9, r0, lsr r8
    90f0:	6f6c5f5f 	svcvs	0x006c5f5f
    90f4:	645f676e 	ldrbvs	r6, [pc], #-1902	; 90fc <_Min_Stack_Size+0x8cfc>
    90f8:	6c62756f 	cfstr64vs	mvdx7, [r2], #-444	; 0xfffffe44
    90fc:	20745f65 	rsbscs	r5, r4, r5, ror #30
    9100:	676e6f6c 	strbvs	r6, [lr, -ip, ror #30]!
    9104:	756f6420 	strbvc	r6, [pc, #-1056]!	; 8cec <_Min_Stack_Size+0x88ec>
    9108:	00656c62 	rsbeq	r6, r5, r2, ror #24
    910c:	4e495f5f 	mcrmi	15, 2, r5, cr9, cr15, {2}
    9110:	454c5f54 	strbmi	r5, [ip, #-3924]	; 0xfffff0ac
    9114:	31545341 	cmpcc	r4, r1, asr #6
    9118:	59545f36 	ldmdbpl	r4, {r1, r2, r4, r5, r8, r9, sl, fp, ip, lr}^
    911c:	5f5f4550 	svcpl	0x005f4550
    9120:	6f687320 	svcvs	0x00687320
    9124:	69207472 	stmdbvs	r0!, {r1, r4, r5, r6, sl, ip, sp, lr}
    9128:	5f00746e 	svcpl	0x0000746e
    912c:	5f51515f 	svcpl	0x0051515f
    9130:	54494246 	strbpl	r4, [r9], #-582	; 0xfffffdba
    9134:	37205f5f 			; <UNDEFINED> instruction: 0x37205f5f
    9138:	434e4900 	movtmi	r4, #59648	; 0xe900
    913c:	4d54535f 	ldclmi	3, cr5, [r4, #-380]	; 0xfffffe84
    9140:	465f3233 			; <UNDEFINED> instruction: 0x465f3233
    9144:	58333031 	ldmdapl	r3!, {r0, r4, r5, ip, sp}
    9148:	5f485f36 	svcpl	0x00485f36
    914c:	5f5f0020 	svcpl	0x005f0020
    9150:	5f4c4244 	svcpl	0x004c4244
    9154:	5f58414d 	svcpl	0x0058414d
    9158:	2828205f 	stmdacs	r8!, {r0, r1, r2, r3, r4, r6, sp}
    915c:	62756f64 	rsbsvs	r6, r5, #100, 30	; 0x190
    9160:	3129656c 			; <UNDEFINED> instruction: 0x3129656c
    9164:	3739372e 	ldrcc	r3, [r9, -lr, lsr #14]!
    9168:	31333936 	teqcc	r3, r6, lsr r9
    916c:	36383433 			; <UNDEFINED> instruction: 0x36383433
    9170:	35313332 	ldrcc	r3, [r1, #-818]!	; 0xfffffcce
    9174:	332b6537 			; <UNDEFINED> instruction: 0x332b6537
    9178:	294c3830 	stmdbcs	ip, {r4, r5, fp, ip, sp}^
    917c:	4c5f5f00 	mrrcmi	15, 0, r5, pc, cr0	; <UNPREDICTABLE>
    9180:	4152464c 	cmpmi	r2, ip, asr #12
    9184:	465f5443 	ldrbmi	r5, [pc], -r3, asr #8
    9188:	5f544942 	svcpl	0x00544942
    918c:	3336205f 	teqcc	r6, #95	; 0x5f
    9190:	465f5f00 	ldrbmi	r5, [pc], -r0, lsl #30
    9194:	3233544c 	eorscc	r5, r3, #76, 8	; 0x4c000000
    9198:	5341485f 	movtpl	r4, #6239	; 0x185f
    919c:	464e495f 			; <UNDEFINED> instruction: 0x464e495f
    91a0:	54494e49 	strbpl	r4, [r9], #-3657	; 0xfffff1b7
    91a4:	205f5f59 	subscs	r5, pc, r9, asr pc	; <UNPREDICTABLE>
    91a8:	5f5f0031 	svcpl	0x005f0031
    91ac:	6d756874 	ldclvs	8, cr6, [r5, #-464]!	; 0xfffffe30
    91b0:	205f5f62 	subscs	r5, pc, r2, ror #30
    91b4:	58450031 	stmdapl	r5, {r0, r4, r5}^
    91b8:	33314954 	teqcc	r1, #84, 18	; 0x150000
    91bc:	33314350 	teqcc	r1, #80, 6	; 0x40000001
    91c0:	58452820 	stmdapl	r5, {r5, fp, sp}^
    91c4:	475f4954 			; <UNDEFINED> instruction: 0x475f4954
    91c8:	5f4f4950 	svcpl	0x004f4950
    91cc:	7070614d 	rsbsvc	r6, r0, sp, asr #2
    91d0:	5f676e69 	svcpl	0x00676e69
    91d4:	457b2974 	ldrbmi	r2, [fp, #-2420]!	; 0xfffff68c
    91d8:	31495458 	cmpcc	r9, r8, asr r4
    91dc:	47202c33 			; <UNDEFINED> instruction: 0x47202c33
    91e0:	434f4950 	movtmi	r4, #63824	; 0xf950
    91e4:	5047202c 	subpl	r2, r7, ip, lsr #32
    91e8:	505f4f49 	subspl	r4, pc, r9, asr #30
    91ec:	315f4e49 	cmpcc	pc, r9, asr #28
    91f0:	45202c33 	strmi	r2, [r0, #-3123]!	; 0xfffff3cd
    91f4:	31495458 	cmpcc	r9, r8, asr r4
    91f8:	52495f33 	subpl	r5, r9, #51, 30	; 0xcc
    91fc:	54007d51 	strpl	r7, [r0], #-3409	; 0xfffff2af
    9200:	34314d49 	ldrtcc	r4, [r1], #-3401	; 0xfffff2b7
    9204:	5341425f 	movtpl	r4, #4703	; 0x125f
    9208:	78302045 	ldmdavc	r0!, {r0, r2, r6, sp}
    920c:	30303034 	eorscc	r3, r0, r4, lsr r0
    9210:	30303032 	eorscc	r3, r0, r2, lsr r0
    9214:	46410075 			; <UNDEFINED> instruction: 0x46410075
    9218:	28204f49 	stmdacs	r0!, {r0, r3, r6, r8, r9, sl, fp, lr}
    921c:	49464128 	stmdbmi	r6, {r3, r5, r8, lr}^
    9220:	79545f4f 	ldmdbvc	r4, {r0, r1, r2, r3, r6, r8, r9, sl, fp, ip, lr}^
    9224:	65646570 	strbvs	r6, [r4, #-1392]!	; 0xfffffa90
    9228:	20745f66 	rsbscs	r5, r4, r6, ror #30
    922c:	4641292a 	strbmi	r2, [r1], -sl, lsr #18
    9230:	425f4f49 	subsmi	r4, pc, #292	; 0x124
    9234:	29455341 	stmdbcs	r5, {r0, r6, r8, r9, ip, lr}^
    9238:	415f5f00 	cmpmi	pc, r0, lsl #30
    923c:	4c454d52 	mcrrmi	13, 5, r4, r5, cr2
    9240:	31205f5f 			; <UNDEFINED> instruction: 0x31205f5f
    9244:	4e495f00 	cdpmi	15, 4, cr5, cr9, cr0, {0}
    9248:	58414d54 	stmdapl	r1, {r2, r4, r6, r8, sl, fp, lr}^
    924c:	445f545f 	ldrbmi	r5, [pc], #-1119	; 9254 <_Min_Stack_Size+0x8e54>
    9250:	414c4345 	cmpmi	ip, r5, asr #6
    9254:	20444552 	subcs	r4, r4, r2, asr r5
    9258:	665f5f00 	ldrbvs	r5, [pc], -r0, lsl #30
    925c:	616d726f 	cmnvs	sp, pc, ror #4
    9260:	72615f74 	rsbvc	r5, r1, #116, 30	; 0x1d0
    9264:	6d662867 	stclvs	8, cr2, [r6, #-412]!	; 0xfffffe64
    9268:	67726174 			; <UNDEFINED> instruction: 0x67726174
    926c:	5f5f2029 	svcpl	0x005f2029
    9270:	72747461 	rsbsvc	r7, r4, #1627389952	; 0x61000000
    9274:	74756269 	ldrbtvc	r6, [r5], #-617	; 0xfffffd97
    9278:	285f5f65 	ldmdacs	pc, {r0, r2, r5, r6, r8, r9, sl, fp, ip, lr}^	; <UNPREDICTABLE>
    927c:	665f5f28 	ldrbvs	r5, [pc], -r8, lsr #30
    9280:	616d726f 	cmnvs	sp, pc, ror #4
    9284:	72615f74 	rsbvc	r5, r1, #116, 30	; 0x1d0
    9288:	205f5f67 	subscs	r5, pc, r7, ror #30
    928c:	746d6628 	strbtvc	r6, [sp], #-1576	; 0xfffff9d8
    9290:	29677261 	stmdbcs	r7!, {r0, r5, r6, r9, ip, sp, lr}^
    9294:	5f002929 	svcpl	0x00002929
    9298:	6d6f635f 	stclvs	3, cr6, [pc, #-380]!	; 9124 <_Min_Stack_Size+0x8d24>
    929c:	656c6970 	strbvs	r6, [ip, #-2416]!	; 0xfffff690
    92a0:	656d5f72 	strbvs	r5, [sp, #-3954]!	; 0xfffff08e
    92a4:	7261626d 	rsbvc	r6, r1, #-805306362	; 0xd0000006
    92a8:	5f202928 	svcpl	0x00202928
    92ac:	6d73615f 	ldfvse	f6, [r3, #-380]!	; 0xfffffe84
    92b0:	765f5f20 	ldrbvc	r5, [pc], -r0, lsr #30
    92b4:	74616c6f 	strbtvc	r6, [r1], #-3183	; 0xfffff391
    92b8:	28656c69 	stmdacs	r5!, {r0, r3, r5, r6, sl, fp, sp, lr}^
    92bc:	20222022 	eorcs	r2, r2, r2, lsr #32
    92c0:	203a203a 	eorscs	r2, sl, sl, lsr r0
    92c4:	6d22203a 	stcvs	0, cr2, [r2, #-232]!	; 0xffffff18
    92c8:	726f6d65 	rsbvc	r6, pc, #6464	; 0x1940
    92cc:	00292279 	eoreq	r2, r9, r9, ror r2
    92d0:	6f6c5f5f 	svcvs	0x006c5f5f
    92d4:	635f6b63 	cmpvs	pc, #101376	; 0x18c00
    92d8:	65736f6c 	ldrbvs	r6, [r3, #-3948]!	; 0xfffff094
    92dc:	636f6c28 	cmnvs	pc, #40, 24	; 0x2800
    92e0:	5f20296b 	svcpl	0x0020296b
    92e4:	7465725f 	strbtvc	r7, [r5], #-607	; 0xfffffda1
    92e8:	65677261 	strbvs	r7, [r7, #-609]!	; 0xfffffd9f
    92ec:	6f6c5f74 	svcvs	0x006c5f74
    92f0:	635f6b63 	cmpvs	pc, #101376	; 0x18c00
    92f4:	65736f6c 	ldrbvs	r6, [r3, #-3948]!	; 0xfffff094
    92f8:	636f6c28 	cmnvs	pc, #40, 24	; 0x2800
    92fc:	5f00296b 	svcpl	0x0000296b
    9300:	5f51485f 	svcpl	0x0051485f
    9304:	54494246 	strbpl	r4, [r9], #-582	; 0xfffffdba
    9308:	31205f5f 			; <UNDEFINED> instruction: 0x31205f5f
    930c:	5f5f0035 	svcpl	0x005f0035
    9310:	61746164 	cmnvs	r4, r4, ror #2
    9314:	65707974 	ldrbvs	r7, [r0, #-2420]!	; 0xfffff68c
    9318:	7079745f 	rsbsvc	r7, r9, pc, asr r4
    931c:	61745f65 	cmnvs	r4, r5, ror #30
    9320:	696b2867 	stmdbvs	fp!, {r0, r1, r2, r5, r6, fp, sp}^
    9324:	742c646e 	strtvc	r6, [ip], #-1134	; 0xfffffb92
    9328:	29657079 	stmdbcs	r5!, {r0, r3, r4, r5, r6, ip, sp, lr}^
    932c:	5f5f0020 	svcpl	0x005f0020
    9330:	455a4953 	ldrbmi	r4, [sl, #-2387]	; 0xfffff6ad
    9334:	58414d5f 	stmdapl	r1, {r0, r1, r2, r3, r4, r6, r8, sl, fp, lr}^
    9338:	30205f5f 	eorcc	r5, r0, pc, asr pc
    933c:	66666678 			; <UNDEFINED> instruction: 0x66666678
    9340:	66666666 	strbtvs	r6, [r6], -r6, ror #12
    9344:	4e005566 	cfsh32mi	mvfx5, mvfx0, #54
    9348:	5f434956 	svcpl	0x00434956
    934c:	33495053 	movtcc	r5, #36947	; 0x9053
    9350:	5152495f 	cmppl	r2, pc, asr r9
    9354:	7369445f 	cmnvc	r9, #1593835520	; 0x5f000000
    9358:	656c6261 	strbvs	r6, [ip, #-609]!	; 0xfffffd9f
    935c:	564e2820 	strbpl	r2, [lr], -r0, lsr #16
    9360:	495f4349 	ldmdbmi	pc, {r0, r3, r6, r8, r9, lr}^	; <UNPREDICTABLE>
    9364:	31524543 	cmpcc	r2, r3, asr #10
    9368:	203d7c20 	eorscs	r7, sp, r0, lsr #24
    936c:	283c3c31 	ldmdacs	ip!, {r0, r4, r5, sl, fp, ip, sp}
    9370:	33495053 	movtcc	r5, #36947	; 0x9053
    9374:	5152495f 	cmppl	r2, pc, asr r9
    9378:	33202d20 			; <UNDEFINED> instruction: 0x33202d20
    937c:	00292932 	eoreq	r2, r9, r2, lsr r9
    9380:	314d4954 	cmpcc	sp, r4, asr r9
    9384:	41425f33 	cmpmi	r2, r3, lsr pc
    9388:	30204553 	eorcc	r4, r0, r3, asr r5
    938c:	30303478 	eorscc	r3, r0, r8, ror r4
    9390:	30433130 	subcc	r3, r3, r0, lsr r1
    9394:	30207530 	eorcc	r7, r0, r0, lsr r5
    9398:	30303478 	eorscc	r3, r0, r8, ror r4
    939c:	30322030 	eorscc	r2, r2, r0, lsr r0
    93a0:	5f003030 	svcpl	0x00003030
    93a4:	544e495f 	strbpl	r4, [lr], #-2399	; 0xfffff6a1
    93a8:	22203436 	eorcs	r3, r0, #905969664	; 0x36000000
    93ac:	00226c6c 	eoreq	r6, r2, ip, ror #24
    93b0:	6c615f5f 	stclvs	15, cr5, [r1], #-380	; 0xfffffe84
    93b4:	73796177 	cmnvc	r9, #-1073741795	; 0xc000001d
    93b8:	6c6e695f 			; <UNDEFINED> instruction: 0x6c6e695f
    93bc:	20656e69 	rsbcs	r6, r5, r9, ror #28
    93c0:	6e695f5f 	mcrvs	15, 3, r5, cr9, cr15, {2}
    93c4:	656e696c 	strbvs	r6, [lr, #-2412]!	; 0xfffff694
    93c8:	5f205f5f 	svcpl	0x00205f5f
    93cc:	7474615f 	ldrbtvc	r6, [r4], #-351	; 0xfffffea1
    93d0:	75626972 	strbvc	r6, [r2, #-2418]!	; 0xfffff68e
    93d4:	5f5f6574 	svcpl	0x005f6574
    93d8:	5f5f2828 	svcpl	0x005f2828
    93dc:	61776c61 	cmnvs	r7, r1, ror #24
    93e0:	695f7379 	ldmdbvs	pc, {r0, r3, r4, r5, r6, r8, r9, ip, sp, lr}^	; <UNPREDICTABLE>
    93e4:	6e696c6e 	cdpvs	12, 6, cr6, cr9, cr14, {3}
    93e8:	295f5f65 	ldmdbcs	pc, {r0, r2, r5, r6, r8, r9, sl, fp, ip, lr}^	; <UNPREDICTABLE>
    93ec:	50470029 	subpl	r0, r7, r9, lsr #32
    93f0:	505f4f49 	subspl	r4, pc, r9, asr #30
    93f4:	315f4e49 	cmpcc	pc, r9, asr #28
    93f8:	28282030 	stmdacs	r8!, {r4, r5, sp}
    93fc:	746e6975 	strbtvc	r6, [lr], #-2421	; 0xfffff68b
    9400:	745f3631 	ldrbvc	r3, [pc], #-1585	; 9408 <_Min_Stack_Size+0x9008>
    9404:	78302029 	ldmdavc	r0!, {r0, r3, r5, sp}
    9408:	30303430 	eorscc	r3, r0, r0, lsr r4
    940c:	5f5f0029 	svcpl	0x005f0029
    9410:	5f4d5241 	svcpl	0x004d5241
    9414:	48435241 	stmdami	r3, {r0, r6, r9, ip, lr}^
    9418:	4e495500 	cdpmi	5, 4, cr5, cr9, cr0, {0}
    941c:	4d5f3854 	ldclmi	8, cr3, [pc, #-336]	; 92d4 <_Min_Stack_Size+0x8ed4>
    9420:	28205841 	stmdacs	r0!, {r0, r6, fp, ip, lr}
    9424:	49555f5f 	ldmdbmi	r5, {r0, r1, r2, r3, r4, r6, r8, r9, sl, fp, ip, lr}^
    9428:	5f38544e 	svcpl	0x0038544e
    942c:	5f58414d 	svcpl	0x0058414d
    9430:	5f00295f 	svcpl	0x0000295f
    9434:	4e4f4c5f 	mcrmi	12, 2, r4, cr15, cr15, {2}
    9438:	414d5f47 	cmpmi	sp, r7, asr #30
    943c:	205f5f58 	subscs	r5, pc, r8, asr pc	; <UNPREDICTABLE>
    9440:	66377830 			; <UNDEFINED> instruction: 0x66377830
    9444:	66666666 	strbtvs	r6, [r6], -r6, ror #12
    9448:	004c6666 	subeq	r6, ip, r6, ror #12
    944c:	5f435653 	svcpl	0x00435653
    9450:	646e6148 	strbtvs	r6, [lr], #-328	; 0xfffffeb8
    9454:	0072656c 	rsbseq	r6, r2, ip, ror #10
    9458:	676e6f6c 	strbvs	r6, [lr, -ip, ror #30]!
    945c:	00342b20 	eorseq	r2, r4, r0, lsr #22
    9460:	49545845 	ldmdbmi	r4, {r0, r2, r6, fp, ip, lr}^
    9464:	00332033 	eorseq	r2, r3, r3, lsr r0
    9468:	6f6e5f5f 	svcvs	0x006e5f5f
    946c:	6c756e6e 	ldclvs	14, cr6, [r5], #-440	; 0xfffffe48
    9470:	2978286c 	ldmdbcs	r8!, {r2, r3, r5, r6, fp, sp}^
    9474:	615f5f20 	cmpvs	pc, r0, lsr #30
    9478:	69727474 	ldmdbvs	r2!, {r2, r4, r5, r6, sl, ip, sp, lr}^
    947c:	65747562 	ldrbvs	r7, [r4, #-1378]!	; 0xfffffa9e
    9480:	28285f5f 	stmdacs	r8!, {r0, r1, r2, r3, r4, r6, r8, r9, sl, fp, ip, lr}
    9484:	6f6e5f5f 	svcvs	0x006e5f5f
    9488:	6c756e6e 	ldclvs	14, cr6, [r5], #-440	; 0xfffffe48
    948c:	205f5f6c 	subscs	r5, pc, ip, ror #30
    9490:	00292978 	eoreq	r2, r9, r8, ror r9
    9494:	4e41525f 	mcrmi	2, 2, r5, cr1, cr15, {2}
    9498:	5f383444 	svcpl	0x00383444
    949c:	20444441 	subcs	r4, r4, r1, asr #8
    94a0:	30783028 	rsbscc	r3, r8, r8, lsr #32
    94a4:	29623030 	stmdbcs	r2!, {r4, r5, ip, sp}^
    94a8:	49584500 	ldmdbmi	r8, {r8, sl, lr}^
    94ac:	41465f54 	cmpmi	r6, r4, asr pc
    94b0:	52554c49 	subspl	r4, r5, #18688	; 0x4900
    94b4:	00312045 	eorseq	r2, r1, r5, asr #32
    94b8:	49545845 	ldmdbmi	r4, {r0, r2, r6, fp, ip, lr}^
    94bc:	31203331 			; <UNDEFINED> instruction: 0x31203331
    94c0:	5f5f0033 	svcpl	0x005f0033
    94c4:	5f4d5241 	svcpl	0x004d5241
    94c8:	54414546 	strbpl	r4, [r1], #-1350	; 0xfffffaba
    94cc:	5f455255 	svcpl	0x00455255
    94d0:	4552444c 	ldrbmi	r4, [r2, #-1100]	; 0xfffffbb4
    94d4:	00372058 	eorseq	r2, r7, r8, asr r0
    94d8:	4349564e 	movtmi	r5, #38478	; 0x964e
    94dc:	4543495f 	strbmi	r4, [r3, #-2399]	; 0xfffff6a1
    94e0:	2a203252 	bcs	815e30 <_Min_Stack_Size+0x815a30>
    94e4:	6c6f7628 	stclvs	6, cr7, [pc], #-160	; 944c <_Min_Stack_Size+0x904c>
    94e8:	6c697461 	cfstrdvs	mvd7, [r9], #-388	; 0xfffffe7c
    94ec:	69752065 	ldmdbvs	r5!, {r0, r2, r5, r6, sp}^
    94f0:	3233746e 	eorscc	r7, r3, #1845493760	; 0x6e000000
    94f4:	202a745f 	eorcs	r7, sl, pc, asr r4
    94f8:	564e2829 	strbpl	r2, [lr], -r9, lsr #16
    94fc:	425f4349 	subsmi	r4, pc, #603979777	; 0x24000001
    9500:	20657361 	rsbcs	r7, r5, r1, ror #6
    9504:	3078302b 	rsbscc	r3, r8, fp, lsr #32
    9508:	00293838 	eoreq	r3, r9, r8, lsr r8
    950c:	4c4c5f5f 	mcrrmi	15, 5, r5, ip, cr15
    9510:	43415246 	movtmi	r5, #4678	; 0x1246
    9514:	50455f54 	subpl	r5, r5, r4, asr pc
    9518:	4f4c4953 	svcmi	0x004c4953
    951c:	205f5f4e 	subscs	r5, pc, lr, asr #30
    9520:	50317830 	eorspl	r7, r1, r0, lsr r8
    9524:	4c33362d 	ldcmi	6, cr3, [r3], #-180	; 0xffffff4c
    9528:	5f00524c 	svcpl	0x0000524c
    952c:	4d52415f 	ldfmie	f4, [r2, #-380]	; 0xfffffe84
    9530:	4145465f 	cmpmi	r5, pc, asr r6
    9534:	45525554 	ldrbmi	r5, [r2, #-1364]	; 0xfffffaac
    9538:	4d49535f 	stclmi	3, cr5, [r9, #-380]	; 0xfffffe84
    953c:	00323344 	eorseq	r3, r2, r4, asr #6
    9540:	4c465f5f 	mcrrmi	15, 5, r5, r6, cr15
    9544:	58323354 	ldmdapl	r2!, {r2, r4, r6, r8, r9, ip, sp}
    9548:	4e414d5f 	mcrmi	13, 2, r4, cr1, cr15, {2}
    954c:	49445f54 	stmdbmi	r4, {r2, r4, r6, r8, r9, sl, fp, ip, lr}^
    9550:	205f5f47 	subscs	r5, pc, r7, asr #30
    9554:	45003335 	strmi	r3, [r0, #-821]	; 0xfffffccb
    9558:	38495458 	stmdacc	r9, {r3, r4, r6, sl, ip, lr}^
    955c:	5f003820 	svcpl	0x00003820
    9560:	4c57454e 	cfldr64mi	mvdx4, [r7], {78}	; 0x4e
    9564:	565f4249 	ldrbpl	r4, [pc], -r9, asr #4
    9568:	49535245 	ldmdbmi	r3, {r0, r2, r6, r9, ip, lr}^
    956c:	22204e4f 	eorcs	r4, r0, #1264	; 0x4f0
    9570:	2e312e34 	mrccs	14, 1, r2, cr1, cr4, {1}
    9574:	5f002230 	svcpl	0x00002230
    9578:	4843575f 	stmdami	r3, {r0, r1, r2, r3, r4, r6, r8, r9, sl, ip, lr}^
    957c:	575f5241 	ldrbpl	r5, [pc, -r1, asr #4]
    9580:	48544449 	ldmdami	r4, {r0, r3, r6, sl, lr}^
    9584:	33205f5f 			; <UNDEFINED> instruction: 0x33205f5f
    9588:	5f5f0032 	svcpl	0x005f0032
    958c:	31544e49 	cmpcc	r4, r9, asr #28
    9590:	28435f36 	stmdacs	r3, {r1, r2, r4, r5, r8, r9, sl, fp, ip, lr}^
    9594:	63202963 			; <UNDEFINED> instruction: 0x63202963
    9598:	54564900 	ldrbpl	r4, [r6], #-2304	; 0xfffff700
    959c:	5152495f 	cmppl	r2, pc, asr r9
    95a0:	6d754e5f 	ldclvs	14, cr4, [r5, #-380]!	; 0xfffffe84
    95a4:	00726562 	rsbseq	r6, r2, r2, ror #10
    95a8:	5f434e49 	svcpl	0x00434e49
    95ac:	334d5453 	movtcc	r5, #54355	; 0xd453
    95b0:	31465f32 	cmpcc	r6, r2, lsr pc
    95b4:	36433330 			; <UNDEFINED> instruction: 0x36433330
    95b8:	4952445f 	ldmdbmi	r2, {r0, r1, r2, r3, r4, r6, sl, lr}^
    95bc:	53524556 	cmppl	r2, #360710144	; 0x15800000
    95c0:	4343525f 	movtmi	r5, #12895	; 0x325f
    95c4:	205f485f 	subscs	r4, pc, pc, asr r8	; <UNPREDICTABLE>
    95c8:	445f5f00 	ldrbmi	r5, [pc], #-3840	; 95d0 <_Min_Stack_Size+0x91d0>
    95cc:	42495f41 	submi	r5, r9, #260	; 0x104
    95d0:	5f5f5449 	svcpl	0x005f5449
    95d4:	00323320 	eorseq	r3, r2, r0, lsr #6
    95d8:	74735f5f 	ldrbtvc	r5, [r3], #-3935	; 0xfffff0a1
    95dc:	69746672 	ldmdbvs	r4!, {r1, r4, r5, r6, r9, sl, sp, lr}^
    95e0:	696c656d 	stmdbvs	ip!, {r0, r2, r3, r5, r6, r8, sl, sp, lr}^
    95e4:	6628656b 	strtvs	r6, [r8], -fp, ror #10
    95e8:	7261746d 	rsbvc	r7, r1, #1828716544	; 0x6d000000
    95ec:	69662c67 	stmdbvs	r6!, {r0, r1, r2, r5, r6, sl, fp, sp}^
    95f0:	76747372 			; <UNDEFINED> instruction: 0x76747372
    95f4:	72617261 	rsbvc	r7, r1, #268435462	; 0x10000006
    95f8:	5f202967 	svcpl	0x00202967
    95fc:	7474615f 	ldrbtvc	r6, [r4], #-351	; 0xfffffea1
    9600:	75626972 	strbvc	r6, [r2, #-2418]!	; 0xfffff68e
    9604:	5f5f6574 	svcpl	0x005f6574
    9608:	5f5f2828 	svcpl	0x005f2828
    960c:	6d726f66 	ldclvs	15, cr6, [r2, #-408]!	; 0xfffffe68
    9610:	5f5f7461 	svcpl	0x005f7461
    9614:	5f5f2820 	svcpl	0x005f2820
    9618:	66727473 			; <UNDEFINED> instruction: 0x66727473
    961c:	656d6974 	strbvs	r6, [sp, #-2420]!	; 0xfffff68c
    9620:	202c5f5f 	eorcs	r5, ip, pc, asr pc
    9624:	61746d66 	cmnvs	r4, r6, ror #26
    9628:	202c6772 	eorcs	r6, ip, r2, ror r7
    962c:	73726966 	cmnvc	r2, #1671168	; 0x198000
    9630:	72617674 	rsbvc	r7, r1, #116, 12	; 0x7400000
    9634:	29677261 	stmdbcs	r7!, {r0, r5, r6, r9, ip, sp, lr}^
    9638:	5f002929 	svcpl	0x00002929
    963c:	5145445f 	cmppl	r5, pc, asr r4
    9640:	494c4155 	stmdbmi	ip, {r0, r2, r4, r6, r8, lr}^
    9644:	74285946 	strtvc	r5, [r8], #-2374	; 0xfffff6ba
    9648:	2c657079 	stclcs	0, cr7, [r5], #-484	; 0xfffffe1c
    964c:	29726176 	ldmdbcs	r2!, {r1, r2, r4, r5, r6, r8, sp, lr}^
    9650:	74282820 	strtvc	r2, [r8], #-2080	; 0xfffff7e0
    9654:	29657079 	stmdbcs	r5!, {r0, r3, r4, r5, r6, ip, sp, lr}^
    9658:	755f5f28 	ldrbvc	r5, [pc, #-3880]	; 8738 <_Min_Stack_Size+0x8338>
    965c:	70746e69 	rsbsvc	r6, r4, r9, ror #28
    9660:	745f7274 	ldrbvc	r7, [pc], #-628	; 9668 <_Min_Stack_Size+0x9268>
    9664:	6f632829 	svcvs	0x00632829
    9668:	2074736e 	rsbscs	r7, r4, lr, ror #6
    966c:	616c6f76 	smcvs	50934	; 0xc6f6
    9670:	656c6974 	strbvs	r6, [ip, #-2420]!	; 0xfffff68c
    9674:	696f7620 	stmdbvs	pc!, {r5, r9, sl, ip, sp, lr}^	; <UNPREDICTABLE>
    9678:	292a2064 	stmdbcs	sl!, {r2, r5, r6, sp}
    967c:	72617628 	rsbvc	r7, r1, #40, 12	; 0x2800000
    9680:	5f002929 	svcpl	0x00002929
    9684:	636f6c5f 	cmnvs	pc, #24320	; 0x5f00
    9688:	6e695f6b 	cdpvs	15, 6, cr5, cr9, cr11, {3}
    968c:	725f7469 	subsvc	r7, pc, #1761607680	; 0x69000000
    9690:	72756365 	rsbsvc	r6, r5, #-1811939327	; 0x94000001
    9694:	65766973 	ldrbvs	r6, [r6, #-2419]!	; 0xfffff68d
    9698:	636f6c28 	cmnvs	pc, #40, 24	; 0x2800
    969c:	5f20296b 	svcpl	0x0020296b
    96a0:	7465725f 	strbtvc	r7, [r5], #-607	; 0xfffffda1
    96a4:	65677261 	strbvs	r7, [r7, #-609]!	; 0xfffffd9f
    96a8:	6f6c5f74 	svcvs	0x006c5f74
    96ac:	695f6b63 	ldmdbvs	pc, {r0, r1, r5, r6, r8, r9, fp, sp, lr}^	; <UNPREDICTABLE>
    96b0:	5f74696e 	svcpl	0x0074696e
    96b4:	75636572 	strbvc	r6, [r3, #-1394]!	; 0xfffffa8e
    96b8:	76697372 			; <UNDEFINED> instruction: 0x76697372
    96bc:	6c262865 	stcvs	8, cr2, [r6], #-404	; 0xfffffe6c
    96c0:	296b636f 	stmdbcs	fp!, {r0, r1, r2, r3, r5, r6, r8, r9, sp, lr}^
    96c4:	415f5f00 	cmpmi	pc, r0, lsl #30
    96c8:	494d4f54 	stmdbmi	sp, {r2, r4, r6, r8, r9, sl, fp, lr}^
    96cc:	43415f43 	movtmi	r5, #8003	; 0x1f43
    96d0:	45525f51 	ldrbmi	r5, [r2, #-3921]	; 0xfffff0af
    96d4:	0034204c 	eorseq	r2, r4, ip, asr #32
    96d8:	4349564e 	movtmi	r5, #38478	; 0x964e
    96dc:	5458455f 	ldrbpl	r4, [r8], #-1375	; 0xfffffaa1
    96e0:	495f3449 	ldmdbmi	pc, {r0, r3, r6, sl, ip, sp}^	; <UNPREDICTABLE>
    96e4:	445f5152 	ldrbmi	r5, [pc], #-338	; 96ec <_Min_Stack_Size+0x92ec>
    96e8:	62617369 	rsbvs	r7, r1, #-1543503871	; 0xa4000001
    96ec:	2820656c 	stmdacs	r0!, {r2, r3, r5, r6, r8, sl, sp, lr}
    96f0:	4349564e 	movtmi	r5, #38478	; 0x964e
    96f4:	4543495f 	strbmi	r4, [r3, #-2399]	; 0xfffff6a1
    96f8:	7c203052 	stcvc	0, cr3, [r0], #-328	; 0xfffffeb8
    96fc:	3c31203d 	ldccc	0, cr2, [r1], #-244	; 0xffffff0c
    9700:	2930313c 	ldmdbcs	r0!, {r2, r3, r4, r5, r8, ip, sp}
    9704:	485f5f00 	ldmdami	pc, {r8, r9, sl, fp, ip, lr}^	; <UNPREDICTABLE>
    9708:	42495f51 	submi	r5, r9, #324	; 0x144
    970c:	5f5f5449 	svcpl	0x005f5449
    9710:	5f003020 	svcpl	0x00003020
    9714:	6361705f 	cmnvs	r1, #95	; 0x5f
    9718:	2064656b 	rsbcs	r6, r4, fp, ror #10
    971c:	74615f5f 	strbtvc	r5, [r1], #-3935	; 0xfffff0a1
    9720:	62697274 	rsbvs	r7, r9, #116, 4	; 0x40000007
    9724:	5f657475 	svcpl	0x00657475
    9728:	5f28285f 	svcpl	0x0028285f
    972c:	6361705f 	cmnvs	r1, #95	; 0x5f
    9730:	5f64656b 	svcpl	0x0064656b
    9734:	0029295f 	eoreq	r2, r9, pc, asr r9
    9738:	4843575f 	stmdami	r3, {r0, r1, r2, r3, r4, r6, r8, r9, sl, ip, lr}^
    973c:	545f5241 	ldrbpl	r5, [pc], #-577	; 9744 <_Min_Stack_Size+0x9344>
    9740:	4645445f 			; <UNDEFINED> instruction: 0x4645445f
    9744:	44454e49 	strbmi	r4, [r5], #-3657	; 0xfffff1b7
    9748:	5300205f 	movwpl	r2, #95	; 0x5f
    974c:	32334d54 	eorscc	r4, r3, #84, 26	; 0x1500
    9750:	31203146 			; <UNDEFINED> instruction: 0x31203146
    9754:	54584500 	ldrbpl	r4, [r8], #-1280	; 0xfffffb00
    9758:	43503849 	cmpmi	r0, #4784128	; 0x490000
    975c:	45282038 	strmi	r2, [r8, #-56]!	; 0xffffffc8
    9760:	5f495458 	svcpl	0x00495458
    9764:	4f495047 	svcmi	0x00495047
    9768:	70614d5f 	rsbvc	r4, r1, pc, asr sp
    976c:	676e6970 			; <UNDEFINED> instruction: 0x676e6970
    9770:	7b29745f 	blvc	a668f4 <_Min_Stack_Size+0xa664f4>
    9774:	49545845 	ldmdbmi	r4, {r0, r2, r6, fp, ip, lr}^
    9778:	47202c38 			; <UNDEFINED> instruction: 0x47202c38
    977c:	434f4950 	movtmi	r4, #63824	; 0xf950
    9780:	5047202c 	subpl	r2, r7, ip, lsr #32
    9784:	505f4f49 	subspl	r4, pc, r9, asr #30
    9788:	385f4e49 	ldmdacc	pc, {r0, r3, r6, r9, sl, fp, lr}^	; <UNPREDICTABLE>
    978c:	5845202c 	stmdapl	r5, {r2, r3, r5, sp}^
    9790:	5f384954 	svcpl	0x00384954
    9794:	7d515249 	lfmvc	f5, 2, [r1, #-292]	; 0xfffffedc
    9798:	54584500 	ldrbpl	r4, [r8], #-1280	; 0xfffffb00
    979c:	50313149 	eorspl	r3, r1, r9, asr #2
    97a0:	20313144 	eorscs	r3, r1, r4, asr #2
    97a4:	54584528 	ldrbpl	r4, [r8], #-1320	; 0xfffffad8
    97a8:	50475f49 	subpl	r5, r7, r9, asr #30
    97ac:	4d5f4f49 	ldclmi	15, cr4, [pc, #-292]	; 9690 <_Min_Stack_Size+0x9290>
    97b0:	69707061 	ldmdbvs	r0!, {r0, r5, r6, ip, sp, lr}^
    97b4:	745f676e 	ldrbvc	r6, [pc], #-1902	; 97bc <_Min_Stack_Size+0x93bc>
    97b8:	58457b29 	stmdapl	r5, {r0, r3, r5, r8, r9, fp, ip, sp, lr}^
    97bc:	31314954 	teqcc	r1, r4, asr r9
    97c0:	5047202c 	subpl	r2, r7, ip, lsr #32
    97c4:	2c444f49 	mcrrcs	15, 4, r4, r4, cr9
    97c8:	49504720 	ldmdbmi	r0, {r5, r8, r9, sl, lr}^
    97cc:	49505f4f 	ldmdbmi	r0, {r0, r1, r2, r3, r6, r8, r9, sl, fp, ip, lr}^
    97d0:	31315f4e 	teqcc	r1, lr, asr #30
    97d4:	5845202c 	stmdapl	r5, {r2, r3, r5, sp}^
    97d8:	31314954 	teqcc	r1, r4, asr r9
    97dc:	5152495f 	cmppl	r2, pc, asr r9
    97e0:	4954007d 	ldmdbmi	r4, {r0, r2, r3, r4, r5, r6}^
    97e4:	5f32314d 	svcpl	0x0032314d
    97e8:	45534142 	ldrbmi	r4, [r3, #-322]	; 0xfffffebe
    97ec:	34783020 	ldrbtcc	r3, [r8], #-32	; 0xffffffe0
    97f0:	31303030 	teqcc	r0, r0, lsr r0
    97f4:	75303038 	ldrvc	r3, [r0, #-56]!	; 0xffffffc8
    97f8:	615f5f00 	cmpvs	pc, r0, lsl #30
    97fc:	72657373 	rsbvc	r7, r5, #-872415231	; 0xcc000001
    9800:	735f7374 	cmpvc	pc, #116, 6	; 0xd0000001
    9804:	65726168 	ldrbvs	r6, [r2, #-360]!	; 0xfffffe98
    9808:	2e2e2864 	cdpcs	8, 2, cr2, cr14, cr4, {3}
    980c:	5f20292e 	svcpl	0x0020292e
    9810:	636f6c5f 	cmnvs	pc, #24320	; 0x5f00
    9814:	6e615f6b 	cdpvs	15, 6, cr5, cr1, cr11, {3}
    9818:	61746f6e 	cmnvs	r4, lr, ror #30
    981c:	61286574 			; <UNDEFINED> instruction: 0x61286574
    9820:	72657373 	rsbvc	r7, r5, #-872415231	; 0xcc000001
    9824:	68735f74 	ldmdavs	r3!, {r2, r4, r5, r6, r8, r9, sl, fp, ip, lr}^
    9828:	64657261 	strbtvs	r7, [r5], #-609	; 0xfffffd9f
    982c:	636f6c5f 	cmnvs	pc, #24320	; 0x5f00
    9830:	5f5f286b 	svcpl	0x005f286b
    9834:	415f4156 	cmpmi	pc, r6, asr r1	; <UNPREDICTABLE>
    9838:	5f534752 	svcpl	0x00534752
    983c:	0029295f 	eoreq	r2, r9, pc, asr r9
    9840:	4545525f 	strbmi	r5, [r5, #-607]	; 0xfffffda1
    9844:	535f544e 	cmppl	pc, #1308622848	; 0x4e000000
    9848:	4c4c414d 	stfmie	f4, [ip], {77}	; 0x4d
    984c:	4548435f 	strbmi	r4, [r8, #-863]	; 0xfffffca1
    9850:	495f4b43 	ldmdbmi	pc, {r0, r1, r6, r8, r9, fp, lr}^	; <UNPREDICTABLE>
    9854:	2854494e 	ldmdacs	r4, {r1, r2, r3, r6, r8, fp, lr}^
    9858:	29727470 	ldmdbcs	r2!, {r4, r5, r6, sl, ip, sp, lr}^
    985c:	206f6420 	rsbcs	r6, pc, r0, lsr #8
    9860:	6669207b 			; <UNDEFINED> instruction: 0x6669207b
    9864:	70282820 	eorvc	r2, r8, r0, lsr #16
    9868:	20297274 	eorcs	r7, r9, r4, ror r2
    986c:	21202626 			; <UNDEFINED> instruction: 0x21202626
    9870:	72747028 	rsbsvc	r7, r4, #40	; 0x28
    9874:	5f3e2d29 	svcpl	0x003e2d29
    9878:	6964735f 	stmdbvs	r4!, {r0, r1, r2, r3, r4, r6, r8, r9, ip, sp, lr}^
    987c:	696e6964 	stmdbvs	lr!, {r2, r5, r6, r8, fp, sp, lr}^
    9880:	5f202974 	svcpl	0x00202974
    9884:	6e69735f 	mcrvs	3, 3, r7, cr9, cr15, {2}
    9888:	28207469 	stmdacs	r0!, {r0, r3, r5, r6, sl, ip, sp, lr}
    988c:	29727470 	ldmdbcs	r2!, {r4, r5, r6, sl, ip, sp, lr}^
    9890:	207d203b 	rsbscs	r2, sp, fp, lsr r0
    9894:	6c696877 	stclvs	8, cr6, [r9], #-476	; 0xfffffe24
    9898:	30282065 	eorcc	r2, r8, r5, rrx
    989c:	5f5f0029 	svcpl	0x005f0029
    98a0:	32746e69 	rsbscc	r6, r4, #1680	; 0x690
    98a4:	49540030 	ldmdbmi	r4, {r4, r5}^
    98a8:	425f324d 	subsmi	r3, pc, #-805306364	; 0xd0000004
    98ac:	20455341 	subcs	r5, r5, r1, asr #6
    98b0:	30347830 	eorscc	r7, r4, r0, lsr r8
    98b4:	30303030 	eorscc	r3, r0, r0, lsr r0
    98b8:	00753030 	rsbseq	r3, r5, r0, lsr r0
    98bc:	4e414e5f 	mcrmi	14, 2, r4, cr1, cr15, {2}
    98c0:	4f465f4f 	svcmi	0x00465f4f
    98c4:	54414d52 	strbpl	r4, [r1], #-3410	; 0xfffff2ae
    98c8:	5f444554 	svcpl	0x00444554
    98cc:	31204f49 			; <UNDEFINED> instruction: 0x31204f49
    98d0:	544e4900 	strbpl	r4, [lr], #-2304	; 0xfffff700
    98d4:	5341465f 	movtpl	r4, #5727	; 0x165f
    98d8:	5f323354 	svcpl	0x00323354
    98dc:	2058414d 	subscs	r4, r8, sp, asr #2
    98e0:	495f5f28 	ldmdbmi	pc, {r3, r5, r8, r9, sl, fp, ip, lr}^	; <UNPREDICTABLE>
    98e4:	465f544e 	ldrbmi	r5, [pc], -lr, asr #8
    98e8:	33545341 	cmpcc	r4, #67108865	; 0x4000001
    98ec:	414d5f32 	cmpmi	sp, r2, lsr pc
    98f0:	295f5f58 	ldmdbcs	pc, {r3, r4, r6, r8, r9, sl, fp, ip, lr}^	; <UNPREDICTABLE>
    98f4:	465f5f00 	ldrbmi	r5, [pc], -r0, lsl #30
    98f8:	3233544c 	eorscc	r5, r3, #76, 8	; 0x4c000000
    98fc:	524f4e5f 	subpl	r4, pc, #1520	; 0x5f0
    9900:	414d5f4d 	cmpmi	sp, sp, asr #30
    9904:	205f5f58 	subscs	r5, pc, r8, asr pc	; <UNPREDICTABLE>
    9908:	30342e33 	eorscc	r2, r4, r3, lsr lr
    990c:	33323832 	teqcc	r2, #3276800	; 0x320000
    9910:	33363634 	teqcc	r6, #52, 12	; 0x3400000
    9914:	38323538 	ldmdacc	r2!, {r3, r4, r5, r8, sl, ip, sp}
    9918:	2b653638 	blcs	1957200 <_Min_Stack_Size+0x1956e00>
    991c:	33463833 	movtcc	r3, #26675	; 0x6833
    9920:	50530032 	subspl	r0, r3, r2, lsr r0
    9924:	495f3349 	ldmdbmi	pc, {r0, r3, r6, r8, r9, ip, sp}^	; <UNPREDICTABLE>
    9928:	35205152 	strcc	r5, [r0, #-338]!	; 0xfffffeae
    992c:	525f0031 	subspl	r0, pc, #49	; 0x31
    9930:	544e4545 	strbpl	r4, [lr], #-1349	; 0xfffffabb
    9934:	4353415f 	cmpmi	r3, #-1073741801	; 0xc0000017
    9938:	454d4954 	strbmi	r4, [sp, #-2388]	; 0xfffff6ac
    993c:	5a49535f 	bpl	125e6c0 <_Min_Stack_Size+0x125e2c0>
    9940:	36322045 	ldrtcc	r2, [r2], -r5, asr #32
    9944:	43435200 	movtmi	r5, #12800	; 0x3200
    9948:	4950475f 	ldmdbmi	r0, {r0, r1, r2, r3, r4, r6, r8, r9, sl, lr}^
    994c:	435f414f 	cmpmi	pc, #-1073741805	; 0xc0000013
    9950:	455f4b4c 	ldrbmi	r4, [pc, #-2892]	; 8e0c <_Min_Stack_Size+0x8a0c>
    9954:	2029284e 	eorcs	r2, r9, lr, asr #16
    9958:	43435228 	movtmi	r5, #12840	; 0x3228
    995c:	50413e2d 	subpl	r3, r1, sp, lsr #28
    9960:	4e453242 	cdpmi	2, 4, cr3, cr5, cr2, {2}
    9964:	3d7c2052 	ldclcc	0, cr2, [ip, #-328]!	; 0xfffffeb8
    9968:	3c312820 	ldccc	8, cr2, [r1], #-128	; 0xffffff80
    996c:	2929323c 	stmdbcs	r9!, {r2, r3, r4, r5, r9, ip, sp}
    9970:	544e4900 	strbpl	r4, [lr], #-2304	; 0xfffff700
    9974:	5f525450 	svcpl	0x00525450
    9978:	204e494d 	subcs	r4, lr, sp, asr #18
    997c:	5f5f2d28 	svcpl	0x005f2d28
    9980:	50544e49 	subspl	r4, r4, r9, asr #28
    9984:	4d5f5254 	lfmmi	f5, 2, [pc, #-336]	; 983c <_Min_Stack_Size+0x943c>
    9988:	5f5f5841 	svcpl	0x005f5841
    998c:	31202d20 			; <UNDEFINED> instruction: 0x31202d20
    9990:	54500029 	ldrbpl	r0, [r0], #-41	; 0xffffffd7
    9994:	46494452 			; <UNDEFINED> instruction: 0x46494452
    9998:	494d5f46 	stmdbmi	sp, {r1, r2, r6, r8, r9, sl, fp, ip, lr}^
    999c:	2d28204e 	stccs	0, cr2, [r8, #-312]!	; 0xfffffec8
    99a0:	44525450 	ldrbmi	r5, [r2], #-1104	; 0xfffffbb0
    99a4:	5f464649 	svcpl	0x00464649
    99a8:	2058414d 	subscs	r4, r8, sp, asr #2
    99ac:	2931202d 	ldmdbcs	r1!, {r0, r2, r3, r5, sp}
    99b0:	4f505f00 	svcmi	0x00505f00
    99b4:	5f584953 	svcpl	0x00584953
    99b8:	4f535f43 	svcmi	0x00535f43
    99bc:	45435255 	strbmi	r5, [r3, #-597]	; 0xfffffdab
    99c0:	555f5f00 	ldrbpl	r5, [pc, #-3840]	; 8ac8 <_Min_Stack_Size+0x86c8>
    99c4:	4d544e49 	ldclmi	14, cr4, [r4, #-292]	; 0xfffffedc
    99c8:	4d5f5841 	ldclmi	8, cr5, [pc, #-260]	; 98cc <_Min_Stack_Size+0x94cc>
    99cc:	5f5f5841 	svcpl	0x005f5841
    99d0:	66783020 	ldrbtvs	r3, [r8], -r0, lsr #32
    99d4:	66666666 	strbtvs	r6, [r6], -r6, ror #12
    99d8:	66666666 	strbtvs	r6, [r6], -r6, ror #12
    99dc:	66666666 	strbtvs	r6, [r6], -r6, ror #12
    99e0:	55666666 	strbpl	r6, [r6, #-1638]!	; 0xfffff99a
    99e4:	4e004c4c 	cdpmi	12, 0, cr4, cr0, cr12, {2}
    99e8:	5f434956 	svcpl	0x00434956
    99ec:	52415355 	subpl	r5, r1, #1409286145	; 0x54000001
    99f0:	495f3254 	ldmdbmi	pc, {r2, r4, r6, r9, ip, sp}^	; <UNPREDICTABLE>
    99f4:	455f5152 	ldrbmi	r5, [pc, #-338]	; 98aa <_Min_Stack_Size+0x94aa>
    99f8:	6c62616e 	stfvse	f6, [r2], #-440	; 0xfffffe48
    99fc:	4e282065 	cdpmi	0, 2, cr2, cr8, cr5, {3}
    9a00:	5f434956 	svcpl	0x00434956
    9a04:	52455349 	subpl	r5, r5, #603979777	; 0x24000001
    9a08:	3d7c2031 	ldclcc	0, cr2, [ip, #-196]!	; 0xffffff3c
    9a0c:	3c3c3120 	ldfccs	f3, [ip], #-128	; 0xffffff80
    9a10:	41535528 	cmpmi	r3, r8, lsr #10
    9a14:	5f325452 	svcpl	0x00325452
    9a18:	20515249 	subscs	r5, r1, r9, asr #4
    9a1c:	3233202d 	eorscc	r2, r3, #45	; 0x2d
    9a20:	5f002929 	svcpl	0x00002929
    9a24:	4c42445f 	cfstrdmi	mvd4, [r2], {95}	; 0x5f
    9a28:	4e414d5f 	mcrmi	13, 2, r4, cr1, cr15, {2}
    9a2c:	49445f54 	stmdbmi	r4, {r2, r4, r6, r8, r9, sl, fp, ip, lr}^
    9a30:	205f5f47 	subscs	r5, pc, r7, asr #30
    9a34:	45003335 	strmi	r3, [r0, #-821]	; 0xfffffccb
    9a38:	31495458 	cmpcc	r9, r8, asr r4
    9a3c:	20314450 	eorscs	r4, r1, r0, asr r4
    9a40:	54584528 	ldrbpl	r4, [r8], #-1320	; 0xfffffad8
    9a44:	50475f49 	subpl	r5, r7, r9, asr #30
    9a48:	4d5f4f49 	ldclmi	15, cr4, [pc, #-292]	; 992c <_Min_Stack_Size+0x952c>
    9a4c:	69707061 	ldmdbvs	r0!, {r0, r5, r6, ip, sp, lr}^
    9a50:	745f676e 	ldrbvc	r6, [pc], #-1902	; 9a58 <_Min_Stack_Size+0x9658>
    9a54:	58457b29 	stmdapl	r5, {r0, r3, r5, r8, r9, fp, ip, sp, lr}^
    9a58:	2c314954 			; <UNDEFINED> instruction: 0x2c314954
    9a5c:	49504720 	ldmdbmi	r0, {r5, r8, r9, sl, lr}^
    9a60:	202c444f 	eorcs	r4, ip, pc, asr #8
    9a64:	4f495047 	svcmi	0x00495047
    9a68:	4e49505f 	mcrmi	0, 2, r5, cr9, cr15, {2}
    9a6c:	202c315f 	eorcs	r3, ip, pc, asr r1
    9a70:	49545845 	ldmdbmi	r4, {r0, r2, r6, fp, ip, lr}^
    9a74:	52495f31 	subpl	r5, r9, #49, 30	; 0xc4
    9a78:	5f007d51 	svcpl	0x00007d51
    9a7c:	464c555f 			; <UNDEFINED> instruction: 0x464c555f
    9a80:	54434152 	strbpl	r4, [r3], #-338	; 0xfffffeae
    9a84:	4942495f 	stmdbmi	r2, {r0, r1, r2, r3, r4, r6, r8, fp, lr}^
    9a88:	205f5f54 	subscs	r5, pc, r4, asr pc	; <UNPREDICTABLE>
    9a8c:	49540030 	ldmdbmi	r4, {r4, r5}^
    9a90:	425f314d 	subsmi	r3, pc, #1073741843	; 0x40000013
    9a94:	20455341 	subcs	r5, r5, r1, asr #6
    9a98:	30347830 	eorscc	r7, r4, r0, lsr r8
    9a9c:	43323130 	teqmi	r2, #48, 2
    9aa0:	00753030 	rsbseq	r3, r5, r0, lsr r0
    9aa4:	49545845 	ldmdbmi	r4, {r0, r2, r6, fp, ip, lr}^
    9aa8:	32425032 	subcc	r5, r2, #50	; 0x32
    9aac:	58452820 	stmdapl	r5, {r5, fp, sp}^
    9ab0:	475f4954 			; <UNDEFINED> instruction: 0x475f4954
    9ab4:	5f4f4950 	svcpl	0x004f4950
    9ab8:	7070614d 	rsbsvc	r6, r0, sp, asr #2
    9abc:	5f676e69 	svcpl	0x00676e69
    9ac0:	457b2974 	ldrbmi	r2, [fp, #-2420]!	; 0xfffff68c
    9ac4:	32495458 	subcc	r5, r9, #88, 8	; 0x58000000
    9ac8:	5047202c 	subpl	r2, r7, ip, lsr #32
    9acc:	2c424f49 	mcrrcs	15, 4, r4, r2, cr9
    9ad0:	49504720 	ldmdbmi	r0, {r5, r8, r9, sl, lr}^
    9ad4:	49505f4f 	ldmdbmi	r0, {r0, r1, r2, r3, r6, r8, r9, sl, fp, ip, lr}^
    9ad8:	2c325f4e 	ldccs	15, cr5, [r2], #-312	; 0xfffffec8
    9adc:	54584520 	ldrbpl	r4, [r8], #-1312	; 0xfffffae0
    9ae0:	495f3249 	ldmdbmi	pc, {r0, r3, r6, r9, ip, sp}^	; <UNPREDICTABLE>
    9ae4:	007d5152 	rsbseq	r5, sp, r2, asr r1
    9ae8:	59535f5f 	ldmdbpl	r3, {r0, r1, r2, r3, r4, r6, r8, r9, sl, fp, ip, lr}^
    9aec:	4f4c5f53 	svcmi	0x004c5f53
    9af0:	485f4b43 	ldmdami	pc, {r0, r1, r6, r8, r9, fp, lr}^	; <UNPREDICTABLE>
    9af4:	00205f5f 	eoreq	r5, r0, pc, asr pc
    9af8:	6f6e5f5f 	svcvs	0x006e5f5f
    9afc:	696e6173 	stmdbvs	lr!, {r0, r1, r4, r5, r6, r8, sp, lr}^
    9b00:	657a6974 	ldrbvs	r6, [sl, #-2420]!	; 0xfffff68c
    9b04:	65726874 	ldrbvs	r6, [r2, #-2164]!	; 0xfffff78c
    9b08:	00206461 	eoreq	r6, r0, r1, ror #8
    9b0c:	54524155 	ldrbpl	r4, [r2], #-341	; 0xfffffeab
    9b10:	6f74735f 	svcvs	0x0074735f
    9b14:	74694270 	strbtvc	r4, [r9], #-624	; 0xfffffd90
    9b18:	20325f73 	eorscs	r5, r2, r3, ror pc
    9b1c:	6e697528 	cdpvs	5, 6, cr7, cr9, cr8, {1}
    9b20:	5f323374 	svcpl	0x00323374
    9b24:	32282974 	eorcc	r2, r8, #116, 18	; 0x1d0000
    9b28:	32313c3c 	eorscc	r3, r1, #60, 24	; 0x3c00
    9b2c:	5f5f0029 	svcpl	0x005f0029
    9b30:	5f544e49 	svcpl	0x00544e49
    9b34:	5f58414d 	svcpl	0x0058414d
    9b38:	7830205f 	ldmdavc	r0!, {r0, r1, r2, r3, r4, r6, sp}
    9b3c:	66666637 			; <UNDEFINED> instruction: 0x66666637
    9b40:	66666666 	strbtvs	r6, [r6], -r6, ror #12
    9b44:	495f5f00 	ldmdbmi	pc, {r8, r9, sl, fp, ip, lr}^	; <UNPREDICTABLE>
    9b48:	4c5f544e 	cfldrdmi	mvd5, [pc], {78}	; 0x4e
    9b4c:	54534145 	ldrbpl	r4, [r3], #-325	; 0xfffffebb
    9b50:	545f3436 	ldrbpl	r3, [pc], #-1078	; 9b58 <_Min_Stack_Size+0x9758>
    9b54:	5f455059 	svcpl	0x00455059
    9b58:	6f6c205f 	svcvs	0x006c205f
    9b5c:	6c20676e 	stcvs	7, cr6, [r0], #-440	; 0xfffffe48
    9b60:	20676e6f 	rsbcs	r6, r7, pc, ror #28
    9b64:	00746e69 	rsbseq	r6, r4, r9, ror #28
    9b68:	49545845 	ldmdbmi	r4, {r0, r2, r6, fp, ip, lr}^
    9b6c:	44503331 	ldrbmi	r3, [r0], #-817	; 0xfffffccf
    9b70:	28203331 	stmdacs	r0!, {r0, r4, r5, r8, r9, ip, sp}
    9b74:	49545845 	ldmdbmi	r4, {r0, r2, r6, fp, ip, lr}^
    9b78:	4950475f 	ldmdbmi	r0, {r0, r1, r2, r3, r4, r6, r8, r9, sl, lr}^
    9b7c:	614d5f4f 	cmpvs	sp, pc, asr #30
    9b80:	6e697070 	mcrvs	0, 3, r7, cr9, cr0, {3}
    9b84:	29745f67 	ldmdbcs	r4!, {r0, r1, r2, r5, r6, r8, r9, sl, fp, ip, lr}^
    9b88:	5458457b 	ldrbpl	r4, [r8], #-1403	; 0xfffffa85
    9b8c:	2c333149 	ldfcss	f3, [r3], #-292	; 0xfffffedc
    9b90:	49504720 	ldmdbmi	r0, {r5, r8, r9, sl, lr}^
    9b94:	202c444f 	eorcs	r4, ip, pc, asr #8
    9b98:	4f495047 	svcmi	0x00495047
    9b9c:	4e49505f 	mcrmi	0, 2, r5, cr9, cr15, {2}
    9ba0:	2c33315f 	ldfcss	f3, [r3], #-380	; 0xfffffe84
    9ba4:	54584520 	ldrbpl	r4, [r8], #-1312	; 0xfffffae0
    9ba8:	5f333149 	svcpl	0x00333149
    9bac:	7d515249 	lfmvc	f5, 2, [r1, #-292]	; 0xfffffedc
    9bb0:	415f5f00 	cmpmi	pc, r0, lsl #30
    9bb4:	465f4d52 			; <UNDEFINED> instruction: 0x465f4d52
    9bb8:	55544145 	ldrbpl	r4, [r4, #-325]	; 0xfffffebb
    9bbc:	435f4552 	cmpmi	pc, #343932928	; 0x14800000
    9bc0:	435f4544 	cmpmi	pc, #68, 10	; 0x11000000
    9bc4:	4f52504f 	svcmi	0x0052504f
    9bc8:	5f5f0043 	svcpl	0x005f0043
    9bcc:	53524556 	cmppl	r2, #360710144	; 0x15800000
    9bd0:	5f4e4f49 	svcpl	0x004e4f49
    9bd4:	3122205f 	qsubcc	r2, pc, r2	; <UNPREDICTABLE>
    9bd8:	2e332e30 	mrccs	14, 1, r2, cr3, cr0, {1}
    9bdc:	30322031 	eorscc	r2, r2, r1, lsr r0
    9be0:	38303132 	ldmdacc	r0!, {r1, r4, r5, r8, ip, sp}
    9be4:	28203432 	stmdacs	r0!, {r1, r4, r5, sl, ip, sp}
    9be8:	656c6572 	strbvs	r6, [ip, #-1394]!	; 0xfffffa8e
    9bec:	29657361 	stmdbcs	r5!, {r0, r5, r6, r8, r9, ip, sp, lr}^
    9bf0:	2e2e0022 	cdpcs	0, 2, cr0, cr14, cr2, {1}
    9bf4:	6174532f 	cmnvs	r4, pc, lsr #6
    9bf8:	70757472 	rsbsvc	r7, r5, r2, ror r4
    9bfc:	6174732f 	cmnvs	r4, pc, lsr #6
    9c00:	70757472 	rsbsvc	r7, r5, r2, ror r4
    9c04:	6d74735f 	ldclvs	3, cr7, [r4, #-380]!	; 0xfffffe84
    9c08:	31663233 	cmncc	r6, r3, lsr r2
    9c0c:	36633330 			; <UNDEFINED> instruction: 0x36633330
    9c10:	732e7874 			; <UNDEFINED> instruction: 0x732e7874
    9c14:	554e4700 	strbpl	r4, [lr, #-1792]	; 0xfffff900
    9c18:	20534120 	subscs	r4, r3, r0, lsr #2
    9c1c:	36332e32 			; <UNDEFINED> instruction: 0x36332e32
    9c20:	4d00312e 	stfmis	f3, [r0, #-184]	; 0xffffff48
    9c24:	5f4c4143 	svcpl	0x004c4143
    9c28:	4f495047 	svcmi	0x00495047
    9c2c:	696e495f 	stmdbvs	lr!, {r0, r1, r2, r3, r4, r6, r8, fp, lr}^
    9c30:	58450074 	stmdapl	r5, {r2, r4, r5, r6}^
    9c34:	52434954 	subpl	r4, r3, #84, 18	; 0x150000
    9c38:	53544600 	cmppl	r4, #0, 12
    9c3c:	634d0052 	movtvs	r0, #53330	; 0xd052
    9c40:	455f6c61 	ldrbmi	r6, [pc, #-3169]	; 8fe7 <_Min_Stack_Size+0x8be7>
    9c44:	5f495458 	svcpl	0x00495458
    9c48:	4f495047 	svcmi	0x00495047
    9c4c:	6470755f 	ldrbtvs	r7, [r0], #-1375	; 0xfffffaa1
    9c50:	00657461 	rsbeq	r7, r5, r1, ror #8
    9c54:	52535452 	subspl	r5, r3, #1375731712	; 0x52000000
    9c58:	49504700 	ldmdbmi	r0, {r8, r9, sl, lr}^
    9c5c:	4f4d5f4f 	svcmi	0x004d5f4f
    9c60:	45004544 	strmi	r4, [r0, #-1348]	; 0xfffffabc
    9c64:	34495458 	strbcc	r5, [r9], #-1112	; 0xfffffba8
    9c68:	5152495f 	cmppl	r2, pc, asr r9
    9c6c:	646e6148 	strbtvs	r6, [lr], #-328	; 0xfffffeb8
    9c70:	0072656c 	rsbseq	r6, r2, ip, ror #10
    9c74:	4f494641 	svcmi	0x00494641
    9c78:	5458455f 	ldrbpl	r4, [r8], #-1375	; 0xfffffaa1
    9c7c:	5f524349 	svcpl	0x00524349
    9c80:	69736f50 	ldmdbvs	r3!, {r4, r6, r8, r9, sl, fp, sp, lr}^
    9c84:	6e6f6974 			; <UNDEFINED> instruction: 0x6e6f6974
    9c88:	49504700 	ldmdbmi	r0, {r8, r9, sl, lr}^
    9c8c:	69505f4f 	ldmdbvs	r0, {r0, r1, r2, r3, r6, r8, r9, sl, fp, ip, lr}^
    9c90:	6e6f436e 	cdpvs	3, 6, cr4, cr15, cr14, {3}
    9c94:	5f676966 	svcpl	0x00676966
    9c98:	414d0074 	hvcmi	53252	; 0xd004
    9c9c:	00325250 	eorseq	r5, r2, r0, asr r2
    9ca0:	6c61634d 	stclvs	3, cr6, [r1], #-308	; 0xfffffecc
    9ca4:	5458455f 	ldrbpl	r4, [r8], #-1375	; 0xfffffaa1
    9ca8:	50475f49 	subpl	r5, r7, r9, asr #30
    9cac:	445f4f49 	ldrbmi	r4, [pc], #-3913	; 9cb4 <_Min_Stack_Size+0x98b4>
    9cb0:	696e4965 	stmdbvs	lr!, {r0, r2, r5, r6, r8, fp, lr}^
    9cb4:	50470074 	subpl	r0, r7, r4, ror r0
    9cb8:	4f5f4f49 	svcmi	0x005f4f49
    9cbc:	55505455 	ldrbpl	r5, [r0, #-1109]	; 0xfffffbab
    9cc0:	50535f54 	subspl	r5, r3, r4, asr pc
    9cc4:	00444545 	subeq	r4, r4, r5, asr #10
    9cc8:	732f2e2e 			; <UNDEFINED> instruction: 0x732f2e2e
    9ccc:	32336d74 	eorscc	r6, r3, #116, 26	; 0x1d00
    9cd0:	3031665f 	eorscc	r6, r1, pc, asr r6
    9cd4:	5f366333 	svcpl	0x00366333
    9cd8:	76697264 	strbtvc	r7, [r9], -r4, ror #4
    9cdc:	2f737265 	svccs	0x00737265
    9ce0:	336d7473 	cmncc	sp, #1929379840	; 0x73000000
    9ce4:	31665f32 	cmncc	r6, r2, lsr pc
    9ce8:	36633330 			; <UNDEFINED> instruction: 0x36633330
    9cec:	6972645f 	ldmdbvs	r2!, {r0, r1, r2, r3, r4, r6, sl, sp, lr}^
    9cf0:	73726576 	cmnvc	r2, #494927872	; 0x1d800000
    9cf4:	5458455f 	ldrbpl	r4, [r8], #-1375	; 0xfffffaa1
    9cf8:	00632e49 	rsbeq	r2, r3, r9, asr #28
    9cfc:	5f515249 	svcpl	0x00515249
    9d00:	006d756e 	rsbeq	r7, sp, lr, ror #10
    9d04:	4f494641 	svcmi	0x00494641
    9d08:	4950475f 	ldmdbmi	r0, {r0, r1, r2, r3, r4, r6, r8, r9, sl, lr}^
    9d0c:	614d5f4f 	cmpvs	sp, pc, asr #30
    9d10:	6e697070 	mcrvs	0, 3, r7, cr9, cr0, {3}
    9d14:	29782867 	ldmdbcs	r8!, {r0, r1, r2, r5, r6, fp, sp}^
    9d18:	28202820 	stmdacs	r0!, {r5, fp, sp}
    9d1c:	473d3d78 			; <UNDEFINED> instruction: 0x473d3d78
    9d20:	414f4950 	cmpmi	pc, r0, asr r9	; <UNPREDICTABLE>
    9d24:	3a303f29 	bcc	c199d0 <_Min_Stack_Size+0xc195d0>
    9d28:	3d782820 	ldclcc	8, cr2, [r8, #-128]!	; 0xffffff80
    9d2c:	4950473d 	ldmdbmi	r0, {r0, r2, r3, r4, r5, r8, r9, sl, lr}^
    9d30:	3f29424f 	svccc	0x0029424f
    9d34:	28203a31 	stmdacs	r0!, {r0, r4, r5, r9, fp, ip, sp}
    9d38:	473d3d78 			; <UNDEFINED> instruction: 0x473d3d78
    9d3c:	434f4950 	movtmi	r4, #63824	; 0xf950
    9d40:	3a323f29 	bcc	c999ec <_Min_Stack_Size+0xc995ec>
    9d44:	3d782820 	ldclcc	8, cr2, [r8, #-128]!	; 0xffffff80
    9d48:	4950473d 	ldmdbmi	r0, {r0, r2, r3, r4, r5, r8, r9, sl, lr}^
    9d4c:	3f29444f 	svccc	0x0029444f
    9d50:	20303a33 	eorscs	r3, r0, r3, lsr sl
    9d54:	50470029 	subpl	r0, r7, r9, lsr #32
    9d58:	5152495f 	cmppl	r2, pc, asr r9
    9d5c:	6c61435f 	stclvs	3, cr4, [r1], #-380	; 0xfffffe84
    9d60:	6361426c 	cmnvs	r1, #108, 4	; 0xc0000006
    9d64:	5845006b 	stmdapl	r5, {r0, r1, r3, r5, r6}^
    9d68:	545f4954 	ldrbpl	r4, [pc], #-2388	; 9d70 <_Min_Stack_Size+0x9970>
    9d6c:	64657079 	strbtvs	r7, [r5], #-121	; 0xffffff87
    9d70:	745f6665 	ldrbvc	r6, [pc], #-1637	; 9d78 <_Min_Stack_Size+0x9978>
    9d74:	4e495000 	cdpmi	0, 4, cr5, cr9, cr0, {0}
    9d78:	464e4f43 	strbmi	r4, [lr], -r3, asr #30
    9d7c:	53004749 	movwpl	r4, #1865	; 0x749
    9d80:	52454957 	subpl	r4, r5, #1425408	; 0x15c000
    9d84:	50414d00 	subpl	r4, r1, r0, lsl #26
    9d88:	58450052 	stmdapl	r5, {r1, r4, r6}^
    9d8c:	5f324954 	svcpl	0x00324954
    9d90:	48515249 	ldmdami	r1, {r0, r3, r6, r9, ip, lr}^
    9d94:	6c646e61 	stclvs	14, cr6, [r4], #-388	; 0xfffffe7c
    9d98:	75007265 	strvc	r7, [r0, #-613]	; 0xfffffd9b
    9d9c:	74616470 	strbtvc	r6, [r1], #-1136	; 0xfffffb90
    9da0:	58455f65 	stmdapl	r5, {r0, r2, r5, r6, r8, r9, sl, fp, ip, lr}^
    9da4:	45004954 	strmi	r4, [r0, #-2388]	; 0xfffff6ac
    9da8:	39495458 	stmdbcc	r9, {r3, r4, r6, sl, ip, lr}^
    9dac:	495f355f 	ldmdbmi	pc, {r0, r1, r2, r3, r4, r6, r8, sl, ip, sp}^	; <UNPREDICTABLE>
    9db0:	61485152 	cmpvs	r8, r2, asr r1
    9db4:	656c646e 	strbvs	r6, [ip, #-1134]!	; 0xfffffb92
    9db8:	46410072 			; <UNDEFINED> instruction: 0x46410072
    9dbc:	545f4f49 	ldrbpl	r4, [pc], #-3913	; 9dc4 <_Min_Stack_Size+0x99c4>
    9dc0:	64657079 	strbtvs	r7, [r5], #-121	; 0xffffff87
    9dc4:	745f6665 	ldrbvc	r6, [pc], #-1637	; 9dcc <_Min_Stack_Size+0x99cc>
    9dc8:	54584500 	ldrbpl	r4, [r8], #-1280	; 0xfffffb00
    9dcc:	69705f49 	ldmdbvs	r0!, {r0, r3, r6, r8, r9, sl, fp, ip, lr}^
    9dd0:	6e6f636e 	cdpvs	3, 6, cr6, cr15, cr14, {3}
    9dd4:	00676966 	rsbeq	r6, r7, r6, ror #18
    9dd8:	4f495047 	svcmi	0x00495047
    9ddc:	6e69505f 	mcrvs	0, 3, r5, cr9, cr15, {2}
    9de0:	626d754e 	rsbvs	r7, sp, #327155712	; 0x13800000
    9de4:	45007265 	strmi	r7, [r0, #-613]	; 0xfffffd9b
    9de8:	33495458 	movtcc	r5, #37976	; 0x9458
    9dec:	5152495f 	cmppl	r2, pc, asr r9
    9df0:	646e6148 	strbtvs	r6, [lr], #-328	; 0xfffffeb8
    9df4:	0072656c 	rsbseq	r6, r2, ip, ror #10
    9df8:	4f494641 	svcmi	0x00494641
    9dfc:	5458455f 	ldrbpl	r4, [r8], #-1375	; 0xfffffaa1
    9e00:	5f524349 	svcpl	0x00524349
    9e04:	65646e69 	strbvs	r6, [r4, #-3689]!	; 0xfffff197
    9e08:	58450078 	stmdapl	r5, {r3, r4, r5, r6}^
    9e0c:	5f304954 	svcpl	0x00304954
    9e10:	48515249 	ldmdami	r1, {r0, r3, r6, r9, ip, lr}^
    9e14:	6c646e61 	stclvs	14, cr6, [r4], #-388	; 0xfffffe7c
    9e18:	45007265 	strmi	r7, [r0, #-613]	; 0xfffffd9b
    9e1c:	00524356 	subseq	r4, r2, r6, asr r3
    9e20:	49545845 	ldmdbmi	r4, {r0, r2, r6, fp, ip, lr}^
    9e24:	315f3531 	cmpcc	pc, r1, lsr r5	; <UNPREDICTABLE>
    9e28:	52495f30 	subpl	r5, r9, #48, 30	; 0xc0
    9e2c:	6e614851 	mcrvs	8, 3, r4, cr1, cr1, {2}
    9e30:	72656c64 	rsbvc	r6, r5, #100, 24	; 0x6400
    9e34:	73657200 	cmnvc	r5, #0, 4
    9e38:	65767265 	ldrbvs	r7, [r6, #-613]!	; 0xfffffd9b
    9e3c:	69440064 	stmdbvs	r4, {r2, r5, r6}^
    9e40:	6c626173 	stfvse	f6, [r2], #-460	; 0xfffffe34
    9e44:	564e5f65 	strbpl	r5, [lr], -r5, ror #30
    9e48:	45004349 	strmi	r4, [r0, #-841]	; 0xfffffcb7
    9e4c:	31495458 	cmpcc	r9, r8, asr r4
    9e50:	5152495f 	cmppl	r2, pc, asr r9
    9e54:	646e6148 	strbtvs	r6, [lr], #-328	; 0xfffffeb8
    9e58:	0072656c 	rsbseq	r6, r2, ip, ror #10
    9e5c:	62616e45 	rsbvs	r6, r1, #1104	; 0x450
    9e60:	4e5f656c 	cdpmi	5, 5, cr6, cr15, cr12, {3}
    9e64:	00434956 	subeq	r4, r3, r6, asr r9
    9e68:	5f515249 	svcpl	0x00515249
    9e6c:	62616e45 	rsbvs	r6, r1, #1104	; 0x450
    9e70:	5000656c 	andpl	r6, r0, ip, ror #10
    9e74:	006b6c63 	rsbeq	r6, fp, r3, ror #24
    9e78:	6c61634d 	stclvs	3, cr6, [r1], #-308	; 0xfffffecc
    9e7c:	5241555f 	subpl	r5, r1, #398458880	; 0x17c00000
    9e80:	50475f54 	subpl	r5, r7, r4, asr pc
    9e84:	735f4f49 	cmpvc	pc, #292	; 0x124
    9e88:	4d007465 	cfstrsmi	mvf7, [r0, #-404]	; 0xfffffe6c
    9e8c:	5f4c4143 	svcpl	0x004c4143
    9e90:	54524155 	ldrbpl	r4, [r2], #-341	; 0xfffffeab
    9e94:	4941575f 	stmdbmi	r1, {r0, r1, r2, r3, r4, r6, r8, r9, sl, ip, lr}^
    9e98:	43545f54 	cmpmi	r4, #84, 30	; 0x150
    9e9c:	52415500 	subpl	r5, r1, #0, 10
    9ea0:	6f635f54 	svcvs	0x00635f54
    9ea4:	6769666e 	strbvs	r6, [r9, -lr, ror #12]!
    9ea8:	5000745f 	andpl	r7, r0, pc, asr r4
    9eac:	61746164 	cmnvs	r4, r4, ror #2
    9eb0:	6f6c6600 	svcvs	0x006c6600
    9eb4:	72744377 	rsbsvc	r4, r4, #-603979775	; 0xdc000001
    9eb8:	2e2e006c 	cdpcs	0, 2, cr0, cr14, cr12, {3}
    9ebc:	6d74732f 	ldclvs	3, cr7, [r4, #-188]!	; 0xffffff44
    9ec0:	665f3233 			; <UNDEFINED> instruction: 0x665f3233
    9ec4:	63333031 	teqvs	r3, #49	; 0x31
    9ec8:	72645f36 	rsbvc	r5, r4, #54, 30	; 0xd8
    9ecc:	72657669 	rsbvc	r7, r5, #110100480	; 0x6900000
    9ed0:	74732f73 	ldrbtvc	r2, [r3], #-3955	; 0xfffff08d
    9ed4:	5f32336d 	svcpl	0x0032336d
    9ed8:	33303166 	teqcc	r0, #-2147483623	; 0x80000019
    9edc:	645f3663 	ldrbvs	r3, [pc], #-1635	; 9ee4 <_Min_Stack_Size+0x9ae4>
    9ee0:	65766972 	ldrbvs	r6, [r6, #-2418]!	; 0xfffff68e
    9ee4:	555f7372 	ldrbpl	r7, [pc, #-882]	; 9b7a <_Min_Stack_Size+0x977a>
    9ee8:	54524153 	ldrbpl	r4, [r2], #-339	; 0xfffffead
    9eec:	4200632e 	andmi	r6, r0, #-1207959552	; 0xb8000000
    9ef0:	72647561 	rsbvc	r7, r4, #406847488	; 0x18400000
    9ef4:	00657461 	rsbeq	r7, r5, r1, ror #8
    9ef8:	52415355 	subpl	r5, r1, #1409286145	; 0x54000001
    9efc:	54475f54 	strbpl	r5, [r7], #-3924	; 0xfffff0ac
    9f00:	55005250 	strpl	r5, [r0, #-592]	; 0xfffffdb0
    9f04:	54524153 	ldrbpl	r4, [r2], #-339	; 0xfffffead
    9f08:	0052445f 	subseq	r4, r2, pc, asr r4
    9f0c:	52415355 	subpl	r5, r1, #1409286145	; 0x54000001
    9f10:	495f3354 	ldmdbmi	pc, {r2, r4, r6, r8, r9, ip, sp}^	; <UNPREDICTABLE>
    9f14:	61485152 	cmpvs	r8, r2, asr r1
    9f18:	656c646e 	strbvs	r6, [ip, #-1134]!	; 0xfffffb92
    9f1c:	70470072 	subvc	r0, r7, r2, ror r0
    9f20:	5241555f 	subpl	r5, r1, #398458880	; 0x17c00000
    9f24:	6f635f54 	svcvs	0x00635f54
    9f28:	6769666e 	strbvs	r6, [r9, -lr, ror #12]!
    9f2c:	6c6f7000 	stclvs	0, cr7, [pc], #-0	; 9f34 <_Min_Stack_Size+0x9b34>
    9f30:	676e696c 	strbvs	r6, [lr, -ip, ror #18]!
    9f34:	65006e45 	strvs	r6, [r0, #-3653]	; 0xfffff1bb
    9f38:	6c62616e 	stfvse	f6, [r2], #-440	; 0xfffffe48
    9f3c:	52700065 	rsbspl	r0, r0, #101	; 0x65
    9f40:	66754278 			; <UNDEFINED> instruction: 0x66754278
    9f44:	00726566 	rsbseq	r6, r2, r6, ror #10
    9f48:	69726170 	ldmdbvs	r2!, {r4, r5, r6, r8, sp, lr}^
    9f4c:	4d007974 	vstrmi.16	s14, [r0, #-232]	; 0xffffff18	; <UNPREDICTABLE>
    9f50:	5f6c6163 	svcpl	0x006c6163
    9f54:	5f746547 	svcpl	0x00746547
    9f58:	4b4c4350 	blmi	131aca0 <_Min_Stack_Size+0x131a8a0>
    9f5c:	72665f32 	rsbvc	r5, r6, #50, 30	; 0xc8
    9f60:	70470071 	subvc	r0, r7, r1, ror r0
    9f64:	4153555f 	cmpmi	r3, pc, asr r5
    9f68:	00785452 	rsbseq	r5, r8, r2, asr r4
    9f6c:	52415355 	subpl	r5, r1, #1409286145	; 0x54000001
    9f70:	52425f54 	subpl	r5, r2, #84, 30	; 0x150
    9f74:	53550052 	cmppl	r5, #82	; 0x52
    9f78:	31545241 	cmpcc	r4, r1, asr #4
    9f7c:	5152495f 	cmppl	r2, pc, asr r9
    9f80:	646e6148 	strbtvs	r6, [lr], #-328	; 0xfffffeb8
    9f84:	0072656c 	rsbseq	r6, r2, ip, ror #10
    9f88:	6c61634d 	stclvs	3, cr6, [r1], #-308	; 0xfffffecc
    9f8c:	5241555f 	subpl	r5, r1, #398458880	; 0x17c00000
    9f90:	6e695f54 	mcrvs	15, 3, r5, cr9, cr4, {2}
    9f94:	50007469 	andpl	r7, r0, r9, ror #8
    9f98:	66636e69 	strbtvs	r6, [r3], -r9, ror #28
    9f9c:	634d0067 	movtvs	r0, #53351	; 0xd067
    9fa0:	475f6c61 	ldrbmi	r6, [pc, -r1, ror #24]
    9fa4:	505f7465 	subspl	r7, pc, r5, ror #8
    9fa8:	314b4c43 	cmpcc	fp, r3, asr #24
    9fac:	7172665f 	cmnvc	r2, pc, asr r6
    9fb0:	73696400 	cmnvc	r9, #0, 8
    9fb4:	656c6261 	strbvs	r6, [ip, #-609]!	; 0xfffffd9f
    9fb8:	41535500 	cmpmi	r3, r0, lsl #10
    9fbc:	545f5452 	ldrbpl	r5, [pc], #-1106	; 9fc4 <_Min_Stack_Size+0x9bc4>
    9fc0:	64657079 	strbtvs	r7, [r5], #-121	; 0xffffff87
    9fc4:	73006665 	movwvc	r6, #1637	; 0x665
    9fc8:	42706f74 	rsbsmi	r6, r0, #116, 30	; 0x1d0
    9fcc:	00737469 	rsbseq	r7, r3, r9, ror #8
    9fd0:	52415355 	subpl	r5, r1, #1409286145	; 0x54000001
    9fd4:	52435f54 	subpl	r5, r3, #84, 30	; 0x150
    9fd8:	53550031 	cmppl	r5, #49	; 0x31
    9fdc:	5f545241 	svcpl	0x00545241
    9fe0:	00325243 	eorseq	r5, r2, r3, asr #4
    9fe4:	52415355 	subpl	r5, r1, #1409286145	; 0x54000001
    9fe8:	52435f54 	subpl	r5, r3, #84, 30	; 0x150
    9fec:	634d0033 	movtvs	r0, #53299	; 0xd033
    9ff0:	555f6c61 	ldrbpl	r6, [pc, #-3169]	; 9397 <_Min_Stack_Size+0x8f97>
    9ff4:	5f545241 	svcpl	0x00545241
    9ff8:	6d007852 	stcvs	8, cr7, [r0, #-328]	; 0xfffffeb8
    9ffc:	0065646f 	rsbeq	r6, r5, pc, ror #8
    a000:	52415355 	subpl	r5, r1, #1409286145	; 0x54000001
    a004:	52535f54 	subspl	r5, r3, #84, 30	; 0x150
    a008:	79615000 	stmdbvc	r1!, {ip, lr}^
    a00c:	64616f6c 	strbtvs	r6, [r1], #-3948	; 0xfffff094
    a010:	6e656c5f 	mcrvs	12, 3, r6, cr5, cr15, {2}
    a014:	00746867 	rsbseq	r6, r4, r7, ror #16
    a018:	52495f50 	subpl	r5, r9, #80, 30	; 0x140
    a01c:	61635f51 	cmnvs	r3, r1, asr pc
    a020:	61626c6c 	cmnvs	r2, ip, ror #24
    a024:	55006b63 	strpl	r6, [r0, #-2915]	; 0xfffff49d
    a028:	54524153 	ldrbpl	r4, [r2], #-339	; 0xfffffead
    a02c:	52495f32 	subpl	r5, r9, #50, 30	; 0xc8
    a030:	6e614851 	mcrvs	8, 3, r4, cr1, cr1, {2}
    a034:	72656c64 	rsbvc	r6, r5, #100, 24	; 0x6400
    a038:	61634d00 	cmnvs	r3, r0, lsl #26
    a03c:	41555f6c 	cmpmi	r5, ip, ror #30
    a040:	445f5452 	ldrbmi	r5, [pc], #-1106	; a048 <_Min_Stack_Size+0x9c48>
    a044:	696e6965 	stmdbvs	lr!, {r0, r2, r5, r6, r8, fp, sp, lr}^
    a048:	634d0074 	movtvs	r0, #53364	; 0xd074
    a04c:	555f6c61 	ldrbpl	r6, [pc, #-3169]	; 93f3 <_Min_Stack_Size+0x8ff3>
    a050:	5f545241 	svcpl	0x00545241
    a054:	70007854 	andvc	r7, r0, r4, asr r8
    a058:	696c6c6f 	stmdbvs	ip!, {r0, r1, r2, r3, r5, r6, sl, fp, sp, lr}^
    a05c:	6d5f676e 	ldclvs	7, cr6, [pc, #-440]	; 9eac <_Min_Stack_Size+0x9aac>
    a060:	61686365 	cmnvs	r8, r5, ror #6
    a064:	6d73696e 			; <UNDEFINED> instruction: 0x6d73696e
    a068:	2f2e2e00 	svccs	0x002e2e00
    a06c:	336d7473 	cmncc	sp, #1929379840	; 0x73000000
    a070:	31665f32 	cmncc	r6, r2, lsr pc
    a074:	36633330 			; <UNDEFINED> instruction: 0x36633330
    a078:	6972645f 	ldmdbvs	r2!, {r0, r1, r2, r3, r4, r6, sl, sp, lr}^
    a07c:	73726576 	cmnvc	r2, #494927872	; 0x1d800000
    a080:	6d74732f 	ldclvs	3, cr7, [r4, #-188]!	; 0xffffff44
    a084:	665f3233 			; <UNDEFINED> instruction: 0x665f3233
    a088:	63333031 	teqvs	r3, #49	; 0x31
    a08c:	72645f36 	rsbvc	r5, r4, #54, 30	; 0xd8
    a090:	72657669 	rsbvc	r7, r5, #110100480	; 0x6900000
    a094:	70675f73 	rsbvc	r5, r7, r3, ror pc
    a098:	632e6f69 			; <UNDEFINED> instruction: 0x632e6f69
    a09c:	74654700 	strbtvc	r4, [r5], #-1792	; 0xfffff900
    a0a0:	4c52435f 	mrrcmi	3, 5, r4, r2, cr15
    a0a4:	6f505f48 	svcvs	0x00505f48
    a0a8:	69746973 	ldmdbvs	r4!, {r0, r1, r4, r5, r6, r8, fp, sp, lr}^
    a0ac:	76006e6f 	strvc	r6, [r0], -pc, ror #28
    a0b0:	65756c61 	ldrbvs	r6, [r5, #-3169]!	; 0xfffff39f
    a0b4:	6e695000 	cdpvs	0, 6, cr5, cr9, cr0, {0}
    a0b8:	666e6f43 	strbtvs	r6, [lr], -r3, asr #30
    a0bc:	4d006769 	stcmi	7, cr6, [r0, #-420]	; 0xfffffe5c
    a0c0:	5f4c4143 	svcpl	0x004c4143
    a0c4:	4f495047 	svcmi	0x00495047
    a0c8:	676f545f 			; <UNDEFINED> instruction: 0x676f545f
    a0cc:	50656c67 	rsbpl	r6, r5, r7, ror #24
    a0d0:	47006e69 	strmi	r6, [r0, -r9, ror #28]
    a0d4:	784f4950 	stmdavc	pc, {r4, r6, r8, fp, lr}^	; <UNPREDICTABLE>
    a0d8:	41434d00 	cmpmi	r3, r0, lsl #26
    a0dc:	50475f4c 	subpl	r5, r7, ip, asr #30
    a0e0:	525f4f49 	subspl	r4, pc, #292	; 0x124
    a0e4:	50646165 	rsbpl	r6, r4, r5, ror #2
    a0e8:	50006e69 	andpl	r6, r0, r9, ror #28
    a0ec:	435f4e49 	cmpmi	pc, #1168	; 0x490
    a0f0:	49464e4f 	stmdbmi	r6, {r0, r1, r2, r3, r6, r9, sl, fp, lr}^
    a0f4:	434d0047 	movtmi	r0, #53319	; 0xd047
    a0f8:	475f4c41 	ldrbmi	r4, [pc, -r1, asr #24]
    a0fc:	5f4f4950 	svcpl	0x004f4950
    a100:	74697257 	strbtvc	r7, [r9], #-599	; 0xfffffda9
    a104:	6e695065 	cdpvs	0, 6, cr5, cr9, cr5, {3}
    a108:	41434d00 	cmpmi	r3, r0, lsl #26
    a10c:	50475f4c 	subpl	r5, r7, ip, asr #30
    a110:	575f4f49 	ldrbpl	r4, [pc, -r9, asr #30]
    a114:	65746972 	ldrbvs	r6, [r4, #-2418]!	; 0xfffff68e
    a118:	74726f50 	ldrbtvc	r6, [r2], #-3920	; 0xfffff0b0
    a11c:	726f7000 	rsbvc	r7, pc, #0
    a120:	6c615674 	stclvs	6, cr5, [r1], #-464	; 0xfffffe30
    a124:	4d006575 	cfstr32mi	mvfx6, [r0, #-468]	; 0xfffffe2c
    a128:	5f4c4143 	svcpl	0x004c4143
    a12c:	4f495047 	svcmi	0x00495047
    a130:	4965445f 	stmdbmi	r5!, {r0, r1, r2, r3, r4, r6, sl, lr}^
    a134:	0074696e 	rsbseq	r6, r4, lr, ror #18
    a138:	4c41434d 	mcrrmi	3, 4, r4, r1, cr13
    a13c:	4950475f 	ldmdbmi	r0, {r0, r1, r2, r3, r4, r6, r8, r9, sl, lr}^
    a140:	65525f4f 	ldrbvs	r5, [r2, #-3919]	; 0xfffff0b1
    a144:	6f506461 	svcvs	0x00506461
    a148:	62007472 	andvs	r7, r0, #1912602624	; 0x72000000
    a14c:	74537469 	ldrbvc	r7, [r3], #-1129	; 0xfffffb97
    a150:	73757461 	cmnvc	r5, #1627389952	; 0x61000000
    a154:	6e6f6300 	cdpvs	3, 6, cr6, cr15, cr0, {0}
    a158:	52676966 	rsbpl	r6, r7, #1671168	; 0x198000
    a15c:	73696765 	cmnvc	r9, #26476544	; 0x1940000
    a160:	00726574 	rsbseq	r6, r2, r4, ror r5

Disassembly of section .comment:

00000000 <.comment>:
   0:	3a434347 	bcc	10d0d24 <_Min_Stack_Size+0x10d0924>
   4:	4e472820 	cdpmi	8, 4, cr2, cr7, cr0, {1}
   8:	6f542055 	svcvs	0x00542055
   c:	20736c6f 	rsbscs	r6, r3, pc, ror #24
  10:	20726f66 	rsbscs	r6, r2, r6, ror #30
  14:	334d5453 	movtcc	r5, #54355	; 0xd453
  18:	30312032 	eorscc	r2, r1, r2, lsr r0
  1c:	322d332e 	eorcc	r3, sp, #-1207959552	; 0xb8000000
  20:	2e313230 	mrccs	2, 1, r3, cr1, cr0, {1}
  24:	322e3031 	eorcc	r3, lr, #49	; 0x31
  28:	31313230 	teqcc	r1, r0, lsr r2
  2c:	2d353031 	ldccs	0, cr3, [r5, #-196]!	; 0xffffff3c
  30:	30303131 	eorscc	r3, r0, r1, lsr r1
  34:	30312029 	eorscc	r2, r1, r9, lsr #32
  38:	312e332e 			; <UNDEFINED> instruction: 0x312e332e
  3c:	32303220 	eorscc	r3, r0, #32, 4
  40:	32383031 	eorscc	r3, r8, #49	; 0x31
  44:	72282034 	eorvc	r2, r8, #52	; 0x34
  48:	61656c65 	cmnvs	r5, r5, ror #24
  4c:	00296573 	eoreq	r6, r9, r3, ror r5

Disassembly of section .debug_frame:

00000000 <.debug_frame>:
   0:	0000000c 	andeq	r0, r0, ip
   4:	ffffffff 			; <UNDEFINED> instruction: 0xffffffff
   8:	7c020001 	stcvc	0, cr0, [r2], {1}
   c:	000d0c0e 	andeq	r0, sp, lr, lsl #24
  10:	00000024 	andeq	r0, r0, r4, lsr #32
  14:	00000000 	andeq	r0, r0, r0
  18:	08000170 	stmdaeq	r0, {r4, r5, r6, r8}
  1c:	00000040 	andeq	r0, r0, r0, asr #32
  20:	87040e41 	strhi	r0, [r4, -r1, asr #28]
  24:	100e4101 	andne	r4, lr, r1, lsl #2
  28:	5a070d41 	bpl	1c3534 <_Min_Stack_Size+0x1c3134>
  2c:	0d41040e 	cfstrdeq	mvd0, [r1, #-56]	; 0xffffffc8
  30:	0ec7410d 	poleqs	f4, f7, #5.0
  34:	00000000 	andeq	r0, r0, r0
  38:	00000018 	andeq	r0, r0, r8, lsl r0
  3c:	00000000 	andeq	r0, r0, r0
  40:	080001b0 	stmdaeq	r0, {r4, r5, r7, r8}
  44:	0000000e 	andeq	r0, r0, lr
  48:	87080e41 	strhi	r0, [r8, -r1, asr #28]
  4c:	41018e02 	tstmi	r1, r2, lsl #28
  50:	0000070d 	andeq	r0, r0, sp, lsl #14
  54:	0000001c 	andeq	r0, r0, ip, lsl r0
  58:	00000000 	andeq	r0, r0, r0
  5c:	080001c0 	stmdaeq	r0, {r6, r7, r8}
  60:	0000003c 	andeq	r0, r0, ip, lsr r0
  64:	87040e41 	strhi	r0, [r4, -r1, asr #28]
  68:	070d4101 	streq	r4, [sp, -r1, lsl #2]
  6c:	410d0d53 	tstmi	sp, r3, asr sp
  70:	00000ec7 	andeq	r0, r0, r7, asr #29
  74:	0000001c 	andeq	r0, r0, ip, lsl r0
  78:	00000000 	andeq	r0, r0, r0
  7c:	080001fc 	stmdaeq	r0, {r2, r3, r4, r5, r6, r7, r8}
  80:	0000000c 	andeq	r0, r0, ip
  84:	87040e41 	strhi	r0, [r4, -r1, asr #28]
  88:	070d4101 	streq	r4, [sp, -r1, lsl #2]
  8c:	410d0d42 	tstmi	sp, r2, asr #26
  90:	00000ec7 	andeq	r0, r0, r7, asr #29
  94:	00000018 	andeq	r0, r0, r8, lsl r0
  98:	00000000 	andeq	r0, r0, r0
  9c:	08000208 	stmdaeq	r0, {r3, r9}
  a0:	0000000e 	andeq	r0, r0, lr
  a4:	87080e41 	strhi	r0, [r8, -r1, asr #28]
  a8:	41018e02 	tstmi	r1, r2, lsl #28
  ac:	0000070d 	andeq	r0, r0, sp, lsl #14
  b0:	00000024 	andeq	r0, r0, r4, lsr #32
  b4:	00000000 	andeq	r0, r0, r0
  b8:	08000216 	stmdaeq	r0, {r1, r2, r4, r9}
  bc:	00000020 	andeq	r0, r0, r0, lsr #32
  c0:	87040e41 	strhi	r0, [r4, -r1, asr #28]
  c4:	180e4101 	stmdane	lr, {r0, r8, lr}
  c8:	4a070d41 	bmi	1c35d4 <_Min_Stack_Size+0x1c31d4>
  cc:	0d41040e 	cfstrdeq	mvd0, [r1, #-56]	; 0xffffffc8
  d0:	0ec7410d 	poleqs	f4, f7, #5.0
  d4:	00000000 	andeq	r0, r0, r0
  d8:	00000024 	andeq	r0, r0, r4, lsr #32
  dc:	00000000 	andeq	r0, r0, r0
  e0:	08000236 	stmdaeq	r0, {r1, r2, r4, r5, r9}
  e4:	00000026 	andeq	r0, r0, r6, lsr #32
  e8:	87040e41 	strhi	r0, [r4, -r1, asr #28]
  ec:	180e4101 	stmdane	lr, {r0, r8, lr}
  f0:	4d070d41 	stcmi	13, cr0, [r7, #-260]	; 0xfffffefc
  f4:	0d41040e 	cfstrdeq	mvd0, [r1, #-56]	; 0xffffffc8
  f8:	0ec7410d 	poleqs	f4, f7, #5.0
  fc:	00000000 	andeq	r0, r0, r0
 100:	00000018 	andeq	r0, r0, r8, lsl r0
 104:	00000000 	andeq	r0, r0, r0
 108:	0800025c 	stmdaeq	r0, {r2, r3, r4, r6, r9}
 10c:	000000f4 	strdeq	r0, [r0], -r4
 110:	87080e41 	strhi	r0, [r8, -r1, asr #28]
 114:	41018e02 	tstmi	r1, r2, lsl #28
 118:	0000070d 	andeq	r0, r0, sp, lsl #14
 11c:	0000001c 	andeq	r0, r0, ip, lsl r0
 120:	00000000 	andeq	r0, r0, r0
 124:	08000350 	stmdaeq	r0, {r4, r6, r8, r9}
 128:	00000078 	andeq	r0, r0, r8, ror r0
 12c:	87080e41 	strhi	r0, [r8, -r1, asr #28]
 130:	41018e02 	tstmi	r1, r2, lsl #28
 134:	0d41280e 	stcleq	8, cr2, [r1, #-56]	; 0xffffffc8
 138:	00000007 	andeq	r0, r0, r7
 13c:	0000000c 	andeq	r0, r0, ip
 140:	ffffffff 			; <UNDEFINED> instruction: 0xffffffff
 144:	7c020001 	stcvc	0, cr0, [r2], {1}
 148:	000d0c0e 	andeq	r0, sp, lr, lsl #24
 14c:	00000024 	andeq	r0, r0, r4, lsr #32
 150:	0000013c 	andeq	r0, r0, ip, lsr r1
 154:	0800041c 	stmdaeq	r0, {r2, r3, r4, sl}
 158:	000000c8 	andeq	r0, r0, r8, asr #1
 15c:	87040e41 	strhi	r0, [r4, -r1, asr #28]
 160:	100e4101 	andne	r4, lr, r1, lsl #2
 164:	02070d41 	andeq	r0, r7, #4160	; 0x1040
 168:	41040e5a 	tstmi	r4, sl, asr lr
 16c:	c7410d0d 	strbgt	r0, [r1, -sp, lsl #26]
 170:	0000000e 	andeq	r0, r0, lr
 174:	00000024 	andeq	r0, r0, r4, lsr #32
 178:	0000013c 	andeq	r0, r0, ip, lsr r1
 17c:	080004e4 	stmdaeq	r0, {r2, r5, r6, r7, sl}
 180:	000000c8 	andeq	r0, r0, r8, asr #1
 184:	87040e41 	strhi	r0, [r4, -r1, asr #28]
 188:	100e4101 	andne	r4, lr, r1, lsl #2
 18c:	02070d41 	andeq	r0, r7, #4160	; 0x1040
 190:	41040e5a 	tstmi	r4, sl, asr lr
 194:	c7410d0d 	strbgt	r0, [r1, -sp, lsl #26]
 198:	0000000e 	andeq	r0, r0, lr
 19c:	00000020 	andeq	r0, r0, r0, lsr #32
 1a0:	0000013c 	andeq	r0, r0, ip, lsr r1
 1a4:	080005ac 	stmdaeq	r0, {r2, r3, r5, r7, r8, sl}
 1a8:	000001d0 	ldrdeq	r0, [r0], -r0	; <UNPREDICTABLE>
 1ac:	87080e41 	strhi	r0, [r8, -r1, asr #28]
 1b0:	41018e02 	tstmi	r1, r2, lsl #28
 1b4:	0d41180e 	stcleq	8, cr1, [r1, #-56]	; 0xffffffc8
 1b8:	0ed50207 	cdpeq	2, 13, cr0, cr5, cr7, {0}
 1bc:	0d0d4108 	stfeqs	f4, [sp, #-32]	; 0xffffffe0
 1c0:	0000001c 	andeq	r0, r0, ip, lsl r0
 1c4:	0000013c 	andeq	r0, r0, ip, lsr r1
 1c8:	00000000 	andeq	r0, r0, r0
 1cc:	00000094 	muleq	r0, r4, r0
 1d0:	87040e41 	strhi	r0, [r4, -r1, asr #28]
 1d4:	070d4101 	streq	r4, [sp, -r1, lsl #2]
 1d8:	410d0d7f 	tstmi	sp, pc, ror sp
 1dc:	00000ec7 	andeq	r0, r0, r7, asr #29
 1e0:	00000020 	andeq	r0, r0, r0, lsr #32
 1e4:	0000013c 	andeq	r0, r0, ip, lsr r1
 1e8:	00000000 	andeq	r0, r0, r0
 1ec:	00000016 	andeq	r0, r0, r6, lsl r0
 1f0:	87080e41 	strhi	r0, [r8, -r1, asr #28]
 1f4:	41018e02 	tstmi	r1, r2, lsl #28
 1f8:	0d41100e 	stcleq	0, cr1, [r1, #-56]	; 0xffffffc8
 1fc:	080e4607 	stmdaeq	lr, {r0, r1, r2, r9, sl, lr}
 200:	000d0d41 	andeq	r0, sp, r1, asr #26
 204:	00000020 	andeq	r0, r0, r0, lsr #32
 208:	0000013c 	andeq	r0, r0, ip, lsr r1
 20c:	0800077c 	stmdaeq	r0, {r2, r3, r4, r5, r6, r8, r9, sl}
 210:	00000016 	andeq	r0, r0, r6, lsl r0
 214:	87080e41 	strhi	r0, [r8, -r1, asr #28]
 218:	41018e02 	tstmi	r1, r2, lsl #28
 21c:	0d41100e 	stcleq	0, cr1, [r1, #-56]	; 0xffffffc8
 220:	080e4607 	stmdaeq	lr, {r0, r1, r2, r9, sl, lr}
 224:	000d0d41 	andeq	r0, sp, r1, asr #26
 228:	00000018 	andeq	r0, r0, r8, lsl r0
 22c:	0000013c 	andeq	r0, r0, ip, lsr r1
 230:	08000794 	stmdaeq	r0, {r2, r4, r7, r8, r9, sl}
 234:	00000024 	andeq	r0, r0, r4, lsr #32
 238:	87080e41 	strhi	r0, [r8, -r1, asr #28]
 23c:	41018e02 	tstmi	r1, r2, lsl #28
 240:	0000070d 	andeq	r0, r0, sp, lsl #14
 244:	00000018 	andeq	r0, r0, r8, lsl r0
 248:	0000013c 	andeq	r0, r0, ip, lsr r1
 24c:	080007b8 	stmdaeq	r0, {r3, r4, r5, r7, r8, r9, sl}
 250:	00000024 	andeq	r0, r0, r4, lsr #32
 254:	87080e41 	strhi	r0, [r8, -r1, asr #28]
 258:	41018e02 	tstmi	r1, r2, lsl #28
 25c:	0000070d 	andeq	r0, r0, sp, lsl #14
 260:	00000018 	andeq	r0, r0, r8, lsl r0
 264:	0000013c 	andeq	r0, r0, ip, lsr r1
 268:	080007dc 	stmdaeq	r0, {r2, r3, r4, r6, r7, r8, r9, sl}
 26c:	00000024 	andeq	r0, r0, r4, lsr #32
 270:	87080e41 	strhi	r0, [r8, -r1, asr #28]
 274:	41018e02 	tstmi	r1, r2, lsl #28
 278:	0000070d 	andeq	r0, r0, sp, lsl #14
 27c:	00000018 	andeq	r0, r0, r8, lsl r0
 280:	0000013c 	andeq	r0, r0, ip, lsr r1
 284:	08000800 	stmdaeq	r0, {fp}
 288:	00000024 	andeq	r0, r0, r4, lsr #32
 28c:	87080e41 	strhi	r0, [r8, -r1, asr #28]
 290:	41018e02 	tstmi	r1, r2, lsl #28
 294:	0000070d 	andeq	r0, r0, sp, lsl #14
 298:	00000018 	andeq	r0, r0, r8, lsl r0
 29c:	0000013c 	andeq	r0, r0, ip, lsr r1
 2a0:	08000824 	stmdaeq	r0, {r2, r5, fp}
 2a4:	00000024 	andeq	r0, r0, r4, lsr #32
 2a8:	87080e41 	strhi	r0, [r8, -r1, asr #28]
 2ac:	41018e02 	tstmi	r1, r2, lsl #28
 2b0:	0000070d 	andeq	r0, r0, sp, lsl #14
 2b4:	00000018 	andeq	r0, r0, r8, lsl r0
 2b8:	0000013c 	andeq	r0, r0, ip, lsr r1
 2bc:	08000848 	stmdaeq	r0, {r3, r6, fp}
 2c0:	000000a8 	andeq	r0, r0, r8, lsr #1
 2c4:	87080e41 	strhi	r0, [r8, -r1, asr #28]
 2c8:	41018e02 	tstmi	r1, r2, lsl #28
 2cc:	0000070d 	andeq	r0, r0, sp, lsl #14
 2d0:	00000018 	andeq	r0, r0, r8, lsl r0
 2d4:	0000013c 	andeq	r0, r0, ip, lsr r1
 2d8:	080008f0 	stmdaeq	r0, {r4, r5, r6, r7, fp}
 2dc:	000000c4 	andeq	r0, r0, r4, asr #1
 2e0:	87080e41 	strhi	r0, [r8, -r1, asr #28]
 2e4:	41018e02 	tstmi	r1, r2, lsl #28
 2e8:	0000070d 	andeq	r0, r0, sp, lsl #14
 2ec:	0000000c 	andeq	r0, r0, ip
 2f0:	ffffffff 			; <UNDEFINED> instruction: 0xffffffff
 2f4:	7c020001 	stcvc	0, cr0, [r2], {1}
 2f8:	000d0c0e 	andeq	r0, sp, lr, lsl #24
 2fc:	00000020 	andeq	r0, r0, r0, lsr #32
 300:	000002ec 	andeq	r0, r0, ip, ror #5
 304:	00000000 	andeq	r0, r0, r0
 308:	00000184 	andeq	r0, r0, r4, lsl #3
 30c:	87080e41 	strhi	r0, [r8, -r1, asr #28]
 310:	41018e02 	tstmi	r1, r2, lsl #28
 314:	0d41180e 	stcleq	8, cr1, [r1, #-56]	; 0xffffffc8
 318:	0eb00207 	cdpeq	2, 11, cr0, cr0, cr7, {0}
 31c:	0d0d4108 	stfeqs	f4, [sp, #-32]	; 0xffffffe0
 320:	00000020 	andeq	r0, r0, r0, lsr #32
 324:	000002ec 	andeq	r0, r0, ip, ror #5
 328:	00000000 	andeq	r0, r0, r0
 32c:	000000d0 	ldrdeq	r0, [r0], -r0	; <UNPREDICTABLE>
 330:	87080e41 	strhi	r0, [r8, -r1, asr #28]
 334:	41018e02 	tstmi	r1, r2, lsl #28
 338:	0d41180e 	stcleq	8, cr1, [r1, #-56]	; 0xffffffc8
 33c:	0e5b0207 	cdpeq	2, 5, cr0, cr11, cr7, {0}
 340:	0d0d4108 	stfeqs	f4, [sp, #-32]	; 0xffffffe0
 344:	00000024 	andeq	r0, r0, r4, lsr #32
 348:	000002ec 	andeq	r0, r0, ip, ror #5
 34c:	00000000 	andeq	r0, r0, r0
 350:	00000088 	andeq	r0, r0, r8, lsl #1
 354:	87040e41 	strhi	r0, [r4, -r1, asr #28]
 358:	100e4101 	andne	r4, lr, r1, lsl #2
 35c:	75070d41 	strvc	r0, [r7, #-3393]	; 0xfffff2bf
 360:	0d41040e 	cfstrdeq	mvd0, [r1, #-56]	; 0xffffffc8
 364:	0ec7410d 	poleqs	f4, f7, #5.0
 368:	00000000 	andeq	r0, r0, r0
 36c:	00000024 	andeq	r0, r0, r4, lsr #32
 370:	000002ec 	andeq	r0, r0, ip, ror #5
 374:	00000000 	andeq	r0, r0, r0
 378:	00000036 	andeq	r0, r0, r6, lsr r0
 37c:	87040e41 	strhi	r0, [r4, -r1, asr #28]
 380:	180e4101 	stmdane	lr, {r0, r8, lr}
 384:	55070d41 	strpl	r0, [r7, #-3393]	; 0xfffff2bf
 388:	0d41040e 	cfstrdeq	mvd0, [r1, #-56]	; 0xffffffc8
 38c:	0ec7410d 	poleqs	f4, f7, #5.0
 390:	00000000 	andeq	r0, r0, r0
 394:	00000024 	andeq	r0, r0, r4, lsr #32
 398:	000002ec 	andeq	r0, r0, ip, ror #5
 39c:	00000000 	andeq	r0, r0, r0
 3a0:	0000005c 	andeq	r0, r0, ip, asr r0
 3a4:	87040e41 	strhi	r0, [r4, -r1, asr #28]
 3a8:	180e4101 	stmdane	lr, {r0, r8, lr}
 3ac:	65070d41 	strvs	r0, [r7, #-3393]	; 0xfffff2bf
 3b0:	0d41040e 	cfstrdeq	mvd0, [r1, #-56]	; 0xffffffc8
 3b4:	0ec7410d 	poleqs	f4, f7, #5.0
 3b8:	00000000 	andeq	r0, r0, r0
 3bc:	00000024 	andeq	r0, r0, r4, lsr #32
 3c0:	000002ec 	andeq	r0, r0, ip, ror #5
 3c4:	00000000 	andeq	r0, r0, r0
 3c8:	00000022 	andeq	r0, r0, r2, lsr #32
 3cc:	87040e41 	strhi	r0, [r4, -r1, asr #28]
 3d0:	100e4101 	andne	r4, lr, r1, lsl #2
 3d4:	4b070d41 	blmi	1c38e0 <_Min_Stack_Size+0x1c34e0>
 3d8:	0d41040e 	cfstrdeq	mvd0, [r1, #-56]	; 0xffffffc8
 3dc:	0ec7410d 	poleqs	f4, f7, #5.0
 3e0:	00000000 	andeq	r0, r0, r0
 3e4:	00000018 	andeq	r0, r0, r8, lsl r0
 3e8:	000002ec 	andeq	r0, r0, ip, ror #5
 3ec:	080009b4 	stmdaeq	r0, {r2, r4, r5, r7, r8, fp}
 3f0:	00000014 	andeq	r0, r0, r4, lsl r0
 3f4:	87080e41 	strhi	r0, [r8, -r1, asr #28]
 3f8:	41018e02 	tstmi	r1, r2, lsl #28
 3fc:	0000070d 	andeq	r0, r0, sp, lsl #14
 400:	00000018 	andeq	r0, r0, r8, lsl r0
 404:	000002ec 	andeq	r0, r0, ip, ror #5
 408:	080009c8 	stmdaeq	r0, {r3, r6, r7, r8, fp}
 40c:	00000014 	andeq	r0, r0, r4, lsl r0
 410:	87080e41 	strhi	r0, [r8, -r1, asr #28]
 414:	41018e02 	tstmi	r1, r2, lsl #28
 418:	0000070d 	andeq	r0, r0, sp, lsl #14
 41c:	00000018 	andeq	r0, r0, r8, lsl r0
 420:	000002ec 	andeq	r0, r0, ip, ror #5
 424:	080009dc 	stmdaeq	r0, {r2, r3, r4, r6, r7, r8, fp}
 428:	00000014 	andeq	r0, r0, r4, lsl r0
 42c:	87080e41 	strhi	r0, [r8, -r1, asr #28]
 430:	41018e02 	tstmi	r1, r2, lsl #28
 434:	0000070d 	andeq	r0, r0, sp, lsl #14
 438:	0000000c 	andeq	r0, r0, ip
 43c:	ffffffff 			; <UNDEFINED> instruction: 0xffffffff
 440:	7c020001 	stcvc	0, cr0, [r2], {1}
 444:	000d0c0e 	andeq	r0, sp, lr, lsl #24
 448:	00000024 	andeq	r0, r0, r4, lsr #32
 44c:	00000438 	andeq	r0, r0, r8, lsr r4
 450:	080009f0 	stmdaeq	r0, {r4, r5, r6, r7, r8, fp}
 454:	0000016e 	andeq	r0, r0, lr, ror #2
 458:	87040e41 	strhi	r0, [r4, -r1, asr #28]
 45c:	100e4101 	andne	r4, lr, r1, lsl #2
 460:	02070d41 	andeq	r0, r7, #4160	; 0x1040
 464:	41040eb1 			; <UNDEFINED> instruction: 0x41040eb1
 468:	c7410d0d 	strbgt	r0, [r1, -sp, lsl #26]
 46c:	0000000e 	andeq	r0, r0, lr
 470:	00000024 	andeq	r0, r0, r4, lsr #32
 474:	00000438 	andeq	r0, r0, r8, lsr r4
 478:	08000b60 	stmdaeq	r0, {r5, r6, r8, r9, fp}
 47c:	000000f8 	strdeq	r0, [r0], -r8
 480:	840c0e41 	strhi	r0, [ip], #-3649	; 0xfffff1bf
 484:	8e028703 	cdphi	7, 0, cr8, cr2, cr3, {0}
 488:	200e4101 	andcs	r4, lr, r1, lsl #2
 48c:	02070d41 	andeq	r0, r7, #4160	; 0x1040
 490:	410c0e77 	tstmi	ip, r7, ror lr
 494:	00000d0d 	andeq	r0, r0, sp, lsl #26
 498:	00000024 	andeq	r0, r0, r4, lsr #32
 49c:	00000438 	andeq	r0, r0, r8, lsr r4
 4a0:	00000000 	andeq	r0, r0, r0
 4a4:	000000cc 	andeq	r0, r0, ip, asr #1
 4a8:	87040e41 	strhi	r0, [r4, -r1, asr #28]
 4ac:	100e4101 	andne	r4, lr, r1, lsl #2
 4b0:	02070d41 	andeq	r0, r7, #4160	; 0x1040
 4b4:	41040e53 	tstmi	r4, r3, asr lr
 4b8:	c7410d0d 	strbgt	r0, [r1, -sp, lsl #26]
 4bc:	0000000e 	andeq	r0, r0, lr
 4c0:	00000024 	andeq	r0, r0, r4, lsr #32
 4c4:	00000438 	andeq	r0, r0, r8, lsr r4
 4c8:	00000000 	andeq	r0, r0, r0
 4cc:	0000002e 	andeq	r0, r0, lr, lsr #32
 4d0:	87040e41 	strhi	r0, [r4, -r1, asr #28]
 4d4:	180e4101 	stmdane	lr, {r0, r8, lr}
 4d8:	51070d41 	tstpl	r7, r1, asr #26
 4dc:	0d41040e 	cfstrdeq	mvd0, [r1, #-56]	; 0xffffffc8
 4e0:	0ec7410d 	poleqs	f4, f7, #5.0
 4e4:	00000000 	andeq	r0, r0, r0
 4e8:	00000024 	andeq	r0, r0, r4, lsr #32
 4ec:	00000438 	andeq	r0, r0, r8, lsr r4
 4f0:	00000000 	andeq	r0, r0, r0
 4f4:	0000001a 	andeq	r0, r0, sl, lsl r0
 4f8:	87040e41 	strhi	r0, [r4, -r1, asr #28]
 4fc:	180e4101 	stmdane	lr, {r0, r8, lr}
 500:	47070d41 	strmi	r0, [r7, -r1, asr #26]
 504:	0d41040e 	cfstrdeq	mvd0, [r1, #-56]	; 0xffffffc8
 508:	0ec7410d 	poleqs	f4, f7, #5.0
 50c:	00000000 	andeq	r0, r0, r0
 510:	00000024 	andeq	r0, r0, r4, lsr #32
 514:	00000438 	andeq	r0, r0, r8, lsr r4
 518:	00000000 	andeq	r0, r0, r0
 51c:	0000001c 	andeq	r0, r0, ip, lsl r0
 520:	87040e41 	strhi	r0, [r4, -r1, asr #28]
 524:	100e4101 	andne	r4, lr, r1, lsl #2
 528:	48070d41 	stmdami	r7, {r0, r6, r8, sl, fp}
 52c:	0d41040e 	cfstrdeq	mvd0, [r1, #-56]	; 0xffffffc8
 530:	0ec7410d 	poleqs	f4, f7, #5.0
 534:	00000000 	andeq	r0, r0, r0
 538:	00000024 	andeq	r0, r0, r4, lsr #32
 53c:	00000438 	andeq	r0, r0, r8, lsr r4
 540:	00000000 	andeq	r0, r0, r0
 544:	0000002e 	andeq	r0, r0, lr, lsr #32
 548:	87040e41 	strhi	r0, [r4, -r1, asr #28]
 54c:	100e4101 	andne	r4, lr, r1, lsl #2
 550:	51070d41 	tstpl	r7, r1, asr #26
 554:	0d41040e 	cfstrdeq	mvd0, [r1, #-56]	; 0xffffffc8
 558:	0ec7410d 	poleqs	f4, f7, #5.0
 55c:	00000000 	andeq	r0, r0, r0
 560:	00000024 	andeq	r0, r0, r4, lsr #32
 564:	00000438 	andeq	r0, r0, r8, lsr r4
 568:	00000000 	andeq	r0, r0, r0
 56c:	00000022 	andeq	r0, r0, r2, lsr #32
 570:	87040e41 	strhi	r0, [r4, -r1, asr #28]
 574:	100e4101 	andne	r4, lr, r1, lsl #2
 578:	4b070d41 	blmi	1c3a84 <_Min_Stack_Size+0x1c3684>
 57c:	0d41040e 	cfstrdeq	mvd0, [r1, #-56]	; 0xffffffc8
 580:	0ec7410d 	poleqs	f4, f7, #5.0
 584:	00000000 	andeq	r0, r0, r0
 588:	0000000c 	andeq	r0, r0, ip
 58c:	ffffffff 			; <UNDEFINED> instruction: 0xffffffff
 590:	7c020001 	stcvc	0, cr0, [r2], {1}
 594:	000d0c0e 	andeq	r0, sp, lr, lsl #24
 598:	00000018 	andeq	r0, r0, r8, lsl r0
 59c:	00000588 	andeq	r0, r0, r8, lsl #11
 5a0:	08000c58 	stmdaeq	r0, {r3, r4, r6, sl, fp}
 5a4:	00000048 	andeq	r0, r0, r8, asr #32
 5a8:	84100e41 	ldrhi	r0, [r0], #-3649	; 0xfffff1bf
 5ac:	86038504 	strhi	r8, [r3], -r4, lsl #10
 5b0:	00018e02 	andeq	r8, r1, r2, lsl #28
