
Drivers.axf:     file format elf32-littlearm


Disassembly of section .isr_vector:

08000000 <g_pfnVectors>:
 8000000:	20002800 	andcs	r2, r0, r0, lsl #16
 8000004:	080003c9 	stmdaeq	r0, {r0, r3, r6, r7, r8, r9}
 8000008:	08000419 	stmdaeq	r0, {r0, r3, r4, sl}
 800000c:	080001b1 	stmdaeq	r0, {r0, r4, r5, r7, r8}
 8000010:	08000419 	stmdaeq	r0, {r0, r3, r4, sl}
 8000014:	08000419 	stmdaeq	r0, {r0, r3, r4, sl}
 8000018:	08000419 	stmdaeq	r0, {r0, r3, r4, sl}
	...
 800002c:	08000209 	stmdaeq	r0, {r0, r3, r9}
 8000030:	08000419 	stmdaeq	r0, {r0, r3, r4, sl}
 8000034:	00000000 	andeq	r0, r0, r0
 8000038:	08000419 	stmdaeq	r0, {r0, r3, r4, sl}
 800003c:	080001c1 	stmdaeq	r0, {r0, r6, r7, r8}
 8000040:	08000419 	stmdaeq	r0, {r0, r3, r4, sl}
 8000044:	08000419 	stmdaeq	r0, {r0, r3, r4, sl}
 8000048:	08000419 	stmdaeq	r0, {r0, r3, r4, sl}
 800004c:	08000419 	stmdaeq	r0, {r0, r3, r4, sl}
 8000050:	08000419 	stmdaeq	r0, {r0, r3, r4, sl}
 8000054:	08000419 	stmdaeq	r0, {r0, r3, r4, sl}
 8000058:	08000795 	stmdaeq	r0, {r0, r2, r4, r7, r8, r9, sl}
 800005c:	080007b9 	stmdaeq	r0, {r0, r3, r4, r5, r7, r8, r9, sl}
 8000060:	080007dd 	stmdaeq	r0, {r0, r2, r3, r4, r6, r7, r8, r9, sl}
 8000064:	08000801 	stmdaeq	r0, {r0, fp}
 8000068:	08000825 	stmdaeq	r0, {r0, r2, r5, fp}
 800006c:	08000419 	stmdaeq	r0, {r0, r3, r4, sl}
 8000070:	08000419 	stmdaeq	r0, {r0, r3, r4, sl}
 8000074:	08000419 	stmdaeq	r0, {r0, r3, r4, sl}
 8000078:	08000419 	stmdaeq	r0, {r0, r3, r4, sl}
 800007c:	08000419 	stmdaeq	r0, {r0, r3, r4, sl}
 8000080:	08000419 	stmdaeq	r0, {r0, r3, r4, sl}
 8000084:	08000419 	stmdaeq	r0, {r0, r3, r4, sl}
 8000088:	08000419 	stmdaeq	r0, {r0, r3, r4, sl}
 800008c:	08000419 	stmdaeq	r0, {r0, r3, r4, sl}
 8000090:	08000419 	stmdaeq	r0, {r0, r3, r4, sl}
 8000094:	08000419 	stmdaeq	r0, {r0, r3, r4, sl}
 8000098:	08000419 	stmdaeq	r0, {r0, r3, r4, sl}
 800009c:	08000849 	stmdaeq	r0, {r0, r3, r6, fp}
 80000a0:	08000419 	stmdaeq	r0, {r0, r3, r4, sl}
 80000a4:	08000419 	stmdaeq	r0, {r0, r3, r4, sl}
 80000a8:	08000419 	stmdaeq	r0, {r0, r3, r4, sl}
 80000ac:	08000419 	stmdaeq	r0, {r0, r3, r4, sl}
 80000b0:	08000419 	stmdaeq	r0, {r0, r3, r4, sl}
 80000b4:	08000419 	stmdaeq	r0, {r0, r3, r4, sl}
 80000b8:	08000419 	stmdaeq	r0, {r0, r3, r4, sl}
 80000bc:	08000419 	stmdaeq	r0, {r0, r3, r4, sl}
 80000c0:	08000419 	stmdaeq	r0, {r0, r3, r4, sl}
 80000c4:	08000419 	stmdaeq	r0, {r0, r3, r4, sl}
 80000c8:	08000419 	stmdaeq	r0, {r0, r3, r4, sl}
 80000cc:	08000419 	stmdaeq	r0, {r0, r3, r4, sl}
 80000d0:	08000419 	stmdaeq	r0, {r0, r3, r4, sl}
 80000d4:	080009b5 	stmdaeq	r0, {r0, r2, r4, r5, r7, r8, fp}
 80000d8:	080009c9 	stmdaeq	r0, {r0, r3, r6, r7, r8, fp}
 80000dc:	080009dd 	stmdaeq	r0, {r0, r2, r3, r4, r6, r7, r8, fp}
 80000e0:	080008f1 	stmdaeq	r0, {r0, r4, r5, r6, r7, fp}
 80000e4:	08000419 	stmdaeq	r0, {r0, r3, r4, sl}
 80000e8:	00000000 	andeq	r0, r0, r0
 80000ec:	08000419 	stmdaeq	r0, {r0, r3, r4, sl}
 80000f0:	08000419 	stmdaeq	r0, {r0, r3, r4, sl}
 80000f4:	08000419 	stmdaeq	r0, {r0, r3, r4, sl}
 80000f8:	08000419 	stmdaeq	r0, {r0, r3, r4, sl}
 80000fc:	08000419 	stmdaeq	r0, {r0, r3, r4, sl}
 8000100:	08000419 	stmdaeq	r0, {r0, r3, r4, sl}
 8000104:	08000419 	stmdaeq	r0, {r0, r3, r4, sl}
 8000108:	08000419 	stmdaeq	r0, {r0, r3, r4, sl}
 800010c:	08000419 	stmdaeq	r0, {r0, r3, r4, sl}
 8000110:	08000419 	stmdaeq	r0, {r0, r3, r4, sl}
 8000114:	08000419 	stmdaeq	r0, {r0, r3, r4, sl}
 8000118:	08000419 	stmdaeq	r0, {r0, r3, r4, sl}
 800011c:	08000419 	stmdaeq	r0, {r0, r3, r4, sl}
 8000120:	08000419 	stmdaeq	r0, {r0, r3, r4, sl}
 8000124:	08000419 	stmdaeq	r0, {r0, r3, r4, sl}
 8000128:	08000419 	stmdaeq	r0, {r0, r3, r4, sl}
 800012c:	08000419 	stmdaeq	r0, {r0, r3, r4, sl}

Disassembly of section .text:

08000130 <__do_global_dtors_aux>:
 8000130:	b510      	push	{r4, lr}
 8000132:	4c05      	ldr	r4, [pc, #20]	; (8000148 <__do_global_dtors_aux+0x18>)
 8000134:	7823      	ldrb	r3, [r4, #0]
 8000136:	b933      	cbnz	r3, 8000146 <__do_global_dtors_aux+0x16>
 8000138:	4b04      	ldr	r3, [pc, #16]	; (800014c <__do_global_dtors_aux+0x1c>)
 800013a:	b113      	cbz	r3, 8000142 <__do_global_dtors_aux+0x12>
 800013c:	4804      	ldr	r0, [pc, #16]	; (8000150 <__do_global_dtors_aux+0x20>)
 800013e:	f3af 8000 	nop.w
 8000142:	2301      	movs	r3, #1
 8000144:	7023      	strb	r3, [r4, #0]
 8000146:	bd10      	pop	{r4, pc}
 8000148:	20000004 	andcs	r0, r0, r4
 800014c:	00000000 	andeq	r0, r0, r0
 8000150:	08000ca0 	stmdaeq	r0, {r5, r7, sl, fp}

08000154 <frame_dummy>:
 8000154:	b508      	push	{r3, lr}
 8000156:	4b03      	ldr	r3, [pc, #12]	; (8000164 <frame_dummy+0x10>)
 8000158:	b11b      	cbz	r3, 8000162 <frame_dummy+0xe>
 800015a:	4903      	ldr	r1, [pc, #12]	; (8000168 <frame_dummy+0x14>)
 800015c:	4803      	ldr	r0, [pc, #12]	; (800016c <frame_dummy+0x18>)
 800015e:	f3af 8000 	nop.w
 8000162:	bd08      	pop	{r3, pc}
 8000164:	00000000 	andeq	r0, r0, r0
 8000168:	20000008 	andcs	r0, r0, r8
 800016c:	08000ca0 	stmdaeq	r0, {r5, r7, sl, fp}

08000170 <Switch_CPU_AccessLevel>:
 8000170:	b480      	push	{r7}
 8000172:	b083      	sub	sp, #12
 8000174:	af00      	add	r7, sp, #0
 8000176:	4603      	mov	r3, r0
 8000178:	71fb      	strb	r3, [r7, #7]
 800017a:	79fb      	ldrb	r3, [r7, #7]
 800017c:	2b00      	cmp	r3, #0
 800017e:	d002      	beq.n	8000186 <Switch_CPU_AccessLevel+0x16>
 8000180:	2b01      	cmp	r3, #1
 8000182:	d009      	beq.n	8000198 <Switch_CPU_AccessLevel+0x28>
 8000184:	e00f      	b.n	80001a6 <Switch_CPU_AccessLevel+0x36>
 8000186:	f3ef 8314 	mrs	r3, CONTROL
 800018a:	ea4f 0353 	mov.w	r3, r3, lsr #1
 800018e:	ea4f 0343 	mov.w	r3, r3, lsl #1
 8000192:	f383 8814 	msr	CONTROL, r3
 8000196:	e006      	b.n	80001a6 <Switch_CPU_AccessLevel+0x36>
 8000198:	f3ef 8314 	mrs	r3, CONTROL
 800019c:	f043 0301 	orr.w	r3, r3, #1
 80001a0:	f383 8814 	msr	CONTROL, r3
 80001a4:	bf00      	nop
 80001a6:	bf00      	nop
 80001a8:	370c      	adds	r7, #12
 80001aa:	46bd      	mov	sp, r7
 80001ac:	bc80      	pop	{r7}
 80001ae:	4770      	bx	lr

080001b0 <HardFault_Handler>:
 80001b0:	b580      	push	{r7, lr}
 80001b2:	af00      	add	r7, sp, #0
 80001b4:	2000      	movs	r0, #0
 80001b6:	f7ff ffdb 	bl	8000170 <Switch_CPU_AccessLevel>
 80001ba:	bf00      	nop
 80001bc:	bd80      	pop	{r7, pc}
	...

080001c0 <SysTick_Handler>:
 80001c0:	b480      	push	{r7}
 80001c2:	af00      	add	r7, sp, #0
 80001c4:	4b0a      	ldr	r3, [pc, #40]	; (80001f0 <SysTick_Handler+0x30>)
 80001c6:	681b      	ldr	r3, [r3, #0]
 80001c8:	2b00      	cmp	r3, #0
 80001ca:	d104      	bne.n	80001d6 <SysTick_Handler+0x16>
 80001cc:	4b09      	ldr	r3, [pc, #36]	; (80001f4 <SysTick_Handler+0x34>)
 80001ce:	681b      	ldr	r3, [r3, #0]
 80001d0:	4b07      	ldr	r3, [pc, #28]	; (80001f0 <SysTick_Handler+0x30>)
 80001d2:	681b      	ldr	r3, [r3, #0]
 80001d4:	e007      	b.n	80001e6 <SysTick_Handler+0x26>
 80001d6:	4b06      	ldr	r3, [pc, #24]	; (80001f0 <SysTick_Handler+0x30>)
 80001d8:	681b      	ldr	r3, [r3, #0]
 80001da:	2b01      	cmp	r3, #1
 80001dc:	d103      	bne.n	80001e6 <SysTick_Handler+0x26>
 80001de:	4b06      	ldr	r3, [pc, #24]	; (80001f8 <SysTick_Handler+0x38>)
 80001e0:	681b      	ldr	r3, [r3, #0]
 80001e2:	4b03      	ldr	r3, [pc, #12]	; (80001f0 <SysTick_Handler+0x30>)
 80001e4:	681b      	ldr	r3, [r3, #0]
 80001e6:	bf00      	nop
 80001e8:	46bd      	mov	sp, r7
 80001ea:	bc80      	pop	{r7}
 80001ec:	4770      	bx	lr
 80001ee:	bf00      	nop
 80001f0:	20000034 	andcs	r0, r0, r4, lsr r0
 80001f4:	20000038 	andcs	r0, r0, r8, lsr r0
 80001f8:	2000003c 	andcs	r0, r0, ip, lsr r0

080001fc <EXTI9_callBack>:
 80001fc:	b480      	push	{r7}
 80001fe:	af00      	add	r7, sp, #0
 8000200:	bf00      	nop
 8000202:	46bd      	mov	sp, r7
 8000204:	bc80      	pop	{r7}
 8000206:	4770      	bx	lr

08000208 <SVC_Handler>:
 8000208:	b580      	push	{r7, lr}
 800020a:	af00      	add	r7, sp, #0
 800020c:	2000      	movs	r0, #0
 800020e:	f7ff ffaf 	bl	8000170 <Switch_CPU_AccessLevel>
 8000212:	bf00      	nop
 8000214:	bd80      	pop	{r7, pc}

08000216 <TaskA>:
 8000216:	b480      	push	{r7}
 8000218:	b085      	sub	sp, #20
 800021a:	af00      	add	r7, sp, #0
 800021c:	60f8      	str	r0, [r7, #12]
 800021e:	60b9      	str	r1, [r7, #8]
 8000220:	607a      	str	r2, [r7, #4]
 8000222:	68fa      	ldr	r2, [r7, #12]
 8000224:	68bb      	ldr	r3, [r7, #8]
 8000226:	441a      	add	r2, r3
 8000228:	687b      	ldr	r3, [r7, #4]
 800022a:	4413      	add	r3, r2
 800022c:	4618      	mov	r0, r3
 800022e:	3714      	adds	r7, #20
 8000230:	46bd      	mov	sp, r7
 8000232:	bc80      	pop	{r7}
 8000234:	4770      	bx	lr

08000236 <TaskB>:
 8000236:	b480      	push	{r7}
 8000238:	b085      	sub	sp, #20
 800023a:	af00      	add	r7, sp, #0
 800023c:	60f8      	str	r0, [r7, #12]
 800023e:	60b9      	str	r1, [r7, #8]
 8000240:	607a      	str	r2, [r7, #4]
 8000242:	603b      	str	r3, [r7, #0]
 8000244:	68fa      	ldr	r2, [r7, #12]
 8000246:	68bb      	ldr	r3, [r7, #8]
 8000248:	441a      	add	r2, r3
 800024a:	687b      	ldr	r3, [r7, #4]
 800024c:	441a      	add	r2, r3
 800024e:	683b      	ldr	r3, [r7, #0]
 8000250:	4413      	add	r3, r2
 8000252:	4618      	mov	r0, r3
 8000254:	3714      	adds	r7, #20
 8000256:	46bd      	mov	sp, r7
 8000258:	bc80      	pop	{r7}
 800025a:	4770      	bx	lr

0800025c <MainOs>:
 800025c:	b580      	push	{r7, lr}
 800025e:	af00      	add	r7, sp, #0
 8000260:	4b33      	ldr	r3, [pc, #204]	; (8000330 <MainOs+0xd4>)
 8000262:	681b      	ldr	r3, [r3, #0]
 8000264:	f5a3 7300 	sub.w	r3, r3, #512	; 0x200
 8000268:	4a32      	ldr	r2, [pc, #200]	; (8000334 <MainOs+0xd8>)
 800026a:	6013      	str	r3, [r2, #0]
 800026c:	4b31      	ldr	r3, [pc, #196]	; (8000334 <MainOs+0xd8>)
 800026e:	681b      	ldr	r3, [r3, #0]
 8000270:	3b08      	subs	r3, #8
 8000272:	4a31      	ldr	r2, [pc, #196]	; (8000338 <MainOs+0xdc>)
 8000274:	6013      	str	r3, [r2, #0]
 8000276:	4b30      	ldr	r3, [pc, #192]	; (8000338 <MainOs+0xdc>)
 8000278:	681b      	ldr	r3, [r3, #0]
 800027a:	3b64      	subs	r3, #100	; 0x64
 800027c:	4a2f      	ldr	r2, [pc, #188]	; (800033c <MainOs+0xe0>)
 800027e:	6013      	str	r3, [r2, #0]
 8000280:	4b2e      	ldr	r3, [pc, #184]	; (800033c <MainOs+0xe0>)
 8000282:	681b      	ldr	r3, [r3, #0]
 8000284:	3b08      	subs	r3, #8
 8000286:	4a2e      	ldr	r2, [pc, #184]	; (8000340 <MainOs+0xe4>)
 8000288:	6013      	str	r3, [r2, #0]
 800028a:	4b2d      	ldr	r3, [pc, #180]	; (8000340 <MainOs+0xe4>)
 800028c:	681b      	ldr	r3, [r3, #0]
 800028e:	3b64      	subs	r3, #100	; 0x64
 8000290:	4a2c      	ldr	r2, [pc, #176]	; (8000344 <MainOs+0xe8>)
 8000292:	6013      	str	r3, [r2, #0]
 8000294:	bf00      	nop
 8000296:	4b2c      	ldr	r3, [pc, #176]	; (8000348 <MainOs+0xec>)
 8000298:	681b      	ldr	r3, [r3, #0]
 800029a:	2b01      	cmp	r3, #1
 800029c:	d121      	bne.n	80002e2 <MainOs+0x86>
 800029e:	4b26      	ldr	r3, [pc, #152]	; (8000338 <MainOs+0xdc>)
 80002a0:	681b      	ldr	r3, [r3, #0]
 80002a2:	4618      	mov	r0, r3
 80002a4:	f380 8809 	msr	PSP, r0
 80002a8:	f3ef 8014 	mrs	r0, CONTROL
 80002ac:	f04f 0102 	mov.w	r1, #2
 80002b0:	ea40 0001 	orr.w	r0, r0, r1
 80002b4:	f380 8814 	msr	CONTROL, r0
 80002b8:	2001      	movs	r0, #1
 80002ba:	f7ff ff59 	bl	8000170 <Switch_CPU_AccessLevel>
 80002be:	2203      	movs	r2, #3
 80002c0:	2102      	movs	r1, #2
 80002c2:	2001      	movs	r0, #1
 80002c4:	f7ff ffa7 	bl	8000216 <TaskA>
 80002c8:	4603      	mov	r3, r0
 80002ca:	4a1f      	ldr	r2, [pc, #124]	; (8000348 <MainOs+0xec>)
 80002cc:	6013      	str	r3, [r2, #0]
 80002ce:	df03      	svc	3
 80002d0:	f3ef 8014 	mrs	r0, CONTROL
 80002d4:	f04f 0105 	mov.w	r1, #5
 80002d8:	ea00 0001 	and.w	r0, r0, r1
 80002dc:	f380 8814 	msr	CONTROL, r0
 80002e0:	e7d8      	b.n	8000294 <MainOs+0x38>
 80002e2:	4b1a      	ldr	r3, [pc, #104]	; (800034c <MainOs+0xf0>)
 80002e4:	681b      	ldr	r3, [r3, #0]
 80002e6:	2b01      	cmp	r3, #1
 80002e8:	d1d4      	bne.n	8000294 <MainOs+0x38>
 80002ea:	4b15      	ldr	r3, [pc, #84]	; (8000340 <MainOs+0xe4>)
 80002ec:	681b      	ldr	r3, [r3, #0]
 80002ee:	4618      	mov	r0, r3
 80002f0:	f380 8809 	msr	PSP, r0
 80002f4:	f3ef 8014 	mrs	r0, CONTROL
 80002f8:	f04f 0102 	mov.w	r1, #2
 80002fc:	ea40 0001 	orr.w	r0, r0, r1
 8000300:	f380 8814 	msr	CONTROL, r0
 8000304:	2001      	movs	r0, #1
 8000306:	f7ff ff33 	bl	8000170 <Switch_CPU_AccessLevel>
 800030a:	2304      	movs	r3, #4
 800030c:	2203      	movs	r2, #3
 800030e:	2102      	movs	r1, #2
 8000310:	2001      	movs	r0, #1
 8000312:	f7ff ff90 	bl	8000236 <TaskB>
 8000316:	4603      	mov	r3, r0
 8000318:	4a0c      	ldr	r2, [pc, #48]	; (800034c <MainOs+0xf0>)
 800031a:	6013      	str	r3, [r2, #0]
 800031c:	df03      	svc	3
 800031e:	f3ef 8014 	mrs	r0, CONTROL
 8000322:	f04f 0105 	mov.w	r1, #5
 8000326:	ea00 0001 	and.w	r0, r0, r1
 800032a:	f380 8814 	msr	CONTROL, r0
 800032e:	e7b1      	b.n	8000294 <MainOs+0x38>
 8000330:	20000000 	andcs	r0, r0, r0
 8000334:	20000020 	andcs	r0, r0, r0, lsr #32
 8000338:	20000024 	andcs	r0, r0, r4, lsr #32
 800033c:	20000028 	andcs	r0, r0, r8, lsr #32
 8000340:	2000002c 	andcs	r0, r0, ip, lsr #32
 8000344:	20000030 	andcs	r0, r0, r0, lsr r0
 8000348:	20000038 	andcs	r0, r0, r8, lsr r0
 800034c:	2000003c 	andcs	r0, r0, ip, lsr r0

08000350 <main>:
 8000350:	b580      	push	{r7, lr}
 8000352:	b088      	sub	sp, #32
 8000354:	af00      	add	r7, sp, #0
 8000356:	4b18      	ldr	r3, [pc, #96]	; (80003b8 <main+0x68>)
 8000358:	699b      	ldr	r3, [r3, #24]
 800035a:	4a17      	ldr	r2, [pc, #92]	; (80003b8 <main+0x68>)
 800035c:	f043 0308 	orr.w	r3, r3, #8
 8000360:	6193      	str	r3, [r2, #24]
 8000362:	4b15      	ldr	r3, [pc, #84]	; (80003b8 <main+0x68>)
 8000364:	699b      	ldr	r3, [r3, #24]
 8000366:	4a14      	ldr	r2, [pc, #80]	; (80003b8 <main+0x68>)
 8000368:	f043 0304 	orr.w	r3, r3, #4
 800036c:	6193      	str	r3, [r2, #24]
 800036e:	4b12      	ldr	r3, [pc, #72]	; (80003b8 <main+0x68>)
 8000370:	699b      	ldr	r3, [r3, #24]
 8000372:	4a11      	ldr	r2, [pc, #68]	; (80003b8 <main+0x68>)
 8000374:	f043 0301 	orr.w	r3, r3, #1
 8000378:	6193      	str	r3, [r2, #24]
 800037a:	4a10      	ldr	r2, [pc, #64]	; (80003bc <main+0x6c>)
 800037c:	f107 030c 	add.w	r3, r7, #12
 8000380:	ca07      	ldmia	r2, {r0, r1, r2}
 8000382:	e883 0007 	stmia.w	r3, {r0, r1, r2}
 8000386:	2300      	movs	r3, #0
 8000388:	763b      	strb	r3, [r7, #24]
 800038a:	4b0d      	ldr	r3, [pc, #52]	; (80003c0 <main+0x70>)
 800038c:	61fb      	str	r3, [r7, #28]
 800038e:	2301      	movs	r3, #1
 8000390:	767b      	strb	r3, [r7, #25]
 8000392:	f107 030c 	add.w	r3, r7, #12
 8000396:	4618      	mov	r0, r3
 8000398:	f000 f9f0 	bl	800077c <Mcal_EXTI_GPIO_init>
 800039c:	f7ff ff5e 	bl	800025c <MainOs>
 80003a0:	4b08      	ldr	r3, [pc, #32]	; (80003c4 <main+0x74>)
 80003a2:	2201      	movs	r2, #1
 80003a4:	601a      	str	r2, [r3, #0]
 80003a6:	4b07      	ldr	r3, [pc, #28]	; (80003c4 <main+0x74>)
 80003a8:	681b      	ldr	r3, [r3, #0]
 80003aa:	2b00      	cmp	r3, #0
 80003ac:	d0fb      	beq.n	80003a6 <main+0x56>
 80003ae:	4b05      	ldr	r3, [pc, #20]	; (80003c4 <main+0x74>)
 80003b0:	2200      	movs	r2, #0
 80003b2:	601a      	str	r2, [r3, #0]
 80003b4:	e7f7      	b.n	80003a6 <main+0x56>
 80003b6:	bf00      	nop
 80003b8:	40021000 	andmi	r1, r2, r0
 80003bc:	08000cb8 	stmdaeq	r0, {r3, r4, r5, r7, sl, fp}
 80003c0:	080001fd 	stmdaeq	r0, {r0, r2, r3, r4, r5, r6, r7, r8}
 80003c4:	20000034 	andcs	r0, r0, r4, lsr r0

080003c8 <Reset_Handler>:
 80003c8:	480d      	ldr	r0, [pc, #52]	; (8000400 <LoopForever+0x2>)
 80003ca:	4685      	mov	sp, r0
 80003cc:	f3af 8000 	nop.w
 80003d0:	480c      	ldr	r0, [pc, #48]	; (8000404 <LoopForever+0x6>)
 80003d2:	490d      	ldr	r1, [pc, #52]	; (8000408 <LoopForever+0xa>)
 80003d4:	4a0d      	ldr	r2, [pc, #52]	; (800040c <LoopForever+0xe>)
 80003d6:	2300      	movs	r3, #0
 80003d8:	e002      	b.n	80003e0 <LoopCopyDataInit>

080003da <CopyDataInit>:
 80003da:	58d4      	ldr	r4, [r2, r3]
 80003dc:	50c4      	str	r4, [r0, r3]
 80003de:	3304      	adds	r3, #4

080003e0 <LoopCopyDataInit>:
 80003e0:	18c4      	adds	r4, r0, r3
 80003e2:	428c      	cmp	r4, r1
 80003e4:	d3f9      	bcc.n	80003da <CopyDataInit>
 80003e6:	4a0a      	ldr	r2, [pc, #40]	; (8000410 <LoopForever+0x12>)
 80003e8:	4c0a      	ldr	r4, [pc, #40]	; (8000414 <LoopForever+0x16>)
 80003ea:	2300      	movs	r3, #0
 80003ec:	e001      	b.n	80003f2 <LoopFillZerobss>

080003ee <FillZerobss>:
 80003ee:	6013      	str	r3, [r2, #0]
 80003f0:	3204      	adds	r2, #4

080003f2 <LoopFillZerobss>:
 80003f2:	42a2      	cmp	r2, r4
 80003f4:	d3fb      	bcc.n	80003ee <FillZerobss>
 80003f6:	f000 fc2f 	bl	8000c58 <__libc_init_array>
 80003fa:	f7ff ffa9 	bl	8000350 <main>

080003fe <LoopForever>:
 80003fe:	e7fe      	b.n	80003fe <LoopForever>
 8000400:	20002800 	andcs	r2, r0, r0, lsl #16
 8000404:	20000000 	andcs	r0, r0, r0
 8000408:	20000004 	andcs	r0, r0, r4
 800040c:	08000ccc 	stmdaeq	r0, {r2, r3, r6, r7, sl, fp}
 8000410:	20000004 	andcs	r0, r0, r4
 8000414:	20000080 	andcs	r0, r0, r0, lsl #1

08000418 <ADC1_2_IRQHandler>:
 8000418:	e7fe      	b.n	8000418 <ADC1_2_IRQHandler>
	...

0800041c <Enable_NVIC>:
 800041c:	b480      	push	{r7}
 800041e:	b083      	sub	sp, #12
 8000420:	af00      	add	r7, sp, #0
 8000422:	4603      	mov	r3, r0
 8000424:	80fb      	strh	r3, [r7, #6]
 8000426:	88fb      	ldrh	r3, [r7, #6]
 8000428:	2b0e      	cmp	r3, #14
 800042a:	d852      	bhi.n	80004d2 <Enable_NVIC+0xb6>
 800042c:	a201      	add	r2, pc, #4	; (adr r2, 8000434 <Enable_NVIC+0x18>)
 800042e:	f852 f023 	ldr.w	pc, [r2, r3, lsl #2]
 8000432:	bf00      	nop
 8000434:	08000471 	stmdaeq	r0, {r0, r4, r5, r6, sl}
 8000438:	0800047f 	stmdaeq	r0, {r0, r1, r2, r3, r4, r5, r6, sl}
 800043c:	0800048d 	stmdaeq	r0, {r0, r2, r3, r7, sl}
 8000440:	0800049b 	stmdaeq	r0, {r0, r1, r3, r4, r7, sl}
 8000444:	080004a9 	stmdaeq	r0, {r0, r3, r5, r7, sl}
 8000448:	080004b7 	stmdaeq	r0, {r0, r1, r2, r4, r5, r7, sl}
 800044c:	080004b7 	stmdaeq	r0, {r0, r1, r2, r4, r5, r7, sl}
 8000450:	080004b7 	stmdaeq	r0, {r0, r1, r2, r4, r5, r7, sl}
 8000454:	080004b7 	stmdaeq	r0, {r0, r1, r2, r4, r5, r7, sl}
 8000458:	080004b7 	stmdaeq	r0, {r0, r1, r2, r4, r5, r7, sl}
 800045c:	080004c5 	stmdaeq	r0, {r0, r2, r6, r7, sl}
 8000460:	080004c5 	stmdaeq	r0, {r0, r2, r6, r7, sl}
 8000464:	080004c5 	stmdaeq	r0, {r0, r2, r6, r7, sl}
 8000468:	080004c5 	stmdaeq	r0, {r0, r2, r6, r7, sl}
 800046c:	080004c5 	stmdaeq	r0, {r0, r2, r6, r7, sl}
 8000470:	4b1a      	ldr	r3, [pc, #104]	; (80004dc <Enable_NVIC+0xc0>)
 8000472:	681b      	ldr	r3, [r3, #0]
 8000474:	4a19      	ldr	r2, [pc, #100]	; (80004dc <Enable_NVIC+0xc0>)
 8000476:	f043 0340 	orr.w	r3, r3, #64	; 0x40
 800047a:	6013      	str	r3, [r2, #0]
 800047c:	e029      	b.n	80004d2 <Enable_NVIC+0xb6>
 800047e:	4b17      	ldr	r3, [pc, #92]	; (80004dc <Enable_NVIC+0xc0>)
 8000480:	681b      	ldr	r3, [r3, #0]
 8000482:	4a16      	ldr	r2, [pc, #88]	; (80004dc <Enable_NVIC+0xc0>)
 8000484:	f043 0380 	orr.w	r3, r3, #128	; 0x80
 8000488:	6013      	str	r3, [r2, #0]
 800048a:	e022      	b.n	80004d2 <Enable_NVIC+0xb6>
 800048c:	4b13      	ldr	r3, [pc, #76]	; (80004dc <Enable_NVIC+0xc0>)
 800048e:	681b      	ldr	r3, [r3, #0]
 8000490:	4a12      	ldr	r2, [pc, #72]	; (80004dc <Enable_NVIC+0xc0>)
 8000492:	f443 7380 	orr.w	r3, r3, #256	; 0x100
 8000496:	6013      	str	r3, [r2, #0]
 8000498:	e01b      	b.n	80004d2 <Enable_NVIC+0xb6>
 800049a:	4b10      	ldr	r3, [pc, #64]	; (80004dc <Enable_NVIC+0xc0>)
 800049c:	681b      	ldr	r3, [r3, #0]
 800049e:	4a0f      	ldr	r2, [pc, #60]	; (80004dc <Enable_NVIC+0xc0>)
 80004a0:	f443 7300 	orr.w	r3, r3, #512	; 0x200
 80004a4:	6013      	str	r3, [r2, #0]
 80004a6:	e014      	b.n	80004d2 <Enable_NVIC+0xb6>
 80004a8:	4b0c      	ldr	r3, [pc, #48]	; (80004dc <Enable_NVIC+0xc0>)
 80004aa:	681b      	ldr	r3, [r3, #0]
 80004ac:	4a0b      	ldr	r2, [pc, #44]	; (80004dc <Enable_NVIC+0xc0>)
 80004ae:	f443 7300 	orr.w	r3, r3, #512	; 0x200
 80004b2:	6013      	str	r3, [r2, #0]
 80004b4:	e00d      	b.n	80004d2 <Enable_NVIC+0xb6>
 80004b6:	4b09      	ldr	r3, [pc, #36]	; (80004dc <Enable_NVIC+0xc0>)
 80004b8:	681b      	ldr	r3, [r3, #0]
 80004ba:	4a08      	ldr	r2, [pc, #32]	; (80004dc <Enable_NVIC+0xc0>)
 80004bc:	f443 0300 	orr.w	r3, r3, #8388608	; 0x800000
 80004c0:	6013      	str	r3, [r2, #0]
 80004c2:	e006      	b.n	80004d2 <Enable_NVIC+0xb6>
 80004c4:	4b06      	ldr	r3, [pc, #24]	; (80004e0 <Enable_NVIC+0xc4>)
 80004c6:	681b      	ldr	r3, [r3, #0]
 80004c8:	4a05      	ldr	r2, [pc, #20]	; (80004e0 <Enable_NVIC+0xc4>)
 80004ca:	f443 7380 	orr.w	r3, r3, #256	; 0x100
 80004ce:	6013      	str	r3, [r2, #0]
 80004d0:	bf00      	nop
 80004d2:	bf00      	nop
 80004d4:	370c      	adds	r7, #12
 80004d6:	46bd      	mov	sp, r7
 80004d8:	bc80      	pop	{r7}
 80004da:	4770      	bx	lr
 80004dc:	e000e100 	and	lr, r0, r0, lsl #2
 80004e0:	e000e104 	and	lr, r0, r4, lsl #2

080004e4 <Disable_NVIC>:
 80004e4:	b480      	push	{r7}
 80004e6:	b083      	sub	sp, #12
 80004e8:	af00      	add	r7, sp, #0
 80004ea:	4603      	mov	r3, r0
 80004ec:	80fb      	strh	r3, [r7, #6]
 80004ee:	88fb      	ldrh	r3, [r7, #6]
 80004f0:	2b0e      	cmp	r3, #14
 80004f2:	d852      	bhi.n	800059a <Disable_NVIC+0xb6>
 80004f4:	a201      	add	r2, pc, #4	; (adr r2, 80004fc <Disable_NVIC+0x18>)
 80004f6:	f852 f023 	ldr.w	pc, [r2, r3, lsl #2]
 80004fa:	bf00      	nop
 80004fc:	08000539 	stmdaeq	r0, {r0, r3, r4, r5, r8, sl}
 8000500:	08000547 	stmdaeq	r0, {r0, r1, r2, r6, r8, sl}
 8000504:	08000555 	stmdaeq	r0, {r0, r2, r4, r6, r8, sl}
 8000508:	08000563 	stmdaeq	r0, {r0, r1, r5, r6, r8, sl}
 800050c:	08000571 	stmdaeq	r0, {r0, r4, r5, r6, r8, sl}
 8000510:	0800057f 	stmdaeq	r0, {r0, r1, r2, r3, r4, r5, r6, r8, sl}
 8000514:	0800057f 	stmdaeq	r0, {r0, r1, r2, r3, r4, r5, r6, r8, sl}
 8000518:	0800057f 	stmdaeq	r0, {r0, r1, r2, r3, r4, r5, r6, r8, sl}
 800051c:	0800057f 	stmdaeq	r0, {r0, r1, r2, r3, r4, r5, r6, r8, sl}
 8000520:	0800057f 	stmdaeq	r0, {r0, r1, r2, r3, r4, r5, r6, r8, sl}
 8000524:	0800058d 	stmdaeq	r0, {r0, r2, r3, r7, r8, sl}
 8000528:	0800058d 	stmdaeq	r0, {r0, r2, r3, r7, r8, sl}
 800052c:	0800058d 	stmdaeq	r0, {r0, r2, r3, r7, r8, sl}
 8000530:	0800058d 	stmdaeq	r0, {r0, r2, r3, r7, r8, sl}
 8000534:	0800058d 	stmdaeq	r0, {r0, r2, r3, r7, r8, sl}
 8000538:	4b1a      	ldr	r3, [pc, #104]	; (80005a4 <Disable_NVIC+0xc0>)
 800053a:	681b      	ldr	r3, [r3, #0]
 800053c:	4a19      	ldr	r2, [pc, #100]	; (80005a4 <Disable_NVIC+0xc0>)
 800053e:	f043 0340 	orr.w	r3, r3, #64	; 0x40
 8000542:	6013      	str	r3, [r2, #0]
 8000544:	e029      	b.n	800059a <Disable_NVIC+0xb6>
 8000546:	4b17      	ldr	r3, [pc, #92]	; (80005a4 <Disable_NVIC+0xc0>)
 8000548:	681b      	ldr	r3, [r3, #0]
 800054a:	4a16      	ldr	r2, [pc, #88]	; (80005a4 <Disable_NVIC+0xc0>)
 800054c:	f043 0380 	orr.w	r3, r3, #128	; 0x80
 8000550:	6013      	str	r3, [r2, #0]
 8000552:	e022      	b.n	800059a <Disable_NVIC+0xb6>
 8000554:	4b13      	ldr	r3, [pc, #76]	; (80005a4 <Disable_NVIC+0xc0>)
 8000556:	681b      	ldr	r3, [r3, #0]
 8000558:	4a12      	ldr	r2, [pc, #72]	; (80005a4 <Disable_NVIC+0xc0>)
 800055a:	f443 7380 	orr.w	r3, r3, #256	; 0x100
 800055e:	6013      	str	r3, [r2, #0]
 8000560:	e01b      	b.n	800059a <Disable_NVIC+0xb6>
 8000562:	4b10      	ldr	r3, [pc, #64]	; (80005a4 <Disable_NVIC+0xc0>)
 8000564:	681b      	ldr	r3, [r3, #0]
 8000566:	4a0f      	ldr	r2, [pc, #60]	; (80005a4 <Disable_NVIC+0xc0>)
 8000568:	f443 7300 	orr.w	r3, r3, #512	; 0x200
 800056c:	6013      	str	r3, [r2, #0]
 800056e:	e014      	b.n	800059a <Disable_NVIC+0xb6>
 8000570:	4b0c      	ldr	r3, [pc, #48]	; (80005a4 <Disable_NVIC+0xc0>)
 8000572:	681b      	ldr	r3, [r3, #0]
 8000574:	4a0b      	ldr	r2, [pc, #44]	; (80005a4 <Disable_NVIC+0xc0>)
 8000576:	f443 7300 	orr.w	r3, r3, #512	; 0x200
 800057a:	6013      	str	r3, [r2, #0]
 800057c:	e00d      	b.n	800059a <Disable_NVIC+0xb6>
 800057e:	4b09      	ldr	r3, [pc, #36]	; (80005a4 <Disable_NVIC+0xc0>)
 8000580:	681b      	ldr	r3, [r3, #0]
 8000582:	4a08      	ldr	r2, [pc, #32]	; (80005a4 <Disable_NVIC+0xc0>)
 8000584:	f443 0300 	orr.w	r3, r3, #8388608	; 0x800000
 8000588:	6013      	str	r3, [r2, #0]
 800058a:	e006      	b.n	800059a <Disable_NVIC+0xb6>
 800058c:	4b06      	ldr	r3, [pc, #24]	; (80005a8 <Disable_NVIC+0xc4>)
 800058e:	681b      	ldr	r3, [r3, #0]
 8000590:	4a05      	ldr	r2, [pc, #20]	; (80005a8 <Disable_NVIC+0xc4>)
 8000592:	f443 7380 	orr.w	r3, r3, #256	; 0x100
 8000596:	6013      	str	r3, [r2, #0]
 8000598:	bf00      	nop
 800059a:	bf00      	nop
 800059c:	370c      	adds	r7, #12
 800059e:	46bd      	mov	sp, r7
 80005a0:	bc80      	pop	{r7}
 80005a2:	4770      	bx	lr
 80005a4:	e000e180 	and	lr, r0, r0, lsl #3
 80005a8:	e000e184 	and	lr, r0, r4, lsl #3

080005ac <update_EXTI>:
 80005ac:	b580      	push	{r7, lr}
 80005ae:	b084      	sub	sp, #16
 80005b0:	af00      	add	r7, sp, #0
 80005b2:	6078      	str	r0, [r7, #4]
 80005b4:	687b      	ldr	r3, [r7, #4]
 80005b6:	891b      	ldrh	r3, [r3, #8]
 80005b8:	813b      	strh	r3, [r7, #8]
 80005ba:	2301      	movs	r3, #1
 80005bc:	72bb      	strb	r3, [r7, #10]
 80005be:	687b      	ldr	r3, [r7, #4]
 80005c0:	685b      	ldr	r3, [r3, #4]
 80005c2:	f107 0208 	add.w	r2, r7, #8
 80005c6:	4611      	mov	r1, r2
 80005c8:	4618      	mov	r0, r3
 80005ca:	f000 fac9 	bl	8000b60 <MCAL_GPIO_Init>
 80005ce:	687b      	ldr	r3, [r7, #4]
 80005d0:	881b      	ldrh	r3, [r3, #0]
 80005d2:	089b      	lsrs	r3, r3, #2
 80005d4:	b29b      	uxth	r3, r3
 80005d6:	73fb      	strb	r3, [r7, #15]
 80005d8:	687b      	ldr	r3, [r7, #4]
 80005da:	881b      	ldrh	r3, [r3, #0]
 80005dc:	b2db      	uxtb	r3, r3
 80005de:	f003 0303 	and.w	r3, r3, #3
 80005e2:	b2db      	uxtb	r3, r3
 80005e4:	009b      	lsls	r3, r3, #2
 80005e6:	73bb      	strb	r3, [r7, #14]
 80005e8:	4a5d      	ldr	r2, [pc, #372]	; (8000760 <update_EXTI+0x1b4>)
 80005ea:	7bfb      	ldrb	r3, [r7, #15]
 80005ec:	3302      	adds	r3, #2
 80005ee:	f852 2023 	ldr.w	r2, [r2, r3, lsl #2]
 80005f2:	7bbb      	ldrb	r3, [r7, #14]
 80005f4:	210f      	movs	r1, #15
 80005f6:	fa01 f303 	lsl.w	r3, r1, r3
 80005fa:	43db      	mvns	r3, r3
 80005fc:	4618      	mov	r0, r3
 80005fe:	4958      	ldr	r1, [pc, #352]	; (8000760 <update_EXTI+0x1b4>)
 8000600:	7bfb      	ldrb	r3, [r7, #15]
 8000602:	4002      	ands	r2, r0
 8000604:	3302      	adds	r3, #2
 8000606:	f841 2023 	str.w	r2, [r1, r3, lsl #2]
 800060a:	4a55      	ldr	r2, [pc, #340]	; (8000760 <update_EXTI+0x1b4>)
 800060c:	7bfb      	ldrb	r3, [r7, #15]
 800060e:	3302      	adds	r3, #2
 8000610:	f852 2023 	ldr.w	r2, [r2, r3, lsl #2]
 8000614:	687b      	ldr	r3, [r7, #4]
 8000616:	685b      	ldr	r3, [r3, #4]
 8000618:	4952      	ldr	r1, [pc, #328]	; (8000764 <update_EXTI+0x1b8>)
 800061a:	428b      	cmp	r3, r1
 800061c:	d016      	beq.n	800064c <update_EXTI+0xa0>
 800061e:	687b      	ldr	r3, [r7, #4]
 8000620:	685b      	ldr	r3, [r3, #4]
 8000622:	4951      	ldr	r1, [pc, #324]	; (8000768 <update_EXTI+0x1bc>)
 8000624:	428b      	cmp	r3, r1
 8000626:	d00f      	beq.n	8000648 <update_EXTI+0x9c>
 8000628:	687b      	ldr	r3, [r7, #4]
 800062a:	685b      	ldr	r3, [r3, #4]
 800062c:	494f      	ldr	r1, [pc, #316]	; (800076c <update_EXTI+0x1c0>)
 800062e:	428b      	cmp	r3, r1
 8000630:	d008      	beq.n	8000644 <update_EXTI+0x98>
 8000632:	687b      	ldr	r3, [r7, #4]
 8000634:	685b      	ldr	r3, [r3, #4]
 8000636:	494e      	ldr	r1, [pc, #312]	; (8000770 <update_EXTI+0x1c4>)
 8000638:	428b      	cmp	r3, r1
 800063a:	d101      	bne.n	8000640 <update_EXTI+0x94>
 800063c:	2303      	movs	r3, #3
 800063e:	e006      	b.n	800064e <update_EXTI+0xa2>
 8000640:	2300      	movs	r3, #0
 8000642:	e004      	b.n	800064e <update_EXTI+0xa2>
 8000644:	2302      	movs	r3, #2
 8000646:	e002      	b.n	800064e <update_EXTI+0xa2>
 8000648:	2301      	movs	r3, #1
 800064a:	e000      	b.n	800064e <update_EXTI+0xa2>
 800064c:	2300      	movs	r3, #0
 800064e:	7bb9      	ldrb	r1, [r7, #14]
 8000650:	408b      	lsls	r3, r1
 8000652:	4618      	mov	r0, r3
 8000654:	4942      	ldr	r1, [pc, #264]	; (8000760 <update_EXTI+0x1b4>)
 8000656:	7bfb      	ldrb	r3, [r7, #15]
 8000658:	4302      	orrs	r2, r0
 800065a:	3302      	adds	r3, #2
 800065c:	f841 2023 	str.w	r2, [r1, r3, lsl #2]
 8000660:	4b44      	ldr	r3, [pc, #272]	; (8000774 <update_EXTI+0x1c8>)
 8000662:	689b      	ldr	r3, [r3, #8]
 8000664:	687a      	ldr	r2, [r7, #4]
 8000666:	8812      	ldrh	r2, [r2, #0]
 8000668:	4611      	mov	r1, r2
 800066a:	2201      	movs	r2, #1
 800066c:	408a      	lsls	r2, r1
 800066e:	43d2      	mvns	r2, r2
 8000670:	4611      	mov	r1, r2
 8000672:	4a40      	ldr	r2, [pc, #256]	; (8000774 <update_EXTI+0x1c8>)
 8000674:	400b      	ands	r3, r1
 8000676:	6093      	str	r3, [r2, #8]
 8000678:	4b3e      	ldr	r3, [pc, #248]	; (8000774 <update_EXTI+0x1c8>)
 800067a:	68db      	ldr	r3, [r3, #12]
 800067c:	687a      	ldr	r2, [r7, #4]
 800067e:	8812      	ldrh	r2, [r2, #0]
 8000680:	4611      	mov	r1, r2
 8000682:	2201      	movs	r2, #1
 8000684:	408a      	lsls	r2, r1
 8000686:	43d2      	mvns	r2, r2
 8000688:	4611      	mov	r1, r2
 800068a:	4a3a      	ldr	r2, [pc, #232]	; (8000774 <update_EXTI+0x1c8>)
 800068c:	400b      	ands	r3, r1
 800068e:	60d3      	str	r3, [r2, #12]
 8000690:	687b      	ldr	r3, [r7, #4]
 8000692:	7b1b      	ldrb	r3, [r3, #12]
 8000694:	2b00      	cmp	r3, #0
 8000696:	d10b      	bne.n	80006b0 <update_EXTI+0x104>
 8000698:	4b36      	ldr	r3, [pc, #216]	; (8000774 <update_EXTI+0x1c8>)
 800069a:	689b      	ldr	r3, [r3, #8]
 800069c:	687a      	ldr	r2, [r7, #4]
 800069e:	8812      	ldrh	r2, [r2, #0]
 80006a0:	4611      	mov	r1, r2
 80006a2:	2201      	movs	r2, #1
 80006a4:	408a      	lsls	r2, r1
 80006a6:	4611      	mov	r1, r2
 80006a8:	4a32      	ldr	r2, [pc, #200]	; (8000774 <update_EXTI+0x1c8>)
 80006aa:	430b      	orrs	r3, r1
 80006ac:	6093      	str	r3, [r2, #8]
 80006ae:	e025      	b.n	80006fc <update_EXTI+0x150>
 80006b0:	687b      	ldr	r3, [r7, #4]
 80006b2:	7b1b      	ldrb	r3, [r3, #12]
 80006b4:	2b01      	cmp	r3, #1
 80006b6:	d10b      	bne.n	80006d0 <update_EXTI+0x124>
 80006b8:	4b2e      	ldr	r3, [pc, #184]	; (8000774 <update_EXTI+0x1c8>)
 80006ba:	68db      	ldr	r3, [r3, #12]
 80006bc:	687a      	ldr	r2, [r7, #4]
 80006be:	8812      	ldrh	r2, [r2, #0]
 80006c0:	4611      	mov	r1, r2
 80006c2:	2201      	movs	r2, #1
 80006c4:	408a      	lsls	r2, r1
 80006c6:	4611      	mov	r1, r2
 80006c8:	4a2a      	ldr	r2, [pc, #168]	; (8000774 <update_EXTI+0x1c8>)
 80006ca:	430b      	orrs	r3, r1
 80006cc:	60d3      	str	r3, [r2, #12]
 80006ce:	e015      	b.n	80006fc <update_EXTI+0x150>
 80006d0:	4b28      	ldr	r3, [pc, #160]	; (8000774 <update_EXTI+0x1c8>)
 80006d2:	689b      	ldr	r3, [r3, #8]
 80006d4:	687a      	ldr	r2, [r7, #4]
 80006d6:	8812      	ldrh	r2, [r2, #0]
 80006d8:	4611      	mov	r1, r2
 80006da:	2201      	movs	r2, #1
 80006dc:	408a      	lsls	r2, r1
 80006de:	4611      	mov	r1, r2
 80006e0:	4a24      	ldr	r2, [pc, #144]	; (8000774 <update_EXTI+0x1c8>)
 80006e2:	430b      	orrs	r3, r1
 80006e4:	6093      	str	r3, [r2, #8]
 80006e6:	4b23      	ldr	r3, [pc, #140]	; (8000774 <update_EXTI+0x1c8>)
 80006e8:	68db      	ldr	r3, [r3, #12]
 80006ea:	687a      	ldr	r2, [r7, #4]
 80006ec:	8812      	ldrh	r2, [r2, #0]
 80006ee:	4611      	mov	r1, r2
 80006f0:	2201      	movs	r2, #1
 80006f2:	408a      	lsls	r2, r1
 80006f4:	4611      	mov	r1, r2
 80006f6:	4a1f      	ldr	r2, [pc, #124]	; (8000774 <update_EXTI+0x1c8>)
 80006f8:	430b      	orrs	r3, r1
 80006fa:	60d3      	str	r3, [r2, #12]
 80006fc:	687b      	ldr	r3, [r7, #4]
 80006fe:	881b      	ldrh	r3, [r3, #0]
 8000700:	4619      	mov	r1, r3
 8000702:	687b      	ldr	r3, [r7, #4]
 8000704:	691b      	ldr	r3, [r3, #16]
 8000706:	4a1c      	ldr	r2, [pc, #112]	; (8000778 <update_EXTI+0x1cc>)
 8000708:	f842 3021 	str.w	r3, [r2, r1, lsl #2]
 800070c:	687b      	ldr	r3, [r7, #4]
 800070e:	7b5b      	ldrb	r3, [r3, #13]
 8000710:	2b01      	cmp	r3, #1
 8000712:	d110      	bne.n	8000736 <update_EXTI+0x18a>
 8000714:	4b17      	ldr	r3, [pc, #92]	; (8000774 <update_EXTI+0x1c8>)
 8000716:	681b      	ldr	r3, [r3, #0]
 8000718:	687a      	ldr	r2, [r7, #4]
 800071a:	8812      	ldrh	r2, [r2, #0]
 800071c:	4611      	mov	r1, r2
 800071e:	2201      	movs	r2, #1
 8000720:	408a      	lsls	r2, r1
 8000722:	4611      	mov	r1, r2
 8000724:	4a13      	ldr	r2, [pc, #76]	; (8000774 <update_EXTI+0x1c8>)
 8000726:	430b      	orrs	r3, r1
 8000728:	6013      	str	r3, [r2, #0]
 800072a:	687b      	ldr	r3, [r7, #4]
 800072c:	881b      	ldrh	r3, [r3, #0]
 800072e:	4618      	mov	r0, r3
 8000730:	f7ff fe74 	bl	800041c <Enable_NVIC>
 8000734:	e010      	b.n	8000758 <update_EXTI+0x1ac>
 8000736:	4b0f      	ldr	r3, [pc, #60]	; (8000774 <update_EXTI+0x1c8>)
 8000738:	681b      	ldr	r3, [r3, #0]
 800073a:	687a      	ldr	r2, [r7, #4]
 800073c:	8812      	ldrh	r2, [r2, #0]
 800073e:	4611      	mov	r1, r2
 8000740:	2201      	movs	r2, #1
 8000742:	408a      	lsls	r2, r1
 8000744:	43d2      	mvns	r2, r2
 8000746:	4611      	mov	r1, r2
 8000748:	4a0a      	ldr	r2, [pc, #40]	; (8000774 <update_EXTI+0x1c8>)
 800074a:	400b      	ands	r3, r1
 800074c:	6013      	str	r3, [r2, #0]
 800074e:	687b      	ldr	r3, [r7, #4]
 8000750:	881b      	ldrh	r3, [r3, #0]
 8000752:	4618      	mov	r0, r3
 8000754:	f7ff fec6 	bl	80004e4 <Disable_NVIC>
 8000758:	bf00      	nop
 800075a:	3710      	adds	r7, #16
 800075c:	46bd      	mov	sp, r7
 800075e:	bd80      	pop	{r7, pc}
 8000760:	40010000 	andmi	r0, r1, r0
 8000764:	40010800 	andmi	r0, r1, r0, lsl #16
 8000768:	40010c00 	andmi	r0, r1, r0, lsl #24
 800076c:	40011000 	andmi	r1, r1, r0
 8000770:	40011400 	andmi	r1, r1, r0, lsl #8
 8000774:	40010400 	andmi	r0, r1, r0, lsl #8
 8000778:	20000040 	andcs	r0, r0, r0, asr #32

0800077c <Mcal_EXTI_GPIO_init>:
 800077c:	b580      	push	{r7, lr}
 800077e:	b082      	sub	sp, #8
 8000780:	af00      	add	r7, sp, #0
 8000782:	6078      	str	r0, [r7, #4]
 8000784:	6878      	ldr	r0, [r7, #4]
 8000786:	f7ff ff11 	bl	80005ac <update_EXTI>
 800078a:	bf00      	nop
 800078c:	3708      	adds	r7, #8
 800078e:	46bd      	mov	sp, r7
 8000790:	bd80      	pop	{r7, pc}
	...

08000794 <EXTI0_IRQHandler>:
 8000794:	b580      	push	{r7, lr}
 8000796:	af00      	add	r7, sp, #0
 8000798:	4b05      	ldr	r3, [pc, #20]	; (80007b0 <EXTI0_IRQHandler+0x1c>)
 800079a:	695b      	ldr	r3, [r3, #20]
 800079c:	4a04      	ldr	r2, [pc, #16]	; (80007b0 <EXTI0_IRQHandler+0x1c>)
 800079e:	f043 0301 	orr.w	r3, r3, #1
 80007a2:	6153      	str	r3, [r2, #20]
 80007a4:	4b03      	ldr	r3, [pc, #12]	; (80007b4 <EXTI0_IRQHandler+0x20>)
 80007a6:	681b      	ldr	r3, [r3, #0]
 80007a8:	4798      	blx	r3
 80007aa:	bf00      	nop
 80007ac:	bd80      	pop	{r7, pc}
 80007ae:	bf00      	nop
 80007b0:	40010400 	andmi	r0, r1, r0, lsl #8
 80007b4:	20000040 	andcs	r0, r0, r0, asr #32

080007b8 <EXTI1_IRQHandler>:
 80007b8:	b580      	push	{r7, lr}
 80007ba:	af00      	add	r7, sp, #0
 80007bc:	4b05      	ldr	r3, [pc, #20]	; (80007d4 <EXTI1_IRQHandler+0x1c>)
 80007be:	695b      	ldr	r3, [r3, #20]
 80007c0:	4a04      	ldr	r2, [pc, #16]	; (80007d4 <EXTI1_IRQHandler+0x1c>)
 80007c2:	f043 0302 	orr.w	r3, r3, #2
 80007c6:	6153      	str	r3, [r2, #20]
 80007c8:	4b03      	ldr	r3, [pc, #12]	; (80007d8 <EXTI1_IRQHandler+0x20>)
 80007ca:	685b      	ldr	r3, [r3, #4]
 80007cc:	4798      	blx	r3
 80007ce:	bf00      	nop
 80007d0:	bd80      	pop	{r7, pc}
 80007d2:	bf00      	nop
 80007d4:	40010400 	andmi	r0, r1, r0, lsl #8
 80007d8:	20000040 	andcs	r0, r0, r0, asr #32

080007dc <EXTI2_IRQHandler>:
 80007dc:	b580      	push	{r7, lr}
 80007de:	af00      	add	r7, sp, #0
 80007e0:	4b05      	ldr	r3, [pc, #20]	; (80007f8 <EXTI2_IRQHandler+0x1c>)
 80007e2:	695b      	ldr	r3, [r3, #20]
 80007e4:	4a04      	ldr	r2, [pc, #16]	; (80007f8 <EXTI2_IRQHandler+0x1c>)
 80007e6:	f043 0304 	orr.w	r3, r3, #4
 80007ea:	6153      	str	r3, [r2, #20]
 80007ec:	4b03      	ldr	r3, [pc, #12]	; (80007fc <EXTI2_IRQHandler+0x20>)
 80007ee:	689b      	ldr	r3, [r3, #8]
 80007f0:	4798      	blx	r3
 80007f2:	bf00      	nop
 80007f4:	bd80      	pop	{r7, pc}
 80007f6:	bf00      	nop
 80007f8:	40010400 	andmi	r0, r1, r0, lsl #8
 80007fc:	20000040 	andcs	r0, r0, r0, asr #32

08000800 <EXTI3_IRQHandler>:
 8000800:	b580      	push	{r7, lr}
 8000802:	af00      	add	r7, sp, #0
 8000804:	4b05      	ldr	r3, [pc, #20]	; (800081c <EXTI3_IRQHandler+0x1c>)
 8000806:	695b      	ldr	r3, [r3, #20]
 8000808:	4a04      	ldr	r2, [pc, #16]	; (800081c <EXTI3_IRQHandler+0x1c>)
 800080a:	f043 0308 	orr.w	r3, r3, #8
 800080e:	6153      	str	r3, [r2, #20]
 8000810:	4b03      	ldr	r3, [pc, #12]	; (8000820 <EXTI3_IRQHandler+0x20>)
 8000812:	68db      	ldr	r3, [r3, #12]
 8000814:	4798      	blx	r3
 8000816:	bf00      	nop
 8000818:	bd80      	pop	{r7, pc}
 800081a:	bf00      	nop
 800081c:	40010400 	andmi	r0, r1, r0, lsl #8
 8000820:	20000040 	andcs	r0, r0, r0, asr #32

08000824 <EXTI4_IRQHandler>:
 8000824:	b580      	push	{r7, lr}
 8000826:	af00      	add	r7, sp, #0
 8000828:	4b05      	ldr	r3, [pc, #20]	; (8000840 <EXTI4_IRQHandler+0x1c>)
 800082a:	695b      	ldr	r3, [r3, #20]
 800082c:	4a04      	ldr	r2, [pc, #16]	; (8000840 <EXTI4_IRQHandler+0x1c>)
 800082e:	f043 0310 	orr.w	r3, r3, #16
 8000832:	6153      	str	r3, [r2, #20]
 8000834:	4b03      	ldr	r3, [pc, #12]	; (8000844 <EXTI4_IRQHandler+0x20>)
 8000836:	691b      	ldr	r3, [r3, #16]
 8000838:	4798      	blx	r3
 800083a:	bf00      	nop
 800083c:	bd80      	pop	{r7, pc}
 800083e:	bf00      	nop
 8000840:	40010400 	andmi	r0, r1, r0, lsl #8
 8000844:	20000040 	andcs	r0, r0, r0, asr #32

08000848 <EXTI9_5_IRQHandler>:
 8000848:	b580      	push	{r7, lr}
 800084a:	af00      	add	r7, sp, #0
 800084c:	4b26      	ldr	r3, [pc, #152]	; (80008e8 <EXTI9_5_IRQHandler+0xa0>)
 800084e:	695b      	ldr	r3, [r3, #20]
 8000850:	f003 0320 	and.w	r3, r3, #32
 8000854:	2b00      	cmp	r3, #0
 8000856:	d008      	beq.n	800086a <EXTI9_5_IRQHandler+0x22>
 8000858:	4b23      	ldr	r3, [pc, #140]	; (80008e8 <EXTI9_5_IRQHandler+0xa0>)
 800085a:	695b      	ldr	r3, [r3, #20]
 800085c:	4a22      	ldr	r2, [pc, #136]	; (80008e8 <EXTI9_5_IRQHandler+0xa0>)
 800085e:	f043 0320 	orr.w	r3, r3, #32
 8000862:	6153      	str	r3, [r2, #20]
 8000864:	4b21      	ldr	r3, [pc, #132]	; (80008ec <EXTI9_5_IRQHandler+0xa4>)
 8000866:	695b      	ldr	r3, [r3, #20]
 8000868:	4798      	blx	r3
 800086a:	4b1f      	ldr	r3, [pc, #124]	; (80008e8 <EXTI9_5_IRQHandler+0xa0>)
 800086c:	695b      	ldr	r3, [r3, #20]
 800086e:	f003 0340 	and.w	r3, r3, #64	; 0x40
 8000872:	2b00      	cmp	r3, #0
 8000874:	d008      	beq.n	8000888 <EXTI9_5_IRQHandler+0x40>
 8000876:	4b1c      	ldr	r3, [pc, #112]	; (80008e8 <EXTI9_5_IRQHandler+0xa0>)
 8000878:	695b      	ldr	r3, [r3, #20]
 800087a:	4a1b      	ldr	r2, [pc, #108]	; (80008e8 <EXTI9_5_IRQHandler+0xa0>)
 800087c:	f043 0340 	orr.w	r3, r3, #64	; 0x40
 8000880:	6153      	str	r3, [r2, #20]
 8000882:	4b1a      	ldr	r3, [pc, #104]	; (80008ec <EXTI9_5_IRQHandler+0xa4>)
 8000884:	699b      	ldr	r3, [r3, #24]
 8000886:	4798      	blx	r3
 8000888:	4b17      	ldr	r3, [pc, #92]	; (80008e8 <EXTI9_5_IRQHandler+0xa0>)
 800088a:	695b      	ldr	r3, [r3, #20]
 800088c:	f003 0380 	and.w	r3, r3, #128	; 0x80
 8000890:	2b00      	cmp	r3, #0
 8000892:	d008      	beq.n	80008a6 <EXTI9_5_IRQHandler+0x5e>
 8000894:	4b14      	ldr	r3, [pc, #80]	; (80008e8 <EXTI9_5_IRQHandler+0xa0>)
 8000896:	695b      	ldr	r3, [r3, #20]
 8000898:	4a13      	ldr	r2, [pc, #76]	; (80008e8 <EXTI9_5_IRQHandler+0xa0>)
 800089a:	f043 0380 	orr.w	r3, r3, #128	; 0x80
 800089e:	6153      	str	r3, [r2, #20]
 80008a0:	4b12      	ldr	r3, [pc, #72]	; (80008ec <EXTI9_5_IRQHandler+0xa4>)
 80008a2:	69db      	ldr	r3, [r3, #28]
 80008a4:	4798      	blx	r3
 80008a6:	4b10      	ldr	r3, [pc, #64]	; (80008e8 <EXTI9_5_IRQHandler+0xa0>)
 80008a8:	695b      	ldr	r3, [r3, #20]
 80008aa:	f403 7380 	and.w	r3, r3, #256	; 0x100
 80008ae:	2b00      	cmp	r3, #0
 80008b0:	d008      	beq.n	80008c4 <EXTI9_5_IRQHandler+0x7c>
 80008b2:	4b0d      	ldr	r3, [pc, #52]	; (80008e8 <EXTI9_5_IRQHandler+0xa0>)
 80008b4:	695b      	ldr	r3, [r3, #20]
 80008b6:	4a0c      	ldr	r2, [pc, #48]	; (80008e8 <EXTI9_5_IRQHandler+0xa0>)
 80008b8:	f443 7380 	orr.w	r3, r3, #256	; 0x100
 80008bc:	6153      	str	r3, [r2, #20]
 80008be:	4b0b      	ldr	r3, [pc, #44]	; (80008ec <EXTI9_5_IRQHandler+0xa4>)
 80008c0:	6a1b      	ldr	r3, [r3, #32]
 80008c2:	4798      	blx	r3
 80008c4:	4b08      	ldr	r3, [pc, #32]	; (80008e8 <EXTI9_5_IRQHandler+0xa0>)
 80008c6:	695b      	ldr	r3, [r3, #20]
 80008c8:	f403 7300 	and.w	r3, r3, #512	; 0x200
 80008cc:	2b00      	cmp	r3, #0
 80008ce:	d008      	beq.n	80008e2 <EXTI9_5_IRQHandler+0x9a>
 80008d0:	4b05      	ldr	r3, [pc, #20]	; (80008e8 <EXTI9_5_IRQHandler+0xa0>)
 80008d2:	695b      	ldr	r3, [r3, #20]
 80008d4:	4a04      	ldr	r2, [pc, #16]	; (80008e8 <EXTI9_5_IRQHandler+0xa0>)
 80008d6:	f443 7300 	orr.w	r3, r3, #512	; 0x200
 80008da:	6153      	str	r3, [r2, #20]
 80008dc:	4b03      	ldr	r3, [pc, #12]	; (80008ec <EXTI9_5_IRQHandler+0xa4>)
 80008de:	6a5b      	ldr	r3, [r3, #36]	; 0x24
 80008e0:	4798      	blx	r3
 80008e2:	bf00      	nop
 80008e4:	bd80      	pop	{r7, pc}
 80008e6:	bf00      	nop
 80008e8:	40010400 	andmi	r0, r1, r0, lsl #8
 80008ec:	20000040 	andcs	r0, r0, r0, asr #32

080008f0 <EXTI15_10_IRQHandler>:
 80008f0:	b580      	push	{r7, lr}
 80008f2:	af00      	add	r7, sp, #0
 80008f4:	4b2d      	ldr	r3, [pc, #180]	; (80009ac <EXTI15_10_IRQHandler+0xbc>)
 80008f6:	695b      	ldr	r3, [r3, #20]
 80008f8:	f403 6380 	and.w	r3, r3, #1024	; 0x400
 80008fc:	2b00      	cmp	r3, #0
 80008fe:	d008      	beq.n	8000912 <EXTI15_10_IRQHandler+0x22>
 8000900:	4b2a      	ldr	r3, [pc, #168]	; (80009ac <EXTI15_10_IRQHandler+0xbc>)
 8000902:	695b      	ldr	r3, [r3, #20]
 8000904:	4a29      	ldr	r2, [pc, #164]	; (80009ac <EXTI15_10_IRQHandler+0xbc>)
 8000906:	f443 6380 	orr.w	r3, r3, #1024	; 0x400
 800090a:	6153      	str	r3, [r2, #20]
 800090c:	4b28      	ldr	r3, [pc, #160]	; (80009b0 <EXTI15_10_IRQHandler+0xc0>)
 800090e:	6a9b      	ldr	r3, [r3, #40]	; 0x28
 8000910:	4798      	blx	r3
 8000912:	4b26      	ldr	r3, [pc, #152]	; (80009ac <EXTI15_10_IRQHandler+0xbc>)
 8000914:	695b      	ldr	r3, [r3, #20]
 8000916:	f403 6300 	and.w	r3, r3, #2048	; 0x800
 800091a:	2b00      	cmp	r3, #0
 800091c:	d008      	beq.n	8000930 <EXTI15_10_IRQHandler+0x40>
 800091e:	4b23      	ldr	r3, [pc, #140]	; (80009ac <EXTI15_10_IRQHandler+0xbc>)
 8000920:	695b      	ldr	r3, [r3, #20]
 8000922:	4a22      	ldr	r2, [pc, #136]	; (80009ac <EXTI15_10_IRQHandler+0xbc>)
 8000924:	f443 6300 	orr.w	r3, r3, #2048	; 0x800
 8000928:	6153      	str	r3, [r2, #20]
 800092a:	4b21      	ldr	r3, [pc, #132]	; (80009b0 <EXTI15_10_IRQHandler+0xc0>)
 800092c:	6adb      	ldr	r3, [r3, #44]	; 0x2c
 800092e:	4798      	blx	r3
 8000930:	4b1e      	ldr	r3, [pc, #120]	; (80009ac <EXTI15_10_IRQHandler+0xbc>)
 8000932:	695b      	ldr	r3, [r3, #20]
 8000934:	f403 5380 	and.w	r3, r3, #4096	; 0x1000
 8000938:	2b00      	cmp	r3, #0
 800093a:	d008      	beq.n	800094e <EXTI15_10_IRQHandler+0x5e>
 800093c:	4b1b      	ldr	r3, [pc, #108]	; (80009ac <EXTI15_10_IRQHandler+0xbc>)
 800093e:	695b      	ldr	r3, [r3, #20]
 8000940:	4a1a      	ldr	r2, [pc, #104]	; (80009ac <EXTI15_10_IRQHandler+0xbc>)
 8000942:	f443 5380 	orr.w	r3, r3, #4096	; 0x1000
 8000946:	6153      	str	r3, [r2, #20]
 8000948:	4b19      	ldr	r3, [pc, #100]	; (80009b0 <EXTI15_10_IRQHandler+0xc0>)
 800094a:	6b1b      	ldr	r3, [r3, #48]	; 0x30
 800094c:	4798      	blx	r3
 800094e:	4b17      	ldr	r3, [pc, #92]	; (80009ac <EXTI15_10_IRQHandler+0xbc>)
 8000950:	695b      	ldr	r3, [r3, #20]
 8000952:	f403 5300 	and.w	r3, r3, #8192	; 0x2000
 8000956:	2b00      	cmp	r3, #0
 8000958:	d008      	beq.n	800096c <EXTI15_10_IRQHandler+0x7c>
 800095a:	4b14      	ldr	r3, [pc, #80]	; (80009ac <EXTI15_10_IRQHandler+0xbc>)
 800095c:	695b      	ldr	r3, [r3, #20]
 800095e:	4a13      	ldr	r2, [pc, #76]	; (80009ac <EXTI15_10_IRQHandler+0xbc>)
 8000960:	f443 5300 	orr.w	r3, r3, #8192	; 0x2000
 8000964:	6153      	str	r3, [r2, #20]
 8000966:	4b12      	ldr	r3, [pc, #72]	; (80009b0 <EXTI15_10_IRQHandler+0xc0>)
 8000968:	6b5b      	ldr	r3, [r3, #52]	; 0x34
 800096a:	4798      	blx	r3
 800096c:	4b0f      	ldr	r3, [pc, #60]	; (80009ac <EXTI15_10_IRQHandler+0xbc>)
 800096e:	695b      	ldr	r3, [r3, #20]
 8000970:	f403 4380 	and.w	r3, r3, #16384	; 0x4000
 8000974:	2b00      	cmp	r3, #0
 8000976:	d008      	beq.n	800098a <EXTI15_10_IRQHandler+0x9a>
 8000978:	4b0c      	ldr	r3, [pc, #48]	; (80009ac <EXTI15_10_IRQHandler+0xbc>)
 800097a:	695b      	ldr	r3, [r3, #20]
 800097c:	4a0b      	ldr	r2, [pc, #44]	; (80009ac <EXTI15_10_IRQHandler+0xbc>)
 800097e:	f443 4380 	orr.w	r3, r3, #16384	; 0x4000
 8000982:	6153      	str	r3, [r2, #20]
 8000984:	4b0a      	ldr	r3, [pc, #40]	; (80009b0 <EXTI15_10_IRQHandler+0xc0>)
 8000986:	6b9b      	ldr	r3, [r3, #56]	; 0x38
 8000988:	4798      	blx	r3
 800098a:	4b08      	ldr	r3, [pc, #32]	; (80009ac <EXTI15_10_IRQHandler+0xbc>)
 800098c:	695b      	ldr	r3, [r3, #20]
 800098e:	f403 4300 	and.w	r3, r3, #32768	; 0x8000
 8000992:	2b00      	cmp	r3, #0
 8000994:	d008      	beq.n	80009a8 <EXTI15_10_IRQHandler+0xb8>
 8000996:	4b05      	ldr	r3, [pc, #20]	; (80009ac <EXTI15_10_IRQHandler+0xbc>)
 8000998:	695b      	ldr	r3, [r3, #20]
 800099a:	4a04      	ldr	r2, [pc, #16]	; (80009ac <EXTI15_10_IRQHandler+0xbc>)
 800099c:	f443 4300 	orr.w	r3, r3, #32768	; 0x8000
 80009a0:	6153      	str	r3, [r2, #20]
 80009a2:	4b03      	ldr	r3, [pc, #12]	; (80009b0 <EXTI15_10_IRQHandler+0xc0>)
 80009a4:	6bdb      	ldr	r3, [r3, #60]	; 0x3c
 80009a6:	4798      	blx	r3
 80009a8:	bf00      	nop
 80009aa:	bd80      	pop	{r7, pc}
 80009ac:	40010400 	andmi	r0, r1, r0, lsl #8
 80009b0:	20000040 	andcs	r0, r0, r0, asr #32

080009b4 <USART1_IRQHandler>:
 80009b4:	b580      	push	{r7, lr}
 80009b6:	af00      	add	r7, sp, #0
 80009b8:	4b02      	ldr	r3, [pc, #8]	; (80009c4 <USART1_IRQHandler+0x10>)
 80009ba:	681b      	ldr	r3, [r3, #0]
 80009bc:	691b      	ldr	r3, [r3, #16]
 80009be:	4798      	blx	r3
 80009c0:	bf00      	nop
 80009c2:	bd80      	pop	{r7, pc}
 80009c4:	2000007c 	andcs	r0, r0, ip, ror r0

080009c8 <USART2_IRQHandler>:
 80009c8:	b580      	push	{r7, lr}
 80009ca:	af00      	add	r7, sp, #0
 80009cc:	4b02      	ldr	r3, [pc, #8]	; (80009d8 <USART2_IRQHandler+0x10>)
 80009ce:	681b      	ldr	r3, [r3, #0]
 80009d0:	691b      	ldr	r3, [r3, #16]
 80009d2:	4798      	blx	r3
 80009d4:	bf00      	nop
 80009d6:	bd80      	pop	{r7, pc}
 80009d8:	2000007c 	andcs	r0, r0, ip, ror r0

080009dc <USART3_IRQHandler>:
 80009dc:	b580      	push	{r7, lr}
 80009de:	af00      	add	r7, sp, #0
 80009e0:	4b02      	ldr	r3, [pc, #8]	; (80009ec <USART3_IRQHandler+0x10>)
 80009e2:	681b      	ldr	r3, [r3, #0]
 80009e4:	691b      	ldr	r3, [r3, #16]
 80009e6:	4798      	blx	r3
 80009e8:	bf00      	nop
 80009ea:	bd80      	pop	{r7, pc}
 80009ec:	2000007c 	andcs	r0, r0, ip, ror r0

080009f0 <Get_CRLH_Position>:
 80009f0:	b480      	push	{r7}
 80009f2:	b083      	sub	sp, #12
 80009f4:	af00      	add	r7, sp, #0
 80009f6:	4603      	mov	r3, r0
 80009f8:	80fb      	strh	r3, [r7, #6]
 80009fa:	88fb      	ldrh	r3, [r7, #6]
 80009fc:	f5b3 4f00 	cmp.w	r3, #32768	; 0x8000
 8000a00:	f000 80a5 	beq.w	8000b4e <Get_CRLH_Position+0x15e>
 8000a04:	f5b3 4f00 	cmp.w	r3, #32768	; 0x8000
 8000a08:	f300 80a3 	bgt.w	8000b52 <Get_CRLH_Position+0x162>
 8000a0c:	f5b3 4f80 	cmp.w	r3, #16384	; 0x4000
 8000a10:	f000 809b 	beq.w	8000b4a <Get_CRLH_Position+0x15a>
 8000a14:	f5b3 4f80 	cmp.w	r3, #16384	; 0x4000
 8000a18:	f300 809b 	bgt.w	8000b52 <Get_CRLH_Position+0x162>
 8000a1c:	f5b3 5f00 	cmp.w	r3, #8192	; 0x2000
 8000a20:	f000 8091 	beq.w	8000b46 <Get_CRLH_Position+0x156>
 8000a24:	f5b3 5f00 	cmp.w	r3, #8192	; 0x2000
 8000a28:	f300 8093 	bgt.w	8000b52 <Get_CRLH_Position+0x162>
 8000a2c:	f5b3 5f80 	cmp.w	r3, #4096	; 0x1000
 8000a30:	f000 8087 	beq.w	8000b42 <Get_CRLH_Position+0x152>
 8000a34:	f5b3 5f80 	cmp.w	r3, #4096	; 0x1000
 8000a38:	f300 808b 	bgt.w	8000b52 <Get_CRLH_Position+0x162>
 8000a3c:	f5b3 6f00 	cmp.w	r3, #2048	; 0x800
 8000a40:	d07d      	beq.n	8000b3e <Get_CRLH_Position+0x14e>
 8000a42:	f5b3 6f00 	cmp.w	r3, #2048	; 0x800
 8000a46:	f300 8084 	bgt.w	8000b52 <Get_CRLH_Position+0x162>
 8000a4a:	f5b3 6f80 	cmp.w	r3, #1024	; 0x400
 8000a4e:	d074      	beq.n	8000b3a <Get_CRLH_Position+0x14a>
 8000a50:	f5b3 6f80 	cmp.w	r3, #1024	; 0x400
 8000a54:	dc7d      	bgt.n	8000b52 <Get_CRLH_Position+0x162>
 8000a56:	f5b3 7f00 	cmp.w	r3, #512	; 0x200
 8000a5a:	d06c      	beq.n	8000b36 <Get_CRLH_Position+0x146>
 8000a5c:	f5b3 7f00 	cmp.w	r3, #512	; 0x200
 8000a60:	dc77      	bgt.n	8000b52 <Get_CRLH_Position+0x162>
 8000a62:	f5b3 7f80 	cmp.w	r3, #256	; 0x100
 8000a66:	d064      	beq.n	8000b32 <Get_CRLH_Position+0x142>
 8000a68:	f5b3 7f80 	cmp.w	r3, #256	; 0x100
 8000a6c:	dc71      	bgt.n	8000b52 <Get_CRLH_Position+0x162>
 8000a6e:	2b80      	cmp	r3, #128	; 0x80
 8000a70:	d05d      	beq.n	8000b2e <Get_CRLH_Position+0x13e>
 8000a72:	2b80      	cmp	r3, #128	; 0x80
 8000a74:	dc6d      	bgt.n	8000b52 <Get_CRLH_Position+0x162>
 8000a76:	2b20      	cmp	r3, #32
 8000a78:	dc48      	bgt.n	8000b0c <Get_CRLH_Position+0x11c>
 8000a7a:	2b00      	cmp	r3, #0
 8000a7c:	dd69      	ble.n	8000b52 <Get_CRLH_Position+0x162>
 8000a7e:	3b01      	subs	r3, #1
 8000a80:	2b1f      	cmp	r3, #31
 8000a82:	d866      	bhi.n	8000b52 <Get_CRLH_Position+0x162>
 8000a84:	a201      	add	r2, pc, #4	; (adr r2, 8000a8c <Get_CRLH_Position+0x9c>)
 8000a86:	f852 f023 	ldr.w	pc, [r2, r3, lsl #2]
 8000a8a:	bf00      	nop
 8000a8c:	08000b13 	stmdaeq	r0, {r0, r1, r4, r8, r9, fp}
 8000a90:	08000b17 	stmdaeq	r0, {r0, r1, r2, r4, r8, r9, fp}
 8000a94:	08000b53 	stmdaeq	r0, {r0, r1, r4, r6, r8, r9, fp}
 8000a98:	08000b1b 	stmdaeq	r0, {r0, r1, r3, r4, r8, r9, fp}
 8000a9c:	08000b53 	stmdaeq	r0, {r0, r1, r4, r6, r8, r9, fp}
 8000aa0:	08000b53 	stmdaeq	r0, {r0, r1, r4, r6, r8, r9, fp}
 8000aa4:	08000b53 	stmdaeq	r0, {r0, r1, r4, r6, r8, r9, fp}
 8000aa8:	08000b1f 	stmdaeq	r0, {r0, r1, r2, r3, r4, r8, r9, fp}
 8000aac:	08000b53 	stmdaeq	r0, {r0, r1, r4, r6, r8, r9, fp}
 8000ab0:	08000b53 	stmdaeq	r0, {r0, r1, r4, r6, r8, r9, fp}
 8000ab4:	08000b53 	stmdaeq	r0, {r0, r1, r4, r6, r8, r9, fp}
 8000ab8:	08000b53 	stmdaeq	r0, {r0, r1, r4, r6, r8, r9, fp}
 8000abc:	08000b53 	stmdaeq	r0, {r0, r1, r4, r6, r8, r9, fp}
 8000ac0:	08000b53 	stmdaeq	r0, {r0, r1, r4, r6, r8, r9, fp}
 8000ac4:	08000b53 	stmdaeq	r0, {r0, r1, r4, r6, r8, r9, fp}
 8000ac8:	08000b23 	stmdaeq	r0, {r0, r1, r5, r8, r9, fp}
 8000acc:	08000b53 	stmdaeq	r0, {r0, r1, r4, r6, r8, r9, fp}
 8000ad0:	08000b53 	stmdaeq	r0, {r0, r1, r4, r6, r8, r9, fp}
 8000ad4:	08000b53 	stmdaeq	r0, {r0, r1, r4, r6, r8, r9, fp}
 8000ad8:	08000b53 	stmdaeq	r0, {r0, r1, r4, r6, r8, r9, fp}
 8000adc:	08000b53 	stmdaeq	r0, {r0, r1, r4, r6, r8, r9, fp}
 8000ae0:	08000b53 	stmdaeq	r0, {r0, r1, r4, r6, r8, r9, fp}
 8000ae4:	08000b53 	stmdaeq	r0, {r0, r1, r4, r6, r8, r9, fp}
 8000ae8:	08000b53 	stmdaeq	r0, {r0, r1, r4, r6, r8, r9, fp}
 8000aec:	08000b53 	stmdaeq	r0, {r0, r1, r4, r6, r8, r9, fp}
 8000af0:	08000b53 	stmdaeq	r0, {r0, r1, r4, r6, r8, r9, fp}
 8000af4:	08000b53 	stmdaeq	r0, {r0, r1, r4, r6, r8, r9, fp}
 8000af8:	08000b53 	stmdaeq	r0, {r0, r1, r4, r6, r8, r9, fp}
 8000afc:	08000b53 	stmdaeq	r0, {r0, r1, r4, r6, r8, r9, fp}
 8000b00:	08000b53 	stmdaeq	r0, {r0, r1, r4, r6, r8, r9, fp}
 8000b04:	08000b53 	stmdaeq	r0, {r0, r1, r4, r6, r8, r9, fp}
 8000b08:	08000b27 	stmdaeq	r0, {r0, r1, r2, r5, r8, r9, fp}
 8000b0c:	2b40      	cmp	r3, #64	; 0x40
 8000b0e:	d00c      	beq.n	8000b2a <Get_CRLH_Position+0x13a>
 8000b10:	e01f      	b.n	8000b52 <Get_CRLH_Position+0x162>
 8000b12:	2300      	movs	r3, #0
 8000b14:	e01e      	b.n	8000b54 <Get_CRLH_Position+0x164>
 8000b16:	2304      	movs	r3, #4
 8000b18:	e01c      	b.n	8000b54 <Get_CRLH_Position+0x164>
 8000b1a:	2308      	movs	r3, #8
 8000b1c:	e01a      	b.n	8000b54 <Get_CRLH_Position+0x164>
 8000b1e:	230c      	movs	r3, #12
 8000b20:	e018      	b.n	8000b54 <Get_CRLH_Position+0x164>
 8000b22:	2310      	movs	r3, #16
 8000b24:	e016      	b.n	8000b54 <Get_CRLH_Position+0x164>
 8000b26:	2314      	movs	r3, #20
 8000b28:	e014      	b.n	8000b54 <Get_CRLH_Position+0x164>
 8000b2a:	2318      	movs	r3, #24
 8000b2c:	e012      	b.n	8000b54 <Get_CRLH_Position+0x164>
 8000b2e:	231c      	movs	r3, #28
 8000b30:	e010      	b.n	8000b54 <Get_CRLH_Position+0x164>
 8000b32:	2300      	movs	r3, #0
 8000b34:	e00e      	b.n	8000b54 <Get_CRLH_Position+0x164>
 8000b36:	2304      	movs	r3, #4
 8000b38:	e00c      	b.n	8000b54 <Get_CRLH_Position+0x164>
 8000b3a:	2308      	movs	r3, #8
 8000b3c:	e00a      	b.n	8000b54 <Get_CRLH_Position+0x164>
 8000b3e:	230c      	movs	r3, #12
 8000b40:	e008      	b.n	8000b54 <Get_CRLH_Position+0x164>
 8000b42:	2310      	movs	r3, #16
 8000b44:	e006      	b.n	8000b54 <Get_CRLH_Position+0x164>
 8000b46:	2314      	movs	r3, #20
 8000b48:	e004      	b.n	8000b54 <Get_CRLH_Position+0x164>
 8000b4a:	2318      	movs	r3, #24
 8000b4c:	e002      	b.n	8000b54 <Get_CRLH_Position+0x164>
 8000b4e:	231c      	movs	r3, #28
 8000b50:	e000      	b.n	8000b54 <Get_CRLH_Position+0x164>
 8000b52:	2300      	movs	r3, #0
 8000b54:	4618      	mov	r0, r3
 8000b56:	370c      	adds	r7, #12
 8000b58:	46bd      	mov	sp, r7
 8000b5a:	bc80      	pop	{r7}
 8000b5c:	4770      	bx	lr
 8000b5e:	bf00      	nop

08000b60 <MCAL_GPIO_Init>:
 8000b60:	b590      	push	{r4, r7, lr}
 8000b62:	b085      	sub	sp, #20
 8000b64:	af00      	add	r7, sp, #0
 8000b66:	6078      	str	r0, [r7, #4]
 8000b68:	6039      	str	r1, [r7, #0]
 8000b6a:	2300      	movs	r3, #0
 8000b6c:	60bb      	str	r3, [r7, #8]
 8000b6e:	2300      	movs	r3, #0
 8000b70:	73fb      	strb	r3, [r7, #15]
 8000b72:	683b      	ldr	r3, [r7, #0]
 8000b74:	881b      	ldrh	r3, [r3, #0]
 8000b76:	2bff      	cmp	r3, #255	; 0xff
 8000b78:	d801      	bhi.n	8000b7e <MCAL_GPIO_Init+0x1e>
 8000b7a:	687b      	ldr	r3, [r7, #4]
 8000b7c:	e001      	b.n	8000b82 <MCAL_GPIO_Init+0x22>
 8000b7e:	687b      	ldr	r3, [r7, #4]
 8000b80:	3304      	adds	r3, #4
 8000b82:	60bb      	str	r3, [r7, #8]
 8000b84:	683b      	ldr	r3, [r7, #0]
 8000b86:	881b      	ldrh	r3, [r3, #0]
 8000b88:	4618      	mov	r0, r3
 8000b8a:	f7ff ff31 	bl	80009f0 <Get_CRLH_Position>
 8000b8e:	4603      	mov	r3, r0
 8000b90:	461a      	mov	r2, r3
 8000b92:	230f      	movs	r3, #15
 8000b94:	4093      	lsls	r3, r2
 8000b96:	43da      	mvns	r2, r3
 8000b98:	68bb      	ldr	r3, [r7, #8]
 8000b9a:	681b      	ldr	r3, [r3, #0]
 8000b9c:	401a      	ands	r2, r3
 8000b9e:	68bb      	ldr	r3, [r7, #8]
 8000ba0:	601a      	str	r2, [r3, #0]
 8000ba2:	683b      	ldr	r3, [r7, #0]
 8000ba4:	789b      	ldrb	r3, [r3, #2]
 8000ba6:	2b04      	cmp	r3, #4
 8000ba8:	d00b      	beq.n	8000bc2 <MCAL_GPIO_Init+0x62>
 8000baa:	683b      	ldr	r3, [r7, #0]
 8000bac:	789b      	ldrb	r3, [r3, #2]
 8000bae:	2b05      	cmp	r3, #5
 8000bb0:	d007      	beq.n	8000bc2 <MCAL_GPIO_Init+0x62>
 8000bb2:	683b      	ldr	r3, [r7, #0]
 8000bb4:	789b      	ldrb	r3, [r3, #2]
 8000bb6:	2b06      	cmp	r3, #6
 8000bb8:	d003      	beq.n	8000bc2 <MCAL_GPIO_Init+0x62>
 8000bba:	683b      	ldr	r3, [r7, #0]
 8000bbc:	789b      	ldrb	r3, [r3, #2]
 8000bbe:	2b07      	cmp	r3, #7
 8000bc0:	d10e      	bne.n	8000be0 <MCAL_GPIO_Init+0x80>
 8000bc2:	683b      	ldr	r3, [r7, #0]
 8000bc4:	789b      	ldrb	r3, [r3, #2]
 8000bc6:	3b04      	subs	r3, #4
 8000bc8:	009b      	lsls	r3, r3, #2
 8000bca:	b25a      	sxtb	r2, r3
 8000bcc:	683b      	ldr	r3, [r7, #0]
 8000bce:	78db      	ldrb	r3, [r3, #3]
 8000bd0:	b25b      	sxtb	r3, r3
 8000bd2:	f003 030f 	and.w	r3, r3, #15
 8000bd6:	b25b      	sxtb	r3, r3
 8000bd8:	4313      	orrs	r3, r2
 8000bda:	b25b      	sxtb	r3, r3
 8000bdc:	73fb      	strb	r3, [r7, #15]
 8000bde:	e029      	b.n	8000c34 <MCAL_GPIO_Init+0xd4>
 8000be0:	683b      	ldr	r3, [r7, #0]
 8000be2:	789b      	ldrb	r3, [r3, #2]
 8000be4:	2b00      	cmp	r3, #0
 8000be6:	d003      	beq.n	8000bf0 <MCAL_GPIO_Init+0x90>
 8000be8:	683b      	ldr	r3, [r7, #0]
 8000bea:	789b      	ldrb	r3, [r3, #2]
 8000bec:	2b01      	cmp	r3, #1
 8000bee:	d104      	bne.n	8000bfa <MCAL_GPIO_Init+0x9a>
 8000bf0:	683b      	ldr	r3, [r7, #0]
 8000bf2:	789b      	ldrb	r3, [r3, #2]
 8000bf4:	009b      	lsls	r3, r3, #2
 8000bf6:	73fb      	strb	r3, [r7, #15]
 8000bf8:	e01c      	b.n	8000c34 <MCAL_GPIO_Init+0xd4>
 8000bfa:	683b      	ldr	r3, [r7, #0]
 8000bfc:	789b      	ldrb	r3, [r3, #2]
 8000bfe:	2b08      	cmp	r3, #8
 8000c00:	d102      	bne.n	8000c08 <MCAL_GPIO_Init+0xa8>
 8000c02:	2304      	movs	r3, #4
 8000c04:	73fb      	strb	r3, [r7, #15]
 8000c06:	e015      	b.n	8000c34 <MCAL_GPIO_Init+0xd4>
 8000c08:	2308      	movs	r3, #8
 8000c0a:	73fb      	strb	r3, [r7, #15]
 8000c0c:	683b      	ldr	r3, [r7, #0]
 8000c0e:	789b      	ldrb	r3, [r3, #2]
 8000c10:	2b02      	cmp	r3, #2
 8000c12:	d107      	bne.n	8000c24 <MCAL_GPIO_Init+0xc4>
 8000c14:	687b      	ldr	r3, [r7, #4]
 8000c16:	68db      	ldr	r3, [r3, #12]
 8000c18:	683a      	ldr	r2, [r7, #0]
 8000c1a:	8812      	ldrh	r2, [r2, #0]
 8000c1c:	431a      	orrs	r2, r3
 8000c1e:	687b      	ldr	r3, [r7, #4]
 8000c20:	60da      	str	r2, [r3, #12]
 8000c22:	e007      	b.n	8000c34 <MCAL_GPIO_Init+0xd4>
 8000c24:	687b      	ldr	r3, [r7, #4]
 8000c26:	68db      	ldr	r3, [r3, #12]
 8000c28:	683a      	ldr	r2, [r7, #0]
 8000c2a:	8812      	ldrh	r2, [r2, #0]
 8000c2c:	43d2      	mvns	r2, r2
 8000c2e:	401a      	ands	r2, r3
 8000c30:	687b      	ldr	r3, [r7, #4]
 8000c32:	60da      	str	r2, [r3, #12]
 8000c34:	7bfc      	ldrb	r4, [r7, #15]
 8000c36:	683b      	ldr	r3, [r7, #0]
 8000c38:	881b      	ldrh	r3, [r3, #0]
 8000c3a:	4618      	mov	r0, r3
 8000c3c:	f7ff fed8 	bl	80009f0 <Get_CRLH_Position>
 8000c40:	4603      	mov	r3, r0
 8000c42:	fa04 f203 	lsl.w	r2, r4, r3
 8000c46:	68bb      	ldr	r3, [r7, #8]
 8000c48:	681b      	ldr	r3, [r3, #0]
 8000c4a:	431a      	orrs	r2, r3
 8000c4c:	68bb      	ldr	r3, [r7, #8]
 8000c4e:	601a      	str	r2, [r3, #0]
 8000c50:	bf00      	nop
 8000c52:	3714      	adds	r7, #20
 8000c54:	46bd      	mov	sp, r7
 8000c56:	bd90      	pop	{r4, r7, pc}

08000c58 <__libc_init_array>:
 8000c58:	b570      	push	{r4, r5, r6, lr}
 8000c5a:	2600      	movs	r6, #0
 8000c5c:	4d0c      	ldr	r5, [pc, #48]	; (8000c90 <__libc_init_array+0x38>)
 8000c5e:	4c0d      	ldr	r4, [pc, #52]	; (8000c94 <__libc_init_array+0x3c>)
 8000c60:	1b64      	subs	r4, r4, r5
 8000c62:	10a4      	asrs	r4, r4, #2
 8000c64:	42a6      	cmp	r6, r4
 8000c66:	d109      	bne.n	8000c7c <__libc_init_array+0x24>
 8000c68:	f000 f81a 	bl	8000ca0 <_init>
 8000c6c:	2600      	movs	r6, #0
 8000c6e:	4d0a      	ldr	r5, [pc, #40]	; (8000c98 <__libc_init_array+0x40>)
 8000c70:	4c0a      	ldr	r4, [pc, #40]	; (8000c9c <__libc_init_array+0x44>)
 8000c72:	1b64      	subs	r4, r4, r5
 8000c74:	10a4      	asrs	r4, r4, #2
 8000c76:	42a6      	cmp	r6, r4
 8000c78:	d105      	bne.n	8000c86 <__libc_init_array+0x2e>
 8000c7a:	bd70      	pop	{r4, r5, r6, pc}
 8000c7c:	f855 3b04 	ldr.w	r3, [r5], #4
 8000c80:	4798      	blx	r3
 8000c82:	3601      	adds	r6, #1
 8000c84:	e7ee      	b.n	8000c64 <__libc_init_array+0xc>
 8000c86:	f855 3b04 	ldr.w	r3, [r5], #4
 8000c8a:	4798      	blx	r3
 8000c8c:	3601      	adds	r6, #1
 8000c8e:	e7f2      	b.n	8000c76 <__libc_init_array+0x1e>
 8000c90:	08000cc4 	stmdaeq	r0, {r2, r6, r7, sl, fp}
 8000c94:	08000cc4 	stmdaeq	r0, {r2, r6, r7, sl, fp}
 8000c98:	08000cc4 	stmdaeq	r0, {r2, r6, r7, sl, fp}
 8000c9c:	08000cc8 	stmdaeq	r0, {r3, r6, r7, sl, fp}

08000ca0 <_init>:
 8000ca0:	b5f8      	push	{r3, r4, r5, r6, r7, lr}
 8000ca2:	bf00      	nop
 8000ca4:	bcf8      	pop	{r3, r4, r5, r6, r7}
 8000ca6:	bc08      	pop	{r3}
 8000ca8:	469e      	mov	lr, r3
 8000caa:	4770      	bx	lr

08000cac <_fini>:
 8000cac:	b5f8      	push	{r3, r4, r5, r6, r7, lr}
 8000cae:	bf00      	nop
 8000cb0:	bcf8      	pop	{r3, r4, r5, r6, r7}
 8000cb2:	bc08      	pop	{r3}
 8000cb4:	469e      	mov	lr, r3
 8000cb6:	4770      	bx	lr
