
Drivers.axf:     file format elf32-littlearm


Disassembly of section .isr_vector:

08000000 <g_pfnVectors>:
 8000000:	20002800 	andcs	r2, r0, r0, lsl #16
 8000004:	080001f1 	stmdaeq	r0, {r0, r4, r5, r6, r7, r8}
 8000008:	08000241 	stmdaeq	r0, {r0, r6, r9}
 800000c:	08000241 	stmdaeq	r0, {r0, r6, r9}
 8000010:	08000241 	stmdaeq	r0, {r0, r6, r9}
 8000014:	08000241 	stmdaeq	r0, {r0, r6, r9}
 8000018:	08000241 	stmdaeq	r0, {r0, r6, r9}
	...
 800002c:	08000241 	stmdaeq	r0, {r0, r6, r9}
 8000030:	08000241 	stmdaeq	r0, {r0, r6, r9}
 8000034:	00000000 	andeq	r0, r0, r0
 8000038:	08000241 	stmdaeq	r0, {r0, r6, r9}
 800003c:	08000241 	stmdaeq	r0, {r0, r6, r9}
 8000040:	08000241 	stmdaeq	r0, {r0, r6, r9}
 8000044:	08000241 	stmdaeq	r0, {r0, r6, r9}
 8000048:	08000241 	stmdaeq	r0, {r0, r6, r9}
 800004c:	08000241 	stmdaeq	r0, {r0, r6, r9}
 8000050:	08000241 	stmdaeq	r0, {r0, r6, r9}
 8000054:	08000241 	stmdaeq	r0, {r0, r6, r9}
 8000058:	080005bd 	stmdaeq	r0, {r0, r2, r3, r4, r5, r7, r8, sl}
 800005c:	080005e1 	stmdaeq	r0, {r0, r5, r6, r7, r8, sl}
 8000060:	08000605 	stmdaeq	r0, {r0, r2, r9, sl}
 8000064:	08000629 	stmdaeq	r0, {r0, r3, r5, r9, sl}
 8000068:	0800064d 	stmdaeq	r0, {r0, r2, r3, r6, r9, sl}
 800006c:	08000241 	stmdaeq	r0, {r0, r6, r9}
 8000070:	08000241 	stmdaeq	r0, {r0, r6, r9}
 8000074:	08000241 	stmdaeq	r0, {r0, r6, r9}
 8000078:	08000241 	stmdaeq	r0, {r0, r6, r9}
 800007c:	08000241 	stmdaeq	r0, {r0, r6, r9}
 8000080:	08000241 	stmdaeq	r0, {r0, r6, r9}
 8000084:	08000241 	stmdaeq	r0, {r0, r6, r9}
 8000088:	08000241 	stmdaeq	r0, {r0, r6, r9}
 800008c:	08000241 	stmdaeq	r0, {r0, r6, r9}
 8000090:	08000241 	stmdaeq	r0, {r0, r6, r9}
 8000094:	08000241 	stmdaeq	r0, {r0, r6, r9}
 8000098:	08000241 	stmdaeq	r0, {r0, r6, r9}
 800009c:	08000671 	stmdaeq	r0, {r0, r4, r5, r6, r9, sl}
 80000a0:	08000241 	stmdaeq	r0, {r0, r6, r9}
 80000a4:	08000241 	stmdaeq	r0, {r0, r6, r9}
 80000a8:	08000241 	stmdaeq	r0, {r0, r6, r9}
 80000ac:	08000241 	stmdaeq	r0, {r0, r6, r9}
 80000b0:	08000241 	stmdaeq	r0, {r0, r6, r9}
 80000b4:	08000241 	stmdaeq	r0, {r0, r6, r9}
 80000b8:	08000241 	stmdaeq	r0, {r0, r6, r9}
 80000bc:	08000241 	stmdaeq	r0, {r0, r6, r9}
 80000c0:	08000241 	stmdaeq	r0, {r0, r6, r9}
 80000c4:	08000241 	stmdaeq	r0, {r0, r6, r9}
 80000c8:	08000241 	stmdaeq	r0, {r0, r6, r9}
 80000cc:	08000241 	stmdaeq	r0, {r0, r6, r9}
 80000d0:	08000241 	stmdaeq	r0, {r0, r6, r9}
 80000d4:	08000241 	stmdaeq	r0, {r0, r6, r9}
 80000d8:	08000241 	stmdaeq	r0, {r0, r6, r9}
 80000dc:	08000241 	stmdaeq	r0, {r0, r6, r9}
 80000e0:	08000719 	stmdaeq	r0, {r0, r3, r4, r8, r9, sl}
 80000e4:	08000241 	stmdaeq	r0, {r0, r6, r9}
 80000e8:	00000000 	andeq	r0, r0, r0
 80000ec:	08000241 	stmdaeq	r0, {r0, r6, r9}
 80000f0:	08000241 	stmdaeq	r0, {r0, r6, r9}
 80000f4:	08000241 	stmdaeq	r0, {r0, r6, r9}
 80000f8:	08000241 	stmdaeq	r0, {r0, r6, r9}
 80000fc:	08000241 	stmdaeq	r0, {r0, r6, r9}
 8000100:	08000241 	stmdaeq	r0, {r0, r6, r9}
 8000104:	08000241 	stmdaeq	r0, {r0, r6, r9}
 8000108:	08000241 	stmdaeq	r0, {r0, r6, r9}
 800010c:	08000241 	stmdaeq	r0, {r0, r6, r9}
 8000110:	08000241 	stmdaeq	r0, {r0, r6, r9}
 8000114:	08000241 	stmdaeq	r0, {r0, r6, r9}
 8000118:	08000241 	stmdaeq	r0, {r0, r6, r9}
 800011c:	08000241 	stmdaeq	r0, {r0, r6, r9}
 8000120:	08000241 	stmdaeq	r0, {r0, r6, r9}
 8000124:	08000241 	stmdaeq	r0, {r0, r6, r9}
 8000128:	08000241 	stmdaeq	r0, {r0, r6, r9}
 800012c:	08000241 	stmdaeq	r0, {r0, r6, r9}

Disassembly of section .text:

08000130 <__do_global_dtors_aux>:
 8000130:	b510      	push	{r4, lr}
 8000132:	4c05      	ldr	r4, [pc, #20]	; (8000148 <__do_global_dtors_aux+0x18>)
 8000134:	7823      	ldrb	r3, [r4, #0]
 8000136:	b933      	cbnz	r3, 8000146 <__do_global_dtors_aux+0x16>
 8000138:	4b04      	ldr	r3, [pc, #16]	; (800014c <__do_global_dtors_aux+0x1c>)
 800013a:	b113      	cbz	r3, 8000142 <__do_global_dtors_aux+0x12>
 800013c:	4804      	ldr	r0, [pc, #16]	; (8000150 <__do_global_dtors_aux+0x20>)
 800013e:	f3af 8000 	nop.w
 8000142:	2301      	movs	r3, #1
 8000144:	7023      	strb	r3, [r4, #0]
 8000146:	bd10      	pop	{r4, pc}
 8000148:	20000000 	andcs	r0, r0, r0
 800014c:	00000000 	andeq	r0, r0, r0
 8000150:	08000a8c 	stmdaeq	r0, {r2, r3, r7, r9, fp}

08000154 <frame_dummy>:
 8000154:	b508      	push	{r3, lr}
 8000156:	4b03      	ldr	r3, [pc, #12]	; (8000164 <frame_dummy+0x10>)
 8000158:	b11b      	cbz	r3, 8000162 <frame_dummy+0xe>
 800015a:	4903      	ldr	r1, [pc, #12]	; (8000168 <frame_dummy+0x14>)
 800015c:	4803      	ldr	r0, [pc, #12]	; (800016c <frame_dummy+0x18>)
 800015e:	f3af 8000 	nop.w
 8000162:	bd08      	pop	{r3, pc}
 8000164:	00000000 	andeq	r0, r0, r0
 8000168:	20000004 	andcs	r0, r0, r4
 800016c:	08000a8c 	stmdaeq	r0, {r2, r3, r7, r9, fp}

08000170 <EXTI9_callBack>:
 8000170:	b480      	push	{r7}
 8000172:	af00      	add	r7, sp, #0
 8000174:	4b03      	ldr	r3, [pc, #12]	; (8000184 <EXTI9_callBack+0x14>)
 8000176:	2201      	movs	r2, #1
 8000178:	601a      	str	r2, [r3, #0]
 800017a:	bf00      	nop
 800017c:	46bd      	mov	sp, r7
 800017e:	bc80      	pop	{r7}
 8000180:	4770      	bx	lr
 8000182:	bf00      	nop
 8000184:	2000001c 	andcs	r0, r0, ip, lsl r0

08000188 <main>:
 8000188:	b580      	push	{r7, lr}
 800018a:	b088      	sub	sp, #32
 800018c:	af00      	add	r7, sp, #0
 800018e:	4b14      	ldr	r3, [pc, #80]	; (80001e0 <main+0x58>)
 8000190:	699b      	ldr	r3, [r3, #24]
 8000192:	4a13      	ldr	r2, [pc, #76]	; (80001e0 <main+0x58>)
 8000194:	f043 0308 	orr.w	r3, r3, #8
 8000198:	6193      	str	r3, [r2, #24]
 800019a:	4b11      	ldr	r3, [pc, #68]	; (80001e0 <main+0x58>)
 800019c:	699b      	ldr	r3, [r3, #24]
 800019e:	4a10      	ldr	r2, [pc, #64]	; (80001e0 <main+0x58>)
 80001a0:	f043 0301 	orr.w	r3, r3, #1
 80001a4:	6193      	str	r3, [r2, #24]
 80001a6:	4a0f      	ldr	r2, [pc, #60]	; (80001e4 <main+0x5c>)
 80001a8:	f107 030c 	add.w	r3, r7, #12
 80001ac:	ca07      	ldmia	r2, {r0, r1, r2}
 80001ae:	e883 0007 	stmia.w	r3, {r0, r1, r2}
 80001b2:	2300      	movs	r3, #0
 80001b4:	763b      	strb	r3, [r7, #24]
 80001b6:	4b0c      	ldr	r3, [pc, #48]	; (80001e8 <main+0x60>)
 80001b8:	61fb      	str	r3, [r7, #28]
 80001ba:	2301      	movs	r3, #1
 80001bc:	767b      	strb	r3, [r7, #25]
 80001be:	f107 030c 	add.w	r3, r7, #12
 80001c2:	4618      	mov	r0, r3
 80001c4:	f000 f9ee 	bl	80005a4 <Mcal_EXTI_GPIO_init>
 80001c8:	4b08      	ldr	r3, [pc, #32]	; (80001ec <main+0x64>)
 80001ca:	2201      	movs	r2, #1
 80001cc:	601a      	str	r2, [r3, #0]
 80001ce:	4b07      	ldr	r3, [pc, #28]	; (80001ec <main+0x64>)
 80001d0:	681b      	ldr	r3, [r3, #0]
 80001d2:	2b00      	cmp	r3, #0
 80001d4:	d0fb      	beq.n	80001ce <main+0x46>
 80001d6:	4b05      	ldr	r3, [pc, #20]	; (80001ec <main+0x64>)
 80001d8:	2200      	movs	r2, #0
 80001da:	601a      	str	r2, [r3, #0]
 80001dc:	e7f7      	b.n	80001ce <main+0x46>
 80001de:	bf00      	nop
 80001e0:	40021000 	andmi	r1, r2, r0
 80001e4:	08000aa4 	stmdaeq	r0, {r2, r5, r7, r9, fp}
 80001e8:	08000171 	stmdaeq	r0, {r0, r4, r5, r6, r8}
 80001ec:	2000001c 	andcs	r0, r0, ip, lsl r0

080001f0 <Reset_Handler>:
 80001f0:	480d      	ldr	r0, [pc, #52]	; (8000228 <LoopForever+0x2>)
 80001f2:	4685      	mov	sp, r0
 80001f4:	f3af 8000 	nop.w
 80001f8:	480c      	ldr	r0, [pc, #48]	; (800022c <LoopForever+0x6>)
 80001fa:	490d      	ldr	r1, [pc, #52]	; (8000230 <LoopForever+0xa>)
 80001fc:	4a0d      	ldr	r2, [pc, #52]	; (8000234 <LoopForever+0xe>)
 80001fe:	2300      	movs	r3, #0
 8000200:	e002      	b.n	8000208 <LoopCopyDataInit>

08000202 <CopyDataInit>:
 8000202:	58d4      	ldr	r4, [r2, r3]
 8000204:	50c4      	str	r4, [r0, r3]
 8000206:	3304      	adds	r3, #4

08000208 <LoopCopyDataInit>:
 8000208:	18c4      	adds	r4, r0, r3
 800020a:	428c      	cmp	r4, r1
 800020c:	d3f9      	bcc.n	8000202 <CopyDataInit>
 800020e:	4a0a      	ldr	r2, [pc, #40]	; (8000238 <LoopForever+0x12>)
 8000210:	4c0a      	ldr	r4, [pc, #40]	; (800023c <LoopForever+0x16>)
 8000212:	2300      	movs	r3, #0
 8000214:	e001      	b.n	800021a <LoopFillZerobss>

08000216 <FillZerobss>:
 8000216:	6013      	str	r3, [r2, #0]
 8000218:	3204      	adds	r2, #4

0800021a <LoopFillZerobss>:
 800021a:	42a2      	cmp	r2, r4
 800021c:	d3fb      	bcc.n	8000216 <FillZerobss>
 800021e:	f000 fc11 	bl	8000a44 <__libc_init_array>
 8000222:	f7ff ffb1 	bl	8000188 <main>

08000226 <LoopForever>:
 8000226:	e7fe      	b.n	8000226 <LoopForever>
 8000228:	20002800 	andcs	r2, r0, r0, lsl #16
 800022c:	20000000 	andcs	r0, r0, r0
 8000230:	20000000 	andcs	r0, r0, r0
 8000234:	08000ab8 	stmdaeq	r0, {r3, r4, r5, r7, r9, fp}
 8000238:	20000000 	andcs	r0, r0, r0
 800023c:	2000005c 	andcs	r0, r0, ip, asr r0

08000240 <ADC1_2_IRQHandler>:
 8000240:	e7fe      	b.n	8000240 <ADC1_2_IRQHandler>
	...

08000244 <Enable_NVIC>:
 8000244:	b480      	push	{r7}
 8000246:	b083      	sub	sp, #12
 8000248:	af00      	add	r7, sp, #0
 800024a:	4603      	mov	r3, r0
 800024c:	80fb      	strh	r3, [r7, #6]
 800024e:	88fb      	ldrh	r3, [r7, #6]
 8000250:	2b0e      	cmp	r3, #14
 8000252:	d852      	bhi.n	80002fa <Enable_NVIC+0xb6>
 8000254:	a201      	add	r2, pc, #4	; (adr r2, 800025c <Enable_NVIC+0x18>)
 8000256:	f852 f023 	ldr.w	pc, [r2, r3, lsl #2]
 800025a:	bf00      	nop
 800025c:	08000299 	stmdaeq	r0, {r0, r3, r4, r7, r9}
 8000260:	080002a7 	stmdaeq	r0, {r0, r1, r2, r5, r7, r9}
 8000264:	080002b5 	stmdaeq	r0, {r0, r2, r4, r5, r7, r9}
 8000268:	080002c3 	stmdaeq	r0, {r0, r1, r6, r7, r9}
 800026c:	080002d1 	stmdaeq	r0, {r0, r4, r6, r7, r9}
 8000270:	080002df 	stmdaeq	r0, {r0, r1, r2, r3, r4, r6, r7, r9}
 8000274:	080002df 	stmdaeq	r0, {r0, r1, r2, r3, r4, r6, r7, r9}
 8000278:	080002df 	stmdaeq	r0, {r0, r1, r2, r3, r4, r6, r7, r9}
 800027c:	080002df 	stmdaeq	r0, {r0, r1, r2, r3, r4, r6, r7, r9}
 8000280:	080002df 	stmdaeq	r0, {r0, r1, r2, r3, r4, r6, r7, r9}
 8000284:	080002ed 	stmdaeq	r0, {r0, r2, r3, r5, r6, r7, r9}
 8000288:	080002ed 	stmdaeq	r0, {r0, r2, r3, r5, r6, r7, r9}
 800028c:	080002ed 	stmdaeq	r0, {r0, r2, r3, r5, r6, r7, r9}
 8000290:	080002ed 	stmdaeq	r0, {r0, r2, r3, r5, r6, r7, r9}
 8000294:	080002ed 	stmdaeq	r0, {r0, r2, r3, r5, r6, r7, r9}
 8000298:	4b1a      	ldr	r3, [pc, #104]	; (8000304 <Enable_NVIC+0xc0>)
 800029a:	681b      	ldr	r3, [r3, #0]
 800029c:	4a19      	ldr	r2, [pc, #100]	; (8000304 <Enable_NVIC+0xc0>)
 800029e:	f043 0340 	orr.w	r3, r3, #64	; 0x40
 80002a2:	6013      	str	r3, [r2, #0]
 80002a4:	e029      	b.n	80002fa <Enable_NVIC+0xb6>
 80002a6:	4b17      	ldr	r3, [pc, #92]	; (8000304 <Enable_NVIC+0xc0>)
 80002a8:	681b      	ldr	r3, [r3, #0]
 80002aa:	4a16      	ldr	r2, [pc, #88]	; (8000304 <Enable_NVIC+0xc0>)
 80002ac:	f043 0380 	orr.w	r3, r3, #128	; 0x80
 80002b0:	6013      	str	r3, [r2, #0]
 80002b2:	e022      	b.n	80002fa <Enable_NVIC+0xb6>
 80002b4:	4b13      	ldr	r3, [pc, #76]	; (8000304 <Enable_NVIC+0xc0>)
 80002b6:	681b      	ldr	r3, [r3, #0]
 80002b8:	4a12      	ldr	r2, [pc, #72]	; (8000304 <Enable_NVIC+0xc0>)
 80002ba:	f443 7380 	orr.w	r3, r3, #256	; 0x100
 80002be:	6013      	str	r3, [r2, #0]
 80002c0:	e01b      	b.n	80002fa <Enable_NVIC+0xb6>
 80002c2:	4b10      	ldr	r3, [pc, #64]	; (8000304 <Enable_NVIC+0xc0>)
 80002c4:	681b      	ldr	r3, [r3, #0]
 80002c6:	4a0f      	ldr	r2, [pc, #60]	; (8000304 <Enable_NVIC+0xc0>)
 80002c8:	f443 7300 	orr.w	r3, r3, #512	; 0x200
 80002cc:	6013      	str	r3, [r2, #0]
 80002ce:	e014      	b.n	80002fa <Enable_NVIC+0xb6>
 80002d0:	4b0c      	ldr	r3, [pc, #48]	; (8000304 <Enable_NVIC+0xc0>)
 80002d2:	681b      	ldr	r3, [r3, #0]
 80002d4:	4a0b      	ldr	r2, [pc, #44]	; (8000304 <Enable_NVIC+0xc0>)
 80002d6:	f443 7300 	orr.w	r3, r3, #512	; 0x200
 80002da:	6013      	str	r3, [r2, #0]
 80002dc:	e00d      	b.n	80002fa <Enable_NVIC+0xb6>
 80002de:	4b09      	ldr	r3, [pc, #36]	; (8000304 <Enable_NVIC+0xc0>)
 80002e0:	681b      	ldr	r3, [r3, #0]
 80002e2:	4a08      	ldr	r2, [pc, #32]	; (8000304 <Enable_NVIC+0xc0>)
 80002e4:	f443 0300 	orr.w	r3, r3, #8388608	; 0x800000
 80002e8:	6013      	str	r3, [r2, #0]
 80002ea:	e006      	b.n	80002fa <Enable_NVIC+0xb6>
 80002ec:	4b06      	ldr	r3, [pc, #24]	; (8000308 <Enable_NVIC+0xc4>)
 80002ee:	681b      	ldr	r3, [r3, #0]
 80002f0:	4a05      	ldr	r2, [pc, #20]	; (8000308 <Enable_NVIC+0xc4>)
 80002f2:	f443 7380 	orr.w	r3, r3, #256	; 0x100
 80002f6:	6013      	str	r3, [r2, #0]
 80002f8:	bf00      	nop
 80002fa:	bf00      	nop
 80002fc:	370c      	adds	r7, #12
 80002fe:	46bd      	mov	sp, r7
 8000300:	bc80      	pop	{r7}
 8000302:	4770      	bx	lr
 8000304:	e000e100 	and	lr, r0, r0, lsl #2
 8000308:	e000e104 	and	lr, r0, r4, lsl #2

0800030c <Disable_NVIC>:
 800030c:	b480      	push	{r7}
 800030e:	b083      	sub	sp, #12
 8000310:	af00      	add	r7, sp, #0
 8000312:	4603      	mov	r3, r0
 8000314:	80fb      	strh	r3, [r7, #6]
 8000316:	88fb      	ldrh	r3, [r7, #6]
 8000318:	2b0e      	cmp	r3, #14
 800031a:	d852      	bhi.n	80003c2 <Disable_NVIC+0xb6>
 800031c:	a201      	add	r2, pc, #4	; (adr r2, 8000324 <Disable_NVIC+0x18>)
 800031e:	f852 f023 	ldr.w	pc, [r2, r3, lsl #2]
 8000322:	bf00      	nop
 8000324:	08000361 	stmdaeq	r0, {r0, r5, r6, r8, r9}
 8000328:	0800036f 	stmdaeq	r0, {r0, r1, r2, r3, r5, r6, r8, r9}
 800032c:	0800037d 	stmdaeq	r0, {r0, r2, r3, r4, r5, r6, r8, r9}
 8000330:	0800038b 	stmdaeq	r0, {r0, r1, r3, r7, r8, r9}
 8000334:	08000399 	stmdaeq	r0, {r0, r3, r4, r7, r8, r9}
 8000338:	080003a7 	stmdaeq	r0, {r0, r1, r2, r5, r7, r8, r9}
 800033c:	080003a7 	stmdaeq	r0, {r0, r1, r2, r5, r7, r8, r9}
 8000340:	080003a7 	stmdaeq	r0, {r0, r1, r2, r5, r7, r8, r9}
 8000344:	080003a7 	stmdaeq	r0, {r0, r1, r2, r5, r7, r8, r9}
 8000348:	080003a7 	stmdaeq	r0, {r0, r1, r2, r5, r7, r8, r9}
 800034c:	080003b5 	stmdaeq	r0, {r0, r2, r4, r5, r7, r8, r9}
 8000350:	080003b5 	stmdaeq	r0, {r0, r2, r4, r5, r7, r8, r9}
 8000354:	080003b5 	stmdaeq	r0, {r0, r2, r4, r5, r7, r8, r9}
 8000358:	080003b5 	stmdaeq	r0, {r0, r2, r4, r5, r7, r8, r9}
 800035c:	080003b5 	stmdaeq	r0, {r0, r2, r4, r5, r7, r8, r9}
 8000360:	4b1a      	ldr	r3, [pc, #104]	; (80003cc <Disable_NVIC+0xc0>)
 8000362:	681b      	ldr	r3, [r3, #0]
 8000364:	4a19      	ldr	r2, [pc, #100]	; (80003cc <Disable_NVIC+0xc0>)
 8000366:	f043 0340 	orr.w	r3, r3, #64	; 0x40
 800036a:	6013      	str	r3, [r2, #0]
 800036c:	e029      	b.n	80003c2 <Disable_NVIC+0xb6>
 800036e:	4b17      	ldr	r3, [pc, #92]	; (80003cc <Disable_NVIC+0xc0>)
 8000370:	681b      	ldr	r3, [r3, #0]
 8000372:	4a16      	ldr	r2, [pc, #88]	; (80003cc <Disable_NVIC+0xc0>)
 8000374:	f043 0380 	orr.w	r3, r3, #128	; 0x80
 8000378:	6013      	str	r3, [r2, #0]
 800037a:	e022      	b.n	80003c2 <Disable_NVIC+0xb6>
 800037c:	4b13      	ldr	r3, [pc, #76]	; (80003cc <Disable_NVIC+0xc0>)
 800037e:	681b      	ldr	r3, [r3, #0]
 8000380:	4a12      	ldr	r2, [pc, #72]	; (80003cc <Disable_NVIC+0xc0>)
 8000382:	f443 7380 	orr.w	r3, r3, #256	; 0x100
 8000386:	6013      	str	r3, [r2, #0]
 8000388:	e01b      	b.n	80003c2 <Disable_NVIC+0xb6>
 800038a:	4b10      	ldr	r3, [pc, #64]	; (80003cc <Disable_NVIC+0xc0>)
 800038c:	681b      	ldr	r3, [r3, #0]
 800038e:	4a0f      	ldr	r2, [pc, #60]	; (80003cc <Disable_NVIC+0xc0>)
 8000390:	f443 7300 	orr.w	r3, r3, #512	; 0x200
 8000394:	6013      	str	r3, [r2, #0]
 8000396:	e014      	b.n	80003c2 <Disable_NVIC+0xb6>
 8000398:	4b0c      	ldr	r3, [pc, #48]	; (80003cc <Disable_NVIC+0xc0>)
 800039a:	681b      	ldr	r3, [r3, #0]
 800039c:	4a0b      	ldr	r2, [pc, #44]	; (80003cc <Disable_NVIC+0xc0>)
 800039e:	f443 7300 	orr.w	r3, r3, #512	; 0x200
 80003a2:	6013      	str	r3, [r2, #0]
 80003a4:	e00d      	b.n	80003c2 <Disable_NVIC+0xb6>
 80003a6:	4b09      	ldr	r3, [pc, #36]	; (80003cc <Disable_NVIC+0xc0>)
 80003a8:	681b      	ldr	r3, [r3, #0]
 80003aa:	4a08      	ldr	r2, [pc, #32]	; (80003cc <Disable_NVIC+0xc0>)
 80003ac:	f443 0300 	orr.w	r3, r3, #8388608	; 0x800000
 80003b0:	6013      	str	r3, [r2, #0]
 80003b2:	e006      	b.n	80003c2 <Disable_NVIC+0xb6>
 80003b4:	4b06      	ldr	r3, [pc, #24]	; (80003d0 <Disable_NVIC+0xc4>)
 80003b6:	681b      	ldr	r3, [r3, #0]
 80003b8:	4a05      	ldr	r2, [pc, #20]	; (80003d0 <Disable_NVIC+0xc4>)
 80003ba:	f443 7380 	orr.w	r3, r3, #256	; 0x100
 80003be:	6013      	str	r3, [r2, #0]
 80003c0:	bf00      	nop
 80003c2:	bf00      	nop
 80003c4:	370c      	adds	r7, #12
 80003c6:	46bd      	mov	sp, r7
 80003c8:	bc80      	pop	{r7}
 80003ca:	4770      	bx	lr
 80003cc:	e000e180 	and	lr, r0, r0, lsl #3
 80003d0:	e000e184 	and	lr, r0, r4, lsl #3

080003d4 <update_EXTI>:
 80003d4:	b580      	push	{r7, lr}
 80003d6:	b084      	sub	sp, #16
 80003d8:	af00      	add	r7, sp, #0
 80003da:	6078      	str	r0, [r7, #4]
 80003dc:	687b      	ldr	r3, [r7, #4]
 80003de:	891b      	ldrh	r3, [r3, #8]
 80003e0:	813b      	strh	r3, [r7, #8]
 80003e2:	2301      	movs	r3, #1
 80003e4:	72bb      	strb	r3, [r7, #10]
 80003e6:	687b      	ldr	r3, [r7, #4]
 80003e8:	685b      	ldr	r3, [r3, #4]
 80003ea:	f107 0208 	add.w	r2, r7, #8
 80003ee:	4611      	mov	r1, r2
 80003f0:	4618      	mov	r0, r3
 80003f2:	f000 faab 	bl	800094c <MCAL_GPIO_Init>
 80003f6:	687b      	ldr	r3, [r7, #4]
 80003f8:	881b      	ldrh	r3, [r3, #0]
 80003fa:	089b      	lsrs	r3, r3, #2
 80003fc:	b29b      	uxth	r3, r3
 80003fe:	73fb      	strb	r3, [r7, #15]
 8000400:	687b      	ldr	r3, [r7, #4]
 8000402:	881b      	ldrh	r3, [r3, #0]
 8000404:	b2db      	uxtb	r3, r3
 8000406:	f003 0303 	and.w	r3, r3, #3
 800040a:	b2db      	uxtb	r3, r3
 800040c:	009b      	lsls	r3, r3, #2
 800040e:	73bb      	strb	r3, [r7, #14]
 8000410:	4a5d      	ldr	r2, [pc, #372]	; (8000588 <update_EXTI+0x1b4>)
 8000412:	7bfb      	ldrb	r3, [r7, #15]
 8000414:	3302      	adds	r3, #2
 8000416:	f852 2023 	ldr.w	r2, [r2, r3, lsl #2]
 800041a:	7bbb      	ldrb	r3, [r7, #14]
 800041c:	210f      	movs	r1, #15
 800041e:	fa01 f303 	lsl.w	r3, r1, r3
 8000422:	43db      	mvns	r3, r3
 8000424:	4618      	mov	r0, r3
 8000426:	4958      	ldr	r1, [pc, #352]	; (8000588 <update_EXTI+0x1b4>)
 8000428:	7bfb      	ldrb	r3, [r7, #15]
 800042a:	4002      	ands	r2, r0
 800042c:	3302      	adds	r3, #2
 800042e:	f841 2023 	str.w	r2, [r1, r3, lsl #2]
 8000432:	4a55      	ldr	r2, [pc, #340]	; (8000588 <update_EXTI+0x1b4>)
 8000434:	7bfb      	ldrb	r3, [r7, #15]
 8000436:	3302      	adds	r3, #2
 8000438:	f852 2023 	ldr.w	r2, [r2, r3, lsl #2]
 800043c:	687b      	ldr	r3, [r7, #4]
 800043e:	685b      	ldr	r3, [r3, #4]
 8000440:	4952      	ldr	r1, [pc, #328]	; (800058c <update_EXTI+0x1b8>)
 8000442:	428b      	cmp	r3, r1
 8000444:	d016      	beq.n	8000474 <update_EXTI+0xa0>
 8000446:	687b      	ldr	r3, [r7, #4]
 8000448:	685b      	ldr	r3, [r3, #4]
 800044a:	4951      	ldr	r1, [pc, #324]	; (8000590 <update_EXTI+0x1bc>)
 800044c:	428b      	cmp	r3, r1
 800044e:	d00f      	beq.n	8000470 <update_EXTI+0x9c>
 8000450:	687b      	ldr	r3, [r7, #4]
 8000452:	685b      	ldr	r3, [r3, #4]
 8000454:	494f      	ldr	r1, [pc, #316]	; (8000594 <update_EXTI+0x1c0>)
 8000456:	428b      	cmp	r3, r1
 8000458:	d008      	beq.n	800046c <update_EXTI+0x98>
 800045a:	687b      	ldr	r3, [r7, #4]
 800045c:	685b      	ldr	r3, [r3, #4]
 800045e:	494e      	ldr	r1, [pc, #312]	; (8000598 <update_EXTI+0x1c4>)
 8000460:	428b      	cmp	r3, r1
 8000462:	d101      	bne.n	8000468 <update_EXTI+0x94>
 8000464:	2303      	movs	r3, #3
 8000466:	e006      	b.n	8000476 <update_EXTI+0xa2>
 8000468:	2300      	movs	r3, #0
 800046a:	e004      	b.n	8000476 <update_EXTI+0xa2>
 800046c:	2302      	movs	r3, #2
 800046e:	e002      	b.n	8000476 <update_EXTI+0xa2>
 8000470:	2301      	movs	r3, #1
 8000472:	e000      	b.n	8000476 <update_EXTI+0xa2>
 8000474:	2300      	movs	r3, #0
 8000476:	7bb9      	ldrb	r1, [r7, #14]
 8000478:	408b      	lsls	r3, r1
 800047a:	4618      	mov	r0, r3
 800047c:	4942      	ldr	r1, [pc, #264]	; (8000588 <update_EXTI+0x1b4>)
 800047e:	7bfb      	ldrb	r3, [r7, #15]
 8000480:	4302      	orrs	r2, r0
 8000482:	3302      	adds	r3, #2
 8000484:	f841 2023 	str.w	r2, [r1, r3, lsl #2]
 8000488:	4b44      	ldr	r3, [pc, #272]	; (800059c <update_EXTI+0x1c8>)
 800048a:	689b      	ldr	r3, [r3, #8]
 800048c:	687a      	ldr	r2, [r7, #4]
 800048e:	8812      	ldrh	r2, [r2, #0]
 8000490:	4611      	mov	r1, r2
 8000492:	2201      	movs	r2, #1
 8000494:	408a      	lsls	r2, r1
 8000496:	43d2      	mvns	r2, r2
 8000498:	4611      	mov	r1, r2
 800049a:	4a40      	ldr	r2, [pc, #256]	; (800059c <update_EXTI+0x1c8>)
 800049c:	400b      	ands	r3, r1
 800049e:	6093      	str	r3, [r2, #8]
 80004a0:	4b3e      	ldr	r3, [pc, #248]	; (800059c <update_EXTI+0x1c8>)
 80004a2:	68db      	ldr	r3, [r3, #12]
 80004a4:	687a      	ldr	r2, [r7, #4]
 80004a6:	8812      	ldrh	r2, [r2, #0]
 80004a8:	4611      	mov	r1, r2
 80004aa:	2201      	movs	r2, #1
 80004ac:	408a      	lsls	r2, r1
 80004ae:	43d2      	mvns	r2, r2
 80004b0:	4611      	mov	r1, r2
 80004b2:	4a3a      	ldr	r2, [pc, #232]	; (800059c <update_EXTI+0x1c8>)
 80004b4:	400b      	ands	r3, r1
 80004b6:	60d3      	str	r3, [r2, #12]
 80004b8:	687b      	ldr	r3, [r7, #4]
 80004ba:	7b1b      	ldrb	r3, [r3, #12]
 80004bc:	2b00      	cmp	r3, #0
 80004be:	d10b      	bne.n	80004d8 <update_EXTI+0x104>
 80004c0:	4b36      	ldr	r3, [pc, #216]	; (800059c <update_EXTI+0x1c8>)
 80004c2:	689b      	ldr	r3, [r3, #8]
 80004c4:	687a      	ldr	r2, [r7, #4]
 80004c6:	8812      	ldrh	r2, [r2, #0]
 80004c8:	4611      	mov	r1, r2
 80004ca:	2201      	movs	r2, #1
 80004cc:	408a      	lsls	r2, r1
 80004ce:	4611      	mov	r1, r2
 80004d0:	4a32      	ldr	r2, [pc, #200]	; (800059c <update_EXTI+0x1c8>)
 80004d2:	430b      	orrs	r3, r1
 80004d4:	6093      	str	r3, [r2, #8]
 80004d6:	e025      	b.n	8000524 <update_EXTI+0x150>
 80004d8:	687b      	ldr	r3, [r7, #4]
 80004da:	7b1b      	ldrb	r3, [r3, #12]
 80004dc:	2b01      	cmp	r3, #1
 80004de:	d10b      	bne.n	80004f8 <update_EXTI+0x124>
 80004e0:	4b2e      	ldr	r3, [pc, #184]	; (800059c <update_EXTI+0x1c8>)
 80004e2:	68db      	ldr	r3, [r3, #12]
 80004e4:	687a      	ldr	r2, [r7, #4]
 80004e6:	8812      	ldrh	r2, [r2, #0]
 80004e8:	4611      	mov	r1, r2
 80004ea:	2201      	movs	r2, #1
 80004ec:	408a      	lsls	r2, r1
 80004ee:	4611      	mov	r1, r2
 80004f0:	4a2a      	ldr	r2, [pc, #168]	; (800059c <update_EXTI+0x1c8>)
 80004f2:	430b      	orrs	r3, r1
 80004f4:	60d3      	str	r3, [r2, #12]
 80004f6:	e015      	b.n	8000524 <update_EXTI+0x150>
 80004f8:	4b28      	ldr	r3, [pc, #160]	; (800059c <update_EXTI+0x1c8>)
 80004fa:	689b      	ldr	r3, [r3, #8]
 80004fc:	687a      	ldr	r2, [r7, #4]
 80004fe:	8812      	ldrh	r2, [r2, #0]
 8000500:	4611      	mov	r1, r2
 8000502:	2201      	movs	r2, #1
 8000504:	408a      	lsls	r2, r1
 8000506:	4611      	mov	r1, r2
 8000508:	4a24      	ldr	r2, [pc, #144]	; (800059c <update_EXTI+0x1c8>)
 800050a:	430b      	orrs	r3, r1
 800050c:	6093      	str	r3, [r2, #8]
 800050e:	4b23      	ldr	r3, [pc, #140]	; (800059c <update_EXTI+0x1c8>)
 8000510:	68db      	ldr	r3, [r3, #12]
 8000512:	687a      	ldr	r2, [r7, #4]
 8000514:	8812      	ldrh	r2, [r2, #0]
 8000516:	4611      	mov	r1, r2
 8000518:	2201      	movs	r2, #1
 800051a:	408a      	lsls	r2, r1
 800051c:	4611      	mov	r1, r2
 800051e:	4a1f      	ldr	r2, [pc, #124]	; (800059c <update_EXTI+0x1c8>)
 8000520:	430b      	orrs	r3, r1
 8000522:	60d3      	str	r3, [r2, #12]
 8000524:	687b      	ldr	r3, [r7, #4]
 8000526:	881b      	ldrh	r3, [r3, #0]
 8000528:	4619      	mov	r1, r3
 800052a:	687b      	ldr	r3, [r7, #4]
 800052c:	691b      	ldr	r3, [r3, #16]
 800052e:	4a1c      	ldr	r2, [pc, #112]	; (80005a0 <update_EXTI+0x1cc>)
 8000530:	f842 3021 	str.w	r3, [r2, r1, lsl #2]
 8000534:	687b      	ldr	r3, [r7, #4]
 8000536:	7b5b      	ldrb	r3, [r3, #13]
 8000538:	2b01      	cmp	r3, #1
 800053a:	d110      	bne.n	800055e <update_EXTI+0x18a>
 800053c:	4b17      	ldr	r3, [pc, #92]	; (800059c <update_EXTI+0x1c8>)
 800053e:	681b      	ldr	r3, [r3, #0]
 8000540:	687a      	ldr	r2, [r7, #4]
 8000542:	8812      	ldrh	r2, [r2, #0]
 8000544:	4611      	mov	r1, r2
 8000546:	2201      	movs	r2, #1
 8000548:	408a      	lsls	r2, r1
 800054a:	4611      	mov	r1, r2
 800054c:	4a13      	ldr	r2, [pc, #76]	; (800059c <update_EXTI+0x1c8>)
 800054e:	430b      	orrs	r3, r1
 8000550:	6013      	str	r3, [r2, #0]
 8000552:	687b      	ldr	r3, [r7, #4]
 8000554:	881b      	ldrh	r3, [r3, #0]
 8000556:	4618      	mov	r0, r3
 8000558:	f7ff fe74 	bl	8000244 <Enable_NVIC>
 800055c:	e010      	b.n	8000580 <update_EXTI+0x1ac>
 800055e:	4b0f      	ldr	r3, [pc, #60]	; (800059c <update_EXTI+0x1c8>)
 8000560:	681b      	ldr	r3, [r3, #0]
 8000562:	687a      	ldr	r2, [r7, #4]
 8000564:	8812      	ldrh	r2, [r2, #0]
 8000566:	4611      	mov	r1, r2
 8000568:	2201      	movs	r2, #1
 800056a:	408a      	lsls	r2, r1
 800056c:	43d2      	mvns	r2, r2
 800056e:	4611      	mov	r1, r2
 8000570:	4a0a      	ldr	r2, [pc, #40]	; (800059c <update_EXTI+0x1c8>)
 8000572:	400b      	ands	r3, r1
 8000574:	6013      	str	r3, [r2, #0]
 8000576:	687b      	ldr	r3, [r7, #4]
 8000578:	881b      	ldrh	r3, [r3, #0]
 800057a:	4618      	mov	r0, r3
 800057c:	f7ff fec6 	bl	800030c <Disable_NVIC>
 8000580:	bf00      	nop
 8000582:	3710      	adds	r7, #16
 8000584:	46bd      	mov	sp, r7
 8000586:	bd80      	pop	{r7, pc}
 8000588:	40010000 	andmi	r0, r1, r0
 800058c:	40010800 	andmi	r0, r1, r0, lsl #16
 8000590:	40010c00 	andmi	r0, r1, r0, lsl #24
 8000594:	40011000 	andmi	r1, r1, r0
 8000598:	40011400 	andmi	r1, r1, r0, lsl #8
 800059c:	40010400 	andmi	r0, r1, r0, lsl #8
 80005a0:	20000020 	andcs	r0, r0, r0, lsr #32

080005a4 <Mcal_EXTI_GPIO_init>:
 80005a4:	b580      	push	{r7, lr}
 80005a6:	b082      	sub	sp, #8
 80005a8:	af00      	add	r7, sp, #0
 80005aa:	6078      	str	r0, [r7, #4]
 80005ac:	6878      	ldr	r0, [r7, #4]
 80005ae:	f7ff ff11 	bl	80003d4 <update_EXTI>
 80005b2:	bf00      	nop
 80005b4:	3708      	adds	r7, #8
 80005b6:	46bd      	mov	sp, r7
 80005b8:	bd80      	pop	{r7, pc}
	...

080005bc <EXTI0_IRQHandler>:
 80005bc:	b580      	push	{r7, lr}
 80005be:	af00      	add	r7, sp, #0
 80005c0:	4b05      	ldr	r3, [pc, #20]	; (80005d8 <EXTI0_IRQHandler+0x1c>)
 80005c2:	695b      	ldr	r3, [r3, #20]
 80005c4:	4a04      	ldr	r2, [pc, #16]	; (80005d8 <EXTI0_IRQHandler+0x1c>)
 80005c6:	f043 0301 	orr.w	r3, r3, #1
 80005ca:	6153      	str	r3, [r2, #20]
 80005cc:	4b03      	ldr	r3, [pc, #12]	; (80005dc <EXTI0_IRQHandler+0x20>)
 80005ce:	681b      	ldr	r3, [r3, #0]
 80005d0:	4798      	blx	r3
 80005d2:	bf00      	nop
 80005d4:	bd80      	pop	{r7, pc}
 80005d6:	bf00      	nop
 80005d8:	40010400 	andmi	r0, r1, r0, lsl #8
 80005dc:	20000020 	andcs	r0, r0, r0, lsr #32

080005e0 <EXTI1_IRQHandler>:
 80005e0:	b580      	push	{r7, lr}
 80005e2:	af00      	add	r7, sp, #0
 80005e4:	4b05      	ldr	r3, [pc, #20]	; (80005fc <EXTI1_IRQHandler+0x1c>)
 80005e6:	695b      	ldr	r3, [r3, #20]
 80005e8:	4a04      	ldr	r2, [pc, #16]	; (80005fc <EXTI1_IRQHandler+0x1c>)
 80005ea:	f043 0302 	orr.w	r3, r3, #2
 80005ee:	6153      	str	r3, [r2, #20]
 80005f0:	4b03      	ldr	r3, [pc, #12]	; (8000600 <EXTI1_IRQHandler+0x20>)
 80005f2:	685b      	ldr	r3, [r3, #4]
 80005f4:	4798      	blx	r3
 80005f6:	bf00      	nop
 80005f8:	bd80      	pop	{r7, pc}
 80005fa:	bf00      	nop
 80005fc:	40010400 	andmi	r0, r1, r0, lsl #8
 8000600:	20000020 	andcs	r0, r0, r0, lsr #32

08000604 <EXTI2_IRQHandler>:
 8000604:	b580      	push	{r7, lr}
 8000606:	af00      	add	r7, sp, #0
 8000608:	4b05      	ldr	r3, [pc, #20]	; (8000620 <EXTI2_IRQHandler+0x1c>)
 800060a:	695b      	ldr	r3, [r3, #20]
 800060c:	4a04      	ldr	r2, [pc, #16]	; (8000620 <EXTI2_IRQHandler+0x1c>)
 800060e:	f043 0304 	orr.w	r3, r3, #4
 8000612:	6153      	str	r3, [r2, #20]
 8000614:	4b03      	ldr	r3, [pc, #12]	; (8000624 <EXTI2_IRQHandler+0x20>)
 8000616:	689b      	ldr	r3, [r3, #8]
 8000618:	4798      	blx	r3
 800061a:	bf00      	nop
 800061c:	bd80      	pop	{r7, pc}
 800061e:	bf00      	nop
 8000620:	40010400 	andmi	r0, r1, r0, lsl #8
 8000624:	20000020 	andcs	r0, r0, r0, lsr #32

08000628 <EXTI3_IRQHandler>:
 8000628:	b580      	push	{r7, lr}
 800062a:	af00      	add	r7, sp, #0
 800062c:	4b05      	ldr	r3, [pc, #20]	; (8000644 <EXTI3_IRQHandler+0x1c>)
 800062e:	695b      	ldr	r3, [r3, #20]
 8000630:	4a04      	ldr	r2, [pc, #16]	; (8000644 <EXTI3_IRQHandler+0x1c>)
 8000632:	f043 0308 	orr.w	r3, r3, #8
 8000636:	6153      	str	r3, [r2, #20]
 8000638:	4b03      	ldr	r3, [pc, #12]	; (8000648 <EXTI3_IRQHandler+0x20>)
 800063a:	68db      	ldr	r3, [r3, #12]
 800063c:	4798      	blx	r3
 800063e:	bf00      	nop
 8000640:	bd80      	pop	{r7, pc}
 8000642:	bf00      	nop
 8000644:	40010400 	andmi	r0, r1, r0, lsl #8
 8000648:	20000020 	andcs	r0, r0, r0, lsr #32

0800064c <EXTI4_IRQHandler>:
 800064c:	b580      	push	{r7, lr}
 800064e:	af00      	add	r7, sp, #0
 8000650:	4b05      	ldr	r3, [pc, #20]	; (8000668 <EXTI4_IRQHandler+0x1c>)
 8000652:	695b      	ldr	r3, [r3, #20]
 8000654:	4a04      	ldr	r2, [pc, #16]	; (8000668 <EXTI4_IRQHandler+0x1c>)
 8000656:	f043 0310 	orr.w	r3, r3, #16
 800065a:	6153      	str	r3, [r2, #20]
 800065c:	4b03      	ldr	r3, [pc, #12]	; (800066c <EXTI4_IRQHandler+0x20>)
 800065e:	691b      	ldr	r3, [r3, #16]
 8000660:	4798      	blx	r3
 8000662:	bf00      	nop
 8000664:	bd80      	pop	{r7, pc}
 8000666:	bf00      	nop
 8000668:	40010400 	andmi	r0, r1, r0, lsl #8
 800066c:	20000020 	andcs	r0, r0, r0, lsr #32

08000670 <EXTI9_5_IRQHandler>:
 8000670:	b580      	push	{r7, lr}
 8000672:	af00      	add	r7, sp, #0
 8000674:	4b26      	ldr	r3, [pc, #152]	; (8000710 <EXTI9_5_IRQHandler+0xa0>)
 8000676:	695b      	ldr	r3, [r3, #20]
 8000678:	f003 0320 	and.w	r3, r3, #32
 800067c:	2b00      	cmp	r3, #0
 800067e:	d008      	beq.n	8000692 <EXTI9_5_IRQHandler+0x22>
 8000680:	4b23      	ldr	r3, [pc, #140]	; (8000710 <EXTI9_5_IRQHandler+0xa0>)
 8000682:	695b      	ldr	r3, [r3, #20]
 8000684:	4a22      	ldr	r2, [pc, #136]	; (8000710 <EXTI9_5_IRQHandler+0xa0>)
 8000686:	f043 0320 	orr.w	r3, r3, #32
 800068a:	6153      	str	r3, [r2, #20]
 800068c:	4b21      	ldr	r3, [pc, #132]	; (8000714 <EXTI9_5_IRQHandler+0xa4>)
 800068e:	695b      	ldr	r3, [r3, #20]
 8000690:	4798      	blx	r3
 8000692:	4b1f      	ldr	r3, [pc, #124]	; (8000710 <EXTI9_5_IRQHandler+0xa0>)
 8000694:	695b      	ldr	r3, [r3, #20]
 8000696:	f003 0340 	and.w	r3, r3, #64	; 0x40
 800069a:	2b00      	cmp	r3, #0
 800069c:	d008      	beq.n	80006b0 <EXTI9_5_IRQHandler+0x40>
 800069e:	4b1c      	ldr	r3, [pc, #112]	; (8000710 <EXTI9_5_IRQHandler+0xa0>)
 80006a0:	695b      	ldr	r3, [r3, #20]
 80006a2:	4a1b      	ldr	r2, [pc, #108]	; (8000710 <EXTI9_5_IRQHandler+0xa0>)
 80006a4:	f043 0340 	orr.w	r3, r3, #64	; 0x40
 80006a8:	6153      	str	r3, [r2, #20]
 80006aa:	4b1a      	ldr	r3, [pc, #104]	; (8000714 <EXTI9_5_IRQHandler+0xa4>)
 80006ac:	699b      	ldr	r3, [r3, #24]
 80006ae:	4798      	blx	r3
 80006b0:	4b17      	ldr	r3, [pc, #92]	; (8000710 <EXTI9_5_IRQHandler+0xa0>)
 80006b2:	695b      	ldr	r3, [r3, #20]
 80006b4:	f003 0380 	and.w	r3, r3, #128	; 0x80
 80006b8:	2b00      	cmp	r3, #0
 80006ba:	d008      	beq.n	80006ce <EXTI9_5_IRQHandler+0x5e>
 80006bc:	4b14      	ldr	r3, [pc, #80]	; (8000710 <EXTI9_5_IRQHandler+0xa0>)
 80006be:	695b      	ldr	r3, [r3, #20]
 80006c0:	4a13      	ldr	r2, [pc, #76]	; (8000710 <EXTI9_5_IRQHandler+0xa0>)
 80006c2:	f043 0380 	orr.w	r3, r3, #128	; 0x80
 80006c6:	6153      	str	r3, [r2, #20]
 80006c8:	4b12      	ldr	r3, [pc, #72]	; (8000714 <EXTI9_5_IRQHandler+0xa4>)
 80006ca:	69db      	ldr	r3, [r3, #28]
 80006cc:	4798      	blx	r3
 80006ce:	4b10      	ldr	r3, [pc, #64]	; (8000710 <EXTI9_5_IRQHandler+0xa0>)
 80006d0:	695b      	ldr	r3, [r3, #20]
 80006d2:	f403 7380 	and.w	r3, r3, #256	; 0x100
 80006d6:	2b00      	cmp	r3, #0
 80006d8:	d008      	beq.n	80006ec <EXTI9_5_IRQHandler+0x7c>
 80006da:	4b0d      	ldr	r3, [pc, #52]	; (8000710 <EXTI9_5_IRQHandler+0xa0>)
 80006dc:	695b      	ldr	r3, [r3, #20]
 80006de:	4a0c      	ldr	r2, [pc, #48]	; (8000710 <EXTI9_5_IRQHandler+0xa0>)
 80006e0:	f443 7380 	orr.w	r3, r3, #256	; 0x100
 80006e4:	6153      	str	r3, [r2, #20]
 80006e6:	4b0b      	ldr	r3, [pc, #44]	; (8000714 <EXTI9_5_IRQHandler+0xa4>)
 80006e8:	6a1b      	ldr	r3, [r3, #32]
 80006ea:	4798      	blx	r3
 80006ec:	4b08      	ldr	r3, [pc, #32]	; (8000710 <EXTI9_5_IRQHandler+0xa0>)
 80006ee:	695b      	ldr	r3, [r3, #20]
 80006f0:	f403 7300 	and.w	r3, r3, #512	; 0x200
 80006f4:	2b00      	cmp	r3, #0
 80006f6:	d008      	beq.n	800070a <EXTI9_5_IRQHandler+0x9a>
 80006f8:	4b05      	ldr	r3, [pc, #20]	; (8000710 <EXTI9_5_IRQHandler+0xa0>)
 80006fa:	695b      	ldr	r3, [r3, #20]
 80006fc:	4a04      	ldr	r2, [pc, #16]	; (8000710 <EXTI9_5_IRQHandler+0xa0>)
 80006fe:	f443 7300 	orr.w	r3, r3, #512	; 0x200
 8000702:	6153      	str	r3, [r2, #20]
 8000704:	4b03      	ldr	r3, [pc, #12]	; (8000714 <EXTI9_5_IRQHandler+0xa4>)
 8000706:	6a5b      	ldr	r3, [r3, #36]	; 0x24
 8000708:	4798      	blx	r3
 800070a:	bf00      	nop
 800070c:	bd80      	pop	{r7, pc}
 800070e:	bf00      	nop
 8000710:	40010400 	andmi	r0, r1, r0, lsl #8
 8000714:	20000020 	andcs	r0, r0, r0, lsr #32

08000718 <EXTI15_10_IRQHandler>:
 8000718:	b580      	push	{r7, lr}
 800071a:	af00      	add	r7, sp, #0
 800071c:	4b2d      	ldr	r3, [pc, #180]	; (80007d4 <EXTI15_10_IRQHandler+0xbc>)
 800071e:	695b      	ldr	r3, [r3, #20]
 8000720:	f403 6380 	and.w	r3, r3, #1024	; 0x400
 8000724:	2b00      	cmp	r3, #0
 8000726:	d008      	beq.n	800073a <EXTI15_10_IRQHandler+0x22>
 8000728:	4b2a      	ldr	r3, [pc, #168]	; (80007d4 <EXTI15_10_IRQHandler+0xbc>)
 800072a:	695b      	ldr	r3, [r3, #20]
 800072c:	4a29      	ldr	r2, [pc, #164]	; (80007d4 <EXTI15_10_IRQHandler+0xbc>)
 800072e:	f443 6380 	orr.w	r3, r3, #1024	; 0x400
 8000732:	6153      	str	r3, [r2, #20]
 8000734:	4b28      	ldr	r3, [pc, #160]	; (80007d8 <EXTI15_10_IRQHandler+0xc0>)
 8000736:	6a9b      	ldr	r3, [r3, #40]	; 0x28
 8000738:	4798      	blx	r3
 800073a:	4b26      	ldr	r3, [pc, #152]	; (80007d4 <EXTI15_10_IRQHandler+0xbc>)
 800073c:	695b      	ldr	r3, [r3, #20]
 800073e:	f403 6300 	and.w	r3, r3, #2048	; 0x800
 8000742:	2b00      	cmp	r3, #0
 8000744:	d008      	beq.n	8000758 <EXTI15_10_IRQHandler+0x40>
 8000746:	4b23      	ldr	r3, [pc, #140]	; (80007d4 <EXTI15_10_IRQHandler+0xbc>)
 8000748:	695b      	ldr	r3, [r3, #20]
 800074a:	4a22      	ldr	r2, [pc, #136]	; (80007d4 <EXTI15_10_IRQHandler+0xbc>)
 800074c:	f443 6300 	orr.w	r3, r3, #2048	; 0x800
 8000750:	6153      	str	r3, [r2, #20]
 8000752:	4b21      	ldr	r3, [pc, #132]	; (80007d8 <EXTI15_10_IRQHandler+0xc0>)
 8000754:	6adb      	ldr	r3, [r3, #44]	; 0x2c
 8000756:	4798      	blx	r3
 8000758:	4b1e      	ldr	r3, [pc, #120]	; (80007d4 <EXTI15_10_IRQHandler+0xbc>)
 800075a:	695b      	ldr	r3, [r3, #20]
 800075c:	f403 5380 	and.w	r3, r3, #4096	; 0x1000
 8000760:	2b00      	cmp	r3, #0
 8000762:	d008      	beq.n	8000776 <EXTI15_10_IRQHandler+0x5e>
 8000764:	4b1b      	ldr	r3, [pc, #108]	; (80007d4 <EXTI15_10_IRQHandler+0xbc>)
 8000766:	695b      	ldr	r3, [r3, #20]
 8000768:	4a1a      	ldr	r2, [pc, #104]	; (80007d4 <EXTI15_10_IRQHandler+0xbc>)
 800076a:	f443 5380 	orr.w	r3, r3, #4096	; 0x1000
 800076e:	6153      	str	r3, [r2, #20]
 8000770:	4b19      	ldr	r3, [pc, #100]	; (80007d8 <EXTI15_10_IRQHandler+0xc0>)
 8000772:	6b1b      	ldr	r3, [r3, #48]	; 0x30
 8000774:	4798      	blx	r3
 8000776:	4b17      	ldr	r3, [pc, #92]	; (80007d4 <EXTI15_10_IRQHandler+0xbc>)
 8000778:	695b      	ldr	r3, [r3, #20]
 800077a:	f403 5300 	and.w	r3, r3, #8192	; 0x2000
 800077e:	2b00      	cmp	r3, #0
 8000780:	d008      	beq.n	8000794 <EXTI15_10_IRQHandler+0x7c>
 8000782:	4b14      	ldr	r3, [pc, #80]	; (80007d4 <EXTI15_10_IRQHandler+0xbc>)
 8000784:	695b      	ldr	r3, [r3, #20]
 8000786:	4a13      	ldr	r2, [pc, #76]	; (80007d4 <EXTI15_10_IRQHandler+0xbc>)
 8000788:	f443 5300 	orr.w	r3, r3, #8192	; 0x2000
 800078c:	6153      	str	r3, [r2, #20]
 800078e:	4b12      	ldr	r3, [pc, #72]	; (80007d8 <EXTI15_10_IRQHandler+0xc0>)
 8000790:	6b5b      	ldr	r3, [r3, #52]	; 0x34
 8000792:	4798      	blx	r3
 8000794:	4b0f      	ldr	r3, [pc, #60]	; (80007d4 <EXTI15_10_IRQHandler+0xbc>)
 8000796:	695b      	ldr	r3, [r3, #20]
 8000798:	f403 4380 	and.w	r3, r3, #16384	; 0x4000
 800079c:	2b00      	cmp	r3, #0
 800079e:	d008      	beq.n	80007b2 <EXTI15_10_IRQHandler+0x9a>
 80007a0:	4b0c      	ldr	r3, [pc, #48]	; (80007d4 <EXTI15_10_IRQHandler+0xbc>)
 80007a2:	695b      	ldr	r3, [r3, #20]
 80007a4:	4a0b      	ldr	r2, [pc, #44]	; (80007d4 <EXTI15_10_IRQHandler+0xbc>)
 80007a6:	f443 4380 	orr.w	r3, r3, #16384	; 0x4000
 80007aa:	6153      	str	r3, [r2, #20]
 80007ac:	4b0a      	ldr	r3, [pc, #40]	; (80007d8 <EXTI15_10_IRQHandler+0xc0>)
 80007ae:	6b9b      	ldr	r3, [r3, #56]	; 0x38
 80007b0:	4798      	blx	r3
 80007b2:	4b08      	ldr	r3, [pc, #32]	; (80007d4 <EXTI15_10_IRQHandler+0xbc>)
 80007b4:	695b      	ldr	r3, [r3, #20]
 80007b6:	f403 4300 	and.w	r3, r3, #32768	; 0x8000
 80007ba:	2b00      	cmp	r3, #0
 80007bc:	d008      	beq.n	80007d0 <EXTI15_10_IRQHandler+0xb8>
 80007be:	4b05      	ldr	r3, [pc, #20]	; (80007d4 <EXTI15_10_IRQHandler+0xbc>)
 80007c0:	695b      	ldr	r3, [r3, #20]
 80007c2:	4a04      	ldr	r2, [pc, #16]	; (80007d4 <EXTI15_10_IRQHandler+0xbc>)
 80007c4:	f443 4300 	orr.w	r3, r3, #32768	; 0x8000
 80007c8:	6153      	str	r3, [r2, #20]
 80007ca:	4b03      	ldr	r3, [pc, #12]	; (80007d8 <EXTI15_10_IRQHandler+0xc0>)
 80007cc:	6bdb      	ldr	r3, [r3, #60]	; 0x3c
 80007ce:	4798      	blx	r3
 80007d0:	bf00      	nop
 80007d2:	bd80      	pop	{r7, pc}
 80007d4:	40010400 	andmi	r0, r1, r0, lsl #8
 80007d8:	20000020 	andcs	r0, r0, r0, lsr #32

080007dc <Get_CRLH_Position>:
 80007dc:	b480      	push	{r7}
 80007de:	b083      	sub	sp, #12
 80007e0:	af00      	add	r7, sp, #0
 80007e2:	4603      	mov	r3, r0
 80007e4:	80fb      	strh	r3, [r7, #6]
 80007e6:	88fb      	ldrh	r3, [r7, #6]
 80007e8:	f5b3 4f00 	cmp.w	r3, #32768	; 0x8000
 80007ec:	f000 80a5 	beq.w	800093a <Get_CRLH_Position+0x15e>
 80007f0:	f5b3 4f00 	cmp.w	r3, #32768	; 0x8000
 80007f4:	f300 80a3 	bgt.w	800093e <Get_CRLH_Position+0x162>
 80007f8:	f5b3 4f80 	cmp.w	r3, #16384	; 0x4000
 80007fc:	f000 809b 	beq.w	8000936 <Get_CRLH_Position+0x15a>
 8000800:	f5b3 4f80 	cmp.w	r3, #16384	; 0x4000
 8000804:	f300 809b 	bgt.w	800093e <Get_CRLH_Position+0x162>
 8000808:	f5b3 5f00 	cmp.w	r3, #8192	; 0x2000
 800080c:	f000 8091 	beq.w	8000932 <Get_CRLH_Position+0x156>
 8000810:	f5b3 5f00 	cmp.w	r3, #8192	; 0x2000
 8000814:	f300 8093 	bgt.w	800093e <Get_CRLH_Position+0x162>
 8000818:	f5b3 5f80 	cmp.w	r3, #4096	; 0x1000
 800081c:	f000 8087 	beq.w	800092e <Get_CRLH_Position+0x152>
 8000820:	f5b3 5f80 	cmp.w	r3, #4096	; 0x1000
 8000824:	f300 808b 	bgt.w	800093e <Get_CRLH_Position+0x162>
 8000828:	f5b3 6f00 	cmp.w	r3, #2048	; 0x800
 800082c:	d07d      	beq.n	800092a <Get_CRLH_Position+0x14e>
 800082e:	f5b3 6f00 	cmp.w	r3, #2048	; 0x800
 8000832:	f300 8084 	bgt.w	800093e <Get_CRLH_Position+0x162>
 8000836:	f5b3 6f80 	cmp.w	r3, #1024	; 0x400
 800083a:	d074      	beq.n	8000926 <Get_CRLH_Position+0x14a>
 800083c:	f5b3 6f80 	cmp.w	r3, #1024	; 0x400
 8000840:	dc7d      	bgt.n	800093e <Get_CRLH_Position+0x162>
 8000842:	f5b3 7f00 	cmp.w	r3, #512	; 0x200
 8000846:	d06c      	beq.n	8000922 <Get_CRLH_Position+0x146>
 8000848:	f5b3 7f00 	cmp.w	r3, #512	; 0x200
 800084c:	dc77      	bgt.n	800093e <Get_CRLH_Position+0x162>
 800084e:	f5b3 7f80 	cmp.w	r3, #256	; 0x100
 8000852:	d064      	beq.n	800091e <Get_CRLH_Position+0x142>
 8000854:	f5b3 7f80 	cmp.w	r3, #256	; 0x100
 8000858:	dc71      	bgt.n	800093e <Get_CRLH_Position+0x162>
 800085a:	2b80      	cmp	r3, #128	; 0x80
 800085c:	d05d      	beq.n	800091a <Get_CRLH_Position+0x13e>
 800085e:	2b80      	cmp	r3, #128	; 0x80
 8000860:	dc6d      	bgt.n	800093e <Get_CRLH_Position+0x162>
 8000862:	2b20      	cmp	r3, #32
 8000864:	dc48      	bgt.n	80008f8 <Get_CRLH_Position+0x11c>
 8000866:	2b00      	cmp	r3, #0
 8000868:	dd69      	ble.n	800093e <Get_CRLH_Position+0x162>
 800086a:	3b01      	subs	r3, #1
 800086c:	2b1f      	cmp	r3, #31
 800086e:	d866      	bhi.n	800093e <Get_CRLH_Position+0x162>
 8000870:	a201      	add	r2, pc, #4	; (adr r2, 8000878 <Get_CRLH_Position+0x9c>)
 8000872:	f852 f023 	ldr.w	pc, [r2, r3, lsl #2]
 8000876:	bf00      	nop
 8000878:	080008ff 	stmdaeq	r0, {r0, r1, r2, r3, r4, r5, r6, r7, fp}
 800087c:	08000903 	stmdaeq	r0, {r0, r1, r8, fp}
 8000880:	0800093f 	stmdaeq	r0, {r0, r1, r2, r3, r4, r5, r8, fp}
 8000884:	08000907 	stmdaeq	r0, {r0, r1, r2, r8, fp}
 8000888:	0800093f 	stmdaeq	r0, {r0, r1, r2, r3, r4, r5, r8, fp}
 800088c:	0800093f 	stmdaeq	r0, {r0, r1, r2, r3, r4, r5, r8, fp}
 8000890:	0800093f 	stmdaeq	r0, {r0, r1, r2, r3, r4, r5, r8, fp}
 8000894:	0800090b 	stmdaeq	r0, {r0, r1, r3, r8, fp}
 8000898:	0800093f 	stmdaeq	r0, {r0, r1, r2, r3, r4, r5, r8, fp}
 800089c:	0800093f 	stmdaeq	r0, {r0, r1, r2, r3, r4, r5, r8, fp}
 80008a0:	0800093f 	stmdaeq	r0, {r0, r1, r2, r3, r4, r5, r8, fp}
 80008a4:	0800093f 	stmdaeq	r0, {r0, r1, r2, r3, r4, r5, r8, fp}
 80008a8:	0800093f 	stmdaeq	r0, {r0, r1, r2, r3, r4, r5, r8, fp}
 80008ac:	0800093f 	stmdaeq	r0, {r0, r1, r2, r3, r4, r5, r8, fp}
 80008b0:	0800093f 	stmdaeq	r0, {r0, r1, r2, r3, r4, r5, r8, fp}
 80008b4:	0800090f 	stmdaeq	r0, {r0, r1, r2, r3, r8, fp}
 80008b8:	0800093f 	stmdaeq	r0, {r0, r1, r2, r3, r4, r5, r8, fp}
 80008bc:	0800093f 	stmdaeq	r0, {r0, r1, r2, r3, r4, r5, r8, fp}
 80008c0:	0800093f 	stmdaeq	r0, {r0, r1, r2, r3, r4, r5, r8, fp}
 80008c4:	0800093f 	stmdaeq	r0, {r0, r1, r2, r3, r4, r5, r8, fp}
 80008c8:	0800093f 	stmdaeq	r0, {r0, r1, r2, r3, r4, r5, r8, fp}
 80008cc:	0800093f 	stmdaeq	r0, {r0, r1, r2, r3, r4, r5, r8, fp}
 80008d0:	0800093f 	stmdaeq	r0, {r0, r1, r2, r3, r4, r5, r8, fp}
 80008d4:	0800093f 	stmdaeq	r0, {r0, r1, r2, r3, r4, r5, r8, fp}
 80008d8:	0800093f 	stmdaeq	r0, {r0, r1, r2, r3, r4, r5, r8, fp}
 80008dc:	0800093f 	stmdaeq	r0, {r0, r1, r2, r3, r4, r5, r8, fp}
 80008e0:	0800093f 	stmdaeq	r0, {r0, r1, r2, r3, r4, r5, r8, fp}
 80008e4:	0800093f 	stmdaeq	r0, {r0, r1, r2, r3, r4, r5, r8, fp}
 80008e8:	0800093f 	stmdaeq	r0, {r0, r1, r2, r3, r4, r5, r8, fp}
 80008ec:	0800093f 	stmdaeq	r0, {r0, r1, r2, r3, r4, r5, r8, fp}
 80008f0:	0800093f 	stmdaeq	r0, {r0, r1, r2, r3, r4, r5, r8, fp}
 80008f4:	08000913 	stmdaeq	r0, {r0, r1, r4, r8, fp}
 80008f8:	2b40      	cmp	r3, #64	; 0x40
 80008fa:	d00c      	beq.n	8000916 <Get_CRLH_Position+0x13a>
 80008fc:	e01f      	b.n	800093e <Get_CRLH_Position+0x162>
 80008fe:	2300      	movs	r3, #0
 8000900:	e01e      	b.n	8000940 <Get_CRLH_Position+0x164>
 8000902:	2304      	movs	r3, #4
 8000904:	e01c      	b.n	8000940 <Get_CRLH_Position+0x164>
 8000906:	2308      	movs	r3, #8
 8000908:	e01a      	b.n	8000940 <Get_CRLH_Position+0x164>
 800090a:	230c      	movs	r3, #12
 800090c:	e018      	b.n	8000940 <Get_CRLH_Position+0x164>
 800090e:	2310      	movs	r3, #16
 8000910:	e016      	b.n	8000940 <Get_CRLH_Position+0x164>
 8000912:	2314      	movs	r3, #20
 8000914:	e014      	b.n	8000940 <Get_CRLH_Position+0x164>
 8000916:	2318      	movs	r3, #24
 8000918:	e012      	b.n	8000940 <Get_CRLH_Position+0x164>
 800091a:	231c      	movs	r3, #28
 800091c:	e010      	b.n	8000940 <Get_CRLH_Position+0x164>
 800091e:	2300      	movs	r3, #0
 8000920:	e00e      	b.n	8000940 <Get_CRLH_Position+0x164>
 8000922:	2304      	movs	r3, #4
 8000924:	e00c      	b.n	8000940 <Get_CRLH_Position+0x164>
 8000926:	2308      	movs	r3, #8
 8000928:	e00a      	b.n	8000940 <Get_CRLH_Position+0x164>
 800092a:	230c      	movs	r3, #12
 800092c:	e008      	b.n	8000940 <Get_CRLH_Position+0x164>
 800092e:	2310      	movs	r3, #16
 8000930:	e006      	b.n	8000940 <Get_CRLH_Position+0x164>
 8000932:	2314      	movs	r3, #20
 8000934:	e004      	b.n	8000940 <Get_CRLH_Position+0x164>
 8000936:	2318      	movs	r3, #24
 8000938:	e002      	b.n	8000940 <Get_CRLH_Position+0x164>
 800093a:	231c      	movs	r3, #28
 800093c:	e000      	b.n	8000940 <Get_CRLH_Position+0x164>
 800093e:	2300      	movs	r3, #0
 8000940:	4618      	mov	r0, r3
 8000942:	370c      	adds	r7, #12
 8000944:	46bd      	mov	sp, r7
 8000946:	bc80      	pop	{r7}
 8000948:	4770      	bx	lr
 800094a:	bf00      	nop

0800094c <MCAL_GPIO_Init>:
 800094c:	b590      	push	{r4, r7, lr}
 800094e:	b085      	sub	sp, #20
 8000950:	af00      	add	r7, sp, #0
 8000952:	6078      	str	r0, [r7, #4]
 8000954:	6039      	str	r1, [r7, #0]
 8000956:	2300      	movs	r3, #0
 8000958:	60bb      	str	r3, [r7, #8]
 800095a:	2300      	movs	r3, #0
 800095c:	73fb      	strb	r3, [r7, #15]
 800095e:	683b      	ldr	r3, [r7, #0]
 8000960:	881b      	ldrh	r3, [r3, #0]
 8000962:	2bff      	cmp	r3, #255	; 0xff
 8000964:	d801      	bhi.n	800096a <MCAL_GPIO_Init+0x1e>
 8000966:	687b      	ldr	r3, [r7, #4]
 8000968:	e001      	b.n	800096e <MCAL_GPIO_Init+0x22>
 800096a:	687b      	ldr	r3, [r7, #4]
 800096c:	3304      	adds	r3, #4
 800096e:	60bb      	str	r3, [r7, #8]
 8000970:	683b      	ldr	r3, [r7, #0]
 8000972:	881b      	ldrh	r3, [r3, #0]
 8000974:	4618      	mov	r0, r3
 8000976:	f7ff ff31 	bl	80007dc <Get_CRLH_Position>
 800097a:	4603      	mov	r3, r0
 800097c:	461a      	mov	r2, r3
 800097e:	230f      	movs	r3, #15
 8000980:	4093      	lsls	r3, r2
 8000982:	43da      	mvns	r2, r3
 8000984:	68bb      	ldr	r3, [r7, #8]
 8000986:	681b      	ldr	r3, [r3, #0]
 8000988:	401a      	ands	r2, r3
 800098a:	68bb      	ldr	r3, [r7, #8]
 800098c:	601a      	str	r2, [r3, #0]
 800098e:	683b      	ldr	r3, [r7, #0]
 8000990:	789b      	ldrb	r3, [r3, #2]
 8000992:	2b04      	cmp	r3, #4
 8000994:	d00b      	beq.n	80009ae <MCAL_GPIO_Init+0x62>
 8000996:	683b      	ldr	r3, [r7, #0]
 8000998:	789b      	ldrb	r3, [r3, #2]
 800099a:	2b05      	cmp	r3, #5
 800099c:	d007      	beq.n	80009ae <MCAL_GPIO_Init+0x62>
 800099e:	683b      	ldr	r3, [r7, #0]
 80009a0:	789b      	ldrb	r3, [r3, #2]
 80009a2:	2b06      	cmp	r3, #6
 80009a4:	d003      	beq.n	80009ae <MCAL_GPIO_Init+0x62>
 80009a6:	683b      	ldr	r3, [r7, #0]
 80009a8:	789b      	ldrb	r3, [r3, #2]
 80009aa:	2b07      	cmp	r3, #7
 80009ac:	d10e      	bne.n	80009cc <MCAL_GPIO_Init+0x80>
 80009ae:	683b      	ldr	r3, [r7, #0]
 80009b0:	789b      	ldrb	r3, [r3, #2]
 80009b2:	3b04      	subs	r3, #4
 80009b4:	009b      	lsls	r3, r3, #2
 80009b6:	b25a      	sxtb	r2, r3
 80009b8:	683b      	ldr	r3, [r7, #0]
 80009ba:	78db      	ldrb	r3, [r3, #3]
 80009bc:	b25b      	sxtb	r3, r3
 80009be:	f003 030f 	and.w	r3, r3, #15
 80009c2:	b25b      	sxtb	r3, r3
 80009c4:	4313      	orrs	r3, r2
 80009c6:	b25b      	sxtb	r3, r3
 80009c8:	73fb      	strb	r3, [r7, #15]
 80009ca:	e029      	b.n	8000a20 <MCAL_GPIO_Init+0xd4>
 80009cc:	683b      	ldr	r3, [r7, #0]
 80009ce:	789b      	ldrb	r3, [r3, #2]
 80009d0:	2b00      	cmp	r3, #0
 80009d2:	d003      	beq.n	80009dc <MCAL_GPIO_Init+0x90>
 80009d4:	683b      	ldr	r3, [r7, #0]
 80009d6:	789b      	ldrb	r3, [r3, #2]
 80009d8:	2b01      	cmp	r3, #1
 80009da:	d104      	bne.n	80009e6 <MCAL_GPIO_Init+0x9a>
 80009dc:	683b      	ldr	r3, [r7, #0]
 80009de:	789b      	ldrb	r3, [r3, #2]
 80009e0:	009b      	lsls	r3, r3, #2
 80009e2:	73fb      	strb	r3, [r7, #15]
 80009e4:	e01c      	b.n	8000a20 <MCAL_GPIO_Init+0xd4>
 80009e6:	683b      	ldr	r3, [r7, #0]
 80009e8:	789b      	ldrb	r3, [r3, #2]
 80009ea:	2b08      	cmp	r3, #8
 80009ec:	d102      	bne.n	80009f4 <MCAL_GPIO_Init+0xa8>
 80009ee:	2304      	movs	r3, #4
 80009f0:	73fb      	strb	r3, [r7, #15]
 80009f2:	e015      	b.n	8000a20 <MCAL_GPIO_Init+0xd4>
 80009f4:	2308      	movs	r3, #8
 80009f6:	73fb      	strb	r3, [r7, #15]
 80009f8:	683b      	ldr	r3, [r7, #0]
 80009fa:	789b      	ldrb	r3, [r3, #2]
 80009fc:	2b02      	cmp	r3, #2
 80009fe:	d107      	bne.n	8000a10 <MCAL_GPIO_Init+0xc4>
 8000a00:	687b      	ldr	r3, [r7, #4]
 8000a02:	68db      	ldr	r3, [r3, #12]
 8000a04:	683a      	ldr	r2, [r7, #0]
 8000a06:	8812      	ldrh	r2, [r2, #0]
 8000a08:	431a      	orrs	r2, r3
 8000a0a:	687b      	ldr	r3, [r7, #4]
 8000a0c:	60da      	str	r2, [r3, #12]
 8000a0e:	e007      	b.n	8000a20 <MCAL_GPIO_Init+0xd4>
 8000a10:	687b      	ldr	r3, [r7, #4]
 8000a12:	68db      	ldr	r3, [r3, #12]
 8000a14:	683a      	ldr	r2, [r7, #0]
 8000a16:	8812      	ldrh	r2, [r2, #0]
 8000a18:	43d2      	mvns	r2, r2
 8000a1a:	401a      	ands	r2, r3
 8000a1c:	687b      	ldr	r3, [r7, #4]
 8000a1e:	60da      	str	r2, [r3, #12]
 8000a20:	7bfc      	ldrb	r4, [r7, #15]
 8000a22:	683b      	ldr	r3, [r7, #0]
 8000a24:	881b      	ldrh	r3, [r3, #0]
 8000a26:	4618      	mov	r0, r3
 8000a28:	f7ff fed8 	bl	80007dc <Get_CRLH_Position>
 8000a2c:	4603      	mov	r3, r0
 8000a2e:	fa04 f203 	lsl.w	r2, r4, r3
 8000a32:	68bb      	ldr	r3, [r7, #8]
 8000a34:	681b      	ldr	r3, [r3, #0]
 8000a36:	431a      	orrs	r2, r3
 8000a38:	68bb      	ldr	r3, [r7, #8]
 8000a3a:	601a      	str	r2, [r3, #0]
 8000a3c:	bf00      	nop
 8000a3e:	3714      	adds	r7, #20
 8000a40:	46bd      	mov	sp, r7
 8000a42:	bd90      	pop	{r4, r7, pc}

08000a44 <__libc_init_array>:
 8000a44:	b570      	push	{r4, r5, r6, lr}
 8000a46:	2600      	movs	r6, #0
 8000a48:	4d0c      	ldr	r5, [pc, #48]	; (8000a7c <__libc_init_array+0x38>)
 8000a4a:	4c0d      	ldr	r4, [pc, #52]	; (8000a80 <__libc_init_array+0x3c>)
 8000a4c:	1b64      	subs	r4, r4, r5
 8000a4e:	10a4      	asrs	r4, r4, #2
 8000a50:	42a6      	cmp	r6, r4
 8000a52:	d109      	bne.n	8000a68 <__libc_init_array+0x24>
 8000a54:	f000 f81a 	bl	8000a8c <_init>
 8000a58:	2600      	movs	r6, #0
 8000a5a:	4d0a      	ldr	r5, [pc, #40]	; (8000a84 <__libc_init_array+0x40>)
 8000a5c:	4c0a      	ldr	r4, [pc, #40]	; (8000a88 <__libc_init_array+0x44>)
 8000a5e:	1b64      	subs	r4, r4, r5
 8000a60:	10a4      	asrs	r4, r4, #2
 8000a62:	42a6      	cmp	r6, r4
 8000a64:	d105      	bne.n	8000a72 <__libc_init_array+0x2e>
 8000a66:	bd70      	pop	{r4, r5, r6, pc}
 8000a68:	f855 3b04 	ldr.w	r3, [r5], #4
 8000a6c:	4798      	blx	r3
 8000a6e:	3601      	adds	r6, #1
 8000a70:	e7ee      	b.n	8000a50 <__libc_init_array+0xc>
 8000a72:	f855 3b04 	ldr.w	r3, [r5], #4
 8000a76:	4798      	blx	r3
 8000a78:	3601      	adds	r6, #1
 8000a7a:	e7f2      	b.n	8000a62 <__libc_init_array+0x1e>
 8000a7c:	08000ab0 	stmdaeq	r0, {r4, r5, r7, r9, fp}
 8000a80:	08000ab0 	stmdaeq	r0, {r4, r5, r7, r9, fp}
 8000a84:	08000ab0 	stmdaeq	r0, {r4, r5, r7, r9, fp}
 8000a88:	08000ab4 	stmdaeq	r0, {r2, r4, r5, r7, r9, fp}

08000a8c <_init>:
 8000a8c:	b5f8      	push	{r3, r4, r5, r6, r7, lr}
 8000a8e:	bf00      	nop
 8000a90:	bcf8      	pop	{r3, r4, r5, r6, r7}
 8000a92:	bc08      	pop	{r3}
 8000a94:	469e      	mov	lr, r3
 8000a96:	4770      	bx	lr

08000a98 <_fini>:
 8000a98:	b5f8      	push	{r3, r4, r5, r6, r7, lr}
 8000a9a:	bf00      	nop
 8000a9c:	bcf8      	pop	{r3, r4, r5, r6, r7}
 8000a9e:	bc08      	pop	{r3}
 8000aa0:	469e      	mov	lr, r3
 8000aa2:	4770      	bx	lr

Disassembly of section .rodata:

08000aa4 <.rodata>:
 8000aa4:	00000009 	andeq	r0, r0, r9
 8000aa8:	40010c00 	andmi	r0, r1, r0, lsl #24
 8000aac:	00170200 	andseq	r0, r7, r0, lsl #4

Disassembly of section .init_array:

08000ab0 <__frame_dummy_init_array_entry>:
 8000ab0:	08000155 	stmdaeq	r0, {r0, r2, r4, r6, r8}

Disassembly of section .fini_array:

08000ab4 <__do_global_dtors_aux_fini_array_entry>:
 8000ab4:	08000131 	stmdaeq	r0, {r0, r4, r5, r8}

Disassembly of section .bss:

20000000 <__bss_start__>:
20000000:	00000000 	andeq	r0, r0, r0

20000004 <object.0>:
	...

2000001c <IRQ_Flag>:
2000001c:	00000000 	andeq	r0, r0, r0

20000020 <GP_IRQ_CallBack>:
	...

Disassembly of section ._user_heap_stack:

2000005c <_end-0x4>:
2000005c:	00000000 	andeq	r0, r0, r0

20000060 <_end>:
	...

Disassembly of section .ARM.attributes:

00000000 <.ARM.attributes>:
   0:	00002841 	andeq	r2, r0, r1, asr #16
   4:	61656100 	cmnvs	r5, r0, lsl #2
   8:	01006962 	tsteq	r0, r2, ror #18
   c:	0000001e 	andeq	r0, r0, lr, lsl r0
  10:	4d2d3705 	stcmi	7, cr3, [sp, #-20]!	; 0xffffffec
  14:	070a0600 	streq	r0, [sl, -r0, lsl #12]
  18:	1202094d 	andne	r0, r2, #1261568	; 0x134000
  1c:	15011404 	strne	r1, [r1, #-1028]	; 0xfffffbfc
  20:	18031701 	stmdane	r3, {r0, r8, r9, sl, ip}
  24:	22011a01 	andcs	r1, r1, #4096	; 0x1000
  28:	Address 0x0000000000000028 is out of bounds.


Disassembly of section .debug_info:

00000000 <.debug_info>:
   0:	00000338 	andeq	r0, r0, r8, lsr r3
   4:	00000002 	andeq	r0, r0, r2
   8:	01040000 	mrseq	r0, (UNDEF: 4)
   c:	00002a3c 	andeq	r2, r0, ip, lsr sl
  10:	0031d90c 	eorseq	sp, r1, ip, lsl #18
  14:	00347d00 	eorseq	r7, r4, r0, lsl #26
	...
  2c:	07040200 	streq	r0, [r4, -r0, lsl #4]
  30:	000021b9 			; <UNDEFINED> instruction: 0x000021b9
  34:	69050403 	stmdbvs	r5, {r0, r1, sl}
  38:	0200746e 	andeq	r7, r0, #1845493760	; 0x6e000000
  3c:	50ac0508 	adcpl	r0, ip, r8, lsl #10
  40:	08020000 	stmdaeq	r2, {}	; <UNPREDICTABLE>
  44:	00030c04 	andeq	r0, r3, r4, lsl #24
  48:	06010200 	streq	r0, [r1], -r0, lsl #4
  4c:	000006fe 	strdeq	r0, [r0], -lr
  50:	00128704 	andseq	r8, r2, r4, lsl #14
  54:	182b0200 	stmdane	fp!, {r9}
  58:	0000005c 	andeq	r0, r0, ip, asr r0
  5c:	89080102 	stmdbhi	r8, {r1, r8}
  60:	02000031 	andeq	r0, r0, #49	; 0x31
  64:	0a080502 	beq	201474 <_Min_Stack_Size+0x201074>
  68:	32040000 	andcc	r0, r4, #0
  6c:	0200002b 	andeq	r0, r0, #43	; 0x2b
  70:	00761939 	rsbseq	r1, r6, r9, lsr r9
  74:	02020000 	andeq	r0, r2, #0
  78:	0068e107 	rsbeq	lr, r8, r7, lsl #2
  7c:	05040200 	streq	r0, [r4, #-512]	; 0xfffffe00
  80:	00006c50 	andeq	r6, r0, r0, asr ip
  84:	003eab04 	eorseq	sl, lr, r4, lsl #22
  88:	194f0200 	stmdbne	pc, {r9}^	; <UNPREDICTABLE>
  8c:	00000090 	muleq	r0, r0, r0
  90:	05070402 	streq	r0, [r7, #-1026]	; 0xfffffbfe
  94:	0200001b 	andeq	r0, r0, #27
  98:	3b110708 	blcc	441cc0 <_Min_Stack_Size+0x4418c0>
  9c:	04050000 	streq	r0, [r5], #-0
  a0:	000000a4 	andeq	r0, r0, r4, lsr #1
  a4:	01020106 	tsteq	r2, r6, lsl #2
  a8:	00070508 	andeq	r0, r7, r8, lsl #10
  ac:	12890400 	addne	r0, r9, #0, 8
  b0:	18030000 	stmdane	r3, {}	; <UNPREDICTABLE>
  b4:	00005013 	andeq	r5, r0, r3, lsl r0
  b8:	2b340400 	blcs	d010c0 <_Min_Stack_Size+0xd00cc0>
  bc:	24030000 	strcs	r0, [r3], #-0
  c0:	00006a14 	andeq	r6, r0, r4, lsl sl
  c4:	3ead0400 	cdpcc	4, 10, cr0, cr13, cr0, {0}
  c8:	30030000 	andcc	r0, r3, r0
  cc:	00008414 	andeq	r8, r0, r4, lsl r4
  d0:	00c50700 	sbceq	r0, r5, r0, lsl #14
  d4:	1c080000 	stcne	0, cr0, [r8], {-0}
  d8:	49096404 	stmdbmi	r9, {r2, sl, sp, lr}
  dc:	09000001 	stmdbeq	r0, {r0}
  e0:	004c5243 	subeq	r5, ip, r3, asr #4
  e4:	d1146604 	tstle	r4, r4, lsl #12
  e8:	02000000 	andeq	r0, r0, #0
  ec:	43090023 	movwmi	r0, #36899	; 0x9023
  f0:	04004852 	streq	r4, [r0], #-2130	; 0xfffff7ae
  f4:	00d11467 	sbcseq	r1, r1, r7, ror #8
  f8:	23020000 	movwcs	r0, #8192	; 0x2000
  fc:	44490904 	strbmi	r0, [r9], #-2308	; 0xfffff6fc
 100:	68040052 	stmdavs	r4, {r1, r4, r6}
 104:	0000d114 	andeq	sp, r0, r4, lsl r1
 108:	08230200 	stmdaeq	r3!, {r9}
 10c:	52444f09 	subpl	r4, r4, #9, 30	; 0x24
 110:	14690400 	strbtne	r0, [r9], #-1024	; 0xfffffc00
 114:	000000d1 	ldrdeq	r0, [r0], -r1
 118:	0a0c2302 	beq	308d28 <_Min_Stack_Size+0x308928>
 11c:	00007fe5 	andeq	r7, r0, r5, ror #31
 120:	d1146a04 	tstle	r4, r4, lsl #20
 124:	02000000 	andeq	r0, r0, #0
 128:	42091023 	andmi	r1, r9, #35	; 0x23
 12c:	04005252 	streq	r5, [r0], #-594	; 0xfffffdae
 130:	00d1146b 	sbcseq	r1, r1, fp, ror #8
 134:	23020000 	movwcs	r0, #8192	; 0x2000
 138:	43e60a14 	mvnmi	r0, #20, 20	; 0x14000
 13c:	6c040000 	stcvs	0, cr0, [r4], {-0}
 140:	0000d114 	andeq	sp, r0, r4, lsl r1
 144:	18230200 	stmdane	r3!, {r9}
 148:	55620400 	strbpl	r0, [r2, #-1024]!	; 0xfffffc00
 14c:	6d040000 	stcvs	0, cr0, [r4, #-0]
 150:	0000d602 	andeq	sp, r0, r2, lsl #12
 154:	04300800 	ldrteq	r0, [r0], #-2048	; 0xfffff800
 158:	0212097b 	andseq	r0, r2, #2015232	; 0x1ec000
 15c:	43090000 	movwmi	r0, #36864	; 0x9000
 160:	7d040052 	stcvc	0, cr0, [r4, #-328]	; 0xfffffeb8
 164:	0000d114 	andeq	sp, r0, r4, lsl r1
 168:	00230200 	eoreq	r0, r3, r0, lsl #4
 16c:	0037ab0a 	eorseq	sl, r7, sl, lsl #22
 170:	147e0400 	ldrbtne	r0, [lr], #-1024	; 0xfffffc00
 174:	000000d1 	ldrdeq	r0, [r0], -r1
 178:	09042302 	stmdbeq	r4, {r1, r8, r9, sp}
 17c:	00524943 	subseq	r4, r2, r3, asr #18
 180:	d1147f04 	tstle	r4, r4, lsl #30
 184:	02000000 	andeq	r0, r0, #0
 188:	4b0a0823 	blmi	28221c <_Min_Stack_Size+0x281e1c>
 18c:	04000050 	streq	r0, [r0], #-80	; 0xffffffb0
 190:	00d11480 	sbcseq	r1, r1, r0, lsl #9
 194:	23020000 	movwcs	r0, #8192	; 0x2000
 198:	646b0a0c 	strbtvs	r0, [fp], #-2572	; 0xfffff5f4
 19c:	81040000 	mrshi	r0, (UNDEF: 4)
 1a0:	0000d114 	andeq	sp, r0, r4, lsl r1
 1a4:	10230200 	eorne	r0, r3, r0, lsl #4
 1a8:	007e0f0a 	rsbseq	r0, lr, sl, lsl #30
 1ac:	14820400 	strne	r0, [r2], #1024	; 0x400
 1b0:	000000d1 	ldrdeq	r0, [r0], -r1
 1b4:	0a142302 	beq	508dc4 <_Min_Stack_Size+0x5089c4>
 1b8:	00001bfc 	strdeq	r1, [r0], -ip
 1bc:	d1148304 	tstle	r4, r4, lsl #6
 1c0:	02000000 	andeq	r0, r0, #0
 1c4:	de0a1823 	cdple	8, 0, cr1, cr10, cr3, {1}
 1c8:	04000064 	streq	r0, [r0], #-100	; 0xffffff9c
 1cc:	00d11484 	sbcseq	r1, r1, r4, lsl #9
 1d0:	23020000 	movwcs	r0, #8192	; 0x2000
 1d4:	32a30a1c 	adccc	r0, r3, #28, 20	; 0x1c000
 1d8:	85040000 	strhi	r0, [r4, #-0]
 1dc:	0000d114 	andeq	sp, r0, r4, lsl r1
 1e0:	20230200 	eorcs	r0, r3, r0, lsl #4
 1e4:	52534309 	subspl	r4, r3, #603979776	; 0x24000000
 1e8:	14860400 	strne	r0, [r6], #1024	; 0x400
 1ec:	000000d1 	ldrdeq	r0, [r0], -r1
 1f0:	0a242302 	beq	908e00 <_Min_Stack_Size+0x908a00>
 1f4:	0000282b 	andeq	r2, r0, fp, lsr #16
 1f8:	d1148704 	tstle	r4, r4, lsl #14
 1fc:	02000000 	andeq	r0, r0, #0
 200:	990a2823 	stmdbls	sl, {r0, r1, r5, fp, sp}
 204:	04000056 	streq	r0, [r0], #-86	; 0xffffffaa
 208:	00d11488 	sbcseq	r1, r1, r8, lsl #9
 20c:	23020000 	movwcs	r0, #8192	; 0x2000
 210:	d904002c 	stmdble	r4, {r2, r3, r5}
 214:	04000085 	streq	r0, [r0], #-133	; 0xffffff7b
 218:	01550289 	cmpeq	r5, r9, lsl #5
 21c:	0c080000 	stceq	0, cr0, [r8], {-0}
 220:	64091405 	strvs	r1, [r9], #-1029	; 0xfffffbfb
 224:	0a000002 	beq	234 <_Min_Heap_Size+0x34>
 228:	00004f3b 	andeq	r4, r0, fp, lsr pc
 22c:	b91e1505 	ldmdblt	lr, {r0, r2, r8, sl, ip}
 230:	02000000 	andeq	r0, r0, #0
 234:	3d0a0023 	stccc	0, cr0, [sl, #-140]	; 0xffffff74
 238:	05000069 	streq	r0, [r0, #-105]	; 0xffffff97
 23c:	02641e16 	rsbeq	r1, r4, #352	; 0x160
 240:	23020000 	movwcs	r0, #8192	; 0x2000
 244:	69f50a04 	ldmibvs	r5!, {r2, r9, fp}^
 248:	17050000 	strne	r0, [r5, -r0]
 24c:	0000b91e 	andeq	fp, r0, lr, lsl r9
 250:	08230200 	stmdaeq	r3!, {r9}
 254:	008d150a 	addeq	r1, sp, sl, lsl #10
 258:	1e180500 	cfmul32ne	mvfx0, mvfx8, mvfx0
 25c:	000000ad 	andeq	r0, r0, sp, lsr #1
 260:	000a2302 	andeq	r2, sl, r2, lsl #6
 264:	01490405 	cmpeq	r9, r5, lsl #8
 268:	65040000 	strvs	r0, [r4, #-0]
 26c:	05000019 	streq	r0, [r0, #-25]	; 0xffffffe7
 270:	021e0219 	andseq	r0, lr, #-1879048191	; 0x90000001
 274:	14080000 	strne	r0, [r8], #-0
 278:	bc091c05 	stclt	12, cr1, [r9], {5}
 27c:	0a000002 	beq	28c <_Min_Heap_Size+0x8c>
 280:	000050dc 	ldrdeq	r5, [r0], -ip
 284:	6a191d05 	bvs	6476a0 <_Min_Stack_Size+0x6472a0>
 288:	02000002 	andeq	r0, r0, #2
 28c:	500a0023 	andpl	r0, sl, r3, lsr #32
 290:	05000085 	streq	r0, [r0, #-133]	; 0xffffff7b
 294:	00ad0b20 	adceq	r0, sp, r0, lsr #22
 298:	23020000 	movwcs	r0, #8192	; 0x2000
 29c:	70b60a0c 	adcsvc	r0, r6, ip, lsl #20
 2a0:	23050000 	movwcs	r0, #20480	; 0x5000
 2a4:	0000ad0b 	andeq	sl, r0, fp, lsl #26
 2a8:	0d230200 	sfmeq	f0, 4, [r3, #-0]
 2ac:	0094c00a 	addseq	ip, r4, sl
 2b0:	08260500 	stmdaeq	r6!, {r8, sl}
 2b4:	0000009e 	muleq	r0, lr, r0
 2b8:	00102302 	andseq	r2, r0, r2, lsl #6
 2bc:	002cea04 	eoreq	lr, ip, r4, lsl #20
 2c0:	02270500 	eoreq	r0, r7, #0, 10
 2c4:	00000276 	andeq	r0, r0, r6, ror r2
 2c8:	0031310b 	eorseq	r3, r1, fp, lsl #2
 2cc:	0e1e0100 	mufeqe	f0, f6, f0
 2d0:	0000002d 	andeq	r0, r0, sp, lsr #32
 2d4:	1c030501 	cfstr32ne	mvfx0, [r3], {1}
 2d8:	0c200000 	stceq	0, cr0, [r0], #-0
 2dc:	00545701 	subseq	r5, r4, r1, lsl #14
 2e0:	06db0500 	ldrbeq	r0, [fp], r0, lsl #10
 2e4:	02f00101 	rscseq	r0, r0, #1073741824	; 0x40000000
 2e8:	f00d0000 			; <UNDEFINED> instruction: 0xf00d0000
 2ec:	00000002 	andeq	r0, r0, r2
 2f0:	02bc0405 	adcseq	r0, ip, #83886080	; 0x5000000
 2f4:	010e0000 	mrseq	r0, (UNDEF: 14)
 2f8:	000019ee 	andeq	r1, r0, lr, ror #19
 2fc:	34052501 	strcc	r2, [r5], #-1281	; 0xfffffaff
 300:	88000000 	stmdahi	r0, {}	; <UNPREDICTABLE>
 304:	f0080001 			; <UNDEFINED> instruction: 0xf0080001
 308:	00080001 	andeq	r0, r8, r1
 30c:	01000000 	mrseq	r0, (UNDEF: 0)
 310:	00000324 	andeq	r0, r0, r4, lsr #6
 314:	0076df0f 	rsbseq	sp, r6, pc, lsl #30
 318:	132c0100 			; <UNDEFINED> instruction: 0x132c0100
 31c:	000002bc 			; <UNDEFINED> instruction: 0x000002bc
 320:	00649102 	rsbeq	r9, r4, r2, lsl #2
 324:	5a920110 	bpl	fe48076c <_estack+0xde47df6c>
 328:	20010000 	andcs	r0, r1, r0
 32c:	01700106 	cmneq	r0, r6, lsl #2
 330:	01880800 	orreq	r0, r8, r0, lsl #16
 334:	00380800 	eorseq	r0, r8, r0, lsl #16
 338:	00010000 	andeq	r0, r1, r0
 33c:	0000001e 	andeq	r0, r0, lr, lsl r0
 340:	00fc0002 	rscseq	r0, ip, r2
 344:	01040000 	mrseq	r0, (UNDEF: 4)
 348:	00000714 	andeq	r0, r0, r4, lsl r7
 34c:	00000018 	andeq	r0, r0, r8, lsl r0
 350:	0000935b 	andeq	r9, r0, fp, asr r3
 354:	0000347d 	andeq	r3, r0, sp, ror r4
 358:	0000937e 	andeq	r9, r0, lr, ror r3
 35c:	05268001 	streq	r8, [r6, #-1]!
 360:	00020000 	andeq	r0, r2, r0
 364:	0000010e 	andeq	r0, r0, lr, lsl #2
 368:	2a3c0104 	bcs	f00780 <_Min_Stack_Size+0xf00380>
 36c:	310c0000 	mrscc	r0, (UNDEF: 12)
 370:	7d000094 	stcvc	0, cr0, [r0, #-592]	; 0xfffffdb0
 374:	38000034 	stmdacc	r0, {r2, r4, r5}
	...
 380:	98000000 	stmdals	r0, {}	; <UNPREDICTABLE>
 384:	09000007 	stmdbeq	r0, {r0, r1, r2}
 388:	0200001f 	andeq	r0, r0, #31
 38c:	21b90704 			; <UNDEFINED> instruction: 0x21b90704
 390:	04030000 	streq	r0, [r3], #-0
 394:	746e6905 	strbtvc	r6, [lr], #-2309	; 0xfffff6fb
 398:	05080200 	streq	r0, [r8, #-512]	; 0xfffffe00
 39c:	000050ac 	andeq	r5, r0, ip, lsr #1
 3a0:	0c040802 	stceq	8, cr0, [r4], {2}
 3a4:	02000003 	andeq	r0, r0, #3
 3a8:	06fe0601 	ldrbteq	r0, [lr], r1, lsl #12
 3ac:	87040000 	strhi	r0, [r4, -r0]
 3b0:	02000012 	andeq	r0, r0, #18
 3b4:	005c182b 	subseq	r1, ip, fp, lsr #16
 3b8:	01020000 	mrseq	r0, (UNDEF: 2)
 3bc:	00318908 	eorseq	r8, r1, r8, lsl #18
 3c0:	05020200 	streq	r0, [r2, #-512]	; 0xfffffe00
 3c4:	00000a08 	andeq	r0, r0, r8, lsl #20
 3c8:	002b3204 	eoreq	r3, fp, r4, lsl #4
 3cc:	19390200 	ldmdbne	r9!, {r9}
 3d0:	00000076 	andeq	r0, r0, r6, ror r0
 3d4:	e1070202 	tst	r7, r2, lsl #4
 3d8:	02000068 	andeq	r0, r0, #104	; 0x68
 3dc:	6c500504 	cfldr64vs	mvdx0, [r0], {4}
 3e0:	ab040000 	blge	1003e8 <_Min_Stack_Size+0xfffe8>
 3e4:	0200003e 	andeq	r0, r0, #62	; 0x3e
 3e8:	0090194f 	addseq	r1, r0, pc, asr #18
 3ec:	04020000 	streq	r0, [r2], #-0
 3f0:	001b0507 	andseq	r0, fp, r7, lsl #10
 3f4:	07080200 	streq	r0, [r8, -r0, lsl #4]
 3f8:	00003b11 	andeq	r3, r0, r1, lsl fp
 3fc:	00a40405 	adceq	r0, r4, r5, lsl #8
 400:	01060000 	mrseq	r0, (UNDEF: 6)
 404:	05080102 	streq	r0, [r8, #-258]	; 0xfffffefe
 408:	04000007 	streq	r0, [r0], #-7
 40c:	00001289 	andeq	r1, r0, r9, lsl #5
 410:	50131803 	andspl	r1, r3, r3, lsl #16
 414:	04000000 	streq	r0, [r0], #-0
 418:	00002b34 	andeq	r2, r0, r4, lsr fp
 41c:	6a142403 	bvs	509430 <_Min_Stack_Size+0x509030>
 420:	04000000 	streq	r0, [r0], #-0
 424:	00003ead 	andeq	r3, r0, sp, lsr #29
 428:	84143003 	ldrhi	r3, [r4], #-3
 42c:	07000000 	streq	r0, [r0, -r0]
 430:	000000c5 	andeq	r0, r0, r5, asr #1
 434:	64041c08 	strvs	r1, [r4], #-3080	; 0xfffff3f8
 438:	00014909 	andeq	r4, r1, r9, lsl #18
 43c:	52430900 	subpl	r0, r3, #0, 18
 440:	6604004c 	strvs	r0, [r4], -ip, asr #32
 444:	0000d114 	andeq	sp, r0, r4, lsl r1
 448:	00230200 	eoreq	r0, r3, r0, lsl #4
 44c:	48524309 	ldmdami	r2, {r0, r3, r8, r9, lr}^
 450:	14670400 	strbtne	r0, [r7], #-1024	; 0xfffffc00
 454:	000000d1 	ldrdeq	r0, [r0], -r1
 458:	09042302 	stmdbeq	r4, {r1, r8, r9, sp}
 45c:	00524449 	subseq	r4, r2, r9, asr #8
 460:	d1146804 	tstle	r4, r4, lsl #16
 464:	02000000 	andeq	r0, r0, #0
 468:	4f090823 	svcmi	0x00090823
 46c:	04005244 	streq	r5, [r0], #-580	; 0xfffffdbc
 470:	00d11469 	sbcseq	r1, r1, r9, ror #8
 474:	23020000 	movwcs	r0, #8192	; 0x2000
 478:	7fe50a0c 	svcvc	0x00e50a0c
 47c:	6a040000 	bvs	100484 <_Min_Stack_Size+0x100084>
 480:	0000d114 	andeq	sp, r0, r4, lsl r1
 484:	10230200 	eorne	r0, r3, r0, lsl #4
 488:	52524209 	subspl	r4, r2, #-1879048192	; 0x90000000
 48c:	146b0400 	strbtne	r0, [fp], #-1024	; 0xfffffc00
 490:	000000d1 	ldrdeq	r0, [r0], -r1
 494:	0a142302 	beq	5090a4 <_Min_Stack_Size+0x508ca4>
 498:	000043e6 	andeq	r4, r0, r6, ror #7
 49c:	d1146c04 	tstle	r4, r4, lsl #24
 4a0:	02000000 	andeq	r0, r0, #0
 4a4:	04001823 	streq	r1, [r0], #-2083	; 0xfffff7dd
 4a8:	00005562 	andeq	r5, r0, r2, ror #10
 4ac:	d6026d04 	strle	r6, [r2], -r4, lsl #26
 4b0:	08000000 	stmdaeq	r0, {}	; <UNPREDICTABLE>
 4b4:	09700420 	ldmdbeq	r0!, {r5, sl}^
 4b8:	000001aa 	andeq	r0, r0, sl, lsr #3
 4bc:	0095840a 	addseq	r8, r5, sl, lsl #8
 4c0:	14720400 	ldrbtne	r0, [r2], #-1024	; 0xfffffc00
 4c4:	000000d1 	ldrdeq	r0, [r0], -r1
 4c8:	0a002302 	beq	90d8 <_Min_Stack_Size+0x8cd8>
 4cc:	000094ee 	andeq	r9, r0, lr, ror #9
 4d0:	d1147304 	tstle	r4, r4, lsl #6
 4d4:	02000000 	andeq	r0, r0, #0
 4d8:	9b0a0423 	blls	28156c <_Min_Stack_Size+0x28116c>
 4dc:	04000093 	streq	r0, [r0], #-147	; 0xffffff6d
 4e0:	01ba1474 			; <UNDEFINED> instruction: 0x01ba1474
 4e4:	23020000 	movwcs	r0, #8192	; 0x2000
 4e8:	959e0a08 	ldrls	r0, [lr, #2568]	; 0xa08
 4ec:	75040000 	strvc	r0, [r4, #-0]
 4f0:	0000c50d 	andeq	ip, r0, sp, lsl #10
 4f4:	18230200 	stmdane	r3!, {r9}
 4f8:	0094030a 	addseq	r0, r4, sl, lsl #6
 4fc:	14760400 	ldrbtne	r0, [r6], #-1024	; 0xfffffc00
 500:	000000d1 	ldrdeq	r0, [r0], -r1
 504:	001c2302 	andseq	r2, ip, r2, lsl #6
 508:	0000d10b 	andeq	sp, r0, fp, lsl #2
 50c:	0001ba00 	andeq	fp, r1, r0, lsl #20
 510:	002d0c00 	eoreq	r0, sp, r0, lsl #24
 514:	00030000 	andeq	r0, r3, r0
 518:	0001aa07 	andeq	sl, r1, r7, lsl #20
 51c:	95230400 	strls	r0, [r3, #-1024]!	; 0xfffffc00
 520:	77040000 	strvc	r0, [r4, -r0]
 524:	00015502 	andeq	r5, r1, r2, lsl #10
 528:	04180800 	ldreq	r0, [r8], #-2048	; 0xfffff800
 52c:	022e098c 	eoreq	r0, lr, #140, 18	; 0x230000
 530:	49090000 	stmdbmi	r9, {}	; <UNPREDICTABLE>
 534:	0400524d 	streq	r5, [r0], #-589	; 0xfffffdb3
 538:	00d1148e 	sbcseq	r1, r1, lr, lsl #9
 53c:	23020000 	movwcs	r0, #8192	; 0x2000
 540:	4d450900 	vstrmi.16	s1, [r5, #-0]	; <UNPREDICTABLE>
 544:	8f040052 	svchi	0x00040052
 548:	0000d114 	andeq	sp, r0, r4, lsl r1
 54c:	04230200 	strteq	r0, [r3], #-512	; 0xfffffe00
 550:	0093bd0a 	addseq	fp, r3, sl, lsl #26
 554:	14900400 	ldrne	r0, [r0], #1024	; 0x400
 558:	000000d1 	ldrdeq	r0, [r0], -r1
 55c:	0a082302 	beq	20916c <_Min_Stack_Size+0x208d6c>
 560:	000093a2 	andeq	r9, r0, r2, lsr #7
 564:	d1149104 	tstle	r4, r4, lsl #2
 568:	02000000 	andeq	r0, r0, #0
 56c:	e80a0c23 	stmda	sl, {r0, r1, r5, sl, fp}
 570:	04000094 	streq	r0, [r0], #-148	; 0xffffff6c
 574:	00d11492 	smullseq	r1, r1, r2, r4	; <UNPREDICTABLE>
 578:	23020000 	movwcs	r0, #8192	; 0x2000
 57c:	52500910 	subspl	r0, r0, #16, 18	; 0x40000
 580:	14930400 	ldrne	r0, [r3], #1024	; 0x400
 584:	000000d1 	ldrdeq	r0, [r0], -r1
 588:	00142302 	andseq	r2, r4, r2, lsl #6
 58c:	0094cf04 	addseq	ip, r4, r4, lsl #30
 590:	02940400 	addseq	r0, r4, #0, 8
 594:	000001cb 	andeq	r0, r0, fp, asr #3
 598:	15050408 	strne	r0, [r5, #-1032]	; 0xfffffbf8
 59c:	00027109 	andeq	r7, r2, r9, lsl #2
 5a0:	95410a00 	strbls	r0, [r1, #-2560]	; 0xfffff600
 5a4:	16050000 	strne	r0, [r5], -r0
 5a8:	0000b90c 	andeq	fp, r0, ip, lsl #18
 5ac:	00230200 	eoreq	r0, r3, r0, lsl #4
 5b0:	0093c20a 	addseq	ip, r3, sl, lsl #4
 5b4:	0c180500 	cfldr32eq	mvfx0, [r8], {-0}
 5b8:	000000ad 	andeq	r0, r0, sp, lsr #1
 5bc:	0a022302 	beq	891cc <_Min_Stack_Size+0x88dcc>
 5c0:	0000941f 	andeq	r9, r0, pc, lsl r4
 5c4:	ad0c1905 	vstrge.16	s2, [ip, #-10]	; <UNPREDICTABLE>
 5c8:	02000000 	andeq	r0, r0, #0
 5cc:	04000323 	streq	r0, [r0], #-803	; 0xfffffcdd
 5d0:	000093f2 	strdeq	r9, [r0], -r2
 5d4:	3a021b05 	bcc	871f0 <_Min_Stack_Size+0x86df0>
 5d8:	08000002 	stmdaeq	r0, {r1}
 5dc:	0914060c 	ldmdbeq	r4, {r2, r3, r9, sl}
 5e0:	000002c3 	andeq	r0, r0, r3, asr #5
 5e4:	004f3b0a 	subeq	r3, pc, sl, lsl #22
 5e8:	1e150600 	cfmsub32ne	mvax0, mvfx0, mvfx5, mvfx0
 5ec:	000000b9 	strheq	r0, [r0], -r9
 5f0:	0a002302 	beq	9200 <_Min_Stack_Size+0x8e00>
 5f4:	0000693d 	andeq	r6, r0, sp, lsr r9
 5f8:	c31e1606 	tstgt	lr, #6291456	; 0x600000
 5fc:	02000002 	andeq	r0, r0, #2
 600:	f50a0423 			; <UNDEFINED> instruction: 0xf50a0423
 604:	06000069 	streq	r0, [r0], -r9, rrx
 608:	00b91e17 	adcseq	r1, r9, r7, lsl lr
 60c:	23020000 	movwcs	r0, #8192	; 0x2000
 610:	8d150a08 	vldrhi	s0, [r5, #-32]	; 0xffffffe0
 614:	18060000 	stmdane	r6, {}	; <UNPREDICTABLE>
 618:	0000ad1e 	andeq	sl, r0, lr, lsl sp
 61c:	0a230200 	beq	8c0e24 <_Min_Stack_Size+0x8c0a24>
 620:	49040500 	stmdbmi	r4, {r8, sl}
 624:	04000001 	streq	r0, [r0], #-1
 628:	00001965 	andeq	r1, r0, r5, ror #18
 62c:	7d021906 	vstrvc.16	s2, [r2, #-12]	; <UNPREDICTABLE>
 630:	08000002 	stmdaeq	r0, {r1}
 634:	091c0614 	ldmdbeq	ip, {r2, r4, r9, sl}
 638:	0000031b 	andeq	r0, r0, fp, lsl r3
 63c:	0050dc0a 	subseq	sp, r0, sl, lsl #24
 640:	191d0600 	ldmdbne	sp, {r9, sl}
 644:	000002c9 	andeq	r0, r0, r9, asr #5
 648:	0a002302 	beq	9258 <_Min_Stack_Size+0x8e58>
 64c:	00008550 	andeq	r8, r0, r0, asr r5
 650:	ad0b2006 	stcge	0, cr2, [fp, #-24]	; 0xffffffe8
 654:	02000000 	andeq	r0, r0, #0
 658:	b60a0c23 	strlt	r0, [sl], -r3, lsr #24
 65c:	06000070 			; <UNDEFINED> instruction: 0x06000070
 660:	00ad0b23 	adceq	r0, sp, r3, lsr #22
 664:	23020000 	movwcs	r0, #8192	; 0x2000
 668:	94c00a0d 	strbls	r0, [r0], #2573	; 0xa0d
 66c:	26060000 	strcs	r0, [r6], -r0
 670:	00009e08 	andeq	r9, r0, r8, lsl #28
 674:	10230200 	eorne	r0, r3, r0, lsl #4
 678:	2cea0400 	cfstrdcs	mvd0, [sl]
 67c:	27060000 	strcs	r0, [r6, -r0]
 680:	0002d502 	andeq	sp, r2, r2, lsl #10
 684:	009e0b00 	addseq	r0, lr, r0, lsl #22
 688:	03370000 	teqeq	r7, #0
 68c:	2d0c0000 	stccs	0, cr0, [ip, #-0]
 690:	0e000000 	cdpeq	0, 0, cr0, cr0, cr0, {0}
 694:	94bf0d00 	ldrtls	r0, [pc], #3328	; 69c <_Min_Stack_Size+0x29c>
 698:	0d010000 	stceq	0, cr0, [r1, #-0]
 69c:	00032709 	andeq	r2, r3, r9, lsl #14
 6a0:	03050100 	movweq	r0, #20736	; 0x5100
 6a4:	20000020 	andcs	r0, r0, r0, lsr #32
 6a8:	938c010e 	orrls	r0, ip, #-2147483645	; 0x80000003
 6ac:	62050000 	andvs	r0, r5, #0
 6b0:	64010106 	strvs	r0, [r1], #-262	; 0xfffffefa
 6b4:	0f000003 	svceq	0x00000003
 6b8:	000002c3 	andeq	r0, r0, r3, asr #5
 6bc:	0003640f 	andeq	r6, r3, pc, lsl #8
 6c0:	04050000 	streq	r0, [r5], #-0
 6c4:	00000271 	andeq	r0, r0, r1, ror r2
 6c8:	95890110 	strls	r0, [r9, #272]	; 0x110
 6cc:	02010000 	andeq	r0, r1, #0
 6d0:	18010601 	stmdane	r1, {r0, r9, sl}
 6d4:	dc080007 	stcle	0, cr0, [r8], {7}
 6d8:	7c080007 	stcvc	0, cr0, [r8], {7}
 6dc:	01000000 	mrseq	r0, (UNDEF: 0)
 6e0:	95100111 	ldrls	r0, [r0, #-273]	; 0xfffffeef
 6e4:	fa010000 	blx	406ec <_Min_Stack_Size+0x402ec>
 6e8:	06700106 	ldrbteq	r0, [r0], -r6, lsl #2
 6ec:	07180800 	ldreq	r0, [r8, -r0, lsl #16]
 6f0:	00a80800 	adceq	r0, r8, r0, lsl #16
 6f4:	11010000 	mrsne	r0, (UNDEF: 1)
 6f8:	0093cc01 	addseq	ip, r3, r1, lsl #24
 6fc:	06f40100 	ldrbteq	r0, [r4], r0, lsl #2
 700:	00064c01 	andeq	r4, r6, r1, lsl #24
 704:	00067008 	andeq	r7, r6, r8
 708:	0000d408 	andeq	sp, r0, r8, lsl #8
 70c:	01110100 	tsteq	r1, r0, lsl #2
 710:	00009550 	andeq	r9, r0, r0, asr r5
 714:	0106ef01 	tsteq	r6, r1, lsl #30
 718:	08000628 	stmdaeq	r0, {r3, r5, r9, sl}
 71c:	0800064c 	stmdaeq	r0, {r2, r3, r6, r9, sl}
 720:	00000100 	andeq	r0, r0, r0, lsl #2
 724:	f3011101 	vrhadd.u8	d1, d1, d1
 728:	01000094 	swpeq	r0, r4, [r0]	; <UNPREDICTABLE>
 72c:	040106ea 	streq	r0, [r1], #-1770	; 0xfffff916
 730:	28080006 	stmdacs	r8, {r1, r2}
 734:	2c080006 	stccs	0, cr0, [r8], {6}
 738:	01000001 	tsteq	r0, r1
 73c:	95b40111 	ldrls	r0, [r4, #273]!	; 0x111
 740:	e5010000 	str	r0, [r1, #-0]
 744:	05e00106 	strbeq	r0, [r0, #262]!	; 0x106
 748:	06040800 	streq	r0, [r4], -r0, lsl #16
 74c:	01580800 	cmpeq	r8, r0, lsl #16
 750:	11010000 	mrsne	r0, (UNDEF: 1)
 754:	00957301 	addseq	r7, r5, r1, lsl #6
 758:	06e00100 	strbteq	r0, [r0], r0, lsl #2
 75c:	0005bc01 	andeq	fp, r5, r1, lsl #24
 760:	0005e008 	andeq	lr, r5, r8
 764:	00018408 	andeq	r8, r1, r8, lsl #8
 768:	01120100 	tsteq	r2, r0, lsl #2
 76c:	00005457 	andeq	r5, r0, r7, asr r4
 770:	0106d801 	tsteq	r6, r1, lsl #16
 774:	080005a4 	stmdaeq	r0, {r2, r5, r7, r8, sl}
 778:	080005ba 	stmdaeq	r0, {r1, r3, r4, r5, r7, r8, sl}
 77c:	000001b0 			; <UNDEFINED> instruction: 0x000001b0
 780:	00043701 	andeq	r3, r4, r1, lsl #14
 784:	95321300 	ldrls	r1, [r2, #-768]!	; 0xfffffd00
 788:	d8010000 	stmdale	r1, {}	; <UNPREDICTABLE>
 78c:	0004372d 	andeq	r3, r4, sp, lsr #14
 790:	74910200 	ldrvc	r0, [r1], #512	; 0x200
 794:	1b040500 	blne	101b9c <_Min_Stack_Size+0x10179c>
 798:	12000003 	andne	r0, r0, #3
 79c:	0093a701 	addseq	sl, r3, r1, lsl #14
 7a0:	06c90100 	strbeq	r0, [r9], r0, lsl #2
 7a4:	00000001 	andeq	r0, r0, r1
 7a8:	00000000 	andeq	r0, r0, r0
 7ac:	00020000 	andeq	r0, r2, r0
 7b0:	04680100 	strbteq	r0, [r8], #-256	; 0xffffff00
 7b4:	32130000 	andscc	r0, r3, #0
 7b8:	01000095 	swpeq	r0, r5, [r0]	; <UNPREDICTABLE>
 7bc:	04372fc9 	ldrteq	r2, [r7], #-4041	; 0xfffff037
 7c0:	91020000 	mrsls	r0, (UNDEF: 2)
 7c4:	01140074 	tsteq	r4, r4, ror r0
 7c8:	00009409 	andeq	r9, r0, r9, lsl #8
 7cc:	0106a701 	tsteq	r6, r1, lsl #14
	...
 7d8:	00000250 	andeq	r0, r0, r0, asr r2
 7dc:	04011201 	streq	r1, [r1], #-513	; 0xfffffdff
 7e0:	01000095 	swpeq	r0, r5, [r0]	; <UNPREDICTABLE>
 7e4:	d4010665 	strle	r0, [r1], #-1637	; 0xfffff99b
 7e8:	a4080003 	strge	r0, [r8], #-3
 7ec:	94080005 	strls	r0, [r8], #-5
 7f0:	01000002 	tsteq	r0, r2
 7f4:	000004d7 	ldrdeq	r0, [r0], -r7
 7f8:	00953213 	addseq	r3, r5, r3, lsl r2
 7fc:	25650100 	strbcs	r0, [r5, #-256]!	; 0xffffff00
 800:	00000437 	andeq	r0, r0, r7, lsr r4
 804:	156c9102 	strbne	r9, [ip, #-258]!	; 0xfffffefe
 808:	000094de 	ldrdeq	r9, [r0], -lr
 80c:	71136701 	tstvc	r3, r1, lsl #14
 810:	02000002 	andeq	r0, r0, #2
 814:	61157091 			; <UNDEFINED> instruction: 0x61157091
 818:	01000095 	swpeq	r0, r5, [r0]	; <UNPREDICTABLE>
 81c:	00ad0a71 	adceq	r0, sp, r1, ror sl
 820:	91020000 	mrsls	r0, (UNDEF: 2)
 824:	93dd1577 	bicsls	r1, sp, #499122176	; 0x1dc00000
 828:	73010000 	movwvc	r0, #4096	; 0x1000
 82c:	0000ad0a 	andeq	sl, r0, sl, lsl #26
 830:	76910200 	ldrvc	r0, [r1], r0, lsl #4
 834:	a7011600 	strge	r1, [r1, -r0, lsl #12]
 838:	01000095 	swpeq	r0, r5, [r0]	; <UNPREDICTABLE>
 83c:	0c010635 	stceq	6, cr0, [r1], {53}	; 0x35
 840:	d4080003 	strle	r0, [r8], #-3
 844:	e4080003 	str	r0, [r8], #-3
 848:	01000002 	tsteq	r0, r2
 84c:	00000502 	andeq	r0, r0, r2, lsl #10
 850:	00946513 	addseq	r6, r4, r3, lsl r5
 854:	1c350100 	ldfnes	f0, [r5], #-0
 858:	000000b9 	strheq	r0, [r0], -r9
 85c:	00769102 	rsbseq	r9, r6, r2, lsl #2
 860:	95c50117 	strbls	r0, [r5, #279]	; 0x117
 864:	11010000 	mrsne	r0, (UNDEF: 1)
 868:	02440106 	subeq	r0, r4, #-2147483647	; 0x80000001
 86c:	030c0800 	movweq	r0, #51200	; 0xc800
 870:	03400800 	movteq	r0, #2048	; 0x800
 874:	13010000 	movwne	r0, #4096	; 0x1000
 878:	00009465 	andeq	r9, r0, r5, ror #8
 87c:	b91b1101 	ldmdblt	fp, {r0, r8, ip}
 880:	02000000 	andeq	r0, r0, #0
 884:	00007691 	muleq	r0, r1, r6
 888:	00000461 	andeq	r0, r0, r1, ror #8
 88c:	02970002 	addseq	r0, r7, #2
 890:	01040000 	mrseq	r0, (UNDEF: 4)
 894:	00002a3c 	andeq	r2, r0, ip, lsr sl
 898:	0095d10c 	addseq	sp, r5, ip, lsl #2
 89c:	00347d00 	eorseq	r7, r4, r0, lsl #26
 8a0:	0000a800 	andeq	sl, r0, r0, lsl #16
	...
 8ac:	0012b000 	andseq	fp, r2, r0
 8b0:	00213600 	eoreq	r3, r1, r0, lsl #12
 8b4:	07040200 	streq	r0, [r4, -r0, lsl #4]
 8b8:	000021b9 			; <UNDEFINED> instruction: 0x000021b9
 8bc:	69050403 	stmdbvs	r5, {r0, r1, sl}
 8c0:	0200746e 	andeq	r7, r0, #1845493760	; 0x6e000000
 8c4:	50ac0508 	adcpl	r0, ip, r8, lsl #10
 8c8:	08020000 	stmdaeq	r2, {}	; <UNPREDICTABLE>
 8cc:	00030c04 	andeq	r0, r3, r4, lsl #24
 8d0:	06010200 	streq	r0, [r1], -r0, lsl #4
 8d4:	000006fe 	strdeq	r0, [r0], -lr
 8d8:	00128704 	andseq	r8, r2, r4, lsl #14
 8dc:	182b0200 	stmdane	fp!, {r9}
 8e0:	0000005c 	andeq	r0, r0, ip, asr r0
 8e4:	89080102 	stmdbhi	r8, {r1, r8}
 8e8:	02000031 	andeq	r0, r0, #49	; 0x31
 8ec:	0a080502 	beq	201cfc <_Min_Stack_Size+0x2018fc>
 8f0:	32040000 	andcc	r0, r4, #0
 8f4:	0200002b 	andeq	r0, r0, #43	; 0x2b
 8f8:	00761939 	rsbseq	r1, r6, r9, lsr r9
 8fc:	02020000 	andeq	r0, r2, #0
 900:	0068e107 	rsbeq	lr, r8, r7, lsl #2
 904:	05040200 	streq	r0, [r4, #-512]	; 0xfffffe00
 908:	00006c50 	andeq	r6, r0, r0, asr ip
 90c:	003eab04 	eorseq	sl, lr, r4, lsl #22
 910:	194f0200 	stmdbne	pc, {r9}^	; <UNPREDICTABLE>
 914:	00000090 	muleq	r0, r0, r0
 918:	05070402 	streq	r0, [r7, #-1026]	; 0xfffffbfe
 91c:	0200001b 	andeq	r0, r0, #27
 920:	3b110708 	blcc	442548 <_Min_Stack_Size+0x442148>
 924:	01020000 	mrseq	r0, (UNDEF: 2)
 928:	00070508 	andeq	r0, r7, r8, lsl #10
 92c:	12890400 	addne	r0, r9, #0, 8
 930:	18030000 	stmdane	r3, {}	; <UNPREDICTABLE>
 934:	00005013 	andeq	r5, r0, r3, lsl r0
 938:	2b340400 	blcs	d01940 <_Min_Stack_Size+0xd01540>
 93c:	24030000 	strcs	r0, [r3], #-0
 940:	00006a14 	andeq	r6, r0, r4, lsl sl
 944:	3ead0400 	cdpcc	4, 10, cr0, cr13, cr0, {0}
 948:	30030000 	andcc	r0, r3, r0
 94c:	00008414 	andeq	r8, r0, r4, lsl r4
 950:	00bd0500 	adcseq	r0, sp, r0, lsl #10
 954:	1c060000 	stcne	0, cr0, [r6], {-0}
 958:	41096404 	tstmi	r9, r4, lsl #8
 95c:	07000001 	streq	r0, [r0, -r1]
 960:	004c5243 	subeq	r5, ip, r3, asr #4
 964:	c9146604 	ldmdbgt	r4, {r2, r9, sl, sp, lr}
 968:	02000000 	andeq	r0, r0, #0
 96c:	43070023 	movwmi	r0, #28707	; 0x7023
 970:	04004852 	streq	r4, [r0], #-2130	; 0xfffff7ae
 974:	00c91467 	sbceq	r1, r9, r7, ror #8
 978:	23020000 	movwcs	r0, #8192	; 0x2000
 97c:	44490704 	strbmi	r0, [r9], #-1796	; 0xfffff8fc
 980:	68040052 	stmdavs	r4, {r1, r4, r6}
 984:	0000c914 	andeq	ip, r0, r4, lsl r9
 988:	08230200 	stmdaeq	r3!, {r9}
 98c:	52444f07 	subpl	r4, r4, #7, 30
 990:	14690400 	strbtne	r0, [r9], #-1024	; 0xfffffc00
 994:	000000c9 	andeq	r0, r0, r9, asr #1
 998:	080c2302 	stmdaeq	ip, {r1, r8, r9, sp}
 99c:	00007fe5 	andeq	r7, r0, r5, ror #31
 9a0:	c9146a04 	ldmdbgt	r4, {r2, r9, fp, sp, lr}
 9a4:	02000000 	andeq	r0, r0, #0
 9a8:	42071023 	andmi	r1, r7, #35	; 0x23
 9ac:	04005252 	streq	r5, [r0], #-594	; 0xfffffdae
 9b0:	00c9146b 	sbceq	r1, r9, fp, ror #8
 9b4:	23020000 	movwcs	r0, #8192	; 0x2000
 9b8:	43e60814 	mvnmi	r0, #20, 16	; 0x140000
 9bc:	6c040000 	stcvs	0, cr0, [r4], {-0}
 9c0:	0000c914 	andeq	ip, r0, r4, lsl r9
 9c4:	18230200 	stmdane	r3!, {r9}
 9c8:	55620400 	strbpl	r0, [r2, #-1024]!	; 0xfffffc00
 9cc:	6d040000 	stcvs	0, cr0, [r4, #-0]
 9d0:	0000ce02 	andeq	ip, r0, r2, lsl #28
 9d4:	04300600 	ldrteq	r0, [r0], #-1536	; 0xfffffa00
 9d8:	020a097b 	andeq	r0, sl, #2015232	; 0x1ec000
 9dc:	43070000 	movwmi	r0, #28672	; 0x7000
 9e0:	7d040052 	stcvc	0, cr0, [r4, #-328]	; 0xfffffeb8
 9e4:	0000c914 	andeq	ip, r0, r4, lsl r9
 9e8:	00230200 	eoreq	r0, r3, r0, lsl #4
 9ec:	0037ab08 	eorseq	sl, r7, r8, lsl #22
 9f0:	147e0400 	ldrbtne	r0, [lr], #-1024	; 0xfffffc00
 9f4:	000000c9 	andeq	r0, r0, r9, asr #1
 9f8:	07042302 	streq	r2, [r4, -r2, lsl #6]
 9fc:	00524943 	subseq	r4, r2, r3, asr #18
 a00:	c9147f04 	ldmdbgt	r4, {r2, r8, r9, sl, fp, ip, sp, lr}
 a04:	02000000 	andeq	r0, r0, #0
 a08:	4b080823 	blmi	202a9c <_Min_Stack_Size+0x20269c>
 a0c:	04000050 	streq	r0, [r0], #-80	; 0xffffffb0
 a10:	00c91480 	sbceq	r1, r9, r0, lsl #9
 a14:	23020000 	movwcs	r0, #8192	; 0x2000
 a18:	646b080c 	strbtvs	r0, [fp], #-2060	; 0xfffff7f4
 a1c:	81040000 	mrshi	r0, (UNDEF: 4)
 a20:	0000c914 	andeq	ip, r0, r4, lsl r9
 a24:	10230200 	eorne	r0, r3, r0, lsl #4
 a28:	007e0f08 	rsbseq	r0, lr, r8, lsl #30
 a2c:	14820400 	strne	r0, [r2], #1024	; 0x400
 a30:	000000c9 	andeq	r0, r0, r9, asr #1
 a34:	08142302 	ldmdaeq	r4, {r1, r8, r9, sp}
 a38:	00001bfc 	strdeq	r1, [r0], -ip
 a3c:	c9148304 	ldmdbgt	r4, {r2, r8, r9, pc}
 a40:	02000000 	andeq	r0, r0, #0
 a44:	de081823 	cdple	8, 0, cr1, cr8, cr3, {1}
 a48:	04000064 	streq	r0, [r0], #-100	; 0xffffff9c
 a4c:	00c91484 	sbceq	r1, r9, r4, lsl #9
 a50:	23020000 	movwcs	r0, #8192	; 0x2000
 a54:	32a3081c 	adccc	r0, r3, #28, 16	; 0x1c0000
 a58:	85040000 	strhi	r0, [r4, #-0]
 a5c:	0000c914 	andeq	ip, r0, r4, lsl r9
 a60:	20230200 	eorcs	r0, r3, r0, lsl #4
 a64:	52534307 	subspl	r4, r3, #469762048	; 0x1c000000
 a68:	14860400 	strne	r0, [r6], #1024	; 0x400
 a6c:	000000c9 	andeq	r0, r0, r9, asr #1
 a70:	08242302 	stmdaeq	r4!, {r1, r8, r9, sp}
 a74:	0000282b 	andeq	r2, r0, fp, lsr #16
 a78:	c9148704 	ldmdbgt	r4, {r2, r8, r9, sl, pc}
 a7c:	02000000 	andeq	r0, r0, #0
 a80:	99082823 	stmdbls	r8, {r0, r1, r5, fp, sp}
 a84:	04000056 	streq	r0, [r0], #-86	; 0xffffffaa
 a88:	00c91488 	sbceq	r1, r9, r8, lsl #9
 a8c:	23020000 	movwcs	r0, #8192	; 0x2000
 a90:	d904002c 	stmdble	r4, {r2, r3, r5}
 a94:	04000085 	streq	r0, [r0], #-133	; 0xffffff7b
 a98:	014d0289 	smlalbbeq	r0, sp, r9, r2
 a9c:	04060000 	streq	r0, [r6], #-0
 aa0:	4d091505 	cfstr32mi	mvfx1, [r9, #-20]	; 0xffffffec
 aa4:	08000002 	stmdaeq	r0, {r1}
 aa8:	00009541 	andeq	r9, r0, r1, asr #10
 aac:	b10c1605 	tstlt	ip, r5, lsl #12
 ab0:	02000000 	andeq	r0, r0, #0
 ab4:	c2080023 	andgt	r0, r8, #35	; 0x23
 ab8:	05000093 	streq	r0, [r0, #-147]	; 0xffffff6d
 abc:	00a50c18 	adceq	r0, r5, r8, lsl ip
 ac0:	23020000 	movwcs	r0, #8192	; 0x2000
 ac4:	941f0802 	ldrls	r0, [pc], #-2050	; acc <_Min_Stack_Size+0x6cc>
 ac8:	19050000 	stmdbne	r5, {}	; <UNPREDICTABLE>
 acc:	0000a50c 	andeq	sl, r0, ip, lsl #10
 ad0:	03230200 			; <UNDEFINED> instruction: 0x03230200
 ad4:	93f20400 	mvnsls	r0, #0, 8
 ad8:	1b050000 	blne	140ae0 <_Min_Stack_Size+0x1406e0>
 adc:	00021602 	andeq	r1, r2, r2, lsl #12
 ae0:	27010900 	strcs	r0, [r1, -r0, lsl #18]
 ae4:	01000096 	swpeq	r0, r6, [r0]	; <UNPREDICTABLE>
 ae8:	0106010a 	tsteq	r6, sl, lsl #2
	...
 af4:	0000039c 	muleq	r0, ip, r3
 af8:	00029601 	andeq	r9, r2, r1, lsl #12
 afc:	963b0a00 	ldrtls	r0, [fp], -r0, lsl #20
 b00:	0a010000 	beq	40b08 <_Min_Stack_Size+0x40708>
 b04:	02962a01 	addseq	r2, r6, #4096	; 0x1000
 b08:	91020000 	mrsls	r0, (UNDEF: 2)
 b0c:	95460a74 	strbls	r0, [r6, #-2676]	; 0xfffff58c
 b10:	0a010000 	beq	40b18 <_Min_Stack_Size+0x40718>
 b14:	00b13a01 	adcseq	r3, r1, r1, lsl #20
 b18:	91020000 	mrsls	r0, (UNDEF: 2)
 b1c:	040b0072 	streq	r0, [fp], #-114	; 0xffffff8e
 b20:	00000141 	andeq	r0, r0, r1, asr #2
 b24:	965e010c 	ldrbls	r0, [lr], -ip, lsl #2
 b28:	eb010000 	bl	40b30 <_Min_Stack_Size+0x40730>
 b2c:	00000106 	andeq	r0, r0, r6, lsl #2
 b30:	00000000 	andeq	r0, r0, r0
 b34:	03f80000 	mvnseq	r0, #0
 b38:	e5010000 	str	r0, [r1, #-0]
 b3c:	0d000002 	stceq	0, cr0, [r0, #-8]
 b40:	0000963b 	andeq	r9, r0, fp, lsr r6
 b44:	9629eb01 	strtls	lr, [r9], -r1, lsl #22
 b48:	02000002 	andeq	r0, r0, #2
 b4c:	460d7491 			; <UNDEFINED> instruction: 0x460d7491
 b50:	01000095 	swpeq	r0, r5, [r0]	; <UNPREDICTABLE>
 b54:	00b139eb 	adcseq	r3, r1, fp, ror #19
 b58:	91020000 	mrsls	r0, (UNDEF: 2)
 b5c:	96170d72 			; <UNDEFINED> instruction: 0x96170d72
 b60:	eb010000 	bl	40b68 <_Min_Stack_Size+0x40768>
 b64:	0000a54c 	andeq	sl, r0, ip, asr #10
 b68:	71910200 	orrsvc	r0, r1, r0, lsl #4
 b6c:	71010c00 	tstvc	r1, r0, lsl #24
 b70:	01000096 	swpeq	r0, r6, [r0]	; <UNPREDICTABLE>
 b74:	000106dc 	ldrdeq	r0, [r1], -ip
 b78:	00000000 	andeq	r0, r0, r0
 b7c:	54000000 	strpl	r0, [r0], #-0
 b80:	01000004 	tsteq	r0, r4
 b84:	0000031f 	andeq	r0, r0, pc, lsl r3
 b88:	00963b0d 	addseq	r3, r6, sp, lsl #22
 b8c:	2adc0100 	bcs	ff700f94 <_estack+0xdf6fe794>
 b90:	00000296 	muleq	r0, r6, r2
 b94:	0d749102 	ldfeqp	f1, [r4, #-8]!
 b98:	00009617 	andeq	r9, r0, r7, lsl r6
 b9c:	a539dc01 	ldrge	sp, [r9, #-3073]!	; 0xfffff3ff
 ba0:	02000000 	andeq	r0, r0, #0
 ba4:	0e007391 	mcreq	3, 0, r7, cr0, cr1, {4}
 ba8:	0096a001 	addseq	sl, r6, r1
 bac:	0ac90100 	beq	ff240fb4 <_estack+0xdf23e7b4>
 bb0:	0000b101 	andeq	fp, r0, r1, lsl #2
	...
 bbc:	0004b000 	andeq	fp, r4, r0
 bc0:	035d0100 	cmpeq	sp, #0, 2
 bc4:	3b0d0000 	blcc	340bcc <_Min_Stack_Size+0x3407cc>
 bc8:	01000096 	swpeq	r0, r6, [r0]	; <UNPREDICTABLE>
 bcc:	02962dc9 	addseq	r2, r6, #12864	; 0x3240
 bd0:	91020000 	mrsls	r0, (UNDEF: 2)
 bd4:	96850f6c 	strls	r0, [r5], ip, ror #30
 bd8:	cb010000 	blgt	40be0 <_Min_Stack_Size+0x407e0>
 bdc:	0000b10b 	andeq	fp, r0, fp, lsl #2
 be0:	76910200 	ldrvc	r0, [r1], r0, lsl #4
 be4:	41010e00 	tstmi	r1, r0, lsl #28
 be8:	01000096 	swpeq	r0, r6, [r0]	; <UNPREDICTABLE>
 bec:	a50109b2 	strge	r0, [r1, #-2482]	; 0xfffff64e
	...
 bf8:	0c000000 	stceq	0, cr0, [r0], {-0}
 bfc:	01000005 	tsteq	r0, r5
 c00:	000003aa 	andeq	r0, r0, sl, lsr #7
 c04:	00963b0d 	addseq	r3, r6, sp, lsl #22
 c08:	2bb20100 	blcs	fec81010 <_estack+0xdec7e810>
 c0c:	00000296 	muleq	r0, r6, r2
 c10:	0d6c9102 	stfeqp	f1, [ip, #-8]!
 c14:	00009546 	andeq	r9, r0, r6, asr #10
 c18:	b13bb201 	teqlt	fp, r1, lsl #4
 c1c:	02000000 	andeq	r0, r0, #0
 c20:	b30f6a91 	movwlt	r6, #64145	; 0xfa91
 c24:	01000096 	swpeq	r0, r6, [r0]	; <UNPREDICTABLE>
 c28:	00a50ab4 	strhteq	r0, [r5], r4
 c2c:	91020000 	mrsls	r0, (UNDEF: 2)
 c30:	010c0077 	tsteq	ip, r7, ror r0
 c34:	0000968f 	andeq	r9, r0, pc, lsl #13
 c38:	01068b01 	tsteq	r6, r1, lsl #22
	...
 c44:	00000568 	andeq	r0, r0, r8, ror #10
 c48:	0003d501 	andeq	sp, r3, r1, lsl #10
 c4c:	963b0d00 	ldrtls	r0, [fp], -r0, lsl #26
 c50:	8b010000 	blhi	40c58 <_Min_Stack_Size+0x40858>
 c54:	00029627 	andeq	r9, r2, r7, lsr #12
 c58:	74910200 	ldrvc	r0, [r1], #512	; 0x200
 c5c:	8c011000 	stchi	0, cr1, [r1], {-0}
 c60:	01000093 	swpeq	r0, r3, [r0]	; <UNPREDICTABLE>
 c64:	4c010651 	stcmi	6, cr0, [r1], {81}	; 0x51
 c68:	44080009 	strmi	r0, [r8], #-9
 c6c:	c408000a 	strgt	r0, [r8], #-10
 c70:	01000005 	tsteq	r0, r5
 c74:	0000042d 	andeq	r0, r0, sp, lsr #8
 c78:	00963b0d 	addseq	r3, r6, sp, lsl #22
 c7c:	25510100 	ldrbcs	r0, [r1, #-256]	; 0xffffff00
 c80:	00000296 	muleq	r0, r6, r2
 c84:	0d649102 	stfeqp	f1, [r4, #-8]!
 c88:	0000961d 	andeq	r9, r0, sp, lsl r6
 c8c:	2d3e5101 	ldfcss	f5, [lr, #-4]!
 c90:	02000004 	andeq	r0, r0, #4
 c94:	bd0f6091 	stclt	0, cr6, [pc, #-580]	; a58 <_Min_Stack_Size+0x658>
 c98:	01000096 	swpeq	r0, r6, [r0]	; <UNPREDICTABLE>
 c9c:	04331653 	ldrteq	r1, [r3], #-1619	; 0xfffff9ad
 ca0:	91020000 	mrsls	r0, (UNDEF: 2)
 ca4:	96530f68 	ldrbls	r0, [r3], -r8, ror #30
 ca8:	54010000 	strpl	r0, [r1], #-0
 cac:	0000a50a 	andeq	sl, r0, sl, lsl #10
 cb0:	6f910200 	svcvs	0x00910200
 cb4:	4d040b00 	vstrmi	d0, [r4, #-0]
 cb8:	0b000002 	bleq	cc8 <_Min_Stack_Size+0x8c8>
 cbc:	0000c904 	andeq	ip, r0, r4, lsl #18
 cc0:	05011100 	streq	r1, [r1, #-256]	; 0xffffff00
 cc4:	01000096 	swpeq	r0, r6, [r0]	; <UNPREDICTABLE>
 cc8:	a5010917 	strge	r0, [r1, #-2327]	; 0xfffff6e9
 ccc:	dc000000 	stcle	0, cr0, [r0], {-0}
 cd0:	4a080007 	bmi	200cf4 <_Min_Stack_Size+0x2008f4>
 cd4:	14080009 	strne	r0, [r8], #-9
 cd8:	01000006 	tsteq	r0, r6
 cdc:	0095460d 	addseq	r4, r5, sp, lsl #12
 ce0:	24170100 	ldrcs	r0, [r7], #-256	; 0xffffff00
 ce4:	000000b1 	strheq	r0, [r0], -r1
 ce8:	00769102 	rsbseq	r9, r6, r2, lsl #2
	...

Disassembly of section .debug_abbrev:

00000000 <.debug_abbrev>:
   0:	25011101 	strcs	r1, [r1, #-257]	; 0xfffffeff
   4:	030b130e 	movweq	r1, #45838	; 0xb30e
   8:	550e1b0e 	strpl	r1, [lr, #-2830]	; 0xfffff4f2
   c:	52011106 	andpl	r1, r1, #-2147483647	; 0x80000001
  10:	99061001 	stmdbls	r6, {r0, ip}
  14:	00000642 	andeq	r0, r0, r2, asr #12
  18:	0b002402 	bleq	9028 <_Min_Stack_Size+0x8c28>
  1c:	030b3e0b 	movweq	r3, #48651	; 0xbe0b
  20:	0300000e 	movweq	r0, #14
  24:	0b0b0024 	bleq	2c00bc <_Min_Stack_Size+0x2bfcbc>
  28:	08030b3e 	stmdaeq	r3, {r1, r2, r3, r4, r5, r8, r9, fp}
  2c:	16040000 	strne	r0, [r4], -r0
  30:	3a0e0300 	bcc	380c38 <_Min_Stack_Size+0x380838>
  34:	390b3b0b 	stmdbcc	fp, {r0, r1, r3, r8, r9, fp, ip, sp}
  38:	0013490b 	andseq	r4, r3, fp, lsl #18
  3c:	000f0500 	andeq	r0, pc, r0, lsl #10
  40:	13490b0b 	movtne	r0, #39691	; 0x9b0b
  44:	15060000 	strne	r0, [r6, #-0]
  48:	000c2700 	andeq	r2, ip, r0, lsl #14
  4c:	00350700 	eorseq	r0, r5, r0, lsl #14
  50:	00001349 	andeq	r1, r0, r9, asr #6
  54:	0b011308 	bleq	44c7c <_Min_Stack_Size+0x4487c>
  58:	3b0b3a0b 	blcc	2ce88c <_Min_Stack_Size+0x2ce48c>
  5c:	010b390b 	tsteq	fp, fp, lsl #18
  60:	09000013 	stmdbeq	r0, {r0, r1, r4}
  64:	0803000d 	stmdaeq	r3, {r0, r2, r3}
  68:	0b3b0b3a 	bleq	ec2d58 <_Min_Stack_Size+0xec2958>
  6c:	13490b39 	movtne	r0, #39737	; 0x9b39
  70:	00000a38 	andeq	r0, r0, r8, lsr sl
  74:	03000d0a 	movweq	r0, #3338	; 0xd0a
  78:	3b0b3a0e 	blcc	2ce8b8 <_Min_Stack_Size+0x2ce4b8>
  7c:	490b390b 	stmdbmi	fp, {r0, r1, r3, r8, fp, ip, sp}
  80:	000a3813 	andeq	r3, sl, r3, lsl r8
  84:	00340b00 	eorseq	r0, r4, r0, lsl #22
  88:	0b3a0e03 	bleq	e8389c <_Min_Stack_Size+0xe8349c>
  8c:	0b390b3b 	bleq	e42d80 <_Min_Stack_Size+0xe42980>
  90:	0c3f1349 	ldceq	3, cr1, [pc], #-292	; ffffff74 <_estack+0xdfffd774>
  94:	00000a02 	andeq	r0, r0, r2, lsl #20
  98:	3f012e0c 	svccc	0x00012e0c
  9c:	3a0e030c 	bcc	380cd4 <_Min_Stack_Size+0x3808d4>
  a0:	390b3b0b 	stmdbcc	fp, {r0, r1, r3, r8, r9, fp, ip, sp}
  a4:	3c0c270b 	stccc	7, cr2, [ip], {11}
  a8:	0013010c 	andseq	r0, r3, ip, lsl #2
  ac:	00050d00 	andeq	r0, r5, r0, lsl #26
  b0:	00001349 	andeq	r1, r0, r9, asr #6
  b4:	3f012e0e 	svccc	0x00012e0e
  b8:	3a0e030c 	bcc	380cf0 <_Min_Stack_Size+0x3808f0>
  bc:	390b3b0b 	stmdbcc	fp, {r0, r1, r3, r8, r9, fp, ip, sp}
  c0:	1113490b 	tstne	r3, fp, lsl #18
  c4:	40011201 	andmi	r1, r1, r1, lsl #4
  c8:	0c429606 	mcrreq	6, 0, r9, r2, cr6
  cc:	00001301 	andeq	r1, r0, r1, lsl #6
  d0:	0300340f 	movweq	r3, #1039	; 0x40f
  d4:	3b0b3a0e 	blcc	2ce914 <_Min_Stack_Size+0x2ce514>
  d8:	490b390b 	stmdbmi	fp, {r0, r1, r3, r8, fp, ip, sp}
  dc:	000a0213 	andeq	r0, sl, r3, lsl r2
  e0:	002e1000 	eoreq	r1, lr, r0
  e4:	0e030c3f 	mcreq	12, 0, r0, cr3, cr15, {1}
  e8:	0b3b0b3a 	bleq	ec2dd8 <_Min_Stack_Size+0xec29d8>
  ec:	0c270b39 			; <UNDEFINED> instruction: 0x0c270b39
  f0:	01120111 	tsteq	r2, r1, lsl r1
  f4:	42970640 	addsmi	r0, r7, #64, 12	; 0x4000000
  f8:	0000000c 	andeq	r0, r0, ip
  fc:	10001101 	andne	r1, r0, r1, lsl #2
 100:	03065506 	movweq	r5, #25862	; 0x6506
 104:	250e1b0e 	strcs	r1, [lr, #-2830]	; 0xfffff4f2
 108:	0005130e 	andeq	r1, r5, lr, lsl #6
 10c:	11010000 	mrsne	r0, (UNDEF: 1)
 110:	130e2501 	movwne	r2, #58625	; 0xe501
 114:	1b0e030b 	blne	380d48 <_Min_Stack_Size+0x380948>
 118:	1106550e 	tstne	r6, lr, lsl #10
 11c:	10015201 	andne	r5, r1, r1, lsl #4
 120:	06429906 	strbeq	r9, [r2], -r6, lsl #18
 124:	24020000 	strcs	r0, [r2], #-0
 128:	3e0b0b00 	vmlacc.f64	d0, d11, d0
 12c:	000e030b 	andeq	r0, lr, fp, lsl #6
 130:	00240300 	eoreq	r0, r4, r0, lsl #6
 134:	0b3e0b0b 	bleq	f82d68 <_Min_Stack_Size+0xf82968>
 138:	00000803 	andeq	r0, r0, r3, lsl #16
 13c:	03001604 	movweq	r1, #1540	; 0x604
 140:	3b0b3a0e 	blcc	2ce980 <_Min_Stack_Size+0x2ce580>
 144:	490b390b 	stmdbmi	fp, {r0, r1, r3, r8, fp, ip, sp}
 148:	05000013 	streq	r0, [r0, #-19]	; 0xffffffed
 14c:	0b0b000f 	bleq	2c0190 <_Min_Stack_Size+0x2bfd90>
 150:	00001349 	andeq	r1, r0, r9, asr #6
 154:	27001506 	strcs	r1, [r0, -r6, lsl #10]
 158:	0700000c 	streq	r0, [r0, -ip]
 15c:	13490035 	movtne	r0, #36917	; 0x9035
 160:	13080000 	movwne	r0, #32768	; 0x8000
 164:	3a0b0b01 	bcc	2c2d70 <_Min_Stack_Size+0x2c2970>
 168:	390b3b0b 	stmdbcc	fp, {r0, r1, r3, r8, r9, fp, ip, sp}
 16c:	0013010b 	andseq	r0, r3, fp, lsl #2
 170:	000d0900 	andeq	r0, sp, r0, lsl #18
 174:	0b3a0803 	bleq	e82188 <_Min_Stack_Size+0xe81d88>
 178:	0b390b3b 	bleq	e42e6c <_Min_Stack_Size+0xe42a6c>
 17c:	0a381349 	beq	e04ea8 <_Min_Stack_Size+0xe04aa8>
 180:	0d0a0000 	stceq	0, cr0, [sl, #-0]
 184:	3a0e0300 	bcc	380d8c <_Min_Stack_Size+0x38098c>
 188:	390b3b0b 	stmdbcc	fp, {r0, r1, r3, r8, r9, fp, ip, sp}
 18c:	3813490b 	ldmdacc	r3, {r0, r1, r3, r8, fp, lr}
 190:	0b00000a 	bleq	1c0 <_Min_Heap_Size-0x40>
 194:	13490101 	movtne	r0, #37121	; 0x9101
 198:	00001301 	andeq	r1, r0, r1, lsl #6
 19c:	4900210c 	stmdbmi	r0, {r2, r3, r8, sp}
 1a0:	000b2f13 	andeq	r2, fp, r3, lsl pc
 1a4:	00340d00 	eorseq	r0, r4, r0, lsl #26
 1a8:	0b3a0e03 	bleq	e839bc <_Min_Stack_Size+0xe835bc>
 1ac:	0b390b3b 	bleq	e42ea0 <_Min_Stack_Size+0xe42aa0>
 1b0:	0c3f1349 	ldceq	3, cr1, [pc], #-292	; 94 <_Min_Heap_Size-0x16c>
 1b4:	00000a02 	andeq	r0, r0, r2, lsl #20
 1b8:	3f012e0e 	svccc	0x00012e0e
 1bc:	3a0e030c 	bcc	380df4 <_Min_Stack_Size+0x3809f4>
 1c0:	390b3b0b 	stmdbcc	fp, {r0, r1, r3, r8, r9, fp, ip, sp}
 1c4:	3c0c270b 	stccc	7, cr2, [ip], {11}
 1c8:	0013010c 	andseq	r0, r3, ip, lsl #2
 1cc:	00050f00 	andeq	r0, r5, r0, lsl #30
 1d0:	00001349 	andeq	r1, r0, r9, asr #6
 1d4:	3f002e10 	svccc	0x00002e10
 1d8:	3a0e030c 	bcc	380e10 <_Min_Stack_Size+0x380a10>
 1dc:	39053b0b 	stmdbcc	r5, {r0, r1, r3, r8, r9, fp, ip, sp}
 1e0:	110c270b 	tstne	ip, fp, lsl #14
 1e4:	40011201 	andmi	r1, r1, r1, lsl #4
 1e8:	0c429606 	mcrreq	6, 0, r9, r2, cr6
 1ec:	2e110000 	cdpcs	0, 1, cr0, cr1, cr0, {0}
 1f0:	030c3f00 	movweq	r3, #52992	; 0xcf00
 1f4:	3b0b3a0e 	blcc	2cea34 <_Min_Stack_Size+0x2ce634>
 1f8:	270b390b 	strcs	r3, [fp, -fp, lsl #18]
 1fc:	1201110c 	andne	r1, r1, #12, 2
 200:	96064001 	strls	r4, [r6], -r1
 204:	00000c42 	andeq	r0, r0, r2, asr #24
 208:	3f012e12 	svccc	0x00012e12
 20c:	3a0e030c 	bcc	380e44 <_Min_Stack_Size+0x380a44>
 210:	390b3b0b 	stmdbcc	fp, {r0, r1, r3, r8, r9, fp, ip, sp}
 214:	110c270b 	tstne	ip, fp, lsl #14
 218:	40011201 	andmi	r1, r1, r1, lsl #4
 21c:	0c429606 	mcrreq	6, 0, r9, r2, cr6
 220:	00001301 	andeq	r1, r0, r1, lsl #6
 224:	03000513 	movweq	r0, #1299	; 0x513
 228:	3b0b3a0e 	blcc	2cea68 <_Min_Stack_Size+0x2ce668>
 22c:	490b390b 	stmdbmi	fp, {r0, r1, r3, r8, fp, ip, sp}
 230:	000a0213 	andeq	r0, sl, r3, lsl r2
 234:	002e1400 	eoreq	r1, lr, r0, lsl #8
 238:	0e030c3f 	mcreq	12, 0, r0, cr3, cr15, {1}
 23c:	0b3b0b3a 	bleq	ec2f2c <_Min_Stack_Size+0xec2b2c>
 240:	0c270b39 			; <UNDEFINED> instruction: 0x0c270b39
 244:	01120111 	tsteq	r2, r1, lsl r1
 248:	42970640 	addsmi	r0, r7, #64, 12	; 0x4000000
 24c:	1500000c 	strne	r0, [r0, #-12]
 250:	0e030034 	mcreq	0, 0, r0, cr3, cr4, {1}
 254:	0b3b0b3a 	bleq	ec2f44 <_Min_Stack_Size+0xec2b44>
 258:	13490b39 	movtne	r0, #39737	; 0x9b39
 25c:	00000a02 	andeq	r0, r0, r2, lsl #20
 260:	3f012e16 	svccc	0x00012e16
 264:	3a0e030c 	bcc	380e9c <_Min_Stack_Size+0x380a9c>
 268:	390b3b0b 	stmdbcc	fp, {r0, r1, r3, r8, r9, fp, ip, sp}
 26c:	110c270b 	tstne	ip, fp, lsl #14
 270:	40011201 	andmi	r1, r1, r1, lsl #4
 274:	0c429706 	mcrreq	7, 0, r9, r2, cr6
 278:	00001301 	andeq	r1, r0, r1, lsl #6
 27c:	3f012e17 	svccc	0x00012e17
 280:	3a0e030c 	bcc	380eb8 <_Min_Stack_Size+0x380ab8>
 284:	390b3b0b 	stmdbcc	fp, {r0, r1, r3, r8, r9, fp, ip, sp}
 288:	110c270b 	tstne	ip, fp, lsl #14
 28c:	40011201 	andmi	r1, r1, r1, lsl #4
 290:	0c429706 	mcrreq	7, 0, r9, r2, cr6
 294:	01000000 	mrseq	r0, (UNDEF: 0)
 298:	0e250111 	mcreq	1, 1, r0, cr5, cr1, {0}
 29c:	0e030b13 	vmoveq.32	d3[0], r0
 2a0:	06550e1b 			; <UNDEFINED> instruction: 0x06550e1b
 2a4:	01520111 	cmpeq	r2, r1, lsl r1
 2a8:	42990610 	addsmi	r0, r9, #16, 12	; 0x1000000
 2ac:	02000006 	andeq	r0, r0, #6
 2b0:	0b0b0024 	bleq	2c0348 <_Min_Stack_Size+0x2bff48>
 2b4:	0e030b3e 	vmoveq.16	d3[0], r0
 2b8:	24030000 	strcs	r0, [r3], #-0
 2bc:	3e0b0b00 	vmlacc.f64	d0, d11, d0
 2c0:	0008030b 	andeq	r0, r8, fp, lsl #6
 2c4:	00160400 	andseq	r0, r6, r0, lsl #8
 2c8:	0b3a0e03 	bleq	e83adc <_Min_Stack_Size+0xe836dc>
 2cc:	0b390b3b 	bleq	e42fc0 <_Min_Stack_Size+0xe42bc0>
 2d0:	00001349 	andeq	r1, r0, r9, asr #6
 2d4:	49003505 	stmdbmi	r0, {r0, r2, r8, sl, ip, sp}
 2d8:	06000013 			; <UNDEFINED> instruction: 0x06000013
 2dc:	0b0b0113 	bleq	2c0730 <_Min_Stack_Size+0x2c0330>
 2e0:	0b3b0b3a 	bleq	ec2fd0 <_Min_Stack_Size+0xec2bd0>
 2e4:	13010b39 	movwne	r0, #6969	; 0x1b39
 2e8:	0d070000 	stceq	0, cr0, [r7, #-0]
 2ec:	3a080300 	bcc	200ef4 <_Min_Stack_Size+0x200af4>
 2f0:	390b3b0b 	stmdbcc	fp, {r0, r1, r3, r8, r9, fp, ip, sp}
 2f4:	3813490b 	ldmdacc	r3, {r0, r1, r3, r8, fp, lr}
 2f8:	0800000a 	stmdaeq	r0, {r1, r3}
 2fc:	0e03000d 	cdpeq	0, 0, cr0, cr3, cr13, {0}
 300:	0b3b0b3a 	bleq	ec2ff0 <_Min_Stack_Size+0xec2bf0>
 304:	13490b39 	movtne	r0, #39737	; 0x9b39
 308:	00000a38 	andeq	r0, r0, r8, lsr sl
 30c:	3f012e09 	svccc	0x00012e09
 310:	3a0e030c 	bcc	380f48 <_Min_Stack_Size+0x380b48>
 314:	39053b0b 	stmdbcc	r5, {r0, r1, r3, r8, r9, fp, ip, sp}
 318:	110c270b 	tstne	ip, fp, lsl #14
 31c:	40011201 	andmi	r1, r1, r1, lsl #4
 320:	0c429706 	mcrreq	7, 0, r9, r2, cr6
 324:	00001301 	andeq	r1, r0, r1, lsl #6
 328:	0300050a 	movweq	r0, #1290	; 0x50a
 32c:	3b0b3a0e 	blcc	2ceb6c <_Min_Stack_Size+0x2ce76c>
 330:	490b3905 	stmdbmi	fp, {r0, r2, r8, fp, ip, sp}
 334:	000a0213 	andeq	r0, sl, r3, lsl r2
 338:	000f0b00 	andeq	r0, pc, r0, lsl #22
 33c:	13490b0b 	movtne	r0, #39691	; 0x9b0b
 340:	2e0c0000 	cdpcs	0, 0, cr0, cr12, cr0, {0}
 344:	030c3f01 	movweq	r3, #52993	; 0xcf01
 348:	3b0b3a0e 	blcc	2ceb88 <_Min_Stack_Size+0x2ce788>
 34c:	270b390b 	strcs	r3, [fp, -fp, lsl #18]
 350:	1201110c 	andne	r1, r1, #12, 2
 354:	97064001 	strls	r4, [r6, -r1]
 358:	13010c42 	movwne	r0, #7234	; 0x1c42
 35c:	050d0000 	streq	r0, [sp, #-0]
 360:	3a0e0300 	bcc	380f68 <_Min_Stack_Size+0x380b68>
 364:	390b3b0b 	stmdbcc	fp, {r0, r1, r3, r8, r9, fp, ip, sp}
 368:	0213490b 	andseq	r4, r3, #180224	; 0x2c000
 36c:	0e00000a 	cdpeq	0, 0, cr0, cr0, cr10, {0}
 370:	0c3f012e 	ldfeqs	f0, [pc], #-184	; 2c0 <_Min_Heap_Size+0xc0>
 374:	0b3a0e03 	bleq	e83b88 <_Min_Stack_Size+0xe83788>
 378:	0b390b3b 	bleq	e4306c <_Min_Stack_Size+0xe42c6c>
 37c:	13490c27 	movtne	r0, #39975	; 0x9c27
 380:	01120111 	tsteq	r2, r1, lsl r1
 384:	42970640 	addsmi	r0, r7, #64, 12	; 0x4000000
 388:	0013010c 	andseq	r0, r3, ip, lsl #2
 38c:	00340f00 	eorseq	r0, r4, r0, lsl #30
 390:	0b3a0e03 	bleq	e83ba4 <_Min_Stack_Size+0xe837a4>
 394:	0b390b3b 	bleq	e43088 <_Min_Stack_Size+0xe42c88>
 398:	0a021349 	beq	850c4 <_Min_Stack_Size+0x84cc4>
 39c:	2e100000 	cdpcs	0, 1, cr0, cr0, cr0, {0}
 3a0:	030c3f01 	movweq	r3, #52993	; 0xcf01
 3a4:	3b0b3a0e 	blcc	2cebe4 <_Min_Stack_Size+0x2ce7e4>
 3a8:	270b390b 	strcs	r3, [fp, -fp, lsl #18]
 3ac:	1201110c 	andne	r1, r1, #12, 2
 3b0:	96064001 	strls	r4, [r6], -r1
 3b4:	13010c42 	movwne	r0, #7234	; 0x1c42
 3b8:	2e110000 	cdpcs	0, 1, cr0, cr1, cr0, {0}
 3bc:	030c3f01 	movweq	r3, #52993	; 0xcf01
 3c0:	3b0b3a0e 	blcc	2cec00 <_Min_Stack_Size+0x2ce800>
 3c4:	270b390b 	strcs	r3, [fp, -fp, lsl #18]
 3c8:	1113490c 	tstne	r3, ip, lsl #18
 3cc:	40011201 	andmi	r1, r1, r1, lsl #4
 3d0:	0c429706 	mcrreq	7, 0, r9, r2, cr6
 3d4:	Address 0x00000000000003d4 is out of bounds.


Disassembly of section .debug_loc:

00000000 <.debug_loc>:
   0:	08000188 	stmdaeq	r0, {r3, r7, r8}
   4:	0800018a 	stmdaeq	r0, {r1, r3, r7, r8}
   8:	007d0002 	rsbseq	r0, sp, r2
   c:	0800018a 	stmdaeq	r0, {r1, r3, r7, r8}
  10:	0800018c 	stmdaeq	r0, {r2, r3, r7, r8}
  14:	087d0002 	ldmdaeq	sp!, {r1}^
  18:	0800018c 	stmdaeq	r0, {r2, r3, r7, r8}
  1c:	0800018e 	stmdaeq	r0, {r1, r2, r3, r7, r8}
  20:	287d0002 	ldmdacs	sp!, {r1}^
  24:	0800018e 	stmdaeq	r0, {r1, r2, r3, r7, r8}
  28:	080001f0 	stmdaeq	r0, {r4, r5, r6, r7, r8}
  2c:	28770002 	ldmdacs	r7!, {r1}^
	...
  38:	08000170 	stmdaeq	r0, {r4, r5, r6, r8}
  3c:	08000172 	stmdaeq	r0, {r1, r4, r5, r6, r8}
  40:	007d0002 	rsbseq	r0, sp, r2
  44:	08000172 	stmdaeq	r0, {r1, r4, r5, r6, r8}
  48:	08000174 	stmdaeq	r0, {r2, r4, r5, r6, r8}
  4c:	047d0002 	ldrbteq	r0, [sp], #-2
  50:	08000174 	stmdaeq	r0, {r2, r4, r5, r6, r8}
  54:	0800017e 	stmdaeq	r0, {r1, r2, r3, r4, r5, r6, r8}
  58:	04770002 	ldrbteq	r0, [r7], #-2
  5c:	0800017e 	stmdaeq	r0, {r1, r2, r3, r4, r5, r6, r8}
  60:	08000180 	stmdaeq	r0, {r7, r8}
  64:	047d0002 	ldrbteq	r0, [sp], #-2
  68:	08000180 	stmdaeq	r0, {r7, r8}
  6c:	08000188 	stmdaeq	r0, {r3, r7, r8}
  70:	007d0002 	rsbseq	r0, sp, r2
	...
  7c:	08000718 	stmdaeq	r0, {r3, r4, r8, r9, sl}
  80:	0800071a 	stmdaeq	r0, {r1, r3, r4, r8, r9, sl}
  84:	007d0002 	rsbseq	r0, sp, r2
  88:	0800071a 	stmdaeq	r0, {r1, r3, r4, r8, r9, sl}
  8c:	0800071c 	stmdaeq	r0, {r2, r3, r4, r8, r9, sl}
  90:	087d0002 	ldmdaeq	sp!, {r1}^
  94:	0800071c 	stmdaeq	r0, {r2, r3, r4, r8, r9, sl}
  98:	080007dc 	stmdaeq	r0, {r2, r3, r4, r6, r7, r8, r9, sl}
  9c:	08770002 	ldmdaeq	r7!, {r1}^
	...
  a8:	08000670 	stmdaeq	r0, {r4, r5, r6, r9, sl}
  ac:	08000672 	stmdaeq	r0, {r1, r4, r5, r6, r9, sl}
  b0:	007d0002 	rsbseq	r0, sp, r2
  b4:	08000672 	stmdaeq	r0, {r1, r4, r5, r6, r9, sl}
  b8:	08000674 	stmdaeq	r0, {r2, r4, r5, r6, r9, sl}
  bc:	087d0002 	ldmdaeq	sp!, {r1}^
  c0:	08000674 	stmdaeq	r0, {r2, r4, r5, r6, r9, sl}
  c4:	08000718 	stmdaeq	r0, {r3, r4, r8, r9, sl}
  c8:	08770002 	ldmdaeq	r7!, {r1}^
	...
  d4:	0800064c 	stmdaeq	r0, {r2, r3, r6, r9, sl}
  d8:	0800064e 	stmdaeq	r0, {r1, r2, r3, r6, r9, sl}
  dc:	007d0002 	rsbseq	r0, sp, r2
  e0:	0800064e 	stmdaeq	r0, {r1, r2, r3, r6, r9, sl}
  e4:	08000650 	stmdaeq	r0, {r4, r6, r9, sl}
  e8:	087d0002 	ldmdaeq	sp!, {r1}^
  ec:	08000650 	stmdaeq	r0, {r4, r6, r9, sl}
  f0:	08000670 	stmdaeq	r0, {r4, r5, r6, r9, sl}
  f4:	08770002 	ldmdaeq	r7!, {r1}^
	...
 100:	08000628 	stmdaeq	r0, {r3, r5, r9, sl}
 104:	0800062a 	stmdaeq	r0, {r1, r3, r5, r9, sl}
 108:	007d0002 	rsbseq	r0, sp, r2
 10c:	0800062a 	stmdaeq	r0, {r1, r3, r5, r9, sl}
 110:	0800062c 	stmdaeq	r0, {r2, r3, r5, r9, sl}
 114:	087d0002 	ldmdaeq	sp!, {r1}^
 118:	0800062c 	stmdaeq	r0, {r2, r3, r5, r9, sl}
 11c:	0800064c 	stmdaeq	r0, {r2, r3, r6, r9, sl}
 120:	08770002 	ldmdaeq	r7!, {r1}^
	...
 12c:	08000604 	stmdaeq	r0, {r2, r9, sl}
 130:	08000606 	stmdaeq	r0, {r1, r2, r9, sl}
 134:	007d0002 	rsbseq	r0, sp, r2
 138:	08000606 	stmdaeq	r0, {r1, r2, r9, sl}
 13c:	08000608 	stmdaeq	r0, {r3, r9, sl}
 140:	087d0002 	ldmdaeq	sp!, {r1}^
 144:	08000608 	stmdaeq	r0, {r3, r9, sl}
 148:	08000628 	stmdaeq	r0, {r3, r5, r9, sl}
 14c:	08770002 	ldmdaeq	r7!, {r1}^
	...
 158:	080005e0 	stmdaeq	r0, {r5, r6, r7, r8, sl}
 15c:	080005e2 	stmdaeq	r0, {r1, r5, r6, r7, r8, sl}
 160:	007d0002 	rsbseq	r0, sp, r2
 164:	080005e2 	stmdaeq	r0, {r1, r5, r6, r7, r8, sl}
 168:	080005e4 	stmdaeq	r0, {r2, r5, r6, r7, r8, sl}
 16c:	087d0002 	ldmdaeq	sp!, {r1}^
 170:	080005e4 	stmdaeq	r0, {r2, r5, r6, r7, r8, sl}
 174:	08000604 	stmdaeq	r0, {r2, r9, sl}
 178:	08770002 	ldmdaeq	r7!, {r1}^
	...
 184:	080005bc 	stmdaeq	r0, {r2, r3, r4, r5, r7, r8, sl}
 188:	080005be 	stmdaeq	r0, {r1, r2, r3, r4, r5, r7, r8, sl}
 18c:	007d0002 	rsbseq	r0, sp, r2
 190:	080005be 	stmdaeq	r0, {r1, r2, r3, r4, r5, r7, r8, sl}
 194:	080005c0 	stmdaeq	r0, {r6, r7, r8, sl}
 198:	087d0002 	ldmdaeq	sp!, {r1}^
 19c:	080005c0 	stmdaeq	r0, {r6, r7, r8, sl}
 1a0:	080005e0 	stmdaeq	r0, {r5, r6, r7, r8, sl}
 1a4:	08770002 	ldmdaeq	r7!, {r1}^
	...
 1b0:	080005a4 	stmdaeq	r0, {r2, r5, r7, r8, sl}
 1b4:	080005a6 	stmdaeq	r0, {r1, r2, r5, r7, r8, sl}
 1b8:	007d0002 	rsbseq	r0, sp, r2
 1bc:	080005a6 	stmdaeq	r0, {r1, r2, r5, r7, r8, sl}
 1c0:	080005a8 	stmdaeq	r0, {r3, r5, r7, r8, sl}
 1c4:	087d0002 	ldmdaeq	sp!, {r1}^
 1c8:	080005a8 	stmdaeq	r0, {r3, r5, r7, r8, sl}
 1cc:	080005aa 	stmdaeq	r0, {r1, r3, r5, r7, r8, sl}
 1d0:	107d0002 	rsbsne	r0, sp, r2
 1d4:	080005aa 	stmdaeq	r0, {r1, r3, r5, r7, r8, sl}
 1d8:	080005b6 	stmdaeq	r0, {r1, r2, r4, r5, r7, r8, sl}
 1dc:	10770002 	rsbsne	r0, r7, r2
 1e0:	080005b6 	stmdaeq	r0, {r1, r2, r4, r5, r7, r8, sl}
 1e4:	080005b8 	stmdaeq	r0, {r3, r4, r5, r7, r8, sl}
 1e8:	08770002 	ldmdaeq	r7!, {r1}^
 1ec:	080005b8 	stmdaeq	r0, {r3, r4, r5, r7, r8, sl}
 1f0:	080005ba 	stmdaeq	r0, {r1, r3, r4, r5, r7, r8, sl}
 1f4:	087d0002 	ldmdaeq	sp!, {r1}^
	...
 208:	007d0002 	rsbseq	r0, sp, r2
	...
 214:	087d0002 	ldmdaeq	sp!, {r1}^
	...
 220:	107d0002 	rsbsne	r0, sp, r2
	...
 22c:	10770002 	rsbsne	r0, r7, r2
	...
 238:	08770002 	ldmdaeq	r7!, {r1}^
	...
 244:	087d0002 	ldmdaeq	sp!, {r1}^
	...
 258:	007d0002 	rsbseq	r0, sp, r2
	...
 264:	047d0002 	ldrbteq	r0, [sp], #-2
	...
 270:	04770002 	ldrbteq	r0, [r7], #-2
	...
 27c:	047d0002 	ldrbteq	r0, [sp], #-2
	...
 288:	007d0002 	rsbseq	r0, sp, r2
	...
 294:	080003d4 	stmdaeq	r0, {r2, r4, r6, r7, r8, r9}
 298:	080003d6 	stmdaeq	r0, {r1, r2, r4, r6, r7, r8, r9}
 29c:	007d0002 	rsbseq	r0, sp, r2
 2a0:	080003d6 	stmdaeq	r0, {r1, r2, r4, r6, r7, r8, r9}
 2a4:	080003d8 	stmdaeq	r0, {r3, r4, r6, r7, r8, r9}
 2a8:	087d0002 	ldmdaeq	sp!, {r1}^
 2ac:	080003d8 	stmdaeq	r0, {r3, r4, r6, r7, r8, r9}
 2b0:	080003da 	stmdaeq	r0, {r1, r3, r4, r6, r7, r8, r9}
 2b4:	187d0002 	ldmdane	sp!, {r1}^
 2b8:	080003da 	stmdaeq	r0, {r1, r3, r4, r6, r7, r8, r9}
 2bc:	08000584 	stmdaeq	r0, {r2, r7, r8, sl}
 2c0:	18770002 	ldmdane	r7!, {r1}^
 2c4:	08000584 	stmdaeq	r0, {r2, r7, r8, sl}
 2c8:	08000586 	stmdaeq	r0, {r1, r2, r7, r8, sl}
 2cc:	08770002 	ldmdaeq	r7!, {r1}^
 2d0:	08000586 	stmdaeq	r0, {r1, r2, r7, r8, sl}
 2d4:	080005a4 	stmdaeq	r0, {r2, r5, r7, r8, sl}
 2d8:	087d0002 	ldmdaeq	sp!, {r1}^
	...
 2e4:	0800030c 	stmdaeq	r0, {r2, r3, r8, r9}
 2e8:	0800030e 	stmdaeq	r0, {r1, r2, r3, r8, r9}
 2ec:	007d0002 	rsbseq	r0, sp, r2
 2f0:	0800030e 	stmdaeq	r0, {r1, r2, r3, r8, r9}
 2f4:	08000310 	stmdaeq	r0, {r4, r8, r9}
 2f8:	047d0002 	ldrbteq	r0, [sp], #-2
 2fc:	08000310 	stmdaeq	r0, {r4, r8, r9}
 300:	08000312 	stmdaeq	r0, {r1, r4, r8, r9}
 304:	107d0002 	rsbsne	r0, sp, r2
 308:	08000312 	stmdaeq	r0, {r1, r4, r8, r9}
 30c:	080003c6 	stmdaeq	r0, {r1, r2, r6, r7, r8, r9}
 310:	10770002 	rsbsne	r0, r7, r2
 314:	080003c6 	stmdaeq	r0, {r1, r2, r6, r7, r8, r9}
 318:	080003c8 	stmdaeq	r0, {r3, r6, r7, r8, r9}
 31c:	04770002 	ldrbteq	r0, [r7], #-2
 320:	080003c8 	stmdaeq	r0, {r3, r6, r7, r8, r9}
 324:	080003ca 	stmdaeq	r0, {r1, r3, r6, r7, r8, r9}
 328:	047d0002 	ldrbteq	r0, [sp], #-2
 32c:	080003ca 	stmdaeq	r0, {r1, r3, r6, r7, r8, r9}
 330:	080003d4 	stmdaeq	r0, {r2, r4, r6, r7, r8, r9}
 334:	007d0002 	rsbseq	r0, sp, r2
	...
 340:	08000244 	stmdaeq	r0, {r2, r6, r9}
 344:	08000246 	stmdaeq	r0, {r1, r2, r6, r9}
 348:	007d0002 	rsbseq	r0, sp, r2
 34c:	08000246 	stmdaeq	r0, {r1, r2, r6, r9}
 350:	08000248 	stmdaeq	r0, {r3, r6, r9}
 354:	047d0002 	ldrbteq	r0, [sp], #-2
 358:	08000248 	stmdaeq	r0, {r3, r6, r9}
 35c:	0800024a 	stmdaeq	r0, {r1, r3, r6, r9}
 360:	107d0002 	rsbsne	r0, sp, r2
 364:	0800024a 	stmdaeq	r0, {r1, r3, r6, r9}
 368:	080002fe 	stmdaeq	r0, {r1, r2, r3, r4, r5, r6, r7, r9}
 36c:	10770002 	rsbsne	r0, r7, r2
 370:	080002fe 	stmdaeq	r0, {r1, r2, r3, r4, r5, r6, r7, r9}
 374:	08000300 	stmdaeq	r0, {r8, r9}
 378:	04770002 	ldrbteq	r0, [r7], #-2
 37c:	08000300 	stmdaeq	r0, {r8, r9}
 380:	08000302 	stmdaeq	r0, {r1, r8, r9}
 384:	047d0002 	ldrbteq	r0, [sp], #-2
 388:	08000302 	stmdaeq	r0, {r1, r8, r9}
 38c:	0800030c 	stmdaeq	r0, {r2, r3, r8, r9}
 390:	007d0002 	rsbseq	r0, sp, r2
	...
 3a4:	007d0002 	rsbseq	r0, sp, r2
	...
 3b0:	047d0002 	ldrbteq	r0, [sp], #-2
	...
 3bc:	107d0002 	rsbsne	r0, sp, r2
	...
 3c8:	10770002 	rsbsne	r0, r7, r2
	...
 3d4:	04770002 	ldrbteq	r0, [r7], #-2
	...
 3e0:	047d0002 	ldrbteq	r0, [sp], #-2
	...
 3ec:	007d0002 	rsbseq	r0, sp, r2
	...
 400:	007d0002 	rsbseq	r0, sp, r2
	...
 40c:	047d0002 	ldrbteq	r0, [sp], #-2
	...
 418:	107d0002 	rsbsne	r0, sp, r2
	...
 424:	10770002 	rsbsne	r0, r7, r2
	...
 430:	04770002 	ldrbteq	r0, [r7], #-2
	...
 43c:	047d0002 	ldrbteq	r0, [sp], #-2
	...
 448:	007d0002 	rsbseq	r0, sp, r2
	...
 45c:	007d0002 	rsbseq	r0, sp, r2
	...
 468:	047d0002 	ldrbteq	r0, [sp], #-2
	...
 474:	107d0002 	rsbsne	r0, sp, r2
	...
 480:	10770002 	rsbsne	r0, r7, r2
	...
 48c:	04770002 	ldrbteq	r0, [r7], #-2
	...
 498:	047d0002 	ldrbteq	r0, [sp], #-2
	...
 4a4:	007d0002 	rsbseq	r0, sp, r2
	...
 4b8:	007d0002 	rsbseq	r0, sp, r2
	...
 4c4:	047d0002 	ldrbteq	r0, [sp], #-2
	...
 4d0:	187d0002 	ldmdane	sp!, {r1}^
	...
 4dc:	18770002 	ldmdane	r7!, {r1}^
	...
 4e8:	04770002 	ldrbteq	r0, [r7], #-2
	...
 4f4:	047d0002 	ldrbteq	r0, [sp], #-2
	...
 500:	007d0002 	rsbseq	r0, sp, r2
	...
 514:	007d0002 	rsbseq	r0, sp, r2
	...
 520:	047d0002 	ldrbteq	r0, [sp], #-2
	...
 52c:	187d0002 	ldmdane	sp!, {r1}^
	...
 538:	18770002 	ldmdane	r7!, {r1}^
	...
 544:	04770002 	ldrbteq	r0, [r7], #-2
	...
 550:	047d0002 	ldrbteq	r0, [sp], #-2
	...
 55c:	007d0002 	rsbseq	r0, sp, r2
	...
 570:	007d0002 	rsbseq	r0, sp, r2
	...
 57c:	047d0002 	ldrbteq	r0, [sp], #-2
	...
 588:	107d0002 	rsbsne	r0, sp, r2
	...
 594:	10770002 	rsbsne	r0, r7, r2
	...
 5a0:	04770002 	ldrbteq	r0, [r7], #-2
	...
 5ac:	047d0002 	ldrbteq	r0, [sp], #-2
	...
 5b8:	007d0002 	rsbseq	r0, sp, r2
	...
 5c4:	0800094c 	stmdaeq	r0, {r2, r3, r6, r8, fp}
 5c8:	0800094e 	stmdaeq	r0, {r1, r2, r3, r6, r8, fp}
 5cc:	007d0002 	rsbseq	r0, sp, r2
 5d0:	0800094e 	stmdaeq	r0, {r1, r2, r3, r6, r8, fp}
 5d4:	08000950 	stmdaeq	r0, {r4, r6, r8, fp}
 5d8:	0c7d0002 	ldcleq	0, cr0, [sp], #-8
 5dc:	08000950 	stmdaeq	r0, {r4, r6, r8, fp}
 5e0:	08000952 	stmdaeq	r0, {r1, r4, r6, r8, fp}
 5e4:	207d0002 	rsbscs	r0, sp, r2
 5e8:	08000952 	stmdaeq	r0, {r1, r4, r6, r8, fp}
 5ec:	08000a40 	stmdaeq	r0, {r6, r9, fp}
 5f0:	20770002 	rsbscs	r0, r7, r2
 5f4:	08000a40 	stmdaeq	r0, {r6, r9, fp}
 5f8:	08000a42 	stmdaeq	r0, {r1, r6, r9, fp}
 5fc:	0c770002 	ldcleq	0, cr0, [r7], #-8
 600:	08000a42 	stmdaeq	r0, {r1, r6, r9, fp}
 604:	08000a44 	stmdaeq	r0, {r2, r6, r9, fp}
 608:	0c7d0002 	ldcleq	0, cr0, [sp], #-8
	...
 614:	080007dc 	stmdaeq	r0, {r2, r3, r4, r6, r7, r8, r9, sl}
 618:	080007de 	stmdaeq	r0, {r1, r2, r3, r4, r6, r7, r8, r9, sl}
 61c:	007d0002 	rsbseq	r0, sp, r2
 620:	080007de 	stmdaeq	r0, {r1, r2, r3, r4, r6, r7, r8, r9, sl}
 624:	080007e0 	stmdaeq	r0, {r5, r6, r7, r8, r9, sl}
 628:	047d0002 	ldrbteq	r0, [sp], #-2
 62c:	080007e0 	stmdaeq	r0, {r5, r6, r7, r8, r9, sl}
 630:	080007e2 	stmdaeq	r0, {r1, r5, r6, r7, r8, r9, sl}
 634:	107d0002 	rsbsne	r0, sp, r2
 638:	080007e2 	stmdaeq	r0, {r1, r5, r6, r7, r8, r9, sl}
 63c:	08000944 	stmdaeq	r0, {r2, r6, r8, fp}
 640:	10770002 	rsbsne	r0, r7, r2
 644:	08000944 	stmdaeq	r0, {r2, r6, r8, fp}
 648:	08000946 	stmdaeq	r0, {r1, r2, r6, r8, fp}
 64c:	04770002 	ldrbteq	r0, [r7], #-2
 650:	08000946 	stmdaeq	r0, {r1, r2, r6, r8, fp}
 654:	08000948 	stmdaeq	r0, {r3, r6, r8, fp}
 658:	047d0002 	ldrbteq	r0, [sp], #-2
 65c:	08000948 	stmdaeq	r0, {r3, r6, r8, fp}
 660:	0800094a 	stmdaeq	r0, {r1, r3, r6, r8, fp}
 664:	007d0002 	rsbseq	r0, sp, r2
	...

Disassembly of section .debug_aranges:

00000000 <.debug_aranges>:
   0:	00000024 	andeq	r0, r0, r4, lsr #32
   4:	00000002 	andeq	r0, r0, r2
   8:	00040000 	andeq	r0, r4, r0
   c:	00000000 	andeq	r0, r0, r0
  10:	08000170 	stmdaeq	r0, {r4, r5, r6, r8}
  14:	00000018 	andeq	r0, r0, r8, lsl r0
  18:	08000188 	stmdaeq	r0, {r3, r7, r8}
  1c:	00000068 	andeq	r0, r0, r8, rrx
	...
  28:	00000024 	andeq	r0, r0, r4, lsr #32
  2c:	033c0002 	teqeq	ip, #2
  30:	00040000 	andeq	r0, r4, r0
  34:	00000000 	andeq	r0, r0, r0
  38:	080001f0 	stmdaeq	r0, {r4, r5, r6, r7, r8}
  3c:	00000050 	andeq	r0, r0, r0, asr r0
  40:	08000240 	stmdaeq	r0, {r6, r9}
  44:	00000002 	andeq	r0, r0, r2
	...
  50:	0000007c 	andeq	r0, r0, ip, ror r0
  54:	035e0002 	cmpeq	lr, #2
  58:	00040000 	andeq	r0, r4, r0
  5c:	00000000 	andeq	r0, r0, r0
  60:	08000244 	stmdaeq	r0, {r2, r6, r9}
  64:	000000c8 	andeq	r0, r0, r8, asr #1
  68:	0800030c 	stmdaeq	r0, {r2, r3, r8, r9}
  6c:	000000c8 	andeq	r0, r0, r8, asr #1
  70:	080003d4 	stmdaeq	r0, {r2, r4, r6, r7, r8, r9}
  74:	000001d0 	ldrdeq	r0, [r0], -r0	; <UNPREDICTABLE>
  78:	00000000 	andeq	r0, r0, r0
  7c:	00000094 	muleq	r0, r4, r0
  80:	00000000 	andeq	r0, r0, r0
  84:	00000016 	andeq	r0, r0, r6, lsl r0
  88:	080005a4 	stmdaeq	r0, {r2, r5, r7, r8, sl}
  8c:	00000016 	andeq	r0, r0, r6, lsl r0
  90:	080005bc 	stmdaeq	r0, {r2, r3, r4, r5, r7, r8, sl}
  94:	00000024 	andeq	r0, r0, r4, lsr #32
  98:	080005e0 	stmdaeq	r0, {r5, r6, r7, r8, sl}
  9c:	00000024 	andeq	r0, r0, r4, lsr #32
  a0:	08000604 	stmdaeq	r0, {r2, r9, sl}
  a4:	00000024 	andeq	r0, r0, r4, lsr #32
  a8:	08000628 	stmdaeq	r0, {r3, r5, r9, sl}
  ac:	00000024 	andeq	r0, r0, r4, lsr #32
  b0:	0800064c 	stmdaeq	r0, {r2, r3, r6, r9, sl}
  b4:	00000024 	andeq	r0, r0, r4, lsr #32
  b8:	08000670 	stmdaeq	r0, {r4, r5, r6, r9, sl}
  bc:	000000a8 	andeq	r0, r0, r8, lsr #1
  c0:	08000718 	stmdaeq	r0, {r3, r4, r8, r9, sl}
  c4:	000000c4 	andeq	r0, r0, r4, asr #1
	...
  d0:	00000054 	andeq	r0, r0, r4, asr r0
  d4:	08880002 	stmeq	r8, {r1}
  d8:	00040000 	andeq	r0, r4, r0
  dc:	00000000 	andeq	r0, r0, r0
  e0:	080007dc 	stmdaeq	r0, {r2, r3, r4, r6, r7, r8, r9, sl}
  e4:	0000016e 	andeq	r0, r0, lr, ror #2
  e8:	0800094c 	stmdaeq	r0, {r2, r3, r6, r8, fp}
  ec:	000000f8 	strdeq	r0, [r0], -r8
  f0:	00000000 	andeq	r0, r0, r0
  f4:	000000cc 	andeq	r0, r0, ip, asr #1
  f8:	00000000 	andeq	r0, r0, r0
  fc:	0000002e 	andeq	r0, r0, lr, lsr #32
 100:	00000000 	andeq	r0, r0, r0
 104:	0000001a 	andeq	r0, r0, sl, lsl r0
 108:	00000000 	andeq	r0, r0, r0
 10c:	0000001c 	andeq	r0, r0, ip, lsl r0
 110:	00000000 	andeq	r0, r0, r0
 114:	0000002e 	andeq	r0, r0, lr, lsr #32
 118:	00000000 	andeq	r0, r0, r0
 11c:	00000022 	andeq	r0, r0, r2, lsr #32
	...

Disassembly of section .debug_ranges:

00000000 <.debug_ranges>:
   0:	08000170 	stmdaeq	r0, {r4, r5, r6, r8}
   4:	08000188 	stmdaeq	r0, {r3, r7, r8}
   8:	08000188 	stmdaeq	r0, {r3, r7, r8}
   c:	080001f0 	stmdaeq	r0, {r4, r5, r6, r7, r8}
	...
  18:	ffffffff 			; <UNDEFINED> instruction: 0xffffffff
  1c:	00000000 	andeq	r0, r0, r0
  20:	080001f0 	stmdaeq	r0, {r4, r5, r6, r7, r8}
  24:	08000240 	stmdaeq	r0, {r6, r9}
  28:	08000240 	stmdaeq	r0, {r6, r9}
  2c:	08000242 	stmdaeq	r0, {r1, r6, r9}
	...
  38:	08000244 	stmdaeq	r0, {r2, r6, r9}
  3c:	0800030c 	stmdaeq	r0, {r2, r3, r8, r9}
  40:	0800030c 	stmdaeq	r0, {r2, r3, r8, r9}
  44:	080003d4 	stmdaeq	r0, {r2, r4, r6, r7, r8, r9}
  48:	080003d4 	stmdaeq	r0, {r2, r4, r6, r7, r8, r9}
  4c:	080005a4 	stmdaeq	r0, {r2, r5, r7, r8, sl}
  50:	00000001 	andeq	r0, r0, r1
  54:	00000001 	andeq	r0, r0, r1
  58:	00000001 	andeq	r0, r0, r1
  5c:	00000001 	andeq	r0, r0, r1
  60:	080005a4 	stmdaeq	r0, {r2, r5, r7, r8, sl}
  64:	080005ba 	stmdaeq	r0, {r1, r3, r4, r5, r7, r8, sl}
  68:	080005bc 	stmdaeq	r0, {r2, r3, r4, r5, r7, r8, sl}
  6c:	080005e0 	stmdaeq	r0, {r5, r6, r7, r8, sl}
  70:	080005e0 	stmdaeq	r0, {r5, r6, r7, r8, sl}
  74:	08000604 	stmdaeq	r0, {r2, r9, sl}
  78:	08000604 	stmdaeq	r0, {r2, r9, sl}
  7c:	08000628 	stmdaeq	r0, {r3, r5, r9, sl}
  80:	08000628 	stmdaeq	r0, {r3, r5, r9, sl}
  84:	0800064c 	stmdaeq	r0, {r2, r3, r6, r9, sl}
  88:	0800064c 	stmdaeq	r0, {r2, r3, r6, r9, sl}
  8c:	08000670 	stmdaeq	r0, {r4, r5, r6, r9, sl}
  90:	08000670 	stmdaeq	r0, {r4, r5, r6, r9, sl}
  94:	08000718 	stmdaeq	r0, {r3, r4, r8, r9, sl}
  98:	08000718 	stmdaeq	r0, {r3, r4, r8, r9, sl}
  9c:	080007dc 	stmdaeq	r0, {r2, r3, r4, r6, r7, r8, r9, sl}
	...
  a8:	080007dc 	stmdaeq	r0, {r2, r3, r4, r6, r7, r8, r9, sl}
  ac:	0800094a 	stmdaeq	r0, {r1, r3, r6, r8, fp}
  b0:	0800094c 	stmdaeq	r0, {r2, r3, r6, r8, fp}
  b4:	08000a44 	stmdaeq	r0, {r2, r6, r9, fp}
  b8:	00000001 	andeq	r0, r0, r1
  bc:	00000001 	andeq	r0, r0, r1
  c0:	00000001 	andeq	r0, r0, r1
  c4:	00000001 	andeq	r0, r0, r1
  c8:	00000001 	andeq	r0, r0, r1
  cc:	00000001 	andeq	r0, r0, r1
  d0:	00000001 	andeq	r0, r0, r1
  d4:	00000001 	andeq	r0, r0, r1
  d8:	00000001 	andeq	r0, r0, r1
  dc:	00000001 	andeq	r0, r0, r1
  e0:	00000001 	andeq	r0, r0, r1
  e4:	00000001 	andeq	r0, r0, r1
	...

Disassembly of section .debug_macro:

00000000 <.debug_macro>:
       0:	00020004 	andeq	r0, r2, r4
       4:	07000000 	streq	r0, [r0, -r0]
       8:	00000162 	andeq	r0, r0, r2, ror #2
       c:	03010003 	movweq	r0, #4099	; 0x1003
      10:	d4070618 	strle	r0, [r7], #-1560	; 0xfffff9e8
      14:	0300000b 	movweq	r0, #11
      18:	09050410 	stmdbeq	r5, {r4, sl}
      1c:	0000889d 	muleq	r0, sp, r8
      20:	05070d03 	streq	r0, [r7, #-3331]	; 0xfffff2fd
      24:	007fd108 	rsbseq	sp, pc, r8, lsl #2
      28:	080a0300 	stmdaeq	sl, {r8, r9}
      2c:	000bea07 	andeq	lr, fp, r7, lsl #20
      30:	0b030400 	bleq	c1038 <_Min_Stack_Size+0xc0c38>
      34:	59080509 	stmdbpl	r8, {r0, r3, r8, sl}
      38:	03000053 	movweq	r0, #83	; 0x53
      3c:	08050a0a 	stmdaeq	r5, {r1, r3, r9, fp}
      40:	0000129f 	muleq	r0, pc, r2	; <UNPREDICTABLE>
      44:	070b0e03 	streq	r0, [fp, -r3, lsl #28]
      48:	00000c02 	andeq	r0, r0, r2, lsl #24
      4c:	0c240704 	stceq	7, cr0, [r4], #-16
      50:	03040000 	movweq	r0, #16384	; 0x4000
      54:	02050c0b 	andeq	r0, r5, #2816	; 0xb00
      58:	00007eed 	andeq	r7, r0, sp, ror #29
      5c:	04080403 	streq	r0, [r8], #-1027	; 0xfffffbfd
      60:	070d0503 	streq	r0, [sp, -r3, lsl #10]
      64:	00000c70 	andeq	r0, r0, r0, ror ip
      68:	0d040704 	stceq	7, cr0, [r4, #-16]
      6c:	07040000 	streq	r0, [r4, -r0]
      70:	00000d40 	andeq	r0, r0, r0, asr #26
      74:	0d740704 	ldcleq	7, cr0, [r4, #-16]!
      78:	10030000 	andne	r0, r3, r0
      7c:	0d8a070e 	stceq	7, cr0, [sl, #56]	; 0x38
      80:	03040000 	movweq	r0, #16384	; 0x4000
      84:	0b050f12 	bleq	143cd4 <_Min_Stack_Size+0x1438d4>
      88:	000056d6 	ldrdeq	r5, [r0], -r6
      8c:	04090d03 	streq	r0, [r9], #-3331	; 0xfffff2fd
      90:	070e0e03 	streq	r0, [lr, -r3, lsl #28]
      94:	00000e98 	muleq	r0, r8, lr
      98:	100f0304 	andne	r0, pc, r4, lsl #6
      9c:	000f2507 	andeq	r2, pc, r7, lsl #10
      a0:	0e180300 	cdpeq	3, 1, cr0, cr8, cr0, {0}
      a4:	000f3b07 	andeq	r3, pc, r7, lsl #22
      a8:	1b030400 	blne	c10b0 <_Min_Stack_Size+0xc0cb0>
      ac:	1f060511 	svcne	0x00060511
      b0:	0300005b 	movweq	r0, #91	; 0x5b
      b4:	7e070207 	cdpvc	2, 0, cr0, cr7, cr7, {0}
      b8:	0400000f 	streq	r0, [r0], #-15
      bc:	0fd50704 	svceq	0x00d50704
      c0:	07040000 	streq	r0, [r4, -r0]
      c4:	00001009 	andeq	r1, r0, r9
      c8:	07122203 	ldreq	r2, [r2, -r3, lsl #4]
      cc:	00001019 	andeq	r1, r0, r9, lsl r0
      d0:	10710704 	rsbsne	r0, r1, r4, lsl #14
      d4:	f7030000 			; <UNDEFINED> instruction: 0xf7030000
      d8:	e2071303 	and	r1, r7, #201326592	; 0xc000000
      dc:	04000010 	streq	r0, [r0], #-16
      e0:	0010fe07 	andseq	pc, r0, r7, lsl #28
      e4:	13030400 	movwne	r0, #13312	; 0x3400
      e8:	2b2b0514 	blcs	ac1540 <_Min_Stack_Size+0xac1140>
      ec:	03000083 	movweq	r0, #131	; 0x83
      f0:	07040e2f 	streq	r0, [r4, -pc, lsr #28]
      f4:	00001228 	andeq	r1, r0, r8, lsr #4
      f8:	15140304 	ldrne	r0, [r4, #-772]	; 0xfffffcfc
      fc:	26b60205 	ldrtcs	r0, [r6], r5, lsl #4
     100:	03040000 	movweq	r0, #16384	; 0x4000
     104:	69071616 	stmdbvs	r7, {r1, r2, r4, r9, sl, ip}
     108:	04000015 	streq	r0, [r0], #-21	; 0xffffffeb
     10c:	00157f07 	andseq	r7, r5, r7, lsl #30
     110:	0e030400 	cfcpyseq	mvf0, mvf3
     114:	18090317 	stmdane	r9, {r0, r1, r2, r4, r8, r9}
     118:	06d00a05 	ldrbeq	r0, [r0], r5, lsl #20
     11c:	0d030000 	stceq	0, cr0, [r3, #-0]
     120:	15a80719 	strne	r0, [r8, #1817]!	; 0x719
     124:	03040000 	movweq	r0, #16384	; 0x4000
     128:	ab07030e 	blge	1c0d68 <_Min_Stack_Size+0x1c0968>
     12c:	04000016 	streq	r0, [r0], #-22	; 0xffffffea
     130:	00171507 	andseq	r1, r7, r7, lsl #10
     134:	0d050400 	cfstrseq	mvf0, [r5, #-0]
     138:	000006c7 	andeq	r0, r0, r7, asr #13
     13c:	18f40704 	ldmne	r4!, {r2, r8, r9, sl}^
     140:	07040000 	streq	r0, [r4, -r0]
     144:	00001b9d 	muleq	r0, sp, fp
     148:	04190304 	ldreq	r0, [r9], #-772	; 0xfffffcfc
     14c:	051a0304 	ldreq	r0, [sl, #-772]	; 0xfffffcfc
     150:	78620905 	stmdavc	r2!, {r0, r2, r8, fp}^
     154:	0f030000 	svceq	0x00030000
     158:	55070406 	strpl	r0, [r7, #-1030]	; 0xfffffbfa
     15c:	0400001c 	streq	r0, [r0], #-28	; 0xffffffe4
     160:	00040004 	andeq	r0, r4, r4
     164:	e4000500 	str	r0, [r0], #-1280	; 0xfffffb00
     168:	05000081 	streq	r0, [r0, #-129]	; 0xffffff7f
     16c:	00399600 	eorseq	r9, r9, r0, lsl #12
     170:	3e000500 	cfsh32cc	mvfx0, mvfx0, #0
     174:	05000057 	streq	r0, [r0, #-87]	; 0xffffffa9
     178:	0021d700 	eoreq	sp, r1, r0, lsl #14
     17c:	2c000500 	cfstr32cs	mvfx0, [r0], {-0}
     180:	0500000c 	streq	r0, [r0, #-12]
     184:	00471e00 	subeq	r1, r7, r0, lsl #28
     188:	97000500 	strls	r0, [r0, -r0, lsl #10]
     18c:	05000071 	streq	r0, [r0, #-113]	; 0xffffff8f
     190:	001f9900 	andseq	r9, pc, r0, lsl #18
     194:	33000500 	movwcc	r0, #1280	; 0x500
     198:	05000093 	streq	r0, [r0, #-147]	; 0xffffff6d
     19c:	007acd00 	rsbseq	ip, sl, r0, lsl #26
     1a0:	d8000500 	stmdale	r0, {r8, sl}
     1a4:	05000022 	streq	r0, [r0, #-34]	; 0xffffffde
     1a8:	003a5e00 	eorseq	r5, sl, r0, lsl #28
     1ac:	0e000500 	cfsh32eq	mvfx0, mvfx0, #0
     1b0:	05000044 	streq	r0, [r0, #-68]	; 0xffffffbc
     1b4:	008e2000 	addeq	r2, lr, r0
     1b8:	aa000500 	bge	15c0 <_Min_Stack_Size+0x11c0>
     1bc:	0500003c 	streq	r0, [r0, #-60]	; 0xffffffc4
     1c0:	00699900 	rsbeq	r9, r9, r0, lsl #18
     1c4:	ec000500 	cfstr32	mvfx0, [r0], {-0}
     1c8:	05000084 	streq	r0, [r0, #-132]	; 0xffffff7c
     1cc:	001bab00 	andseq	sl, fp, r0, lsl #22
     1d0:	11000500 	tstne	r0, r0, lsl #10
     1d4:	05000005 	streq	r0, [r0, #-5]
     1d8:	00258500 	eoreq	r8, r5, r0, lsl #10
     1dc:	e9000500 	stmdb	r0, {r8, sl}
     1e0:	05000021 	streq	r0, [r0, #-33]	; 0xffffffdf
     1e4:	001cd200 	andseq	sp, ip, r0, lsl #4
     1e8:	c6000500 	strgt	r0, [r0], -r0, lsl #10
     1ec:	05000026 	streq	r0, [r0, #-38]	; 0xffffffda
     1f0:	0076cb00 	rsbseq	ip, r6, r0, lsl #22
     1f4:	cd000500 	cfstr32gt	mvfx0, [r0, #-0]
     1f8:	05000050 	streq	r0, [r0, #-80]	; 0xffffffb0
     1fc:	005ef000 	subseq	pc, lr, r0
     200:	fc000500 	stc2	5, cr0, [r0], {-0}
     204:	05000065 	streq	r0, [r0, #-101]	; 0xffffff9b
     208:	00106400 	andseq	r6, r0, r0, lsl #8
     20c:	92000500 	andls	r0, r0, #0, 10
     210:	05000006 	streq	r0, [r0, #-6]
     214:	0052ef00 	subseq	lr, r2, r0, lsl #30
     218:	71000500 	tstvc	r0, r0, lsl #10
     21c:	05000059 	streq	r0, [r0, #-89]	; 0xffffffa7
     220:	0018e100 	andseq	lr, r8, r0, lsl #2
     224:	ac000500 	cfstr32ge	mvfx0, [r0], {-0}
     228:	05000006 	streq	r0, [r0, #-6]
     22c:	00672e00 	rsbeq	r2, r7, r0, lsl #28
     230:	1a000500 	bne	1638 <_Min_Stack_Size+0x1238>
     234:	05000027 	streq	r0, [r0, #-39]	; 0xffffffd9
     238:	00584500 	subseq	r4, r8, r0, lsl #10
     23c:	44000500 	strmi	r0, [r0], #-1280	; 0xfffffb00
     240:	05000072 	streq	r0, [r0, #-114]	; 0xffffff8e
     244:	0019f300 	andseq	pc, r9, r0, lsl #6
     248:	d1000500 	tstle	r0, r0, lsl #10
     24c:	05000068 	streq	r0, [r0, #-104]	; 0xffffff98
     250:	001af500 	andseq	pc, sl, r0, lsl #10
     254:	12000500 	andne	r0, r0, #0, 10
     258:	05000068 	streq	r0, [r0, #-104]	; 0xffffff98
     25c:	0006f000 	andeq	pc, r6, r0
     260:	f9000500 			; <UNDEFINED> instruction: 0xf9000500
     264:	05000009 	streq	r0, [r0, #-9]
     268:	006c4100 	rsbeq	r4, ip, r0, lsl #2
     26c:	9d000500 	cfstr32ls	mvfx0, [r0, #-0]
     270:	05000050 	streq	r0, [r0, #-80]	; 0xffffffb0
     274:	00317a00 	eorseq	r7, r1, r0, lsl #20
     278:	63000500 	movwvs	r0, #1280	; 0x500
     27c:	0500000d 	streq	r0, [r0, #-13]
     280:	0083b800 	addeq	fp, r3, r0, lsl #16
     284:	01000500 	tsteq	r0, r0, lsl #10
     288:	0500003b 	streq	r0, [r0, #-59]	; 0xffffffc5
     28c:	0018f600 	andseq	pc, r8, r0, lsl #12
     290:	70000500 	andvc	r0, r0, r0, lsl #10
     294:	05000088 	streq	r0, [r0, #-136]	; 0xffffff78
     298:	0044ac00 	subeq	sl, r4, r0, lsl #24
     29c:	ae000500 	cfsh32ge	mvfx0, mvfx0, #0
     2a0:	05000092 	streq	r0, [r0, #-146]	; 0xffffff6e
     2a4:	0059f300 	subseq	pc, r9, r0, lsl #6
     2a8:	6e000500 	cfsh32vs	mvfx0, mvfx0, #0
     2ac:	05000068 	streq	r0, [r0, #-104]	; 0xffffff98
     2b0:	0071c300 	rsbseq	ip, r1, r0, lsl #6
     2b4:	4d000500 	cfstr32mi	mvfx0, [r0, #-0]
     2b8:	05000042 	streq	r0, [r0, #-66]	; 0xffffffbe
     2bc:	00185400 	andseq	r5, r8, r0, lsl #8
     2c0:	e5000500 	str	r0, [r0, #-1280]	; 0xfffffb00
     2c4:	05000067 	streq	r0, [r0, #-103]	; 0xffffff99
     2c8:	00554a00 	subseq	r4, r5, r0, lsl #20
     2cc:	a3000500 	movwge	r0, #1280	; 0x500
     2d0:	0500000c 	streq	r0, [r0, #-12]
     2d4:	003fd400 	eorseq	sp, pc, r0, lsl #8
     2d8:	23000500 	movwcs	r0, #1280	; 0x500
     2dc:	05000086 	streq	r0, [r0, #-134]	; 0xffffff7a
     2e0:	0021a400 	eoreq	sl, r1, r0, lsl #8
     2e4:	b5000500 	strlt	r0, [r0, #-1280]	; 0xfffffb00
     2e8:	05000028 	streq	r0, [r0, #-40]	; 0xffffffd8
     2ec:	00757f00 	rsbseq	r7, r5, r0, lsl #30
     2f0:	a0000500 	andge	r0, r0, r0, lsl #10
     2f4:	05000075 	streq	r0, [r0, #-117]	; 0xffffff8b
     2f8:	002e2a00 	eoreq	r2, lr, r0, lsl #20
     2fc:	14000500 	strne	r0, [r0], #-1280	; 0xfffffb00
     300:	05000057 	streq	r0, [r0, #-87]	; 0xffffffa9
     304:	0066f600 	rsbeq	pc, r6, r0, lsl #12
     308:	97000500 	strls	r0, [r0, -r0, lsl #10]
     30c:	05000092 	streq	r0, [r0, #-146]	; 0xffffff6e
     310:	008ba100 	addeq	sl, fp, r0, lsl #2
     314:	a7000500 	strge	r0, [r0, -r0, lsl #10]
     318:	05000060 	streq	r0, [r0, #-96]	; 0xffffffa0
     31c:	00048e00 	andeq	r8, r4, r0, lsl #28
     320:	ae000500 	cfsh32ge	mvfx0, mvfx0, #0
     324:	05000048 	streq	r0, [r0, #-72]	; 0xffffffb8
     328:	00880500 	addeq	r0, r8, r0, lsl #10
     32c:	b5000500 	strlt	r0, [r0, #-1280]	; 0xfffffb00
     330:	05000087 	streq	r0, [r0, #-135]	; 0xffffff79
     334:	0002e400 	andeq	lr, r2, r0, lsl #8
     338:	9c000500 	cfstr32ls	mvfx0, [r0], {-0}
     33c:	0500008a 	streq	r0, [r0, #-138]	; 0xffffff76
     340:	003f9200 	eorseq	r9, pc, r0, lsl #4
     344:	30000500 	andcc	r0, r0, r0, lsl #10
     348:	0500005a 	streq	r0, [r0, #-90]	; 0xffffffa6
     34c:	0065a000 	rsbeq	sl, r5, r0
     350:	96000500 	strls	r0, [r0], -r0, lsl #10
     354:	05000047 	streq	r0, [r0, #-71]	; 0xffffffb9
     358:	004d8900 	subeq	r8, sp, r0, lsl #18
     35c:	f3000500 	vrshl.u8	d0, d0, d0
     360:	0500008c 	streq	r0, [r0, #-140]	; 0xffffff74
     364:	00844800 	addeq	r4, r4, r0, lsl #16
     368:	86000500 	strhi	r0, [r0], -r0, lsl #10
     36c:	05000011 	streq	r0, [r0, #-17]	; 0xffffffef
     370:	00872e00 	addeq	r2, r7, r0, lsl #28
     374:	4f000500 	svcmi	0x00000500
     378:	05000003 	streq	r0, [r0, #-3]
     37c:	00032500 	andeq	r2, r3, r0, lsl #10
     380:	4c000500 	cfstr32mi	mvfx0, [r0], {-0}
     384:	05000091 	streq	r0, [r0, #-145]	; 0xffffff6f
     388:	0018c900 	andseq	ip, r8, r0, lsl #18
     38c:	4b000500 	blmi	1794 <_Min_Stack_Size+0x1394>
     390:	05000006 	streq	r0, [r0, #-6]
     394:	007b5700 	rsbseq	r5, fp, r0, lsl #14
     398:	50000500 	andpl	r0, r0, r0, lsl #10
     39c:	05000034 	streq	r0, [r0, #-52]	; 0xffffffcc
     3a0:	00803800 	addeq	r3, r0, r0, lsl #16
     3a4:	22000500 	andcs	r0, r0, #0, 10
     3a8:	0500003d 	streq	r0, [r0, #-61]	; 0xffffffc3
     3ac:	007ed800 	rsbseq	sp, lr, r0, lsl #16
     3b0:	90000500 	andls	r0, r0, r0, lsl #10
     3b4:	05000040 	streq	r0, [r0, #-64]	; 0xffffffc0
     3b8:	00462c00 	subeq	r2, r6, r0, lsl #24
     3bc:	6a000500 	bvs	17c4 <_Min_Stack_Size+0x13c4>
     3c0:	0500002c 	streq	r0, [r0, #-44]	; 0xffffffd4
     3c4:	00242c00 	eoreq	r2, r4, r0, lsl #24
     3c8:	36000500 	strcc	r0, [r0], -r0, lsl #10
     3cc:	05000039 	streq	r0, [r0, #-57]	; 0xffffffc7
     3d0:	0038cd00 	eorseq	ip, r8, r0, lsl #26
     3d4:	fc000500 	stc2	5, cr0, [r0], {-0}
     3d8:	05000039 	streq	r0, [r0, #-57]	; 0xffffffc7
     3dc:	0061e500 	rsbeq	lr, r1, r0, lsl #10
     3e0:	1e000500 	cfsh32ne	mvfx0, mvfx0, #0
     3e4:	05000088 	streq	r0, [r0, #-136]	; 0xffffff78
     3e8:	002e4100 	eoreq	r4, lr, r0, lsl #2
     3ec:	06000500 	streq	r0, [r0], -r0, lsl #10
     3f0:	0500008d 	streq	r0, [r0, #-141]	; 0xffffff73
     3f4:	00369800 	eorseq	r9, r6, r0, lsl #16
     3f8:	97000500 	strls	r0, [r0, -r0, lsl #10]
     3fc:	0500001e 	streq	r0, [r0, #-30]	; 0xffffffe2
     400:	002b1e00 	eoreq	r1, fp, r0, lsl #28
     404:	e6000500 	str	r0, [r0], -r0, lsl #10
     408:	0500001c 	streq	r0, [r0, #-28]	; 0xffffffe4
     40c:	0040ea00 	subeq	lr, r0, r0, lsl #20
     410:	e8000500 	stmda	r0, {r8, sl}
     414:	05000076 	streq	r0, [r0, #-118]	; 0xffffff8a
     418:	003cbd00 	eorseq	fp, ip, r0, lsl #26
     41c:	59000500 	stmdbpl	r0, {r8, sl}
     420:	0500006c 	streq	r0, [r0, #-108]	; 0xffffff94
     424:	0009a600 	andeq	sl, r9, r0, lsl #12
     428:	10000500 	andne	r0, r0, r0, lsl #10
     42c:	0500000c 	streq	r0, [r0, #-12]
     430:	00790e00 	rsbseq	r0, r9, r0, lsl #28
     434:	f7000500 			; <UNDEFINED> instruction: 0xf7000500
     438:	0500003b 	streq	r0, [r0, #-59]	; 0xffffffc5
     43c:	002fef00 	eoreq	lr, pc, r0, lsl #30
     440:	56000500 	strpl	r0, [r0], -r0, lsl #10
     444:	05000065 	streq	r0, [r0, #-101]	; 0xffffff9b
     448:	00423600 	subeq	r3, r2, r0, lsl #12
     44c:	3c000500 	cfstr32cc	mvfx0, [r0], {-0}
     450:	05000082 	streq	r0, [r0, #-130]	; 0xffffff7e
     454:	00572700 	subseq	r2, r7, r0, lsl #14
     458:	b0000500 	andlt	r0, r0, r0, lsl #10
     45c:	05000069 	streq	r0, [r0, #-105]	; 0xffffff97
     460:	0012ae00 	andseq	sl, r2, r0, lsl #28
     464:	ba000500 	blt	186c <_Min_Stack_Size+0x146c>
     468:	05000022 	streq	r0, [r0, #-34]	; 0xffffffde
     46c:	00215300 	eoreq	r5, r1, r0, lsl #6
     470:	21000500 	tstcs	r0, r0, lsl #10
     474:	05000017 	streq	r0, [r0, #-23]	; 0xffffffe9
     478:	000fad00 	andeq	sl, pc, r0, lsl #26
     47c:	f3000500 	vrshl.u8	d0, d0, d0
     480:	05000011 	streq	r0, [r0, #-17]	; 0xffffffef
     484:	00137500 	andseq	r7, r3, r0, lsl #10
     488:	77000500 	strvc	r0, [r0, -r0, lsl #10]
     48c:	0500001b 	streq	r0, [r0, #-27]	; 0xffffffe5
     490:	004de900 	subeq	lr, sp, r0, lsl #18
     494:	45000500 	strmi	r0, [r0, #-1280]	; 0xfffffb00
     498:	05000013 	streq	r0, [r0, #-19]	; 0xffffffed
     49c:	004e8900 	subeq	r8, lr, r0, lsl #18
     4a0:	33000500 	movwcc	r0, #1280	; 0x500
     4a4:	0500000e 	streq	r0, [r0, #-14]
     4a8:	00587700 	subseq	r7, r8, r0, lsl #14
     4ac:	e0000500 	and	r0, r0, r0, lsl #10
     4b0:	0500003d 	streq	r0, [r0, #-61]	; 0xffffffc3
     4b4:	0056e500 	subseq	lr, r6, r0, lsl #10
     4b8:	12000500 	andne	r0, r0, #0, 10
     4bc:	0500003f 	streq	r0, [r0, #-63]	; 0xffffffc1
     4c0:	0036df00 	eorseq	sp, r6, r0, lsl #30
     4c4:	72000500 	andvc	r0, r0, #0, 10
     4c8:	05000049 	streq	r0, [r0, #-73]	; 0xffffffb7
     4cc:	00444500 	subeq	r4, r4, r0, lsl #10
     4d0:	01000500 	tsteq	r0, r0, lsl #10
     4d4:	05000021 	streq	r0, [r0, #-33]	; 0xffffffdf
     4d8:	00507300 	subseq	r7, r0, r0, lsl #6
     4dc:	c9000500 	stmdbgt	r0, {r8, sl}
     4e0:	05000066 	streq	r0, [r0, #-102]	; 0xffffff9a
     4e4:	001b9700 	andseq	r9, fp, r0, lsl #14
     4e8:	4e000500 	cfsh32mi	mvfx0, mvfx0, #0
     4ec:	05000022 	streq	r0, [r0, #-34]	; 0xffffffde
     4f0:	001e8100 	andseq	r8, lr, r0, lsl #2
     4f4:	cc000500 	cfstr32gt	mvfx0, [r0], {-0}
     4f8:	05000047 	streq	r0, [r0, #-71]	; 0xffffffb9
     4fc:	0073a900 	rsbseq	sl, r3, r0, lsl #18
     500:	3a000500 	bcc	1908 <_Min_Stack_Size+0x1508>
     504:	05000029 	streq	r0, [r0, #-41]	; 0xffffffd7
     508:	00306400 	eorseq	r6, r0, r0, lsl #8
     50c:	5c000500 	cfstr32pl	mvfx0, [r0], {-0}
     510:	0500002e 	streq	r0, [r0, #-46]	; 0xffffffd2
     514:	0006db00 	andeq	sp, r6, r0, lsl #22
     518:	d6000500 	strle	r0, [r0], -r0, lsl #10
     51c:	0500003c 	streq	r0, [r0, #-60]	; 0xffffffc4
     520:	001f3d00 	andseq	r3, pc, r0, lsl #26
     524:	ae000500 	cfsh32ge	mvfx0, mvfx0, #0
     528:	05000091 	streq	r0, [r0, #-145]	; 0xffffff6f
     52c:	00763e00 	rsbseq	r3, r6, r0, lsl #28
     530:	51000500 	tstpl	r0, r0, lsl #10
     534:	05000062 	streq	r0, [r0, #-98]	; 0xffffff9e
     538:	00103a00 	andseq	r3, r0, r0, lsl #20
     53c:	eb000500 	bl	1944 <_Min_Stack_Size+0x1544>
     540:	05000043 	streq	r0, [r0, #-67]	; 0xffffffbd
     544:	00053e00 	andeq	r3, r5, r0, lsl #28
     548:	52000500 	andpl	r0, r0, #0, 10
     54c:	0500007d 	streq	r0, [r0, #-125]	; 0xffffff83
     550:	0088b200 	addeq	fp, r8, r0, lsl #4
     554:	07000500 	streq	r0, [r0, -r0, lsl #10]
     558:	05000054 	streq	r0, [r0, #-84]	; 0xffffffac
     55c:	00176300 	andseq	r6, r7, r0, lsl #6
     560:	5d000500 	cfstr32pl	mvfx0, [r0, #-0]
     564:	0500003c 	streq	r0, [r0, #-60]	; 0xffffffc4
     568:	0054fe00 	subseq	pc, r4, r0, lsl #28
     56c:	73000500 	movwvc	r0, #1280	; 0x500
     570:	0500002d 	streq	r0, [r0, #-45]	; 0xffffffd3
     574:	007b4000 	rsbseq	r4, fp, r0
     578:	f0000500 			; <UNDEFINED> instruction: 0xf0000500
     57c:	05000073 	streq	r0, [r0, #-115]	; 0xffffff8d
     580:	00092400 	andeq	r2, r9, r0, lsl #8
     584:	1e000500 	cfsh32ne	mvfx0, mvfx0, #0
     588:	05000087 	streq	r0, [r0, #-135]	; 0xffffff79
     58c:	0007b100 	andeq	fp, r7, r0, lsl #2
     590:	48000500 	stmdami	r0, {r8, sl}
     594:	0500005b 	streq	r0, [r0, #-91]	; 0xffffffa5
     598:	00249400 	eoreq	r9, r4, r0, lsl #8
     59c:	6b000500 	blvs	19a4 <_Min_Stack_Size+0x15a4>
     5a0:	05000054 	streq	r0, [r0, #-84]	; 0xffffffac
     5a4:	00005000 	andeq	r5, r0, r0
     5a8:	ef000500 	svc	0x00000500
     5ac:	05000081 	streq	r0, [r0, #-129]	; 0xffffff7f
     5b0:	00493f00 	subeq	r3, r9, r0, lsl #30
     5b4:	81000500 	tsthi	r0, r0, lsl #10
     5b8:	0500005e 	streq	r0, [r0, #-94]	; 0xffffffa2
     5bc:	00778e00 	rsbseq	r8, r7, r0, lsl #28
     5c0:	ac000500 	cfstr32ge	mvfx0, [r0], {-0}
     5c4:	05000042 	streq	r0, [r0, #-66]	; 0xffffffbe
     5c8:	0045ff00 	subeq	pc, r5, r0, lsl #30
     5cc:	d2000500 	andle	r0, r0, #0, 10
     5d0:	05000063 	streq	r0, [r0, #-99]	; 0xffffff9d
     5d4:	00331500 	eorseq	r1, r3, r0, lsl #10
     5d8:	78000500 	stmdavc	r0, {r8, sl}
     5dc:	05000015 	streq	r0, [r0, #-21]	; 0xffffffeb
     5e0:	00418c00 	subeq	r8, r1, r0, lsl #24
     5e4:	f9000500 			; <UNDEFINED> instruction: 0xf9000500
     5e8:	05000062 	streq	r0, [r0, #-98]	; 0xffffff9e
     5ec:	000e5e00 	andeq	r5, lr, r0, lsl #28
     5f0:	78000500 	stmdavc	r0, {r8, sl}
     5f4:	0500005d 	streq	r0, [r0, #-93]	; 0xffffffa3
     5f8:	0019d800 	andseq	sp, r9, r0, lsl #16
     5fc:	4b000500 	blmi	1a04 <_Min_Stack_Size+0x1604>
     600:	0500000d 	streq	r0, [r0, #-13]
     604:	00079900 	andeq	r9, r7, r0, lsl #18
     608:	16000500 	strne	r0, [r0], -r0, lsl #10
     60c:	05000076 	streq	r0, [r0, #-118]	; 0xffffff8a
     610:	00905000 	addseq	r5, r0, r0
     614:	0a000500 	beq	1a1c <_Min_Stack_Size+0x161c>
     618:	05000007 	streq	r0, [r0, #-7]
     61c:	00531600 	subseq	r1, r3, r0, lsl #12
     620:	a2000500 	andge	r0, r0, #0, 10
     624:	05000041 	streq	r0, [r0, #-65]	; 0xffffffbf
     628:	00825900 	addeq	r5, r2, r0, lsl #18
     62c:	f5000500 			; <UNDEFINED> instruction: 0xf5000500
     630:	05000088 	streq	r0, [r0, #-136]	; 0xffffff78
     634:	0032b900 	eorseq	fp, r2, r0, lsl #18
     638:	9d000500 	cfstr32ls	mvfx0, [r0, #-0]
     63c:	05000089 	streq	r0, [r0, #-137]	; 0xffffff77
     640:	0087c500 	addeq	ip, r7, r0, lsl #10
     644:	1e000500 	cfsh32ne	mvfx0, mvfx0, #0
     648:	05000079 	streq	r0, [r0, #-121]	; 0xffffff87
     64c:	000f6300 	andeq	r6, pc, r0, lsl #6
     650:	ca000500 	bgt	1a58 <_Min_Stack_Size+0x1658>
     654:	0500004f 	streq	r0, [r0, #-79]	; 0xffffffb1
     658:	0018b000 	andseq	fp, r8, r0
     65c:	81000500 	tsthi	r0, r0, lsl #10
     660:	05000003 	streq	r0, [r0, #-3]
     664:	000a8300 	andeq	r8, sl, r0, lsl #6
     668:	73000500 	movwvc	r0, #1280	; 0x500
     66c:	05000045 	streq	r0, [r0, #-69]	; 0xffffffbb
     670:	00500d00 	subseq	r0, r0, r0, lsl #26
     674:	67000500 	strvs	r0, [r0, -r0, lsl #10]
     678:	05000080 	streq	r0, [r0, #-128]	; 0xffffff80
     67c:	00008e00 	andeq	r8, r0, r0, lsl #28
     680:	50000500 	andpl	r0, r0, r0, lsl #10
     684:	05000056 	streq	r0, [r0, #-86]	; 0xffffffaa
     688:	00015d00 	andeq	r5, r1, r0, lsl #26
     68c:	b2000500 	andlt	r0, r0, #0, 10
     690:	05000055 	streq	r0, [r0, #-85]	; 0xffffffab
     694:	008cbc00 	addeq	fp, ip, r0, lsl #24
     698:	47000500 	strmi	r0, [r0, -r0, lsl #10]
     69c:	05000069 	streq	r0, [r0, #-105]	; 0xffffff97
     6a0:	0071a800 	rsbseq	sl, r1, r0, lsl #16
     6a4:	45000500 	strmi	r0, [r0, #-1280]	; 0xfffffb00
     6a8:	05000071 	streq	r0, [r0, #-113]	; 0xffffff8f
     6ac:	003b4f00 	eorseq	r4, fp, r0, lsl #30
     6b0:	f1000500 			; <UNDEFINED> instruction: 0xf1000500
     6b4:	05000033 	streq	r0, [r0, #-51]	; 0xffffffcd
     6b8:	00174900 	andseq	r4, r7, r0, lsl #18
     6bc:	23000500 	movwcs	r0, #1280	; 0x500
     6c0:	0500006f 	streq	r0, [r0, #-111]	; 0xffffff91
     6c4:	005d1900 	subseq	r1, sp, r0, lsl #18
     6c8:	72000500 	andvc	r0, r0, #0, 10
     6cc:	0500004f 	streq	r0, [r0, #-79]	; 0xffffffb1
     6d0:	0017ee00 	andseq	lr, r7, r0, lsl #28
     6d4:	fc000500 	stc2	5, cr0, [r0], {-0}
     6d8:	05000021 	streq	r0, [r0, #-33]	; 0xffffffdf
     6dc:	00442d00 	subeq	r2, r4, r0, lsl #26
     6e0:	c5000500 	strgt	r0, [r0, #-1280]	; 0xfffffb00
     6e4:	05000015 	streq	r0, [r0, #-21]	; 0xffffffeb
     6e8:	00179200 	andseq	r9, r7, r0, lsl #4
     6ec:	39000500 	stmdbcc	r0, {r8, sl}
     6f0:	05000006 	streq	r0, [r0, #-6]
     6f4:	00526f00 	subseq	r6, r2, r0, lsl #30
     6f8:	86000500 	strhi	r0, [r0], -r0, lsl #10
     6fc:	0500003d 	streq	r0, [r0, #-61]	; 0xffffffc3
     700:	00289c00 	eoreq	r9, r8, r0, lsl #24
     704:	ef000500 	svc	0x00000500
     708:	0500000f 	streq	r0, [r0, #-15]
     70c:	00429900 	subeq	r9, r2, r0, lsl #18
     710:	0b000500 	bleq	1b18 <_Min_Stack_Size+0x1718>
     714:	0500002b 	streq	r0, [r0, #-43]	; 0xffffffd5
     718:	002b9d00 	eoreq	r9, fp, r0, lsl #26
     71c:	0e000500 	cfsh32eq	mvfx0, mvfx0, #0
     720:	0500000e 	streq	r0, [r0, #-14]
     724:	00372f00 	eorseq	r2, r7, r0, lsl #30
     728:	2b000500 	blcs	1b30 <_Min_Stack_Size+0x1730>
     72c:	0500001f 	streq	r0, [r0, #-31]	; 0xffffffe1
     730:	00658100 	rsbeq	r8, r5, r0, lsl #2
     734:	75000500 	strvc	r0, [r0, #-1280]	; 0xfffffb00
     738:	05000005 	streq	r0, [r0, #-5]
     73c:	00227500 	eoreq	r7, r2, r0, lsl #10
     740:	5d000500 	cfstr32pl	mvfx0, [r0, #-0]
     744:	0500005d 	streq	r0, [r0, #-93]	; 0xffffffa3
     748:	0053e400 	subseq	lr, r3, r0, lsl #8
     74c:	bf000500 	svclt	0x00000500
     750:	05000061 	streq	r0, [r0, #-97]	; 0xffffff9f
     754:	00298500 	eoreq	r8, r9, r0, lsl #10
     758:	6a000500 	bvs	1b60 <_Min_Stack_Size+0x1760>
     75c:	05000051 	streq	r0, [r0, #-81]	; 0xffffffaf
     760:	00489100 	subeq	r9, r8, r0, lsl #2
     764:	ba000500 	blt	1b6c <_Min_Stack_Size+0x176c>
     768:	05000050 	streq	r0, [r0, #-80]	; 0xffffffb0
     76c:	0061f300 	rsbeq	pc, r1, r0, lsl #6
     770:	70000500 	andvc	r0, r0, r0, lsl #10
     774:	05000004 	streq	r0, [r0, #-4]
     778:	0058dc00 	subseq	sp, r8, r0, lsl #24
     77c:	a0000500 	andge	r0, r0, r0, lsl #10
     780:	0500005b 	streq	r0, [r0, #-91]	; 0xffffffa5
     784:	000f2600 	andeq	r2, pc, r0, lsl #12
     788:	06000500 	streq	r0, [r0], -r0, lsl #10
     78c:	05000092 	streq	r0, [r0, #-146]	; 0xffffff6e
     790:	006be600 	rsbeq	lr, fp, r0, lsl #12
     794:	4c000500 	cfstr32mi	mvfx0, [r0], {-0}
     798:	05000068 	streq	r0, [r0, #-104]	; 0xffffff98
     79c:	00764d00 	rsbseq	r4, r6, r0, lsl #26
     7a0:	e1000500 	tst	r0, r0, lsl #10
     7a4:	05000088 	streq	r0, [r0, #-136]	; 0xffffff78
     7a8:	00852100 	addeq	r2, r5, r0, lsl #2
     7ac:	24000500 	strcs	r0, [r0], #-1280	; 0xfffffb00
     7b0:	05000013 	streq	r0, [r0, #-19]	; 0xffffffed
     7b4:	00744e00 	rsbseq	r4, r4, r0, lsl #28
     7b8:	88000500 	stmdahi	r0, {r8, sl}
     7bc:	0500008c 	streq	r0, [r0, #-140]	; 0xffffff74
     7c0:	000c3e00 	andeq	r3, ip, r0, lsl #28
     7c4:	a7000500 	strge	r0, [r0, -r0, lsl #10]
     7c8:	05000046 	streq	r0, [r0, #-70]	; 0xffffffba
     7cc:	00845a00 	addeq	r5, r4, r0, lsl #20
     7d0:	1b000500 	blne	1bd8 <_Min_Stack_Size+0x17d8>
     7d4:	0500001a 	streq	r0, [r0, #-26]	; 0xffffffe6
     7d8:	00816d00 	addeq	r6, r1, r0, lsl #26
     7dc:	08000500 	stmdaeq	r0, {r8, sl}
     7e0:	05000064 	streq	r0, [r0, #-100]	; 0xffffff9c
     7e4:	0067b700 	rsbeq	fp, r7, r0, lsl #14
     7e8:	2a000500 	bcs	1bf0 <_Min_Stack_Size+0x17f0>
     7ec:	05000068 	streq	r0, [r0, #-104]	; 0xffffff98
     7f0:	00756400 	rsbseq	r6, r5, r0, lsl #8
     7f4:	83000500 	movwhi	r0, #1280	; 0x500
     7f8:	05000085 	streq	r0, [r0, #-133]	; 0xffffff7b
     7fc:	00324c00 	eorseq	r4, r2, r0, lsl #24
     800:	e6000500 	str	r0, [r0], -r0, lsl #10
     804:	05000055 	streq	r0, [r0, #-85]	; 0xffffffab
     808:	00075700 	andeq	r5, r7, r0, lsl #14
     80c:	1c000500 	cfstr32ne	mvfx0, [r0], {-0}
     810:	05000006 	streq	r0, [r0, #-6]
     814:	0073d200 	rsbseq	sp, r3, r0, lsl #4
     818:	9b000500 	blls	1c20 <_Min_Stack_Size+0x1820>
     81c:	05000016 	streq	r0, [r0, #-22]	; 0xffffffea
     820:	0077fe00 	rsbseq	pc, r7, r0, lsl #28
     824:	74000500 	strvc	r0, [r0], #-1280	; 0xfffffb00
     828:	05000064 	streq	r0, [r0, #-100]	; 0xffffff9c
     82c:	003d0400 	eorseq	r0, sp, r0, lsl #8
     830:	e4000500 	str	r0, [r0], #-1280	; 0xfffffb00
     834:	05000086 	streq	r0, [r0, #-134]	; 0xffffff7a
     838:	00480700 	subeq	r0, r8, r0, lsl #14
     83c:	e0000500 	and	r0, r0, r0, lsl #10
     840:	05000016 	streq	r0, [r0, #-22]	; 0xffffffea
     844:	00300500 	eorseq	r0, r0, r0, lsl #10
     848:	3a000500 	bcc	1c50 <_Min_Stack_Size+0x1850>
     84c:	05000045 	streq	r0, [r0, #-69]	; 0xffffffbb
     850:	00567c00 	subseq	r7, r6, r0, lsl #24
     854:	34000500 	strcc	r0, [r0], #-1280	; 0xfffffb00
     858:	05000020 	streq	r0, [r0, #-32]	; 0xffffffe0
     85c:	00123000 	andseq	r3, r2, r0
     860:	18000500 	stmdane	r0, {r8, sl}
     864:	05000082 	streq	r0, [r0, #-130]	; 0xffffff7e
     868:	0068a900 	rsbeq	sl, r8, r0, lsl #18
     86c:	03000500 	movweq	r0, #1280	; 0x500
     870:	0500004a 	streq	r0, [r0, #-74]	; 0xffffffb6
     874:	007dd700 	rsbseq	sp, sp, r0, lsl #14
     878:	e2000500 	and	r0, r0, #0, 10
     87c:	05000066 	streq	r0, [r0, #-102]	; 0xffffff9a
     880:	00490200 	subeq	r0, r9, r0, lsl #4
     884:	0d000500 	cfstr32eq	mvfx0, [r0, #-0]
     888:	0500006b 	streq	r0, [r0, #-107]	; 0xffffff95
     88c:	0086ff00 	addeq	pc, r6, r0, lsl #30
     890:	15000500 	strne	r0, [r0, #-1280]	; 0xfffffb00
     894:	05000071 	streq	r0, [r0, #-113]	; 0xffffff8f
     898:	003ff500 	eorseq	pc, pc, r0, lsl #10
     89c:	29000500 	stmdbcs	r0, {r8, sl}
     8a0:	05000002 	streq	r0, [r0, #-2]
     8a4:	00380800 	eorseq	r0, r8, r0, lsl #16
     8a8:	7a000500 	bvc	1cb0 <_Min_Stack_Size+0x18b0>
     8ac:	05000069 	streq	r0, [r0, #-105]	; 0xffffff97
     8b0:	00259800 	eoreq	r9, r5, r0, lsl #16
     8b4:	67000500 	strvs	r0, [r0, -r0, lsl #10]
     8b8:	05000056 	streq	r0, [r0, #-86]	; 0xffffffaa
     8bc:	0082db00 	addeq	sp, r2, r0, lsl #22
     8c0:	90000500 	andls	r0, r0, r0, lsl #10
     8c4:	05000005 	streq	r0, [r0, #-5]
     8c8:	002f0a00 	eoreq	r0, pc, r0, lsl #20
     8cc:	8f000500 	svchi	0x00000500
     8d0:	05000088 	streq	r0, [r0, #-136]	; 0xffffff78
     8d4:	00707000 	rsbseq	r7, r0, r0
     8d8:	6d000500 	cfstr32vs	mvfx0, [r0, #-0]
     8dc:	0500008a 	streq	r0, [r0, #-138]	; 0xffffff76
     8e0:	008e6000 	addeq	r6, lr, r0
     8e4:	9e000500 	cfsh32ls	mvfx0, mvfx0, #0
     8e8:	05000010 	streq	r0, [r0, #-16]
     8ec:	00068400 	andeq	r8, r6, r0, lsl #8
     8f0:	54000500 	strpl	r0, [r0], #-1280	; 0xfffffb00
     8f4:	05000067 	streq	r0, [r0, #-103]	; 0xffffff99
     8f8:	006c1500 	rsbeq	r1, ip, r0, lsl #10
     8fc:	6e000500 	cfsh32vs	mvfx0, mvfx0, #0
     900:	05000024 	streq	r0, [r0, #-36]	; 0xffffffdc
     904:	00037300 	andeq	r7, r3, r0, lsl #6
     908:	fd000500 	stc2	5, cr0, [r0, #-0]
     90c:	05000057 	streq	r0, [r0, #-87]	; 0xffffffa9
     910:	0048bf00 	subeq	fp, r8, r0, lsl #30
     914:	21000500 	tstcs	r0, r0, lsl #10
     918:	05000011 	streq	r0, [r0, #-17]	; 0xffffffef
     91c:	0067d600 	rsbeq	sp, r7, r0, lsl #12
     920:	54000500 	strpl	r0, [r0], #-1280	; 0xfffffb00
     924:	05000010 	streq	r0, [r0, #-16]
     928:	00718800 	rsbseq	r8, r1, r0, lsl #16
     92c:	f7000500 			; <UNDEFINED> instruction: 0xf7000500
     930:	05000053 	streq	r0, [r0, #-83]	; 0xffffffad
     934:	00447f00 	subeq	r7, r4, r0, lsl #30
     938:	69000500 	stmdbvs	r0, {r8, sl}
     93c:	05000069 	streq	r0, [r0, #-105]	; 0xffffff97
     940:	006eec00 	rsbeq	lr, lr, r0, lsl #24
     944:	6d000500 	cfstr32vs	mvfx0, [r0, #-0]
     948:	05000029 	streq	r0, [r0, #-41]	; 0xffffffd7
     94c:	00129100 	andseq	r9, r2, r0, lsl #2
     950:	03000500 	movweq	r0, #1280	; 0x500
     954:	0500006f 	streq	r0, [r0, #-111]	; 0xffffff91
     958:	003da400 	eorseq	sl, sp, r0, lsl #8
     95c:	1b000500 	blne	1d64 <_Min_Stack_Size+0x1964>
     960:	0500002e 	streq	r0, [r0, #-46]	; 0xffffffd2
     964:	008d2400 	addeq	r2, sp, r0, lsl #8
     968:	97000500 	strls	r0, [r0, -r0, lsl #10]
     96c:	05000033 	streq	r0, [r0, #-51]	; 0xffffffcd
     970:	005f5500 	subseq	r5, pc, r0, lsl #10
     974:	63000500 	movwvs	r0, #1280	; 0x500
     978:	05000000 	streq	r0, [r0, #-0]
     97c:	00370c00 	eorseq	r0, r7, r0, lsl #24
     980:	fb000500 	blx	1d8a <_Min_Stack_Size+0x198a>
     984:	0500005a 	streq	r0, [r0, #-90]	; 0xffffffa6
     988:	0027ea00 	eoreq	lr, r7, r0, lsl #20
     98c:	94000500 	strls	r0, [r0], #-1280	; 0xfffffb00
     990:	05000018 	streq	r0, [r0, #-24]	; 0xffffffe8
     994:	00799f00 	rsbseq	r9, r9, r0, lsl #30
     998:	4b000500 	blmi	1da0 <_Min_Stack_Size+0x19a0>
     99c:	0500001e 	streq	r0, [r0, #-30]	; 0xffffffe2
     9a0:	0080d400 	addeq	sp, r0, r0, lsl #8
     9a4:	01000500 	tsteq	r0, r0, lsl #10
     9a8:	05000076 	streq	r0, [r0, #-118]	; 0xffffff8a
     9ac:	0038b600 	eorseq	fp, r8, r0, lsl #12
     9b0:	be000500 	cfsh32lt	mvfx0, mvfx0, #0
     9b4:	05000086 	streq	r0, [r0, #-134]	; 0xffffff7a
     9b8:	007a1c00 	rsbseq	r1, sl, r0, lsl #24
     9bc:	f9000500 			; <UNDEFINED> instruction: 0xf9000500
     9c0:	05000000 	streq	r0, [r0, #-0]
     9c4:	000bc500 	andeq	ip, fp, r0, lsl #10
     9c8:	06000500 	streq	r0, [r0], -r0, lsl #10
     9cc:	05000028 	streq	r0, [r0, #-40]	; 0xffffffd8
     9d0:	00641a00 	rsbeq	r1, r4, r0, lsl #20
     9d4:	20000500 	andcs	r0, r0, r0, lsl #10
     9d8:	0500004a 	streq	r0, [r0, #-74]	; 0xffffffb6
     9dc:	007eff00 	rsbseq	pc, lr, r0, lsl #30
     9e0:	65000500 	strvs	r0, [r0, #-1280]	; 0xfffffb00
     9e4:	05000043 	streq	r0, [r0, #-67]	; 0xffffffbd
     9e8:	001faf00 	andseq	sl, pc, r0, lsl #30
     9ec:	d8000500 	stmdale	r0, {r8, sl}
     9f0:	05000000 	streq	r0, [r0, #-0]
     9f4:	0030b800 	eorseq	fp, r0, r0, lsl #16
     9f8:	cc000500 	cfstr32gt	mvfx0, [r0], {-0}
     9fc:	05000072 	streq	r0, [r0, #-114]	; 0xffffff8e
     a00:	0048e400 	subeq	lr, r8, r0, lsl #8
     a04:	9a000500 	bls	1e0c <_Min_Stack_Size+0x1a0c>
     a08:	05000029 	streq	r0, [r0, #-41]	; 0xffffffd7
     a0c:	00327500 	eorseq	r7, r2, r0, lsl #10
     a10:	14000500 	strne	r0, [r0], #-1280	; 0xfffffb00
     a14:	0500003a 	streq	r0, [r0, #-58]	; 0xffffffc6
     a18:	0063e800 	rsbeq	lr, r3, r0, lsl #16
     a1c:	56000500 	strpl	r0, [r0], -r0, lsl #10
     a20:	0500003d 	streq	r0, [r0, #-61]	; 0xffffffc3
     a24:	0026fe00 	eoreq	pc, r6, r0, lsl #28
     a28:	c9000500 	stmdbgt	r0, {r8, sl}
     a2c:	05000064 	streq	r0, [r0, #-100]	; 0xffffff9c
     a30:	0081b600 	addeq	fp, r1, r0, lsl #12
     a34:	fc000500 	stc2	5, cr0, [r0], {-0}
     a38:	06000058 			; <UNDEFINED> instruction: 0x06000058
     a3c:	004e7700 	subeq	r7, lr, r0, lsl #14
     a40:	35000500 	strcc	r0, [r0, #-1280]	; 0xfffffb00
     a44:	0500003a 	streq	r0, [r0, #-58]	; 0xffffffc6
     a48:	007d6900 	rsbseq	r6, sp, r0, lsl #18
     a4c:	b4000600 	strlt	r0, [r0], #-1536	; 0xfffffa00
     a50:	05000064 	streq	r0, [r0, #-100]	; 0xffffff9c
     a54:	0081ca00 	addeq	ip, r1, r0, lsl #20
     a58:	32000600 	andcc	r0, r0, #0, 12
     a5c:	06000060 	streq	r0, [r0], -r0, rrx
     a60:	0080e400 	addeq	lr, r0, r0, lsl #8
     a64:	da000600 	ble	226c <_Min_Stack_Size+0x1e6c>
     a68:	06000083 	streq	r0, [r0], -r3, lsl #1
     a6c:	003a7100 	eorseq	r7, sl, r0, lsl #2
     a70:	d1000500 	tstle	r0, r0, lsl #10
     a74:	06000061 	streq	r0, [r0], -r1, rrx
     a78:	003df800 	eorseq	pc, sp, r0, lsl #16
     a7c:	b3000600 	movwlt	r0, #1536	; 0x600
     a80:	06000049 	streq	r0, [r0], -r9, asr #32
     a84:	00576800 	subseq	r6, r7, r0, lsl #16
     a88:	3e000500 	cfsh32cc	mvfx0, mvfx0, #0
     a8c:	0500008c 	streq	r0, [r0, #-140]	; 0xffffff74
     a90:	003a4a00 	eorseq	r4, sl, r0, lsl #20
     a94:	0f000600 	svceq	0x00000600
     a98:	06000072 			; <UNDEFINED> instruction: 0x06000072
     a9c:	008ca700 	addeq	sl, ip, r0, lsl #14
     aa0:	eb000500 	bl	1ea8 <_Min_Stack_Size+0x1aa8>
     aa4:	0500005c 	streq	r0, [r0, #-92]	; 0xffffffa4
     aa8:	003b3800 	eorseq	r3, fp, r0, lsl #16
     aac:	8a000600 	bhi	22b4 <_Min_Stack_Size+0x1eb4>
     ab0:	05000050 	streq	r0, [r0, #-80]	; 0xffffffb0
     ab4:	00201e00 	eoreq	r1, r0, r0, lsl #28
     ab8:	53000500 	movwpl	r0, #1280	; 0x500
     abc:	0600005d 			; <UNDEFINED> instruction: 0x0600005d
     ac0:	008b7c00 	addeq	r7, fp, r0, lsl #24
     ac4:	65000500 	strvs	r0, [r0, #-1280]	; 0xfffffb00
     ac8:	05000049 	streq	r0, [r0, #-73]	; 0xffffffb7
     acc:	00411300 	subeq	r1, r1, r0, lsl #6
     ad0:	be000500 	cfsh32lt	mvfx0, mvfx0, #0
     ad4:	05000085 	streq	r0, [r0, #-133]	; 0xffffff7b
     ad8:	00890e00 	addeq	r0, r9, r0, lsl #28
     adc:	f0000500 			; <UNDEFINED> instruction: 0xf0000500
     ae0:	05000083 	streq	r0, [r0, #-131]	; 0xffffff7d
     ae4:	00702d00 	rsbseq	r2, r0, r0, lsl #26
     ae8:	f9000600 			; <UNDEFINED> instruction: 0xf9000600
     aec:	05000030 	streq	r0, [r0, #-48]	; 0xffffffd0
     af0:	00606900 	rsbeq	r6, r0, r0, lsl #18
     af4:	7e000500 	cfsh32vc	mvfx0, mvfx0, #0
     af8:	05000070 	streq	r0, [r0, #-112]	; 0xffffff90
     afc:	003ed400 	eorseq	sp, lr, r0, lsl #8
     b00:	6d000500 	cfstr32vs	mvfx0, [r0, #-0]
     b04:	06000031 			; <UNDEFINED> instruction: 0x06000031
     b08:	004e1300 	subeq	r1, lr, r0, lsl #6
     b0c:	35000600 	strcc	r0, [r0, #-1536]	; 0xfffffa00
     b10:	0600003e 			; <UNDEFINED> instruction: 0x0600003e
     b14:	005e0500 	subseq	r0, lr, r0, lsl #10
     b18:	67000600 	strvs	r0, [r0, -r0, lsl #12]
     b1c:	06000058 			; <UNDEFINED> instruction: 0x06000058
     b20:	00738400 	rsbseq	r8, r3, r0, lsl #8
     b24:	17000600 	strne	r0, [r0, -r0, lsl #12]
     b28:	0600001b 			; <UNDEFINED> instruction: 0x0600001b
     b2c:	0036f500 	eorseq	pc, r6, r0, lsl #10
     b30:	97000600 	strls	r0, [r0, -r0, lsl #12]
     b34:	06000068 	streq	r0, [r0], -r8, rrx
     b38:	0019ad00 	andseq	sl, r9, r0, lsl #26
     b3c:	12000600 	andne	r0, r0, #0, 12
     b40:	0600002c 	streq	r0, [r0], -ip, lsr #32
     b44:	00534100 	subseq	r4, r3, r0, lsl #2
     b48:	88000500 	stmdahi	r0, {r8, sl}
     b4c:	05000010 	streq	r0, [r0, #-16]
     b50:	00183700 	andseq	r3, r8, r0, lsl #14
     b54:	23000500 	movwcs	r0, #1280	; 0x500
     b58:	05000034 	streq	r0, [r0, #-52]	; 0xffffffcc
     b5c:	006fc600 	rsbeq	ip, pc, r0, lsl #12
     b60:	7b000600 	blvc	2368 <_Min_Stack_Size+0x1f68>
     b64:	05000029 	streq	r0, [r0, #-41]	; 0xffffffd7
     b68:	00340b00 	eorseq	r0, r4, r0, lsl #22
     b6c:	44000500 	strmi	r0, [r0], #-1280	; 0xfffffb00
     b70:	05000059 	streq	r0, [r0, #-89]	; 0xffffffa7
     b74:	00838c00 	addeq	r8, r3, r0, lsl #24
     b78:	08000600 	stmdaeq	r0, {r9, sl}
     b7c:	0500007b 	streq	r0, [r0, #-123]	; 0xffffff85
     b80:	000cc500 	andeq	ip, ip, r0, lsl #10
     b84:	ec000600 	stc	6, cr0, [r0], {-0}
     b88:	06000077 			; <UNDEFINED> instruction: 0x06000077
     b8c:	00931a00 	addseq	r1, r3, r0, lsl #20
     b90:	d3000600 	movwle	r0, #1536	; 0x600
     b94:	06000032 			; <UNDEFINED> instruction: 0x06000032
     b98:	00065f00 	andeq	r5, r6, r0, lsl #30
     b9c:	21000600 	tstcs	r0, r0, lsl #12
     ba0:	06000041 	streq	r0, [r0], -r1, asr #32
     ba4:	006c2300 	rsbeq	r2, ip, r0, lsl #6
     ba8:	17000500 	strne	r0, [r0, -r0, lsl #10]
     bac:	05000000 	streq	r0, [r0, #-0]
     bb0:	00329900 	eorseq	r9, r2, r0, lsl #18
     bb4:	15000500 	strne	r0, [r0, #-1280]	; 0xfffffb00
     bb8:	0500007d 	streq	r0, [r0, #-125]	; 0xffffff83
     bbc:	005fa800 	subseq	sl, pc, r0, lsl #16
     bc0:	a6000500 	strge	r0, [r0], -r0, lsl #10
     bc4:	0500008e 	streq	r0, [r0, #-142]	; 0xffffff72
     bc8:	00557100 	subseq	r7, r5, r0, lsl #2
     bcc:	17000500 	strne	r0, [r0, -r0, lsl #10]
     bd0:	00000016 	andeq	r0, r0, r6, lsl r0
     bd4:	05000004 	streq	r0, [r0, #-4]
     bd8:	003d3409 	eorseq	r3, sp, r9, lsl #8
     bdc:	e40c0500 	str	r0, [ip], #-1280	; 0xfffffb00
     be0:	05000023 	streq	r0, [r0, #-35]	; 0xffffffdd
     be4:	0032a80d 	eorseq	sl, r2, sp, lsl #16
     be8:	00040000 	andeq	r0, r4, r0
     bec:	324d0500 	subcc	r0, sp, #0, 10
     bf0:	0500005b 	streq	r0, [r0, #-91]	; 0xffffffa5
     bf4:	5a1603f0 	bpl	581bbc <_Min_Stack_Size+0x5817bc>
     bf8:	f3050000 	vhadd.u8	d0, d5, d0
     bfc:	0032ed03 	eorseq	lr, r2, r3, lsl #26
     c00:	00040000 	andeq	r0, r4, r0
     c04:	ce040500 	cfsh32gt	mvfx0, mvfx4, #0
     c08:	05000048 	streq	r0, [r0, #-72]	; 0xffffffb8
     c0c:	008cdb06 	addeq	sp, ip, r6, lsl #22
     c10:	22070500 	andcs	r0, r7, #0, 10
     c14:	0500001e 	streq	r0, [r0, #-30]	; 0xffffffe2
     c18:	00558908 	subseq	r8, r5, r8, lsl #18
     c1c:	b1090500 	tstlt	r9, r0, lsl #10
     c20:	00000065 	andeq	r0, r0, r5, rrx
     c24:	05000004 	streq	r0, [r0, #-4]
     c28:	0051ea22 	subseq	lr, r1, r2, lsr #20
     c2c:	e7250500 	str	r0, [r5, -r0, lsl #10]!
     c30:	05000085 	streq	r0, [r0, #-133]	; 0xffffff7b
     c34:	002dd72b 	eoreq	sp, sp, fp, lsr #14
     c38:	fd350500 	ldc2	5, cr0, [r5, #-0]
     c3c:	05000076 	streq	r0, [r0, #-118]	; 0xffffff8a
     c40:	00491939 	subeq	r1, r9, r9, lsr r9
     c44:	fd3c0500 	ldc2	5, cr0, [ip, #-0]
     c48:	0500001e 	streq	r0, [r0, #-30]	; 0xffffffe2
     c4c:	0060463f 	rsbeq	r4, r0, pc, lsr r6
     c50:	75420500 	strbvc	r0, [r2, #-1280]	; 0xfffffb00
     c54:	0500000c 	streq	r0, [r0, #-12]
     c58:	007ac051 	rsbseq	ip, sl, r1, asr r0
     c5c:	ed540500 	cfldr64	mvdx0, [r4, #-0]
     c60:	0500003c 	streq	r0, [r0, #-60]	; 0xffffffc4
     c64:	0090175c 	addseq	r1, r0, ip, asr r7
     c68:	205f0500 	subscs	r0, pc, r0, lsl #10
     c6c:	0000007c 	andeq	r0, r0, ip, ror r0
     c70:	05000004 	streq	r0, [r0, #-4]
     c74:	00263316 	eoreq	r3, r6, r6, lsl r3
     c78:	f6210500 			; <UNDEFINED> instruction: 0xf6210500
     c7c:	05000014 	streq	r0, [r0, #-20]	; 0xffffffec
     c80:	0080a728 	addeq	sl, r0, r8, lsr #14
     c84:	01830600 	orreq	r0, r3, r0, lsl #12
     c88:	0000840a 	andeq	r8, r0, sl, lsl #8
     c8c:	7a018405 	bvc	61ca8 <_Min_Stack_Size+0x618a8>
     c90:	06000041 	streq	r0, [r0], -r1, asr #32
     c94:	3e890188 	rmfcc<illegal precision>	f0, f1, #0.0
     c98:	89050000 	stmdbhi	r5, {}	; <UNPREDICTABLE>
     c9c:	00861301 	addeq	r1, r6, r1, lsl #6
     ca0:	018a0600 	orreq	r0, sl, r0, lsl #12
     ca4:	0000913c 	andeq	r9, r0, ip, lsr r1
     ca8:	3c018b05 			; <UNDEFINED> instruction: 0x3c018b05
     cac:	0600001b 			; <UNDEFINED> instruction: 0x0600001b
     cb0:	396a019e 	stmdbcc	sl!, {r1, r2, r3, r4, r7, r8}^
     cb4:	9f050000 	svcls	0x00050000
     cb8:	0052ad01 	subseq	sl, r2, r1, lsl #26
     cbc:	01f70500 	mvnseq	r0, r0, lsl #10
     cc0:	00005b63 	andeq	r5, r0, r3, ror #22
     cc4:	e501fd05 	str	pc, [r1, #-3333]	; 0xfffff2fb
     cc8:	05000050 	streq	r0, [r0, #-80]	; 0xffffffb0
     ccc:	67630285 	strbvs	r0, [r3, -r5, lsl #5]!
     cd0:	8a050000 	bhi	140cd8 <_Min_Stack_Size+0x1408d8>
     cd4:	005dca02 	subseq	ip, sp, r2, lsl #20
     cd8:	02950500 	addseq	r0, r5, #0, 10
     cdc:	00001df4 	strdeq	r1, [r0], -r4
     ce0:	a6029905 	strge	r9, [r2], -r5, lsl #18
     ce4:	05000063 	streq	r0, [r0, #-99]	; 0xffffff9d
     ce8:	53b7029f 			; <UNDEFINED> instruction: 0x53b7029f
     cec:	af050000 	svcge	0x00050000
     cf0:	00007202 	andeq	r7, r0, r2, lsl #4
     cf4:	02bf0500 	adcseq	r0, pc, #0, 10
     cf8:	00007fc1 	andeq	r7, r0, r1, asr #31
     cfc:	8f02ca05 	svchi	0x0002ca05
     d00:	0000007f 	andeq	r0, r0, pc, ror r0
     d04:	05000004 	streq	r0, [r0, #-4]
     d08:	5d0701e0 	stfpls	f0, [r7, #-896]	; 0xfffffc80
     d0c:	e6060000 	str	r0, [r6], -r0
     d10:	003ea001 	eorseq	sl, lr, r1
     d14:	01ea0500 	mvneq	r0, r0, lsl #10
     d18:	0000135f 	andeq	r1, r0, pc, asr r3
     d1c:	e901fa05 	stmdb	r1, {r0, r2, r9, fp, ip, sp, lr, pc}
     d20:	05000059 	streq	r0, [r0, #-89]	; 0xffffffa7
     d24:	5abd01fe 	bpl	fef41524 <_estack+0xdef3ed24>
     d28:	85050000 	strhi	r0, [r5, #-0]
     d2c:	0022eb02 	eoreq	lr, r2, r2, lsl #22
     d30:	028b0500 	addeq	r0, fp, #0, 10
     d34:	00005a42 	andeq	r5, r0, r2, asr #20
     d38:	cd029805 	stcgt	8, cr9, [r2, #-20]	; 0xffffffec
     d3c:	00000082 	andeq	r0, r0, r2, lsl #1
     d40:	05000004 	streq	r0, [r0, #-4]
     d44:	005bbd1f 	subseq	fp, fp, pc, lsl sp
     d48:	76200500 	strtvc	r0, [r0], -r0, lsl #10
     d4c:	0500002f 	streq	r0, [r0, #-47]	; 0xffffffd1
     d50:	00534f21 	subseq	r4, r3, r1, lsr #30
     d54:	ff250500 			; <UNDEFINED> instruction: 0xff250500
     d58:	05000002 	streq	r0, [r0, #-2]
     d5c:	007ae02b 	rsbseq	lr, sl, fp, lsr #32
     d60:	ea450500 	b	1142168 <_Min_Stack_Size+0x1141d68>
     d64:	05000010 	streq	r0, [r0, #-16]
     d68:	00186b49 	andseq	r6, r8, r9, asr #22
     d6c:	2c4a0500 	cfstr64cs	mvdx0, [sl], {-0}
     d70:	00000074 	andeq	r0, r0, r4, ror r0
     d74:	05000004 	streq	r0, [r0, #-4]
     d78:	00295e0d 	eoreq	r5, r9, sp, lsl #28
     d7c:	330e0500 	movwcc	r0, #58624	; 0xe500
     d80:	05000028 	streq	r0, [r0, #-40]	; 0xffffffd8
     d84:	0041560f 	subeq	r5, r1, pc, lsl #12
     d88:	00040000 	andeq	r0, r4, r0
     d8c:	01b50500 			; <UNDEFINED> instruction: 0x01b50500
     d90:	000018a4 	andeq	r1, r0, r4, lsr #17
     d94:	2101b605 	tstcs	r1, r5, lsl #12
     d98:	0500000d 	streq	r0, [r0, #-13]
     d9c:	842701b7 	strthi	r0, [r7], #-439	; 0xfffffe49
     da0:	b8050000 	stmdalt	r5, {}	; <UNPREDICTABLE>
     da4:	00160801 	andseq	r0, r6, r1, lsl #16
     da8:	01b90500 			; <UNDEFINED> instruction: 0x01b90500
     dac:	00003f08 	andeq	r3, r0, r8, lsl #30
     db0:	8201ba05 	andhi	fp, r1, #20480	; 0x5000
     db4:	0500002f 	streq	r0, [r0, #-47]	; 0xffffffd1
     db8:	626901bb 	rsbvs	r0, r9, #-1073741778	; 0xc000002e
     dbc:	bc050000 	stclt	0, cr0, [r5], {-0}
     dc0:	006d4b01 	rsbeq	r4, sp, r1, lsl #22
     dc4:	01bd0500 			; <UNDEFINED> instruction: 0x01bd0500
     dc8:	00006d47 	andeq	r6, r0, r7, asr #26
     dcc:	9201be05 	andls	fp, r1, #5, 28	; 0x50
     dd0:	05000021 	streq	r0, [r0, #-33]	; 0xffffffdf
     dd4:	674301bf 			; <UNDEFINED> instruction: 0x674301bf
     dd8:	c0050000 	andgt	r0, r5, r0
     ddc:	00218e01 	eoreq	r8, r1, r1, lsl #28
     de0:	01c10500 	biceq	r0, r1, r0, lsl #10
     de4:	00001ae3 	andeq	r1, r0, r3, ror #21
     de8:	c601c205 	strgt	ip, [r1], -r5, lsl #4
     dec:	05000021 	streq	r0, [r0, #-33]	; 0xffffffdf
     df0:	842301c3 	strthi	r0, [r3], #-451	; 0xfffffe3d
     df4:	c4050000 	strgt	r0, [r5], #-0
     df8:	0055a901 	subseq	sl, r5, r1, lsl #18
     dfc:	01cb0500 	biceq	r0, fp, r0, lsl #10
     e00:	00000f7f 	andeq	r0, r0, pc, ror pc
     e04:	3101e706 	tstcc	r1, r6, lsl #14
     e08:	05000049 	streq	r0, [r0, #-73]	; 0xffffffb7
     e0c:	4a3e0284 	bmi	f81824 <_Min_Stack_Size+0xf81424>
     e10:	85050000 	strhi	r0, [r5, #-0]
     e14:	00591d02 	subseq	r1, r9, r2, lsl #26
     e18:	02860500 	addeq	r0, r6, #0, 10
     e1c:	000059a2 	andeq	r5, r0, r2, lsr #19
     e20:	73028705 	movwvc	r8, #9989	; 0x2705
     e24:	05000084 	streq	r0, [r0, #-132]	; 0xffffff7c
     e28:	154a0288 	strbne	r0, [sl, #-648]	; 0xfffffd78
     e2c:	89050000 	stmdbhi	r5, {}	; <UNPREDICTABLE>
     e30:	004fe102 	subeq	lr, pc, r2, lsl #2
     e34:	028a0500 	addeq	r0, sl, #0, 10
     e38:	0000356e 	andeq	r3, r0, lr, ror #10
     e3c:	6a028b05 	bvs	a3a58 <_Min_Stack_Size+0xa3658>
     e40:	05000035 	streq	r0, [r0, #-53]	; 0xffffffcb
     e44:	8e93028c 	cdphi	2, 9, cr0, cr3, cr12, {4}
     e48:	8d050000 	stchi	0, cr0, [r5, #-0]
     e4c:	006afb02 	rsbeq	pc, sl, r2, lsl #22
     e50:	028e0500 	addeq	r0, lr, #0, 10
     e54:	00006f17 	andeq	r6, r0, r7, lsl pc
     e58:	c5028f05 	strgt	r8, [r2, #-3845]	; 0xfffff0fb
     e5c:	0500000f 	streq	r0, [r0, #-15]
     e60:	6f120290 	svcvs	0x00120290
     e64:	91050000 	mrsls	r0, (UNDEF: 5)
     e68:	00599e02 	subseq	r9, r9, r2, lsl #28
     e6c:	02920500 	addseq	r0, r2, #0, 10
     e70:	0000569f 	muleq	r0, pc, r6	; <UNPREDICTABLE>
     e74:	fd029f06 	stc2	15, cr9, [r2, #-24]	; 0xffffffe8
     e78:	06000084 	streq	r0, [r0], -r4, lsl #1
     e7c:	0e4f02d4 	mcreq	2, 2, r0, cr15, cr4, {6}
     e80:	86060000 	strhi	r0, [r6], -r0
     e84:	00383903 	eorseq	r3, r8, r3, lsl #18
     e88:	038b0500 	orreq	r0, fp, #0, 10
     e8c:	0000374d 	andeq	r3, r0, sp, asr #14
     e90:	32039106 	andcc	r9, r3, #-2147483647	; 0x80000001
     e94:	00000038 	andeq	r0, r0, r8, lsr r0
     e98:	05000004 	streq	r0, [r0, #-4]
     e9c:	0046c027 	subeq	ip, r6, r7, lsr #32
     ea0:	05280500 	streq	r0, [r8, #-1280]!	; 0xfffffb00
     ea4:	05000062 	streq	r0, [r0, #-98]	; 0xffffff9e
     ea8:	0046bb2a 	subeq	fp, r6, sl, lsr #22
     eac:	01830500 	orreq	r0, r3, r0, lsl #10
     eb0:	00005f0c 	andeq	r5, r0, ip, lsl #30
     eb4:	f2018405 	vshl.s8	d8, d5, d1
     eb8:	05000045 	streq	r0, [r0, #-69]	; 0xffffffbb
     ebc:	57f10185 	ldrbpl	r0, [r1, r5, lsl #3]!
     ec0:	86050000 	strhi	r0, [r5], -r0
     ec4:	0067c901 	rsbeq	ip, r7, r1, lsl #18
     ec8:	01870500 	orreq	r0, r7, r0, lsl #10
     ecc:	00000eff 	strdeq	r0, [r0], -pc	; <UNPREDICTABLE>
     ed0:	fb018805 	blx	62eee <_Min_Stack_Size+0x62aee>
     ed4:	0500000e 	streq	r0, [r0, #-14]
     ed8:	1acf0189 	bne	ff3c1504 <_estack+0xdf3bed04>
     edc:	8a050000 	bhi	140ee4 <_Min_Stack_Size+0x140ae4>
     ee0:	005f0801 	subseq	r0, pc, r1, lsl #16
     ee4:	018b0500 	orreq	r0, fp, r0, lsl #10
     ee8:	00005ae6 	andeq	r5, r0, r6, ror #21
     eec:	41019b06 	tstmi	r1, r6, lsl #22
     ef0:	0600007d 			; <UNDEFINED> instruction: 0x0600007d
     ef4:	493101e7 	ldmdbmi	r1!, {r0, r1, r2, r5, r6, r7, r8}
     ef8:	d4060000 	strle	r0, [r6], #-0
     efc:	000e4f02 	andeq	r4, lr, r2, lsl #30
     f00:	03860600 	orreq	r0, r6, #0, 12
     f04:	00003839 	andeq	r3, r0, r9, lsr r8
     f08:	4d038b05 	vstrmi	d8, [r3, #-20]	; 0xffffffec
     f0c:	06000037 			; <UNDEFINED> instruction: 0x06000037
     f10:	38320391 	ldmdacc	r2!, {r0, r4, r7, r8, r9}
     f14:	96050000 	strls	r0, [r5], -r0
     f18:	0041fe03 	subeq	pc, r1, r3, lsl #28
     f1c:	039b0500 	orrseq	r0, fp, #0, 10
     f20:	00007366 	andeq	r7, r0, r6, ror #6
     f24:	00000400 	andeq	r0, r0, r0, lsl #8
     f28:	82f41405 	rscshi	r1, r4, #83886080	; 0x5000000
     f2c:	16050000 	strne	r0, [r5], -r0
     f30:	0000295e 	andeq	r2, r0, lr, asr r9
     f34:	86d51705 	ldrbhi	r1, [r5], r5, lsl #14
     f38:	04000000 	streq	r0, [r0], #-0
     f3c:	9b060000 	blls	180f44 <_Min_Stack_Size+0x180b44>
     f40:	007d4101 	rsbseq	r4, sp, r1, lsl #2
     f44:	01e70600 	mvneq	r0, r0, lsl #12
     f48:	00004931 	andeq	r4, r0, r1, lsr r9
     f4c:	4f02d406 	svcmi	0x0002d406
     f50:	0500000e 	streq	r0, [r0, #-14]
     f54:	28e102d9 	stmiacs	r1!, {r0, r3, r4, r6, r7, r9}^
     f58:	e0060000 	and	r0, r6, r0
     f5c:	00235002 	eoreq	r5, r3, r2
     f60:	03860600 	orreq	r0, r6, #0, 12
     f64:	00003839 	andeq	r3, r0, r9, lsr r8
     f68:	4d038b05 	vstrmi	d8, [r3, #-20]	; 0xffffffec
     f6c:	06000037 			; <UNDEFINED> instruction: 0x06000037
     f70:	38320391 	ldmdacc	r2!, {r0, r4, r7, r8, r9}
     f74:	96050000 	strls	r0, [r5], -r0
     f78:	0041fe03 	subeq	pc, r1, r3, lsl #28
     f7c:	00040000 	andeq	r0, r4, r0
     f80:	d5060500 	strle	r0, [r6, #-1280]	; 0xfffffb00
     f84:	0500005e 	streq	r0, [r0, #-94]	; 0xffffffa2
     f88:	0052da0f 	subseq	sp, r2, pc, lsl #20
     f8c:	ce1a0500 	cfmul32gt	mvfx0, mvfx10, mvfx0
     f90:	05000069 	streq	r0, [r0, #-105]	; 0xffffff97
     f94:	007d7d21 	rsbseq	r7, sp, r1, lsr #26
     f98:	722f0500 	eorvc	r0, pc, #0, 10
     f9c:	0500003d 	streq	r0, [r0, #-61]	; 0xffffffc3
     fa0:	006f973d 	rsbeq	r9, pc, sp, lsr r7	; <UNPREDICTABLE>
     fa4:	36530500 	ldrbcc	r0, [r3], -r0, lsl #10
     fa8:	05000050 	streq	r0, [r0, #-80]	; 0xffffffb0
     fac:	0063bd6d 	rsbeq	fp, r3, sp, ror #26
     fb0:	018c0500 	orreq	r0, ip, r0, lsl #10
     fb4:	0000592a 	andeq	r5, r0, sl, lsr #18
     fb8:	1c01a605 	stcne	6, cr10, [r1], {5}
     fbc:	05000018 	streq	r0, [r0, #-24]	; 0xffffffe8
     fc0:	37ed01bc 			; <UNDEFINED> instruction: 0x37ed01bc
     fc4:	ce050000 	cdpgt	0, 0, cr0, cr5, cr0, {0}
     fc8:	00518601 	subseq	r8, r1, r1, lsl #12
     fcc:	01f40600 	mvnseq	r0, r0, lsl #12
     fd0:	000063b7 			; <UNDEFINED> instruction: 0x000063b7
     fd4:	00000400 	andeq	r0, r0, r0, lsl #8
     fd8:	66197f06 	ldrvs	r7, [r9], -r6, lsl #30
     fdc:	92050000 	andls	r0, r5, #0
     fe0:	003ada01 	eorseq	sp, sl, r1, lsl #20
     fe4:	01940600 	orrseq	r0, r4, r0, lsl #12
     fe8:	00007859 	andeq	r7, r0, r9, asr r8
     fec:	ff01b305 			; <UNDEFINED> instruction: 0xff01b305
     ff0:	0500001c 	streq	r0, [r0, #-28]	; 0xffffffe4
     ff4:	1d1701bb 	ldfnes	f0, [r7, #-748]	; 0xfffffd14
     ff8:	c0050000 	andgt	r0, r5, r0
     ffc:	006ed201 	rsbeq	sp, lr, r1, lsl #4
    1000:	01c50500 	biceq	r0, r5, r0, lsl #10
    1004:	000040c3 	andeq	r4, r0, r3, asr #1
    1008:	00000400 	andeq	r0, r0, r0, lsl #8
    100c:	7cd51105 	ldfvce	f1, [r5], {5}
    1010:	15050000 	strne	r0, [r5, #-0]
    1014:	00007378 	andeq	r7, r0, r8, ror r3
    1018:	00000400 	andeq	r0, r0, r0, lsl #8
    101c:	92730205 	rsbsls	r0, r3, #1342177280	; 0x50000000
    1020:	23050000 	movwcs	r0, #20480	; 0x5000
    1024:	00001eb7 			; <UNDEFINED> instruction: 0x00001eb7
    1028:	02802505 	addeq	r2, r0, #20971520	; 0x1400000
    102c:	27050000 	strcs	r0, [r5, -r0]
    1030:	000070db 	ldrdeq	r7, [r0], -fp
    1034:	16f32a05 	ldrbtne	r2, [r3], r5, lsl #20
    1038:	2c050000 	stccs	0, cr0, [r5], {-0}
    103c:	00008dde 	ldrdeq	r8, [r0], -lr
    1040:	8a3e2e05 	bhi	f8c85c <_Min_Stack_Size+0xf8c45c>
    1044:	30050000 	andcc	r0, r5, r0
    1048:	00004009 	andeq	r4, r0, r9
    104c:	65c93205 	strbvs	r3, [r9, #517]	; 0x205
    1050:	34050000 	strcc	r0, [r5], #-0
    1054:	00002c7d 	andeq	r2, r0, sp, ror ip
    1058:	6a2e3605 	bvs	b8e874 <_Min_Stack_Size+0xb8e474>
    105c:	38050000 	stmdacc	r5, {}	; <UNPREDICTABLE>
    1060:	00002d88 	andeq	r2, r0, r8, lsl #27
    1064:	16ad3b05 	strtne	r3, [sp], r5, lsl #22
    1068:	3d050000 	stccc	0, cr0, [r5, #-0]
    106c:	000020ba 	strheq	r2, [r0], -sl
    1070:	00000400 	andeq	r0, r0, r0, lsl #8
    1074:	6c724d05 	ldclvs	13, cr4, [r2], #-20	; 0xffffffec
    1078:	60050000 	andvs	r0, r5, r0
    107c:	00008303 	andeq	r8, r0, r3, lsl #6
    1080:	80936d05 	addshi	r6, r3, r5, lsl #26
    1084:	af050000 	svcge	0x00050000
    1088:	008f9b01 	addeq	r9, pc, r1, lsl #22
    108c:	02bd0500 	adcseq	r0, sp, #0, 10
    1090:	0000730a 	andeq	r7, r0, sl, lsl #6
    1094:	6702be05 	strvs	fp, [r2, -r5, lsl #28]
    1098:	05000044 	streq	r0, [r0, #-68]	; 0xffffffbc
    109c:	200602bf 			; <UNDEFINED> instruction: 0x200602bf
    10a0:	c0050000 	andgt	r0, r5, r0
    10a4:	007b7502 	rsbseq	r7, fp, r2, lsl #10
    10a8:	02c10500 	sbceq	r0, r1, #0, 10
    10ac:	0000722c 	andeq	r7, r0, ip, lsr #4
    10b0:	5002c205 	andpl	ip, r2, r5, lsl #4
    10b4:	05000057 	streq	r0, [r0, #-87]	; 0xffffffa9
    10b8:	8c1002c3 	lfmhi	f0, 4, [r0], {195}	; 0xc3
    10bc:	cf050000 	svcgt	0x00050000
    10c0:	00115702 	andseq	r5, r1, r2, lsl #14
    10c4:	02d00500 	sbcseq	r0, r0, #0, 10
    10c8:	000090b9 	strheq	r9, [r0], -r9	; <UNPREDICTABLE>
    10cc:	e302d105 	movw	sp, #8453	; 0x2105
    10d0:	05000003 	streq	r0, [r0, #-3]
    10d4:	5bf503d3 	blpl	ffd42028 <_estack+0xdfd3f828>
    10d8:	ed050000 	stc	0, cr0, [r5, #-0]
    10dc:	007e3003 	rsbseq	r3, lr, r3
    10e0:	00040000 	andeq	r0, r4, r0
    10e4:	d40b0600 	strle	r0, [fp], #-1536	; 0xfffffa00
    10e8:	05000070 	streq	r0, [r0, #-112]	; 0xffffff90
    10ec:	00464f10 	subeq	r4, r6, r0, lsl pc
    10f0:	451a0500 	ldrmi	r0, [sl, #-1280]	; 0xfffffb00
    10f4:	05000051 	streq	r0, [r0, #-81]	; 0xffffffaf
    10f8:	0070be2d 	rsbseq	fp, r0, sp, lsr #28
    10fc:	00040000 	andeq	r0, r4, r0
    1100:	03f80500 	mvnseq	r0, #0, 10
    1104:	00005fc7 	andeq	r5, r0, r7, asr #31
    1108:	41048205 	tstmi	r4, r5, lsl #4
    110c:	05000014 	streq	r0, [r0, #-20]	; 0xffffffec
    1110:	0da5048b 	cfstrseq	mvf0, [r5, #556]!	; 0x22c
    1114:	8f050000 	svchi	0x00050000
    1118:	00349604 	eorseq	r9, r4, r4, lsl #12
    111c:	04940500 	ldreq	r0, [r4], #1280	; 0x500
    1120:	000007ca 	andeq	r0, r0, sl, asr #15
    1124:	ab049f05 	blge	128d40 <_Min_Stack_Size+0x128940>
    1128:	0500007b 	streq	r0, [r0, #-123]	; 0xffffff85
    112c:	4e9d04a2 	cdpmi	4, 9, cr0, cr13, cr2, {5}
    1130:	a8050000 	stmdage	r5, {}	; <UNPREDICTABLE>
    1134:	00520704 	subseq	r0, r2, r4, lsl #14
    1138:	04ab0500 	strteq	r0, [fp], #1280	; 0x500
    113c:	00004e1c 	andeq	r4, r0, ip, lsl lr
    1140:	4b04ae05 	blmi	12c95c <_Min_Stack_Size+0x12c55c>
    1144:	0500004a 	streq	r0, [r0, #-74]	; 0xffffffb6
    1148:	577c04c4 	ldrbpl	r0, [ip, -r4, asr #9]!
    114c:	c7050000 	strgt	r0, [r5, -r0]
    1150:	00041604 	andeq	r1, r4, r4, lsl #12
    1154:	04ca0500 	strbeq	r0, [sl], #1280	; 0x500
    1158:	00002736 	andeq	r2, r0, r6, lsr r7
    115c:	aa04cb05 	bge	133d78 <_Min_Stack_Size+0x133978>
    1160:	0500006b 	streq	r0, [r0, #-107]	; 0xffffff95
    1164:	1dc704cc 	cfstrdne	mvd0, [r7, #816]	; 0x330
    1168:	cd050000 	stcgt	0, cr0, [r5, #-0]
    116c:	004f9d04 	subeq	r9, pc, r4, lsl #26
    1170:	04ce0500 	strbeq	r0, [lr], #1280	; 0x500
    1174:	000001df 	ldrdeq	r0, [r0], -pc	; <UNPREDICTABLE>
    1178:	8904cf05 	stmdbhi	r4, {r0, r2, r8, r9, sl, fp, lr, pc}
    117c:	05000087 	streq	r0, [r0, #-135]	; 0xffffff79
    1180:	1ca204d0 	cfstrsne	mvf0, [r2], #832	; 0x340
    1184:	d1050000 	mrsle	r0, (UNDEF: 5)
    1188:	0035ad04 	eorseq	sl, r5, r4, lsl #26
    118c:	04d20500 	ldrbeq	r0, [r2], #1280	; 0x500
    1190:	00006e7e 	andeq	r6, r0, lr, ror lr
    1194:	c404d305 	strgt	sp, [r4], #-773	; 0xfffffcfb
    1198:	05000045 	streq	r0, [r0, #-69]	; 0xffffffbb
    119c:	3ee104d4 	mcrcc	4, 7, r0, cr1, cr4, {6}
    11a0:	d5050000 	strle	r0, [r5, #-0]
    11a4:	002c1d04 	eoreq	r1, ip, r4, lsl #26
    11a8:	04d60500 	ldrbeq	r0, [r6], #1280	; 0x500
    11ac:	00001930 	andeq	r1, r0, r0, lsr r9
    11b0:	8904d705 	stmdbhi	r4, {r0, r2, r8, r9, sl, ip, lr, pc}
    11b4:	05000086 	streq	r0, [r0, #-134]	; 0xffffff7a
    11b8:	301a04d8 			; <UNDEFINED> instruction: 0x301a04d8
    11bc:	d9050000 	stmdble	r5, {}	; <UNPREDICTABLE>
    11c0:	005d9304 	subseq	r9, sp, r4, lsl #6
    11c4:	04da0500 	ldrbeq	r0, [sl], #1280	; 0x500
    11c8:	00005483 	andeq	r5, r0, r3, lsl #9
    11cc:	dd04db05 	vstrle	d13, [r4, #-20]	; 0xffffffec
    11d0:	05000012 	streq	r0, [r0, #-18]	; 0xffffffee
    11d4:	3e4c04dc 	mcrcc	4, 2, r0, cr12, cr12, {6}
    11d8:	dd050000 	stcle	0, cr0, [r5, #-0]
    11dc:	00472a04 	subeq	r2, r7, r4, lsl #20
    11e0:	04de0500 	ldrbeq	r0, [lr], #1280	; 0x500
    11e4:	00000ad7 	ldrdeq	r0, [r0], -r7
    11e8:	9c04df05 	stcls	15, cr13, [r4], {5}
    11ec:	05000076 	streq	r0, [r0, #-118]	; 0xffffff8a
    11f0:	668f04e0 	strvs	r0, [pc], r0, ror #9
    11f4:	e1050000 	mrs	r0, (UNDEF: 5)
    11f8:	002b3d04 	eoreq	r3, fp, r4, lsl #26
    11fc:	06a00500 	strteq	r0, [r0], r0, lsl #10
    1200:	0000614a 	andeq	r6, r0, sl, asr #2
    1204:	f906a805 			; <UNDEFINED> instruction: 0xf906a805
    1208:	05000003 	streq	r0, [r0, #-3]
    120c:	7b2606b0 	blvc	982cd4 <_Min_Stack_Size+0x9828d4>
    1210:	c0050000 	andgt	r0, r5, r0
    1214:	002cc406 	eoreq	ip, ip, r6, lsl #8
    1218:	06c30500 	strbeq	r0, [r3], r0, lsl #10
    121c:	00007db6 			; <UNDEFINED> instruction: 0x00007db6
    1220:	8e06c705 	cdphi	7, 0, cr12, cr6, cr5, {0}
    1224:	00000044 	andeq	r0, r0, r4, asr #32
    1228:	05000004 	streq	r0, [r0, #-4]
    122c:	00226431 	eoreq	r6, r2, r1, lsr r4
    1230:	82320500 	eorshi	r0, r2, #0, 10
    1234:	05000066 	streq	r0, [r0, #-102]	; 0xffffff9a
    1238:	0051fe33 	subseq	pc, r1, r3, lsr lr	; <UNPREDICTABLE>
    123c:	d5360500 	ldrle	r0, [r6, #-1280]!	; 0xfffffb00
    1240:	0500006f 	streq	r0, [r0, #-111]	; 0xffffff91
    1244:	001eee39 	andseq	lr, lr, r9, lsr lr
    1248:	543a0500 	ldrtpl	r0, [sl], #-1280	; 0xfffffb00
    124c:	05000088 	streq	r0, [r0, #-136]	; 0xffffff78
    1250:	003f333c 	eorseq	r3, pc, ip, lsr r3	; <UNPREDICTABLE>
    1254:	a43d0500 	ldrtge	r0, [sp], #-1280	; 0xfffffb00
    1258:	05000030 	streq	r0, [r0, #-48]	; 0xffffffd0
    125c:	00216b3e 	eoreq	r6, r1, lr, lsr fp
    1260:	eb3f0500 	bl	fc2668 <_Min_Stack_Size+0xfc2268>
    1264:	0500007d 	streq	r0, [r0, #-125]	; 0xffffff83
    1268:	000f8942 	andeq	r8, pc, r2, asr #18
    126c:	36430500 	strbcc	r0, [r3], -r0, lsl #10
    1270:	0500000b 	streq	r0, [r0, #-11]
    1274:	00742044 	rsbseq	r2, r4, r4, asr #32
    1278:	124e0500 	subne	r0, lr, #0, 10
    127c:	05000012 	streq	r0, [r0, #-18]	; 0xffffffee
    1280:	002cd751 	eoreq	sp, ip, r1, asr r7
    1284:	db5e0500 	blle	178268c <_Min_Stack_Size+0x178228c>
    1288:	05000040 	streq	r0, [r0, #-64]	; 0xffffffc0
    128c:	0077815f 	rsbseq	r8, r7, pc, asr r1
    1290:	076b0500 	strbeq	r0, [fp, -r0, lsl #10]!
    1294:	05000082 	streq	r0, [r0, #-130]	; 0xffffff7e
    1298:	0045a16c 	subeq	sl, r5, ip, ror #2
    129c:	f1700500 			; <UNDEFINED> instruction: 0xf1700500
    12a0:	05000004 	streq	r0, [r0, #-4]
    12a4:	0078f671 	rsbseq	pc, r8, r1, ror r6	; <UNPREDICTABLE>
    12a8:	00720500 	rsbseq	r0, r2, r0, lsl #10
    12ac:	05000000 	streq	r0, [r0, #-0]
    12b0:	002c4775 	eoreq	r4, ip, r5, ror r7
    12b4:	21780500 	cmncs	r8, r0, lsl #10
    12b8:	05000014 	streq	r0, [r0, #-20]	; 0xffffffec
    12bc:	00313a7f 	eorseq	r3, r1, pc, ror sl
    12c0:	01800500 	orreq	r0, r0, r0, lsl #10
    12c4:	00007fa5 	andeq	r7, r0, r5, lsr #31
    12c8:	51018105 	tstpl	r1, r5, lsl #2
    12cc:	05000083 	streq	r0, [r0, #-131]	; 0xffffff7d
    12d0:	64950185 	ldrvs	r0, [r5], #389	; 0x185
    12d4:	8c050000 	stchi	0, cr0, [r5], {-0}
    12d8:	008a0501 	addeq	r0, sl, r1, lsl #10
    12dc:	01900500 	orrseq	r0, r0, r0, lsl #10
    12e0:	00005f18 	andeq	r5, r0, r8, lsl pc
    12e4:	2e019105 	mvfcss	f1, f5
    12e8:	05000022 	streq	r0, [r0, #-34]	; 0xffffffde
    12ec:	543b0194 	ldrtpl	r0, [fp], #-404	; 0xfffffe6c
    12f0:	97050000 	strls	r0, [r5, -r0]
    12f4:	00666b01 	rsbeq	r6, r6, r1, lsl #22
    12f8:	01980500 	orrseq	r0, r8, r0, lsl #10
    12fc:	00001021 	andeq	r1, r0, r1, lsr #32
    1300:	84019905 	strhi	r9, [r1], #-2309	; 0xfffff6fb
    1304:	05000079 	streq	r0, [r0, #-121]	; 0xffffff87
    1308:	455a019b 	ldrbmi	r0, [sl, #-411]	; 0xfffffe65
    130c:	9c050000 	stcls	0, cr0, [r5], {-0}
    1310:	00843001 	addeq	r3, r4, r1
    1314:	019e0500 	orrseq	r0, lr, r0, lsl #10
    1318:	00008534 	andeq	r8, r0, r4, lsr r5
    131c:	5401a005 	strpl	sl, [r1], #-5
    1320:	0500001b 	streq	r0, [r0, #-27]	; 0xffffffe5
    1324:	1bbd01b1 	blne	fef419f0 <_estack+0xdef3f1f0>
    1328:	b2050000 	andlt	r0, r5, #0
    132c:	00100b01 	andseq	r0, r0, r1, lsl #22
    1330:	01b30500 			; <UNDEFINED> instruction: 0x01b30500
    1334:	000004d4 	ldrdeq	r0, [r0], -r4
    1338:	3501b405 	strcc	fp, [r1, #-1029]	; 0xfffffbfb
    133c:	05000061 	streq	r0, [r0, #-97]	; 0xffffff9f
    1340:	308b01b5 			; <UNDEFINED> instruction: 0x308b01b5
    1344:	b7050000 	strlt	r0, [r5, -r0]
    1348:	00747801 	rsbseq	r7, r4, r1, lsl #16
    134c:	01b80500 			; <UNDEFINED> instruction: 0x01b80500
    1350:	00006959 	andeq	r6, r0, r9, asr r9
    1354:	0b01b905 	bleq	6f770 <_Min_Stack_Size+0x6f370>
    1358:	0500005b 	streq	r0, [r0, #-91]	; 0xffffffa5
    135c:	010d01e6 	smlatteq	sp, r6, r1, r0
    1360:	f3050000 	vhadd.u8	d0, d5, d0
    1364:	00634d01 	rsbeq	r4, r3, r1, lsl #26
    1368:	01f40500 	mvnseq	r0, r0, lsl #10
    136c:	00004342 	andeq	r4, r0, r2, asr #6
    1370:	2001f505 	andcs	pc, r1, r5, lsl #10
    1374:	05000051 	streq	r0, [r0, #-81]	; 0xffffffaf
    1378:	2bb401f6 	blcs	fed01b58 <_estack+0xdecff358>
    137c:	f7050000 			; <UNDEFINED> instruction: 0xf7050000
    1380:	008e6e01 	addeq	r6, lr, r1, lsl #28
    1384:	01f80500 	mvnseq	r0, r0, lsl #10
    1388:	00000a12 	andeq	r0, r0, r2, lsl sl
    138c:	d101f905 	tstle	r1, r5, lsl #18	; <UNPREDICTABLE>
    1390:	05000041 	streq	r0, [r0, #-65]	; 0xffffffbf
    1394:	476301fc 			; <UNDEFINED> instruction: 0x476301fc
    1398:	fd050000 	stc2	0, cr0, [r5, #-0]
    139c:	0023f301 	eoreq	pc, r3, r1, lsl #6
    13a0:	02830500 	addeq	r0, r3, #0, 10
    13a4:	00001fd1 	ldrdeq	r1, [r0], -r1	; <UNPREDICTABLE>
    13a8:	d502dc05 	strle	sp, [r2, #-3077]	; 0xfffff3fb
    13ac:	0500002b 	streq	r0, [r0, #-43]	; 0xffffffd5
    13b0:	40aa02ee 	adcmi	r0, sl, lr, ror #5
    13b4:	f4050000 	vst4.8	{d0-d3}, [r5], r0
    13b8:	005bcb02 	subseq	ip, fp, r2, lsl #22
    13bc:	02f50500 	rscseq	r0, r5, #0, 10
    13c0:	0000342f 	andeq	r3, r0, pc, lsr #8
    13c4:	1e02fc05 	cdpne	12, 0, cr15, cr2, cr5, {0}
    13c8:	0500008b 	streq	r0, [r0, #-139]	; 0xffffff75
    13cc:	266c0382 	strbtcs	r0, [ip], -r2, lsl #7
    13d0:	88050000 	stmdahi	r5, {}	; <UNPREDICTABLE>
    13d4:	008be403 	addeq	lr, fp, r3, lsl #8
    13d8:	03890500 	orreq	r0, r9, #0, 10
    13dc:	00003e0a 	andeq	r3, r0, sl, lsl #28
    13e0:	64039005 	strvs	r9, [r3], #-5
    13e4:	0500007a 	streq	r0, [r0, #-122]	; 0xffffff86
    13e8:	0e770391 	mrceq	3, 3, r0, cr7, cr1, {4}
    13ec:	98050000 	stmdals	r5, {}	; <UNPREDICTABLE>
    13f0:	002ed703 	eoreq	sp, lr, r3, lsl #14
    13f4:	039e0500 	orrseq	r0, lr, #0, 10
    13f8:	0000818e 	andeq	r8, r0, lr, lsl #3
    13fc:	1b03b205 	blne	edc18 <_Min_Stack_Size+0xed818>
    1400:	05000037 	streq	r0, [r0, #-55]	; 0xffffffc9
    1404:	204703d3 	ldrdcs	r0, [r7], #-51	; 0xffffffcd
    1408:	d4050000 	strle	r0, [r5], #-0
    140c:	00562003 	subseq	r2, r6, r3
    1410:	03db0500 	bicseq	r0, fp, #0, 10
    1414:	000017c0 	andeq	r1, r0, r0, asr #15
    1418:	2303dc05 	movwcs	sp, #15365	; 0x3c05
    141c:	0500002d 	streq	r0, [r0, #-45]	; 0xffffffd3
    1420:	284303df 	stmdacs	r3, {r0, r1, r2, r3, r4, r6, r7, r8, r9}^
    1424:	e9050000 	stmdb	r5, {}	; <UNPREDICTABLE>
    1428:	003db303 	eorseq	fp, sp, r3, lsl #6
    142c:	03ea0500 	mvneq	r0, #0, 10
    1430:	00007c89 	andeq	r7, r0, r9, lsl #25
    1434:	8203f405 	andhi	pc, r3, #83886080	; 0x5000000
    1438:	0500006c 	streq	r0, [r0, #-108]	; 0xffffff94
    143c:	79bd048a 	ldmibvc	sp!, {r1, r3, r7, sl}
    1440:	8c050000 	stchi	0, cr0, [r5], {-0}
    1444:	00827004 	addeq	r7, r2, r4
    1448:	048e0500 	streq	r0, [lr], #1280	; 0x500
    144c:	000089c7 	andeq	r8, r0, r7, asr #19
    1450:	04048f05 	streq	r8, [r4], #-3845	; 0xfffff0fb
    1454:	0500001c 	streq	r0, [r0, #-28]	; 0xffffffe4
    1458:	8d330491 	cfldrshi	mvf0, [r3, #-580]!	; 0xfffffdbc
    145c:	9b050000 	blls	141464 <_Min_Stack_Size+0x141064>
    1460:	0062b704 	rsbeq	fp, r2, r4, lsl #14
    1464:	04a00500 	strteq	r0, [r0], #1280	; 0x500
    1468:	000080f8 	strdeq	r8, [r0], -r8	; <UNPREDICTABLE>
    146c:	9b04a505 	blls	12a888 <_Min_Stack_Size+0x12a488>
    1470:	05000011 	streq	r0, [r0, #-17]	; 0xffffffef
    1474:	481a04a8 	ldmdami	sl, {r3, r5, r7, sl}
    1478:	ac050000 	stcge	0, cr0, [r5], {-0}
    147c:	00793804 	rsbseq	r3, r9, r4, lsl #16
    1480:	04ae0500 	strteq	r0, [lr], #1280	; 0x500
    1484:	0000235e 	andeq	r2, r0, lr, asr r3
    1488:	6704d105 	strvs	sp, [r4, -r5, lsl #2]
    148c:	0500005e 	streq	r0, [r0, #-94]	; 0xffffffa2
    1490:	766c04d5 			; <UNDEFINED> instruction: 0x766c04d5
    1494:	d9050000 	stmdble	r5, {}	; <UNPREDICTABLE>
    1498:	00055504 	andeq	r5, r5, r4, lsl #10
    149c:	04dd0500 	ldrbeq	r0, [sp], #1280	; 0x500
    14a0:	00002d59 	andeq	r2, r0, r9, asr sp
    14a4:	a204e105 	andge	lr, r4, #1073741825	; 0x40000001
    14a8:	05000061 	streq	r0, [r0, #-97]	; 0xffffff9f
    14ac:	25f604e5 	ldrbcs	r0, [r6, #1253]!	; 0x4e5
    14b0:	e9050000 	stmdb	r5, {}	; <UNPREDICTABLE>
    14b4:	007f4c04 	rsbseq	r4, pc, r4, lsl #24
    14b8:	04ed0500 	strbteq	r0, [sp], #1280	; 0x500
    14bc:	00008d96 	muleq	r0, r6, sp
    14c0:	ec04f405 	cfstrs	mvf15, [r4], {5}
    14c4:	05000014 	streq	r0, [r0, #-20]	; 0xffffffec
    14c8:	184904f5 	stmdane	r9, {r0, r2, r4, r5, r6, r7, sl}^
    14cc:	f6050000 			; <UNDEFINED> instruction: 0xf6050000
    14d0:	00305104 	eorseq	r5, r0, r4, lsl #2
    14d4:	04f70500 	ldrbteq	r0, [r7], #1280	; 0x500
    14d8:	00004387 	andeq	r4, r0, r7, lsl #7
    14dc:	ba04f805 	blt	13f4f8 <_Min_Stack_Size+0x13f0f8>
    14e0:	0500003f 	streq	r0, [r0, #-63]	; 0xffffffc1
    14e4:	60fa058d 	rscsvs	r0, sl, sp, lsl #11
    14e8:	8e050000 	cdphi	0, 0, cr0, cr5, cr0, {0}
    14ec:	008a7c05 	addeq	r7, sl, r5, lsl #24
    14f0:	05a00500 	streq	r0, [r0, #1280]!	; 0x500
    14f4:	00007aac 	andeq	r7, r0, ip, lsr #21
    14f8:	1305a605 	movwne	sl, #22021	; 0x5605
    14fc:	05000077 	streq	r0, [r0, #-119]	; 0xffffff89
    1500:	164e05a9 	strbne	r0, [lr], -r9, lsr #11
    1504:	ab050000 	blge	14150c <_Min_Stack_Size+0x14110c>
    1508:	003a8705 	eorseq	r8, sl, r5, lsl #14
    150c:	05af0500 	streq	r0, [pc, #1280]!	; 1a14 <_Min_Stack_Size+0x1614>
    1510:	00006b37 	andeq	r6, r0, r7, lsr fp
    1514:	af05b105 	svcge	0x0005b105
    1518:	05000039 	streq	r0, [r0, #-57]	; 0xffffffc7
    151c:	59ac05b5 	stmibpl	ip!, {r0, r2, r4, r5, r7, r8, sl}
    1520:	b8050000 	stmdalt	r5, {}	; <UNPREDICTABLE>
    1524:	00375e05 	eorseq	r5, r7, r5, lsl #28
    1528:	05ba0500 	ldreq	r0, [sl, #1280]!	; 0x500
    152c:	00008f54 	andeq	r8, r0, r4, asr pc
    1530:	8e05be05 	cdphi	14, 0, cr11, cr5, cr5, {0}
    1534:	05000001 	streq	r0, [r0, #-1]
    1538:	2f2b05c0 	svccs	0x002b05c0
    153c:	c2050000 	andgt	r0, r5, #0
    1540:	00588705 	subseq	r8, r8, r5, lsl #14
    1544:	05c60500 	strbeq	r0, [r6, #1280]	; 0x500
    1548:	00006dab 	andeq	r6, r0, fp, lsr #27
    154c:	9805d105 	stmdals	r5, {r0, r2, r8, ip, lr, pc}
    1550:	05000035 	streq	r0, [r0, #-53]	; 0xffffffcb
    1554:	928305d2 	addls	r0, r3, #880803840	; 0x34800000
    1558:	d6050000 	strle	r0, [r5], -r0
    155c:	0078b905 	rsbseq	fp, r8, r5, lsl #18
    1560:	05d70500 	ldrbeq	r0, [r7, #1280]	; 0x500
    1564:	00007884 	andeq	r7, r0, r4, lsl #17
    1568:	00000400 	andeq	r0, r0, r0, lsl #8
    156c:	836e0805 	cmnhi	lr, #327680	; 0x50000
    1570:	0d060000 	stceq	0, cr0, [r6, #-0]
    1574:	000058d5 	ldrdeq	r5, [r0], -r5	; <UNPREDICTABLE>
    1578:	6eae1005 	cdpvs	0, 10, cr1, cr14, cr5, {0}
    157c:	04000000 	streq	r0, [r0], #-0
    1580:	38050000 	stmdacc	r5, {}	; <UNPREDICTABLE>
    1584:	00006373 	andeq	r6, r0, r3, ror r3
    1588:	8c253c05 	stchi	12, cr3, [r5], #-20	; 0xffffffec
    158c:	3d050000 	stccc	0, cr0, [r5, #-0]
    1590:	00001e2f 	andeq	r1, r0, pc, lsr #28
    1594:	3e973f05 	cdpcc	15, 9, cr3, cr7, cr5, {0}
    1598:	43050000 	movwmi	r0, #20480	; 0x5000
    159c:	00004fec 	andeq	r4, r0, ip, ror #31
    15a0:	a901a805 	stmdbge	r1, {r0, r2, fp, sp, pc}
    15a4:	00000083 	andeq	r0, r0, r3, lsl #1
    15a8:	05000004 	streq	r0, [r0, #-4]
    15ac:	0085730a 	addeq	r7, r5, sl, lsl #6
    15b0:	be100500 	cfmul32lt	mvfx0, mvfx0, mvfx0
    15b4:	06000052 			; <UNDEFINED> instruction: 0x06000052
    15b8:	0069622b 	rsbeq	r6, r9, fp, lsr #4
    15bc:	592c0600 	stmdbpl	ip!, {r9, sl}
    15c0:	06000078 			; <UNDEFINED> instruction: 0x06000078
    15c4:	0007052d 	andeq	r0, r7, sp, lsr #10
    15c8:	442e0600 	strtmi	r0, [lr], #-1536	; 0xfffffa00
    15cc:	02000061 	andeq	r0, r0, #97	; 0x61
    15d0:	746e692f 	strbtvc	r6, [lr], #-2351	; 0xfffff6d1
    15d4:	f9300600 			; <UNDEFINED> instruction: 0xf9300600
    15d8:	0600008f 	streq	r0, [r0], -pc, lsl #1
    15dc:	00050731 	andeq	r0, r5, r1, lsr r7
    15e0:	14320600 	ldrtne	r0, [r2], #-1536	; 0xfffffa00
    15e4:	0500005d 	streq	r0, [r0, #-93]	; 0xffffffa3
    15e8:	00442333 	subeq	r2, r4, r3, lsr r3
    15ec:	21340500 	teqcs	r4, r0, lsl #10
    15f0:	05000044 	streq	r0, [r0, #-68]	; 0xffffffbc
    15f4:	0058cd35 	subseq	ip, r8, r5, lsr sp
    15f8:	1a360500 	bne	d82a00 <_Min_Stack_Size+0xd82600>
    15fc:	05000084 	streq	r0, [r0, #-132]	; 0xffffff7c
    1600:	00008337 	andeq	r8, r0, r7, lsr r3
    1604:	55380500 	ldrpl	r0, [r8, #-1280]!	; 0xfffffb00
    1608:	0500006d 	streq	r0, [r0, #-109]	; 0xffffff93
    160c:	00586039 	subseq	r6, r8, r9, lsr r0
    1610:	d43a0500 	ldrtle	r0, [sl], #-1280	; 0xfffffb00
    1614:	0500008b 	streq	r0, [r0, #-139]	; 0xffffff75
    1618:	003b2843 	eorseq	r2, fp, r3, asr #16
    161c:	d64a0500 	strble	r0, [sl], -r0, lsl #10
    1620:	05000087 	streq	r0, [r0, #-135]	; 0xffffff79
    1624:	000b8c52 	andeq	r8, fp, r2, asr ip
    1628:	ce5d0500 	cdpgt	5, 5, cr0, cr13, cr0, {0}
    162c:	0500003a 	streq	r0, [r0, #-58]	; 0xffffffc6
    1630:	00838068 	addeq	r8, r3, r8, rrx
    1634:	11710500 	cmnne	r1, r0, lsl #10
    1638:	0500008b 	streq	r0, [r0, #-139]	; 0xffffff75
    163c:	007b1d78 	rsbseq	r1, fp, r8, ror sp
    1640:	01810500 	orreq	r0, r1, r0, lsl #10
    1644:	00001d79 	andeq	r1, r0, r9, ror sp
    1648:	2e018805 	cdpcs	8, 0, cr8, cr1, cr5, {0}
    164c:	05000080 	streq	r0, [r0, #-128]	; 0xffffff80
    1650:	44000193 	strmi	r0, [r0], #-403	; 0xfffffe6d
    1654:	97050000 	strls	r0, [r5, -r0]
    1658:	002e8701 	eoreq	r8, lr, r1, lsl #14
    165c:	01a20500 			; <UNDEFINED> instruction: 0x01a20500
    1660:	000079af 	andeq	r7, r0, pc, lsr #19
    1664:	1601ad05 	strne	sl, [r1], -r5, lsl #26
    1668:	05000013 	streq	r0, [r0, #-19]	; 0xffffffed
    166c:	5fb001b6 	svcpl	0x00b001b6
    1670:	b8060000 	stmdalt	r6, {}	; <UNPREDICTABLE>
    1674:	00696201 	rsbeq	r6, r9, r1, lsl #4
    1678:	01b90600 			; <UNDEFINED> instruction: 0x01b90600
    167c:	00007859 	andeq	r7, r0, r9, asr r8
    1680:	0501ba06 	streq	fp, [r1, #-2566]	; 0xfffff5fa
    1684:	06000007 	streq	r0, [r0], -r7
    1688:	614401bb 	strhvs	r0, [r4, #-27]	; 0xffffffe5
    168c:	bc020000 	stclt	0, cr0, [r2], {-0}
    1690:	746e6901 	strbtvc	r6, [lr], #-2305	; 0xfffff6ff
    1694:	01bd0600 			; <UNDEFINED> instruction: 0x01bd0600
    1698:	00005d14 	andeq	r5, r0, r4, lsl sp
    169c:	f901c206 			; <UNDEFINED> instruction: 0xf901c206
    16a0:	0600008f 	streq	r0, [r0], -pc, lsl #1
    16a4:	050701c3 	streq	r0, [r7, #-451]	; 0xfffffe3d
    16a8:	04000000 	streq	r0, [r0], #-0
    16ac:	0a050000 	beq	1416b4 <_Min_Stack_Size+0x1412b4>
    16b0:	00004146 	andeq	r4, r0, r6, asr #2
    16b4:	84c71505 	strbhi	r1, [r7], #1285	; 0x505
    16b8:	19050000 	stmdbne	r5, {}	; <UNPREDICTABLE>
    16bc:	000069e2 	andeq	r6, r0, r2, ror #19
    16c0:	3d731b05 	fldmdbxcc	r3!, {d17-d18}	;@ Deprecated
    16c4:	21050000 	mrscs	r0, (UNDEF: 5)
    16c8:	00003619 	andeq	r3, r0, r9, lsl r6
    16cc:	110d2505 	tstne	sp, r5, lsl #10
    16d0:	27050000 	strcs	r0, [r5, -r0]
    16d4:	00006f98 	muleq	r0, r8, pc	; <UNPREDICTABLE>
    16d8:	84d92d05 	ldrbhi	r2, [r9], #3333	; 0xd05
    16dc:	31050000 	mrscc	r0, (UNDEF: 5)
    16e0:	0000033b 	andeq	r0, r0, fp, lsr r3
    16e4:	50373305 	eorspl	r3, r7, r5, lsl #6
    16e8:	39050000 	stmdbcc	r5, {}	; <UNPREDICTABLE>
    16ec:	00006e09 	andeq	r6, r0, r9, lsl #28
    16f0:	24ee3d05 	strbtcs	r3, [lr], #3333	; 0xd05
    16f4:	3f050000 	svccc	0x00050000
    16f8:	000063be 			; <UNDEFINED> instruction: 0x000063be
    16fc:	89b34405 	ldmibhi	r3!, {r0, r2, sl, lr}
    1700:	49050000 	stmdbmi	r5, {}	; <UNPREDICTABLE>
    1704:	000067fd 	strdeq	r6, [r0], -sp
    1708:	15914e05 	ldrne	r4, [r1, #3589]	; 0xe05
    170c:	53050000 	movwpl	r0, #20480	; 0x5000
    1710:	00006a69 	andeq	r6, r0, r9, ror #20
    1714:	00000400 	andeq	r0, r0, r0, lsl #8
    1718:	592b1705 	stmdbpl	fp!, {r0, r2, r8, r9, sl, ip}
    171c:	1d050000 	stcne	0, cr0, [r5, #-0]
    1720:	0000181d 	andeq	r1, r0, sp, lsl r8
    1724:	37ee2305 	strbcc	r2, [lr, r5, lsl #6]!
    1728:	29050000 	stmdbcs	r5, {}	; <UNPREDICTABLE>
    172c:	00005187 	andeq	r5, r0, r7, lsl #3
    1730:	1e0a3505 	cfsh32ne	mvfx3, mvfx10, #5
    1734:	3f050000 	svccc	0x00050000
    1738:	000056fb 	strdeq	r5, [r0], -fp
    173c:	0f944905 	svceq	0x00944905
    1740:	53050000 	movwpl	r0, #20480	; 0x5000
    1744:	00002502 	andeq	r2, r0, r2, lsl #10
    1748:	fc018005 	stc2	0, cr8, [r1], {5}
    174c:	05000090 	streq	r0, [r0, #-144]	; 0xffffff70
    1750:	5aa10181 	bpl	fe841d5c <_estack+0xde83f55c>
    1754:	82050000 	andhi	r0, r5, #0
    1758:	0019ba01 	andseq	fp, r9, r1, lsl #20
    175c:	01980500 	orrseq	r0, r8, r0, lsl #10
    1760:	00003979 	andeq	r3, r0, r9, ror r9
    1764:	09019905 	stmdbeq	r1, {r0, r2, r8, fp, ip, pc}
    1768:	0500000d 	streq	r0, [r0, #-13]
    176c:	8b87019a 	blhi	fe1c1ddc <_estack+0xde1bf5dc>
    1770:	a2050000 	andge	r0, r5, #0
    1774:	007d8d01 	rsbseq	r8, sp, r1, lsl #26
    1778:	01a30500 			; <UNDEFINED> instruction: 0x01a30500
    177c:	000028ea 	andeq	r2, r0, sl, ror #17
    1780:	6201a405 	andvs	sl, r1, #83886080	; 0x5000000
    1784:	05000071 	streq	r0, [r0, #-113]	; 0xffffff8f
    1788:	020a01ae 	andeq	r0, sl, #-2147483605	; 0x8000002b
    178c:	af050000 	svcge	0x00050000
    1790:	000f0c01 	andeq	r0, pc, r1, lsl #24
    1794:	01b00500 	lslseq	r0, r0, #10
    1798:	00007129 	andeq	r7, r0, r9, lsr #2
    179c:	f501b805 			; <UNDEFINED> instruction: 0xf501b805
    17a0:	05000050 	streq	r0, [r0, #-80]	; 0xffffffb0
    17a4:	0bea01b9 	bleq	ffa81e90 <_estack+0xdfa7f690>
    17a8:	ba050000 	blt	1417b0 <_Min_Stack_Size+0x1413b0>
    17ac:	002fc701 	eoreq	ip, pc, r1, lsl #14
    17b0:	01c40500 	biceq	r0, r4, r0, lsl #10
    17b4:	0000700e 	andeq	r7, r0, lr
    17b8:	0101c505 	tsteq	r1, r5, lsl #10
    17bc:	0500002e 	streq	r0, [r0, #-46]	; 0xffffffd2
    17c0:	31e701c6 	mvncc	r0, r6, asr #3
    17c4:	d4050000 	strle	r0, [r5], #-0
    17c8:	0031ae01 	eorseq	sl, r1, r1, lsl #28
    17cc:	01d50500 	bicseq	r0, r5, r0, lsl #10
    17d0:	00002876 	andeq	r2, r0, r6, ror r8
    17d4:	ca01d605 	bgt	76ff0 <_Min_Stack_Size+0x76bf0>
    17d8:	05000074 	streq	r0, [r0, #-116]	; 0xffffff8c
    17dc:	7a8d01e6 	bvc	fe341f7c <_estack+0xde33f77c>
    17e0:	e7050000 	str	r0, [r5, -r0]
    17e4:	00499901 	subeq	r9, r9, r1, lsl #18
    17e8:	01e80500 	mvneq	r0, r0, lsl #10
    17ec:	00002a14 	andeq	r2, r0, r4, lsl sl
    17f0:	9501f605 	strls	pc, [r1, #-1541]	; 0xfffff9fb
    17f4:	05000013 	streq	r0, [r0, #-19]	; 0xffffffed
    17f8:	113101f7 	teqne	r1, r7	; <illegal shifter operand>
    17fc:	f8050000 			; <UNDEFINED> instruction: 0xf8050000
    1800:	00264401 	eoreq	r4, r6, r1, lsl #8
    1804:	02860500 	addeq	r0, r6, #0, 10
    1808:	000055f9 	strdeq	r5, [r0], -r9
    180c:	c2028705 	andgt	r8, r2, #1310720	; 0x140000
    1810:	05000023 	streq	r0, [r0, #-35]	; 0xffffffdd
    1814:	670a0288 	strvs	r0, [sl, -r8, lsl #5]
    1818:	96050000 	strls	r0, [r5], -r0
    181c:	00093902 	andeq	r3, r9, r2, lsl #18
    1820:	02970500 	addseq	r0, r7, #0, 10
    1824:	000056b2 			; <UNDEFINED> instruction: 0x000056b2
    1828:	95029805 	strls	r9, [r2, #-2053]	; 0xfffff7fb
    182c:	0500002e 	streq	r0, [r0, #-46]	; 0xffffffd2
    1830:	15df02a6 	ldrbne	r0, [pc, #678]	; 1ade <_Min_Stack_Size+0x16de>
    1834:	a7050000 	strge	r0, [r5, -r0]
    1838:	00902c02 	addseq	r2, r0, r2, lsl #24
    183c:	02a80500 	adceq	r0, r8, #0, 10
    1840:	000072a6 	andeq	r7, r0, r6, lsr #5
    1844:	ac02b605 	stcge	6, cr11, [r2], {5}
    1848:	0500005e 	streq	r0, [r0, #-94]	; 0xffffffa2
    184c:	431e02b7 	tstmi	lr, #1879048203	; 0x7000000b
    1850:	b8050000 	stmdalt	r5, {}	; <UNPREDICTABLE>
    1854:	00337102 	eorseq	r7, r3, r2, lsl #2
    1858:	02c60500 	sbceq	r0, r6, #0, 10
    185c:	00002de5 	andeq	r2, r0, r5, ror #27
    1860:	d102c705 	tstle	r2, r5, lsl #14
    1864:	0500001e 	streq	r0, [r0, #-30]	; 0xffffffe2
    1868:	44ca02cf 	strbmi	r0, [sl], #719	; 0x2cf
    186c:	d7050000 	strle	r0, [r5, -r0]
    1870:	006bfd02 	rsbeq	pc, fp, r2, lsl #26
    1874:	02dd0500 	sbcseq	r0, sp, #0, 10
    1878:	000035d3 	ldrdeq	r3, [r0], -r3	; <UNPREDICTABLE>
    187c:	b902de05 	stmdblt	r2, {r0, r2, r9, sl, fp, ip, lr, pc}
    1880:	05000029 	streq	r0, [r0, #-41]	; 0xffffffd7
    1884:	0d2d02e2 	sfmeq	f0, 4, [sp, #-904]!	; 0xfffffc78
    1888:	e6050000 	str	r0, [r5], -r0
    188c:	00911d02 	addseq	r1, r1, r2, lsl #26
    1890:	02eb0500 	rsceq	r0, fp, #0, 10
    1894:	00001f11 	andeq	r1, r0, r1, lsl pc
    1898:	ac02f605 	stcge	6, cr15, [r2], {5}
    189c:	0500006f 	streq	r0, [r0, #-111]	; 0xffffff91
    18a0:	4dac0380 	stcmi	3, cr0, [ip, #512]!	; 0x200
    18a4:	85050000 	strhi	r0, [r5, #-0]
    18a8:	00003803 	andeq	r3, r0, r3, lsl #16
    18ac:	038c0500 	orreq	r0, ip, #0, 10
    18b0:	00003fa4 	andeq	r3, r0, r4, lsr #31
    18b4:	29038d05 	stmdbcs	r3, {r0, r2, r8, sl, fp, pc}
    18b8:	0500007d 	streq	r0, [r0, #-125]	; 0xffffff83
    18bc:	0fd70398 	svceq	0x00d70398
    18c0:	99050000 	stmdbls	r5, {}	; <UNPREDICTABLE>
    18c4:	0035ff03 	eorseq	pc, r5, r3, lsl #30
    18c8:	03a40500 			; <UNDEFINED> instruction: 0x03a40500
    18cc:	00007408 	andeq	r7, r0, r8, lsl #8
    18d0:	cc03a505 	cfstr32gt	mvfx10, [r3], {5}
    18d4:	05000055 	streq	r0, [r0, #-85]	; 0xffffffab
    18d8:	395203b1 	ldmdbcc	r2, {r0, r4, r5, r7, r8, r9}^
    18dc:	b2050000 	andlt	r0, r5, #0
    18e0:	007e1603 	rsbseq	r1, lr, r3, lsl #12
    18e4:	03c10500 	biceq	r0, r1, #0, 10
    18e8:	00001916 	andeq	r1, r0, r6, lsl r9
    18ec:	8a03c205 	bhi	f2108 <_Min_Stack_Size+0xf1d08>
    18f0:	00000063 	andeq	r0, r0, r3, rrx
    18f4:	05000004 	streq	r0, [r0, #-4]
    18f8:	00325f11 	eorseq	r5, r2, r1, lsl pc
    18fc:	63120500 	tstvs	r2, #0, 10
    1900:	05000041 	streq	r0, [r0, #-65]	; 0xffffffbf
    1904:	00357913 	eorseq	r7, r5, r3, lsl r9
    1908:	3a150500 	bcc	542d10 <_Min_Stack_Size+0x542910>
    190c:	0500000f 	streq	r0, [r0, #-15]
    1910:	00025016 	andeq	r5, r2, r6, lsl r0
    1914:	a01c0500 	andsge	r0, ip, r0, lsl #10
    1918:	05000070 	streq	r0, [r0, #-112]	; 0xffffff90
    191c:	0080501f 	addeq	r5, r0, pc, lsl r0
    1920:	05200500 	streq	r0, [r0, #-1280]!	; 0xfffffb00
    1924:	05000006 	streq	r0, [r0, #-6]
    1928:	00833a21 	addeq	r3, r3, r1, lsr #20
    192c:	c6220500 	strtgt	r0, [r2], -r0, lsl #10
    1930:	05000012 	streq	r0, [r0, #-18]	; 0xffffffee
    1934:	00498223 	subeq	r8, r9, r3, lsr #4
    1938:	f0240500 			; <UNDEFINED> instruction: 0xf0240500
    193c:	05000047 	streq	r0, [r0, #-71]	; 0xffffffb9
    1940:	00768525 	rsbseq	r8, r6, r5, lsr #10
    1944:	fd270500 	stc2	5, cr0, [r7, #-0]
    1948:	05000085 	streq	r0, [r0, #-133]	; 0xffffff7b
    194c:	00052828 	andeq	r2, r5, r8, lsr #16
    1950:	59290500 	stmdbpl	r9!, {r8, sl}
    1954:	05000059 	streq	r0, [r0, #-89]	; 0xffffffa7
    1958:	007df92c 	rsbseq	pc, sp, ip, lsr #18
    195c:	ea2d0500 	b	b42d64 <_Min_Stack_Size+0xb42964>
    1960:	05000046 	streq	r0, [r0, #-70]	; 0xffffffba
    1964:	006e4a2e 	rsbeq	r4, lr, lr, lsr #20
    1968:	5f2f0500 	svcpl	0x002f0500
    196c:	0500005a 	streq	r0, [r0, #-90]	; 0xffffffa6
    1970:	002b6930 	eoreq	r6, fp, r0, lsr r9
    1974:	e0310500 	eors	r0, r1, r0, lsl #10
    1978:	05000029 	streq	r0, [r0, #-41]	; 0xffffffd7
    197c:	008c5432 	addeq	r5, ip, r2, lsr r4
    1980:	19340500 	ldmdbne	r4!, {r8, sl}
    1984:	05000092 	streq	r0, [r0, #-146]	; 0xffffff6e
    1988:	00900135 	addseq	r0, r0, r5, lsr r1
    198c:	57360500 	ldrpl	r0, [r6, -r0, lsl #10]!
    1990:	05000031 	streq	r0, [r0, #-49]	; 0xffffffcf
    1994:	00553437 	subseq	r3, r5, r7, lsr r4
    1998:	af380500 	svcge	0x00380500
    199c:	0500000b 	streq	r0, [r0, #-11]
    19a0:	00850b39 	addeq	r0, r5, r9, lsr fp
    19a4:	ac3a0500 	cfldr32ge	mvfx0, [sl], #-0
    19a8:	05000023 	streq	r0, [r0, #-35]	; 0xffffffdd
    19ac:	00708a3b 	rsbseq	r8, r0, fp, lsr sl
    19b0:	703c0500 	eorsvc	r0, ip, r0, lsl #10
    19b4:	05000011 	streq	r0, [r0, #-17]	; 0xffffffef
    19b8:	003aea3e 	eorseq	lr, sl, lr, lsr sl
    19bc:	da3f0500 	ble	fc2dc4 <_Min_Stack_Size+0xfc29c4>
    19c0:	05000033 	streq	r0, [r0, #-51]	; 0xffffffcd
    19c4:	008f3d40 	addeq	r3, pc, r0, asr #26
    19c8:	ee410500 	cdp	5, 4, cr0, cr1, cr0, {0}
    19cc:	0500008a 	streq	r0, [r0, #-138]	; 0xffffff76
    19d0:	00896342 	addeq	r6, r9, r2, asr #6
    19d4:	5d440500 	cfstr64pl	mvdx0, [r4, #-0]
    19d8:	05000085 	streq	r0, [r0, #-133]	; 0xffffff7b
    19dc:	00703b45 	rsbseq	r3, r0, r5, asr #22
    19e0:	c04a0500 	subgt	r0, sl, r0, lsl #10
    19e4:	05000013 	streq	r0, [r0, #-19]	; 0xffffffed
    19e8:	0001764b 	andeq	r7, r1, fp, asr #12
    19ec:	974c0500 	strbls	r0, [ip, -r0, lsl #10]
    19f0:	05000031 	streq	r0, [r0, #-49]	; 0xffffffcf
    19f4:	001c8b4d 	andseq	r8, ip, sp, asr #22
    19f8:	a14f0500 	cmpge	pc, r0, lsl #10
    19fc:	05000053 	streq	r0, [r0, #-83]	; 0xffffffad
    1a00:	253d0287 	ldrcs	r0, [sp, #-647]!	; 0xfffffd79
    1a04:	88050000 	stmdahi	r5, {}	; <UNPREDICTABLE>
    1a08:	0075dc02 	rsbseq	sp, r5, r2, lsl #24
    1a0c:	02890500 	addeq	r0, r9, #0, 10
    1a10:	0000622c 	andeq	r6, r0, ip, lsr #4
    1a14:	c4028a05 	strgt	r8, [r2], #-2565	; 0xfffff5fb
    1a18:	0500004d 	streq	r0, [r0, #-77]	; 0xffffffb3
    1a1c:	0732028b 	ldreq	r0, [r2, -fp, lsl #5]!
    1a20:	8e050000 	cdphi	0, 0, cr0, cr5, cr0, {0}
    1a24:	001e5b02 	andseq	r5, lr, r2, lsl #22
    1a28:	028f0500 	addeq	r0, pc, #0, 10
    1a2c:	000071eb 	andeq	r7, r0, fp, ror #3
    1a30:	61029005 	tstvs	r2, r5
    1a34:	05000025 	streq	r0, [r0, #-37]	; 0xffffffdb
    1a38:	47a80291 			; <UNDEFINED> instruction: 0x47a80291
    1a3c:	92050000 	andls	r0, r5, #0
    1a40:	00155402 	andseq	r5, r5, r2, lsl #8
    1a44:	02980500 	addseq	r0, r8, #0, 10
    1a48:	0000897a 	andeq	r8, r0, sl, ror r9
    1a4c:	0e029a05 	vmlaeq.f32	s18, s4, s10
    1a50:	05000031 	streq	r0, [r0, #-49]	; 0xffffffcf
    1a54:	3bab029c 	blcc	feac24cc <_estack+0xdeabfccc>
    1a58:	9f050000 	svcls	0x00050000
    1a5c:	00367002 	eorseq	r7, r6, r2
    1a60:	02a00500 	adceq	r0, r0, #0, 10
    1a64:	00000135 	andeq	r0, r0, r5, lsr r1
    1a68:	fb02a105 	blx	a9e86 <_Min_Stack_Size+0xa9a86>
    1a6c:	0500002c 	streq	r0, [r0, #-44]	; 0xffffffd4
    1a70:	1c6502a2 	sfmne	f0, 2, [r5], #-648	; 0xfffffd78
    1a74:	a3050000 	movwge	r0, #20480	; 0x5000
    1a78:	005ddf02 	subseq	sp, sp, r2, lsl #30
    1a7c:	02a60500 	adceq	r0, r6, #0, 10
    1a80:	000030d7 	ldrdeq	r3, [r0], -r7
    1a84:	5302a705 	movwpl	sl, #9989	; 0x2705
    1a88:	0500000c 	streq	r0, [r0, #-12]
    1a8c:	0b1402a8 	bleq	502534 <_Min_Stack_Size+0x502134>
    1a90:	ac050000 	stcge	0, cr0, [r5], {-0}
    1a94:	0090d002 	addseq	sp, r0, r2
    1a98:	02ad0500 	adceq	r0, sp, #0, 10
    1a9c:	000004a8 	andeq	r0, r0, r8, lsr #9
    1aa0:	dd02ae05 	stcle	14, cr10, [r2, #-20]	; 0xffffffec
    1aa4:	0500000c 	streq	r0, [r0, #-12]
    1aa8:	60ce02af 	sbcvs	r0, lr, pc, lsr #5
    1aac:	b0050000 	andlt	r0, r5, r0
    1ab0:	00198102 	andseq	r8, r9, r2, lsl #2
    1ab4:	02b20500 	adcseq	r0, r2, #0, 10
    1ab8:	00006080 	andeq	r6, r0, r0, lsl #1
    1abc:	b102b405 	tstlt	r2, r5, lsl #8
    1ac0:	05000036 	streq	r0, [r0, #-54]	; 0xffffffca
    1ac4:	6e1c02b5 	mrcvs	2, 0, r0, cr12, cr5, {5}
    1ac8:	b6050000 	strlt	r0, [r5], -r0
    1acc:	00753602 	rsbseq	r3, r5, r2, lsl #12
    1ad0:	02b80500 	adcseq	r0, r8, #0, 10
    1ad4:	00005375 	andeq	r5, r0, r5, ror r3
    1ad8:	4202b905 	andmi	fp, r2, #81920	; 0x14000
    1adc:	05000024 	streq	r0, [r0, #-36]	; 0xffffffdc
    1ae0:	1bd002ba 	blne	ff4025d0 <_estack+0xdf3ffdd0>
    1ae4:	c0050000 	andgt	r0, r5, r0
    1ae8:	006a7e02 	rsbeq	r7, sl, r2, lsl #28
    1aec:	02c10500 	sbceq	r0, r1, #0, 10
    1af0:	0000228f 	andeq	r2, r0, pc, lsl #5
    1af4:	ac02c205 	sfmge	f4, 1, [r2], {5}
    1af8:	0500000a 	streq	r0, [r0, #-10]
    1afc:	076e02c3 	strbeq	r0, [lr, -r3, asr #5]!
    1b00:	c4050000 	strgt	r0, [r5], #-0
    1b04:	003bcb02 	eorseq	ip, fp, r2, lsl #22
    1b08:	02c50500 	sbceq	r0, r5, #0, 10
    1b0c:	0000161f 	andeq	r1, r0, pc, lsl r6
    1b10:	8702c605 	strhi	ip, [r2, -r5, lsl #12]
    1b14:	05000038 	streq	r0, [r0, #-56]	; 0xffffffc8
    1b18:	290e02c8 	stmdbcs	lr, {r3, r6, r7, r9}
    1b1c:	c9050000 	stmdbgt	r5, {}	; <UNPREDICTABLE>
    1b20:	0064e602 	rsbeq	lr, r4, r2, lsl #12
    1b24:	02ca0500 	sbceq	r0, sl, #0, 10
    1b28:	0000643f 	andeq	r6, r0, pc, lsr r4
    1b2c:	8102cb05 	tsthi	r2, r5, lsl #22
    1b30:	05000052 	streq	r0, [r0, #-82]	; 0xffffffae
    1b34:	8e3302cc 	cdphi	2, 3, cr0, cr3, cr12, {6}
    1b38:	cd050000 	stcgt	0, cr0, [r5, #-0]
    1b3c:	007f1d02 	rsbseq	r1, pc, r2, lsl #26
    1b40:	02ce0500 	sbceq	r0, lr, #0, 10
    1b44:	000069fe 	strdeq	r6, [r0], -lr
    1b48:	7d02d205 	sfmvc	f5, 1, [r2, #-20]	; 0xffffffec
    1b4c:	05000090 	streq	r0, [r0, #-144]	; 0xffffff70
    1b50:	917202d3 	ldrsbls	r0, [r2, #-35]!	; 0xffffffdd
    1b54:	d4050000 	strle	r0, [r5], #-0
    1b58:	002f8b02 	eoreq	r8, pc, r2, lsl #22
    1b5c:	02d70500 	sbcseq	r0, r7, #0, 10
    1b60:	000037b0 			; <UNDEFINED> instruction: 0x000037b0
    1b64:	ad02d805 	stcge	8, cr13, [r2, #-20]	; 0xffffffec
    1b68:	05000010 	streq	r0, [r0, #-16]
    1b6c:	49c602d9 	stmibmi	r6, {r0, r3, r4, r6, r7, r9}^
    1b70:	dd050000 	stcle	0, cr0, [r5, #-0]
    1b74:	007cdd02 	rsbseq	sp, ip, r2, lsl #26
    1b78:	02de0500 	sbcseq	r0, lr, #0, 10
    1b7c:	00007a2c 	andeq	r7, r0, ip, lsr #20
    1b80:	b402df05 	strlt	sp, [r2], #-3845	; 0xfffff0fb
    1b84:	05000077 	streq	r0, [r0, #-119]	; 0xffffff89
    1b88:	6d0e02e2 	sfmvs	f0, 4, [lr, #-904]	; 0xfffffc78
    1b8c:	e3050000 	movw	r0, #20480	; 0x5000
    1b90:	00580c02 	subseq	r0, r8, r2, lsl #24
    1b94:	02e40500 	rsceq	r0, r4, #0, 10
    1b98:	00008ab5 			; <UNDEFINED> instruction: 0x00008ab5
    1b9c:	00000400 	andeq	r0, r0, r0, lsl #8
    1ba0:	5ac72005 	bpl	ff1c9bbc <_estack+0xdf1c73bc>
    1ba4:	21050000 	mrscs	r0, (UNDEF: 5)
    1ba8:	00005f36 	andeq	r5, r0, r6, lsr pc
    1bac:	859f2205 	ldrhi	r2, [pc, #517]	; 1db9 <_Min_Stack_Size+0x19b9>
    1bb0:	23050000 	movwcs	r0, #20480	; 0x5000
    1bb4:	00008835 	andeq	r8, r0, r5, lsr r8
    1bb8:	0c842405 	cfstrseq	mvf2, [r4], {5}
    1bbc:	25050000 	strcs	r0, [r5, #-0]
    1bc0:	000026df 	ldrdeq	r2, [r0], -pc	; <UNPREDICTABLE>
    1bc4:	46cb2605 	strbmi	r2, [fp], r5, lsl #12
    1bc8:	27050000 	strcs	r0, [r5, -r0]
    1bcc:	00000d86 	andeq	r0, r0, r6, lsl #27
    1bd0:	50542805 	subspl	r2, r4, r5, lsl #16
    1bd4:	29050000 	stmdbcs	r5, {}	; <UNPREDICTABLE>
    1bd8:	000087e6 	andeq	r8, r0, r6, ror #15
    1bdc:	8b5c2a05 	blhi	170c3f8 <_Min_Stack_Size+0x170bff8>
    1be0:	2b050000 	blcs	141be8 <_Min_Stack_Size+0x1417e8>
    1be4:	00006de9 	andeq	r6, r0, r9, ror #27
    1be8:	26962c05 	ldrcs	r2, [r6], r5, lsl #24
    1bec:	2d050000 	stccs	0, cr0, [r5, #-0]
    1bf0:	000033ae 	andeq	r3, r0, lr, lsr #7
    1bf4:	15a52e05 	strne	r2, [r5, #3589]!	; 0xe05
    1bf8:	2f050000 	svccs	0x00050000
    1bfc:	00006b8a 	andeq	r6, r0, sl, lsl #23
    1c00:	72e93005 	rscvc	r3, r9, #5
    1c04:	32050000 	andcc	r0, r5, #0
    1c08:	000000be 	strheq	r0, [r0], -lr
    1c0c:	2ebb4405 	cdpcs	4, 11, cr4, cr11, cr5, {0}
    1c10:	45050000 	strmi	r0, [r5, #-0]
    1c14:	0000427a 	andeq	r4, r0, sl, ror r2
    1c18:	75be4605 	ldrvc	r4, [lr, #1541]!	; 0x605
    1c1c:	47050000 	strmi	r0, [r5, -r0]
    1c20:	00003eb6 			; <UNDEFINED> instruction: 0x00003eb6
    1c24:	62da4805 	sbcsvs	r4, sl, #327680	; 0x50000
    1c28:	49050000 	stmdbmi	r5, {}	; <UNPREDICTABLE>
    1c2c:	00007051 	andeq	r7, r0, r1, asr r0
    1c30:	4f504a05 	svcmi	0x00504a05
    1c34:	4b050000 	blmi	141c3c <_Min_Stack_Size+0x14183c>
    1c38:	0000251b 	andeq	r2, r0, fp, lsl r5
    1c3c:	7b8d4c05 	blvc	fe354c58 <_estack+0xde352458>
    1c40:	57050000 	strpl	r0, [r5, -r0]
    1c44:	00006211 	andeq	r6, r0, r1, lsl r2
    1c48:	8bba5805 	blhi	fee97c64 <_estack+0xdee95464>
    1c4c:	59050000 	stmdbpl	r5, {}	; <UNPREDICTABLE>
    1c50:	00003c8f 	andeq	r3, r0, pc, lsl #25
    1c54:	00000400 	andeq	r0, r0, r0, lsl #8
    1c58:	6bda2c05 	blvs	ff68cc74 <_estack+0xdf68a474>
    1c5c:	2d050000 	stccs	0, cr0, [r5, #-0]
    1c60:	000027fa 	strdeq	r2, [r0], -sl
    1c64:	4da02e05 	stcmi	14, cr2, [r0, #20]!
    1c68:	2f050000 	svccs	0x00050000
    1c6c:	000033ce 	andeq	r3, r0, lr, asr #7
    1c70:	83fd3005 	mvnshi	r3, #5
    1c74:	31050000 	mrscc	r0, (UNDEF: 5)
    1c78:	0000559c 	muleq	r0, ip, r5
    1c7c:	1e3e3205 	cdpne	2, 3, cr3, cr14, cr5, {0}
    1c80:	33050000 	movwcc	r0, #20480	; 0x5000
    1c84:	00007c7c 	andeq	r7, r0, ip, ror ip
    1c88:	75933405 	ldrvc	r3, [r3, #1029]	; 0x405
    1c8c:	35050000 	strcc	r0, [r5, #-0]
    1c90:	00000318 	andeq	r0, r0, r8, lsl r3
    1c94:	53673605 	cmnpl	r7, #5242880	; 0x500000
    1c98:	37050000 	strcc	r0, [r5, -r0]
    1c9c:	00006592 	muleq	r0, r2, r5
    1ca0:	78e83805 	stmiavc	r8!, {r0, r2, fp, ip, sp}^
    1ca4:	39050000 	stmdbcc	r5, {}	; <UNPREDICTABLE>
    1ca8:	00002afd 	strdeq	r2, [r0], -sp
    1cac:	53ce3a05 	bicpl	r3, lr, #20480	; 0x5000
    1cb0:	3b050000 	blcc	141cb8 <_Min_Stack_Size+0x1418b8>
    1cb4:	00006aa9 	andeq	r6, r0, r9, lsr #21
    1cb8:	44593c05 	ldrbmi	r3, [r9], #-3077	; 0xfffff3fb
    1cbc:	3d050000 	stccc	0, cr0, [r5, #-0]
    1cc0:	0000515c 	andeq	r5, r0, ip, asr r1
    1cc4:	44e83e05 	strbtmi	r3, [r8], #3589	; 0xe05
    1cc8:	3f050000 	svccc	0x00050000
    1ccc:	00006129 	andeq	r6, r0, r9, lsr #2
    1cd0:	2a304005 	bcs	c11cec <_Min_Stack_Size+0xc118ec>
    1cd4:	41050000 	mrsmi	r0, (UNDEF: 5)
    1cd8:	00000f57 	andeq	r0, r0, r7, asr pc
    1cdc:	33a64505 			; <UNDEFINED> instruction: 0x33a64505
    1ce0:	46050000 	strmi	r0, [r5], -r0
    1ce4:	000053dc 	ldrdeq	r5, [r0], -ip
    1ce8:	6efb4705 	cdpvs	7, 15, cr4, cr11, cr5, {0}
    1cec:	48050000 	stmdami	r5, {}	; <UNPREDICTABLE>
    1cf0:	00008bdc 	ldrdeq	r8, [r0], -ip
    1cf4:	5fbf4905 	svcpl	0x00bf4905
    1cf8:	4a050000 	bmi	141d00 <_Min_Stack_Size+0x141900>
    1cfc:	0000348e 	andeq	r3, r0, lr, lsl #9
    1d00:	55814b05 	strpl	r4, [r1, #2821]	; 0xb05
    1d04:	4c050000 	stcmi	0, cr0, [r5], {-0}
    1d08:	00007fdd 	ldrdeq	r7, [r0], -sp
    1d0c:	8cd34d05 	ldclhi	13, cr4, [r3], {5}
    1d10:	4e050000 	cdpmi	0, 0, cr0, cr5, cr0, {0}
    1d14:	00001979 	andeq	r1, r0, r9, ror r9
    1d18:	0e294f05 	cdpeq	15, 2, cr4, cr9, cr5, {0}
    1d1c:	50050000 	andpl	r0, r5, r0
    1d20:	00005913 	andeq	r5, r0, r3, lsl r9
    1d24:	5d495105 	stfple	f5, [r9, #-20]	; 0xffffffec
    1d28:	52050000 	andpl	r0, r5, #0
    1d2c:	00008c34 	andeq	r8, r0, r4, lsr ip
    1d30:	107e5305 	rsbsne	r5, lr, r5, lsl #6
    1d34:	54050000 	strpl	r0, [r5], #-0
    1d38:	00005b96 	muleq	r0, r6, fp
    1d3c:	6ab75a05 	bvs	fedd8558 <_estack+0xdedd5d58>
    1d40:	5b050000 	blpl	141d48 <_Min_Stack_Size+0x141948>
    1d44:	00003526 	andeq	r3, r0, r6, lsr #10
    1d48:	74865c05 	strvc	r5, [r6], #3077	; 0xc05
    1d4c:	5d050000 	stcpl	0, cr0, [r5, #-0]
    1d50:	0000404c 	andeq	r4, r0, ip, asr #32
    1d54:	24aa6105 	strtcs	r6, [sl], #261	; 0x105
    1d58:	62050000 	andvs	r0, r5, #0
    1d5c:	00006273 	andeq	r6, r0, r3, ror r2
    1d60:	74f26305 	ldrbtvc	r6, [r2], #773	; 0x305
    1d64:	64050000 	strvs	r0, [r5], #-0
    1d68:	000091c2 	andeq	r9, r0, r2, asr #3
    1d6c:	43a26805 			; <UNDEFINED> instruction: 0x43a26805
    1d70:	69050000 	stmdbvs	r5, {}	; <UNPREDICTABLE>
    1d74:	0000922f 	andeq	r9, r0, pc, lsr #4
    1d78:	332d6a05 			; <UNDEFINED> instruction: 0x332d6a05
    1d7c:	6b050000 	blvs	141d84 <_Min_Stack_Size+0x141984>
    1d80:	000009b5 			; <UNDEFINED> instruction: 0x000009b5
    1d84:	1d836f05 	stcne	15, cr6, [r3, #20]
    1d88:	70050000 	andvc	r0, r5, r0
    1d8c:	00001a8b 	andeq	r1, r0, fp, lsl #21
    1d90:	3b677105 	blcc	19de1ac <_Min_Stack_Size+0x19dddac>
    1d94:	72050000 	andvc	r0, r5, #0
    1d98:	00000962 	andeq	r0, r0, r2, ror #18
    1d9c:	5f647605 	svcpl	0x00647605
    1da0:	77050000 	strvc	r0, [r5, -r0]
    1da4:	000038f2 	strdeq	r3, [r0], -r2
    1da8:	7fea7805 	svcvc	0x00ea7805
    1dac:	79050000 	stmdbvc	r5, {}	; <UNPREDICTABLE>
    1db0:	00001f55 	andeq	r1, r0, r5, asr pc
    1db4:	3c197d05 	ldccc	13, cr7, [r9], {5}
    1db8:	7e050000 	cdpvc	0, 0, cr0, cr5, cr0, {0}
    1dbc:	000044f6 	strdeq	r4, [r0], -r6
    1dc0:	86457f05 	strbhi	r7, [r5], -r5, lsl #30
    1dc4:	80050000 	andhi	r0, r5, r0
    1dc8:	005e2301 	subseq	r2, lr, r1, lsl #6
    1dcc:	01840500 	orreq	r0, r4, r0, lsl #10
    1dd0:	00006309 	andeq	r6, r0, r9, lsl #6
    1dd4:	3f018505 	svccc	0x00018505
    1dd8:	0500000a 	streq	r0, [r0, #-10]
    1ddc:	1a470186 	bne	11c23fc <_Min_Stack_Size+0x11c1ffc>
    1de0:	87050000 	strhi	r0, [r5, -r0]
    1de4:	00276201 	eoreq	r6, r7, r1, lsl #4
    1de8:	018b0500 	orreq	r0, fp, r0, lsl #10
    1dec:	00006773 	andeq	r6, r0, r3, ror r7
    1df0:	62018c05 	andvs	r8, r1, #1280	; 0x500
    1df4:	05000072 	streq	r0, [r0, #-114]	; 0xffffff8e
    1df8:	210f018d 	smlabbcs	pc, sp, r1, r0	; <UNPREDICTABLE>
    1dfc:	8e050000 	cdphi	0, 0, cr0, cr5, cr0, {0}
    1e00:	00651201 	rsbeq	r1, r5, r1, lsl #4
    1e04:	01920500 	orrseq	r0, r2, r0, lsl #10
    1e08:	000054ba 			; <UNDEFINED> instruction: 0x000054ba
    1e0c:	a6019305 	strge	r9, [r1], -r5, lsl #6
    1e10:	05000027 	streq	r0, [r0, #-39]	; 0xffffffd9
    1e14:	8eb00194 	mrchi	1, 5, r0, cr0, cr4, {4}
    1e18:	95050000 	strls	r0, [r5, #-0]
    1e1c:	00207601 	eoreq	r7, r0, r1, lsl #12
    1e20:	01990500 	orrseq	r0, r9, r0, lsl #10
    1e24:	0000362c 	andeq	r3, r0, ip, lsr #12
    1e28:	43019a05 	movwmi	r9, #6661	; 0x1a05
    1e2c:	05000012 	streq	r0, [r0, #-18]	; 0xffffffee
    1e30:	7c38019b 	ldfvcs	f0, [r8], #-620	; 0xfffffd94
    1e34:	9c050000 	stcls	0, cr0, [r5], {-0}
    1e38:	00732201 	rsbseq	r2, r3, r1, lsl #4
    1e3c:	01a00500 	lsleq	r0, r0, #10
    1e40:	0000039a 	muleq	r0, sl, r3
    1e44:	6201a105 	andvs	sl, r1, #1073741825	; 0x40000001
    1e48:	0500006d 	streq	r0, [r0, #-109]	; 0xffffff93
    1e4c:	51a101a2 			; <UNDEFINED> instruction: 0x51a101a2
    1e50:	a3050000 	movwge	r0, #20480	; 0x5000
    1e54:	001d3001 	andseq	r3, sp, r1
    1e58:	01a70500 			; <UNDEFINED> instruction: 0x01a70500
    1e5c:	000068f4 	strdeq	r6, [r0], -r4
    1e60:	4001a805 	andmi	sl, r1, r5, lsl #16
    1e64:	05000087 	streq	r0, [r0, #-135]	; 0xffffff79
    1e68:	42d501a9 	sbcsmi	r0, r5, #1073741866	; 0x4000002a
    1e6c:	aa050000 	bge	141e74 <_Min_Stack_Size+0x141a74>
    1e70:	008ef401 	addeq	pc, lr, r1, lsl #8
    1e74:	01ae0500 			; <UNDEFINED> instruction: 0x01ae0500
    1e78:	0000383e 	andeq	r3, r0, lr, lsr r8
    1e7c:	b201af05 	andlt	sl, r1, #5, 30
    1e80:	0500000e 	streq	r0, [r0, #-14]
    1e84:	13d801b0 	bicsne	r0, r8, #176, 2	; 0x2c
    1e88:	b1050000 	mrslt	r0, (UNDEF: 5)
    1e8c:	0025ad01 	eoreq	sl, r5, r1, lsl #26
    1e90:	01b50500 			; <UNDEFINED> instruction: 0x01b50500
    1e94:	00006622 	andeq	r6, r0, r2, lsr #12
    1e98:	1001b605 	andne	fp, r1, r5, lsl #12
    1e9c:	05000078 	streq	r0, [r0, #-120]	; 0xffffff88
    1ea0:	891a01b7 	ldmdbhi	sl, {r0, r1, r2, r4, r5, r7, r8}
    1ea4:	b8050000 	stmdalt	r5, {}	; <UNPREDICTABLE>
    1ea8:	0092d101 	addseq	sp, r2, r1, lsl #2
    1eac:	01bc0500 			; <UNDEFINED> instruction: 0x01bc0500
    1eb0:	0000847e 	andeq	r8, r0, lr, ror r4
    1eb4:	4901bd05 	stmdbmi	r1, {r0, r2, r8, sl, fp, ip, sp, pc}
    1eb8:	0500003f 	streq	r0, [r0, #-63]	; 0xffffffc1
    1ebc:	230701be 	movwcs	r0, #29118	; 0x71be
    1ec0:	bf050000 	svclt	0x00050000
    1ec4:	006f4e01 	rsbeq	r4, pc, r1, lsl #28
    1ec8:	01c30500 	biceq	r0, r3, r0, lsl #10
    1ecc:	00000b43 	andeq	r0, r0, r3, asr #22
    1ed0:	bc01c405 	cfstrslt	mvf12, [r1], {5}
    1ed4:	05000005 	streq	r0, [r0, #-5]
    1ed8:	773801c5 	ldrvc	r0, [r8, -r5, asr #3]!
    1edc:	c6050000 	strgt	r0, [r5], -r0
    1ee0:	00320301 	eorseq	r0, r2, r1, lsl #6
    1ee4:	01cb0500 	biceq	r0, fp, r0, lsl #10
    1ee8:	0000247e 	andeq	r2, r0, lr, ror r4
    1eec:	9801cc05 	stmdals	r1, {r0, r2, sl, fp, lr, pc}
    1ef0:	0500000b 	streq	r0, [r0, #-11]
    1ef4:	5b7601cd 	blpl	1d82630 <_Min_Stack_Size+0x1d82230>
    1ef8:	d1050000 	mrsle	r0, (UNDEF: 5)
    1efc:	00815b01 	addeq	r5, r1, r1, lsl #22
    1f00:	01d20500 	bicseq	r0, r2, r0, lsl #10
    1f04:	000017ad 	andeq	r1, r0, sp, lsr #15
    1f08:	02000400 	andeq	r0, r0, #0, 8
    1f0c:	00000798 	muleq	r0, r8, r7
    1f10:	00016207 	andeq	r6, r1, r7, lsl #4
    1f14:	01000300 	mrseq	r0, LR_irq
    1f18:	05040903 	streq	r0, [r4, #-2307]	; 0xfffff6fd
    1f1c:	00889d09 	addeq	r9, r8, r9, lsl #26
    1f20:	070d0300 	streq	r0, [sp, -r0, lsl #6]
    1f24:	7fd10805 	svcvc	0x00d10805
    1f28:	0a030000 	beq	c1f30 <_Min_Stack_Size+0xc1b30>
    1f2c:	0bea0708 	bleq	ffa83b54 <_estack+0xdfa81354>
    1f30:	03040000 	movweq	r0, #16384	; 0x4000
    1f34:	0805090b 	stmdaeq	r5, {r0, r1, r3, r8, fp}
    1f38:	00005359 	andeq	r5, r0, r9, asr r3
    1f3c:	050a0a03 	streq	r0, [sl, #-2563]	; 0xfffff5fd
    1f40:	00129f08 	andseq	r9, r2, r8, lsl #30
    1f44:	0b0e0300 	bleq	382b4c <_Min_Stack_Size+0x38274c>
    1f48:	000c0207 	andeq	r0, ip, r7, lsl #4
    1f4c:	24070400 	strcs	r0, [r7], #-1024	; 0xfffffc00
    1f50:	0400000c 	streq	r0, [r0], #-12
    1f54:	050c0b03 	streq	r0, [ip, #-2819]	; 0xfffff4fd
    1f58:	007eed02 	rsbseq	lr, lr, r2, lsl #26
    1f5c:	08040300 	stmdaeq	r4, {r8, r9}
    1f60:	0d050304 	stceq	3, cr0, [r5, #-16]
    1f64:	000c7007 	andeq	r7, ip, r7
    1f68:	04070400 	streq	r0, [r7], #-1024	; 0xfffffc00
    1f6c:	0400000d 	streq	r0, [r0], #-13
    1f70:	000d4007 	andeq	r4, sp, r7
    1f74:	74070400 	strvc	r0, [r7], #-1024	; 0xfffffc00
    1f78:	0300000d 	movweq	r0, #13
    1f7c:	8a070e10 	bhi	1c57c4 <_Min_Stack_Size+0x1c53c4>
    1f80:	0400000d 	streq	r0, [r0], #-13
    1f84:	050f1203 	streq	r1, [pc, #-515]	; 1d89 <_Min_Stack_Size+0x1989>
    1f88:	0056d60b 	subseq	sp, r6, fp, lsl #12
    1f8c:	090d0300 	stmdbeq	sp, {r8, r9}
    1f90:	0e0e0304 	cdpeq	3, 0, cr0, cr14, cr4, {0}
    1f94:	000e9807 	andeq	r9, lr, r7, lsl #16
    1f98:	0f030400 	svceq	0x00030400
    1f9c:	0f250710 	svceq	0x00250710
    1fa0:	18030000 	stmdane	r3, {}	; <UNPREDICTABLE>
    1fa4:	0f3b070e 	svceq	0x003b070e
    1fa8:	03040000 	movweq	r0, #16384	; 0x4000
    1fac:	0605111b 			; <UNDEFINED> instruction: 0x0605111b
    1fb0:	00005b1f 	andeq	r5, r0, pc, lsl fp
    1fb4:	07020703 	streq	r0, [r2, -r3, lsl #14]
    1fb8:	00000f7e 	andeq	r0, r0, lr, ror pc
    1fbc:	d5070404 	strle	r0, [r7, #-1028]	; 0xfffffbfc
    1fc0:	0400000f 	streq	r0, [r0], #-15
    1fc4:	00100907 	andseq	r0, r0, r7, lsl #18
    1fc8:	12220300 	eorne	r0, r2, #0, 6
    1fcc:	00101907 	andseq	r1, r0, r7, lsl #18
    1fd0:	71070400 	tstvc	r7, r0, lsl #8
    1fd4:	03000010 	movweq	r0, #16
    1fd8:	071303f7 			; <UNDEFINED> instruction: 0x071303f7
    1fdc:	000010e2 	andeq	r1, r0, r2, ror #1
    1fe0:	10fe0704 	rscsne	r0, lr, r4, lsl #14
    1fe4:	03040000 	movweq	r0, #16384	; 0x4000
    1fe8:	2b051413 	blcs	14703c <_Min_Stack_Size+0x146c3c>
    1fec:	0000832b 	andeq	r8, r0, fp, lsr #6
    1ff0:	040e2f03 	streq	r2, [lr], #-3843	; 0xfffff0fd
    1ff4:	00122807 	andseq	r2, r2, r7, lsl #16
    1ff8:	14030400 	strne	r0, [r3], #-1024	; 0xfffffc00
    1ffc:	b6020515 			; <UNDEFINED> instruction: 0xb6020515
    2000:	04000026 	streq	r0, [r0], #-38	; 0xffffffda
    2004:	07161603 	ldreq	r1, [r6, -r3, lsl #12]
    2008:	00001569 	andeq	r1, r0, r9, ror #10
    200c:	157f0704 	ldrbne	r0, [pc, #-1796]!	; 1910 <_Min_Stack_Size+0x1510>
    2010:	03040000 	movweq	r0, #16384	; 0x4000
    2014:	0903170e 	stmdbeq	r3, {r1, r2, r3, r8, r9, sl, ip}
    2018:	d00a0518 	andle	r0, sl, r8, lsl r5
    201c:	03000006 	movweq	r0, #6
    2020:	a807190d 	stmdage	r7, {r0, r2, r3, r8, fp, ip}
    2024:	04000015 	streq	r0, [r0], #-21	; 0xffffffeb
    2028:	07030e03 	streq	r0, [r3, -r3, lsl #28]
    202c:	000016ab 	andeq	r1, r0, fp, lsr #13
    2030:	17150704 	ldrne	r0, [r5, -r4, lsl #14]
    2034:	05040000 	streq	r0, [r4, #-0]
    2038:	0006c70d 	andeq	ip, r6, sp, lsl #14
    203c:	f4070400 	vst3.8	{d0-d2}, [r7], r0
    2040:	04000018 	streq	r0, [r0], #-24	; 0xffffffe8
    2044:	05060a03 	streq	r0, [r6, #-2563]	; 0xfffff5fd
    2048:	00786209 	rsbseq	r6, r8, r9, lsl #4
    204c:	040e0300 	streq	r0, [lr], #-768	; 0xfffffd00
    2050:	050f0304 	streq	r0, [pc, #-772]	; 1d54 <_Min_Stack_Size+0x1954>
    2054:	00206c07 	eoreq	r6, r0, r7, lsl #24
    2058:	55070400 	strpl	r0, [r7, #-1024]	; 0xfffffc00
    205c:	0400001c 	streq	r0, [r0], #-28	; 0xffffffe4
    2060:	04050b03 	streq	r0, [r5], #-2819	; 0xfffff4fd
    2064:	946d5b05 	strbtls	r5, [sp], #-2821	; 0xfffff4fb
    2068:	00040000 	andeq	r0, r4, r0
    206c:	05000004 	streq	r0, [r0, #-4]
    2070:	003d3409 	eorseq	r3, sp, r9, lsl #8
    2074:	e40c0500 	str	r0, [ip], #-1280	; 0xfffffb00
    2078:	05000023 	streq	r0, [r0, #-35]	; 0xffffffdd
    207c:	0032a80d 	eorseq	sl, r2, sp, lsl #16
    2080:	c7200500 	strgt	r0, [r0, -r0, lsl #10]!
    2084:	0500005a 	streq	r0, [r0, #-90]	; 0xffffffa6
    2088:	005f3621 	subseq	r3, pc, r1, lsr #12
    208c:	9f220500 	svcls	0x00220500
    2090:	05000085 	streq	r0, [r0, #-133]	; 0xffffff7b
    2094:	00883523 	addeq	r3, r8, r3, lsr #10
    2098:	84240500 	strthi	r0, [r4], #-1280	; 0xfffffb00
    209c:	0500000c 	streq	r0, [r0, #-12]
    20a0:	0026df25 	eoreq	sp, r6, r5, lsr #30
    20a4:	cb260500 	blgt	9834ac <_Min_Stack_Size+0x9830ac>
    20a8:	05000046 	streq	r0, [r0, #-70]	; 0xffffffba
    20ac:	000d8627 	andeq	r8, sp, r7, lsr #12
    20b0:	54280500 	strtpl	r0, [r8], #-1280	; 0xfffffb00
    20b4:	05000050 	streq	r0, [r0, #-80]	; 0xffffffb0
    20b8:	0087e629 	addeq	lr, r7, r9, lsr #12
    20bc:	5c2a0500 	cfstr32pl	mvfx0, [sl], #-0
    20c0:	0500008b 	streq	r0, [r0, #-139]	; 0xffffff75
    20c4:	006de92b 	rsbeq	lr, sp, fp, lsr #18
    20c8:	962c0500 	strtls	r0, [ip], -r0, lsl #10
    20cc:	05000026 	streq	r0, [r0, #-38]	; 0xffffffda
    20d0:	0033ae2d 	eorseq	sl, r3, sp, lsr #28
    20d4:	a52e0500 	strge	r0, [lr, #-1280]!	; 0xfffffb00
    20d8:	05000015 	streq	r0, [r0, #-21]	; 0xffffffeb
    20dc:	006b8a2f 	rsbeq	r8, fp, pc, lsr #20
    20e0:	e9300500 	ldmdb	r0!, {r8, sl}
    20e4:	05000072 	streq	r0, [r0, #-114]	; 0xffffff8e
    20e8:	0000be32 	andeq	fp, r0, r2, lsr lr
    20ec:	bb440500 	bllt	11034f4 <_Min_Stack_Size+0x11030f4>
    20f0:	0500002e 	streq	r0, [r0, #-46]	; 0xffffffd2
    20f4:	00427a45 	subeq	r7, r2, r5, asr #20
    20f8:	be460500 	cdplt	5, 4, cr0, cr6, cr0, {0}
    20fc:	05000075 	streq	r0, [r0, #-117]	; 0xffffff8b
    2100:	003eb647 	eorseq	fp, lr, r7, asr #12
    2104:	da480500 	ble	120350c <_Min_Stack_Size+0x120310c>
    2108:	05000062 	streq	r0, [r0, #-98]	; 0xffffff9e
    210c:	00705149 	rsbseq	r5, r0, r9, asr #2
    2110:	504a0500 	subpl	r0, sl, r0, lsl #10
    2114:	0500004f 	streq	r0, [r0, #-79]	; 0xffffffb1
    2118:	00251b4b 	eoreq	r1, r5, fp, asr #22
    211c:	8d4c0500 	cfstr64hi	mvdx0, [ip, #-0]
    2120:	0500007b 	streq	r0, [r0, #-123]	; 0xffffff85
    2124:	00621157 	rsbeq	r1, r2, r7, asr r1
    2128:	ba580500 	blt	1603530 <_Min_Stack_Size+0x1603130>
    212c:	0500008b 	streq	r0, [r0, #-139]	; 0xffffff75
    2130:	003c8f59 	eorseq	r8, ip, r9, asr pc
    2134:	00040000 	andeq	r0, r4, r0
    2138:	0012b002 	andseq	fp, r2, r2
    213c:	01620700 	cmneq	r2, r0, lsl #14
    2140:	00030000 	andeq	r0, r3, r0
    2144:	05120301 	ldreq	r0, [r2, #-769]	; 0xfffffcff
    2148:	000bd407 	andeq	sp, fp, r7, lsl #8
    214c:	04100300 	ldreq	r0, [r0], #-768	; 0xfffffd00
    2150:	889d0905 	ldmhi	sp, {r0, r2, r8, fp}
    2154:	0d030000 	stceq	0, cr0, [r3, #-0]
    2158:	d1080506 	tstle	r8, r6, lsl #10
    215c:	0300007f 	movweq	r0, #127	; 0x7f
    2160:	ea07070a 	b	1c3d90 <_Min_Stack_Size+0x1c3990>
    2164:	0400000b 	streq	r0, [r0], #-11
    2168:	05080b03 	streq	r0, [r8, #-2819]	; 0xfffff4fd
    216c:	00535908 	subseq	r5, r3, r8, lsl #18
    2170:	090a0300 	stmdbeq	sl, {r8, r9}
    2174:	129f0805 	addsne	r0, pc, #327680	; 0x50000
    2178:	0e030000 	cdpeq	0, 0, cr0, cr3, cr0, {0}
    217c:	0c02070a 	stceq	7, cr0, [r2], {10}
    2180:	07040000 	streq	r0, [r4, -r0]
    2184:	00000c24 	andeq	r0, r0, r4, lsr #24
    2188:	0b0b0304 	bleq	2c2da0 <_Min_Stack_Size+0x2c29a0>
    218c:	7eed0205 	cdpvc	2, 14, cr0, cr13, cr5, {0}
    2190:	04030000 	streq	r0, [r3], #-0
    2194:	05030407 	streq	r0, [r3, #-1031]	; 0xfffffbf9
    2198:	0c70070c 	ldcleq	7, cr0, [r0], #-48	; 0xffffffd0
    219c:	07040000 	streq	r0, [r4, -r0]
    21a0:	00000d04 	andeq	r0, r0, r4, lsl #26
    21a4:	0d400704 	stcleq	7, cr0, [r0, #-16]
    21a8:	07040000 	streq	r0, [r4, -r0]
    21ac:	00000d74 	andeq	r0, r0, r4, ror sp
    21b0:	070d1003 	streq	r1, [sp, -r3]
    21b4:	00000d8a 	andeq	r0, r0, sl, lsl #27
    21b8:	0e120304 	cdpeq	3, 1, cr0, cr2, cr4, {0}
    21bc:	56d60b05 	ldrbpl	r0, [r6], r5, lsl #22
    21c0:	0d030000 	stceq	0, cr0, [r3, #-0]
    21c4:	0e030408 	cdpeq	4, 0, cr0, cr3, cr8, {0}
    21c8:	0e98070d 	cdpeq	7, 9, cr0, cr8, cr13, {0}
    21cc:	03040000 	movweq	r0, #16384	; 0x4000
    21d0:	25070f0f 	strcs	r0, [r7, #-3855]	; 0xfffff0f1
    21d4:	0300000f 	movweq	r0, #15
    21d8:	3b070d18 	blcc	1c5640 <_Min_Stack_Size+0x1c5240>
    21dc:	0400000f 	streq	r0, [r0], #-15
    21e0:	05101b03 	ldreq	r1, [r0, #-2819]	; 0xfffff4fd
    21e4:	005b1f06 	subseq	r1, fp, r6, lsl #30
    21e8:	02070300 	andeq	r0, r7, #0, 6
    21ec:	000f7e07 	andeq	r7, pc, r7, lsl #28
    21f0:	07040400 	streq	r0, [r4, -r0, lsl #8]
    21f4:	00000fd5 	ldrdeq	r0, [r0], -r5
    21f8:	10090704 	andne	r0, r9, r4, lsl #14
    21fc:	22030000 	andcs	r0, r3, #0
    2200:	10190711 	andsne	r0, r9, r1, lsl r7
    2204:	07040000 	streq	r0, [r4, -r0]
    2208:	00001071 	andeq	r1, r0, r1, ror r0
    220c:	1203f703 	andne	pc, r3, #786432	; 0xc0000
    2210:	0010e207 	andseq	lr, r0, r7, lsl #4
    2214:	fe070400 	cdp2	4, 0, cr0, cr7, cr0, {0}
    2218:	04000010 	streq	r0, [r0], #-16
    221c:	05131303 	ldreq	r1, [r3, #-771]	; 0xfffffcfd
    2220:	00832b2b 	addeq	r2, r3, fp, lsr #22
    2224:	0d2f0300 	stceq	3, cr0, [pc, #-0]	; 222c <_Min_Stack_Size+0x1e2c>
    2228:	12280704 	eorne	r0, r8, #4, 14	; 0x100000
    222c:	03040000 	movweq	r0, #16384	; 0x4000
    2230:	02051414 	andeq	r1, r5, #20, 8	; 0x14000000
    2234:	000026b6 			; <UNDEFINED> instruction: 0x000026b6
    2238:	15160304 	ldrne	r0, [r6, #-772]	; 0xfffffcfc
    223c:	00156907 	andseq	r6, r5, r7, lsl #18
    2240:	7f070400 	svcvc	0x00070400
    2244:	04000015 	streq	r0, [r0], #-21	; 0xffffffeb
    2248:	03160e03 	tsteq	r6, #3, 28	; 0x30
    224c:	0a051709 	beq	147e78 <_Min_Stack_Size+0x147a78>
    2250:	000006d0 	ldrdeq	r0, [r0], -r0	; <UNPREDICTABLE>
    2254:	07180d03 	ldreq	r0, [r8, -r3, lsl #26]
    2258:	000015a8 	andeq	r1, r0, r8, lsr #11
    225c:	030e0304 	movweq	r0, #58116	; 0xe304
    2260:	0016ab07 	andseq	sl, r6, r7, lsl #22
    2264:	15070400 	strne	r0, [r7, #-1024]	; 0xfffffc00
    2268:	04000017 	streq	r0, [r0], #-23	; 0xffffffe9
    226c:	06c70d05 	strbeq	r0, [r7], r5, lsl #26
    2270:	07040000 	streq	r0, [r4, -r0]
    2274:	000018f4 	strdeq	r1, [r0], -r4
    2278:	1b9d0704 	blne	fe743e90 <_estack+0xde741690>
    227c:	03040000 	movweq	r0, #16384	; 0x4000
    2280:	04040413 	streq	r0, [r4], #-1043	; 0xfffffbed
	...

Disassembly of section .debug_line:

00000000 <.debug_line>:
       0:	00000710 	andeq	r0, r0, r0, lsl r7
       4:	06c00003 	strbeq	r0, [r0], r3
       8:	01020000 	mrseq	r0, (UNDEF: 2)
       c:	000d0efb 	strdeq	r0, [sp], -fp
      10:	01010101 	tsteq	r1, r1, lsl #2
      14:	01000000 	mrseq	r0, (UNDEF: 0)
      18:	2e010000 	cdpcs	0, 0, cr0, cr1, cr0, {0}
      1c:	72532f2e 	subsvc	r2, r3, #46, 30	; 0xb8
      20:	3a670063 	bcc	19c01b4 <_Min_Stack_Size+0x19bfdb4>
      24:	2e6e655c 	mcrcs	5, 3, r6, cr14, cr12, {2}
      28:	732d7473 			; <UNDEFINED> instruction: 0x732d7473
      2c:	32336d74 	eorscc	r6, r3, #116, 26	; 0x1d00
      30:	65627563 	strbvs	r7, [r2, #-1379]!	; 0xfffffa9d
      34:	5f656469 	svcpl	0x00656469
      38:	2e342e31 	mrccs	14, 1, r2, cr4, cr1, {1}
      3c:	35375f30 	ldrcc	r5, [r7, #-3888]!	; 0xfffff0d0
      40:	325f3131 	subscc	r3, pc, #1073741836	; 0x4000000c
      44:	30303230 	eorscc	r3, r0, r0, lsr r2
      48:	5f303237 	svcpl	0x00303237
      4c:	38323930 	ldmdacc	r2!, {r4, r5, r8, fp, ip, sp}
      50:	3638785f 			; <UNDEFINED> instruction: 0x3638785f
      54:	5f34365f 	svcpl	0x0034365f
      58:	5c657865 	stclpl	8, cr7, [r5], #-404	; 0xfffffe6c
      5c:	336d7473 	cmncc	sp, #1929379840	; 0x73000000
      60:	62756332 	rsbsvs	r6, r5, #-939524096	; 0xc8000000
      64:	65646965 	strbvs	r6, [r4, #-2405]!	; 0xfffff69b
      68:	342e315f 	strtcc	r3, [lr], #-351	; 0xfffffea1
      6c:	735c302e 	cmpvc	ip, #46	; 0x2e
      70:	32336d74 	eorscc	r6, r3, #116, 26	; 0x1d00
      74:	65627563 	strbvs	r7, [r2, #-1379]!	; 0xfffffa9d
      78:	5c656469 	cfstrdpl	mvd6, [r5], #-420	; 0xfffffe5c
      7c:	67756c70 			; <UNDEFINED> instruction: 0x67756c70
      80:	5c736e69 	ldclpl	14, cr6, [r3], #-420	; 0xfffffe5c
      84:	2e6d6f63 	cdpcs	15, 6, cr6, cr13, cr3, {3}
      88:	732e7473 			; <UNDEFINED> instruction: 0x732e7473
      8c:	32336d74 	eorscc	r6, r3, #116, 26	; 0x1d00
      90:	65627563 	strbvs	r7, [r2, #-1379]!	; 0xfffffa9d
      94:	6564692e 	strbvs	r6, [r4, #-2350]!	; 0xfffff6d2
      98:	75636d2e 	strbvc	r6, [r3, #-3374]!	; 0xfffff2d2
      9c:	7478652e 	ldrbtvc	r6, [r8], #-1326	; 0xfffffad2
      a0:	616e7265 	cmnvs	lr, r5, ror #4
      a4:	6f6f746c 	svcvs	0x006f746c
      a8:	672e736c 	strvs	r7, [lr, -ip, ror #6]!
      ac:	742d756e 	strtvc	r7, [sp], #-1390	; 0xfffffa92
      b0:	736c6f6f 	cmnvc	ip, #444	; 0x1bc
      b4:	726f662d 	rsbvc	r6, pc, #47185920	; 0x2d00000
      b8:	6d74732d 	ldclvs	3, cr7, [r4, #-180]!	; 0xffffff4c
      bc:	312e3233 			; <UNDEFINED> instruction: 0x312e3233
      c0:	2d332e30 	ldccs	14, cr2, [r3, #-192]!	; 0xffffff40
      c4:	31323032 	teqcc	r2, r2, lsr r0
      c8:	2e30312e 	rsfcssp	f3, f0, #0.5
      cc:	336e6977 	cmncc	lr, #1949696	; 0x1dc000
      d0:	2e315f32 	mrccs	15, 1, r5, cr1, cr2, {1}
      d4:	30322e30 	eorscc	r2, r2, r0, lsr lr
      d8:	30322e30 	eorscc	r2, r2, r0, lsr lr
      dc:	31303332 	teqcc	r0, r2, lsr r3
      e0:	30313631 	eorscc	r3, r1, r1, lsr r6
      e4:	745c3330 	ldrbvc	r3, [ip], #-816	; 0xfffffcd0
      e8:	736c6f6f 	cmnvc	ip, #444	; 0x1bc
      ec:	6e69625c 	mcrvs	2, 3, r6, cr9, cr12, {2}
      f0:	2f2e2e5c 	svccs	0x002e2e5c
      f4:	2f62696c 	svccs	0x0062696c
      f8:	2f636367 	svccs	0x00636367
      fc:	2d6d7261 	sfmcs	f7, 2, [sp, #-388]!	; 0xfffffe7c
     100:	656e6f6e 	strbvs	r6, [lr, #-3950]!	; 0xfffff092
     104:	6261652d 	rsbvs	r6, r1, #188743680	; 0xb400000
     108:	30312f69 	eorscc	r2, r1, r9, ror #30
     10c:	312e332e 			; <UNDEFINED> instruction: 0x312e332e
     110:	2f2e2e2f 	svccs	0x002e2e2f
     114:	2e2f2e2e 	cdpcs	14, 2, cr2, cr15, cr14, {1}
     118:	2e2e2f2e 	cdpcs	15, 2, cr2, cr14, cr14, {1}
     11c:	6d72612f 	ldfvse	f6, [r2, #-188]!	; 0xffffff44
     120:	6e6f6e2d 	cdpvs	14, 6, cr6, cr15, cr13, {1}
     124:	61652d65 	cmnvs	r5, r5, ror #26
     128:	692f6962 	stmdbvs	pc!, {r1, r5, r6, r8, fp, sp, lr}	; <UNPREDICTABLE>
     12c:	756c636e 	strbvc	r6, [ip, #-878]!	; 0xfffffc92
     130:	6d2f6564 	cfstr32vs	mvfx6, [pc, #-400]!	; ffffffa8 <_estack+0xdfffd7a8>
     134:	69686361 	stmdbvs	r8!, {r0, r5, r6, r8, r9, sp, lr}^
     138:	6700656e 	strvs	r6, [r0, -lr, ror #10]
     13c:	6e655c3a 	mcrvs	12, 3, r5, cr5, cr10, {1}
     140:	2d74732e 	ldclcs	3, cr7, [r4, #-184]!	; 0xffffff48
     144:	336d7473 	cmncc	sp, #1929379840	; 0x73000000
     148:	62756332 	rsbsvs	r6, r5, #-939524096	; 0xc8000000
     14c:	65646965 	strbvs	r6, [r4, #-2405]!	; 0xfffff69b
     150:	342e315f 	strtcc	r3, [lr], #-351	; 0xfffffea1
     154:	375f302e 	ldrbcc	r3, [pc, -lr, lsr #32]
     158:	5f313135 	svcpl	0x00313135
     15c:	30323032 	eorscc	r3, r2, r2, lsr r0
     160:	30323730 	eorscc	r3, r2, r0, lsr r7
     164:	3239305f 	eorscc	r3, r9, #95	; 0x5f
     168:	38785f38 	ldmdacc	r8!, {r3, r4, r5, r8, r9, sl, fp, ip, lr}^
     16c:	34365f36 	ldrtcc	r5, [r6], #-3894	; 0xfffff0ca
     170:	6578655f 	ldrbvs	r6, [r8, #-1375]!	; 0xfffffaa1
     174:	6d74735c 	ldclvs	3, cr7, [r4, #-368]!	; 0xfffffe90
     178:	75633233 	strbvc	r3, [r3, #-563]!	; 0xfffffdcd
     17c:	64696562 	strbtvs	r6, [r9], #-1378	; 0xfffffa9e
     180:	2e315f65 	cdpcs	15, 3, cr5, cr1, cr5, {3}
     184:	5c302e34 	ldcpl	14, cr2, [r0], #-208	; 0xffffff30
     188:	336d7473 	cmncc	sp, #1929379840	; 0x73000000
     18c:	62756332 	rsbsvs	r6, r5, #-939524096	; 0xc8000000
     190:	65646965 	strbvs	r6, [r4, #-2405]!	; 0xfffff69b
     194:	756c705c 	strbvc	r7, [ip, #-92]!	; 0xffffffa4
     198:	736e6967 	cmnvc	lr, #1687552	; 0x19c000
     19c:	6d6f635c 	stclvs	3, cr6, [pc, #-368]!	; 34 <_Min_Heap_Size-0x1cc>
     1a0:	2e74732e 	cdpcs	3, 7, cr7, cr4, cr14, {1}
     1a4:	336d7473 	cmncc	sp, #1929379840	; 0x73000000
     1a8:	62756332 	rsbsvs	r6, r5, #-939524096	; 0xc8000000
     1ac:	64692e65 	strbtvs	r2, [r9], #-3685	; 0xfffff19b
     1b0:	636d2e65 	cmnvs	sp, #1616	; 0x650
     1b4:	78652e75 	stmdavc	r5!, {r0, r2, r4, r5, r6, r9, sl, fp, sp}^
     1b8:	6e726574 	mrcvs	5, 3, r6, cr2, cr4, {3}
     1bc:	6f746c61 	svcvs	0x00746c61
     1c0:	2e736c6f 	cdpcs	12, 7, cr6, cr3, cr15, {3}
     1c4:	2d756e67 	ldclcs	14, cr6, [r5, #-412]!	; 0xfffffe64
     1c8:	6c6f6f74 	stclvs	15, cr6, [pc], #-464	; 0 <_Min_Heap_Size-0x200>
     1cc:	6f662d73 	svcvs	0x00662d73
     1d0:	74732d72 	ldrbtvc	r2, [r3], #-3442	; 0xfffff28e
     1d4:	2e32336d 	cdpcs	3, 3, cr3, cr2, cr13, {3}
     1d8:	332e3031 			; <UNDEFINED> instruction: 0x332e3031
     1dc:	3230322d 	eorscc	r3, r0, #-805306366	; 0xd0000002
     1e0:	30312e31 	eorscc	r2, r1, r1, lsr lr
     1e4:	6e69772e 	cdpvs	7, 6, cr7, cr9, cr14, {1}
     1e8:	315f3233 	cmpcc	pc, r3, lsr r2	; <UNPREDICTABLE>
     1ec:	322e302e 	eorcc	r3, lr, #46	; 0x2e
     1f0:	322e3030 	eorcc	r3, lr, #48	; 0x30
     1f4:	30333230 	eorscc	r3, r3, r0, lsr r2
     1f8:	31363131 	teqcc	r6, r1, lsr r1
     1fc:	5c333030 	ldcpl	0, cr3, [r3], #-192	; 0xffffff40
     200:	6c6f6f74 	stclvs	15, cr6, [pc], #-464	; 38 <_Min_Heap_Size-0x1c8>
     204:	69625c73 	stmdbvs	r2!, {r0, r1, r4, r5, r6, sl, fp, ip, lr}^
     208:	2e2e5c6e 	cdpcs	12, 2, cr5, cr14, cr14, {3}
     20c:	62696c2f 	rsbvs	r6, r9, #12032	; 0x2f00
     210:	6363672f 	cmnvs	r3, #12320768	; 0xbc0000
     214:	6d72612f 	ldfvse	f6, [r2, #-188]!	; 0xffffff44
     218:	6e6f6e2d 	cdpvs	14, 6, cr6, cr15, cr13, {1}
     21c:	61652d65 	cmnvs	r5, r5, ror #26
     220:	312f6962 			; <UNDEFINED> instruction: 0x312f6962
     224:	2e332e30 	mrccs	14, 1, r2, cr3, cr0, {1}
     228:	2e2e2f31 	mcrcs	15, 1, r2, cr14, cr1, {1}
     22c:	2f2e2e2f 	svccs	0x002e2e2f
     230:	2e2f2e2e 	cdpcs	14, 2, cr2, cr15, cr14, {1}
     234:	72612f2e 	rsbvc	r2, r1, #46, 30	; 0xb8
     238:	6f6e2d6d 	svcvs	0x006e2d6d
     23c:	652d656e 	strvs	r6, [sp, #-1390]!	; 0xfffffa92
     240:	2f696261 	svccs	0x00696261
     244:	6c636e69 	stclvs	14, cr6, [r3], #-420	; 0xfffffe5c
     248:	2f656475 	svccs	0x00656475
     24c:	00737973 	rsbseq	r7, r3, r3, ror r9
     250:	442f3a44 	strtmi	r3, [pc], #-2628	; 258 <_Min_Heap_Size+0x58>
     254:	65766972 	ldrbvs	r6, [r6, #-2418]!	; 0xfffff68e
     258:	732f7372 			; <UNDEFINED> instruction: 0x732f7372
     25c:	32336d74 	eorscc	r6, r3, #116, 26	; 0x1d00
     260:	3031665f 	eorscc	r6, r1, pc, asr r6
     264:	5f366333 	svcpl	0x00366333
     268:	76697264 	strbtvc	r7, [r9], -r4, ror #4
     26c:	2f737265 	svccs	0x00737265
     270:	00636e49 	rsbeq	r6, r3, r9, asr #28
     274:	655c3a67 	ldrbvs	r3, [ip, #-2663]	; 0xfffff599
     278:	74732e6e 	ldrbtvc	r2, [r3], #-3694	; 0xfffff192
     27c:	6d74732d 	ldclvs	3, cr7, [r4, #-180]!	; 0xffffff4c
     280:	75633233 	strbvc	r3, [r3, #-563]!	; 0xfffffdcd
     284:	64696562 	strbtvs	r6, [r9], #-1378	; 0xfffffa9e
     288:	2e315f65 	cdpcs	15, 3, cr5, cr1, cr5, {3}
     28c:	5f302e34 	svcpl	0x00302e34
     290:	31313537 	teqcc	r1, r7, lsr r5
     294:	3230325f 	eorscc	r3, r0, #-268435451	; 0xf0000005
     298:	32373030 	eorscc	r3, r7, #48	; 0x30
     29c:	39305f30 	ldmdbcc	r0!, {r4, r5, r8, r9, sl, fp, ip, lr}
     2a0:	785f3832 	ldmdavc	pc, {r1, r4, r5, fp, ip, sp}^	; <UNPREDICTABLE>
     2a4:	365f3638 			; <UNDEFINED> instruction: 0x365f3638
     2a8:	78655f34 	stmdavc	r5!, {r2, r4, r5, r8, r9, sl, fp, ip, lr}^
     2ac:	74735c65 	ldrbtvc	r5, [r3], #-3173	; 0xfffff39b
     2b0:	6332336d 	teqvs	r2, #-1275068415	; 0xb4000001
     2b4:	69656275 	stmdbvs	r5!, {r0, r2, r4, r5, r6, r9, sp, lr}^
     2b8:	315f6564 	cmpcc	pc, r4, ror #10
     2bc:	302e342e 	eorcc	r3, lr, lr, lsr #8
     2c0:	6d74735c 	ldclvs	3, cr7, [r4, #-368]!	; 0xfffffe90
     2c4:	75633233 	strbvc	r3, [r3, #-563]!	; 0xfffffdcd
     2c8:	64696562 	strbtvs	r6, [r9], #-1378	; 0xfffffa9e
     2cc:	6c705c65 	ldclvs	12, cr5, [r0], #-404	; 0xfffffe6c
     2d0:	6e696775 	mcrvs	7, 3, r6, cr9, cr5, {3}
     2d4:	6f635c73 	svcvs	0x00635c73
     2d8:	74732e6d 	ldrbtvc	r2, [r3], #-3693	; 0xfffff193
     2dc:	6d74732e 	ldclvs	3, cr7, [r4, #-184]!	; 0xffffff48
     2e0:	75633233 	strbvc	r3, [r3, #-563]!	; 0xfffffdcd
     2e4:	692e6562 	stmdbvs	lr!, {r1, r5, r6, r8, sl, sp, lr}
     2e8:	6d2e6564 	cfstr32vs	mvfx6, [lr, #-400]!	; 0xfffffe70
     2ec:	652e7563 	strvs	r7, [lr, #-1379]!	; 0xfffffa9d
     2f0:	72657478 	rsbvc	r7, r5, #120, 8	; 0x78000000
     2f4:	746c616e 	strbtvc	r6, [ip], #-366	; 0xfffffe92
     2f8:	736c6f6f 	cmnvc	ip, #444	; 0x1bc
     2fc:	756e672e 	strbvc	r6, [lr, #-1838]!	; 0xfffff8d2
     300:	6f6f742d 	svcvs	0x006f742d
     304:	662d736c 	strtvs	r7, [sp], -ip, ror #6
     308:	732d726f 			; <UNDEFINED> instruction: 0x732d726f
     30c:	32336d74 	eorscc	r6, r3, #116, 26	; 0x1d00
     310:	2e30312e 	rsfcssp	f3, f0, #0.5
     314:	30322d33 	eorscc	r2, r2, r3, lsr sp
     318:	312e3132 			; <UNDEFINED> instruction: 0x312e3132
     31c:	69772e30 	ldmdbvs	r7!, {r4, r5, r9, sl, fp, sp}^
     320:	5f32336e 	svcpl	0x0032336e
     324:	2e302e31 	mrccs	14, 1, r2, cr0, cr1, {1}
     328:	2e303032 	mrccs	0, 1, r3, cr0, cr2, {1}
     32c:	33323032 	teqcc	r2, #50	; 0x32
     330:	36313130 			; <UNDEFINED> instruction: 0x36313130
     334:	33303031 	teqcc	r0, #49	; 0x31
     338:	6f6f745c 	svcvs	0x006f745c
     33c:	625c736c 	subsvs	r7, ip, #108, 6	; 0xb0000001
     340:	2e5c6e69 	cdpcs	14, 5, cr6, cr12, cr9, {3}
     344:	696c2f2e 	stmdbvs	ip!, {r1, r2, r3, r5, r8, r9, sl, fp, sp}^
     348:	63672f62 	cmnvs	r7, #392	; 0x188
     34c:	72612f63 	rsbvc	r2, r1, #396	; 0x18c
     350:	6f6e2d6d 	svcvs	0x006e2d6d
     354:	652d656e 	strvs	r6, [sp, #-1390]!	; 0xfffffa92
     358:	2f696261 	svccs	0x00696261
     35c:	332e3031 			; <UNDEFINED> instruction: 0x332e3031
     360:	2e2f312e 	sufcsep	f3, f7, #0.5
     364:	2e2e2f2e 	cdpcs	15, 2, cr2, cr14, cr14, {1}
     368:	2f2e2e2f 	svccs	0x002e2e2f
     36c:	612f2e2e 			; <UNDEFINED> instruction: 0x612f2e2e
     370:	6e2d6d72 	mcrvs	13, 1, r6, cr13, cr2, {3}
     374:	2d656e6f 	stclcs	14, cr6, [r5, #-444]!	; 0xfffffe44
     378:	69626165 	stmdbvs	r2!, {r0, r2, r5, r6, r8, sp, lr}^
     37c:	636e692f 	cmnvs	lr, #770048	; 0xbc000
     380:	6564756c 	strbvs	r7, [r4, #-1388]!	; 0xfffffa94
     384:	5c3a6700 	ldcpl	7, cr6, [sl], #-0
     388:	732e6e65 			; <UNDEFINED> instruction: 0x732e6e65
     38c:	74732d74 	ldrbtvc	r2, [r3], #-3444	; 0xfffff28c
     390:	6332336d 	teqvs	r2, #-1275068415	; 0xb4000001
     394:	69656275 	stmdbvs	r5!, {r0, r2, r4, r5, r6, r9, sp, lr}^
     398:	315f6564 	cmpcc	pc, r4, ror #10
     39c:	302e342e 	eorcc	r3, lr, lr, lsr #8
     3a0:	3135375f 	teqcc	r5, pc, asr r7
     3a4:	30325f31 	eorscc	r5, r2, r1, lsr pc
     3a8:	37303032 			; <UNDEFINED> instruction: 0x37303032
     3ac:	305f3032 	subscc	r3, pc, r2, lsr r0	; <UNPREDICTABLE>
     3b0:	5f383239 	svcpl	0x00383239
     3b4:	5f363878 	svcpl	0x00363878
     3b8:	655f3436 	ldrbvs	r3, [pc, #-1078]	; ffffff8a <_estack+0xdfffd78a>
     3bc:	735c6578 	cmpvc	ip, #120, 10	; 0x1e000000
     3c0:	32336d74 	eorscc	r6, r3, #116, 26	; 0x1d00
     3c4:	65627563 	strbvs	r7, [r2, #-1379]!	; 0xfffffa9d
     3c8:	5f656469 	svcpl	0x00656469
     3cc:	2e342e31 	mrccs	14, 1, r2, cr4, cr1, {1}
     3d0:	74735c30 	ldrbtvc	r5, [r3], #-3120	; 0xfffff3d0
     3d4:	6332336d 	teqvs	r2, #-1275068415	; 0xb4000001
     3d8:	69656275 	stmdbvs	r5!, {r0, r2, r4, r5, r6, r9, sp, lr}^
     3dc:	705c6564 	subsvc	r6, ip, r4, ror #10
     3e0:	6967756c 	stmdbvs	r7!, {r2, r3, r5, r6, r8, sl, ip, sp, lr}^
     3e4:	635c736e 	cmpvs	ip, #-1207959551	; 0xb8000001
     3e8:	732e6d6f 			; <UNDEFINED> instruction: 0x732e6d6f
     3ec:	74732e74 	ldrbtvc	r2, [r3], #-3700	; 0xfffff18c
     3f0:	6332336d 	teqvs	r2, #-1275068415	; 0xb4000001
     3f4:	2e656275 	mcrcs	2, 3, r6, cr5, cr5, {3}
     3f8:	2e656469 	cdpcs	4, 6, cr6, cr5, cr9, {3}
     3fc:	2e75636d 	cdpcs	3, 7, cr6, cr5, cr13, {3}
     400:	65747865 	ldrbvs	r7, [r4, #-2149]!	; 0xfffff79b
     404:	6c616e72 	stclvs	14, cr6, [r1], #-456	; 0xfffffe38
     408:	6c6f6f74 	stclvs	15, cr6, [pc], #-464	; 240 <_Min_Heap_Size+0x40>
     40c:	6e672e73 	mcrvs	14, 3, r2, cr7, cr3, {3}
     410:	6f742d75 	svcvs	0x00742d75
     414:	2d736c6f 	ldclcs	12, cr6, [r3, #-444]!	; 0xfffffe44
     418:	2d726f66 	ldclcs	15, cr6, [r2, #-408]!	; 0xfffffe68
     41c:	336d7473 	cmncc	sp, #1929379840	; 0x73000000
     420:	30312e32 	eorscc	r2, r1, r2, lsr lr
     424:	322d332e 	eorcc	r3, sp, #-1207959552	; 0xb8000000
     428:	2e313230 	mrccs	2, 1, r3, cr1, cr0, {1}
     42c:	772e3031 			; <UNDEFINED> instruction: 0x772e3031
     430:	32336e69 	eorscc	r6, r3, #1680	; 0x690
     434:	302e315f 	eorcc	r3, lr, pc, asr r1
     438:	3030322e 	eorscc	r3, r0, lr, lsr #4
     43c:	3230322e 	eorscc	r3, r0, #-536870910	; 0xe0000002
     440:	31313033 	teqcc	r1, r3, lsr r0
     444:	30303136 	eorscc	r3, r0, r6, lsr r1
     448:	6f745c33 	svcvs	0x00745c33
     44c:	5c736c6f 	ldclpl	12, cr6, [r3], #-444	; 0xfffffe44
     450:	2d6d7261 	sfmcs	f7, 2, [sp, #-388]!	; 0xfffffe7c
     454:	656e6f6e 	strbvs	r6, [lr, #-3950]!	; 0xfffff092
     458:	6261652d 	rsbvs	r6, r1, #188743680	; 0xb400000
     45c:	6e695c69 	cdpvs	12, 6, cr5, cr9, cr9, {3}
     460:	64756c63 	ldrbtvs	r6, [r5], #-3171	; 0xfffff39d
     464:	656e5c65 	strbvs	r5, [lr, #-3173]!	; 0xfffff39b
     468:	62696c77 	rsbvs	r6, r9, #30464	; 0x7700
     46c:	6e616e2d 	cdpvs	14, 6, cr6, cr1, cr13, {1}
     470:	3a67006f 	bcc	19c0634 <_Min_Stack_Size+0x19c0234>
     474:	2e6e655c 	mcrcs	5, 3, r6, cr14, cr12, {2}
     478:	732d7473 			; <UNDEFINED> instruction: 0x732d7473
     47c:	32336d74 	eorscc	r6, r3, #116, 26	; 0x1d00
     480:	65627563 	strbvs	r7, [r2, #-1379]!	; 0xfffffa9d
     484:	5f656469 	svcpl	0x00656469
     488:	2e342e31 	mrccs	14, 1, r2, cr4, cr1, {1}
     48c:	35375f30 	ldrcc	r5, [r7, #-3888]!	; 0xfffff0d0
     490:	325f3131 	subscc	r3, pc, #1073741836	; 0x4000000c
     494:	30303230 	eorscc	r3, r0, r0, lsr r2
     498:	5f303237 	svcpl	0x00303237
     49c:	38323930 	ldmdacc	r2!, {r4, r5, r8, fp, ip, sp}
     4a0:	3638785f 			; <UNDEFINED> instruction: 0x3638785f
     4a4:	5f34365f 	svcpl	0x0034365f
     4a8:	5c657865 	stclpl	8, cr7, [r5], #-404	; 0xfffffe6c
     4ac:	336d7473 	cmncc	sp, #1929379840	; 0x73000000
     4b0:	62756332 	rsbsvs	r6, r5, #-939524096	; 0xc8000000
     4b4:	65646965 	strbvs	r6, [r4, #-2405]!	; 0xfffff69b
     4b8:	342e315f 	strtcc	r3, [lr], #-351	; 0xfffffea1
     4bc:	735c302e 	cmpvc	ip, #46	; 0x2e
     4c0:	32336d74 	eorscc	r6, r3, #116, 26	; 0x1d00
     4c4:	65627563 	strbvs	r7, [r2, #-1379]!	; 0xfffffa9d
     4c8:	5c656469 	cfstrdpl	mvd6, [r5], #-420	; 0xfffffe5c
     4cc:	67756c70 			; <UNDEFINED> instruction: 0x67756c70
     4d0:	5c736e69 	ldclpl	14, cr6, [r3], #-420	; 0xfffffe5c
     4d4:	2e6d6f63 	cdpcs	15, 6, cr6, cr13, cr3, {3}
     4d8:	732e7473 			; <UNDEFINED> instruction: 0x732e7473
     4dc:	32336d74 	eorscc	r6, r3, #116, 26	; 0x1d00
     4e0:	65627563 	strbvs	r7, [r2, #-1379]!	; 0xfffffa9d
     4e4:	6564692e 	strbvs	r6, [r4, #-2350]!	; 0xfffff6d2
     4e8:	75636d2e 	strbvc	r6, [r3, #-3374]!	; 0xfffff2d2
     4ec:	7478652e 	ldrbtvc	r6, [r8], #-1326	; 0xfffffad2
     4f0:	616e7265 	cmnvs	lr, r5, ror #4
     4f4:	6f6f746c 	svcvs	0x006f746c
     4f8:	672e736c 	strvs	r7, [lr, -ip, ror #6]!
     4fc:	742d756e 	strtvc	r7, [sp], #-1390	; 0xfffffa92
     500:	736c6f6f 	cmnvc	ip, #444	; 0x1bc
     504:	726f662d 	rsbvc	r6, pc, #47185920	; 0x2d00000
     508:	6d74732d 	ldclvs	3, cr7, [r4, #-180]!	; 0xffffff4c
     50c:	312e3233 			; <UNDEFINED> instruction: 0x312e3233
     510:	2d332e30 	ldccs	14, cr2, [r3, #-192]!	; 0xffffff40
     514:	31323032 	teqcc	r2, r2, lsr r0
     518:	2e30312e 	rsfcssp	f3, f0, #0.5
     51c:	336e6977 	cmncc	lr, #1949696	; 0x1dc000
     520:	2e315f32 	mrccs	15, 1, r5, cr1, cr2, {1}
     524:	30322e30 	eorscc	r2, r2, r0, lsr lr
     528:	30322e30 	eorscc	r2, r2, r0, lsr lr
     52c:	31303332 	teqcc	r0, r2, lsr r3
     530:	30313631 	eorscc	r3, r1, r1, lsr r6
     534:	745c3330 	ldrbvc	r3, [ip], #-816	; 0xfffffcd0
     538:	736c6f6f 	cmnvc	ip, #444	; 0x1bc
     53c:	62696c5c 	rsbvs	r6, r9, #92, 24	; 0x5c00
     540:	6363675c 	cmnvs	r3, #92, 14	; 0x1700000
     544:	6d72615c 	ldfvse	f6, [r2, #-368]!	; 0xfffffe90
     548:	6e6f6e2d 	cdpvs	14, 6, cr6, cr15, cr13, {1}
     54c:	61652d65 	cmnvs	r5, r5, ror #26
     550:	315c6962 	cmpcc	ip, r2, ror #18
     554:	2e332e30 	mrccs	14, 1, r2, cr3, cr0, {1}
     558:	6e695c31 	mcrvs	12, 3, r5, cr9, cr1, {1}
     55c:	64756c63 	ldrbtvs	r6, [r5], #-3171	; 0xfffff39d
     560:	6d000065 	stcvs	0, cr0, [r0, #-404]	; 0xfffffe6c
     564:	2e6e6961 	vnmulcs.f16	s13, s28, s3	; <UNPREDICTABLE>
     568:	00010063 	andeq	r0, r1, r3, rrx
     56c:	65645f00 	strbvs	r5, [r4, #-3840]!	; 0xfffff100
     570:	6c756166 	ldfvse	f6, [r5], #-408	; 0xfffffe68
     574:	79745f74 	ldmdbvc	r4!, {r2, r4, r5, r6, r8, r9, sl, fp, ip, lr}^
     578:	2e736570 	mrccs	5, 3, r6, cr3, cr0, {3}
     57c:	00020068 	andeq	r0, r2, r8, rrx
     580:	74735f00 	ldrbtvc	r5, [r3], #-3840	; 0xfffff100
     584:	746e6964 	strbtvc	r6, [lr], #-2404	; 0xfffff69c
     588:	0300682e 	movweq	r6, #2094	; 0x82e
     58c:	74730000 	ldrbtvc	r0, [r3], #-0
     590:	5f32336d 	svcpl	0x0032336d
     594:	33303166 	teqcc	r0, #-2147483623	; 0x80000019
     598:	682e3678 	stmdavs	lr!, {r3, r4, r5, r6, r9, sl, ip, sp}
     59c:	00000400 	andeq	r0, r0, r0, lsl #8
     5a0:	336d7473 	cmncc	sp, #1929379840	; 0x73000000
     5a4:	31665f32 	cmncc	r6, r2, lsr pc
     5a8:	36633330 			; <UNDEFINED> instruction: 0x36633330
     5ac:	6972645f 	ldmdbvs	r2!, {r0, r1, r2, r3, r4, r6, sl, sp, lr}^
     5b0:	73726576 	cmnvc	r2, #494927872	; 0x1d800000
     5b4:	5458455f 	ldrbpl	r4, [r8], #-1375	; 0xfffffaa1
     5b8:	00682e49 	rsbeq	r2, r8, r9, asr #28
     5bc:	73000004 	movwvc	r0, #4
     5c0:	32336d74 	eorscc	r6, r3, #116, 26	; 0x1d00
     5c4:	3031665f 	eorscc	r6, r1, pc, asr r6
     5c8:	5f366333 	svcpl	0x00366333
     5cc:	76697264 	strbtvc	r7, [r9], -r4, ror #4
     5d0:	5f737265 	svcpl	0x00737265
     5d4:	4f495047 	svcmi	0x00495047
     5d8:	0400682e 	streq	r6, [r0], #-2094	; 0xfffff7d2
     5dc:	74730000 	ldrbtvc	r0, [r3], #-0
     5e0:	62696c64 	rsbvs	r6, r9, #100, 24	; 0x6400
     5e4:	0500682e 	streq	r6, [r0, #-2094]	; 0xfffff7d2
     5e8:	65690000 	strbvs	r0, [r9, #-0]!
     5ec:	70666565 	rsbvc	r6, r6, r5, ror #10
     5f0:	0200682e 	andeq	r6, r0, #3014656	; 0x2e0000
     5f4:	615f0000 	cmpvs	pc, r0
     5f8:	2e69736e 	cdpcs	3, 6, cr7, cr9, cr14, {3}
     5fc:	00050068 	andeq	r0, r5, r8, rrx
     600:	77656e00 	strbvc	r6, [r5, -r0, lsl #28]!
     604:	2e62696c 	vnmulcs.f16	s13, s4, s25	; <UNPREDICTABLE>
     608:	00060068 	andeq	r0, r6, r8, rrx
     60c:	656e5f00 	strbvs	r5, [lr, #-3840]!	; 0xfffff100
     610:	62696c77 	rsbvs	r6, r9, #30464	; 0x7700
     614:	7265765f 	rsbvc	r7, r5, #99614720	; 0x5f00000
     618:	6e6f6973 			; <UNDEFINED> instruction: 0x6e6f6973
     61c:	0500682e 	streq	r6, [r0, #-2094]	; 0xfffff7d2
     620:	6f630000 	svcvs	0x00630000
     624:	6769666e 	strbvs	r6, [r9, -lr, ror #12]!
     628:	0300682e 	movweq	r6, #2094	; 0x82e
     62c:	65660000 	strbvs	r0, [r6, #-0]!
     630:	72757461 	rsbsvc	r7, r5, #1627389952	; 0x61000000
     634:	682e7365 	stmdavs	lr!, {r0, r2, r5, r6, r8, r9, ip, sp, lr}
     638:	00000300 	andeq	r0, r0, r0, lsl #6
     63c:	64647473 	strbtvs	r7, [r4], #-1139	; 0xfffffb8d
     640:	682e6665 	stmdavs	lr!, {r0, r2, r5, r6, r9, sl, sp, lr}
     644:	00000700 	andeq	r0, r0, r0, lsl #14
     648:	6e656572 	mcrvs	5, 3, r6, cr5, cr2, {3}
     64c:	00682e74 	rsbeq	r2, r8, r4, ror lr
     650:	5f000003 	svcpl	0x00000003
     654:	65707974 	ldrbvs	r7, [r0, #-2420]!	; 0xfffff68c
     658:	00682e73 	rsbeq	r2, r8, r3, ror lr
     65c:	5f000003 	svcpl	0x00000003
     660:	65707974 	ldrbvs	r7, [r0, #-2420]!	; 0xfffff68c
     664:	00682e73 	rsbeq	r2, r8, r3, ror lr
     668:	6c000002 	stcvs	0, cr0, [r0], {2}
     66c:	2e6b636f 	cdpcs	3, 6, cr6, cr11, cr15, {3}
     670:	00030068 	andeq	r0, r3, r8, rrx
     674:	73736100 	cmnvc	r3, #0, 2
     678:	2e747265 	cdpcs	2, 7, cr7, cr4, cr5, {3}
     67c:	00050068 	andeq	r0, r5, r8, rrx
     680:	65646300 	strbvs	r6, [r4, #-768]!	; 0xfffffd00
     684:	682e7366 	stmdavs	lr!, {r1, r2, r5, r6, r8, r9, ip, sp, lr}
     688:	00000300 	andeq	r0, r0, r0, lsl #6
     68c:	6c647473 	cfstrdvs	mvd7, [r4], #-460	; 0xfffffe34
     690:	682e6269 	stmdavs	lr!, {r0, r3, r5, r6, r9, sp, lr}
     694:	00000200 	andeq	r0, r0, r0, lsl #4
     698:	6f6c6c61 	svcvs	0x006c6c61
     69c:	682e6163 	stmdavs	lr!, {r0, r1, r5, r6, r8, sp, lr}
     6a0:	00000500 	andeq	r0, r0, r0, lsl #10
     6a4:	69647473 	stmdbvs	r4!, {r0, r1, r4, r5, r6, sl, ip, sp, lr}^
     6a8:	682e746e 	stmdavs	lr!, {r1, r2, r3, r5, r6, sl, ip, sp, lr}
     6ac:	00000700 	andeq	r0, r0, r0, lsl #14
     6b0:	69647473 	stmdbvs	r4!, {r0, r1, r4, r5, r6, sl, ip, sp, lr}^
     6b4:	682e746e 	stmdavs	lr!, {r1, r2, r3, r5, r6, sl, ip, sp, lr}
     6b8:	00000500 	andeq	r0, r0, r0, lsl #10
     6bc:	746e695f 	strbtvc	r6, [lr], #-2399	; 0xfffff6a1
     6c0:	2e707573 	mrccs	5, 3, r7, cr0, cr3, {3}
     6c4:	00030068 	andeq	r0, r3, r8, rrx
     6c8:	01050000 	mrseq	r0, (UNDEF: 5)
     6cc:	70020500 	andvc	r0, r2, r0, lsl #10
     6d0:	03080001 	movweq	r0, #32769	; 0x8001
     6d4:	0b050120 	bleq	140b5c <_Min_Stack_Size+0x14075c>
     6d8:	3d01052f 	cfstr32cc	mvfx0, [r1, #-188]	; 0xffffff44
     6dc:	01000702 	tsteq	r0, r2, lsl #14
     6e0:	00010501 	andeq	r0, r1, r1, lsl #10
     6e4:	01880205 	orreq	r0, r8, r5, lsl #4
     6e8:	25030800 	strcs	r0, [r3, #-2048]	; 0xfffff800
     6ec:	3e020501 	cfsh32cc	mvfx0, mvfx2, #1
     6f0:	6a140567 	bvs	501c94 <_Min_Stack_Size+0x501894>
     6f4:	05671805 	strbeq	r1, [r7, #-2053]!	; 0xfffff7fb
     6f8:	13052f1a 	movwne	r2, #24346	; 0x5f1a
     6fc:	2f05052f 	svccs	0x0005052f
     700:	055a0e05 	ldrbeq	r0, [sl, #-3589]	; 0xfffff1fb
     704:	05053f06 	streq	r3, [r5, #-3846]	; 0xfffff0fa
     708:	310c052e 	tstcc	ip, lr, lsr #10
     70c:	02390505 	eorseq	r0, r9, #20971520	; 0x1400000
     710:	0101000a 	tsteq	r1, sl
     714:	00000080 	andeq	r0, r0, r0, lsl #1
     718:	00390003 	eorseq	r0, r9, r3
     71c:	01020000 	mrseq	r0, (UNDEF: 2)
     720:	000d0efb 	strdeq	r0, [sp], -fp
     724:	01010101 	tsteq	r1, r1, lsl #2
     728:	01000000 	mrseq	r0, (UNDEF: 0)
     72c:	2e010000 	cdpcs	0, 0, cr0, cr1, cr0, {0}
     730:	74532f2e 	ldrbvc	r2, [r3], #-3886	; 0xfffff0d2
     734:	75747261 	ldrbvc	r7, [r4, #-609]!	; 0xfffffd9f
     738:	73000070 	movwvc	r0, #112	; 0x70
     73c:	74726174 	ldrbtvc	r6, [r2], #-372	; 0xfffffe8c
     740:	735f7075 	cmpvc	pc, #117	; 0x75
     744:	32336d74 	eorscc	r6, r3, #116, 26	; 0x1d00
     748:	33303166 	teqcc	r0, #-2147483623	; 0x80000019
     74c:	78743663 	ldmdavc	r4!, {r0, r1, r5, r6, r9, sl, ip, sp}^
     750:	0100732e 	tsteq	r0, lr, lsr #6
     754:	00000000 	andeq	r0, r0, r0
     758:	01f00205 	mvnseq	r0, r5, lsl #4
     75c:	3a030800 	bcc	c2764 <_Min_Stack_Size+0xc2364>
     760:	31222101 			; <UNDEFINED> instruction: 0x31222101
     764:	21212121 			; <UNDEFINED> instruction: 0x21212121
     768:	23212123 			; <UNDEFINED> instruction: 0x23212123
     76c:	21232121 			; <UNDEFINED> instruction: 0x21232121
     770:	21232121 			; <UNDEFINED> instruction: 0x21232121
     774:	30232123 	eorcc	r2, r3, r3, lsr #2
     778:	20560331 	subscs	r0, r6, r1, lsr r3
     77c:	032f2f34 			; <UNDEFINED> instruction: 0x032f2f34
     780:	022f2e0f 	eoreq	r2, pc, #15, 28	; 0xf0
     784:	01010002 	tsteq	r1, r2
     788:	40020500 	andmi	r0, r2, r0, lsl #10
     78c:	03080002 	movweq	r0, #32770	; 0x8002
     790:	020100f3 	andeq	r0, r1, #243	; 0xf3
     794:	01010001 	tsteq	r1, r1
     798:	00000b14 	andeq	r0, r0, r4, lsl fp
     79c:	06e60003 	strbteq	r0, [r6], r3
     7a0:	01020000 	mrseq	r0, (UNDEF: 2)
     7a4:	000d0efb 	strdeq	r0, [sp], -fp
     7a8:	01010101 	tsteq	r1, r1, lsl #2
     7ac:	01000000 	mrseq	r0, (UNDEF: 0)
     7b0:	2e010000 	cdpcs	0, 0, cr0, cr1, cr0, {0}
     7b4:	74732f2e 	ldrbtvc	r2, [r3], #-3886	; 0xfffff0d2
     7b8:	5f32336d 	svcpl	0x0032336d
     7bc:	33303166 	teqcc	r0, #-2147483623	; 0x80000019
     7c0:	645f3663 	ldrbvs	r3, [pc], #-1635	; 7c8 <_Min_Stack_Size+0x3c8>
     7c4:	65766972 	ldrbvs	r6, [r6, #-2418]!	; 0xfffff68e
     7c8:	67007372 	smlsdxvs	r0, r2, r3, r7
     7cc:	6e655c3a 	mcrvs	12, 3, r5, cr5, cr10, {1}
     7d0:	2d74732e 	ldclcs	3, cr7, [r4, #-184]!	; 0xffffff48
     7d4:	336d7473 	cmncc	sp, #1929379840	; 0x73000000
     7d8:	62756332 	rsbsvs	r6, r5, #-939524096	; 0xc8000000
     7dc:	65646965 	strbvs	r6, [r4, #-2405]!	; 0xfffff69b
     7e0:	342e315f 	strtcc	r3, [lr], #-351	; 0xfffffea1
     7e4:	375f302e 	ldrbcc	r3, [pc, -lr, lsr #32]
     7e8:	5f313135 	svcpl	0x00313135
     7ec:	30323032 	eorscc	r3, r2, r2, lsr r0
     7f0:	30323730 	eorscc	r3, r2, r0, lsr r7
     7f4:	3239305f 	eorscc	r3, r9, #95	; 0x5f
     7f8:	38785f38 	ldmdacc	r8!, {r3, r4, r5, r8, r9, sl, fp, ip, lr}^
     7fc:	34365f36 	ldrtcc	r5, [r6], #-3894	; 0xfffff0ca
     800:	6578655f 	ldrbvs	r6, [r8, #-1375]!	; 0xfffffaa1
     804:	6d74735c 	ldclvs	3, cr7, [r4, #-368]!	; 0xfffffe90
     808:	75633233 	strbvc	r3, [r3, #-563]!	; 0xfffffdcd
     80c:	64696562 	strbtvs	r6, [r9], #-1378	; 0xfffffa9e
     810:	2e315f65 	cdpcs	15, 3, cr5, cr1, cr5, {3}
     814:	5c302e34 	ldcpl	14, cr2, [r0], #-208	; 0xffffff30
     818:	336d7473 	cmncc	sp, #1929379840	; 0x73000000
     81c:	62756332 	rsbsvs	r6, r5, #-939524096	; 0xc8000000
     820:	65646965 	strbvs	r6, [r4, #-2405]!	; 0xfffff69b
     824:	756c705c 	strbvc	r7, [ip, #-92]!	; 0xffffffa4
     828:	736e6967 	cmnvc	lr, #1687552	; 0x19c000
     82c:	6d6f635c 	stclvs	3, cr6, [pc, #-368]!	; 6c4 <_Min_Stack_Size+0x2c4>
     830:	2e74732e 	cdpcs	3, 7, cr7, cr4, cr14, {1}
     834:	336d7473 	cmncc	sp, #1929379840	; 0x73000000
     838:	62756332 	rsbsvs	r6, r5, #-939524096	; 0xc8000000
     83c:	64692e65 	strbtvs	r2, [r9], #-3685	; 0xfffff19b
     840:	636d2e65 	cmnvs	sp, #1616	; 0x650
     844:	78652e75 	stmdavc	r5!, {r0, r2, r4, r5, r6, r9, sl, fp, sp}^
     848:	6e726574 	mrcvs	5, 3, r6, cr2, cr4, {3}
     84c:	6f746c61 	svcvs	0x00746c61
     850:	2e736c6f 	cdpcs	12, 7, cr6, cr3, cr15, {3}
     854:	2d756e67 	ldclcs	14, cr6, [r5, #-412]!	; 0xfffffe64
     858:	6c6f6f74 	stclvs	15, cr6, [pc], #-464	; 690 <_Min_Stack_Size+0x290>
     85c:	6f662d73 	svcvs	0x00662d73
     860:	74732d72 	ldrbtvc	r2, [r3], #-3442	; 0xfffff28e
     864:	2e32336d 	cdpcs	3, 3, cr3, cr2, cr13, {3}
     868:	332e3031 			; <UNDEFINED> instruction: 0x332e3031
     86c:	3230322d 	eorscc	r3, r0, #-805306366	; 0xd0000002
     870:	30312e31 	eorscc	r2, r1, r1, lsr lr
     874:	6e69772e 	cdpvs	7, 6, cr7, cr9, cr14, {1}
     878:	315f3233 	cmpcc	pc, r3, lsr r2	; <UNPREDICTABLE>
     87c:	322e302e 	eorcc	r3, lr, #46	; 0x2e
     880:	322e3030 	eorcc	r3, lr, #48	; 0x30
     884:	30333230 	eorscc	r3, r3, r0, lsr r2
     888:	31363131 	teqcc	r6, r1, lsr r1
     88c:	5c333030 	ldcpl	0, cr3, [r3], #-192	; 0xffffff40
     890:	6c6f6f74 	stclvs	15, cr6, [pc], #-464	; 6c8 <_Min_Stack_Size+0x2c8>
     894:	69625c73 	stmdbvs	r2!, {r0, r1, r4, r5, r6, sl, fp, ip, lr}^
     898:	2e2e5c6e 	cdpcs	12, 2, cr5, cr14, cr14, {3}
     89c:	62696c2f 	rsbvs	r6, r9, #12032	; 0x2f00
     8a0:	6363672f 	cmnvs	r3, #12320768	; 0xbc0000
     8a4:	6d72612f 	ldfvse	f6, [r2, #-188]!	; 0xffffff44
     8a8:	6e6f6e2d 	cdpvs	14, 6, cr6, cr15, cr13, {1}
     8ac:	61652d65 	cmnvs	r5, r5, ror #26
     8b0:	312f6962 			; <UNDEFINED> instruction: 0x312f6962
     8b4:	2e332e30 	mrccs	14, 1, r2, cr3, cr0, {1}
     8b8:	2e2e2f31 	mcrcs	15, 1, r2, cr14, cr1, {1}
     8bc:	2f2e2e2f 	svccs	0x002e2e2f
     8c0:	2e2f2e2e 	cdpcs	14, 2, cr2, cr15, cr14, {1}
     8c4:	72612f2e 	rsbvc	r2, r1, #46, 30	; 0xb8
     8c8:	6f6e2d6d 	svcvs	0x006e2d6d
     8cc:	652d656e 	strvs	r6, [sp, #-1390]!	; 0xfffffa92
     8d0:	2f696261 	svccs	0x00696261
     8d4:	6c636e69 	stclvs	14, cr6, [r3], #-420	; 0xfffffe5c
     8d8:	2f656475 	svccs	0x00656475
     8dc:	6863616d 	stmdavs	r3!, {r0, r2, r3, r5, r6, r8, sp, lr}^
     8e0:	00656e69 	rsbeq	r6, r5, r9, ror #28
     8e4:	655c3a67 	ldrbvs	r3, [ip, #-2663]	; 0xfffff599
     8e8:	74732e6e 	ldrbtvc	r2, [r3], #-3694	; 0xfffff192
     8ec:	6d74732d 	ldclvs	3, cr7, [r4, #-180]!	; 0xffffff4c
     8f0:	75633233 	strbvc	r3, [r3, #-563]!	; 0xfffffdcd
     8f4:	64696562 	strbtvs	r6, [r9], #-1378	; 0xfffffa9e
     8f8:	2e315f65 	cdpcs	15, 3, cr5, cr1, cr5, {3}
     8fc:	5f302e34 	svcpl	0x00302e34
     900:	31313537 	teqcc	r1, r7, lsr r5
     904:	3230325f 	eorscc	r3, r0, #-268435451	; 0xf0000005
     908:	32373030 	eorscc	r3, r7, #48	; 0x30
     90c:	39305f30 	ldmdbcc	r0!, {r4, r5, r8, r9, sl, fp, ip, lr}
     910:	785f3832 	ldmdavc	pc, {r1, r4, r5, fp, ip, sp}^	; <UNPREDICTABLE>
     914:	365f3638 			; <UNDEFINED> instruction: 0x365f3638
     918:	78655f34 	stmdavc	r5!, {r2, r4, r5, r8, r9, sl, fp, ip, lr}^
     91c:	74735c65 	ldrbtvc	r5, [r3], #-3173	; 0xfffff39b
     920:	6332336d 	teqvs	r2, #-1275068415	; 0xb4000001
     924:	69656275 	stmdbvs	r5!, {r0, r2, r4, r5, r6, r9, sp, lr}^
     928:	315f6564 	cmpcc	pc, r4, ror #10
     92c:	302e342e 	eorcc	r3, lr, lr, lsr #8
     930:	6d74735c 	ldclvs	3, cr7, [r4, #-368]!	; 0xfffffe90
     934:	75633233 	strbvc	r3, [r3, #-563]!	; 0xfffffdcd
     938:	64696562 	strbtvs	r6, [r9], #-1378	; 0xfffffa9e
     93c:	6c705c65 	ldclvs	12, cr5, [r0], #-404	; 0xfffffe6c
     940:	6e696775 	mcrvs	7, 3, r6, cr9, cr5, {3}
     944:	6f635c73 	svcvs	0x00635c73
     948:	74732e6d 	ldrbtvc	r2, [r3], #-3693	; 0xfffff193
     94c:	6d74732e 	ldclvs	3, cr7, [r4, #-184]!	; 0xffffff48
     950:	75633233 	strbvc	r3, [r3, #-563]!	; 0xfffffdcd
     954:	692e6562 	stmdbvs	lr!, {r1, r5, r6, r8, sl, sp, lr}
     958:	6d2e6564 	cfstr32vs	mvfx6, [lr, #-400]!	; 0xfffffe70
     95c:	652e7563 	strvs	r7, [lr, #-1379]!	; 0xfffffa9d
     960:	72657478 	rsbvc	r7, r5, #120, 8	; 0x78000000
     964:	746c616e 	strbtvc	r6, [ip], #-366	; 0xfffffe92
     968:	736c6f6f 	cmnvc	ip, #444	; 0x1bc
     96c:	756e672e 	strbvc	r6, [lr, #-1838]!	; 0xfffff8d2
     970:	6f6f742d 	svcvs	0x006f742d
     974:	662d736c 	strtvs	r7, [sp], -ip, ror #6
     978:	732d726f 			; <UNDEFINED> instruction: 0x732d726f
     97c:	32336d74 	eorscc	r6, r3, #116, 26	; 0x1d00
     980:	2e30312e 	rsfcssp	f3, f0, #0.5
     984:	30322d33 	eorscc	r2, r2, r3, lsr sp
     988:	312e3132 			; <UNDEFINED> instruction: 0x312e3132
     98c:	69772e30 	ldmdbvs	r7!, {r4, r5, r9, sl, fp, sp}^
     990:	5f32336e 	svcpl	0x0032336e
     994:	2e302e31 	mrccs	14, 1, r2, cr0, cr1, {1}
     998:	2e303032 	mrccs	0, 1, r3, cr0, cr2, {1}
     99c:	33323032 	teqcc	r2, #50	; 0x32
     9a0:	36313130 			; <UNDEFINED> instruction: 0x36313130
     9a4:	33303031 	teqcc	r0, #49	; 0x31
     9a8:	6f6f745c 	svcvs	0x006f745c
     9ac:	625c736c 	subsvs	r7, ip, #108, 6	; 0xb0000001
     9b0:	2e5c6e69 	cdpcs	14, 5, cr6, cr12, cr9, {3}
     9b4:	696c2f2e 	stmdbvs	ip!, {r1, r2, r3, r5, r8, r9, sl, fp, sp}^
     9b8:	63672f62 	cmnvs	r7, #392	; 0x188
     9bc:	72612f63 	rsbvc	r2, r1, #396	; 0x18c
     9c0:	6f6e2d6d 	svcvs	0x006e2d6d
     9c4:	652d656e 	strvs	r6, [sp, #-1390]!	; 0xfffffa92
     9c8:	2f696261 	svccs	0x00696261
     9cc:	332e3031 			; <UNDEFINED> instruction: 0x332e3031
     9d0:	2e2f312e 	sufcsep	f3, f7, #0.5
     9d4:	2e2e2f2e 	cdpcs	15, 2, cr2, cr14, cr14, {1}
     9d8:	2f2e2e2f 	svccs	0x002e2e2f
     9dc:	612f2e2e 			; <UNDEFINED> instruction: 0x612f2e2e
     9e0:	6e2d6d72 	mcrvs	13, 1, r6, cr13, cr2, {3}
     9e4:	2d656e6f 	stclcs	14, cr6, [r5, #-444]!	; 0xfffffe44
     9e8:	69626165 	stmdbvs	r2!, {r0, r2, r5, r6, r8, sp, lr}^
     9ec:	636e692f 	cmnvs	lr, #770048	; 0xbc000
     9f0:	6564756c 	strbvs	r7, [r4, #-1388]!	; 0xfffffa94
     9f4:	7379732f 	cmnvc	r9, #-1140850688	; 0xbc000000
     9f8:	2f3a4400 	svccs	0x003a4400
     9fc:	76697244 	strbtvc	r7, [r9], -r4, asr #4
     a00:	2f737265 	svccs	0x00737265
     a04:	336d7473 	cmncc	sp, #1929379840	; 0x73000000
     a08:	31665f32 	cmncc	r6, r2, lsr pc
     a0c:	36633330 			; <UNDEFINED> instruction: 0x36633330
     a10:	6972645f 	ldmdbvs	r2!, {r0, r1, r2, r3, r4, r6, sl, sp, lr}^
     a14:	73726576 	cmnvc	r2, #494927872	; 0x1d800000
     a18:	636e492f 	cmnvs	lr, #770048	; 0xbc000
     a1c:	5c3a6700 	ldcpl	7, cr6, [sl], #-0
     a20:	732e6e65 			; <UNDEFINED> instruction: 0x732e6e65
     a24:	74732d74 	ldrbtvc	r2, [r3], #-3444	; 0xfffff28c
     a28:	6332336d 	teqvs	r2, #-1275068415	; 0xb4000001
     a2c:	69656275 	stmdbvs	r5!, {r0, r2, r4, r5, r6, r9, sp, lr}^
     a30:	315f6564 	cmpcc	pc, r4, ror #10
     a34:	302e342e 	eorcc	r3, lr, lr, lsr #8
     a38:	3135375f 	teqcc	r5, pc, asr r7
     a3c:	30325f31 	eorscc	r5, r2, r1, lsr pc
     a40:	37303032 			; <UNDEFINED> instruction: 0x37303032
     a44:	305f3032 	subscc	r3, pc, r2, lsr r0	; <UNPREDICTABLE>
     a48:	5f383239 	svcpl	0x00383239
     a4c:	5f363878 	svcpl	0x00363878
     a50:	655f3436 	ldrbvs	r3, [pc, #-1078]	; 622 <_Min_Stack_Size+0x222>
     a54:	735c6578 	cmpvc	ip, #120, 10	; 0x1e000000
     a58:	32336d74 	eorscc	r6, r3, #116, 26	; 0x1d00
     a5c:	65627563 	strbvs	r7, [r2, #-1379]!	; 0xfffffa9d
     a60:	5f656469 	svcpl	0x00656469
     a64:	2e342e31 	mrccs	14, 1, r2, cr4, cr1, {1}
     a68:	74735c30 	ldrbtvc	r5, [r3], #-3120	; 0xfffff3d0
     a6c:	6332336d 	teqvs	r2, #-1275068415	; 0xb4000001
     a70:	69656275 	stmdbvs	r5!, {r0, r2, r4, r5, r6, r9, sp, lr}^
     a74:	705c6564 	subsvc	r6, ip, r4, ror #10
     a78:	6967756c 	stmdbvs	r7!, {r2, r3, r5, r6, r8, sl, ip, sp, lr}^
     a7c:	635c736e 	cmpvs	ip, #-1207959551	; 0xb8000001
     a80:	732e6d6f 			; <UNDEFINED> instruction: 0x732e6d6f
     a84:	74732e74 	ldrbtvc	r2, [r3], #-3700	; 0xfffff18c
     a88:	6332336d 	teqvs	r2, #-1275068415	; 0xb4000001
     a8c:	2e656275 	mcrcs	2, 3, r6, cr5, cr5, {3}
     a90:	2e656469 	cdpcs	4, 6, cr6, cr5, cr9, {3}
     a94:	2e75636d 	cdpcs	3, 7, cr6, cr5, cr13, {3}
     a98:	65747865 	ldrbvs	r7, [r4, #-2149]!	; 0xfffff79b
     a9c:	6c616e72 	stclvs	14, cr6, [r1], #-456	; 0xfffffe38
     aa0:	6c6f6f74 	stclvs	15, cr6, [pc], #-464	; 8d8 <_Min_Stack_Size+0x4d8>
     aa4:	6e672e73 	mcrvs	14, 3, r2, cr7, cr3, {3}
     aa8:	6f742d75 	svcvs	0x00742d75
     aac:	2d736c6f 	ldclcs	12, cr6, [r3, #-444]!	; 0xfffffe44
     ab0:	2d726f66 	ldclcs	15, cr6, [r2, #-408]!	; 0xfffffe68
     ab4:	336d7473 	cmncc	sp, #1929379840	; 0x73000000
     ab8:	30312e32 	eorscc	r2, r1, r2, lsr lr
     abc:	322d332e 	eorcc	r3, sp, #-1207959552	; 0xb8000000
     ac0:	2e313230 	mrccs	2, 1, r3, cr1, cr0, {1}
     ac4:	772e3031 			; <UNDEFINED> instruction: 0x772e3031
     ac8:	32336e69 	eorscc	r6, r3, #1680	; 0x690
     acc:	302e315f 	eorcc	r3, lr, pc, asr r1
     ad0:	3030322e 	eorscc	r3, r0, lr, lsr #4
     ad4:	3230322e 	eorscc	r3, r0, #-536870910	; 0xe0000002
     ad8:	31313033 	teqcc	r1, r3, lsr r0
     adc:	30303136 	eorscc	r3, r0, r6, lsr r1
     ae0:	6f745c33 	svcvs	0x00745c33
     ae4:	5c736c6f 	ldclpl	12, cr6, [r3], #-444	; 0xfffffe44
     ae8:	5c6e6962 			; <UNDEFINED> instruction: 0x5c6e6962
     aec:	6c2f2e2e 	stcvs	14, cr2, [pc], #-184	; a3c <_Min_Stack_Size+0x63c>
     af0:	672f6269 	strvs	r6, [pc, -r9, ror #4]!
     af4:	612f6363 			; <UNDEFINED> instruction: 0x612f6363
     af8:	6e2d6d72 	mcrvs	13, 1, r6, cr13, cr2, {3}
     afc:	2d656e6f 	stclcs	14, cr6, [r5, #-444]!	; 0xfffffe44
     b00:	69626165 	stmdbvs	r2!, {r0, r2, r5, r6, r8, sp, lr}^
     b04:	2e30312f 	rsfcssp	f3, f0, #10.0
     b08:	2f312e33 	svccs	0x00312e33
     b0c:	2e2f2e2e 	cdpcs	14, 2, cr2, cr15, cr14, {1}
     b10:	2e2e2f2e 	cdpcs	15, 2, cr2, cr14, cr14, {1}
     b14:	2f2e2e2f 	svccs	0x002e2e2f
     b18:	2d6d7261 	sfmcs	f7, 2, [sp, #-388]!	; 0xfffffe7c
     b1c:	656e6f6e 	strbvs	r6, [lr, #-3950]!	; 0xfffff092
     b20:	6261652d 	rsbvs	r6, r1, #188743680	; 0xb400000
     b24:	6e692f69 	cdpvs	15, 6, cr2, cr9, cr9, {3}
     b28:	64756c63 	ldrbtvs	r6, [r5], #-3171	; 0xfffff39d
     b2c:	3a670065 	bcc	19c0cc8 <_Min_Stack_Size+0x19c08c8>
     b30:	2e6e655c 	mcrcs	5, 3, r6, cr14, cr12, {2}
     b34:	732d7473 			; <UNDEFINED> instruction: 0x732d7473
     b38:	32336d74 	eorscc	r6, r3, #116, 26	; 0x1d00
     b3c:	65627563 	strbvs	r7, [r2, #-1379]!	; 0xfffffa9d
     b40:	5f656469 	svcpl	0x00656469
     b44:	2e342e31 	mrccs	14, 1, r2, cr4, cr1, {1}
     b48:	35375f30 	ldrcc	r5, [r7, #-3888]!	; 0xfffff0d0
     b4c:	325f3131 	subscc	r3, pc, #1073741836	; 0x4000000c
     b50:	30303230 	eorscc	r3, r0, r0, lsr r2
     b54:	5f303237 	svcpl	0x00303237
     b58:	38323930 	ldmdacc	r2!, {r4, r5, r8, fp, ip, sp}
     b5c:	3638785f 			; <UNDEFINED> instruction: 0x3638785f
     b60:	5f34365f 	svcpl	0x0034365f
     b64:	5c657865 	stclpl	8, cr7, [r5], #-404	; 0xfffffe6c
     b68:	336d7473 	cmncc	sp, #1929379840	; 0x73000000
     b6c:	62756332 	rsbsvs	r6, r5, #-939524096	; 0xc8000000
     b70:	65646965 	strbvs	r6, [r4, #-2405]!	; 0xfffff69b
     b74:	342e315f 	strtcc	r3, [lr], #-351	; 0xfffffea1
     b78:	735c302e 	cmpvc	ip, #46	; 0x2e
     b7c:	32336d74 	eorscc	r6, r3, #116, 26	; 0x1d00
     b80:	65627563 	strbvs	r7, [r2, #-1379]!	; 0xfffffa9d
     b84:	5c656469 	cfstrdpl	mvd6, [r5], #-420	; 0xfffffe5c
     b88:	67756c70 			; <UNDEFINED> instruction: 0x67756c70
     b8c:	5c736e69 	ldclpl	14, cr6, [r3], #-420	; 0xfffffe5c
     b90:	2e6d6f63 	cdpcs	15, 6, cr6, cr13, cr3, {3}
     b94:	732e7473 			; <UNDEFINED> instruction: 0x732e7473
     b98:	32336d74 	eorscc	r6, r3, #116, 26	; 0x1d00
     b9c:	65627563 	strbvs	r7, [r2, #-1379]!	; 0xfffffa9d
     ba0:	6564692e 	strbvs	r6, [r4, #-2350]!	; 0xfffff6d2
     ba4:	75636d2e 	strbvc	r6, [r3, #-3374]!	; 0xfffff2d2
     ba8:	7478652e 	ldrbtvc	r6, [r8], #-1326	; 0xfffffad2
     bac:	616e7265 	cmnvs	lr, r5, ror #4
     bb0:	6f6f746c 	svcvs	0x006f746c
     bb4:	672e736c 	strvs	r7, [lr, -ip, ror #6]!
     bb8:	742d756e 	strtvc	r7, [sp], #-1390	; 0xfffffa92
     bbc:	736c6f6f 	cmnvc	ip, #444	; 0x1bc
     bc0:	726f662d 	rsbvc	r6, pc, #47185920	; 0x2d00000
     bc4:	6d74732d 	ldclvs	3, cr7, [r4, #-180]!	; 0xffffff4c
     bc8:	312e3233 			; <UNDEFINED> instruction: 0x312e3233
     bcc:	2d332e30 	ldccs	14, cr2, [r3, #-192]!	; 0xffffff40
     bd0:	31323032 	teqcc	r2, r2, lsr r0
     bd4:	2e30312e 	rsfcssp	f3, f0, #0.5
     bd8:	336e6977 	cmncc	lr, #1949696	; 0x1dc000
     bdc:	2e315f32 	mrccs	15, 1, r5, cr1, cr2, {1}
     be0:	30322e30 	eorscc	r2, r2, r0, lsr lr
     be4:	30322e30 	eorscc	r2, r2, r0, lsr lr
     be8:	31303332 	teqcc	r0, r2, lsr r3
     bec:	30313631 	eorscc	r3, r1, r1, lsr r6
     bf0:	745c3330 	ldrbvc	r3, [ip], #-816	; 0xfffffcd0
     bf4:	736c6f6f 	cmnvc	ip, #444	; 0x1bc
     bf8:	6d72615c 	ldfvse	f6, [r2, #-368]!	; 0xfffffe90
     bfc:	6e6f6e2d 	cdpvs	14, 6, cr6, cr15, cr13, {1}
     c00:	61652d65 	cmnvs	r5, r5, ror #26
     c04:	695c6962 	ldmdbvs	ip, {r1, r5, r6, r8, fp, sp, lr}^
     c08:	756c636e 	strbvc	r6, [ip, #-878]!	; 0xfffffc92
     c0c:	6e5c6564 	cdpvs	5, 5, cr6, cr12, cr4, {3}
     c10:	696c7765 	stmdbvs	ip!, {r0, r2, r5, r6, r8, r9, sl, ip, sp, lr}^
     c14:	616e2d62 	cmnvs	lr, r2, ror #26
     c18:	67006f6e 	strvs	r6, [r0, -lr, ror #30]
     c1c:	6e655c3a 	mcrvs	12, 3, r5, cr5, cr10, {1}
     c20:	2d74732e 	ldclcs	3, cr7, [r4, #-184]!	; 0xffffff48
     c24:	336d7473 	cmncc	sp, #1929379840	; 0x73000000
     c28:	62756332 	rsbsvs	r6, r5, #-939524096	; 0xc8000000
     c2c:	65646965 	strbvs	r6, [r4, #-2405]!	; 0xfffff69b
     c30:	342e315f 	strtcc	r3, [lr], #-351	; 0xfffffea1
     c34:	375f302e 	ldrbcc	r3, [pc, -lr, lsr #32]
     c38:	5f313135 	svcpl	0x00313135
     c3c:	30323032 	eorscc	r3, r2, r2, lsr r0
     c40:	30323730 	eorscc	r3, r2, r0, lsr r7
     c44:	3239305f 	eorscc	r3, r9, #95	; 0x5f
     c48:	38785f38 	ldmdacc	r8!, {r3, r4, r5, r8, r9, sl, fp, ip, lr}^
     c4c:	34365f36 	ldrtcc	r5, [r6], #-3894	; 0xfffff0ca
     c50:	6578655f 	ldrbvs	r6, [r8, #-1375]!	; 0xfffffaa1
     c54:	6d74735c 	ldclvs	3, cr7, [r4, #-368]!	; 0xfffffe90
     c58:	75633233 	strbvc	r3, [r3, #-563]!	; 0xfffffdcd
     c5c:	64696562 	strbtvs	r6, [r9], #-1378	; 0xfffffa9e
     c60:	2e315f65 	cdpcs	15, 3, cr5, cr1, cr5, {3}
     c64:	5c302e34 	ldcpl	14, cr2, [r0], #-208	; 0xffffff30
     c68:	336d7473 	cmncc	sp, #1929379840	; 0x73000000
     c6c:	62756332 	rsbsvs	r6, r5, #-939524096	; 0xc8000000
     c70:	65646965 	strbvs	r6, [r4, #-2405]!	; 0xfffff69b
     c74:	756c705c 	strbvc	r7, [ip, #-92]!	; 0xffffffa4
     c78:	736e6967 	cmnvc	lr, #1687552	; 0x19c000
     c7c:	6d6f635c 	stclvs	3, cr6, [pc, #-368]!	; b14 <_Min_Stack_Size+0x714>
     c80:	2e74732e 	cdpcs	3, 7, cr7, cr4, cr14, {1}
     c84:	336d7473 	cmncc	sp, #1929379840	; 0x73000000
     c88:	62756332 	rsbsvs	r6, r5, #-939524096	; 0xc8000000
     c8c:	64692e65 	strbtvs	r2, [r9], #-3685	; 0xfffff19b
     c90:	636d2e65 	cmnvs	sp, #1616	; 0x650
     c94:	78652e75 	stmdavc	r5!, {r0, r2, r4, r5, r6, r9, sl, fp, sp}^
     c98:	6e726574 	mrcvs	5, 3, r6, cr2, cr4, {3}
     c9c:	6f746c61 	svcvs	0x00746c61
     ca0:	2e736c6f 	cdpcs	12, 7, cr6, cr3, cr15, {3}
     ca4:	2d756e67 	ldclcs	14, cr6, [r5, #-412]!	; 0xfffffe64
     ca8:	6c6f6f74 	stclvs	15, cr6, [pc], #-464	; ae0 <_Min_Stack_Size+0x6e0>
     cac:	6f662d73 	svcvs	0x00662d73
     cb0:	74732d72 	ldrbtvc	r2, [r3], #-3442	; 0xfffff28e
     cb4:	2e32336d 	cdpcs	3, 3, cr3, cr2, cr13, {3}
     cb8:	332e3031 			; <UNDEFINED> instruction: 0x332e3031
     cbc:	3230322d 	eorscc	r3, r0, #-805306366	; 0xd0000002
     cc0:	30312e31 	eorscc	r2, r1, r1, lsr lr
     cc4:	6e69772e 	cdpvs	7, 6, cr7, cr9, cr14, {1}
     cc8:	315f3233 	cmpcc	pc, r3, lsr r2	; <UNPREDICTABLE>
     ccc:	322e302e 	eorcc	r3, lr, #46	; 0x2e
     cd0:	322e3030 	eorcc	r3, lr, #48	; 0x30
     cd4:	30333230 	eorscc	r3, r3, r0, lsr r2
     cd8:	31363131 	teqcc	r6, r1, lsr r1
     cdc:	5c333030 	ldcpl	0, cr3, [r3], #-192	; 0xffffff40
     ce0:	6c6f6f74 	stclvs	15, cr6, [pc], #-464	; b18 <_Min_Stack_Size+0x718>
     ce4:	696c5c73 	stmdbvs	ip!, {r0, r1, r4, r5, r6, sl, fp, ip, lr}^
     ce8:	63675c62 	cmnvs	r7, #25088	; 0x6200
     cec:	72615c63 	rsbvc	r5, r1, #25344	; 0x6300
     cf0:	6f6e2d6d 	svcvs	0x006e2d6d
     cf4:	652d656e 	strvs	r6, [sp, #-1390]!	; 0xfffffa92
     cf8:	5c696261 	sfmpl	f6, 2, [r9], #-388	; 0xfffffe7c
     cfc:	332e3031 			; <UNDEFINED> instruction: 0x332e3031
     d00:	695c312e 	ldmdbvs	ip, {r1, r2, r3, r5, r8, ip, sp}^
     d04:	756c636e 	strbvc	r6, [ip, #-878]!	; 0xfffffc92
     d08:	00006564 	andeq	r6, r0, r4, ror #10
     d0c:	336d7473 	cmncc	sp, #1929379840	; 0x73000000
     d10:	31665f32 	cmncc	r6, r2, lsr pc
     d14:	36633330 			; <UNDEFINED> instruction: 0x36633330
     d18:	6972645f 	ldmdbvs	r2!, {r0, r1, r2, r3, r4, r6, sl, sp, lr}^
     d1c:	73726576 	cmnvc	r2, #494927872	; 0x1d800000
     d20:	5458455f 	ldrbpl	r4, [r8], #-1375	; 0xfffffaa1
     d24:	00632e49 	rsbeq	r2, r3, r9, asr #28
     d28:	5f000001 	svcpl	0x00000001
     d2c:	61666564 	cmnvs	r6, r4, ror #10
     d30:	5f746c75 	svcpl	0x00746c75
     d34:	65707974 	ldrbvs	r7, [r0, #-2420]!	; 0xfffff68c
     d38:	00682e73 	rsbeq	r2, r8, r3, ror lr
     d3c:	5f000002 	svcpl	0x00000002
     d40:	69647473 	stmdbvs	r4!, {r0, r1, r4, r5, r6, sl, ip, sp, lr}^
     d44:	682e746e 	stmdavs	lr!, {r1, r2, r3, r5, r6, sl, ip, sp, lr}
     d48:	00000300 	andeq	r0, r0, r0, lsl #6
     d4c:	336d7473 	cmncc	sp, #1929379840	; 0x73000000
     d50:	31665f32 	cmncc	r6, r2, lsr pc
     d54:	36783330 			; <UNDEFINED> instruction: 0x36783330
     d58:	0400682e 	streq	r6, [r0], #-2094	; 0xfffff7d2
     d5c:	74730000 	ldrbtvc	r0, [r3], #-0
     d60:	5f32336d 	svcpl	0x0032336d
     d64:	33303166 	teqcc	r0, #-2147483623	; 0x80000019
     d68:	645f3663 	ldrbvs	r3, [pc], #-1635	; d70 <_Min_Stack_Size+0x970>
     d6c:	65766972 	ldrbvs	r6, [r6, #-2418]!	; 0xfffff68e
     d70:	475f7372 			; <UNDEFINED> instruction: 0x475f7372
     d74:	2e4f4950 			; <UNDEFINED> instruction: 0x2e4f4950
     d78:	00040068 	andeq	r0, r4, r8, rrx
     d7c:	6d747300 	ldclvs	3, cr7, [r4, #-0]
     d80:	665f3233 			; <UNDEFINED> instruction: 0x665f3233
     d84:	63333031 	teqvs	r3, #49	; 0x31
     d88:	72645f36 	rsbvc	r5, r4, #54, 30	; 0xd8
     d8c:	72657669 	rsbvc	r7, r5, #110100480	; 0x6900000
     d90:	58455f73 	stmdapl	r5, {r0, r1, r4, r5, r6, r8, r9, sl, fp, ip, lr}^
     d94:	682e4954 	stmdavs	lr!, {r2, r4, r6, r8, fp, lr}
     d98:	00000400 	andeq	r0, r0, r0, lsl #8
     d9c:	6c647473 	cfstrdvs	mvd7, [r4], #-460	; 0xfffffe34
     da0:	682e6269 	stmdavs	lr!, {r0, r3, r5, r6, r9, sp, lr}
     da4:	00000500 	andeq	r0, r0, r0, lsl #10
     da8:	65656569 	strbvs	r6, [r5, #-1385]!	; 0xfffffa97
     dac:	682e7066 	stmdavs	lr!, {r1, r2, r5, r6, ip, sp, lr}
     db0:	00000200 	andeq	r0, r0, r0, lsl #4
     db4:	736e615f 	cmnvc	lr, #-1073741801	; 0xc0000017
     db8:	00682e69 	rsbeq	r2, r8, r9, ror #28
     dbc:	6e000005 	cdpvs	0, 0, cr0, cr0, cr5, {0}
     dc0:	696c7765 	stmdbvs	ip!, {r0, r2, r5, r6, r8, r9, sl, ip, sp, lr}^
     dc4:	00682e62 	rsbeq	r2, r8, r2, ror #28
     dc8:	5f000006 	svcpl	0x00000006
     dcc:	6c77656e 	cfldr64vs	mvdx6, [r7], #-440	; 0xfffffe48
     dd0:	765f6269 	ldrbvc	r6, [pc], -r9, ror #4
     dd4:	69737265 	ldmdbvs	r3!, {r0, r2, r5, r6, r9, ip, sp, lr}^
     dd8:	682e6e6f 	stmdavs	lr!, {r0, r1, r2, r3, r5, r6, r9, sl, fp, sp, lr}
     ddc:	00000500 	andeq	r0, r0, r0, lsl #10
     de0:	666e6f63 	strbtvs	r6, [lr], -r3, ror #30
     de4:	682e6769 	stmdavs	lr!, {r0, r3, r5, r6, r8, r9, sl, sp, lr}
     de8:	00000300 	andeq	r0, r0, r0, lsl #6
     dec:	74616566 	strbtvc	r6, [r1], #-1382	; 0xfffffa9a
     df0:	73657275 	cmnvc	r5, #1342177287	; 0x50000007
     df4:	0300682e 	movweq	r6, #2094	; 0x82e
     df8:	74730000 	ldrbtvc	r0, [r3], #-0
     dfc:	66656464 	strbtvs	r6, [r5], -r4, ror #8
     e00:	0700682e 	streq	r6, [r0, -lr, lsr #16]
     e04:	65720000 	ldrbvs	r0, [r2, #-0]!
     e08:	2e746e65 	cdpcs	14, 7, cr6, cr4, cr5, {3}
     e0c:	00030068 	andeq	r0, r3, r8, rrx
     e10:	79745f00 	ldmdbvc	r4!, {r8, r9, sl, fp, ip, lr}^
     e14:	2e736570 	mrccs	5, 3, r6, cr3, cr0, {3}
     e18:	00030068 	andeq	r0, r3, r8, rrx
     e1c:	79745f00 	ldmdbvc	r4!, {r8, r9, sl, fp, ip, lr}^
     e20:	2e736570 	mrccs	5, 3, r6, cr3, cr0, {3}
     e24:	00020068 	andeq	r0, r2, r8, rrx
     e28:	636f6c00 	cmnvs	pc, #0, 24
     e2c:	00682e6b 	rsbeq	r2, r8, fp, ror #28
     e30:	61000003 	tstvs	r0, r3
     e34:	72657373 	rsbvc	r7, r5, #-872415231	; 0xcc000001
     e38:	00682e74 	rsbeq	r2, r8, r4, ror lr
     e3c:	63000005 	movwvs	r0, #5
     e40:	73666564 	cmnvc	r6, #100, 10	; 0x19000000
     e44:	0300682e 	movweq	r6, #2094	; 0x82e
     e48:	74730000 	ldrbtvc	r0, [r3], #-0
     e4c:	62696c64 	rsbvs	r6, r9, #100, 24	; 0x6400
     e50:	0200682e 	andeq	r6, r0, #3014656	; 0x2e0000
     e54:	6c610000 	stclvs	0, cr0, [r1], #-0
     e58:	61636f6c 	cmnvs	r3, ip, ror #30
     e5c:	0500682e 	streq	r6, [r0, #-2094]	; 0xfffff7d2
     e60:	74730000 	ldrbtvc	r0, [r3], #-0
     e64:	746e6964 	strbtvc	r6, [lr], #-2404	; 0xfffff69c
     e68:	0700682e 	streq	r6, [r0, -lr, lsr #16]
     e6c:	74730000 	ldrbtvc	r0, [r3], #-0
     e70:	746e6964 	strbtvc	r6, [lr], #-2404	; 0xfffff69c
     e74:	0500682e 	streq	r6, [r0, #-2094]	; 0xfffff7d2
     e78:	695f0000 	ldmdbvs	pc, {}^	; <UNPREDICTABLE>
     e7c:	7573746e 	ldrbvc	r7, [r3, #-1134]!	; 0xfffffb92
     e80:	00682e70 	rsbeq	r2, r8, r0, ror lr
     e84:	00000003 	andeq	r0, r0, r3
     e88:	05000205 	streq	r0, [r0, #-517]	; 0xfffffdfb
     e8c:	00024402 	andeq	r4, r2, r2, lsl #8
     e90:	01110308 	tsteq	r1, r8, lsl #6
     e94:	05590305 	ldrbeq	r0, [r9, #-773]	; 0xfffffcfb
     e98:	15250204 	strne	r0, [r5, #-516]!	; 0xfffffdfc
     e9c:	22060567 	andcs	r0, r6, #432013312	; 0x19c00000
     ea0:	22672267 	rsbcs	r2, r7, #1879048198	; 0x70000006
     ea4:	22050567 	andcs	r0, r5, #432013312	; 0x19c00000
     ea8:	26070567 	strcs	r0, [r7], -r7, ror #10
     eac:	05672667 	strbeq	r2, [r7, #-1639]!	; 0xfffff999
     eb0:	09022202 	stmdbeq	r2, {r1, r9, sp}
     eb4:	05010100 	streq	r0, [r1, #-256]	; 0xffffff00
     eb8:	02050002 	andeq	r0, r5, #2
     ebc:	0800030c 	stmdaeq	r0, {r2, r3, r8, r9}
     ec0:	05013503 	streq	r3, [r1, #-1283]	; 0xfffffafd
     ec4:	04055903 	streq	r5, [r5], #-2307	; 0xfffff6fd
     ec8:	67152502 	ldrvs	r2, [r5, -r2, lsl #10]
     ecc:	67220605 	strvs	r0, [r2, -r5, lsl #12]!
     ed0:	67226722 	strvs	r6, [r2, -r2, lsr #14]!
     ed4:	67220505 	strvs	r0, [r2, -r5, lsl #10]!
     ed8:	67260805 	strvs	r0, [r6, -r5, lsl #16]!
     edc:	05260605 	streq	r0, [r6, #-1541]!	; 0xfffff9fb
     ee0:	02056708 	andeq	r6, r5, #8, 14	; 0x200000
     ee4:	00090222 	andeq	r0, r9, r2, lsr #4
     ee8:	01050101 	tsteq	r5, r1, lsl #2
     eec:	d4020500 	strle	r0, [r2], #-1280	; 0xfffffb00
     ef0:	03080003 	movweq	r0, #32771	; 0x8003
     ef4:	050100e5 	streq	r0, [r1, #-229]	; 0xffffff1b
     ef8:	1b054f35 	blne	154bd4 <_Min_Stack_Size+0x1547d4>
     efc:	2116052e 	tstcs	r6, lr, lsr #10
     f00:	052f0205 	streq	r0, [pc, #-517]!	; d03 <_Min_Stack_Size+0x903>
     f04:	0a058636 	beq	1627e4 <_Min_Stack_Size+0x1623e4>
     f08:	3e3a052e 	cdpcc	5, 3, cr0, cr10, cr14, {1}
     f0c:	052e0a05 	streq	r0, [lr, #-2565]!	; 0xfffff5fb
     f10:	2b056822 	blcs	15afa0 <_Min_Stack_Size+0x15aba0>
     f14:	4a250558 	bmi	94247c <_Min_Stack_Size+0x94207c>
     f18:	682e2205 	stmdavs	lr!, {r0, r2, r9, sp}
     f1c:	05582905 	ldrbeq	r2, [r8, #-2309]	; 0xfffff6fb
     f20:	29052e5f 	stmdbcs	r5, {r0, r1, r2, r3, r4, r6, r9, sl, fp, sp}
     f24:	01040200 	mrseq	r0, R12_usr
     f28:	005f053c 	subseq	r0, pc, ip, lsr r5	; <UNPREDICTABLE>
     f2c:	2e010402 	cdpcs	4, 0, cr0, cr1, cr2, {0}
     f30:	02002905 	andeq	r2, r0, #81920	; 0x14000
     f34:	053c0304 	ldreq	r0, [ip, #-772]!	; 0xfffffcfc
     f38:	0402005f 	streq	r0, [r2], #-95	; 0xffffffa1
     f3c:	29052e03 	stmdbcs	r5, {r0, r1, r9, sl, fp, sp}
     f40:	05040200 	streq	r0, [r4, #-512]	; 0xfffffe00
     f44:	005f053c 	subseq	r0, pc, ip, lsr r5	; <UNPREDICTABLE>
     f48:	2e050402 	cdpcs	4, 0, cr0, cr5, cr2, {0}
     f4c:	07040200 	streq	r0, [r4, -r0, lsl #4]
     f50:	02003c06 	andeq	r3, r0, #1536	; 0x600
     f54:	002e0804 	eoreq	r0, lr, r4, lsl #16
     f58:	2e060402 	cdpcs	4, 0, cr0, cr6, cr2, {0}
     f5c:	04040200 	streq	r0, [r4], #-512	; 0xfffffe00
     f60:	0402002e 	streq	r0, [r2], #-46	; 0xffffffd2
     f64:	66052e02 	strvs	r2, [r5], -r2, lsl #28
     f68:	10040200 	andne	r0, r4, r0, lsl #4
     f6c:	22052006 	andcs	r2, r5, #6
     f70:	10040200 	andne	r0, r4, r0, lsl #4
     f74:	000d053c 	andeq	r0, sp, ip, lsr r5
     f78:	6a100402 	bvs	401f88 <_Min_Stack_Size+0x401b88>
     f7c:	02002c05 	andeq	r2, r0, #1280	; 0x500
     f80:	052e1004 	streq	r1, [lr, #-4]!
     f84:	04020012 	streq	r0, [r2], #-18	; 0xffffffee
     f88:	0f053c10 	svceq	0x00053c10
     f8c:	10040200 	andne	r0, r4, r0, lsl #4
     f90:	000d052e 	andeq	r0, sp, lr, lsr #10
     f94:	2e100402 	cfmulscs	mvf0, mvf0, mvf2
     f98:	10040200 	andne	r0, r4, r0, lsl #4
     f9c:	002c053d 	eoreq	r0, ip, sp, lsr r5
     fa0:	2e100402 	cfmulscs	mvf0, mvf0, mvf2
     fa4:	02001205 	andeq	r1, r0, #1342177280	; 0x50000000
     fa8:	053c1004 	ldreq	r1, [ip, #-4]!
     fac:	0402000f 	streq	r0, [r2], #-15
     fb0:	0d052e10 	stceq	14, cr2, [r5, #-64]	; 0xffffffc0
     fb4:	10040200 	andne	r0, r4, r0, lsl #4
     fb8:	0013052e 	andseq	r0, r3, lr, lsr #10
     fbc:	3e100402 	cfmulscc	mvf0, mvf0, mvf2
     fc0:	02000405 	andeq	r0, r0, #83886080	; 0x5000000
     fc4:	052e1004 	streq	r1, [lr, #-4]!
     fc8:	2d05300e 	stccs	0, cr3, [r5, #-56]	; 0xffffffc8
     fcc:	3c13052e 	cfldr32cc	mvfx0, [r3], {46}	; 0x2e
     fd0:	053c0e05 	ldreq	r0, [ip, #-3589]!	; 0xfffff1fb
     fd4:	0a054b19 	beq	153c40 <_Min_Stack_Size+0x153840>
     fd8:	300e052e 	andcc	r0, lr, lr, lsr #10
     fdc:	052e2d05 	streq	r2, [lr, #-3333]!	; 0xfffff2fb
     fe0:	0e053c13 	mcreq	12, 0, r3, cr5, cr3, {0}
     fe4:	2d054d3c 	stccs	13, cr4, [r5, #-240]	; 0xffffff10
     fe8:	3c13052e 	cfldr32cc	mvfx0, [r3], {46}	; 0x2e
     fec:	3d3c0e05 	ldccc	14, cr0, [ip, #-20]!	; 0xffffffec
     ff0:	052e2d05 	streq	r2, [lr, #-3333]!	; 0xfffff2fb
     ff4:	0e053c13 	mcreq	12, 0, r3, cr5, cr3, {0}
     ff8:	402a053c 	eormi	r0, sl, ip, lsr r5
     ffc:	053c5105 	ldreq	r5, [ip, #-261]!	; 0xfffffefb
    1000:	13052e41 	movwne	r2, #24129	; 0x5e41
    1004:	2e040541 	cfsh32cs	mvfx0, mvfx4, #33
    1008:	05300d05 	ldreq	r0, [r0, #-3333]!	; 0xfffff2fb
    100c:	11052e2b 	tstne	r5, fp, lsr #28
    1010:	3c0d053c 	cfstr32cc	mvfx0, [sp], {60}	; 0x3c
    1014:	053d0305 	ldreq	r0, [sp, #-773]!	; 0xfffffcfb
    1018:	0d056001 	stceq	0, cr6, [r5, #-4]
    101c:	2e2c051b 	mcrcs	5, 1, r0, cr12, cr11, {0}
    1020:	053c1205 	ldreq	r1, [ip, #-517]!	; 0xfffffdfb
    1024:	0d052e0f 	stceq	14, cr2, [r5, #-60]	; 0xffffffc4
    1028:	3d03052e 	cfstr32cc	mvfx0, [r3, #-184]	; 0xffffff48
    102c:	025c0105 	subseq	r0, ip, #1073741825	; 0x40000001
    1030:	01010012 	tsteq	r1, r2, lsl r0
    1034:	05000105 	streq	r0, [r0, #-261]	; 0xfffffefb
    1038:	00000002 	andeq	r0, r0, r2
    103c:	01a70300 			; <UNDEFINED> instruction: 0x01a70300
    1040:	30060501 	andcc	r0, r6, r1, lsl #10
    1044:	05200c05 	streq	r0, [r0, #-3077]!	; 0xfffff3fb
    1048:	0c052f06 	stceq	15, cr2, [r5], {6}
    104c:	2f060520 	svccs	0x00060520
    1050:	05200d05 	streq	r0, [r0, #-3333]!	; 0xfffff2fb
    1054:	0d052f06 	stceq	15, cr2, [r5, #-24]	; 0xffffffe8
    1058:	2f060520 	svccs	0x00060520
    105c:	05200d05 	streq	r0, [r0, #-3333]!	; 0xfffff2fb
    1060:	0b053206 	bleq	14d880 <_Min_Stack_Size+0x14d480>
    1064:	3f020520 	svccc	0x00020520
    1068:	67676767 	strbvs	r6, [r7, -r7, ror #14]!
    106c:	01056767 	tsteq	r5, r7, ror #14
    1070:	000b0267 	andeq	r0, fp, r7, ror #4
    1074:	01050101 	tsteq	r5, r1, lsl #2
    1078:	00020500 	andeq	r0, r2, r0, lsl #10
    107c:	03000000 	movweq	r0, #0
    1080:	050101c9 	streq	r0, [r1, #-457]	; 0xfffffe37
    1084:	01054b02 	tsteq	r5, r2, lsl #22
    1088:	0004023d 	andeq	r0, r4, sp, lsr r2
    108c:	01050101 	tsteq	r5, r1, lsl #2
    1090:	a4020500 	strge	r0, [r2], #-1280	; 0xfffffb00
    1094:	03080005 	movweq	r0, #32773	; 0x8005
    1098:	050101d8 	streq	r0, [r1, #-472]	; 0xfffffe28
    109c:	01054b02 	tsteq	r5, r2, lsl #22
    10a0:	0004023d 	andeq	r0, r4, sp, lsr r2
    10a4:	01050101 	tsteq	r5, r1, lsl #2
    10a8:	bc020500 	cfstr32lt	mvfx0, [r2], {-0}
    10ac:	03080005 	movweq	r0, #32773	; 0x8005
    10b0:	050101e0 	streq	r0, [r1, #-480]	; 0xfffffe20
    10b4:	11052f0b 	tstne	r5, fp, lsl #30
    10b8:	2e020567 	cfsh32cs	mvfx0, mvfx2, #55
    10bc:	02210105 	eoreq	r0, r1, #1073741825	; 0x40000001
    10c0:	01010007 	tsteq	r1, r7
    10c4:	05000105 	streq	r0, [r0, #-261]	; 0xfffffefb
    10c8:	0005e002 	andeq	lr, r5, r2
    10cc:	01e50308 	mvneq	r0, r8, lsl #6
    10d0:	2f0b0501 	svccs	0x000b0501
    10d4:	05671105 	strbeq	r1, [r7, #-261]!	; 0xfffffefb
    10d8:	01052e02 	tsteq	r5, r2, lsl #28
    10dc:	00070221 	andeq	r0, r7, r1, lsr #4
    10e0:	01050101 	tsteq	r5, r1, lsl #2
    10e4:	04020500 	streq	r0, [r2], #-1280	; 0xfffffb00
    10e8:	03080006 	movweq	r0, #32774	; 0x8006
    10ec:	050101ea 	streq	r0, [r1, #-490]	; 0xfffffe16
    10f0:	11052f0b 	tstne	r5, fp, lsl #30
    10f4:	2e020567 	cfsh32cs	mvfx0, mvfx2, #55
    10f8:	02210105 	eoreq	r0, r1, #1073741825	; 0x40000001
    10fc:	01010007 	tsteq	r1, r7
    1100:	05000105 	streq	r0, [r0, #-261]	; 0xfffffefb
    1104:	00062802 	andeq	r2, r6, r2, lsl #16
    1108:	01ef0308 	mvneq	r0, r8, lsl #6
    110c:	2f0b0501 	svccs	0x000b0501
    1110:	05671105 	strbeq	r1, [r7, #-261]!	; 0xfffffefb
    1114:	01052e02 	tsteq	r5, r2, lsl #28
    1118:	00070221 	andeq	r0, r7, r1, lsr #4
    111c:	01050101 	tsteq	r5, r1, lsl #2
    1120:	4c020500 	cfstr32mi	mvfx0, [r2], {-0}
    1124:	03080006 	movweq	r0, #32774	; 0x8006
    1128:	050101f4 	streq	r0, [r1, #-500]	; 0xfffffe0c
    112c:	11052f0b 	tstne	r5, fp, lsl #30
    1130:	2e020567 	cfsh32cs	mvfx0, mvfx2, #55
    1134:	02210105 	eoreq	r0, r1, #1073741825	; 0x40000001
    1138:	01010007 	tsteq	r1, r7
    113c:	05000105 	streq	r0, [r0, #-261]	; 0xfffffefb
    1140:	00067002 	andeq	r7, r6, r2
    1144:	01fa0308 	mvnseq	r0, r8, lsl #6
    1148:	2f090501 	svccs	0x00090501
    114c:	052e0e05 	streq	r0, [lr, #-3589]!	; 0xfffff1fb
    1150:	21052e04 	tstcs	r5, r4, lsl #28
    1154:	01040200 	mrseq	r0, R12_usr
    1158:	003c052e 	eorseq	r0, ip, lr, lsr #10
    115c:	66010402 	strvs	r0, [r1], -r2, lsl #8
    1160:	02002d05 	andeq	r2, r0, #320	; 0x140
    1164:	052e0104 	streq	r0, [lr, #-260]!	; 0xfffffefc
    1168:	0e052109 	adfeqs	f2, f5, #1.0
    116c:	2e04052e 	cfsh32cs	mvfx0, mvfx4, #30
    1170:	02002105 	andeq	r2, r0, #1073741825	; 0x40000001
    1174:	052e0104 	streq	r0, [lr, #-260]!	; 0xfffffefc
    1178:	0402003c 	streq	r0, [r2], #-60	; 0xffffffc4
    117c:	2d056601 	stccs	6, cr6, [r5, #-4]
    1180:	01040200 	mrseq	r0, R12_usr
    1184:	2109052e 	tstcs	r9, lr, lsr #10
    1188:	052e0e05 	streq	r0, [lr, #-3589]!	; 0xfffff1fb
    118c:	21052e04 	tstcs	r5, r4, lsl #28
    1190:	01040200 	mrseq	r0, R12_usr
    1194:	003c052e 	eorseq	r0, ip, lr, lsr #10
    1198:	66010402 	strvs	r0, [r1], -r2, lsl #8
    119c:	02002d05 	andeq	r2, r0, #320	; 0x140
    11a0:	052e0104 	streq	r0, [lr, #-260]!	; 0xfffffefc
    11a4:	0e052109 	adfeqs	f2, f5, #1.0
    11a8:	2e04052e 	cfsh32cs	mvfx0, mvfx4, #30
    11ac:	02002105 	andeq	r2, r0, #1073741825	; 0x40000001
    11b0:	052e0104 	streq	r0, [lr, #-260]!	; 0xfffffefc
    11b4:	0402003c 	streq	r0, [r2], #-60	; 0xffffffc4
    11b8:	2d056601 	stccs	6, cr6, [r5, #-4]
    11bc:	01040200 	mrseq	r0, R12_usr
    11c0:	2109052e 	tstcs	r9, lr, lsr #10
    11c4:	052e0e05 	streq	r0, [lr, #-3589]!	; 0xfffff1fb
    11c8:	21052e04 	tstcs	r5, r4, lsl #28
    11cc:	01040200 	mrseq	r0, R12_usr
    11d0:	003c052e 	eorseq	r0, ip, lr, lsr #10
    11d4:	66010402 	strvs	r0, [r1], -r2, lsl #8
    11d8:	02002d05 	andeq	r2, r0, #320	; 0x140
    11dc:	052e0104 	streq	r0, [lr, #-260]!	; 0xfffffefc
    11e0:	07022101 	streq	r2, [r2, -r1, lsl #2]
    11e4:	05010100 	streq	r0, [r1, #-256]	; 0xffffff00
    11e8:	02050001 	andeq	r0, r5, #1
    11ec:	08000718 	stmdaeq	r0, {r3, r4, r8, r9, sl}
    11f0:	01028203 	tsteq	r2, r3, lsl #4
    11f4:	052f0905 	streq	r0, [pc, #-2309]!	; 8f7 <_Min_Stack_Size+0x4f7>
    11f8:	04052e0e 	streq	r2, [r5], #-3598	; 0xfffff1f2
    11fc:	0022052e 	eoreq	r0, r2, lr, lsr #10
    1200:	2e010402 	cdpcs	4, 0, cr0, cr1, cr2, {0}
    1204:	02003e05 	andeq	r3, r0, #5, 28	; 0x50
    1208:	05660104 	strbeq	r0, [r6, #-260]!	; 0xfffffefc
    120c:	0402002f 	streq	r0, [r2], #-47	; 0xffffffd1
    1210:	09052e01 	stmdbeq	r5, {r0, r9, sl, fp, sp}
    1214:	2e0e0521 	cfsh32cs	mvfx0, mvfx14, #17
    1218:	052e0405 	streq	r0, [lr, #-1029]!	; 0xfffffbfb
    121c:	04020022 	streq	r0, [r2], #-34	; 0xffffffde
    1220:	3e052e01 	cdpcc	14, 0, cr2, cr5, cr1, {0}
    1224:	01040200 	mrseq	r0, R12_usr
    1228:	002f0566 	eoreq	r0, pc, r6, ror #10
    122c:	2e010402 	cdpcs	4, 0, cr0, cr1, cr2, {0}
    1230:	05210905 	streq	r0, [r1, #-2309]!	; 0xfffff6fb
    1234:	04052e0e 	streq	r2, [r5], #-3598	; 0xfffff1f2
    1238:	0022052e 	eoreq	r0, r2, lr, lsr #10
    123c:	2e010402 	cdpcs	4, 0, cr0, cr1, cr2, {0}
    1240:	02003e05 	andeq	r3, r0, #5, 28	; 0x50
    1244:	05660104 	strbeq	r0, [r6, #-260]!	; 0xfffffefc
    1248:	0402002f 	streq	r0, [r2], #-47	; 0xffffffd1
    124c:	09052e01 	stmdbeq	r5, {r0, r9, sl, fp, sp}
    1250:	2e0e0521 	cfsh32cs	mvfx0, mvfx14, #17
    1254:	052e0405 	streq	r0, [lr, #-1029]!	; 0xfffffbfb
    1258:	04020022 	streq	r0, [r2], #-34	; 0xffffffde
    125c:	3e052e01 	cdpcc	14, 0, cr2, cr5, cr1, {0}
    1260:	01040200 	mrseq	r0, R12_usr
    1264:	002f0566 	eoreq	r0, pc, r6, ror #10
    1268:	2e010402 	cdpcs	4, 0, cr0, cr1, cr2, {0}
    126c:	05210905 	streq	r0, [r1, #-2309]!	; 0xfffff6fb
    1270:	04052e0e 	streq	r2, [r5], #-3598	; 0xfffff1f2
    1274:	0022052e 	eoreq	r0, r2, lr, lsr #10
    1278:	2e010402 	cdpcs	4, 0, cr0, cr1, cr2, {0}
    127c:	02003e05 	andeq	r3, r0, #5, 28	; 0x50
    1280:	05660104 	strbeq	r0, [r6, #-260]!	; 0xfffffefc
    1284:	0402002f 	streq	r0, [r2], #-47	; 0xffffffd1
    1288:	09052e01 	stmdbeq	r5, {r0, r9, sl, fp, sp}
    128c:	2e0e0521 	cfsh32cs	mvfx0, mvfx14, #17
    1290:	052e0405 	streq	r0, [lr, #-1029]!	; 0xfffffbfb
    1294:	04020022 	streq	r0, [r2], #-34	; 0xffffffde
    1298:	3e052e01 	cdpcc	14, 0, cr2, cr5, cr1, {0}
    129c:	01040200 	mrseq	r0, R12_usr
    12a0:	002f0566 	eoreq	r0, pc, r6, ror #10
    12a4:	2e010402 	cdpcs	4, 0, cr0, cr1, cr2, {0}
    12a8:	02210105 	eoreq	r0, r1, #1073741825	; 0x40000001
    12ac:	01010006 	tsteq	r1, r6
    12b0:	000008be 			; <UNDEFINED> instruction: 0x000008be
    12b4:	06c70003 	strbeq	r0, [r7], r3
    12b8:	01020000 	mrseq	r0, (UNDEF: 2)
    12bc:	000d0efb 	strdeq	r0, [sp], -fp
    12c0:	01010101 	tsteq	r1, r1, lsl #2
    12c4:	01000000 	mrseq	r0, (UNDEF: 0)
    12c8:	2e010000 	cdpcs	0, 0, cr0, cr1, cr0, {0}
    12cc:	74732f2e 	ldrbtvc	r2, [r3], #-3886	; 0xfffff0d2
    12d0:	5f32336d 	svcpl	0x0032336d
    12d4:	33303166 	teqcc	r0, #-2147483623	; 0x80000019
    12d8:	645f3663 	ldrbvs	r3, [pc], #-1635	; 12e0 <_Min_Stack_Size+0xee0>
    12dc:	65766972 	ldrbvs	r6, [r6, #-2418]!	; 0xfffff68e
    12e0:	67007372 	smlsdxvs	r0, r2, r3, r7
    12e4:	6e655c3a 	mcrvs	12, 3, r5, cr5, cr10, {1}
    12e8:	2d74732e 	ldclcs	3, cr7, [r4, #-184]!	; 0xffffff48
    12ec:	336d7473 	cmncc	sp, #1929379840	; 0x73000000
    12f0:	62756332 	rsbsvs	r6, r5, #-939524096	; 0xc8000000
    12f4:	65646965 	strbvs	r6, [r4, #-2405]!	; 0xfffff69b
    12f8:	342e315f 	strtcc	r3, [lr], #-351	; 0xfffffea1
    12fc:	375f302e 	ldrbcc	r3, [pc, -lr, lsr #32]
    1300:	5f313135 	svcpl	0x00313135
    1304:	30323032 	eorscc	r3, r2, r2, lsr r0
    1308:	30323730 	eorscc	r3, r2, r0, lsr r7
    130c:	3239305f 	eorscc	r3, r9, #95	; 0x5f
    1310:	38785f38 	ldmdacc	r8!, {r3, r4, r5, r8, r9, sl, fp, ip, lr}^
    1314:	34365f36 	ldrtcc	r5, [r6], #-3894	; 0xfffff0ca
    1318:	6578655f 	ldrbvs	r6, [r8, #-1375]!	; 0xfffffaa1
    131c:	6d74735c 	ldclvs	3, cr7, [r4, #-368]!	; 0xfffffe90
    1320:	75633233 	strbvc	r3, [r3, #-563]!	; 0xfffffdcd
    1324:	64696562 	strbtvs	r6, [r9], #-1378	; 0xfffffa9e
    1328:	2e315f65 	cdpcs	15, 3, cr5, cr1, cr5, {3}
    132c:	5c302e34 	ldcpl	14, cr2, [r0], #-208	; 0xffffff30
    1330:	336d7473 	cmncc	sp, #1929379840	; 0x73000000
    1334:	62756332 	rsbsvs	r6, r5, #-939524096	; 0xc8000000
    1338:	65646965 	strbvs	r6, [r4, #-2405]!	; 0xfffff69b
    133c:	756c705c 	strbvc	r7, [ip, #-92]!	; 0xffffffa4
    1340:	736e6967 	cmnvc	lr, #1687552	; 0x19c000
    1344:	6d6f635c 	stclvs	3, cr6, [pc, #-368]!	; 11dc <_Min_Stack_Size+0xddc>
    1348:	2e74732e 	cdpcs	3, 7, cr7, cr4, cr14, {1}
    134c:	336d7473 	cmncc	sp, #1929379840	; 0x73000000
    1350:	62756332 	rsbsvs	r6, r5, #-939524096	; 0xc8000000
    1354:	64692e65 	strbtvs	r2, [r9], #-3685	; 0xfffff19b
    1358:	636d2e65 	cmnvs	sp, #1616	; 0x650
    135c:	78652e75 	stmdavc	r5!, {r0, r2, r4, r5, r6, r9, sl, fp, sp}^
    1360:	6e726574 	mrcvs	5, 3, r6, cr2, cr4, {3}
    1364:	6f746c61 	svcvs	0x00746c61
    1368:	2e736c6f 	cdpcs	12, 7, cr6, cr3, cr15, {3}
    136c:	2d756e67 	ldclcs	14, cr6, [r5, #-412]!	; 0xfffffe64
    1370:	6c6f6f74 	stclvs	15, cr6, [pc], #-464	; 11a8 <_Min_Stack_Size+0xda8>
    1374:	6f662d73 	svcvs	0x00662d73
    1378:	74732d72 	ldrbtvc	r2, [r3], #-3442	; 0xfffff28e
    137c:	2e32336d 	cdpcs	3, 3, cr3, cr2, cr13, {3}
    1380:	332e3031 			; <UNDEFINED> instruction: 0x332e3031
    1384:	3230322d 	eorscc	r3, r0, #-805306366	; 0xd0000002
    1388:	30312e31 	eorscc	r2, r1, r1, lsr lr
    138c:	6e69772e 	cdpvs	7, 6, cr7, cr9, cr14, {1}
    1390:	315f3233 	cmpcc	pc, r3, lsr r2	; <UNPREDICTABLE>
    1394:	322e302e 	eorcc	r3, lr, #46	; 0x2e
    1398:	322e3030 	eorcc	r3, lr, #48	; 0x30
    139c:	30333230 	eorscc	r3, r3, r0, lsr r2
    13a0:	31363131 	teqcc	r6, r1, lsr r1
    13a4:	5c333030 	ldcpl	0, cr3, [r3], #-192	; 0xffffff40
    13a8:	6c6f6f74 	stclvs	15, cr6, [pc], #-464	; 11e0 <_Min_Stack_Size+0xde0>
    13ac:	69625c73 	stmdbvs	r2!, {r0, r1, r4, r5, r6, sl, fp, ip, lr}^
    13b0:	2e2e5c6e 	cdpcs	12, 2, cr5, cr14, cr14, {3}
    13b4:	62696c2f 	rsbvs	r6, r9, #12032	; 0x2f00
    13b8:	6363672f 	cmnvs	r3, #12320768	; 0xbc0000
    13bc:	6d72612f 	ldfvse	f6, [r2, #-188]!	; 0xffffff44
    13c0:	6e6f6e2d 	cdpvs	14, 6, cr6, cr15, cr13, {1}
    13c4:	61652d65 	cmnvs	r5, r5, ror #26
    13c8:	312f6962 			; <UNDEFINED> instruction: 0x312f6962
    13cc:	2e332e30 	mrccs	14, 1, r2, cr3, cr0, {1}
    13d0:	2e2e2f31 	mcrcs	15, 1, r2, cr14, cr1, {1}
    13d4:	2f2e2e2f 	svccs	0x002e2e2f
    13d8:	2e2f2e2e 	cdpcs	14, 2, cr2, cr15, cr14, {1}
    13dc:	72612f2e 	rsbvc	r2, r1, #46, 30	; 0xb8
    13e0:	6f6e2d6d 	svcvs	0x006e2d6d
    13e4:	652d656e 	strvs	r6, [sp, #-1390]!	; 0xfffffa92
    13e8:	2f696261 	svccs	0x00696261
    13ec:	6c636e69 	stclvs	14, cr6, [r3], #-420	; 0xfffffe5c
    13f0:	2f656475 	svccs	0x00656475
    13f4:	6863616d 	stmdavs	r3!, {r0, r2, r3, r5, r6, r8, sp, lr}^
    13f8:	00656e69 	rsbeq	r6, r5, r9, ror #28
    13fc:	655c3a67 	ldrbvs	r3, [ip, #-2663]	; 0xfffff599
    1400:	74732e6e 	ldrbtvc	r2, [r3], #-3694	; 0xfffff192
    1404:	6d74732d 	ldclvs	3, cr7, [r4, #-180]!	; 0xffffff4c
    1408:	75633233 	strbvc	r3, [r3, #-563]!	; 0xfffffdcd
    140c:	64696562 	strbtvs	r6, [r9], #-1378	; 0xfffffa9e
    1410:	2e315f65 	cdpcs	15, 3, cr5, cr1, cr5, {3}
    1414:	5f302e34 	svcpl	0x00302e34
    1418:	31313537 	teqcc	r1, r7, lsr r5
    141c:	3230325f 	eorscc	r3, r0, #-268435451	; 0xf0000005
    1420:	32373030 	eorscc	r3, r7, #48	; 0x30
    1424:	39305f30 	ldmdbcc	r0!, {r4, r5, r8, r9, sl, fp, ip, lr}
    1428:	785f3832 	ldmdavc	pc, {r1, r4, r5, fp, ip, sp}^	; <UNPREDICTABLE>
    142c:	365f3638 			; <UNDEFINED> instruction: 0x365f3638
    1430:	78655f34 	stmdavc	r5!, {r2, r4, r5, r8, r9, sl, fp, ip, lr}^
    1434:	74735c65 	ldrbtvc	r5, [r3], #-3173	; 0xfffff39b
    1438:	6332336d 	teqvs	r2, #-1275068415	; 0xb4000001
    143c:	69656275 	stmdbvs	r5!, {r0, r2, r4, r5, r6, r9, sp, lr}^
    1440:	315f6564 	cmpcc	pc, r4, ror #10
    1444:	302e342e 	eorcc	r3, lr, lr, lsr #8
    1448:	6d74735c 	ldclvs	3, cr7, [r4, #-368]!	; 0xfffffe90
    144c:	75633233 	strbvc	r3, [r3, #-563]!	; 0xfffffdcd
    1450:	64696562 	strbtvs	r6, [r9], #-1378	; 0xfffffa9e
    1454:	6c705c65 	ldclvs	12, cr5, [r0], #-404	; 0xfffffe6c
    1458:	6e696775 	mcrvs	7, 3, r6, cr9, cr5, {3}
    145c:	6f635c73 	svcvs	0x00635c73
    1460:	74732e6d 	ldrbtvc	r2, [r3], #-3693	; 0xfffff193
    1464:	6d74732e 	ldclvs	3, cr7, [r4, #-184]!	; 0xffffff48
    1468:	75633233 	strbvc	r3, [r3, #-563]!	; 0xfffffdcd
    146c:	692e6562 	stmdbvs	lr!, {r1, r5, r6, r8, sl, sp, lr}
    1470:	6d2e6564 	cfstr32vs	mvfx6, [lr, #-400]!	; 0xfffffe70
    1474:	652e7563 	strvs	r7, [lr, #-1379]!	; 0xfffffa9d
    1478:	72657478 	rsbvc	r7, r5, #120, 8	; 0x78000000
    147c:	746c616e 	strbtvc	r6, [ip], #-366	; 0xfffffe92
    1480:	736c6f6f 	cmnvc	ip, #444	; 0x1bc
    1484:	756e672e 	strbvc	r6, [lr, #-1838]!	; 0xfffff8d2
    1488:	6f6f742d 	svcvs	0x006f742d
    148c:	662d736c 	strtvs	r7, [sp], -ip, ror #6
    1490:	732d726f 			; <UNDEFINED> instruction: 0x732d726f
    1494:	32336d74 	eorscc	r6, r3, #116, 26	; 0x1d00
    1498:	2e30312e 	rsfcssp	f3, f0, #0.5
    149c:	30322d33 	eorscc	r2, r2, r3, lsr sp
    14a0:	312e3132 			; <UNDEFINED> instruction: 0x312e3132
    14a4:	69772e30 	ldmdbvs	r7!, {r4, r5, r9, sl, fp, sp}^
    14a8:	5f32336e 	svcpl	0x0032336e
    14ac:	2e302e31 	mrccs	14, 1, r2, cr0, cr1, {1}
    14b0:	2e303032 	mrccs	0, 1, r3, cr0, cr2, {1}
    14b4:	33323032 	teqcc	r2, #50	; 0x32
    14b8:	36313130 			; <UNDEFINED> instruction: 0x36313130
    14bc:	33303031 	teqcc	r0, #49	; 0x31
    14c0:	6f6f745c 	svcvs	0x006f745c
    14c4:	625c736c 	subsvs	r7, ip, #108, 6	; 0xb0000001
    14c8:	2e5c6e69 	cdpcs	14, 5, cr6, cr12, cr9, {3}
    14cc:	696c2f2e 	stmdbvs	ip!, {r1, r2, r3, r5, r8, r9, sl, fp, sp}^
    14d0:	63672f62 	cmnvs	r7, #392	; 0x188
    14d4:	72612f63 	rsbvc	r2, r1, #396	; 0x18c
    14d8:	6f6e2d6d 	svcvs	0x006e2d6d
    14dc:	652d656e 	strvs	r6, [sp, #-1390]!	; 0xfffffa92
    14e0:	2f696261 	svccs	0x00696261
    14e4:	332e3031 			; <UNDEFINED> instruction: 0x332e3031
    14e8:	2e2f312e 	sufcsep	f3, f7, #0.5
    14ec:	2e2e2f2e 	cdpcs	15, 2, cr2, cr14, cr14, {1}
    14f0:	2f2e2e2f 	svccs	0x002e2e2f
    14f4:	612f2e2e 			; <UNDEFINED> instruction: 0x612f2e2e
    14f8:	6e2d6d72 	mcrvs	13, 1, r6, cr13, cr2, {3}
    14fc:	2d656e6f 	stclcs	14, cr6, [r5, #-444]!	; 0xfffffe44
    1500:	69626165 	stmdbvs	r2!, {r0, r2, r5, r6, r8, sp, lr}^
    1504:	636e692f 	cmnvs	lr, #770048	; 0xbc000
    1508:	6564756c 	strbvs	r7, [r4, #-1388]!	; 0xfffffa94
    150c:	7379732f 	cmnvc	r9, #-1140850688	; 0xbc000000
    1510:	2f3a4400 	svccs	0x003a4400
    1514:	76697244 	strbtvc	r7, [r9], -r4, asr #4
    1518:	2f737265 	svccs	0x00737265
    151c:	336d7473 	cmncc	sp, #1929379840	; 0x73000000
    1520:	31665f32 	cmncc	r6, r2, lsr pc
    1524:	36633330 			; <UNDEFINED> instruction: 0x36633330
    1528:	6972645f 	ldmdbvs	r2!, {r0, r1, r2, r3, r4, r6, sl, sp, lr}^
    152c:	73726576 	cmnvc	r2, #494927872	; 0x1d800000
    1530:	636e492f 	cmnvs	lr, #770048	; 0xbc000
    1534:	5c3a6700 	ldcpl	7, cr6, [sl], #-0
    1538:	732e6e65 			; <UNDEFINED> instruction: 0x732e6e65
    153c:	74732d74 	ldrbtvc	r2, [r3], #-3444	; 0xfffff28c
    1540:	6332336d 	teqvs	r2, #-1275068415	; 0xb4000001
    1544:	69656275 	stmdbvs	r5!, {r0, r2, r4, r5, r6, r9, sp, lr}^
    1548:	315f6564 	cmpcc	pc, r4, ror #10
    154c:	302e342e 	eorcc	r3, lr, lr, lsr #8
    1550:	3135375f 	teqcc	r5, pc, asr r7
    1554:	30325f31 	eorscc	r5, r2, r1, lsr pc
    1558:	37303032 			; <UNDEFINED> instruction: 0x37303032
    155c:	305f3032 	subscc	r3, pc, r2, lsr r0	; <UNPREDICTABLE>
    1560:	5f383239 	svcpl	0x00383239
    1564:	5f363878 	svcpl	0x00363878
    1568:	655f3436 	ldrbvs	r3, [pc, #-1078]	; 113a <_Min_Stack_Size+0xd3a>
    156c:	735c6578 	cmpvc	ip, #120, 10	; 0x1e000000
    1570:	32336d74 	eorscc	r6, r3, #116, 26	; 0x1d00
    1574:	65627563 	strbvs	r7, [r2, #-1379]!	; 0xfffffa9d
    1578:	5f656469 	svcpl	0x00656469
    157c:	2e342e31 	mrccs	14, 1, r2, cr4, cr1, {1}
    1580:	74735c30 	ldrbtvc	r5, [r3], #-3120	; 0xfffff3d0
    1584:	6332336d 	teqvs	r2, #-1275068415	; 0xb4000001
    1588:	69656275 	stmdbvs	r5!, {r0, r2, r4, r5, r6, r9, sp, lr}^
    158c:	705c6564 	subsvc	r6, ip, r4, ror #10
    1590:	6967756c 	stmdbvs	r7!, {r2, r3, r5, r6, r8, sl, ip, sp, lr}^
    1594:	635c736e 	cmpvs	ip, #-1207959551	; 0xb8000001
    1598:	732e6d6f 			; <UNDEFINED> instruction: 0x732e6d6f
    159c:	74732e74 	ldrbtvc	r2, [r3], #-3700	; 0xfffff18c
    15a0:	6332336d 	teqvs	r2, #-1275068415	; 0xb4000001
    15a4:	2e656275 	mcrcs	2, 3, r6, cr5, cr5, {3}
    15a8:	2e656469 	cdpcs	4, 6, cr6, cr5, cr9, {3}
    15ac:	2e75636d 	cdpcs	3, 7, cr6, cr5, cr13, {3}
    15b0:	65747865 	ldrbvs	r7, [r4, #-2149]!	; 0xfffff79b
    15b4:	6c616e72 	stclvs	14, cr6, [r1], #-456	; 0xfffffe38
    15b8:	6c6f6f74 	stclvs	15, cr6, [pc], #-464	; 13f0 <_Min_Stack_Size+0xff0>
    15bc:	6e672e73 	mcrvs	14, 3, r2, cr7, cr3, {3}
    15c0:	6f742d75 	svcvs	0x00742d75
    15c4:	2d736c6f 	ldclcs	12, cr6, [r3, #-444]!	; 0xfffffe44
    15c8:	2d726f66 	ldclcs	15, cr6, [r2, #-408]!	; 0xfffffe68
    15cc:	336d7473 	cmncc	sp, #1929379840	; 0x73000000
    15d0:	30312e32 	eorscc	r2, r1, r2, lsr lr
    15d4:	322d332e 	eorcc	r3, sp, #-1207959552	; 0xb8000000
    15d8:	2e313230 	mrccs	2, 1, r3, cr1, cr0, {1}
    15dc:	772e3031 			; <UNDEFINED> instruction: 0x772e3031
    15e0:	32336e69 	eorscc	r6, r3, #1680	; 0x690
    15e4:	302e315f 	eorcc	r3, lr, pc, asr r1
    15e8:	3030322e 	eorscc	r3, r0, lr, lsr #4
    15ec:	3230322e 	eorscc	r3, r0, #-536870910	; 0xe0000002
    15f0:	31313033 	teqcc	r1, r3, lsr r0
    15f4:	30303136 	eorscc	r3, r0, r6, lsr r1
    15f8:	6f745c33 	svcvs	0x00745c33
    15fc:	5c736c6f 	ldclpl	12, cr6, [r3], #-444	; 0xfffffe44
    1600:	5c6e6962 			; <UNDEFINED> instruction: 0x5c6e6962
    1604:	6c2f2e2e 	stcvs	14, cr2, [pc], #-184	; 1554 <_Min_Stack_Size+0x1154>
    1608:	672f6269 	strvs	r6, [pc, -r9, ror #4]!
    160c:	612f6363 			; <UNDEFINED> instruction: 0x612f6363
    1610:	6e2d6d72 	mcrvs	13, 1, r6, cr13, cr2, {3}
    1614:	2d656e6f 	stclcs	14, cr6, [r5, #-444]!	; 0xfffffe44
    1618:	69626165 	stmdbvs	r2!, {r0, r2, r5, r6, r8, sp, lr}^
    161c:	2e30312f 	rsfcssp	f3, f0, #10.0
    1620:	2f312e33 	svccs	0x00312e33
    1624:	2e2f2e2e 	cdpcs	14, 2, cr2, cr15, cr14, {1}
    1628:	2e2e2f2e 	cdpcs	15, 2, cr2, cr14, cr14, {1}
    162c:	2f2e2e2f 	svccs	0x002e2e2f
    1630:	2d6d7261 	sfmcs	f7, 2, [sp, #-388]!	; 0xfffffe7c
    1634:	656e6f6e 	strbvs	r6, [lr, #-3950]!	; 0xfffff092
    1638:	6261652d 	rsbvs	r6, r1, #188743680	; 0xb400000
    163c:	6e692f69 	cdpvs	15, 6, cr2, cr9, cr9, {3}
    1640:	64756c63 	ldrbtvs	r6, [r5], #-3171	; 0xfffff39d
    1644:	3a670065 	bcc	19c17e0 <_Min_Stack_Size+0x19c13e0>
    1648:	2e6e655c 	mcrcs	5, 3, r6, cr14, cr12, {2}
    164c:	732d7473 			; <UNDEFINED> instruction: 0x732d7473
    1650:	32336d74 	eorscc	r6, r3, #116, 26	; 0x1d00
    1654:	65627563 	strbvs	r7, [r2, #-1379]!	; 0xfffffa9d
    1658:	5f656469 	svcpl	0x00656469
    165c:	2e342e31 	mrccs	14, 1, r2, cr4, cr1, {1}
    1660:	35375f30 	ldrcc	r5, [r7, #-3888]!	; 0xfffff0d0
    1664:	325f3131 	subscc	r3, pc, #1073741836	; 0x4000000c
    1668:	30303230 	eorscc	r3, r0, r0, lsr r2
    166c:	5f303237 	svcpl	0x00303237
    1670:	38323930 	ldmdacc	r2!, {r4, r5, r8, fp, ip, sp}
    1674:	3638785f 			; <UNDEFINED> instruction: 0x3638785f
    1678:	5f34365f 	svcpl	0x0034365f
    167c:	5c657865 	stclpl	8, cr7, [r5], #-404	; 0xfffffe6c
    1680:	336d7473 	cmncc	sp, #1929379840	; 0x73000000
    1684:	62756332 	rsbsvs	r6, r5, #-939524096	; 0xc8000000
    1688:	65646965 	strbvs	r6, [r4, #-2405]!	; 0xfffff69b
    168c:	342e315f 	strtcc	r3, [lr], #-351	; 0xfffffea1
    1690:	735c302e 	cmpvc	ip, #46	; 0x2e
    1694:	32336d74 	eorscc	r6, r3, #116, 26	; 0x1d00
    1698:	65627563 	strbvs	r7, [r2, #-1379]!	; 0xfffffa9d
    169c:	5c656469 	cfstrdpl	mvd6, [r5], #-420	; 0xfffffe5c
    16a0:	67756c70 			; <UNDEFINED> instruction: 0x67756c70
    16a4:	5c736e69 	ldclpl	14, cr6, [r3], #-420	; 0xfffffe5c
    16a8:	2e6d6f63 	cdpcs	15, 6, cr6, cr13, cr3, {3}
    16ac:	732e7473 			; <UNDEFINED> instruction: 0x732e7473
    16b0:	32336d74 	eorscc	r6, r3, #116, 26	; 0x1d00
    16b4:	65627563 	strbvs	r7, [r2, #-1379]!	; 0xfffffa9d
    16b8:	6564692e 	strbvs	r6, [r4, #-2350]!	; 0xfffff6d2
    16bc:	75636d2e 	strbvc	r6, [r3, #-3374]!	; 0xfffff2d2
    16c0:	7478652e 	ldrbtvc	r6, [r8], #-1326	; 0xfffffad2
    16c4:	616e7265 	cmnvs	lr, r5, ror #4
    16c8:	6f6f746c 	svcvs	0x006f746c
    16cc:	672e736c 	strvs	r7, [lr, -ip, ror #6]!
    16d0:	742d756e 	strtvc	r7, [sp], #-1390	; 0xfffffa92
    16d4:	736c6f6f 	cmnvc	ip, #444	; 0x1bc
    16d8:	726f662d 	rsbvc	r6, pc, #47185920	; 0x2d00000
    16dc:	6d74732d 	ldclvs	3, cr7, [r4, #-180]!	; 0xffffff4c
    16e0:	312e3233 			; <UNDEFINED> instruction: 0x312e3233
    16e4:	2d332e30 	ldccs	14, cr2, [r3, #-192]!	; 0xffffff40
    16e8:	31323032 	teqcc	r2, r2, lsr r0
    16ec:	2e30312e 	rsfcssp	f3, f0, #0.5
    16f0:	336e6977 	cmncc	lr, #1949696	; 0x1dc000
    16f4:	2e315f32 	mrccs	15, 1, r5, cr1, cr2, {1}
    16f8:	30322e30 	eorscc	r2, r2, r0, lsr lr
    16fc:	30322e30 	eorscc	r2, r2, r0, lsr lr
    1700:	31303332 	teqcc	r0, r2, lsr r3
    1704:	30313631 	eorscc	r3, r1, r1, lsr r6
    1708:	745c3330 	ldrbvc	r3, [ip], #-816	; 0xfffffcd0
    170c:	736c6f6f 	cmnvc	ip, #444	; 0x1bc
    1710:	6d72615c 	ldfvse	f6, [r2, #-368]!	; 0xfffffe90
    1714:	6e6f6e2d 	cdpvs	14, 6, cr6, cr15, cr13, {1}
    1718:	61652d65 	cmnvs	r5, r5, ror #26
    171c:	695c6962 	ldmdbvs	ip, {r1, r5, r6, r8, fp, sp, lr}^
    1720:	756c636e 	strbvc	r6, [ip, #-878]!	; 0xfffffc92
    1724:	6e5c6564 	cdpvs	5, 5, cr6, cr12, cr4, {3}
    1728:	696c7765 	stmdbvs	ip!, {r0, r2, r5, r6, r8, r9, sl, ip, sp, lr}^
    172c:	616e2d62 	cmnvs	lr, r2, ror #26
    1730:	67006f6e 	strvs	r6, [r0, -lr, ror #30]
    1734:	6e655c3a 	mcrvs	12, 3, r5, cr5, cr10, {1}
    1738:	2d74732e 	ldclcs	3, cr7, [r4, #-184]!	; 0xffffff48
    173c:	336d7473 	cmncc	sp, #1929379840	; 0x73000000
    1740:	62756332 	rsbsvs	r6, r5, #-939524096	; 0xc8000000
    1744:	65646965 	strbvs	r6, [r4, #-2405]!	; 0xfffff69b
    1748:	342e315f 	strtcc	r3, [lr], #-351	; 0xfffffea1
    174c:	375f302e 	ldrbcc	r3, [pc, -lr, lsr #32]
    1750:	5f313135 	svcpl	0x00313135
    1754:	30323032 	eorscc	r3, r2, r2, lsr r0
    1758:	30323730 	eorscc	r3, r2, r0, lsr r7
    175c:	3239305f 	eorscc	r3, r9, #95	; 0x5f
    1760:	38785f38 	ldmdacc	r8!, {r3, r4, r5, r8, r9, sl, fp, ip, lr}^
    1764:	34365f36 	ldrtcc	r5, [r6], #-3894	; 0xfffff0ca
    1768:	6578655f 	ldrbvs	r6, [r8, #-1375]!	; 0xfffffaa1
    176c:	6d74735c 	ldclvs	3, cr7, [r4, #-368]!	; 0xfffffe90
    1770:	75633233 	strbvc	r3, [r3, #-563]!	; 0xfffffdcd
    1774:	64696562 	strbtvs	r6, [r9], #-1378	; 0xfffffa9e
    1778:	2e315f65 	cdpcs	15, 3, cr5, cr1, cr5, {3}
    177c:	5c302e34 	ldcpl	14, cr2, [r0], #-208	; 0xffffff30
    1780:	336d7473 	cmncc	sp, #1929379840	; 0x73000000
    1784:	62756332 	rsbsvs	r6, r5, #-939524096	; 0xc8000000
    1788:	65646965 	strbvs	r6, [r4, #-2405]!	; 0xfffff69b
    178c:	756c705c 	strbvc	r7, [ip, #-92]!	; 0xffffffa4
    1790:	736e6967 	cmnvc	lr, #1687552	; 0x19c000
    1794:	6d6f635c 	stclvs	3, cr6, [pc, #-368]!	; 162c <_Min_Stack_Size+0x122c>
    1798:	2e74732e 	cdpcs	3, 7, cr7, cr4, cr14, {1}
    179c:	336d7473 	cmncc	sp, #1929379840	; 0x73000000
    17a0:	62756332 	rsbsvs	r6, r5, #-939524096	; 0xc8000000
    17a4:	64692e65 	strbtvs	r2, [r9], #-3685	; 0xfffff19b
    17a8:	636d2e65 	cmnvs	sp, #1616	; 0x650
    17ac:	78652e75 	stmdavc	r5!, {r0, r2, r4, r5, r6, r9, sl, fp, sp}^
    17b0:	6e726574 	mrcvs	5, 3, r6, cr2, cr4, {3}
    17b4:	6f746c61 	svcvs	0x00746c61
    17b8:	2e736c6f 	cdpcs	12, 7, cr6, cr3, cr15, {3}
    17bc:	2d756e67 	ldclcs	14, cr6, [r5, #-412]!	; 0xfffffe64
    17c0:	6c6f6f74 	stclvs	15, cr6, [pc], #-464	; 15f8 <_Min_Stack_Size+0x11f8>
    17c4:	6f662d73 	svcvs	0x00662d73
    17c8:	74732d72 	ldrbtvc	r2, [r3], #-3442	; 0xfffff28e
    17cc:	2e32336d 	cdpcs	3, 3, cr3, cr2, cr13, {3}
    17d0:	332e3031 			; <UNDEFINED> instruction: 0x332e3031
    17d4:	3230322d 	eorscc	r3, r0, #-805306366	; 0xd0000002
    17d8:	30312e31 	eorscc	r2, r1, r1, lsr lr
    17dc:	6e69772e 	cdpvs	7, 6, cr7, cr9, cr14, {1}
    17e0:	315f3233 	cmpcc	pc, r3, lsr r2	; <UNPREDICTABLE>
    17e4:	322e302e 	eorcc	r3, lr, #46	; 0x2e
    17e8:	322e3030 	eorcc	r3, lr, #48	; 0x30
    17ec:	30333230 	eorscc	r3, r3, r0, lsr r2
    17f0:	31363131 	teqcc	r6, r1, lsr r1
    17f4:	5c333030 	ldcpl	0, cr3, [r3], #-192	; 0xffffff40
    17f8:	6c6f6f74 	stclvs	15, cr6, [pc], #-464	; 1630 <_Min_Stack_Size+0x1230>
    17fc:	696c5c73 	stmdbvs	ip!, {r0, r1, r4, r5, r6, sl, fp, ip, lr}^
    1800:	63675c62 	cmnvs	r7, #25088	; 0x6200
    1804:	72615c63 	rsbvc	r5, r1, #25344	; 0x6300
    1808:	6f6e2d6d 	svcvs	0x006e2d6d
    180c:	652d656e 	strvs	r6, [sp, #-1390]!	; 0xfffffa92
    1810:	5c696261 	sfmpl	f6, 2, [r9], #-388	; 0xfffffe7c
    1814:	332e3031 			; <UNDEFINED> instruction: 0x332e3031
    1818:	695c312e 	ldmdbvs	ip, {r1, r2, r3, r5, r8, ip, sp}^
    181c:	756c636e 	strbvc	r6, [ip, #-878]!	; 0xfffffc92
    1820:	00006564 	andeq	r6, r0, r4, ror #10
    1824:	336d7473 	cmncc	sp, #1929379840	; 0x73000000
    1828:	31665f32 	cmncc	r6, r2, lsr pc
    182c:	36633330 			; <UNDEFINED> instruction: 0x36633330
    1830:	6972645f 	ldmdbvs	r2!, {r0, r1, r2, r3, r4, r6, sl, sp, lr}^
    1834:	73726576 	cmnvc	r2, #494927872	; 0x1d800000
    1838:	6970675f 	ldmdbvs	r0!, {r0, r1, r2, r3, r4, r6, r8, r9, sl, sp, lr}^
    183c:	00632e6f 	rsbeq	r2, r3, pc, ror #28
    1840:	5f000001 	svcpl	0x00000001
    1844:	61666564 	cmnvs	r6, r4, ror #10
    1848:	5f746c75 	svcpl	0x00746c75
    184c:	65707974 	ldrbvs	r7, [r0, #-2420]!	; 0xfffff68c
    1850:	00682e73 	rsbeq	r2, r8, r3, ror lr
    1854:	5f000002 	svcpl	0x00000002
    1858:	69647473 	stmdbvs	r4!, {r0, r1, r4, r5, r6, sl, ip, sp, lr}^
    185c:	682e746e 	stmdavs	lr!, {r1, r2, r3, r5, r6, sl, ip, sp, lr}
    1860:	00000300 	andeq	r0, r0, r0, lsl #6
    1864:	336d7473 	cmncc	sp, #1929379840	; 0x73000000
    1868:	31665f32 	cmncc	r6, r2, lsr pc
    186c:	36783330 			; <UNDEFINED> instruction: 0x36783330
    1870:	0400682e 	streq	r6, [r0], #-2094	; 0xfffff7d2
    1874:	74730000 	ldrbtvc	r0, [r3], #-0
    1878:	5f32336d 	svcpl	0x0032336d
    187c:	33303166 	teqcc	r0, #-2147483623	; 0x80000019
    1880:	645f3663 	ldrbvs	r3, [pc], #-1635	; 1888 <_Min_Stack_Size+0x1488>
    1884:	65766972 	ldrbvs	r6, [r6, #-2418]!	; 0xfffff68e
    1888:	475f7372 			; <UNDEFINED> instruction: 0x475f7372
    188c:	2e4f4950 			; <UNDEFINED> instruction: 0x2e4f4950
    1890:	00040068 	andeq	r0, r4, r8, rrx
    1894:	64747300 	ldrbtvs	r7, [r4], #-768	; 0xfffffd00
    1898:	2e62696c 	vnmulcs.f16	s13, s4, s25	; <UNPREDICTABLE>
    189c:	00050068 	andeq	r0, r5, r8, rrx
    18a0:	65656900 	strbvs	r6, [r5, #-2304]!	; 0xfffff700
    18a4:	2e706665 	cdpcs	6, 7, cr6, cr0, cr5, {3}
    18a8:	00020068 	andeq	r0, r2, r8, rrx
    18ac:	6e615f00 	cdpvs	15, 6, cr5, cr1, cr0, {0}
    18b0:	682e6973 	stmdavs	lr!, {r0, r1, r4, r5, r6, r8, fp, sp, lr}
    18b4:	00000500 	andeq	r0, r0, r0, lsl #10
    18b8:	6c77656e 	cfldr64vs	mvdx6, [r7], #-440	; 0xfffffe48
    18bc:	682e6269 	stmdavs	lr!, {r0, r3, r5, r6, r9, sp, lr}
    18c0:	00000600 	andeq	r0, r0, r0, lsl #12
    18c4:	77656e5f 			; <UNDEFINED> instruction: 0x77656e5f
    18c8:	5f62696c 	svcpl	0x0062696c
    18cc:	73726576 	cmnvc	r2, #494927872	; 0x1d800000
    18d0:	2e6e6f69 	cdpcs	15, 6, cr6, cr14, cr9, {3}
    18d4:	00050068 	andeq	r0, r5, r8, rrx
    18d8:	6e6f6300 	cdpvs	3, 6, cr6, cr15, cr0, {0}
    18dc:	2e676966 	vnmulcs.f16	s13, s14, s13	; <UNPREDICTABLE>
    18e0:	00030068 	andeq	r0, r3, r8, rrx
    18e4:	61656600 	cmnvs	r5, r0, lsl #12
    18e8:	65727574 	ldrbvs	r7, [r2, #-1396]!	; 0xfffffa8c
    18ec:	00682e73 	rsbeq	r2, r8, r3, ror lr
    18f0:	73000003 	movwvc	r0, #3
    18f4:	65646474 	strbvs	r6, [r4, #-1140]!	; 0xfffffb8c
    18f8:	00682e66 	rsbeq	r2, r8, r6, ror #28
    18fc:	72000007 	andvc	r0, r0, #7
    1900:	746e6565 	strbtvc	r6, [lr], #-1381	; 0xfffffa9b
    1904:	0300682e 	movweq	r6, #2094	; 0x82e
    1908:	745f0000 	ldrbvc	r0, [pc], #-0	; 1910 <_Min_Stack_Size+0x1510>
    190c:	73657079 	cmnvc	r5, #121	; 0x79
    1910:	0300682e 	movweq	r6, #2094	; 0x82e
    1914:	745f0000 	ldrbvc	r0, [pc], #-0	; 191c <_Min_Stack_Size+0x151c>
    1918:	73657079 	cmnvc	r5, #121	; 0x79
    191c:	0200682e 	andeq	r6, r0, #3014656	; 0x2e0000
    1920:	6f6c0000 	svcvs	0x006c0000
    1924:	682e6b63 	stmdavs	lr!, {r0, r1, r5, r6, r8, r9, fp, sp, lr}
    1928:	00000300 	andeq	r0, r0, r0, lsl #6
    192c:	65737361 	ldrbvs	r7, [r3, #-865]!	; 0xfffffc9f
    1930:	682e7472 	stmdavs	lr!, {r1, r4, r5, r6, sl, ip, sp, lr}
    1934:	00000500 	andeq	r0, r0, r0, lsl #10
    1938:	66656463 	strbtvs	r6, [r5], -r3, ror #8
    193c:	00682e73 	rsbeq	r2, r8, r3, ror lr
    1940:	73000003 	movwvc	r0, #3
    1944:	696c6474 	stmdbvs	ip!, {r2, r4, r5, r6, sl, sp, lr}^
    1948:	00682e62 	rsbeq	r2, r8, r2, ror #28
    194c:	61000002 	tstvs	r0, r2
    1950:	636f6c6c 	cmnvs	pc, #108, 24	; 0x6c00
    1954:	00682e61 	rsbeq	r2, r8, r1, ror #28
    1958:	73000005 	movwvc	r0, #5
    195c:	6e696474 	mcrvs	4, 3, r6, cr9, cr4, {3}
    1960:	00682e74 	rsbeq	r2, r8, r4, ror lr
    1964:	73000007 	movwvc	r0, #7
    1968:	6e696474 	mcrvs	4, 3, r6, cr9, cr4, {3}
    196c:	00682e74 	rsbeq	r2, r8, r4, ror lr
    1970:	5f000005 	svcpl	0x00000005
    1974:	73746e69 	cmnvc	r4, #1680	; 0x690
    1978:	682e7075 	stmdavs	lr!, {r0, r2, r4, r5, r6, ip, sp, lr}
    197c:	00000300 	andeq	r0, r0, r0, lsl #6
    1980:	00010500 	andeq	r0, r1, r0, lsl #10
    1984:	07dc0205 	ldrbeq	r0, [ip, r5, lsl #4]
    1988:	17030800 	strne	r0, [r3, -r0, lsl #16]
    198c:	59020501 	stmdbpl	r2, {r0, r8, sl}
    1990:	8c020a05 			; <UNDEFINED> instruction: 0x8c020a05
    1994:	31311501 	teqcc	r1, r1, lsl #10
    1998:	31313131 	teqcc	r1, r1, lsr r1
    199c:	31313131 	teqcc	r1, r1, lsr r1
    19a0:	31313131 	teqcc	r1, r1, lsr r1
    19a4:	31090531 	tstcc	r9, r1, lsr r5
    19a8:	02210105 	eoreq	r0, r1, #1073741825	; 0x40000001
    19ac:	01010005 	tsteq	r1, r5
    19b0:	05000105 	streq	r0, [r0, #-261]	; 0xfffffefb
    19b4:	00094c02 	andeq	r4, r9, r2, lsl #24
    19b8:	00d10308 	sbcseq	r0, r1, r8, lsl #6
    19bc:	59160501 	ldmdbpl	r6, {r0, r8, sl}
    19c0:	052f0a05 	streq	r0, [pc, #-2565]!	; fc3 <_Min_Stack_Size+0xbc3>
    19c4:	4d052f1e 	stcmi	15, cr2, [r5, #-120]	; 0xffffff88
    19c8:	0402002e 	streq	r0, [r2], #-46	; 0xffffffd2
    19cc:	002e0601 	eoreq	r0, lr, r1, lsl #12
    19d0:	2e020402 	cdpcs	4, 0, cr0, cr2, cr2, {0}
    19d4:	02001105 	andeq	r1, r0, #1073741825	; 0x40000001
    19d8:	2e060404 	cdpcs	4, 0, cr0, cr6, cr4, {0}
    19dc:	02002005 	andeq	r2, r0, #5
    19e0:	05230404 	streq	r0, [r3, #-1028]!	; 0xfffffbfc
    19e4:	0402001c 	streq	r0, [r2], #-28	; 0xffffffe4
    19e8:	16057404 	strne	r7, [r5], -r4, lsl #8
    19ec:	04040200 	streq	r0, [r4], #-512	; 0xfffffe00
    19f0:	0013052e 	andseq	r0, r3, lr, lsr #10
    19f4:	20040402 	andcs	r0, r4, r2, lsl #8
    19f8:	02000f05 	andeq	r0, r0, #5, 30
    19fc:	055b0404 	ldrbeq	r0, [fp, #-1028]	; 0xfffffbfc
    1a00:	04020004 	streq	r0, [r2], #-4
    1a04:	3f052e04 	svccc	0x00052e04
    1a08:	01040200 	mrseq	r0, R12_usr
    1a0c:	0033052e 	eorseq	r0, r3, lr, lsr #10
    1a10:	2e010402 	cdpcs	4, 0, cr0, cr1, cr2, {0}
    1a14:	02006e05 	andeq	r6, r0, #5, 28	; 0x50
    1a18:	052e0204 	streq	r0, [lr, #-516]!	; 0xfffffdfc
    1a1c:	04020062 	streq	r0, [r2], #-98	; 0xffffff9e
    1a20:	a0052e02 	andge	r2, r5, r2, lsl #28
    1a24:	04020001 	streq	r0, [r2], #-1
    1a28:	94052e03 	strls	r2, [r5], #-3587	; 0xfffff1fd
    1a2c:	04020001 	streq	r0, [r2], #-1
    1a30:	1d052e03 	stcne	14, cr2, [r5, #-12]
    1a34:	2e290531 	mcrcs	5, 1, r0, cr9, cr1, {1}
    1a38:	05202e05 	streq	r2, [r0, #-3589]!	; 0xfffff1fb
    1a3c:	40052033 	andmi	r2, r5, r3, lsr r0
    1a40:	3c560520 	cfldr64cc	mvdx0, [r6], {32}
    1a44:	053c3305 	ldreq	r3, [ip, #-773]!	; 0xfffffcfb
    1a48:	11052e0e 	tstne	r5, lr, lsl #28
    1a4c:	2e050536 	mcrcs	5, 0, r0, cr5, cr6, {1}
    1a50:	02003f05 	andeq	r3, r0, #5, 30
    1a54:	052e0104 	streq	r0, [lr, #-260]!	; 0xfffffefc
    1a58:	04020032 	streq	r0, [r2], #-50	; 0xffffffce
    1a5c:	1d052e01 	stcne	14, cr2, [r5, #-4]
    1a60:	2e0f0530 	cfmv64hrcs	mvdx15, r0
    1a64:	053f1505 	ldreq	r1, [pc, #-1285]!	; 1567 <_Min_Stack_Size+0x1167>
    1a68:	0f052e0a 	svceq	0x00052e0a
    1a6c:	10054130 	andne	r4, r5, r0, lsr r1
    1a70:	2e06052f 	cfsh32cs	mvfx0, mvfx6, #31
    1a74:	05311005 	ldreq	r1, [r1, #-5]!
    1a78:	10052e1c 	andne	r2, r5, ip, lsl lr
    1a7c:	1e054d2e 	cdpne	13, 0, cr4, cr5, cr14, {1}
    1a80:	2e13052e 	cfmul64cs	mvdx0, mvdx3, mvdx14
    1a84:	05201005 	streq	r1, [r0, #-5]!
    1a88:	29054126 	stmdbcs	r5, {r1, r2, r5, r8, lr}
    1a8c:	66260520 	strtvs	r0, [r6], -r0, lsr #10
    1a90:	052e1405 	streq	r1, [lr, #-1029]!	; 0xfffffbfb
    1a94:	04025a01 	streq	r5, [r2], #-2561	; 0xfffff5ff
    1a98:	05010100 	streq	r0, [r1, #-256]	; 0xffffff00
    1a9c:	02050001 	andeq	r0, r5, #1
    1aa0:	00000000 	andeq	r0, r0, r0
    1aa4:	01018b03 	tsteq	r1, r3, lsl #22
    1aa8:	054b0405 	strbeq	r0, [fp, #-1029]	; 0xfffffbfb
    1aac:	05674b11 	strbeq	r4, [r7, #-2833]!	; 0xfffff4ef
    1ab0:	11056904 	tstne	r5, r4, lsl #18
    1ab4:	0405674b 	streq	r6, [r5], #-1867	; 0xfffff8b5
    1ab8:	4b110569 	blmi	443064 <_Min_Stack_Size+0x442c64>
    1abc:	69040567 	stmdbvs	r4, {r0, r1, r2, r5, r6, r8, sl}
    1ac0:	674b1105 	strbvs	r1, [fp, -r5, lsl #2]
    1ac4:	05690405 	strbeq	r0, [r9, #-1029]!	; 0xfffffbfb
    1ac8:	05674b11 	strbeq	r4, [r7, #-2833]!	; 0xfffff4ef
    1acc:	12026801 	andne	r6, r2, #65536	; 0x10000
    1ad0:	05010100 	streq	r0, [r1, #-256]	; 0xffffff00
    1ad4:	02050001 	andeq	r0, r5, #1
    1ad8:	00000000 	andeq	r0, r0, r0
    1adc:	0101b203 	tsteq	r1, r3, lsl #4
    1ae0:	05680c05 	strbeq	r0, [r8, #-3077]!	; 0xfffff3fb
    1ae4:	04052e12 	streq	r2, [r5], #-3602	; 0xfffff1ee
    1ae8:	2f0d052e 	svccs	0x000d052e
    1aec:	3109053e 	tstcc	r9, lr, lsr r5
    1af0:	02210105 	eoreq	r0, r1, #1073741825	; 0x40000001
    1af4:	01010005 	tsteq	r1, r5
    1af8:	05000105 	streq	r0, [r0, #-261]	; 0xfffffefb
    1afc:	00000002 	andeq	r0, r0, r2
    1b00:	01c90300 	biceq	r0, r9, r0, lsl #6
    1b04:	4c1e0501 	cfldr32mi	mvfx0, [lr], {1}
    1b08:	052e0c05 	streq	r0, [lr, #-3077]!	; 0xfffff3fb
    1b0c:	01052109 	tsteq	r5, r9, lsl #2
    1b10:	00050221 	andeq	r0, r5, r1, lsr #4
    1b14:	01050101 	tsteq	r5, r1, lsl #2
    1b18:	00020500 	andeq	r0, r2, r0, lsl #10
    1b1c:	03000000 	movweq	r0, #0
    1b20:	050101dc 	streq	r0, [r1, #-476]	; 0xfffffe24
    1b24:	0d05670f 	stceq	7, cr6, [r5, #-60]	; 0xffffffc4
    1b28:	2f010520 	svccs	0x00010520
    1b2c:	01000502 	tsteq	r0, r2, lsl #10
    1b30:	00010501 	andeq	r0, r1, r1, lsl #10
    1b34:	00000205 	andeq	r0, r0, r5, lsl #4
    1b38:	eb030000 	bl	c1b40 <_Min_Stack_Size+0xc1740>
    1b3c:	04050101 	streq	r0, [r5], #-257	; 0xfffffeff
    1b40:	44100583 	ldrmi	r0, [r0], #-1411	; 0xfffffa7d
    1b44:	05200f05 	streq	r0, [r0, #-3845]!	; 0xfffff0fb
    1b48:	2e090301 	cdpcs	3, 0, cr0, cr9, cr1, {0}
    1b4c:	051e0f05 	ldreq	r0, [lr, #-3845]	; 0xfffff0fb
    1b50:	0105200e 	tsteq	r5, lr
    1b54:	00050230 	andeq	r0, r5, r0, lsr r2
    1b58:	01050101 	tsteq	r5, r1, lsl #2
    1b5c:	00020500 	andeq	r0, r2, r0, lsl #10
    1b60:	03000000 	movweq	r0, #0
    1b64:	0501028a 	streq	r0, [r1, #-650]	; 0xfffffd76
    1b68:	0105670d 	tsteq	r5, sp, lsl #14
    1b6c:	00050267 	andeq	r0, r5, r7, ror #4
    1b70:	Address 0x0000000000001b70 is out of bounds.


Disassembly of section .debug_str:

00000000 <.debug_str>:
       0:	4e475f5f 	mcrmi	15, 2, r5, cr7, cr15, {2}
       4:	494c4355 	stmdbmi	ip, {r0, r2, r4, r6, r8, r9, lr}^
       8:	5f5f454b 	svcpl	0x005f454b
       c:	4345535f 	movtmi	r5, #21343	; 0x535f
      10:	4e4f4954 			; <UNDEFINED> instruction: 0x4e4f4954
      14:	5f003120 	svcpl	0x00003120
      18:	5858475f 	ldmdapl	r8, {r0, r1, r2, r3, r4, r6, r8, r9, sl, lr}^
      1c:	5059545f 	subspl	r5, r9, pc, asr r4
      20:	464e4945 	strbmi	r4, [lr], -r5, asr #18
      24:	51455f4f 	cmppl	r5, pc, asr #30
      28:	494c4155 	stmdbmi	ip, {r0, r2, r4, r6, r8, lr}^
      2c:	495f5954 	ldmdbmi	pc, {r2, r4, r6, r8, fp, ip, lr}^	; <UNPREDICTABLE>
      30:	4e494c4e 	cdpmi	12, 4, cr4, cr9, cr14, {2}
      34:	00302045 	eorseq	r2, r0, r5, asr #32
      38:	544e4957 	strbpl	r4, [lr], #-2391	; 0xfffff6a9
      3c:	4e494d5f 	mcrmi	13, 2, r4, cr9, cr15, {2}
      40:	5f5f2820 	svcpl	0x005f2820
      44:	544e4957 	strbpl	r4, [lr], #-2391	; 0xfffff6a9
      48:	4e494d5f 	mcrmi	13, 2, r4, cr9, cr15, {2}
      4c:	00295f5f 	eoreq	r5, r9, pc, asr pc
      50:	45445f5f 	strbmi	r5, [r4, #-3935]	; 0xfffff0a1
      54:	414d4943 	cmpmi	sp, r3, asr #18
      58:	49445f4c 	stmdbmi	r4, {r2, r3, r6, r8, r9, sl, fp, ip, lr}^
      5c:	205f5f47 	subscs	r5, pc, r7, asr #30
      60:	5f003731 	svcpl	0x00003731
      64:	4148555f 	cmpmi	r8, pc, asr r5
      68:	4942465f 	stmdbmi	r2, {r0, r1, r2, r3, r4, r6, r9, sl, lr}^
      6c:	205f5f54 	subscs	r5, pc, r4, asr pc	; <UNPREDICTABLE>
      70:	5f5f0038 	svcpl	0x005f0038
      74:	44495653 	strbmi	r5, [r9], #-1619	; 0xfffff9ad
      78:	5349565f 	movtpl	r5, #38495	; 0x965f
      7c:	454c4249 	strbmi	r4, [ip, #-585]	; 0xfffffdb7
      80:	5f003120 	svcpl	0x00003120
      84:	746e695f 	strbtvc	r6, [lr], #-2399	; 0xfffff6a1
      88:	2b203032 	blcs	80c158 <_Min_Stack_Size+0x80bd58>
      8c:	5f5f0032 	svcpl	0x005f0032
      90:	36544c46 	ldrbcc	r4, [r4], -r6, asr #24
      94:	45445f34 	strbmi	r5, [r4, #-3892]	; 0xfffff0cc
      98:	4d524f4e 	ldclmi	15, cr4, [r2, #-312]	; 0xfffffec8
      9c:	4e494d5f 	mcrmi	13, 2, r4, cr9, cr15, {2}
      a0:	34205f5f 	strtcc	r5, [r0], #-3935	; 0xfffff0a1
      a4:	3034392e 	eorscc	r3, r4, lr, lsr #18
      a8:	34363536 	ldrtcc	r3, [r6], #-1334	; 0xfffffaca
      ac:	31343835 	teqcc	r4, r5, lsr r8
      b0:	35363432 	ldrcc	r3, [r6, #-1074]!	; 0xfffffbce
      b4:	332d6534 			; <UNDEFINED> instruction: 0x332d6534
      b8:	36463432 			; <UNDEFINED> instruction: 0x36463432
      bc:	50470034 	subpl	r0, r7, r4, lsr r0
      c0:	505f4f49 	subspl	r4, pc, r9, asr #30
      c4:	6d5f4e49 	ldclvs	14, cr4, [pc, #-292]	; ffffffa8 <_estack+0xdfffd7a8>
      c8:	206b7361 	rsbcs	r7, fp, r1, ror #6
      cc:	30307830 	eorscc	r7, r0, r0, lsr r8
      d0:	46463030 			; <UNDEFINED> instruction: 0x46463030
      d4:	00754646 	rsbseq	r4, r5, r6, asr #12
      d8:	43475f5f 	movtmi	r5, #32607	; 0x7f5f
      dc:	54415f43 	strbpl	r5, [r1], #-3907	; 0xfffff0bd
      e0:	43494d4f 	movtmi	r4, #40271	; 0x9d4f
      e4:	4843575f 	stmdami	r3, {r0, r1, r2, r3, r4, r6, r8, r9, sl, ip, lr}^
      e8:	545f5241 	ldrbpl	r5, [pc], #-577	; f0 <_Min_Heap_Size-0x110>
      ec:	434f4c5f 	movtmi	r4, #64607	; 0xfc5f
      f0:	52465f4b 	subpl	r5, r6, #300	; 0x12c
      f4:	32204545 	eorcc	r4, r0, #289406976	; 0x11400000
      f8:	435f5f00 	cmpmi	pc, #0, 30
      fc:	5f524148 	svcpl	0x00524148
     100:	49534e55 	ldmdbmi	r3, {r0, r2, r4, r6, r9, sl, fp, lr}^
     104:	44454e47 	strbmi	r4, [r5], #-3655	; 0xfffff1b9
     108:	31205f5f 			; <UNDEFINED> instruction: 0x31205f5f
     10c:	775f5f00 	ldrbvc	r5, [pc, -r0, lsl #30]
     110:	5f6b6165 	svcpl	0x006b6165
     114:	626d7973 	rsbvs	r7, sp, #1884160	; 0x1cc000
     118:	5f206c6f 	svcpl	0x00206c6f
     11c:	7474615f 	ldrbtvc	r6, [r4], #-351	; 0xfffffea1
     120:	75626972 	strbvc	r6, [r2, #-2418]!	; 0xfffff68e
     124:	5f5f6574 	svcpl	0x005f6574
     128:	5f5f2828 	svcpl	0x005f2828
     12c:	6b616577 	blvs	1859710 <_Min_Stack_Size+0x1859310>
     130:	29295f5f 	stmdbcs	r9!, {r0, r1, r2, r3, r4, r6, r8, r9, sl, fp, ip, lr}
     134:	41535500 	cmpmi	r3, r0, lsl #10
     138:	20325452 	eorscs	r5, r2, r2, asr r4
     13c:	53552828 	cmppl	r5, #40, 16	; 0x280000
     140:	5f545241 	svcpl	0x00545241
     144:	65707954 	ldrbvs	r7, [r0, #-2388]!	; 0xfffff6ac
     148:	5f666564 	svcpl	0x00666564
     14c:	292a2074 	stmdbcs	sl!, {r2, r4, r5, r6, sp}
     150:	52415355 	subpl	r5, r1, #1409286145	; 0x54000001
     154:	425f3254 	subsmi	r3, pc, #84, 4	; 0x40000005
     158:	29455341 	stmdbcs	r5, {r0, r6, r8, r9, ip, lr}^
     15c:	465f5f00 	ldrbmi	r5, [pc], -r0, lsl #30
     160:	3436544c 	ldrtcc	r5, [r6], #-1100	; 0xfffffbb4
     164:	5341485f 	movtpl	r4, #6239	; 0x185f
     168:	464e495f 			; <UNDEFINED> instruction: 0x464e495f
     16c:	54494e49 	strbpl	r4, [r9], #-3657	; 0xfffff1b7
     170:	205f5f59 	subscs	r5, pc, r9, asr pc	; <UNPREDICTABLE>
     174:	53550031 	cmppl	r5, #49	; 0x31
     178:	33545241 	cmpcc	r4, #268435460	; 0x10000004
     17c:	5341425f 	movtpl	r4, #4703	; 0x125f
     180:	78302045 	ldmdavc	r0!, {r0, r2, r6, sp}
     184:	30303034 	eorscc	r3, r0, r4, lsr r0
     188:	30303434 	eorscc	r3, r0, r4, lsr r4
     18c:	5f5f0075 	svcpl	0x005f0075
     190:	75716572 	ldrbvc	r6, [r1, #-1394]!	; 0xfffffa8e
     194:	73657269 	cmnvc	r5, #-1879048186	; 0x90000006
     198:	6378655f 	cmnvs	r8, #398458880	; 0x17c00000
     19c:	6973756c 	ldmdbvs	r3!, {r2, r3, r5, r6, r8, sl, ip, sp, lr}^
     1a0:	2e286576 	mcrcs	5, 1, r6, cr8, cr6, {3}
     1a4:	20292e2e 	eorcs	r2, r9, lr, lsr #28
     1a8:	6f6c5f5f 	svcvs	0x006c5f5f
     1ac:	615f6b63 	cmpvs	pc, r3, ror #22
     1b0:	746f6e6e 	strbtvc	r6, [pc], #-3694	; 1b8 <_Min_Heap_Size-0x48>
     1b4:	28657461 	stmdacs	r5!, {r0, r5, r6, sl, ip, sp, lr}^
     1b8:	6c637865 	stclvs	8, cr7, [r3], #-404	; 0xfffffe6c
     1bc:	76697375 			; <UNDEFINED> instruction: 0x76697375
     1c0:	6f6c5f65 	svcvs	0x006c5f65
     1c4:	5f736b63 	svcpl	0x00736b63
     1c8:	75716572 	ldrbvc	r6, [r1, #-1394]!	; 0xfffffa8e
     1cc:	64657269 	strbtvs	r7, [r5], #-617	; 0xfffffd97
     1d0:	565f5f28 	ldrbpl	r5, [pc], -r8, lsr #30
     1d4:	52415f41 	subpl	r5, r1, #260	; 0x104
     1d8:	5f5f5347 	svcpl	0x005f5347
     1dc:	5f002929 	svcpl	0x00002929
     1e0:	4e454552 	mcrmi	5, 2, r4, cr5, cr2, {2}
     1e4:	41525f54 	cmpmi	r2, r4, asr pc
     1e8:	3834444e 	ldmdacc	r4!, {r1, r2, r3, r6, sl, lr}
     1ec:	4444415f 	strbmi	r4, [r4], #-351	; 0xfffffea1
     1f0:	72747028 	rsbsvc	r7, r4, #40	; 0x28
     1f4:	28282029 	stmdacs	r8!, {r0, r3, r5, sp}
     1f8:	29727470 	ldmdbcs	r2!, {r4, r5, r6, sl, ip, sp, lr}^
     1fc:	725f3e2d 	subsvc	r3, pc, #720	; 0x2d0
     200:	3e2d3834 	mcrcc	8, 1, r3, cr13, cr4, {1}
     204:	6464615f 	strbtvs	r6, [r4], #-351	; 0xfffffea1
     208:	4e490029 	cdpmi	0, 4, cr0, cr9, cr9, {1}
     20c:	5f363154 	svcpl	0x00363154
     210:	204e494d 	subcs	r4, lr, sp, asr #18
     214:	5f5f2d28 	svcpl	0x005f2d28
     218:	31544e49 	cmpcc	r4, r9, asr #28
     21c:	414d5f36 	cmpmi	sp, r6, lsr pc
     220:	205f5f58 	subscs	r5, pc, r8, asr pc	; <UNPREDICTABLE>
     224:	2931202d 	ldmdbcs	r1!, {r0, r2, r3, r5, sp}
     228:	4c5f5f00 	mrrcmi	15, 0, r5, pc, cr0	; <UNPREDICTABLE>
     22c:	4343414c 	movtmi	r4, #12620	; 0x314c
     230:	4d5f4d55 	ldclmi	13, cr4, [pc, #-340]	; e4 <_Min_Heap_Size-0x11c>
     234:	5f5f4e49 	svcpl	0x005f4e49
     238:	302d2820 	eorcc	r2, sp, r0, lsr #16
     23c:	33503158 	cmpcc	r0, #88, 2
     240:	4b4c4c31 	blmi	131330c <_Min_Stack_Size+0x1312f0c>
     244:	3158302d 	cmpcc	r8, sp, lsr #32
     248:	4c313350 	ldcmi	3, cr3, [r1], #-320	; 0xfffffec0
     24c:	00294b4c 	eoreq	r4, r9, ip, asr #22
     250:	54524f43 	ldrbpl	r4, [r2], #-3907	; 0xfffff0bd
     254:	4d5f5845 	ldclmi	8, cr5, [pc, #-276]	; 148 <_Min_Heap_Size-0xb8>
     258:	4e495f33 	mcrmi	15, 2, r5, cr9, cr3, {1}
     25c:	4e524554 	mrcmi	5, 2, r4, cr2, cr4, {2}
     260:	505f4c41 	subspl	r4, pc, r1, asr #24
     264:	50495245 	subpl	r5, r9, r5, asr #4
     268:	41524548 	cmpmi	r2, r8, asr #10
     26c:	425f534c 	subsmi	r5, pc, #76, 6	; 0x30000001
     270:	20455341 	subcs	r5, r5, r1, asr #6
     274:	30457830 	subcc	r7, r5, r0, lsr r8
     278:	30303030 	eorscc	r3, r0, r0, lsr r0
     27c:	00753030 	rsbseq	r3, r5, r0, lsr r0
     280:	4f4c5f5f 	svcmi	0x004c5f5f
     284:	495f4b43 	ldmdbmi	pc, {r0, r1, r6, r8, r9, fp, lr}^	; <UNPREDICTABLE>
     288:	2854494e 	ldmdacs	r4, {r1, r2, r3, r6, r8, fp, lr}^
     28c:	73616c63 	cmnvc	r1, #25344	; 0x6300
     290:	6f6c2c73 	svcvs	0x006c2c73
     294:	20296b63 	eorcs	r6, r9, r3, ror #22
     298:	65747865 	ldrbvs	r7, [r4, #-2149]!	; 0xfffff79b
     29c:	73206e72 			; <UNDEFINED> instruction: 0x73206e72
     2a0:	63757274 	cmnvs	r5, #116, 4	; 0x40000007
     2a4:	5f5f2074 	svcpl	0x005f2074
     2a8:	6b636f6c 	blvs	18dc060 <_Min_Stack_Size+0x18dbc60>
     2ac:	6c5f5f20 	mrrcvs	15, 2, r5, pc, cr0	; <UNPREDICTABLE>
     2b0:	5f6b636f 	svcpl	0x006b636f
     2b4:	20232320 	eorcs	r2, r3, r0, lsr #6
     2b8:	6b636f6c 	blvs	18dc070 <_Min_Stack_Size+0x18dbc70>
     2bc:	6c63203b 	stclvs	0, cr2, [r3], #-236	; 0xffffff14
     2c0:	20737361 	rsbscs	r7, r3, r1, ror #6
     2c4:	434f4c5f 	movtmi	r4, #64607	; 0xfc5f
     2c8:	20545f4b 	subscs	r5, r4, fp, asr #30
     2cc:	6b636f6c 	blvs	18dc084 <_Min_Stack_Size+0x18dbc84>
     2d0:	26203d20 	strtcs	r3, [r0], -r0, lsr #26
     2d4:	6f6c5f5f 	svcvs	0x006c5f5f
     2d8:	205f6b63 	subscs	r6, pc, r3, ror #22
     2dc:	6c202323 	stcvs	3, cr2, [r0], #-140	; 0xffffff74
     2e0:	006b636f 	rsbeq	r6, fp, pc, ror #6
     2e4:	54505f5f 	ldrbpl	r5, [r0], #-3935	; 0xfffff0a1
     2e8:	46494452 			; <UNDEFINED> instruction: 0x46494452
     2ec:	414d5f46 	cmpmi	sp, r6, asr #30
     2f0:	205f5f58 	subscs	r5, pc, r8, asr pc	; <UNPREDICTABLE>
     2f4:	66377830 			; <UNDEFINED> instruction: 0x66377830
     2f8:	66666666 	strbtvs	r6, [r6], -r6, ror #12
     2fc:	5f006666 	svcpl	0x00006666
     300:	474e4f4c 	strbmi	r4, [lr, -ip, asr #30]
     304:	554f445f 	strbpl	r4, [pc, #-1119]	; fffffead <_estack+0xdfffd6ad>
     308:	20454c42 	subcs	r4, r5, r2, asr #24
     30c:	676e6f6c 	strbvs	r6, [lr, -ip, ror #30]!
     310:	756f6420 	strbvc	r6, [pc, #-1056]!	; fffffef8 <_estack+0xdfffd6f8>
     314:	00656c62 	rsbeq	r6, r5, r2, ror #24
     318:	49545845 	ldmdbmi	r4, {r0, r2, r6, fp, ip, lr}^
     31c:	52495f39 	subpl	r5, r9, #57, 30	; 0xe4
     320:	33322051 	teqcc	r2, #81	; 0x51
     324:	495f5f00 	ldmdbmi	pc, {r8, r9, sl, fp, ip, lr}^	; <UNPREDICTABLE>
     328:	414d544e 	cmpmi	sp, lr, asr #8
     32c:	28435f58 	stmdacs	r3, {r3, r4, r6, r8, r9, sl, fp, ip, lr}^
     330:	63202963 			; <UNDEFINED> instruction: 0x63202963
     334:	20232320 	eorcs	r2, r3, r0, lsr #6
     338:	5f004c4c 	svcpl	0x00004c4c
     33c:	544e4955 	strbpl	r4, [lr], #-2389	; 0xfffff6ab
     340:	545f3233 	ldrbpl	r3, [pc], #-563	; 348 <_Min_Heap_Size+0x148>
     344:	4345445f 	movtmi	r4, #21599	; 0x545f
     348:	4552414c 	ldrbmi	r4, [r2, #-332]	; 0xfffffeb4
     34c:	5f002044 	svcpl	0x00002044
     350:	544e495f 	strbpl	r4, [lr], #-2399	; 0xfffff6a1
     354:	5f58414d 	svcpl	0x0058414d
     358:	5f58414d 	svcpl	0x0058414d
     35c:	7830205f 	ldmdavc	r0!, {r0, r1, r2, r3, r4, r6, sp}
     360:	66666637 			; <UNDEFINED> instruction: 0x66666637
     364:	66666666 	strbtvs	r6, [r6], -r6, ror #12
     368:	66666666 	strbtvs	r6, [r6], -r6, ror #12
     36c:	66666666 	strbtvs	r6, [r6], -r6, ror #12
     370:	5f004c4c 	svcpl	0x00004c4c
     374:	5f51545f 	svcpl	0x0051545f
     378:	54494249 	strbpl	r4, [r9], #-585	; 0xfffffdb7
     37c:	30205f5f 	eorcc	r5, r0, pc, asr pc
     380:	465f5f00 	ldrbmi	r5, [pc], -r0, lsl #30
     384:	3436544c 	ldrtcc	r5, [r6], #-1100	; 0xfffffbb4
     388:	4345445f 	movtmi	r4, #21599	; 0x545f
     38c:	4c414d49 	mcrrmi	13, 4, r4, r1, cr9
     390:	4749445f 	smlsldmi	r4, r9, pc, r4	; <UNPREDICTABLE>
     394:	31205f5f 			; <UNDEFINED> instruction: 0x31205f5f
     398:	58450037 	stmdapl	r5, {r0, r1, r2, r4, r5}^
     39c:	30314954 	eorscc	r4, r1, r4, asr r9
     3a0:	30314150 	eorscc	r4, r1, r0, asr r1
     3a4:	58452820 	stmdapl	r5, {r5, fp, sp}^
     3a8:	475f4954 			; <UNDEFINED> instruction: 0x475f4954
     3ac:	5f4f4950 	svcpl	0x004f4950
     3b0:	7070614d 	rsbsvc	r6, r0, sp, asr #2
     3b4:	5f676e69 	svcpl	0x00676e69
     3b8:	457b2974 	ldrbmi	r2, [fp, #-2420]!	; 0xfffff68c
     3bc:	31495458 	cmpcc	r9, r8, asr r4
     3c0:	47202c30 			; <UNDEFINED> instruction: 0x47202c30
     3c4:	414f4950 	cmpmi	pc, r0, asr r9	; <UNPREDICTABLE>
     3c8:	5047202c 	subpl	r2, r7, ip, lsr #32
     3cc:	505f4f49 	subspl	r4, pc, r9, asr #30
     3d0:	315f4e49 	cmpcc	pc, r9, asr #28
     3d4:	45202c30 	strmi	r2, [r0, #-3120]!	; 0xfffff3d0
     3d8:	31495458 	cmpcc	r9, r8, asr r4
     3dc:	52495f30 	subpl	r5, r9, #48, 30	; 0xc0
     3e0:	5f007d51 	svcpl	0x00007d51
     3e4:	4e454552 	mcrmi	5, 2, r4, cr5, cr2, {2}
     3e8:	49535f54 	ldmdbmi	r3, {r2, r4, r6, r8, r9, sl, fp, ip, lr}^
     3ec:	4c414e47 	mcrrmi	14, 4, r4, r1, cr7
     3f0:	5a49535f 	bpl	1255174 <_Min_Stack_Size+0x1254d74>
     3f4:	34322045 	ldrtcc	r2, [r2], #-69	; 0xffffffbb
     3f8:	6d4b5f00 	stclvs	15, cr5, [fp, #-0]
     3fc:	28207861 	stmdacs	r0!, {r0, r5, r6, fp, ip, sp, lr}
     400:	657a6973 	ldrbvs	r6, [sl, #-2419]!	; 0xfffff68d
     404:	2820666f 	stmdacs	r0!, {r0, r1, r2, r3, r5, r6, r9, sl, sp, lr}
     408:	657a6973 	ldrbvs	r6, [sl, #-2419]!	; 0xfffff68d
     40c:	2029745f 	eorcs	r7, r9, pc, asr r4
     410:	33203c3c 			; <UNDEFINED> instruction: 0x33203c3c
     414:	525f0029 	subspl	r0, pc, #41	; 0x29
     418:	544e4545 	strbpl	r4, [lr], #-1349	; 0xfffffabb
     41c:	4548435f 	strbmi	r4, [r8, #-863]	; 0xfffffca1
     420:	535f4b43 	cmppl	pc, #68608	; 0x10c00
     424:	414e4749 	cmpmi	lr, r9, asr #14
     428:	55425f4c 	strbpl	r5, [r2, #-3916]	; 0xfffff0b4
     42c:	61762846 	cmnvs	r6, r6, asr #16
     430:	5f202972 	svcpl	0x00202972
     434:	4e454552 	mcrmi	5, 2, r4, cr5, cr2, {2}
     438:	48435f54 	stmdami	r3, {r2, r4, r6, r8, r9, sl, fp, ip, lr}^
     43c:	284b4345 	stmdacs	fp, {r0, r2, r6, r8, r9, lr}^
     440:	2c726176 	ldfcse	f6, [r2], #-472	; 0xfffffe28
     444:	69735f20 	ldmdbvs	r3!, {r5, r8, r9, sl, fp, ip, lr}^
     448:	6c616e67 	stclvs	14, cr6, [r1], #-412	; 0xfffffe64
     44c:	6675625f 			; <UNDEFINED> instruction: 0x6675625f
     450:	6863202c 	stmdavs	r3!, {r2, r3, r5, sp}^
     454:	2a207261 	bcs	81cde0 <_Min_Stack_Size+0x81c9e0>
     458:	525f202c 	subspl	r2, pc, #44	; 0x2c
     45c:	544e4545 	strbpl	r4, [lr], #-1349	; 0xfffffabb
     460:	4749535f 	smlsldmi	r5, r9, pc, r3	; <UNPREDICTABLE>
     464:	5f4c414e 	svcpl	0x004c414e
     468:	455a4953 	ldrbmi	r4, [sl, #-2387]	; 0xfffff6ad
     46c:	0029202c 	eoreq	r2, r9, ip, lsr #32
     470:	464c5f5f 			; <UNDEFINED> instruction: 0x464c5f5f
     474:	54434152 	strbpl	r4, [r3], #-338	; 0xfffffeae
     478:	4e494d5f 	mcrmi	13, 2, r4, cr9, cr15, {2}
     47c:	28205f5f 	stmdacs	r0!, {r0, r1, r2, r3, r4, r6, r8, r9, sl, fp, ip, lr}
     480:	352e302d 	strcc	r3, [lr, #-45]!	; 0xffffffd3
     484:	302d524c 	eorcc	r5, sp, ip, asr #4
     488:	524c352e 	subpl	r3, ip, #192937984	; 0xb800000
     48c:	5f5f0029 	svcpl	0x005f0029
     490:	41484357 	cmpmi	r8, r7, asr r3
     494:	414d5f52 	cmpmi	sp, r2, asr pc
     498:	205f5f58 	subscs	r5, pc, r8, asr pc	; <UNPREDICTABLE>
     49c:	66667830 			; <UNDEFINED> instruction: 0x66667830
     4a0:	66666666 	strbtvs	r6, [r6], -r6, ror #12
     4a4:	00556666 	subseq	r6, r5, r6, ror #12
     4a8:	5f434352 	svcpl	0x00434352
     4ac:	4f495047 	svcmi	0x00495047
     4b0:	4c435f42 	mcrrmi	15, 4, r5, r3, cr2
     4b4:	4e455f4b 	cdpmi	15, 4, cr5, cr5, cr11, {2}
     4b8:	28202928 	stmdacs	r0!, {r3, r5, r8, fp, sp}
     4bc:	2d434352 	stclcs	3, cr4, [r3, #-328]	; 0xfffffeb8
     4c0:	4250413e 	subsmi	r4, r0, #-2147483633	; 0x8000000f
     4c4:	524e4532 	subpl	r4, lr, #209715200	; 0xc800000
     4c8:	203d7c20 	eorscs	r7, sp, r0, lsr #24
     4cc:	3c3c3128 	ldfccs	f3, [ip], #-160	; 0xffffff60
     4d0:	00292933 	eoreq	r2, r9, r3, lsr r9
     4d4:	4f435f5f 	svcmi	0x00435f5f
     4d8:	5441434e 	strbpl	r4, [r1], #-846	; 0xfffffcb2
     4dc:	792c7828 	stmdbvc	ip!, {r3, r5, fp, ip, sp, lr}
     4e0:	5f5f2029 	svcpl	0x005f2029
     4e4:	434e4f43 	movtmi	r4, #61251	; 0xef43
     4e8:	28315441 	ldmdacs	r1!, {r0, r6, sl, ip, lr}
     4ec:	29792c78 	ldmdbcs	r9!, {r3, r4, r5, r6, sl, fp, sp}^
     4f0:	475f5f00 	ldrbmi	r5, [pc, -r0, lsl #30]
     4f4:	4c43554e 	cfstr64mi	mvdx5, [r3], {78}	; 0x4e
     4f8:	5f454b49 	svcpl	0x00454b49
     4fc:	59545f5f 	ldmdbpl	r4, {r0, r1, r2, r3, r4, r6, r8, r9, sl, fp, ip, lr}^
     500:	464f4550 			; <UNDEFINED> instruction: 0x464f4550
     504:	5f003120 	svcpl	0x00003120
     508:	746e695f 	strbtvc	r6, [lr], #-2399	; 0xfffff6a1
     50c:	5f5f3032 	svcpl	0x005f3032
     510:	535f5f00 	cmppl	pc, #0, 30
     514:	4f455a49 	svcmi	0x00455a49
     518:	4f4c5f46 	svcmi	0x004c5f46
     51c:	4c5f474e 	mrrcmi	7, 4, r4, pc, cr14	; <UNPREDICTABLE>
     520:	5f474e4f 	svcpl	0x00474e4f
     524:	0038205f 	eorseq	r2, r8, pc, asr r0
     528:	49545845 	ldmdbmi	r4, {r0, r2, r6, fp, ip, lr}^
     52c:	5341425f 	movtpl	r4, #4703	; 0x125f
     530:	78302045 	ldmdavc	r0!, {r0, r2, r6, sp}
     534:	31303034 	teqcc	r0, r4, lsr r0
     538:	30303430 	eorscc	r3, r0, r0, lsr r4
     53c:	5f5f0075 	svcpl	0x005f0075
     540:	5f4c4244 	svcpl	0x004c4244
     544:	5f58414d 	svcpl	0x0058414d
     548:	455f3031 	ldrbmi	r3, [pc, #-49]	; 51f <_Min_Stack_Size+0x11f>
     54c:	5f5f5058 	svcpl	0x005f5058
     550:	38303320 	ldmdacc	r0!, {r5, r8, r9, ip, sp}
     554:	525f5f00 	subspl	r5, pc, #0, 30
     558:	44495343 	strbmi	r5, [r9], #-835	; 0xfffffcbd
     55c:	554f535f 	strbpl	r5, [pc, #-863]	; 205 <_Min_Heap_Size+0x5>
     560:	28454352 	stmdacs	r5, {r1, r4, r6, r8, r9, lr}^
     564:	73202973 			; <UNDEFINED> instruction: 0x73202973
     568:	63757274 	cmnvs	r5, #116, 4	; 0x40000007
     56c:	5f5f2074 	svcpl	0x005f2074
     570:	6b636168 	blvs	18d8b18 <_Min_Stack_Size+0x18d8718>
     574:	465f5f00 	ldrbmi	r5, [pc], -r0, lsl #30
     578:	54434152 	strbpl	r4, [r3], #-338	; 0xfffffeae
     57c:	4e494d5f 	mcrmi	13, 2, r4, cr9, cr15, {2}
     580:	28205f5f 	stmdacs	r0!, {r0, r1, r2, r3, r4, r6, r8, r9, sl, fp, ip, lr}
     584:	352e302d 	strcc	r3, [lr, #-45]!	; 0xffffffd3
     588:	2e302d52 	mrccs	13, 1, r2, cr0, cr2, {2}
     58c:	00295235 	eoreq	r5, r9, r5, lsr r2
     590:	4c555f5f 	mrrcmi	15, 5, r5, r5, cr15	; <UNPREDICTABLE>
     594:	4343414c 	movtmi	r4, #12620	; 0x314c
     598:	4d5f4d55 	ldclmi	13, cr4, [pc, #-340]	; 44c <_Min_Stack_Size+0x4c>
     59c:	5f5f5841 	svcpl	0x005f5841
     5a0:	46583020 	ldrbmi	r3, [r8], -r0, lsr #32
     5a4:	46464646 	strbmi	r4, [r6], -r6, asr #12
     5a8:	46464646 	strbmi	r4, [r6], -r6, asr #12
     5ac:	46464646 	strbmi	r4, [r6], -r6, asr #12
     5b0:	50464646 	subpl	r4, r6, r6, asr #12
     5b4:	5532332d 	ldrpl	r3, [r2, #-813]!	; 0xfffffcd3
     5b8:	004b4c4c 	subeq	r4, fp, ip, asr #24
     5bc:	49545845 	ldmdbmi	r4, {r0, r2, r6, fp, ip, lr}^
     5c0:	42503531 	subsmi	r3, r0, #205520896	; 0xc400000
     5c4:	28203531 	stmdacs	r0!, {r0, r4, r5, r8, sl, ip, sp}
     5c8:	49545845 	ldmdbmi	r4, {r0, r2, r6, fp, ip, lr}^
     5cc:	4950475f 	ldmdbmi	r0, {r0, r1, r2, r3, r4, r6, r8, r9, sl, lr}^
     5d0:	614d5f4f 	cmpvs	sp, pc, asr #30
     5d4:	6e697070 	mcrvs	0, 3, r7, cr9, cr0, {3}
     5d8:	29745f67 	ldmdbcs	r4!, {r0, r1, r2, r5, r6, r8, r9, sl, fp, ip, lr}^
     5dc:	5458457b 	ldrbpl	r4, [r8], #-1403	; 0xfffffa85
     5e0:	2c353149 	ldfcss	f3, [r5], #-292	; 0xfffffedc
     5e4:	49504720 	ldmdbmi	r0, {r5, r8, r9, sl, lr}^
     5e8:	202c424f 	eorcs	r4, ip, pc, asr #4
     5ec:	4f495047 	svcmi	0x00495047
     5f0:	4e49505f 	mcrmi	0, 2, r5, cr9, cr15, {2}
     5f4:	2c35315f 	ldfcss	f3, [r5], #-380	; 0xfffffe84
     5f8:	54584520 	ldrbpl	r4, [r8], #-1312	; 0xfffffae0
     5fc:	5f353149 	svcpl	0x00353149
     600:	7d515249 	lfmvc	f5, 2, [r1, #-292]	; 0xfffffedc
     604:	49504700 	ldmdbmi	r0, {r8, r9, sl, lr}^
     608:	425f424f 	subsmi	r4, pc, #-268435452	; 0xf0000004
     60c:	20455341 	subcs	r5, r5, r1, asr #6
     610:	30347830 	eorscc	r7, r4, r0, lsr r8
     614:	43303130 	teqmi	r0, #48, 2
     618:	00753030 	rsbseq	r3, r5, r0, lsr r0
     61c:	53555f5f 	cmppl	r5, #380	; 0x17c
     620:	55434341 	strbpl	r4, [r3, #-833]	; 0xfffffcbf
     624:	414d5f4d 	cmpmi	sp, sp, asr #30
     628:	205f5f58 	subscs	r5, pc, r8, asr pc	; <UNPREDICTABLE>
     62c:	46465830 			; <UNDEFINED> instruction: 0x46465830
     630:	2d504646 	ldclcs	6, cr4, [r0, #-280]	; 0xfffffee8
     634:	4b485538 	blmi	1215b1c <_Min_Stack_Size+0x121571c>
     638:	535f5f00 	cmppl	pc, #0, 30
     63c:	43415246 	movtmi	r5, #4678	; 0x1246
     640:	42465f54 	submi	r5, r6, #84, 30	; 0x150
     644:	5f5f5449 	svcpl	0x005f5449
     648:	5f003720 	svcpl	0x00003720
     64c:	544e495f 	strbpl	r4, [lr], #-2399	; 0xfffff6a1
     650:	5f58414d 	svcpl	0x0058414d
     654:	54444957 	strbpl	r4, [r4], #-2391	; 0xfffff6a9
     658:	205f5f48 	subscs	r5, pc, r8, asr #30
     65c:	5f003436 	svcpl	0x00003436
     660:	4d52415f 	ldfmie	f4, [r2, #-380]	; 0xfffffe84
     664:	4145465f 	cmpmi	r5, pc, asr r6
     668:	45525554 	ldrbmi	r5, [r2, #-1364]	; 0xfffffaac
     66c:	3146425f 	cmpcc	r6, pc, asr r2
     670:	43535f36 	cmpmi	r3, #54, 30	; 0xd8
     674:	52414c41 	subpl	r4, r1, #16640	; 0x4100
     678:	4952415f 	ldmdbmi	r2, {r0, r1, r2, r3, r4, r6, r8, lr}^
     67c:	454d4854 	strbmi	r4, [sp, #-2132]	; 0xfffff7ac
     680:	00434954 	subeq	r4, r3, r4, asr r9
     684:	51535f5f 	cmppl	r3, pc, asr pc
     688:	4942495f 	stmdbmi	r2, {r0, r1, r2, r3, r4, r6, r8, fp, lr}^
     68c:	205f5f54 	subscs	r5, pc, r4, asr pc	; <UNPREDICTABLE>
     690:	5f5f0030 	svcpl	0x005f0030
     694:	4544524f 	strbmi	r5, [r4, #-591]	; 0xfffffdb1
     698:	44505f52 	ldrbmi	r5, [r0], #-3922	; 0xfffff0ae
     69c:	4e455f50 	mcrmi	15, 2, r5, cr5, cr0, {2}
     6a0:	4e414944 	vmlsmi.f16	s9, s2, s8	; <UNPREDICTABLE>
     6a4:	33205f5f 			; <UNDEFINED> instruction: 0x33205f5f
     6a8:	00323134 	eorseq	r3, r2, r4, lsr r1
     6ac:	49535f5f 	ldmdbmi	r3, {r0, r1, r2, r3, r4, r6, r8, r9, sl, fp, ip, lr}^
     6b0:	545f455a 	ldrbpl	r4, [pc], #-1370	; 6b8 <_Min_Stack_Size+0x2b8>
     6b4:	5f455059 	svcpl	0x00455059
     6b8:	6e75205f 	mrcvs	0, 3, r2, cr5, cr15, {2}
     6bc:	6e676973 			; <UNDEFINED> instruction: 0x6e676973
     6c0:	69206465 	stmdbvs	r0!, {r0, r2, r5, r6, sl, sp, lr}
     6c4:	5f00746e 	svcpl	0x0000746e
     6c8:	5f434347 	svcpl	0x00434347
     6cc:	50415257 	subpl	r5, r1, r7, asr r2
     6d0:	4454535f 	ldrbmi	r5, [r4], #-863	; 0xfffffca1
     6d4:	5f544e49 	svcpl	0x00544e49
     6d8:	5f002048 	svcpl	0x00002048
     6dc:	544c465f 	strbpl	r4, [ip], #-1631	; 0xfffff9a1
     6e0:	5341485f 	movtpl	r4, #6239	; 0x185f
     6e4:	4e45445f 	mcrmi	4, 2, r4, cr5, cr15, {2}
     6e8:	5f4d524f 	svcpl	0x004d524f
     6ec:	0031205f 	eorseq	r2, r1, pc, asr r0
     6f0:	4e495f5f 	mcrmi	15, 2, r5, cr9, cr15, {2}
     6f4:	545f3854 	ldrbpl	r3, [pc], #-2132	; 6fc <_Min_Stack_Size+0x2fc>
     6f8:	5f455059 	svcpl	0x00455059
     6fc:	6973205f 	ldmdbvs	r3!, {r0, r1, r2, r3, r4, r6, sp}^
     700:	64656e67 	strbtvs	r6, [r5], #-3687	; 0xfffff199
     704:	61686320 	cmnvs	r8, r0, lsr #6
     708:	5f5f0072 	svcpl	0x005f0072
     70c:	33544c46 	cmpcc	r4, #17920	; 0x4600
     710:	494d5f32 	stmdbmi	sp, {r1, r4, r5, r8, r9, sl, fp, ip, lr}^
     714:	205f5f4e 	subscs	r5, pc, lr, asr #30
     718:	37312e31 			; <UNDEFINED> instruction: 0x37312e31
     71c:	34393435 	ldrtcc	r3, [r9], #-1077	; 0xfffffbcb
     720:	38303533 	ldmdacc	r0!, {r0, r1, r4, r5, r8, sl, ip, sp}
     724:	38323232 	ldmdacc	r2!, {r1, r4, r5, r9, ip, sp}
     728:	2d653537 	cfstr64cs	mvdx3, [r5, #-220]!	; 0xffffff24
     72c:	33463833 	movtcc	r3, #26675	; 0x6833
     730:	50470032 	subpl	r0, r7, r2, lsr r0
     734:	20454f49 	subcs	r4, r5, r9, asr #30
     738:	50472828 	subpl	r2, r7, r8, lsr #16
     73c:	545f4f49 	ldrbpl	r4, [pc], #-3913	; 744 <_Min_Stack_Size+0x344>
     740:	64657079 	strbtvs	r7, [r5], #-121	; 0xffffff87
     744:	745f6665 	ldrbvc	r6, [pc], #-1637	; 74c <_Min_Stack_Size+0x34c>
     748:	47292a20 	strmi	r2, [r9, -r0, lsr #20]!
     74c:	454f4950 	strbmi	r4, [pc, #-2384]	; fffffe04 <_estack+0xdfffd604>
     750:	5341425f 	movtpl	r4, #4703	; 0x125f
     754:	5f002945 	svcpl	0x00002945
     758:	4153555f 	cmpmi	r3, pc, asr r5
     75c:	4d554343 	ldclmi	3, cr4, [r5, #-268]	; 0xfffffef4
     760:	4e494d5f 	mcrmi	13, 2, r4, cr9, cr15, {2}
     764:	30205f5f 	eorcc	r5, r0, pc, asr pc
     768:	4855302e 	ldmdami	r5, {r1, r2, r3, r5, ip, sp}^
     76c:	564e004b 	strbpl	r0, [lr], -fp, asr #32
     770:	455f4349 	ldrbmi	r4, [pc, #-841]	; 42f <_Min_Stack_Size+0x2f>
     774:	33495458 	movtcc	r5, #37976	; 0x9458
     778:	5152495f 	cmppl	r2, pc, asr r9
     77c:	616e455f 	cmnvs	lr, pc, asr r5
     780:	20656c62 	rsbcs	r6, r5, r2, ror #24
     784:	49564e28 	ldmdbmi	r6, {r3, r5, r9, sl, fp, lr}^
     788:	53495f43 	movtpl	r5, #40771	; 0x9f43
     78c:	20305245 	eorscs	r5, r0, r5, asr #4
     790:	31203d7c 			; <UNDEFINED> instruction: 0x31203d7c
     794:	29393c3c 	ldmdbcs	r9!, {r2, r3, r4, r5, sl, fp, ip, sp}
     798:	465f5f00 	ldrbmi	r5, [pc], -r0, lsl #30
     79c:	3233544c 	eorscc	r5, r3, #76, 8	; 0x4c000000
     7a0:	4345445f 	movtmi	r4, #21599	; 0x545f
     7a4:	4c414d49 	mcrrmi	13, 4, r4, r1, cr9
     7a8:	4749445f 	smlsldmi	r4, r9, pc, r4	; <UNPREDICTABLE>
     7ac:	39205f5f 	stmdbcc	r0!, {r0, r1, r2, r3, r4, r6, r8, r9, sl, fp, ip, lr}
     7b0:	4c5f5f00 	mrrcmi	15, 0, r5, pc, cr0	; <UNPREDICTABLE>
     7b4:	5f4c4244 	svcpl	0x004c4244
     7b8:	5f4e494d 	svcpl	0x004e494d
     7bc:	5f505845 	svcpl	0x00505845
     7c0:	2d28205f 	stccs	0, cr2, [r8, #-380]!	; 0xfffffe84
     7c4:	31323031 	teqcc	r2, r1, lsr r0
     7c8:	525f0029 	subspl	r0, pc, #41	; 0x29
     7cc:	544e4545 	strbpl	r4, [lr], #-1349	; 0xfffffabb
     7d0:	494e495f 	stmdbmi	lr, {r0, r1, r2, r3, r4, r6, r8, fp, lr}^
     7d4:	41525f54 	cmpmi	r2, r4, asr pc
     7d8:	3834444e 	ldmdacc	r4!, {r1, r2, r3, r6, sl, lr}
     7dc:	72617628 	rsbvc	r7, r1, #40, 12	; 0x2800000
     7e0:	6f642029 	svcvs	0x00642029
     7e4:	73207b20 			; <UNDEFINED> instruction: 0x73207b20
     7e8:	63757274 	cmnvs	r5, #116, 4	; 0x40000007
     7ec:	725f2074 	subsvc	r2, pc, #116	; 0x74
     7f0:	746e6565 	strbtvc	r6, [lr], #-1381	; 0xfffffa9b
     7f4:	725f2a20 	subsvc	r2, pc, #32, 20	; 0x20000
     7f8:	28203d20 	stmdacs	r0!, {r5, r8, sl, fp, ip, sp}
     7fc:	29726176 	ldmdbcs	r2!, {r1, r2, r4, r5, r6, r8, sp, lr}^
     800:	725f203b 	subsvc	r2, pc, #59	; 0x3b
     804:	725f3e2d 	subsvc	r3, pc, #720	; 0x2d0
     808:	3e2d3834 	mcrcc	8, 1, r3, cr13, cr4, {1}
     80c:	6565735f 	strbvs	r7, [r5, #-863]!	; 0xfffffca1
     810:	5d305b64 	vldmdbpl	r0!, {d5-<overflow reg d54>}
     814:	5f203d20 	svcpl	0x00203d20
     818:	444e4152 	strbmi	r4, [lr], #-338	; 0xfffffeae
     81c:	535f3834 	cmppl	pc, #52, 16	; 0x340000
     820:	5f444545 	svcpl	0x00444545
     824:	5f203b30 	svcpl	0x00203b30
     828:	5f3e2d72 	svcpl	0x003e2d72
     82c:	2d383472 	cfldrscs	mvf3, [r8, #-456]!	; 0xfffffe38
     830:	65735f3e 	ldrbvs	r5, [r3, #-3902]!	; 0xfffff0c2
     834:	315b6465 	cmpcc	fp, r5, ror #8
     838:	203d205d 	eorscs	r2, sp, sp, asr r0
     83c:	4e41525f 	mcrmi	2, 2, r5, cr1, cr15, {2}
     840:	5f383444 	svcpl	0x00383444
     844:	44454553 	strbmi	r4, [r5], #-1363	; 0xfffffaad
     848:	203b315f 	eorscs	r3, fp, pc, asr r1
     84c:	3e2d725f 	mcrcc	2, 1, r7, cr13, cr15, {2}
     850:	3834725f 	ldmdacc	r4!, {r0, r1, r2, r3, r4, r6, r9, ip, sp, lr}
     854:	735f3e2d 	cmpvc	pc, #720	; 0x2d0
     858:	5b646565 	blpl	1919df4 <_Min_Stack_Size+0x19199f4>
     85c:	3d205d32 	stccc	13, cr5, [r0, #-200]!	; 0xffffff38
     860:	41525f20 	cmpmi	r2, r0, lsr #30
     864:	3834444e 	ldmdacc	r4!, {r1, r2, r3, r6, sl, lr}
     868:	4545535f 	strbmi	r5, [r5, #-863]	; 0xfffffca1
     86c:	3b325f44 	blcc	c98584 <_Min_Stack_Size+0xc98184>
     870:	2d725f20 	ldclcs	15, cr5, [r2, #-128]!	; 0xffffff80
     874:	34725f3e 	ldrbtcc	r5, [r2], #-3902	; 0xfffff0c2
     878:	5f3e2d38 	svcpl	0x003e2d38
     87c:	746c756d 	strbtvc	r7, [ip], #-1389	; 0xfffffa93
     880:	205d305b 	subscs	r3, sp, fp, asr r0
     884:	525f203d 	subspl	r2, pc, #61	; 0x3d
     888:	34444e41 	strbcc	r4, [r4], #-3649	; 0xfffff1bf
     88c:	554d5f38 	strbpl	r5, [sp, #-3896]	; 0xfffff0c8
     890:	305f544c 	subscc	r5, pc, ip, asr #8
     894:	725f203b 	subsvc	r2, pc, #59	; 0x3b
     898:	725f3e2d 	subsvc	r3, pc, #720	; 0x2d0
     89c:	3e2d3834 	mcrcc	8, 1, r3, cr13, cr4, {1}
     8a0:	6c756d5f 	ldclvs	13, cr6, [r5], #-380	; 0xfffffe84
     8a4:	5d315b74 	vldmdbpl	r1!, {d5-<overflow reg d62>}
     8a8:	5f203d20 	svcpl	0x00203d20
     8ac:	444e4152 	strbmi	r4, [lr], #-338	; 0xfffffeae
     8b0:	4d5f3834 	ldclmi	8, cr3, [pc, #-208]	; 7e8 <_Min_Stack_Size+0x3e8>
     8b4:	5f544c55 	svcpl	0x00544c55
     8b8:	5f203b31 	svcpl	0x00203b31
     8bc:	5f3e2d72 	svcpl	0x003e2d72
     8c0:	2d383472 	cfldrscs	mvf3, [r8, #-456]!	; 0xfffffe38
     8c4:	756d5f3e 	strbvc	r5, [sp, #-3902]!	; 0xfffff0c2
     8c8:	325b746c 	subscc	r7, fp, #108, 8	; 0x6c000000
     8cc:	203d205d 	eorscs	r2, sp, sp, asr r0
     8d0:	4e41525f 	mcrmi	2, 2, r5, cr1, cr15, {2}
     8d4:	5f383444 	svcpl	0x00383444
     8d8:	544c554d 	strbpl	r5, [ip], #-1357	; 0xfffffab3
     8dc:	203b325f 	eorscs	r3, fp, pc, asr r2
     8e0:	3e2d725f 	mcrcc	2, 1, r7, cr13, cr15, {2}
     8e4:	3834725f 	ldmdacc	r4!, {r0, r1, r2, r3, r4, r6, r9, ip, sp, lr}
     8e8:	615f3e2d 	cmpvs	pc, sp, lsr #28
     8ec:	3d206464 	cfstrscc	mvf6, [r0, #-400]!	; 0xfffffe70
     8f0:	41525f20 	cmpmi	r2, r0, lsr #30
     8f4:	3834444e 	ldmdacc	r4!, {r1, r2, r3, r6, sl, lr}
     8f8:	4444415f 	strbmi	r4, [r4], #-351	; 0xfffffea1
     8fc:	725f203b 	subsvc	r2, pc, #59	; 0x3b
     900:	725f3e2d 	subsvc	r3, pc, #720	; 0x2d0
     904:	3e2d3834 	mcrcc	8, 1, r3, cr13, cr4, {1}
     908:	6e61725f 	mcrvs	2, 3, r7, cr1, cr15, {2}
     90c:	656e5f64 	strbvs	r5, [lr, #-3940]!	; 0xfffff09c
     910:	3d207478 	cfstrscc	mvf7, [r0, #-480]!	; 0xfffffe20
     914:	203b3120 	eorscs	r3, fp, r0, lsr #2
     918:	6877207d 	ldmdavs	r7!, {r0, r2, r3, r4, r5, r6, sp}^
     91c:	20656c69 	rsbcs	r6, r5, r9, ror #24
     920:	00293028 	eoreq	r3, r9, r8, lsr #32
     924:	444c5f5f 	strbmi	r5, [ip], #-3935	; 0xfffff0a1
     928:	4d5f4c42 	ldclmi	12, cr4, [pc, #-264]	; 828 <_Min_Stack_Size+0x428>
     92c:	5f544e41 	svcpl	0x00544e41
     930:	5f474944 	svcpl	0x00474944
     934:	3335205f 	teqcc	r5, #95	; 0x5f
     938:	544e4900 	strbpl	r4, [lr], #-2304	; 0xfffff700
     93c:	5341465f 	movtpl	r4, #5727	; 0x165f
     940:	5f363154 	svcpl	0x00363154
     944:	204e494d 	subcs	r4, lr, sp, asr #18
     948:	5f5f2d28 	svcpl	0x005f2d28
     94c:	5f544e49 	svcpl	0x00544e49
     950:	54534146 	ldrbpl	r4, [r3], #-326	; 0xfffffeba
     954:	4d5f3631 	ldclmi	6, cr3, [pc, #-196]	; 898 <_Min_Stack_Size+0x498>
     958:	5f5f5841 	svcpl	0x005f5841
     95c:	31202d20 			; <UNDEFINED> instruction: 0x31202d20
     960:	58450029 	stmdapl	r5, {r0, r3, r5}^
     964:	50334954 	eorspl	r4, r3, r4, asr r9
     968:	28203344 	stmdacs	r0!, {r2, r6, r8, r9, ip, sp}
     96c:	49545845 	ldmdbmi	r4, {r0, r2, r6, fp, ip, lr}^
     970:	4950475f 	ldmdbmi	r0, {r0, r1, r2, r3, r4, r6, r8, r9, sl, lr}^
     974:	614d5f4f 	cmpvs	sp, pc, asr #30
     978:	6e697070 	mcrvs	0, 3, r7, cr9, cr0, {3}
     97c:	29745f67 	ldmdbcs	r4!, {r0, r1, r2, r5, r6, r8, r9, sl, fp, ip, lr}^
     980:	5458457b 	ldrbpl	r4, [r8], #-1403	; 0xfffffa85
     984:	202c3349 	eorcs	r3, ip, r9, asr #6
     988:	4f495047 	svcmi	0x00495047
     98c:	47202c44 	strmi	r2, [r0, -r4, asr #24]!
     990:	5f4f4950 	svcpl	0x004f4950
     994:	5f4e4950 	svcpl	0x004e4950
     998:	45202c33 	strmi	r2, [r0, #-3123]!	; 0xfffff3cd
     99c:	33495458 	movtcc	r5, #37976	; 0x9458
     9a0:	5152495f 	cmppl	r2, pc, asr r9
     9a4:	5f5f007d 	svcpl	0x005f007d
     9a8:	544e4955 	strbpl	r4, [lr], #-2389	; 0xfffff6ab
     9ac:	28435f38 	stmdacs	r3, {r3, r4, r5, r8, r9, sl, fp, ip, lr}^
     9b0:	63202963 			; <UNDEFINED> instruction: 0x63202963
     9b4:	54584500 	ldrbpl	r4, [r8], #-1280	; 0xfffffb00
     9b8:	44503249 	ldrbmi	r3, [r0], #-585	; 0xfffffdb7
     9bc:	45282032 	strmi	r2, [r8, #-50]!	; 0xffffffce
     9c0:	5f495458 	svcpl	0x00495458
     9c4:	4f495047 	svcmi	0x00495047
     9c8:	70614d5f 	rsbvc	r4, r1, pc, asr sp
     9cc:	676e6970 			; <UNDEFINED> instruction: 0x676e6970
     9d0:	7b29745f 	blvc	a5db54 <_Min_Stack_Size+0xa5d754>
     9d4:	49545845 	ldmdbmi	r4, {r0, r2, r6, fp, ip, lr}^
     9d8:	47202c32 			; <UNDEFINED> instruction: 0x47202c32
     9dc:	444f4950 	strbmi	r4, [pc], #-2384	; 9e4 <_Min_Stack_Size+0x5e4>
     9e0:	5047202c 	subpl	r2, r7, ip, lsr #32
     9e4:	505f4f49 	subspl	r4, pc, r9, asr #30
     9e8:	325f4e49 	subscc	r4, pc, #1168	; 0x490
     9ec:	5845202c 	stmdapl	r5, {r2, r3, r5, sp}^
     9f0:	5f324954 	svcpl	0x00324954
     9f4:	7d515249 	lfmvc	f5, 2, [r1, #-292]	; 0xfffffedc
     9f8:	495f5f00 	ldmdbmi	pc, {r8, r9, sl, fp, ip, lr}^	; <UNPREDICTABLE>
     9fc:	3631544e 	ldrtcc	r5, [r1], -lr, asr #8
     a00:	5059545f 	subspl	r5, r9, pc, asr r4
     a04:	205f5f45 	subscs	r5, pc, r5, asr #30
     a08:	726f6873 	rsbvc	r6, pc, #7536640	; 0x730000
     a0c:	6e692074 	mcrvs	0, 3, r2, cr9, cr4, {3}
     a10:	5f5f0074 	svcpl	0x005f0074
     a14:	67696c61 	strbvs	r6, [r9, -r1, ror #24]!
     a18:	2864656e 	stmdacs	r4!, {r1, r2, r3, r5, r6, r8, sl, sp, lr}^
     a1c:	5f202978 	svcpl	0x00202978
     a20:	7474615f 	ldrbtvc	r6, [r4], #-351	; 0xfffffea1
     a24:	75626972 	strbvc	r6, [r2, #-2418]!	; 0xfffff68e
     a28:	5f5f6574 	svcpl	0x005f6574
     a2c:	5f5f2828 	svcpl	0x005f2828
     a30:	67696c61 	strbvs	r6, [r9, -r1, ror #24]!
     a34:	5f64656e 	svcpl	0x0064656e
     a38:	2978285f 	ldmdbcs	r8!, {r0, r1, r2, r3, r4, r6, fp, sp}^
     a3c:	45002929 	strmi	r2, [r0, #-2345]	; 0xfffff6d7
     a40:	36495458 			; <UNDEFINED> instruction: 0x36495458
     a44:	20364250 	eorscs	r4, r6, r0, asr r2
     a48:	54584528 	ldrbpl	r4, [r8], #-1320	; 0xfffffad8
     a4c:	50475f49 	subpl	r5, r7, r9, asr #30
     a50:	4d5f4f49 	ldclmi	15, cr4, [pc, #-292]	; 934 <_Min_Stack_Size+0x534>
     a54:	69707061 	ldmdbvs	r0!, {r0, r5, r6, ip, sp, lr}^
     a58:	745f676e 	ldrbvc	r6, [pc], #-1902	; a60 <_Min_Stack_Size+0x660>
     a5c:	58457b29 	stmdapl	r5, {r0, r3, r5, r8, r9, fp, ip, sp, lr}^
     a60:	2c364954 			; <UNDEFINED> instruction: 0x2c364954
     a64:	49504720 	ldmdbmi	r0, {r5, r8, r9, sl, lr}^
     a68:	202c424f 	eorcs	r4, ip, pc, asr #4
     a6c:	4f495047 	svcmi	0x00495047
     a70:	4e49505f 	mcrmi	0, 2, r5, cr9, cr15, {2}
     a74:	202c365f 	eorcs	r3, ip, pc, asr r6
     a78:	49545845 	ldmdbmi	r4, {r0, r2, r6, fp, ip, lr}^
     a7c:	52495f36 	subpl	r5, r9, #54, 30	; 0xd8
     a80:	5f007d51 	svcpl	0x00007d51
     a84:	544c465f 	strbpl	r4, [ip], #-1631	; 0xfffff9a1
     a88:	4d5f3436 	cfldrdmi	mvd3, [pc, #-216]	; 9b8 <_Min_Stack_Size+0x5b8>
     a8c:	5f5f5841 	svcpl	0x005f5841
     a90:	372e3120 	strcc	r3, [lr, -r0, lsr #2]!
     a94:	39363739 	ldmdbcc	r6!, {r0, r3, r4, r5, r8, r9, sl, ip, sp}
     a98:	34333133 	ldrtcc	r3, [r3], #-307	; 0xfffffecd
     a9c:	33323638 	teqcc	r2, #56, 12	; 0x3800000
     aa0:	65373531 	ldrvs	r3, [r7, #-1329]!	; 0xfffffacf
     aa4:	3830332b 	ldmdacc	r0!, {r0, r1, r3, r5, r8, r9, ip, sp}
     aa8:	00343646 	eorseq	r3, r4, r6, asr #12
     aac:	4349564e 	movtmi	r5, #38478	; 0x964e
     ab0:	5458455f 	ldrbpl	r4, [r8], #-1375	; 0xfffffaa1
     ab4:	495f3249 	ldmdbmi	pc, {r0, r3, r6, r9, ip, sp}^	; <UNPREDICTABLE>
     ab8:	455f5152 	ldrbmi	r5, [pc, #-338]	; 96e <_Min_Stack_Size+0x56e>
     abc:	6c62616e 	stfvse	f6, [r2], #-440	; 0xfffffe48
     ac0:	4e282065 	cdpmi	0, 2, cr2, cr8, cr5, {3}
     ac4:	5f434956 	svcpl	0x00434956
     ac8:	52455349 	subpl	r5, r5, #603979777	; 0x24000001
     acc:	3d7c2030 	ldclcc	0, cr2, [ip, #-192]!	; 0xffffff40
     ad0:	3c3c3120 	ldfccs	f3, [ip], #-128	; 0xffffff80
     ad4:	5f002938 	svcpl	0x00002938
     ad8:	4e454552 	mcrmi	5, 2, r4, cr5, cr2, {2}
     adc:	43575f54 	cmpmi	r7, #84, 30	; 0x150
     ae0:	4f545253 	svcmi	0x00545253
     ae4:	5f53424d 	svcpl	0x0053424d
     ae8:	54415453 	strbpl	r5, [r1], #-1107	; 0xfffffbad
     aec:	74702845 	ldrbtvc	r2, [r0], #-2117	; 0xfffff7bb
     af0:	28202972 	stmdacs	r0!, {r1, r4, r5, r6, r8, fp, sp}
     af4:	72747028 	rsbsvc	r7, r4, #40	; 0x28
     af8:	5f3e2d29 	svcpl	0x003e2d29
     afc:	6373696d 	cmnvs	r3, #1785856	; 0x1b4000
     b00:	775f3e2d 	ldrbvc	r3, [pc, -sp, lsr #28]
     b04:	74727363 	ldrbtvc	r7, [r2], #-867	; 0xfffffc9d
     b08:	73626d6f 	cmnvc	r2, #7104	; 0x1bc0
     b0c:	6174735f 	cmnvs	r4, pc, asr r3
     b10:	00296574 	eoreq	r6, r9, r4, ror r5
     b14:	33495053 	movtcc	r5, #36947	; 0x9053
     b18:	53282820 			; <UNDEFINED> instruction: 0x53282820
     b1c:	545f4950 	ldrbpl	r4, [pc], #-2384	; b24 <_Min_Stack_Size+0x724>
     b20:	64657079 	strbtvs	r7, [r5], #-121	; 0xffffff87
     b24:	745f6665 	ldrbvc	r6, [pc], #-1637	; b2c <_Min_Stack_Size+0x72c>
     b28:	53292a20 			; <UNDEFINED> instruction: 0x53292a20
     b2c:	5f334950 	svcpl	0x00334950
     b30:	45534142 	ldrbmi	r4, [r3, #-322]	; 0xfffffebe
     b34:	5f5f0029 	svcpl	0x005f0029
     b38:	6f626e75 	svcvs	0x00626e75
     b3c:	65646e75 	strbvs	r6, [r4, #-3701]!	; 0xfffff18b
     b40:	45002064 	strmi	r2, [r0, #-100]	; 0xffffff9c
     b44:	31495458 	cmpcc	r9, r8, asr r4
     b48:	31415035 	cmpcc	r1, r5, lsr r0
     b4c:	45282035 	strmi	r2, [r8, #-53]!	; 0xffffffcb
     b50:	5f495458 	svcpl	0x00495458
     b54:	4f495047 	svcmi	0x00495047
     b58:	70614d5f 	rsbvc	r4, r1, pc, asr sp
     b5c:	676e6970 			; <UNDEFINED> instruction: 0x676e6970
     b60:	7b29745f 	blvc	a5dce4 <_Min_Stack_Size+0xa5d8e4>
     b64:	49545845 	ldmdbmi	r4, {r0, r2, r6, fp, ip, lr}^
     b68:	202c3531 	eorcs	r3, ip, r1, lsr r5
     b6c:	4f495047 	svcmi	0x00495047
     b70:	47202c41 	strmi	r2, [r0, -r1, asr #24]!
     b74:	5f4f4950 	svcpl	0x004f4950
     b78:	5f4e4950 	svcpl	0x004e4950
     b7c:	202c3531 	eorcs	r3, ip, r1, lsr r5
     b80:	49545845 	ldmdbmi	r4, {r0, r2, r6, fp, ip, lr}^
     b84:	495f3531 	ldmdbmi	pc, {r0, r4, r5, r8, sl, ip, sp}^	; <UNPREDICTABLE>
     b88:	007d5152 	rsbseq	r5, sp, r2, asr r1
     b8c:	4e495f5f 	mcrmi	15, 2, r5, cr9, cr15, {2}
     b90:	22203854 	eorcs	r3, r0, #84, 16	; 0x540000
     b94:	00226868 	eoreq	r6, r2, r8, ror #16
     b98:	49545845 	ldmdbmi	r4, {r0, r2, r6, fp, ip, lr}^
     b9c:	6972745f 	ldmdbvs	r2!, {r0, r1, r2, r3, r4, r6, sl, ip, sp, lr}^
     ba0:	72656767 	rsbvc	r6, r5, #27000832	; 0x19c0000
     ba4:	6c61665f 	stclvs	6, cr6, [r1], #-380	; 0xfffffe84
     ba8:	676e696c 	strbvs	r6, [lr, -ip, ror #18]!
     bac:	54003120 	strpl	r3, [r0], #-288	; 0xfffffee0
     bb0:	5f354d49 	svcpl	0x00354d49
     bb4:	45534142 	ldrbmi	r4, [r3, #-322]	; 0xfffffebe
     bb8:	34783020 	ldrbtcc	r3, [r8], #-32	; 0xffffffe0
     bbc:	30303030 	eorscc	r3, r0, r0, lsr r0
     bc0:	75303043 	ldrvc	r3, [r0, #-67]!	; 0xffffffbd
     bc4:	475f5f00 	ldrbmi	r5, [pc, -r0, lsl #30]
     bc8:	485f4343 	ldmdami	pc, {r0, r1, r6, r8, r9, lr}^	; <UNPREDICTABLE>
     bcc:	5f455641 	svcpl	0x00455641
     bd0:	434e5953 	movtmi	r5, #59731	; 0xe953
     bd4:	4d4f435f 	stclmi	3, cr4, [pc, #-380]	; a60 <_Min_Stack_Size+0x660>
     bd8:	45524150 	ldrbmi	r4, [r2, #-336]	; 0xfffffeb0
     bdc:	444e415f 	strbmi	r4, [lr], #-351	; 0xfffffea1
     be0:	4157535f 	cmpmi	r7, pc, asr r3
     be4:	20315f50 	eorscs	r5, r1, r0, asr pc
     be8:	4e490031 	mcrmi	0, 2, r0, cr9, cr1, {1}
     bec:	454c5f54 	strbmi	r5, [ip, #-3924]	; 0xfffff0ac
     bf0:	31545341 	cmpcc	r4, r1, asr #6
     bf4:	414d5f36 	cmpmi	sp, r6, lsr pc
     bf8:	5f282058 	svcpl	0x00282058
     bfc:	544e495f 	strbpl	r4, [lr], #-2399	; 0xfffff6a1
     c00:	41454c5f 	cmpmi	r5, pc, asr ip
     c04:	36315453 			; <UNDEFINED> instruction: 0x36315453
     c08:	58414d5f 	stmdapl	r1, {r0, r1, r2, r3, r4, r6, r8, sl, fp, lr}^
     c0c:	00295f5f 	eoreq	r5, r9, pc, asr pc
     c10:	49555f5f 	ldmdbmi	r5, {r0, r1, r2, r3, r4, r6, r8, r9, sl, fp, ip, lr}^
     c14:	4c5f544e 	cfldrdmi	mvd5, [pc], {78}	; 0x4e
     c18:	54534145 	ldrbpl	r4, [r3], #-325	; 0xfffffebb
     c1c:	4d5f3631 	ldclmi	6, cr3, [pc, #-196]	; b60 <_Min_Stack_Size+0x760>
     c20:	5f5f5841 	svcpl	0x005f5841
     c24:	66783020 	ldrbtvs	r3, [r8], -r0, lsr #32
     c28:	00666666 	rsbeq	r6, r6, r6, ror #12
     c2c:	54535f5f 	ldrbpl	r5, [r3], #-3935	; 0xfffff0a1
     c30:	485f4344 	ldmdami	pc, {r2, r6, r8, r9, lr}^	; <UNPREDICTABLE>
     c34:	4554534f 	ldrbmi	r5, [r4, #-847]	; 0xfffffcb1
     c38:	205f5f44 	subscs	r5, pc, r4, asr #30
     c3c:	5f5f0031 	svcpl	0x005f0031
     c40:	464c4c55 			; <UNDEFINED> instruction: 0x464c4c55
     c44:	54434152 	strbpl	r4, [r3], #-338	; 0xfffffeae
     c48:	4942465f 	stmdbmi	r2, {r0, r1, r2, r3, r4, r6, r9, sl, lr}^
     c4c:	205f5f54 	subscs	r5, pc, r4, asr pc	; <UNPREDICTABLE>
     c50:	53003436 	movwpl	r3, #1078	; 0x436
     c54:	20324950 	eorscs	r4, r2, r0, asr r9
     c58:	50532828 	subspl	r2, r3, r8, lsr #16
     c5c:	79545f49 	ldmdbvc	r4, {r0, r3, r6, r8, r9, sl, fp, ip, lr}^
     c60:	65646570 	strbvs	r6, [r4, #-1392]!	; 0xfffffa90
     c64:	20745f66 	rsbscs	r5, r4, r6, ror #30
     c68:	5053292a 	subspl	r2, r3, sl, lsr #18
     c6c:	425f3249 	subsmi	r3, pc, #-1879048188	; 0x90000004
     c70:	29455341 	stmdbcs	r5, {r0, r6, r8, r9, ip, lr}^
     c74:	444c5f00 	strbmi	r5, [ip], #-3840	; 0xfffff100
     c78:	455f4c42 	ldrbmi	r4, [pc, #-3138]	; 3e <_Min_Heap_Size-0x1c2>
     c7c:	42445f51 	submi	r5, r4, #324	; 0x144
     c80:	0031204c 	eorseq	r2, r1, ip, asr #32
     c84:	4f495047 	svcmi	0x00495047
     c88:	4e49505f 	mcrmi	0, 2, r5, cr9, cr15, {2}
     c8c:	2820345f 	stmdacs	r0!, {r0, r1, r2, r3, r4, r6, sl, ip, sp}
     c90:	6e697528 	cdpvs	5, 6, cr7, cr9, cr8, {1}
     c94:	5f363174 	svcpl	0x00363174
     c98:	30202974 	eorcc	r2, r0, r4, ror r9
     c9c:	31303078 	teqcc	r0, r8, ror r0
     ca0:	5f002930 	svcpl	0x00002930
     ca4:	544e495f 	strbpl	r4, [lr], #-2399	; 0xfffff6a1
     ca8:	5341465f 	movtpl	r4, #5727	; 0x165f
     cac:	5f343654 	svcpl	0x00343654
     cb0:	45505954 	ldrbmi	r5, [r0, #-2388]	; 0xfffff6ac
     cb4:	6c205f5f 	stcvs	15, cr5, [r0], #-380	; 0xfffffe84
     cb8:	20676e6f 	rsbcs	r6, r7, pc, ror #28
     cbc:	676e6f6c 	strbvs	r6, [lr, -ip, ror #30]!
     cc0:	746e6920 	strbtvc	r6, [lr], #-2336	; 0xfffff6e0
     cc4:	415f5f00 	cmpmi	pc, r0, lsl #30
     cc8:	465f4d52 			; <UNDEFINED> instruction: 0x465f4d52
     ccc:	55544145 	ldrbpl	r4, [r4, #-325]	; 0xfffffebb
     cd0:	435f4552 	cmpmi	pc, #343932928	; 0x14800000
     cd4:	4f52504f 	svcmi	0x0052504f
     cd8:	35312043 	ldrcc	r2, [r1, #-67]!	; 0xffffffbd
     cdc:	43435200 	movtmi	r5, #12800	; 0x3200
     ce0:	4950475f 	ldmdbmi	r0, {r0, r1, r2, r3, r4, r6, r8, r9, sl, lr}^
     ce4:	435f434f 	cmpmi	pc, #1006632961	; 0x3c000001
     ce8:	455f4b4c 	ldrbmi	r4, [pc, #-2892]	; 1a4 <_Min_Heap_Size-0x5c>
     cec:	2029284e 	eorcs	r2, r9, lr, asr #16
     cf0:	43435228 	movtmi	r5, #12840	; 0x3228
     cf4:	50413e2d 	subpl	r3, r1, sp, lsr #28
     cf8:	4e453242 	cdpmi	2, 4, cr3, cr5, cr2, {2}
     cfc:	3d7c2052 	ldclcc	0, cr2, [ip, #-328]!	; 0xfffffeb8
     d00:	3c312820 	ldccc	8, cr2, [r1], #-128	; 0xffffff80
     d04:	2929343c 	stmdbcs	r9!, {r2, r3, r4, r5, sl, ip, sp}
     d08:	544e4900 	strbpl	r4, [lr], #-2304	; 0xfffff700
     d0c:	414d5f38 	cmpmi	sp, r8, lsr pc
     d10:	5f282058 	svcpl	0x00282058
     d14:	544e495f 	strbpl	r4, [lr], #-2399	; 0xfffff6a1
     d18:	414d5f38 	cmpmi	sp, r8, lsr pc
     d1c:	295f5f58 	ldmdbcs	pc, {r3, r4, r6, r8, r9, sl, fp, ip, lr}^	; <UNPREDICTABLE>
     d20:	535f5f00 	cmppl	pc, #0, 30
     d24:	5f455a49 	svcpl	0x00455a49
     d28:	205f5f54 	subscs	r5, pc, r4, asr pc	; <UNPREDICTABLE>
     d2c:	52545000 	subspl	r5, r4, #0
     d30:	46464944 	strbmi	r4, [r6], -r4, asr #18
     d34:	58414d5f 	stmdapl	r1, {r0, r1, r2, r3, r4, r6, r8, sl, fp, lr}^
     d38:	5f5f2820 	svcpl	0x005f2820
     d3c:	44525450 	ldrbmi	r5, [r2], #-1104	; 0xfffffbb0
     d40:	5f464649 	svcpl	0x00464649
     d44:	5f58414d 	svcpl	0x0058414d
     d48:	5f00295f 	svcpl	0x0000295f
     d4c:	544c465f 	strbpl	r4, [ip], #-1631	; 0xfffff9a1
     d50:	4d5f3233 	lfmmi	f3, 2, [pc, #-204]	; c8c <_Min_Stack_Size+0x88c>
     d54:	315f5841 	cmpcc	pc, r1, asr #16
     d58:	58455f30 	stmdapl	r5, {r4, r5, r8, r9, sl, fp, ip, lr}^
     d5c:	205f5f50 	subscs	r5, pc, r0, asr pc	; <UNPREDICTABLE>
     d60:	5f003833 	svcpl	0x00003833
     d64:	4e49555f 	mcrmi	5, 2, r5, cr9, cr15, {2}
     d68:	5f363154 	svcpl	0x00363154
     d6c:	45505954 	ldrbmi	r5, [r0, #-2388]	; 0xfffff6ac
     d70:	73205f5f 			; <UNDEFINED> instruction: 0x73205f5f
     d74:	74726f68 	ldrbtvc	r6, [r2], #-3944	; 0xfffff098
     d78:	736e7520 	cmnvc	lr, #32, 10	; 0x8000000
     d7c:	656e6769 	strbvs	r6, [lr, #-1897]!	; 0xfffff897
     d80:	6e692064 	cdpvs	0, 6, cr2, cr9, cr4, {3}
     d84:	50470074 	subpl	r0, r7, r4, ror r0
     d88:	505f4f49 	subspl	r4, pc, r9, asr #30
     d8c:	375f4e49 	ldrbcc	r4, [pc, -r9, asr #28]
     d90:	75282820 	strvc	r2, [r8, #-2080]!	; 0xfffff7e0
     d94:	31746e69 	cmncc	r4, r9, ror #28
     d98:	29745f36 	ldmdbcs	r4!, {r1, r2, r4, r5, r8, r9, sl, fp, ip, lr}^
     d9c:	30783020 	rsbscc	r3, r8, r0, lsr #32
     da0:	29303830 	ldmdbcs	r0!, {r4, r5, fp, ip, sp}
     da4:	45525f00 	ldrbmi	r5, [r2, #-3840]	; 0xfffff100
     da8:	5f544e45 	svcpl	0x00544e45
     dac:	43454843 	movtmi	r4, #22595	; 0x5843
     db0:	4d545f4b 	ldclmi	15, cr5, [r4, #-300]	; 0xfffffed4
     db4:	72617628 	rsbvc	r7, r1, #40, 12	; 0x2800000
     db8:	525f2029 	subspl	r2, pc, #41	; 0x29
     dbc:	544e4545 	strbpl	r4, [lr], #-1349	; 0xfffffabb
     dc0:	4548435f 	strbmi	r4, [r8, #-863]	; 0xfffffca1
     dc4:	76284b43 	strtvc	r4, [r8], -r3, asr #22
     dc8:	202c7261 	eorcs	r7, ip, r1, ror #4
     dcc:	636f6c5f 	cmnvs	pc, #24320	; 0x5f00
     dd0:	69746c61 	ldmdbvs	r4!, {r0, r5, r6, sl, fp, sp, lr}^
     dd4:	625f656d 	subsvs	r6, pc, #457179136	; 0x1b400000
     dd8:	202c6675 	eorcs	r6, ip, r5, ror r6
     ddc:	75727473 	ldrbvc	r7, [r2, #-1139]!	; 0xfffffb8d
     de0:	5f207463 	svcpl	0x00207463
     de4:	206d745f 	rsbcs	r7, sp, pc, asr r4
     de8:	73202c2a 			; <UNDEFINED> instruction: 0x73202c2a
     dec:	6f657a69 	svcvs	0x00657a69
     df0:	282a2066 	stmdacs	sl!, {r1, r2, r5, r6, sp}
     df4:	72617628 	rsbvc	r7, r1, #40, 12	; 0x2800000
     df8:	5f3e2d29 	svcpl	0x003e2d29
     dfc:	61636f6c 	cmnvs	r3, ip, ror #30
     e00:	6d69746c 	cfstrdvs	mvd7, [r9, #-432]!	; 0xfffffe50
     e04:	75625f65 	strbvc	r5, [r2, #-3941]!	; 0xfffff09b
     e08:	202c2966 	eorcs	r2, ip, r6, ror #18
     e0c:	5f5f0029 	svcpl	0x005f0029
     e10:	52465355 	subpl	r5, r6, #1409286145	; 0x54000001
     e14:	5f544341 	svcpl	0x00544341
     e18:	5f58414d 	svcpl	0x0058414d
     e1c:	5830205f 	ldmdapl	r0!, {r0, r1, r2, r3, r4, r6, sp}
     e20:	2d504646 	ldclcs	6, cr4, [r0, #-280]	; 0xfffffee8
     e24:	52485538 	subpl	r5, r8, #56, 10	; 0xe000000
     e28:	54584500 	ldrbpl	r4, [r8], #-1280	; 0xfffffb00
     e2c:	20303149 	eorscs	r3, r0, r9, asr #2
     e30:	5f003031 	svcpl	0x00003031
     e34:	4e49555f 	mcrmi	5, 2, r5, cr9, cr15, {2}
     e38:	52545054 	subspl	r5, r4, #84	; 0x54
     e3c:	58414d5f 	stmdapl	r1, {r0, r1, r2, r3, r4, r6, r8, sl, fp, lr}^
     e40:	30205f5f 	eorcc	r5, r0, pc, asr pc
     e44:	66666678 			; <UNDEFINED> instruction: 0x66666678
     e48:	66666666 	strbtvs	r6, [r6], -r6, ror #12
     e4c:	5f005566 	svcpl	0x00005566
     e50:	65656e5f 	strbvs	r6, [r5, #-3679]!	; 0xfffff1a1
     e54:	63775f64 	cmnvs	r7, #100, 30	; 0x190
     e58:	5f726168 	svcpl	0x00726168
     e5c:	5f5f0074 	svcpl	0x005f0074
     e60:	33544c46 	cmpcc	r4, #17920	; 0x4600
     e64:	494d5f32 	stmdbmi	sp, {r1, r4, r5, r8, r9, sl, fp, ip, lr}^
     e68:	58455f4e 	stmdapl	r5, {r1, r2, r3, r6, r8, r9, sl, fp, ip, lr}^
     e6c:	205f5f50 	subscs	r5, pc, r0, asr pc	; <UNPREDICTABLE>
     e70:	32312d28 	eorscc	r2, r1, #40, 26	; 0xa00
     e74:	5f002935 	svcpl	0x00002935
     e78:	7365725f 	cmnvc	r5, #-268435451	; 0xf0000005
     e7c:	5f746c75 	svcpl	0x00746c75
     e80:	5f657375 	svcpl	0x00657375
     e84:	63656863 	cmnvs	r5, #6488064	; 0x630000
     e88:	5f5f206b 	svcpl	0x005f206b
     e8c:	72747461 	rsbsvc	r7, r4, #1627389952	; 0x61000000
     e90:	74756269 	ldrbtvc	r6, [r5], #-617	; 0xfffffd97
     e94:	285f5f65 	ldmdacs	pc, {r0, r2, r5, r6, r8, r9, sl, fp, ip, lr}^	; <UNPREDICTABLE>
     e98:	775f5f28 	ldrbvc	r5, [pc, -r8, lsr #30]
     e9c:	5f6e7261 	svcpl	0x006e7261
     ea0:	73756e75 	cmnvc	r5, #1872	; 0x750
     ea4:	725f6465 	subsvc	r6, pc, #1694498816	; 0x65000000
     ea8:	6c757365 	ldclvs	3, cr7, [r5], #-404	; 0xfffffe6c
     eac:	295f5f74 	ldmdbcs	pc, {r2, r4, r5, r6, r8, r9, sl, fp, ip, lr}^	; <UNPREDICTABLE>
     eb0:	58450029 	stmdapl	r5, {r0, r3, r5}^
     eb4:	32314954 	eorscc	r4, r1, #84, 18	; 0x150000
     eb8:	32314250 	eorscc	r4, r1, #80, 4
     ebc:	58452820 	stmdapl	r5, {r5, fp, sp}^
     ec0:	475f4954 			; <UNDEFINED> instruction: 0x475f4954
     ec4:	5f4f4950 	svcpl	0x004f4950
     ec8:	7070614d 	rsbsvc	r6, r0, sp, asr #2
     ecc:	5f676e69 	svcpl	0x00676e69
     ed0:	457b2974 	ldrbmi	r2, [fp, #-2420]!	; 0xfffff68c
     ed4:	31495458 	cmpcc	r9, r8, asr r4
     ed8:	47202c32 			; <UNDEFINED> instruction: 0x47202c32
     edc:	424f4950 	submi	r4, pc, #80, 18	; 0x140000
     ee0:	5047202c 	subpl	r2, r7, ip, lsr #32
     ee4:	505f4f49 	subspl	r4, pc, r9, asr #30
     ee8:	315f4e49 	cmpcc	pc, r9, asr #28
     eec:	45202c32 	strmi	r2, [r0, #-3122]!	; 0xfffff3ce
     ef0:	31495458 	cmpcc	r9, r8, asr r4
     ef4:	52495f32 	subpl	r5, r9, #50, 30	; 0xc8
     ef8:	5f007d51 	svcpl	0x00007d51
     efc:	5f445342 	svcpl	0x00445342
     f00:	44525450 	ldrbmi	r5, [r2], #-1104	; 0xfffffbb0
     f04:	5f464649 	svcpl	0x00464649
     f08:	00205f54 	eoreq	r5, r0, r4, asr pc
     f0c:	31544e49 	cmpcc	r4, r9, asr #28
     f10:	414d5f36 	cmpmi	sp, r6, lsr pc
     f14:	5f282058 	svcpl	0x00282058
     f18:	544e495f 	strbpl	r4, [lr], #-2399	; 0xfffff6a1
     f1c:	4d5f3631 	ldclmi	6, cr3, [pc, #-196]	; e60 <_Min_Stack_Size+0xa60>
     f20:	5f5f5841 	svcpl	0x005f5841
     f24:	5f5f0029 	svcpl	0x005f0029
     f28:	52464c55 	subpl	r4, r6, #21760	; 0x5500
     f2c:	5f544341 	svcpl	0x00544341
     f30:	54494246 	strbpl	r4, [r9], #-582	; 0xfffffdba
     f34:	33205f5f 			; <UNDEFINED> instruction: 0x33205f5f
     f38:	45500032 	ldrbmi	r0, [r0, #-50]	; 0xffffffce
     f3c:	48504952 	ldmdami	r0, {r1, r4, r6, r8, fp, lr}^
     f40:	4c415245 	sfmmi	f5, 2, [r1], {69}	; 0x45
     f44:	41425f53 	cmpmi	r2, r3, asr pc
     f48:	30204553 	eorcc	r4, r0, r3, asr r5
     f4c:	30303478 	eorscc	r3, r0, r8, ror r4
     f50:	30303030 	eorscc	r3, r0, r0, lsr r0
     f54:	53007530 	movwpl	r7, #1328	; 0x530
     f58:	5f334950 	svcpl	0x00334950
     f5c:	20515249 	subscs	r5, r1, r9, asr #4
     f60:	5f003135 	svcpl	0x00003135
     f64:	544c465f 	strbpl	r4, [ip], #-1631	; 0xfffff9a1
     f68:	4d5f3436 	cfldrdmi	mvd3, [pc, #-216]	; e98 <_Min_Stack_Size+0xa98>
     f6c:	315f4e49 	cmpcc	pc, r9, asr #28
     f70:	58455f30 	stmdapl	r5, {r4, r5, r8, r9, sl, fp, ip, lr}^
     f74:	205f5f50 	subscs	r5, pc, r0, asr pc	; <UNPREDICTABLE>
     f78:	30332d28 	eorscc	r2, r3, r8, lsr #26
     f7c:	5f002937 	svcpl	0x00002937
     f80:	7a69735f 	bvc	1a5dd04 <_Min_Stack_Size+0x1a5d904>
     f84:	20745f65 	rsbscs	r5, r4, r5, ror #30
     f88:	625f5f00 	subsvs	r5, pc, #0, 30
     f8c:	646e756f 	strbtvs	r7, [lr], #-1391	; 0xfffffa91
     f90:	00206465 	eoreq	r6, r0, r5, ror #8
     f94:	6e695f5f 	mcrvs	15, 3, r5, cr9, cr15, {2}
     f98:	61665f74 	smcvs	26100	; 0x65f4
     f9c:	32337473 	eorscc	r7, r3, #1929379840	; 0x73000000
     fa0:	645f745f 	ldrbvs	r7, [pc], #-1119	; fa8 <_Min_Stack_Size+0xba8>
     fa4:	6e696665 	cdpvs	6, 6, cr6, cr9, cr5, {3}
     fa8:	31206465 			; <UNDEFINED> instruction: 0x31206465
     fac:	495f5f00 	ldmdbmi	pc, {r8, r9, sl, fp, ip, lr}^	; <UNPREDICTABLE>
     fb0:	465f544e 	ldrbmi	r5, [pc], -lr, asr #8
     fb4:	36545341 	ldrbcc	r5, [r4], -r1, asr #6
     fb8:	49575f34 	ldmdbmi	r7, {r2, r4, r5, r8, r9, sl, fp, ip, lr}^
     fbc:	5f485444 	svcpl	0x00485444
     fc0:	3436205f 	ldrtcc	r2, [r6], #-95	; 0xffffffa1
     fc4:	5f5f5f00 	svcpl	0x005f5f00
     fc8:	5f746e69 	svcpl	0x00746e69
     fcc:	61686377 	smcvs	34359	; 0x8637
     fd0:	5f745f72 	svcpl	0x00745f72
     fd4:	49002068 	stmdbmi	r0, {r3, r5, r6, sp}
     fd8:	3631544e 	ldrtcc	r5, [r1], -lr, asr #8
     fdc:	7828435f 	stmdavc	r8!, {r0, r1, r2, r3, r4, r6, r8, r9, lr}
     fe0:	5f5f2029 	svcpl	0x005f2029
     fe4:	31544e49 	cmpcc	r4, r9, asr #28
     fe8:	28435f36 	stmdacs	r3, {r1, r2, r4, r5, r8, r9, sl, fp, ip, lr}^
     fec:	5f002978 	svcpl	0x00002978
     ff0:	5246535f 	subpl	r5, r6, #2080374785	; 0x7c000001
     ff4:	5f544341 	svcpl	0x00544341
     ff8:	49535045 	ldmdbmi	r3, {r0, r2, r6, ip, lr}^
     ffc:	5f4e4f4c 	svcpl	0x004e4f4c
    1000:	7830205f 	ldmdavc	r0!, {r0, r1, r2, r3, r4, r6, sp}
    1004:	372d5031 			; <UNDEFINED> instruction: 0x372d5031
    1008:	5f005248 	svcpl	0x00005248
    100c:	4e4f435f 	mcrmi	3, 2, r4, cr15, cr15, {2}
    1010:	31544143 	cmpcc	r4, r3, asr #2
    1014:	792c7828 	stmdbvc	ip!, {r3, r5, fp, ip, sp, lr}
    1018:	20782029 	rsbscs	r2, r8, r9, lsr #32
    101c:	79202323 	stmdbvc	r0!, {r0, r1, r5, r8, r9, sp}
    1020:	435f5f00 	cmpmi	pc, #0, 30
    1024:	55535f43 	ldrbpl	r5, [r3, #-3907]	; 0xfffff0bd
    1028:	524f5050 	subpl	r5, pc, #80	; 0x50
    102c:	5f5f5354 	svcpl	0x005f5354
    1030:	4c4e495f 	mcrrmi	9, 5, r4, lr, cr15	; <UNPREDICTABLE>
    1034:	20454e49 	subcs	r4, r5, r9, asr #28
    1038:	5f5f0031 	svcpl	0x005f0031
    103c:	5f4c4244 	svcpl	0x004c4244
    1040:	5f4e494d 	svcpl	0x004e494d
    1044:	455f3031 	ldrbmi	r3, [pc, #-49]	; 101b <_Min_Stack_Size+0xc1b>
    1048:	5f5f5058 	svcpl	0x005f5058
    104c:	332d2820 			; <UNDEFINED> instruction: 0x332d2820
    1050:	00293730 	eoreq	r3, r9, r0, lsr r7
    1054:	53555f5f 	cmppl	r5, #380	; 0x17c
    1058:	42465f51 	submi	r5, r6, #324	; 0x144
    105c:	5f5f5449 	svcpl	0x005f5449
    1060:	00323320 	eorseq	r3, r2, r0, lsr #6
    1064:	524f5f5f 	subpl	r5, pc, #380	; 0x17c
    1068:	5f524544 	svcpl	0x00524544
    106c:	5f474942 	svcpl	0x00474942
    1070:	49444e45 	stmdbmi	r4, {r0, r2, r6, r9, sl, fp, lr}^
    1074:	5f5f4e41 	svcpl	0x005f4e41
    1078:	32333420 	eorscc	r3, r3, #32, 8	; 0x20000000
    107c:	58450031 	stmdapl	r5, {r0, r4, r5}^
    1080:	34314954 	ldrtcc	r4, [r1], #-2388	; 0xfffff6ac
    1084:	00343120 	eorseq	r3, r4, r0, lsr #2
    1088:	48545f5f 	ldmdami	r4, {r0, r1, r2, r3, r4, r6, r8, r9, sl, fp, ip, lr}^
    108c:	5f424d55 	svcpl	0x00424d55
    1090:	45544e49 	ldrbmi	r4, [r4, #-3657]	; 0xfffff1b7
    1094:	524f5752 	subpl	r5, pc, #21495808	; 0x1480000
    1098:	205f5f4b 	subscs	r5, pc, fp, asr #30
    109c:	5f5f0031 	svcpl	0x005f0031
    10a0:	465f5153 			; <UNDEFINED> instruction: 0x465f5153
    10a4:	5f544942 	svcpl	0x00544942
    10a8:	3133205f 	teqcc	r3, pc, asr r0
    10ac:	49564e00 	ldmdbmi	r6, {r9, sl, fp, lr}^
    10b0:	53555f43 	cmppl	r5, #268	; 0x10c
    10b4:	32545241 	subscc	r5, r4, #268435460	; 0x10000004
    10b8:	5152495f 	cmppl	r2, pc, asr r9
    10bc:	7369445f 	cmnvc	r9, #1593835520	; 0x5f000000
    10c0:	656c6261 	strbvs	r6, [ip, #-609]!	; 0xfffffd9f
    10c4:	564e2820 	strbpl	r2, [lr], -r0, lsr #16
    10c8:	495f4349 	ldmdbmi	pc, {r0, r3, r6, r8, r9, lr}^	; <UNPREDICTABLE>
    10cc:	31524543 	cmpcc	r2, r3, asr #10
    10d0:	203d7c20 	eorscs	r7, sp, r0, lsr #24
    10d4:	283c3c31 	ldmdacs	ip!, {r0, r4, r5, sl, fp, ip, sp}
    10d8:	52415355 	subpl	r5, r1, #1409286145	; 0x54000001
    10dc:	495f3254 	ldmdbmi	pc, {r2, r4, r6, r9, ip, sp}^	; <UNPREDICTABLE>
    10e0:	2d205152 	stfcss	f5, [r0, #-328]!	; 0xfffffeb8
    10e4:	29323320 	ldmdbcs	r2!, {r5, r8, r9, ip, sp}
    10e8:	455f0029 	ldrbmi	r0, [pc, #-41]	; 10c7 <_Min_Stack_Size+0xcc7>
    10ec:	4144494c 	cmpmi	r4, ip, asr #18
    10f0:	5f454c42 	svcpl	0x00454c42
    10f4:	494c4e49 	stmdbmi	ip, {r0, r3, r6, r9, sl, fp, lr}^
    10f8:	7320454e 			; <UNDEFINED> instruction: 0x7320454e
    10fc:	69746174 	ldmdbvs	r4!, {r2, r4, r5, r6, r8, sp, lr}^
    1100:	5f5f2063 	svcpl	0x005f2063
    1104:	696c6e69 	stmdbvs	ip!, {r0, r3, r5, r6, r9, sl, fp, sp, lr}^
    1108:	5f5f656e 	svcpl	0x005f656e
    110c:	49555f00 	ldmdbmi	r5, {r8, r9, sl, fp, ip, lr}^
    1110:	3631544e 	ldrtcc	r5, [r1], -lr, asr #8
    1114:	445f545f 	ldrbmi	r5, [pc], #-1119	; 111c <_Min_Stack_Size+0xd1c>
    1118:	414c4345 	cmpmi	ip, r5, asr #6
    111c:	20444552 	subcs	r4, r4, r2, asr r5
    1120:	555f5f00 	ldrbpl	r5, [pc, #-3840]	; 228 <_Min_Heap_Size+0x28>
    1124:	465f5148 	ldrbmi	r5, [pc], -r8, asr #2
    1128:	5f544942 	svcpl	0x00544942
    112c:	3631205f 			; <UNDEFINED> instruction: 0x3631205f
    1130:	544e4900 	strbpl	r4, [lr], #-2304	; 0xfffff700
    1134:	41454c5f 	cmpmi	r5, pc, asr ip
    1138:	34365453 	ldrtcc	r5, [r6], #-1107	; 0xfffffbad
    113c:	58414d5f 	stmdapl	r1, {r0, r1, r2, r3, r4, r6, r8, sl, fp, lr}^
    1140:	5f5f2820 	svcpl	0x005f2820
    1144:	5f544e49 	svcpl	0x00544e49
    1148:	5341454c 	movtpl	r4, #5452	; 0x154c
    114c:	5f343654 	svcpl	0x00343654
    1150:	5f58414d 	svcpl	0x0058414d
    1154:	5f00295f 	svcpl	0x0000295f
    1158:	4e454552 	mcrmi	5, 2, r4, cr5, cr2, {2}
    115c:	4d455f54 	stclmi	15, cr5, [r5, #-336]	; 0xfffffeb0
    1160:	45475245 	strbmi	r5, [r7, #-581]	; 0xfffffdbb
    1164:	5f59434e 	svcpl	0x0059434e
    1168:	455a4953 	ldrbmi	r4, [sl, #-2387]	; 0xfffff6ad
    116c:	00353220 	eorseq	r3, r5, r0, lsr #4
    1170:	394d4954 	stmdbcc	sp, {r2, r4, r6, r8, fp, lr}^
    1174:	5341425f 	movtpl	r4, #4703	; 0x125f
    1178:	78302045 	ldmdavc	r0!, {r0, r2, r6, sp}
    117c:	31303034 	teqcc	r0, r4, lsr r0
    1180:	30304334 	eorscc	r4, r0, r4, lsr r3
    1184:	5f5f0075 	svcpl	0x005f0075
    1188:	44525450 	ldrbmi	r5, [r2], #-1104	; 0xfffffbb0
    118c:	5f464649 	svcpl	0x00464649
    1190:	54444957 	strbpl	r4, [r4], #-2391	; 0xfffff6a9
    1194:	205f5f48 	subscs	r5, pc, r8, asr #30
    1198:	5f003233 	svcpl	0x00003233
    119c:	6165775f 	cmnvs	r5, pc, asr r7
    11a0:	65725f6b 	ldrbvs	r5, [r2, #-3947]!	; 0xfffff095
    11a4:	65726566 	ldrbvs	r6, [r2, #-1382]!	; 0xfffffa9a
    11a8:	2865636e 	stmdacs	r5!, {r1, r2, r3, r5, r6, r8, r9, sp, lr}^
    11ac:	2c6d7973 			; <UNDEFINED> instruction: 0x2c6d7973
    11b0:	61696c61 	cmnvs	r9, r1, ror #24
    11b4:	5f202973 	svcpl	0x00202973
    11b8:	6d73615f 	ldfvse	f6, [r3, #-380]!	; 0xfffffe84
    11bc:	22285f5f 	eorcs	r5, r8, #380	; 0x17c
    11c0:	6165772e 	cmnvs	r5, lr, lsr #14
    11c4:	2022206b 	eorcs	r2, r2, fp, rrx
    11c8:	696c6123 	stmdbvs	ip!, {r0, r1, r5, r8, sp, lr}^
    11cc:	3b297361 	blcc	a5df58 <_Min_Stack_Size+0xa5db58>
    11d0:	615f5f20 	cmpvs	pc, r0, lsr #30
    11d4:	5f5f6d73 	svcpl	0x005f6d73
    11d8:	652e2228 	strvs	r2, [lr, #-552]!	; 0xfffffdd8
    11dc:	22207571 	eorcs	r7, r0, #473956352	; 0x1c400000
    11e0:	6c612320 	stclvs	3, cr2, [r1], #-128	; 0xffffff80
    11e4:	20736169 	rsbscs	r6, r3, r9, ror #2
    11e8:	22202c22 	eorcs	r2, r0, #8704	; 0x2200
    11ec:	79732320 	ldmdbvc	r3!, {r5, r8, r9, sp}^
    11f0:	5f00296d 	svcpl	0x0000296d
    11f4:	4e49555f 	mcrmi	5, 2, r5, cr9, cr15, {2}
    11f8:	41465f54 	cmpmi	r6, r4, asr pc
    11fc:	5f385453 	svcpl	0x00385453
    1200:	5f58414d 	svcpl	0x0058414d
    1204:	7830205f 	ldmdavc	r0!, {r0, r1, r2, r3, r4, r6, sp}
    1208:	66666666 	strbtvs	r6, [r6], -r6, ror #12
    120c:	66666666 	strbtvs	r6, [r6], -r6, ror #12
    1210:	5f5f0055 	svcpl	0x005f0055
    1214:	5f736168 	svcpl	0x00736168
    1218:	65747865 	ldrbvs	r7, [r4, #-2149]!	; 0xfffff79b
    121c:	6f69736e 	svcvs	0x0069736e
    1220:	5f5f206e 	svcpl	0x005f206e
    1224:	5f736168 	svcpl	0x00736168
    1228:	74616566 	strbtvc	r6, [r1], #-1382	; 0xfffffa9a
    122c:	00657275 	rsbeq	r7, r5, r5, ror r2
    1230:	414c5f5f 	cmpmi	ip, pc, asr pc
    1234:	4d554343 	ldclmi	3, cr4, [r5, #-268]	; 0xfffffef4
    1238:	4942495f 	stmdbmi	r2, {r0, r1, r2, r3, r4, r6, r8, fp, lr}^
    123c:	205f5f54 	subscs	r5, pc, r4, asr pc	; <UNPREDICTABLE>
    1240:	45003233 	strmi	r3, [r0, #-563]	; 0xfffffdcd
    1244:	39495458 	stmdbcc	r9, {r3, r4, r6, sl, ip, lr}^
    1248:	20394250 	eorscs	r4, r9, r0, asr r2
    124c:	54584528 	ldrbpl	r4, [r8], #-1320	; 0xfffffad8
    1250:	50475f49 	subpl	r5, r7, r9, asr #30
    1254:	4d5f4f49 	ldclmi	15, cr4, [pc, #-292]	; 1138 <_Min_Stack_Size+0xd38>
    1258:	69707061 	ldmdbvs	r0!, {r0, r5, r6, ip, sp, lr}^
    125c:	745f676e 	ldrbvc	r6, [pc], #-1902	; 1264 <_Min_Stack_Size+0xe64>
    1260:	58457b29 	stmdapl	r5, {r0, r3, r5, r8, r9, fp, ip, sp, lr}^
    1264:	2c394954 			; <UNDEFINED> instruction: 0x2c394954
    1268:	49504720 	ldmdbmi	r0, {r5, r8, r9, sl, lr}^
    126c:	202c424f 	eorcs	r4, ip, pc, asr #4
    1270:	4f495047 	svcmi	0x00495047
    1274:	4e49505f 	mcrmi	0, 2, r5, cr9, cr15, {2}
    1278:	202c395f 	eorcs	r3, ip, pc, asr r9
    127c:	49545845 	ldmdbmi	r4, {r0, r2, r6, fp, ip, lr}^
    1280:	52495f39 	subpl	r5, r9, #57, 30	; 0xe4
    1284:	5f007d51 	svcpl	0x00007d51
    1288:	6e69755f 	mcrvs	5, 3, r7, cr9, cr15, {2}
    128c:	745f3874 	ldrbvc	r3, [pc], #-2164	; 1294 <_Min_Stack_Size+0xe94>
    1290:	485f5f00 	ldmdami	pc, {r8, r9, sl, fp, ip, lr}^	; <UNPREDICTABLE>
    1294:	42495f41 	submi	r5, r9, #260	; 0x104
    1298:	5f5f5449 	svcpl	0x005f5449
    129c:	5f003820 	svcpl	0x00003820
    12a0:	57454e5f 	smlsldpl	r4, r5, pc, lr	; <UNPREDICTABLE>
    12a4:	5f42494c 	svcpl	0x0042494c
    12a8:	205f5f48 	subscs	r5, pc, r8, asr #30
    12ac:	5f5f0031 	svcpl	0x005f0031
    12b0:	5f544e49 	svcpl	0x00544e49
    12b4:	54534146 	ldrbpl	r4, [r3], #-326	; 0xfffffeba
    12b8:	575f3631 	smmlarpl	pc, r1, r6, r3	; <UNPREDICTABLE>
    12bc:	48544449 	ldmdami	r4, {r0, r3, r6, sl, lr}^
    12c0:	33205f5f 			; <UNDEFINED> instruction: 0x33205f5f
    12c4:	50470032 	subpl	r0, r7, r2, lsr r0
    12c8:	5f444f49 	svcpl	0x00444f49
    12cc:	45534142 	ldrbmi	r4, [r3, #-322]	; 0xfffffebe
    12d0:	34783020 	ldrbtcc	r3, [r8], #-32	; 0xffffffe0
    12d4:	31313030 	teqcc	r1, r0, lsr r0
    12d8:	75303034 	ldrvc	r3, [r0, #-52]!	; 0xffffffcc
    12dc:	45525f00 	ldrbmi	r5, [r2, #-3840]	; 0xfffff100
    12e0:	5f544e45 	svcpl	0x00544e45
    12e4:	5452424d 	ldrbpl	r4, [r2], #-589	; 0xfffffdb3
    12e8:	5f43574f 	svcpl	0x0043574f
    12ec:	54415453 	strbpl	r5, [r1], #-1107	; 0xfffffbad
    12f0:	74702845 	ldrbtvc	r2, [r0], #-2117	; 0xfffff7bb
    12f4:	28202972 	stmdacs	r0!, {r1, r4, r5, r6, r8, fp, sp}
    12f8:	72747028 	rsbsvc	r7, r4, #40	; 0x28
    12fc:	5f3e2d29 	svcpl	0x003e2d29
    1300:	6373696d 	cmnvs	r3, #1785856	; 0x1b4000
    1304:	6d5f3e2d 	ldclvs	14, cr3, [pc, #-180]	; 1258 <_Min_Stack_Size+0xe58>
    1308:	6f747262 	svcvs	0x00747262
    130c:	735f6377 	cmpvc	pc, #-603979775	; 0xdc000001
    1310:	65746174 	ldrbvs	r6, [r4, #-372]!	; 0xfffffe8c
    1314:	5f5f0029 	svcpl	0x005f0029
    1318:	5341454c 	movtpl	r4, #5452	; 0x154c
    131c:	20323354 	eorscs	r3, r2, r4, asr r3
    1320:	00226c22 	eoreq	r6, r2, r2, lsr #24
    1324:	4c4c5f5f 	mcrrmi	15, 5, r5, ip, cr15
    1328:	43415246 	movtmi	r5, #4678	; 0x1246
    132c:	494d5f54 	stmdbmi	sp, {r2, r4, r6, r8, r9, sl, fp, ip, lr}^
    1330:	205f5f4e 	subscs	r5, pc, lr, asr #30
    1334:	2e302d28 	cdpcs	13, 3, cr2, cr0, cr8, {1}
    1338:	524c4c35 	subpl	r4, ip, #13568	; 0x3500
    133c:	352e302d 	strcc	r3, [lr, #-45]!	; 0xffffffd3
    1340:	29524c4c 	ldmdbcs	r2, {r2, r3, r6, sl, fp, lr}^
    1344:	495f5f00 	ldmdbmi	pc, {r8, r9, sl, fp, ip, lr}^	; <UNPREDICTABLE>
    1348:	5450544e 	ldrbpl	r5, [r0], #-1102	; 0xfffffbb2
    134c:	414d5f52 	cmpmi	sp, r2, asr pc
    1350:	205f5f58 	subscs	r5, pc, r8, asr pc	; <UNPREDICTABLE>
    1354:	66377830 			; <UNDEFINED> instruction: 0x66377830
    1358:	66666666 	strbtvs	r6, [r6], -r6, ror #12
    135c:	5f006666 	svcpl	0x00006666
    1360:	4e41525f 	mcrmi	2, 2, r5, cr1, cr15, {2}
    1364:	414d5f44 	cmpmi	sp, r4, asr #30
    1368:	78302058 	ldmdavc	r0!, {r3, r4, r6, sp}
    136c:	66666637 			; <UNDEFINED> instruction: 0x66666637
    1370:	66666666 	strbtvs	r6, [r6], -r6, ror #12
    1374:	555f5f00 	ldrbpl	r5, [pc, #-3840]	; 47c <_Min_Stack_Size+0x7c>
    1378:	5f544e49 	svcpl	0x00544e49
    137c:	54534146 	ldrbpl	r4, [r3], #-326	; 0xfffffeba
    1380:	4d5f3631 	ldclmi	6, cr3, [pc, #-196]	; 12c4 <_Min_Stack_Size+0xec4>
    1384:	5f5f5841 	svcpl	0x005f5841
    1388:	66783020 	ldrbtvs	r3, [r8], -r0, lsr #32
    138c:	66666666 	strbtvs	r6, [r6], -r6, ror #12
    1390:	55666666 	strbpl	r6, [r6, #-1638]!	; 0xfffff99a
    1394:	544e4900 	strbpl	r4, [lr], #-2304	; 0xfffff700
    1398:	41454c5f 	cmpmi	r5, pc, asr ip
    139c:	34365453 	ldrtcc	r5, [r6], #-1107	; 0xfffffbad
    13a0:	4e494d5f 	mcrmi	13, 2, r4, cr9, cr15, {2}
    13a4:	5f2d2820 	svcpl	0x002d2820
    13a8:	544e495f 	strbpl	r4, [lr], #-2399	; 0xfffff6a1
    13ac:	41454c5f 	cmpmi	r5, pc, asr ip
    13b0:	34365453 	ldrtcc	r5, [r6], #-1107	; 0xfffffbad
    13b4:	58414d5f 	stmdapl	r1, {r0, r1, r2, r3, r4, r6, r8, sl, fp, lr}^
    13b8:	2d205f5f 	stccs	15, cr5, [r0, #-380]!	; 0xfffffe84
    13bc:	00293120 	eoreq	r3, r9, r0, lsr #2
    13c0:	52415355 	subpl	r5, r1, #1409286145	; 0x54000001
    13c4:	425f3254 	subsmi	r3, pc, #84, 4	; 0x40000005
    13c8:	20455341 	subcs	r5, r5, r1, asr #6
    13cc:	30347830 	eorscc	r7, r4, r0, lsr r8
    13d0:	34343030 	ldrtcc	r3, [r4], #-48	; 0xffffffd0
    13d4:	00753030 	rsbseq	r3, r5, r0, lsr r0
    13d8:	49545845 	ldmdbmi	r4, {r0, r2, r6, fp, ip, lr}^
    13dc:	43503231 	cmpmi	r0, #268435459	; 0x10000003
    13e0:	28203231 	stmdacs	r0!, {r0, r4, r5, r9, ip, sp}
    13e4:	49545845 	ldmdbmi	r4, {r0, r2, r6, fp, ip, lr}^
    13e8:	4950475f 	ldmdbmi	r0, {r0, r1, r2, r3, r4, r6, r8, r9, sl, lr}^
    13ec:	614d5f4f 	cmpvs	sp, pc, asr #30
    13f0:	6e697070 	mcrvs	0, 3, r7, cr9, cr0, {3}
    13f4:	29745f67 	ldmdbcs	r4!, {r0, r1, r2, r5, r6, r8, r9, sl, fp, ip, lr}^
    13f8:	5458457b 	ldrbpl	r4, [r8], #-1403	; 0xfffffa85
    13fc:	2c323149 	ldfcss	f3, [r2], #-292	; 0xfffffedc
    1400:	49504720 	ldmdbmi	r0, {r5, r8, r9, sl, lr}^
    1404:	202c434f 	eorcs	r4, ip, pc, asr #6
    1408:	4f495047 	svcmi	0x00495047
    140c:	4e49505f 	mcrmi	0, 2, r5, cr9, cr15, {2}
    1410:	2c32315f 	ldfcss	f3, [r2], #-380	; 0xfffffe84
    1414:	54584520 	ldrbpl	r4, [r8], #-1312	; 0xfffffae0
    1418:	5f323149 	svcpl	0x00323149
    141c:	7d515249 	lfmvc	f5, 2, [r1, #-292]	; 0xfffffedc
    1420:	475f5f00 	ldrbmi	r5, [pc, -r0, lsl #30]
    1424:	4c43554e 	cfstr64mi	mvdx5, [r3], {78}	; 0x4e
    1428:	5f454b49 	svcpl	0x00454b49
    142c:	4c495542 	cfstr64mi	mvdx5, [r9], {66}	; 0x42
    1430:	5f4e4954 	svcpl	0x004e4954
    1434:	534e4f43 	movtpl	r4, #61251	; 0xef43
    1438:	544e4154 	strbpl	r4, [lr], #-340	; 0xfffffeac
    143c:	3120505f 	qsubcc	r5, pc, r0	; <UNPREDICTABLE>
    1440:	45525f00 	ldrbmi	r5, [r2, #-3840]	; 0xfffff100
    1444:	5f544e45 	svcpl	0x00544e45
    1448:	43454843 	movtmi	r4, #22595	; 0x5843
    144c:	6176284b 	cmnvs	r6, fp, asr #16
    1450:	68772c72 	ldmdavs	r7!, {r1, r4, r5, r6, sl, fp, sp}^
    1454:	742c7461 	strtvc	r7, [ip], #-1121	; 0xfffffb9f
    1458:	2c657079 	stclcs	0, cr7, [r5], #-484	; 0xfffffe1c
    145c:	657a6973 	ldrbvs	r6, [sl, #-2419]!	; 0xfffff68d
    1460:	696e692c 	stmdbvs	lr!, {r2, r3, r5, r8, fp, sp, lr}^
    1464:	64202974 	strtvs	r2, [r0], #-2420	; 0xfffff68c
    1468:	207b206f 	rsbscs	r2, fp, pc, rrx
    146c:	75727473 	ldrbvc	r7, [r2, #-1139]!	; 0xfffffb8d
    1470:	5f207463 	svcpl	0x00207463
    1474:	6e656572 	mcrvs	5, 3, r6, cr5, cr2, {3}
    1478:	5f2a2074 	svcpl	0x002a2074
    147c:	203d2072 	eorscs	r2, sp, r2, ror r0
    1480:	72617628 	rsbvc	r7, r1, #40, 12	; 0x2800000
    1484:	69203b29 	stmdbvs	r0!, {r0, r3, r5, r8, r9, fp, ip, sp}
    1488:	5f282066 	svcpl	0x00282066
    148c:	773e2d72 			; <UNDEFINED> instruction: 0x773e2d72
    1490:	20746168 	rsbscs	r6, r4, r8, ror #2
    1494:	4e203d3d 	mcrmi	13, 1, r3, cr0, cr13, {1}
    1498:	294c4c55 	stmdbcs	ip, {r0, r2, r4, r6, sl, fp, lr}^
    149c:	5f207b20 	svcpl	0x00207b20
    14a0:	773e2d72 			; <UNDEFINED> instruction: 0x773e2d72
    14a4:	20746168 	rsbscs	r6, r4, r8, ror #2
    14a8:	7428203d 	strtvc	r2, [r8], #-61	; 0xffffffc3
    14ac:	29657079 	stmdbcs	r5!, {r0, r3, r4, r5, r6, ip, sp, lr}^
    14b0:	6c6c616d 	stfvse	f6, [ip], #-436	; 0xfffffe4c
    14b4:	7328636f 			; <UNDEFINED> instruction: 0x7328636f
    14b8:	29657a69 	stmdbcs	r5!, {r0, r3, r5, r6, r9, fp, ip, sp, lr}^
    14bc:	5f5f203b 	svcpl	0x005f203b
    14c0:	6e656572 	mcrvs	5, 3, r6, cr5, cr2, {3}
    14c4:	73615f74 	cmnvc	r1, #116, 30	; 0x1d0
    14c8:	74726573 	ldrbtvc	r6, [r2], #-1395	; 0xfffffa8d
    14cc:	2d725f28 	ldclcs	15, cr5, [r2, #-160]!	; 0xffffff60
    14d0:	6168773e 	cmnvs	r8, lr, lsr r7
    14d4:	203b2974 	eorscs	r2, fp, r4, ror r9
    14d8:	74696e69 	strbtvc	r6, [r9], #-3689	; 0xfffff197
    14dc:	207d203b 	rsbscs	r2, sp, fp, lsr r0
    14e0:	6877207d 	ldmdavs	r7!, {r0, r2, r3, r4, r5, r6, sp}^
    14e4:	20656c69 	rsbcs	r6, r5, r9, ror #24
    14e8:	00293028 	eoreq	r3, r9, r8, lsr #32
    14ec:	6e6f4e5f 	mcrvs	14, 3, r4, cr15, cr15, {2}
    14f0:	6c6c756e 	cfstr64vs	mvdx7, [ip], #-440	; 0xfffffe48
    14f4:	5f5f0020 	svcpl	0x005f0020
    14f8:	43554e47 	cmpmi	r5, #1136	; 0x470
    14fc:	4552505f 	ldrbmi	r5, [r2, #-95]	; 0xffffffa1
    1500:	28514552 	ldmdacs	r1, {r1, r4, r6, r8, sl, lr}^
    1504:	2c6a616d 	stfcse	f6, [sl], #-436	; 0xfffffe4c
    1508:	296e696d 	stmdbcs	lr!, {r0, r2, r3, r5, r6, r8, fp, sp, lr}^
    150c:	5f282820 	svcpl	0x00282820
    1510:	554e475f 	strbpl	r4, [lr, #-1887]	; 0xfffff8a1
    1514:	205f5f43 	subscs	r5, pc, r3, asr #30
    1518:	31203c3c 			; <UNDEFINED> instruction: 0x31203c3c
    151c:	2b202936 	blcs	80b9fc <_Min_Stack_Size+0x80b5fc>
    1520:	475f5f20 	ldrbmi	r5, [pc, -r0, lsr #30]
    1524:	5f43554e 	svcpl	0x0043554e
    1528:	4f4e494d 	svcmi	0x004e494d
    152c:	205f5f52 	subscs	r5, pc, r2, asr pc	; <UNPREDICTABLE>
    1530:	28203d3e 	stmdacs	r0!, {r1, r2, r3, r4, r5, r8, sl, fp, ip, sp}
    1534:	6a616d28 	bvs	185c9dc <_Min_Stack_Size+0x185c5dc>
    1538:	3c3c2029 	ldccc	0, cr2, [ip], #-164	; 0xffffff5c
    153c:	29363120 	ldmdbcs	r6!, {r5, r8, ip, sp}
    1540:	28202b20 	stmdacs	r0!, {r5, r8, r9, fp, sp}
    1544:	296e696d 	stmdbcs	lr!, {r0, r2, r3, r5, r6, r8, fp, sp, lr}^
    1548:	545f0029 	ldrbpl	r0, [pc], #-41	; 1550 <_Min_Stack_Size+0x1150>
    154c:	4843575f 	stmdami	r3, {r0, r1, r2, r3, r4, r6, r8, r9, sl, ip, lr}^
    1550:	00205241 	eoreq	r5, r0, r1, asr #4
    1554:	356d6954 	strbcc	r6, [sp, #-2388]!	; 0xfffff6ac
    1558:	54282820 	strtpl	r2, [r8], #-2080	; 0xfffff7e0
    155c:	74324d49 	ldrtvc	r4, [r2], #-3401	; 0xfffff2b7
    1560:	79545f35 	ldmdbvc	r4, {r0, r2, r4, r5, r8, r9, sl, fp, ip, lr}^
    1564:	65446570 	strbvs	r6, [r4, #-1392]	; 0xfffffa90
    1568:	2a745f66 	bcs	1d19308 <_Min_Stack_Size+0x1d18f08>
    156c:	4d495429 	cfstrdmi	mvd5, [r9, #-164]	; 0xffffff5c
    1570:	41425f35 	cmpmi	r2, r5, lsr pc
    1574:	00294553 	eoreq	r4, r9, r3, asr r5
    1578:	444c5f5f 	strbmi	r5, [ip], #-3935	; 0xfffff0a1
    157c:	485f4c42 	ldmdami	pc, {r1, r6, sl, fp, lr}^	; <UNPREDICTABLE>
    1580:	515f5341 	cmppl	pc, r1, asr #6
    1584:	54454955 	strbpl	r4, [r5], #-2389	; 0xfffff6ab
    1588:	4e414e5f 	mcrmi	14, 2, r4, cr1, cr15, {2}
    158c:	31205f5f 			; <UNDEFINED> instruction: 0x31205f5f
    1590:	4e495f00 	cdpmi	15, 4, cr5, cr9, cr0, {0}
    1594:	52545054 	subspl	r5, r4, #84	; 0x54
    1598:	445f545f 	ldrbmi	r5, [pc], #-1119	; 15a0 <_Min_Stack_Size+0x11a0>
    159c:	414c4345 	cmpmi	ip, r5, asr #6
    15a0:	20444552 	subcs	r4, r4, r2, asr r5
    15a4:	49504700 	ldmdbmi	r0, {r8, r9, sl, lr}^
    15a8:	49505f4f 	ldmdbmi	r0, {r0, r1, r2, r3, r6, r8, r9, sl, fp, ip, lr}^
    15ac:	34315f4e 	ldrtcc	r5, [r1], #-3918	; 0xfffff0b2
    15b0:	75282820 	strvc	r2, [r8, #-2080]!	; 0xfffff7e0
    15b4:	31746e69 	cmncc	r4, r9, ror #28
    15b8:	29745f36 	ldmdbcs	r4!, {r1, r2, r4, r5, r8, r9, sl, fp, ip, lr}^
    15bc:	34783020 	ldrbtcc	r3, [r8], #-32	; 0xffffffe0
    15c0:	29303030 	ldmdbcs	r0!, {r4, r5, ip, sp}
    15c4:	465f5f00 	ldrbmi	r5, [pc], -r0, lsl #30
    15c8:	3233544c 	eorscc	r5, r3, #76, 8	; 0x4c000000
    15cc:	41485f58 	cmpmi	r8, r8, asr pc
    15d0:	4e495f53 	mcrmi	15, 2, r5, cr9, cr3, {2}
    15d4:	494e4946 	stmdbmi	lr, {r1, r2, r6, r8, fp, lr}^
    15d8:	5f5f5954 	svcpl	0x005f5954
    15dc:	49003120 	stmdbmi	r0, {r5, r8, ip, sp}
    15e0:	465f544e 	ldrbmi	r5, [pc], -lr, asr #8
    15e4:	33545341 	cmpcc	r4, #67108865	; 0x4000001
    15e8:	494d5f32 	stmdbmi	sp, {r1, r4, r5, r8, r9, sl, fp, ip, lr}^
    15ec:	2d28204e 	stccs	0, cr2, [r8, #-312]!	; 0xfffffec8
    15f0:	4e495f5f 	mcrmi	15, 2, r5, cr9, cr15, {2}
    15f4:	41465f54 	cmpmi	r6, r4, asr pc
    15f8:	32335453 	eorscc	r5, r3, #1392508928	; 0x53000000
    15fc:	58414d5f 	stmdapl	r1, {r0, r1, r2, r3, r4, r6, r8, sl, fp, lr}^
    1600:	2d205f5f 	stccs	15, cr5, [r0, #-380]!	; 0xfffffe84
    1604:	00293120 	eoreq	r3, r9, r0, lsr #2
    1608:	5359535f 	cmppl	r9, #2080374785	; 0x7c000001
    160c:	5a49535f 	bpl	1256390 <_Min_Stack_Size+0x1255f90>
    1610:	5f545f45 	svcpl	0x00545f45
    1614:	44002048 	strmi	r2, [r0], #-72	; 0xffffffb8
    1618:	47554245 	ldrbmi	r4, [r5, -r5, asr #4]
    161c:	4e003120 	adfmisp	f3, f0, f0
    1620:	5f434956 	svcpl	0x00434956
    1624:	49545845 	ldmdbmi	r4, {r0, r2, r6, fp, ip, lr}^
    1628:	355f3031 	ldrbcc	r3, [pc, #-49]	; 15ff <_Min_Stack_Size+0x11ff>
    162c:	5152495f 	cmppl	r2, pc, asr r9
    1630:	616e455f 	cmnvs	lr, pc, asr r5
    1634:	20656c62 	rsbcs	r6, r5, r2, ror #24
    1638:	49564e28 	ldmdbmi	r6, {r3, r5, r9, sl, fp, lr}^
    163c:	53495f43 	movtpl	r5, #40771	; 0x9f43
    1640:	20305245 	eorscs	r5, r0, r5, asr #4
    1644:	31203d7c 			; <UNDEFINED> instruction: 0x31203d7c
    1648:	33323c3c 	teqcc	r2, #60, 24	; 0x3c00
    164c:	5f5f0029 	svcpl	0x005f0029
    1650:	6b636f6c 	blvs	18dd408 <_Min_Stack_Size+0x18dd008>
    1654:	78655f73 	stmdavc	r5!, {r0, r1, r4, r5, r6, r8, r9, sl, fp, ip, lr}^
    1658:	73756c63 	cmnvc	r5, #25344	; 0x6300
    165c:	28657669 	stmdacs	r5!, {r0, r3, r5, r6, r9, sl, ip, sp, lr}^
    1660:	292e2e2e 	stmdbcs	lr!, {r1, r2, r3, r5, r9, sl, fp, sp}
    1664:	6c5f5f20 	mrrcvs	15, 2, r5, pc, cr0	; <UNPREDICTABLE>
    1668:	5f6b636f 	svcpl	0x006b636f
    166c:	6f6e6e61 	svcvs	0x006e6e61
    1670:	65746174 	ldrbvs	r6, [r4, #-372]!	; 0xfffffe8c
    1674:	63786528 	cmnvs	r8, #40, 10	; 0xa000000
    1678:	6973756c 	ldmdbvs	r3!, {r2, r3, r5, r6, r8, sl, ip, sp, lr}^
    167c:	6c5f6576 	cfldr64vs	mvdx6, [pc], {118}	; 0x76
    1680:	5f6b636f 	svcpl	0x006b636f
    1684:	636e7566 	cmnvs	lr, #427819008	; 0x19800000
    1688:	6e6f6974 			; <UNDEFINED> instruction: 0x6e6f6974
    168c:	565f5f28 	ldrbpl	r5, [pc], -r8, lsr #30
    1690:	52415f41 	subpl	r5, r1, #260	; 0x104
    1694:	5f5f5347 	svcpl	0x005f5347
    1698:	5f002929 	svcpl	0x00002929
    169c:	4343415f 	movtmi	r4, #12639	; 0x315f
    16a0:	465f4d55 			; <UNDEFINED> instruction: 0x465f4d55
    16a4:	5f544942 	svcpl	0x00544942
    16a8:	3531205f 	ldrcc	r2, [r1, #-95]!	; 0xffffffa1
    16ac:	6c5f5f00 	mrrcvs	15, 0, r5, pc, cr0	; <UNPREDICTABLE>
    16b0:	5f6b636f 	svcpl	0x006b636f
    16b4:	656c6572 	strbvs	r6, [ip, #-1394]!	; 0xfffffa8e
    16b8:	28657361 	stmdacs	r5!, {r0, r5, r6, r8, r9, ip, sp, lr}^
    16bc:	6b636f6c 	blvs	18dd474 <_Min_Stack_Size+0x18dd074>
    16c0:	5f5f2029 	svcpl	0x005f2029
    16c4:	61746572 	cmnvs	r4, r2, ror r5
    16c8:	74656772 	strbtvc	r6, [r5], #-1906	; 0xfffff88e
    16cc:	636f6c5f 	cmnvs	pc, #24320	; 0x5f00
    16d0:	65725f6b 	ldrbvs	r5, [r2, #-3947]!	; 0xfffff095
    16d4:	7361656c 	cmnvc	r1, #108, 10	; 0x1b000000
    16d8:	6f6c2865 	svcvs	0x006c2865
    16dc:	00296b63 	eoreq	r6, r9, r3, ror #22
    16e0:	41555f5f 	cmpmi	r5, pc, asr pc
    16e4:	4d554343 	ldclmi	3, cr4, [r5, #-268]	; 0xfffffef4
    16e8:	4942495f 	stmdbmi	r2, {r0, r1, r2, r3, r4, r6, r8, fp, lr}^
    16ec:	205f5f54 	subscs	r5, pc, r4, asr pc	; <UNPREDICTABLE>
    16f0:	5f003631 	svcpl	0x00003631
    16f4:	636f6c5f 	cmnvs	pc, #24320	; 0x5f00
    16f8:	6e695f6b 	cdpvs	15, 6, cr5, cr9, cr11, {3}
    16fc:	6c287469 	cfstrsvs	mvf7, [r8], #-420	; 0xfffffe5c
    1700:	296b636f 	stmdbcs	fp!, {r0, r1, r2, r3, r5, r6, r8, r9, sp, lr}^
    1704:	725f5f20 	subsvc	r5, pc, #32, 30	; 0x80
    1708:	72617465 	rsbvc	r7, r1, #1694498816	; 0x65000000
    170c:	5f746567 	svcpl	0x00746567
    1710:	6b636f6c 	blvs	18dd4c8 <_Min_Stack_Size+0x18dd0c8>
    1714:	696e695f 	stmdbvs	lr!, {r0, r1, r2, r3, r4, r6, r8, fp, sp, lr}^
    1718:	6c262874 	stcvs	8, cr2, [r6], #-464	; 0xfffffe30
    171c:	296b636f 	stmdbcs	fp!, {r0, r1, r2, r3, r5, r6, r8, r9, sp, lr}^
    1720:	495f5f00 	ldmdbmi	pc, {r8, r9, sl, fp, ip, lr}^	; <UNPREDICTABLE>
    1724:	465f544e 	ldrbmi	r5, [pc], -lr, asr #8
    1728:	36545341 	ldrbcc	r5, [r4], -r1, asr #6
    172c:	414d5f34 	cmpmi	sp, r4, lsr pc
    1730:	205f5f58 	subscs	r5, pc, r8, asr pc	; <UNPREDICTABLE>
    1734:	66377830 			; <UNDEFINED> instruction: 0x66377830
    1738:	66666666 	strbtvs	r6, [r6], -r6, ror #12
    173c:	66666666 	strbtvs	r6, [r6], -r6, ror #12
    1740:	66666666 	strbtvs	r6, [r6], -r6, ror #12
    1744:	4c4c6666 	mcrrmi	6, 6, r6, ip, cr6
    1748:	465f5f00 	ldrbmi	r5, [pc], -r0, lsl #30
    174c:	3233544c 	eorscc	r5, r3, #76, 8	; 0x4c000000
    1750:	45445f58 	strbmi	r5, [r4, #-3928]	; 0xfffff0a8
    1754:	414d4943 	cmpmi	sp, r3, asr #18
    1758:	49445f4c 	stmdbmi	r4, {r2, r3, r6, r8, r9, sl, fp, ip, lr}^
    175c:	205f5f47 	subscs	r5, pc, r7, asr #30
    1760:	5f003731 	svcpl	0x00003731
    1764:	4c42445f 	cfstrdmi	mvd4, [r2], {95}	; 0x5f
    1768:	4e494d5f 	mcrmi	13, 2, r4, cr9, cr15, {2}
    176c:	28205f5f 	stmdacs	r0!, {r0, r1, r2, r3, r4, r6, r8, r9, sl, fp, ip, lr}
    1770:	756f6428 	strbvc	r6, [pc, #-1064]!	; 1350 <_Min_Stack_Size+0xf50>
    1774:	29656c62 	stmdbcs	r5!, {r1, r5, r6, sl, fp, sp, lr}^
    1778:	32322e32 	eorscc	r2, r2, #800	; 0x320
    177c:	33373035 	teqcc	r7, #53	; 0x35
    1780:	35383538 	ldrcc	r3, [r8, #-1336]!	; 0xfffffac8
    1784:	30323730 	eorscc	r3, r2, r0, lsr r7
    1788:	2d653431 	cfstrdcs	mvd3, [r5, #-196]!	; 0xffffff3c
    178c:	4c383033 	ldcmi	0, cr3, [r8], #-204	; 0xffffff34
    1790:	5f5f0029 	svcpl	0x005f0029
    1794:	33544c46 	cmpcc	r4, #17920	; 0x4600
    1798:	485f5832 	ldmdami	pc, {r1, r4, r5, fp, ip, lr}^	; <UNPREDICTABLE>
    179c:	515f5341 	cmppl	pc, r1, asr #6
    17a0:	54454955 	strbpl	r4, [r5], #-2389	; 0xfffff6ab
    17a4:	4e414e5f 	mcrmi	14, 2, r4, cr1, cr15, {2}
    17a8:	31205f5f 			; <UNDEFINED> instruction: 0x31205f5f
    17ac:	54584500 	ldrbpl	r4, [r8], #-1280	; 0xfffffb00
    17b0:	52495f49 	subpl	r5, r9, #292	; 0x124
    17b4:	69645f51 	stmdbvs	r4!, {r0, r4, r6, r8, r9, sl, fp, ip, lr}^
    17b8:	6c626173 	stfvse	f6, [r2], #-460	; 0xfffffe34
    17bc:	00302065 	eorseq	r2, r0, r5, rrx
    17c0:	756e5f5f 	strbvc	r5, [lr, #-3935]!	; 0xfffff0a1
    17c4:	735f6c6c 	cmpvc	pc, #108, 24	; 0x6c00
    17c8:	69746e65 	ldmdbvs	r4!, {r0, r2, r5, r6, r9, sl, fp, sp, lr}^
    17cc:	206c656e 	rsbcs	r6, ip, lr, ror #10
    17d0:	74615f5f 	strbtvc	r5, [r1], #-3935	; 0xfffff0a1
    17d4:	62697274 	rsbvs	r7, r9, #116, 4	; 0x40000007
    17d8:	5f657475 	svcpl	0x00657475
    17dc:	5f28285f 	svcpl	0x0028285f
    17e0:	6e65735f 	mcrvs	3, 3, r7, cr5, cr15, {2}
    17e4:	656e6974 	strbvs	r6, [lr, #-2420]!	; 0xfffff68c
    17e8:	295f5f6c 	ldmdbcs	pc, {r2, r3, r5, r6, r8, r9, sl, fp, ip, lr}^	; <UNPREDICTABLE>
    17ec:	5f5f0029 	svcpl	0x005f0029
    17f0:	33544c46 	cmpcc	r4, #17920	; 0x4600
    17f4:	455f5832 	ldrbmi	r5, [pc, #-2098]	; fca <_Min_Stack_Size+0xbca>
    17f8:	4c495350 	mcrrmi	3, 5, r5, r9, cr0
    17fc:	5f5f4e4f 	svcpl	0x005f4e4f
    1800:	322e3220 	eorcc	r3, lr, #32, 4
    1804:	34343032 	ldrtcc	r3, [r4], #-50	; 0xffffffce
    1808:	39343036 	ldmdbcc	r4!, {r1, r2, r4, r5, ip, sp}
    180c:	33303532 	teqcc	r0, #209715200	; 0xc800000
    1810:	65313331 	ldrvs	r3, [r1, #-817]!	; 0xfffffccf
    1814:	4636312d 	ldrtmi	r3, [r6], -sp, lsr #2
    1818:	00783233 	rsbseq	r3, r8, r3, lsr r2
    181c:	695f5f5f 	ldmdbvs	pc, {r0, r1, r2, r3, r4, r6, r8, r9, sl, fp, ip, lr}^	; <UNPREDICTABLE>
    1820:	6c5f746e 	cfldrdvs	mvd7, [pc], {110}	; 0x6e
    1824:	74736165 	ldrbtvc	r6, [r3], #-357	; 0xfffffe9b
    1828:	745f3631 	ldrbvc	r3, [pc], #-1585	; 1830 <_Min_Stack_Size+0x1430>
    182c:	6665645f 			; <UNDEFINED> instruction: 0x6665645f
    1830:	64656e69 	strbtvs	r6, [r5], #-3689	; 0xfffff197
    1834:	5f003120 	svcpl	0x00003120
    1838:	4d52415f 	ldfmie	f4, [r2, #-380]	; 0xfffffe84
    183c:	4352415f 	cmpmi	r2, #-1073741801	; 0xc0000017
    1840:	4d375f48 	ldcmi	15, cr5, [r7, #-288]!	; 0xfffffee0
    1844:	31205f5f 			; <UNDEFINED> instruction: 0x31205f5f
    1848:	754e5f00 	strbvc	r5, [lr, #-3840]	; 0xfffff100
    184c:	62616c6c 	rsbvs	r6, r1, #108, 24	; 0x6c00
    1850:	0020656c 	eoreq	r6, r0, ip, ror #10
    1854:	4e495f5f 	mcrmi	15, 2, r5, cr9, cr15, {2}
    1858:	41465f54 	cmpmi	r6, r4, asr pc
    185c:	5f385453 	svcpl	0x00385453
    1860:	45505954 	ldrbmi	r5, [r0, #-2388]	; 0xfffff6ac
    1864:	69205f5f 	stmdbvs	r0!, {r0, r1, r2, r3, r4, r6, r8, r9, sl, fp, ip, lr}
    1868:	5f00746e 	svcpl	0x0000746e
    186c:	4e494f4e 	cdpmi	15, 4, cr4, cr9, cr14, {2}
    1870:	454e494c 	strbmi	r4, [lr, #-2380]	; 0xfffff6b4
    1874:	615f5f20 	cmpvs	pc, r0, lsr #30
    1878:	69727474 	ldmdbvs	r2!, {r2, r4, r5, r6, sl, ip, sp, lr}^
    187c:	65747562 	ldrbvs	r7, [r4, #-1378]!	; 0xfffffa9e
    1880:	28205f5f 	stmdacs	r0!, {r0, r1, r2, r3, r4, r6, r8, r9, sl, fp, ip, lr}
    1884:	6e5f5f28 	cdpvs	15, 5, cr5, cr15, cr8, {1}
    1888:	6c6e696f 			; <UNDEFINED> instruction: 0x6c6e696f
    188c:	5f656e69 	svcpl	0x00656e69
    1890:	0029295f 	eoreq	r2, r9, pc, asr r9
    1894:	44555f5f 	ldrbmi	r5, [r5], #-3935	; 0xfffff0a1
    1898:	42465f41 	submi	r5, r6, #260	; 0x104
    189c:	5f5f5449 	svcpl	0x005f5449
    18a0:	00323320 	eorseq	r3, r2, r0, lsr #6
    18a4:	69735f5f 	ldmdbvs	r3!, {r0, r1, r2, r3, r4, r6, r8, r9, sl, fp, ip, lr}^
    18a8:	745f657a 	ldrbvc	r6, [pc], #-1402	; 18b0 <_Min_Stack_Size+0x14b0>
    18ac:	00205f5f 	eoreq	r5, r0, pc, asr pc
    18b0:	4c465f5f 	mcrrmi	15, 5, r5, r6, cr15
    18b4:	5f343654 	svcpl	0x00343654
    18b8:	5f58414d 	svcpl	0x0058414d
    18bc:	455f3031 	ldrbmi	r3, [pc, #-49]	; 1893 <_Min_Stack_Size+0x1493>
    18c0:	5f5f5058 	svcpl	0x005f5058
    18c4:	38303320 	ldmdacc	r0!, {r5, r8, r9, ip, sp}
    18c8:	555f5f00 	ldrbpl	r5, [pc, #-3840]	; 9d0 <_Min_Stack_Size+0x5d0>
    18cc:	4d544e49 	ldclmi	14, cr4, [r4, #-292]	; 0xfffffedc
    18d0:	435f5841 	cmpmi	pc, #4259840	; 0x410000
    18d4:	20296328 	eorcs	r6, r9, r8, lsr #6
    18d8:	23232063 			; <UNDEFINED> instruction: 0x23232063
    18dc:	4c4c5520 	cfstr64mi	mvdx5, [ip], {32}
    18e0:	535f5f00 	cmppl	pc, #0, 30
    18e4:	4f455a49 	svcmi	0x00455a49
    18e8:	4f505f46 	svcmi	0x00505f46
    18ec:	45544e49 	ldrbmi	r4, [r4, #-3657]	; 0xfffff1b7
    18f0:	205f5f52 	subscs	r5, pc, r2, asr pc	; <UNPREDICTABLE>
    18f4:	5f5f0034 	svcpl	0x005f0034
    18f8:	5f544e49 	svcpl	0x00544e49
    18fc:	5341454c 	movtpl	r4, #5452	; 0x154c
    1900:	545f3854 	ldrbpl	r3, [pc], #-2132	; 1908 <_Min_Stack_Size+0x1508>
    1904:	5f455059 	svcpl	0x00455059
    1908:	6973205f 	ldmdbvs	r3!, {r0, r1, r2, r3, r4, r6, sp}^
    190c:	64656e67 	strbtvs	r6, [r5], #-3687	; 0xfffff199
    1910:	61686320 	cmnvs	r8, r0, lsr #6
    1914:	4e490072 	mcrmi	0, 2, r0, cr9, cr2, {3}
    1918:	58414d54 	stmdapl	r1, {r2, r4, r6, r8, sl, fp, lr}^
    191c:	7828435f 	stmdavc	r8!, {r0, r1, r2, r3, r4, r6, r8, r9, lr}
    1920:	5f5f2029 	svcpl	0x005f2029
    1924:	4d544e49 	ldclmi	14, cr4, [r4, #-292]	; 0xfffffedc
    1928:	435f5841 	cmpmi	pc, #4259840	; 0x410000
    192c:	00297828 	eoreq	r7, r9, r8, lsr #16
    1930:	4545525f 	strbmi	r5, [r5, #-607]	; 0xfffffda1
    1934:	535f544e 	cmppl	pc, #1308622848	; 0x4e000000
    1938:	4f545254 	svcmi	0x00545254
    193c:	414c5f4b 	cmpmi	ip, fp, asr #30
    1940:	70285453 	eorvc	r5, r8, r3, asr r4
    1944:	20297274 	eorcs	r7, r9, r4, ror r2
    1948:	74702828 	ldrbtvc	r2, [r0], #-2088	; 0xfffff7d8
    194c:	3e2d2972 			; <UNDEFINED> instruction: 0x3e2d2972
    1950:	73696d5f 	cmnvc	r9, #6080	; 0x17c0
    1954:	5f3e2d63 	svcpl	0x003e2d63
    1958:	74727473 	ldrbtvc	r7, [r2], #-1139	; 0xfffffb8d
    195c:	6c5f6b6f 	mrrcvs	11, 6, r6, pc, cr15	; <UNPREDICTABLE>
    1960:	29747361 	ldmdbcs	r4!, {r0, r5, r6, r8, r9, ip, sp, lr}^
    1964:	54584500 	ldrbpl	r4, [r8], #-1280	; 0xfffffb00
    1968:	50475f49 	subpl	r5, r7, r9, asr #30
    196c:	4d5f4f49 	ldclmi	15, cr4, [pc, #-292]	; 1850 <_Min_Stack_Size+0x1450>
    1970:	69707061 	ldmdbvs	r0!, {r0, r5, r6, ip, sp, lr}^
    1974:	745f676e 	ldrbvc	r6, [pc], #-1902	; 197c <_Min_Stack_Size+0x157c>
    1978:	54584500 	ldrbpl	r4, [r8], #-1280	; 0xfffffb00
    197c:	39203949 	stmdbcc	r0!, {r0, r3, r6, r8, fp, ip, sp}
    1980:	43435200 	movtmi	r5, #12800	; 0x3200
    1984:	4950475f 	ldmdbmi	r0, {r0, r1, r2, r3, r4, r6, r8, r9, sl, lr}^
    1988:	435f454f 	cmpmi	pc, #331350016	; 0x13c00000
    198c:	455f4b4c 	ldrbmi	r4, [pc, #-2892]	; e48 <_Min_Stack_Size+0xa48>
    1990:	2029284e 	eorcs	r2, r9, lr, asr #16
    1994:	43435228 	movtmi	r5, #12840	; 0x3228
    1998:	50413e2d 	subpl	r3, r1, sp, lsr #28
    199c:	4e453242 	cdpmi	2, 4, cr3, cr5, cr2, {2}
    19a0:	3d7c2052 	ldclcc	0, cr2, [ip, #-328]!	; 0xfffffeb8
    19a4:	3c312820 	ldccc	8, cr2, [r1], #-128	; 0xffffff80
    19a8:	2929363c 	stmdbcs	r9!, {r2, r3, r4, r5, r9, sl, ip, sp}
    19ac:	415f5f00 	cmpmi	pc, r0, lsl #30
    19b0:	4e5f4d52 	mrcmi	13, 2, r4, cr15, cr2, {2}
    19b4:	5f4e4f45 	svcpl	0x004e4f45
    19b8:	4955005f 	ldmdbmi	r5, {r0, r1, r2, r3, r4, r6}^
    19bc:	5450544e 	ldrbpl	r5, [r0], #-1102	; 0xfffffbb2
    19c0:	414d5f52 	cmpmi	sp, r2, asr pc
    19c4:	5f282058 	svcpl	0x00282058
    19c8:	4e49555f 	mcrmi	5, 2, r5, cr9, cr15, {2}
    19cc:	52545054 	subspl	r5, r4, #84	; 0x54
    19d0:	58414d5f 	stmdapl	r1, {r0, r1, r2, r3, r4, r6, r8, sl, fp, lr}^
    19d4:	00295f5f 	eoreq	r5, r9, pc, asr pc
    19d8:	4c465f5f 	mcrrmi	15, 5, r5, r6, cr15
    19dc:	5f323354 	svcpl	0x00323354
    19e0:	5f58414d 	svcpl	0x0058414d
    19e4:	5f505845 	svcpl	0x00505845
    19e8:	3231205f 	eorscc	r2, r1, #95	; 0x5f
    19ec:	616d0038 	cmnvs	sp, r8, lsr r0
    19f0:	5f006e69 	svcpl	0x00006e69
    19f4:	4e49555f 	mcrmi	5, 2, r5, cr9, cr15, {2}
    19f8:	58414d54 	stmdapl	r1, {r2, r4, r6, r8, sl, fp, lr}^
    19fc:	5059545f 	subspl	r5, r9, pc, asr r4
    1a00:	205f5f45 	subscs	r5, pc, r5, asr #30
    1a04:	676e6f6c 	strbvs	r6, [lr, -ip, ror #30]!
    1a08:	6e6f6c20 	cdpvs	12, 6, cr6, cr15, cr0, {1}
    1a0c:	6e752067 	cdpvs	0, 7, cr2, cr5, cr7, {3}
    1a10:	6e676973 			; <UNDEFINED> instruction: 0x6e676973
    1a14:	69206465 	stmdbvs	r0!, {r0, r2, r5, r6, sl, sp, lr}
    1a18:	5f00746e 	svcpl	0x0000746e
    1a1c:	4c4c555f 	cfstr64mi	mvdx5, [ip], {95}	; 0x5f
    1a20:	43415246 	movtmi	r5, #4678	; 0x1246
    1a24:	414d5f54 	cmpmi	sp, r4, asr pc
    1a28:	205f5f58 	subscs	r5, pc, r8, asr pc	; <UNPREDICTABLE>
    1a2c:	46465830 			; <UNDEFINED> instruction: 0x46465830
    1a30:	46464646 	strbmi	r4, [r6], -r6, asr #12
    1a34:	46464646 	strbmi	r4, [r6], -r6, asr #12
    1a38:	46464646 	strbmi	r4, [r6], -r6, asr #12
    1a3c:	2d504646 	ldclcs	6, cr4, [r0, #-280]	; 0xfffffee8
    1a40:	4c553436 	cfldrdmi	mvd3, [r5], {54}	; 0x36
    1a44:	4500524c 	strmi	r5, [r0, #-588]	; 0xfffffdb4
    1a48:	36495458 			; <UNDEFINED> instruction: 0x36495458
    1a4c:	20364350 	eorscs	r4, r6, r0, asr r3
    1a50:	54584528 	ldrbpl	r4, [r8], #-1320	; 0xfffffad8
    1a54:	50475f49 	subpl	r5, r7, r9, asr #30
    1a58:	4d5f4f49 	ldclmi	15, cr4, [pc, #-292]	; 193c <_Min_Stack_Size+0x153c>
    1a5c:	69707061 	ldmdbvs	r0!, {r0, r5, r6, ip, sp, lr}^
    1a60:	745f676e 	ldrbvc	r6, [pc], #-1902	; 1a68 <_Min_Stack_Size+0x1668>
    1a64:	58457b29 	stmdapl	r5, {r0, r3, r5, r8, r9, fp, ip, sp, lr}^
    1a68:	2c364954 			; <UNDEFINED> instruction: 0x2c364954
    1a6c:	49504720 	ldmdbmi	r0, {r5, r8, r9, sl, lr}^
    1a70:	202c434f 	eorcs	r4, ip, pc, asr #6
    1a74:	4f495047 	svcmi	0x00495047
    1a78:	4e49505f 	mcrmi	0, 2, r5, cr9, cr15, {2}
    1a7c:	202c365f 	eorcs	r3, ip, pc, asr r6
    1a80:	49545845 	ldmdbmi	r4, {r0, r2, r6, fp, ip, lr}^
    1a84:	52495f36 	subpl	r5, r9, #54, 30	; 0xd8
    1a88:	45007d51 	strmi	r7, [r0, #-3409]	; 0xfffff2af
    1a8c:	33495458 	movtcc	r5, #37976	; 0x9458
    1a90:	20334250 	eorscs	r4, r3, r0, asr r2
    1a94:	54584528 	ldrbpl	r4, [r8], #-1320	; 0xfffffad8
    1a98:	50475f49 	subpl	r5, r7, r9, asr #30
    1a9c:	4d5f4f49 	ldclmi	15, cr4, [pc, #-292]	; 1980 <_Min_Stack_Size+0x1580>
    1aa0:	69707061 	ldmdbvs	r0!, {r0, r5, r6, ip, sp, lr}^
    1aa4:	745f676e 	ldrbvc	r6, [pc], #-1902	; 1aac <_Min_Stack_Size+0x16ac>
    1aa8:	58457b29 	stmdapl	r5, {r0, r3, r5, r8, r9, fp, ip, sp, lr}^
    1aac:	2c334954 			; <UNDEFINED> instruction: 0x2c334954
    1ab0:	49504720 	ldmdbmi	r0, {r5, r8, r9, sl, lr}^
    1ab4:	202c424f 	eorcs	r4, ip, pc, asr #4
    1ab8:	4f495047 	svcmi	0x00495047
    1abc:	4e49505f 	mcrmi	0, 2, r5, cr9, cr15, {2}
    1ac0:	202c335f 	eorcs	r3, ip, pc, asr r3
    1ac4:	49545845 	ldmdbmi	r4, {r0, r2, r6, fp, ip, lr}^
    1ac8:	52495f33 	subpl	r5, r9, #51, 30	; 0xcc
    1acc:	5f007d51 	svcpl	0x00007d51
    1ad0:	6e695f5f 	mcrvs	15, 3, r5, cr9, cr15, {2}
    1ad4:	74705f74 	ldrbtvc	r5, [r0], #-3956	; 0xfffff08c
    1ad8:	66696472 			; <UNDEFINED> instruction: 0x66696472
    1adc:	5f745f66 	svcpl	0x00745f66
    1ae0:	5f002068 	svcpl	0x00002068
    1ae4:	455a4953 	ldrbmi	r4, [sl, #-2387]	; 0xfffff6ad
    1ae8:	445f545f 	ldrbmi	r5, [pc], #-1119	; 1af0 <_Min_Stack_Size+0x16f0>
    1aec:	414c4345 	cmpmi	ip, r5, asr #6
    1af0:	20444552 	subcs	r4, r4, r2, asr r5
    1af4:	435f5f00 	cmpmi	pc, #0, 30
    1af8:	33524148 	cmpcc	r2, #72, 2
    1afc:	59545f32 	ldmdbpl	r4, {r1, r4, r5, r8, r9, sl, fp, ip, lr}^
    1b00:	5f5f4550 	svcpl	0x005f4550
    1b04:	6e6f6c20 	cdpvs	12, 6, cr6, cr15, cr0, {1}
    1b08:	6e752067 	cdpvs	0, 7, cr2, cr5, cr7, {3}
    1b0c:	6e676973 			; <UNDEFINED> instruction: 0x6e676973
    1b10:	69206465 	stmdbvs	r0!, {r0, r2, r5, r6, sl, sp, lr}
    1b14:	5f00746e 	svcpl	0x0000746e
    1b18:	4d52415f 	ldfmie	f4, [r2, #-380]	; 0xfffffe84
    1b1c:	4145465f 	cmpmi	r5, pc, asr r6
    1b20:	45525554 	ldrbmi	r5, [r2, #-1364]	; 0xfffffaac
    1b24:	3150465f 	cmpcc	r0, pc, asr r6
    1b28:	45565f36 	ldrbmi	r5, [r6, #-3894]	; 0xfffff0ca
    1b2c:	524f5443 	subpl	r5, pc, #1124073472	; 0x43000000
    1b30:	4952415f 	ldmdbmi	r2, {r0, r1, r2, r3, r4, r6, r8, lr}^
    1b34:	454d4854 	strbmi	r4, [sp, #-2132]	; 0xfffff7ac
    1b38:	00434954 	subeq	r4, r3, r4, asr r9
    1b3c:	534f505f 	movtpl	r5, #61535	; 0xf05f
    1b40:	435f5849 	cmpmi	pc, #4784128	; 0x490000
    1b44:	554f535f 	strbpl	r5, [pc, #-863]	; 17ed <_Min_Stack_Size+0x13ed>
    1b48:	20454352 	subcs	r4, r5, r2, asr r3
    1b4c:	38303032 	ldmdacc	r0!, {r1, r4, r5, ip, sp}
    1b50:	004c3930 	subeq	r3, ip, r0, lsr r9
    1b54:	43435f5f 	movtmi	r5, #16223	; 0x3f5f
    1b58:	5055535f 	subspl	r5, r5, pc, asr r3
    1b5c:	54524f50 	ldrbpl	r4, [r2], #-3920	; 0xfffff0b0
    1b60:	59445f53 	stmdbpl	r4, {r0, r1, r4, r6, r8, r9, sl, fp, ip, lr}^
    1b64:	494d414e 	stmdbmi	sp, {r1, r2, r3, r6, r8, lr}^
    1b68:	52415f43 	subpl	r5, r1, #268	; 0x10c
    1b6c:	5f594152 	svcpl	0x00594152
    1b70:	54494e49 	strbpl	r4, [r9], #-3657	; 0xfffff1b7
    1b74:	5f003120 	svcpl	0x00003120
    1b78:	4e49555f 	mcrmi	5, 2, r5, cr9, cr15, {2}
    1b7c:	41465f54 	cmpmi	r6, r4, asr pc
    1b80:	32335453 	eorscc	r5, r3, #1392508928	; 0x53000000
    1b84:	58414d5f 	stmdapl	r1, {r0, r1, r2, r3, r4, r6, r8, sl, fp, lr}^
    1b88:	30205f5f 	eorcc	r5, r0, pc, asr pc
    1b8c:	66666678 			; <UNDEFINED> instruction: 0x66666678
    1b90:	66666666 	strbtvs	r6, [r6], -r6, ror #12
    1b94:	5f005566 	svcpl	0x00005566
    1b98:	544c465f 	strbpl	r4, [ip], #-1631	; 0xfffff9a1
    1b9c:	58414d5f 	stmdapl	r1, {r0, r1, r2, r3, r4, r6, r8, sl, fp, lr}^
    1ba0:	5058455f 	subspl	r4, r8, pc, asr r5
    1ba4:	31205f5f 			; <UNDEFINED> instruction: 0x31205f5f
    1ba8:	5f003832 	svcpl	0x00003832
    1bac:	5a49535f 	bpl	1256930 <_Min_Stack_Size+0x1256530>
    1bb0:	5f464f45 	svcpl	0x00464f45
    1bb4:	474e4f4c 	strbmi	r4, [lr, -ip, asr #30]
    1bb8:	34205f5f 	strtcc	r5, [r0], #-3935	; 0xfffff0a1
    1bbc:	505f5f00 	subspl	r5, pc, r0, lsl #30
    1bc0:	6f727028 	svcvs	0x00727028
    1bc4:	29736f74 	ldmdbcs	r3!, {r2, r4, r5, r6, r8, r9, sl, fp, sp, lr}^
    1bc8:	6f727020 	svcvs	0x00727020
    1bcc:	00736f74 	rsbseq	r6, r3, r4, ror pc
    1bd0:	5f434352 	svcpl	0x00434352
    1bd4:	33495053 	movtcc	r5, #36947	; 0x9053
    1bd8:	4b4c435f 	blmi	131295c <_Min_Stack_Size+0x131255c>
    1bdc:	284e455f 	stmdacs	lr, {r0, r1, r2, r3, r4, r6, r8, sl, lr}^
    1be0:	52282029 	eorpl	r2, r8, #41	; 0x29
    1be4:	3e2d4343 	cdpcc	3, 2, cr4, cr13, cr3, {2}
    1be8:	31425041 	cmpcc	r2, r1, asr #32
    1bec:	20524e45 	subscs	r4, r2, r5, asr #28
    1bf0:	28203d7c 	stmdacs	r0!, {r2, r3, r4, r5, r6, r8, sl, fp, ip, sp}
    1bf4:	313c3c31 	teqcc	ip, r1, lsr ip
    1bf8:	00292935 	eoreq	r2, r9, r5, lsr r9
    1bfc:	32425041 	subcc	r5, r2, #65	; 0x41
    1c00:	00524e45 	subseq	r4, r2, r5, asr #28
    1c04:	74735f5f 	ldrbtvc	r5, [r3], #-3935	; 0xfffff0a1
    1c08:	6f6d6672 	svcvs	0x006d6672
    1c0c:	6b696c6e 	blvs	1a5cdcc <_Min_Stack_Size+0x1a5c9cc>
    1c10:	6d662865 	stclvs	8, cr2, [r6, #-404]!	; 0xfffffe6c
    1c14:	67726174 			; <UNDEFINED> instruction: 0x67726174
    1c18:	7269662c 	rsbvc	r6, r9, #44, 12	; 0x2c00000
    1c1c:	61767473 	cmnvs	r6, r3, ror r4
    1c20:	67726172 			; <UNDEFINED> instruction: 0x67726172
    1c24:	5f5f2029 	svcpl	0x005f2029
    1c28:	72747461 	rsbsvc	r7, r4, #1627389952	; 0x61000000
    1c2c:	74756269 	ldrbtvc	r6, [r5], #-617	; 0xfffffd97
    1c30:	285f5f65 	ldmdacs	pc, {r0, r2, r5, r6, r8, r9, sl, fp, ip, lr}^	; <UNPREDICTABLE>
    1c34:	665f5f28 	ldrbvs	r5, [pc], -r8, lsr #30
    1c38:	616d726f 	cmnvs	sp, pc, ror #4
    1c3c:	205f5f74 	subscs	r5, pc, r4, ror pc	; <UNPREDICTABLE>
    1c40:	735f5f28 	cmpvc	pc, #40, 30	; 0xa0
    1c44:	6d667274 	sfmvs	f7, 2, [r6, #-464]!	; 0xfffffe30
    1c48:	5f5f6e6f 	svcpl	0x005f6e6f
    1c4c:	6d66202c 	stclvs	0, cr2, [r6, #-176]!	; 0xffffff50
    1c50:	67726174 			; <UNDEFINED> instruction: 0x67726174
    1c54:	6966202c 	stmdbvs	r6!, {r2, r3, r5, sp}^
    1c58:	76747372 			; <UNDEFINED> instruction: 0x76747372
    1c5c:	72617261 	rsbvc	r7, r1, #268435462	; 0x10000006
    1c60:	29292967 	stmdbcs	r9!, {r0, r1, r2, r5, r6, r8, fp, sp}
    1c64:	52415500 	subpl	r5, r1, #0, 10
    1c68:	28203454 	stmdacs	r0!, {r2, r4, r6, sl, ip, sp}
    1c6c:	41535528 	cmpmi	r3, r8, lsr #10
    1c70:	545f5452 	ldrbpl	r5, [pc], #-1106	; 1c78 <_Min_Stack_Size+0x1878>
    1c74:	64657079 	strbtvs	r7, [r5], #-121	; 0xffffff87
    1c78:	745f6665 	ldrbvc	r6, [pc], #-1637	; 1c80 <_Min_Stack_Size+0x1880>
    1c7c:	55292a20 	strpl	r2, [r9, #-2592]!	; 0xfffff5e0
    1c80:	34545241 	ldrbcc	r5, [r4], #-577	; 0xfffffdbf
    1c84:	5341425f 	movtpl	r4, #4703	; 0x125f
    1c88:	55002945 	strpl	r2, [r0, #-2373]	; 0xfffff6bb
    1c8c:	35545241 	ldrbcc	r5, [r4, #-577]	; 0xfffffdbf
    1c90:	5341425f 	movtpl	r4, #4703	; 0x125f
    1c94:	78302045 	ldmdavc	r0!, {r0, r2, r6, sp}
    1c98:	30303034 	eorscc	r3, r0, r4, lsr r0
    1c9c:	30303035 	eorscc	r3, r0, r5, lsr r0
    1ca0:	525f0075 	subspl	r0, pc, #117	; 0x75
    1ca4:	544e4545 	strbpl	r4, [lr], #-1349	; 0xfffffabb
    1ca8:	5f504d5f 	svcpl	0x00504d5f
    1cac:	55534552 	ldrbpl	r4, [r3, #-1362]	; 0xfffffaae
    1cb0:	4b5f544c 	blmi	17d6de8 <_Min_Stack_Size+0x17d69e8>
    1cb4:	72747028 	rsbsvc	r7, r4, #40	; 0x28
    1cb8:	28282029 	stmdacs	r8!, {r0, r3, r5, sp}
    1cbc:	29727470 	ldmdbcs	r2!, {r4, r5, r6, sl, ip, sp, lr}^
    1cc0:	6d5f3e2d 	ldclvs	14, cr3, [pc, #-180]	; 1c14 <_Min_Stack_Size+0x1814>
    1cc4:	5f3e2d70 	svcpl	0x003e2d70
    1cc8:	75736572 	ldrbvc	r6, [r3, #-1394]!	; 0xfffffa8e
    1ccc:	6b5f746c 	blvs	17dee84 <_Min_Stack_Size+0x17dea84>
    1cd0:	5f5f0029 	svcpl	0x005f0029
    1cd4:	455a4953 	ldrbmi	r4, [sl, #-2387]	; 0xfffff6ad
    1cd8:	445f464f 	ldrbmi	r4, [pc], #-1615	; 1ce0 <_Min_Stack_Size+0x18e0>
    1cdc:	4c42554f 	cfstr64mi	mvdx5, [r2], {79}	; 0x4f
    1ce0:	205f5f45 	subscs	r5, pc, r5, asr #30
    1ce4:	5f5f0038 	svcpl	0x005f0038
    1ce8:	5f544e49 	svcpl	0x00544e49
    1cec:	5341454c 	movtpl	r4, #5452	; 0x154c
    1cf0:	5f323354 	svcpl	0x00323354
    1cf4:	54444957 	strbpl	r4, [r4], #-2391	; 0xfffff6a9
    1cf8:	205f5f48 	subscs	r5, pc, r8, asr #30
    1cfc:	5f003233 	svcpl	0x00003233
    1d00:	434f4c43 	movtmi	r4, #64579	; 0xfc43
    1d04:	5f545f4b 	svcpl	0x00545f4b
    1d08:	736e7520 	cmnvc	lr, #32, 10	; 0x8000000
    1d0c:	656e6769 	strbvs	r6, [lr, #-1897]!	; 0xfffff897
    1d10:	6f6c2064 	svcvs	0x006c2064
    1d14:	5f00676e 	svcpl	0x0000676e
    1d18:	454d4954 	strbmi	r4, [sp, #-2388]	; 0xfffff6ac
    1d1c:	205f545f 	subscs	r5, pc, pc, asr r4	; <UNPREDICTABLE>
    1d20:	6e695f5f 	mcrvs	15, 3, r5, cr9, cr15, {2}
    1d24:	656c5f74 	strbvs	r5, [ip, #-3956]!	; 0xfffff08c
    1d28:	36747361 	ldrbtcc	r7, [r4], -r1, ror #6
    1d2c:	00745f34 	rsbseq	r5, r4, r4, lsr pc
    1d30:	49545845 	ldmdbmi	r4, {r0, r2, r6, fp, ip, lr}^
    1d34:	44503031 	ldrbmi	r3, [r0], #-49	; 0xffffffcf
    1d38:	28203031 	stmdacs	r0!, {r0, r4, r5, ip, sp}
    1d3c:	49545845 	ldmdbmi	r4, {r0, r2, r6, fp, ip, lr}^
    1d40:	4950475f 	ldmdbmi	r0, {r0, r1, r2, r3, r4, r6, r8, r9, sl, lr}^
    1d44:	614d5f4f 	cmpvs	sp, pc, asr #30
    1d48:	6e697070 	mcrvs	0, 3, r7, cr9, cr0, {3}
    1d4c:	29745f67 	ldmdbcs	r4!, {r0, r1, r2, r5, r6, r8, r9, sl, fp, ip, lr}^
    1d50:	5458457b 	ldrbpl	r4, [r8], #-1403	; 0xfffffa85
    1d54:	2c303149 	ldfcss	f3, [r0], #-292	; 0xfffffedc
    1d58:	49504720 	ldmdbmi	r0, {r5, r8, r9, sl, lr}^
    1d5c:	202c444f 	eorcs	r4, ip, pc, asr #8
    1d60:	4f495047 	svcmi	0x00495047
    1d64:	4e49505f 	mcrmi	0, 2, r5, cr9, cr15, {2}
    1d68:	2c30315f 	ldfcss	f3, [r0], #-380	; 0xfffffe84
    1d6c:	54584520 	ldrbpl	r4, [r8], #-1312	; 0xfffffae0
    1d70:	5f303149 	svcpl	0x00303149
    1d74:	7d515249 	lfmvc	f5, 2, [r1, #-292]	; 0xfffffedc
    1d78:	465f5f00 	ldrbmi	r5, [pc], -r0, lsl #30
    1d7c:	31545341 	cmpcc	r4, r1, asr #6
    1d80:	45002036 	strmi	r2, [r0, #-54]	; 0xffffffca
    1d84:	33495458 	movtcc	r5, #37976	; 0x9458
    1d88:	20334150 	eorscs	r4, r3, r0, asr r1
    1d8c:	54584528 	ldrbpl	r4, [r8], #-1320	; 0xfffffad8
    1d90:	50475f49 	subpl	r5, r7, r9, asr #30
    1d94:	4d5f4f49 	ldclmi	15, cr4, [pc, #-292]	; 1c78 <_Min_Stack_Size+0x1878>
    1d98:	69707061 	ldmdbvs	r0!, {r0, r5, r6, ip, sp, lr}^
    1d9c:	745f676e 	ldrbvc	r6, [pc], #-1902	; 1da4 <_Min_Stack_Size+0x19a4>
    1da0:	58457b29 	stmdapl	r5, {r0, r3, r5, r8, r9, fp, ip, sp, lr}^
    1da4:	2c334954 			; <UNDEFINED> instruction: 0x2c334954
    1da8:	49504720 	ldmdbmi	r0, {r5, r8, r9, sl, lr}^
    1dac:	202c414f 	eorcs	r4, ip, pc, asr #2
    1db0:	4f495047 	svcmi	0x00495047
    1db4:	4e49505f 	mcrmi	0, 2, r5, cr9, cr15, {2}
    1db8:	202c335f 	eorcs	r3, ip, pc, asr r3
    1dbc:	49545845 	ldmdbmi	r4, {r0, r2, r6, fp, ip, lr}^
    1dc0:	52495f33 	subpl	r5, r9, #51, 30	; 0xcc
    1dc4:	5f007d51 	svcpl	0x00007d51
    1dc8:	4e454552 	mcrmi	5, 2, r4, cr5, cr2, {2}
    1dcc:	41525f54 	cmpmi	r2, r4, asr pc
    1dd0:	3834444e 	ldmdacc	r4!, {r1, r2, r3, r6, sl, lr}
    1dd4:	4545535f 	strbmi	r5, [r5, #-863]	; 0xfffffca1
    1dd8:	74702844 	ldrbtvc	r2, [r0], #-2116	; 0xfffff7bc
    1ddc:	28202972 	stmdacs	r0!, {r1, r4, r5, r6, r8, fp, sp}
    1de0:	72747028 	rsbsvc	r7, r4, #40	; 0x28
    1de4:	5f3e2d29 	svcpl	0x003e2d29
    1de8:	2d383472 	cfldrscs	mvf3, [r8, #-456]!	; 0xfffffe38
    1dec:	65735f3e 	ldrbvs	r5, [r3, #-3902]!	; 0xfffff0c2
    1df0:	00296465 	eoreq	r6, r9, r5, ror #8
    1df4:	414c5f5f 	cmpmi	ip, pc, asr pc
    1df8:	46454752 			; <UNDEFINED> instruction: 0x46454752
    1dfc:	5f454c49 	svcpl	0x00454c49
    1e00:	49534956 	ldmdbmi	r3, {r1, r2, r4, r6, r8, fp, lr}^
    1e04:	20454c42 	subcs	r4, r5, r2, asr #24
    1e08:	5f5f0030 	svcpl	0x005f0030
    1e0c:	5f746e69 	svcpl	0x00746e69
    1e10:	74736166 	ldrbtvc	r6, [r3], #-358	; 0xfffffe9a
    1e14:	5f745f38 	svcpl	0x00745f38
    1e18:	69666564 	stmdbvs	r6!, {r2, r5, r6, r8, sl, sp, lr}^
    1e1c:	2064656e 	rsbcs	r6, r4, lr, ror #10
    1e20:	5f5f0031 	svcpl	0x005f0031
    1e24:	4c57454e 	cfldr64mi	mvdx4, [r7], {78}	; 0x4e
    1e28:	5f5f4249 	svcpl	0x005f4249
    1e2c:	45003420 	strmi	r3, [r0, #-1056]	; 0xfffffbe0
    1e30:	5f544958 	svcpl	0x00544958
    1e34:	43435553 	movtmi	r5, #13651	; 0x3553
    1e38:	20535345 	subscs	r5, r3, r5, asr #6
    1e3c:	58450030 	stmdapl	r5, {r4, r5}^
    1e40:	5f364954 	svcpl	0x00364954
    1e44:	20515249 	subscs	r5, r1, r9, asr #4
    1e48:	5f003332 	svcpl	0x00003332
    1e4c:	4154555f 	cmpmi	r4, pc, asr r5
    1e50:	4942465f 	stmdbmi	r2, {r0, r1, r2, r3, r4, r6, r9, sl, lr}^
    1e54:	205f5f54 	subscs	r5, pc, r4, asr pc	; <UNPREDICTABLE>
    1e58:	54003436 	strpl	r3, [r0], #-1078	; 0xfffffbca
    1e5c:	20316d69 	eorscs	r6, r1, r9, ror #26
    1e60:	49542828 	ldmdbmi	r4, {r3, r5, fp, sp}^
    1e64:	3152454d 	cmpcc	r2, sp, asr #10
    1e68:	545f385f 	ldrbpl	r3, [pc], #-2143	; 1e70 <_Min_Stack_Size+0x1a70>
    1e6c:	64657079 	strbtvs	r7, [r5], #-121	; 0xffffff87
    1e70:	745f6665 	ldrbvc	r6, [pc], #-1637	; 1e78 <_Min_Stack_Size+0x1a78>
    1e74:	4954292a 	ldmdbmi	r4, {r1, r3, r5, r8, fp, sp}^
    1e78:	425f314d 	subsmi	r3, pc, #1073741843	; 0x40000013
    1e7c:	29455341 	stmdbcs	r5, {r0, r6, r8, r9, ip, lr}^
    1e80:	465f5f00 	ldrbmi	r5, [pc], -r0, lsl #30
    1e84:	445f544c 	ldrbmi	r5, [pc], #-1100	; 1e8c <_Min_Stack_Size+0x1a8c>
    1e88:	4d494345 	stclmi	3, cr4, [r9, #-276]	; 0xfffffeec
    1e8c:	445f4c41 	ldrbmi	r4, [pc], #-3137	; 1e94 <_Min_Stack_Size+0x1a94>
    1e90:	5f5f4749 	svcpl	0x005f4749
    1e94:	5f003920 	svcpl	0x00003920
    1e98:	544e495f 	strbpl	r4, [lr], #-2399	; 0xfffff6a1
    1e9c:	41454c5f 	cmpmi	r5, pc, asr ip
    1ea0:	32335453 	eorscc	r5, r3, #1392508928	; 0x53000000
    1ea4:	58414d5f 	stmdapl	r1, {r0, r1, r2, r3, r4, r6, r8, sl, fp, lr}^
    1ea8:	30205f5f 	eorcc	r5, r0, pc, asr pc
    1eac:	66663778 			; <UNDEFINED> instruction: 0x66663778
    1eb0:	66666666 	strbtvs	r6, [r6], -r6, ror #12
    1eb4:	5f004c66 	svcpl	0x00004c66
    1eb8:	4b434f4c 	blmi	10d5bf0 <_Min_Stack_Size+0x10d57f0>
    1ebc:	4345525f 	movtmi	r5, #21087	; 0x525f
    1ec0:	49535255 	ldmdbmi	r3, {r0, r2, r4, r6, r9, ip, lr}^
    1ec4:	545f4556 	ldrbpl	r4, [pc], #-1366	; 1ecc <_Min_Stack_Size+0x1acc>
    1ec8:	4f4c5f20 	svcmi	0x004c5f20
    1ecc:	545f4b43 	ldrbpl	r4, [pc], #-2883	; 1ed4 <_Min_Stack_Size+0x1ad4>
    1ed0:	544e4900 	strbpl	r4, [lr], #-2304	; 0xfffff700
    1ed4:	5f58414d 	svcpl	0x0058414d
    1ed8:	204e494d 	subcs	r4, lr, sp, asr #18
    1edc:	4e492d28 	cdpmi	13, 4, cr2, cr9, cr8, {1}
    1ee0:	58414d54 	stmdapl	r1, {r2, r4, r6, r8, sl, fp, lr}^
    1ee4:	58414d5f 	stmdapl	r1, {r0, r1, r2, r3, r4, r6, r8, sl, fp, lr}^
    1ee8:	31202d20 			; <UNDEFINED> instruction: 0x31202d20
    1eec:	5f5f0029 	svcpl	0x005f0029
    1ef0:	5f727470 	svcpl	0x00727470
    1ef4:	6f762074 	svcvs	0x00762074
    1ef8:	2a206469 	bcs	81b0a4 <_Min_Stack_Size+0x81aca4>
    1efc:	41485f00 	cmpmi	r8, r0, lsl #30
    1f00:	4c5f4556 	cfldr64mi	mvdx4, [pc], {86}	; 0x56
    1f04:	5f474e4f 	svcpl	0x00474e4f
    1f08:	42554f44 	subsmi	r4, r5, #68, 30	; 0x110
    1f0c:	3120454c 			; <UNDEFINED> instruction: 0x3120454c
    1f10:	48435700 	stmdami	r3, {r8, r9, sl, ip, lr}^
    1f14:	4d5f5241 	lfmmi	f5, 2, [pc, #-260]	; 1e18 <_Min_Stack_Size+0x1a18>
    1f18:	28204e49 	stmdacs	r0!, {r0, r3, r6, r9, sl, fp, lr}
    1f1c:	43575f5f 	cmpmi	r7, #380	; 0x17c
    1f20:	5f524148 	svcpl	0x00524148
    1f24:	5f4e494d 	svcpl	0x004e494d
    1f28:	5f00295f 	svcpl	0x0000295f
    1f2c:	4152465f 	cmpmi	r2, pc, asr r6
    1f30:	465f5443 	ldrbmi	r5, [pc], -r3, asr #8
    1f34:	5f544942 	svcpl	0x00544942
    1f38:	3531205f 	ldrcc	r2, [r1, #-95]!	; 0xffffffa1
    1f3c:	465f5f00 	ldrbmi	r5, [pc], -r0, lsl #30
    1f40:	485f544c 	ldmdami	pc, {r2, r3, r6, sl, ip, lr}^	; <UNPREDICTABLE>
    1f44:	515f5341 	cmppl	pc, r1, asr #6
    1f48:	54454955 	strbpl	r4, [r5], #-2389	; 0xfffff6ab
    1f4c:	4e414e5f 	mcrmi	14, 2, r4, cr1, cr15, {2}
    1f50:	31205f5f 			; <UNDEFINED> instruction: 0x31205f5f
    1f54:	54584500 	ldrbpl	r4, [r8], #-1280	; 0xfffffb00
    1f58:	44503449 	ldrbmi	r3, [r0], #-1097	; 0xfffffbb7
    1f5c:	45282034 	strmi	r2, [r8, #-52]!	; 0xffffffcc
    1f60:	5f495458 	svcpl	0x00495458
    1f64:	4f495047 	svcmi	0x00495047
    1f68:	70614d5f 	rsbvc	r4, r1, pc, asr sp
    1f6c:	676e6970 			; <UNDEFINED> instruction: 0x676e6970
    1f70:	7b29745f 	blvc	a5f0f4 <_Min_Stack_Size+0xa5ecf4>
    1f74:	49545845 	ldmdbmi	r4, {r0, r2, r6, fp, ip, lr}^
    1f78:	47202c34 			; <UNDEFINED> instruction: 0x47202c34
    1f7c:	444f4950 	strbmi	r4, [pc], #-2384	; 1f84 <_Min_Stack_Size+0x1b84>
    1f80:	5047202c 	subpl	r2, r7, ip, lsr #32
    1f84:	505f4f49 	subspl	r4, pc, r9, asr #30
    1f88:	345f4e49 	ldrbcc	r4, [pc], #-3657	; 1f90 <_Min_Stack_Size+0x1b90>
    1f8c:	5845202c 	stmdapl	r5, {r2, r3, r5, sp}^
    1f90:	5f344954 	svcpl	0x00344954
    1f94:	7d515249 	lfmvc	f5, 2, [r1, #-292]	; 0xfffffedc
    1f98:	475f5f00 	ldrbmi	r5, [pc, -r0, lsl #30]
    1f9c:	5f43554e 	svcpl	0x0043554e
    1fa0:	43544150 	cmpmi	r4, #80, 2
    1fa4:	56454c48 	strbpl	r4, [r5], -r8, asr #24
    1fa8:	5f5f4c45 	svcpl	0x005f4c45
    1fac:	5f003120 	svcpl	0x00003120
    1fb0:	4343475f 	movtmi	r4, #14175	; 0x375f
    1fb4:	4f54415f 	svcmi	0x0054415f
    1fb8:	5f43494d 	svcpl	0x0043494d
    1fbc:	52414843 	subpl	r4, r1, #4390912	; 0x430000
    1fc0:	545f3233 	ldrbpl	r3, [pc], #-563	; 1fc8 <_Min_Stack_Size+0x1bc8>
    1fc4:	434f4c5f 	movtmi	r4, #64607	; 0xfc5f
    1fc8:	52465f4b 	subpl	r5, r6, #300	; 0x12c
    1fcc:	32204545 	eorcc	r4, r0, #289406976	; 0x11400000
    1fd0:	615f5f00 	cmpvs	pc, r0, lsl #30
    1fd4:	636f6c6c 	cmnvs	pc, #108, 24	; 0x6c00
    1fd8:	696c615f 	stmdbvs	ip!, {r0, r1, r2, r3, r4, r6, r8, sp, lr}^
    1fdc:	78286e67 	stmdavc	r8!, {r0, r1, r2, r5, r6, r9, sl, fp, sp, lr}
    1fe0:	5f5f2029 	svcpl	0x005f2029
    1fe4:	72747461 	rsbsvc	r7, r4, #1627389952	; 0x61000000
    1fe8:	74756269 	ldrbtvc	r6, [r5], #-617	; 0xfffffd97
    1fec:	285f5f65 	ldmdacs	pc, {r0, r2, r5, r6, r8, r9, sl, fp, ip, lr}^	; <UNPREDICTABLE>
    1ff0:	615f5f28 	cmpvs	pc, r8, lsr #30
    1ff4:	636f6c6c 	cmnvs	pc, #108, 24	; 0x6c00
    1ff8:	696c615f 	stmdbvs	ip!, {r0, r1, r2, r3, r4, r6, r8, sp, lr}^
    1ffc:	5f5f6e67 	svcpl	0x005f6e67
    2000:	29297828 	stmdbcs	r9!, {r3, r5, fp, ip, sp, lr}
    2004:	525f0029 	subspl	r0, pc, #41	; 0x29
    2008:	34444e41 	strbcc	r4, [r4], #-3649	; 0xfffff1bf
    200c:	45535f38 	ldrbmi	r5, [r3, #-3896]	; 0xfffff0c8
    2010:	325f4445 	subscc	r4, pc, #1157627904	; 0x45000000
    2014:	78302820 	ldmdavc	r0!, {r5, fp, sp}
    2018:	34333231 	ldrtcc	r3, [r3], #-561	; 0xfffffdcf
    201c:	5f5f0029 	svcpl	0x005f0029
    2020:	5f4d5241 	svcpl	0x004d5241
    2024:	48435241 	stmdami	r3, {r0, r6, r9, ip, lr}^
    2028:	4f52505f 	svcmi	0x0052505f
    202c:	454c4946 	strbmi	r4, [ip, #-2374]	; 0xfffff6ba
    2030:	00373720 	eorseq	r3, r7, r0, lsr #14
    2034:	414c5f5f 	cmpmi	ip, pc, asr pc
    2038:	4d554343 	ldclmi	3, cr4, [r5, #-268]	; 0xfffffef4
    203c:	4942465f 	stmdbmi	r2, {r0, r1, r2, r3, r4, r6, r9, sl, lr}^
    2040:	205f5f54 	subscs	r5, pc, r4, asr pc	; <UNPREDICTABLE>
    2044:	5f003133 	svcpl	0x00003133
    2048:	6572705f 	ldrbvs	r7, [r2, #-95]!	; 0xffffffa1
    204c:	74636964 	strbtvc	r6, [r3], #-2404	; 0xfffff69c
    2050:	7572745f 	ldrbvc	r7, [r2, #-1119]!	; 0xfffffba1
    2054:	78652865 	stmdavc	r5!, {r0, r2, r5, r6, fp, sp}^
    2058:	5f202970 	svcpl	0x00202970
    205c:	6975625f 	ldmdbvs	r5!, {r0, r1, r2, r3, r4, r6, r9, sp, lr}^
    2060:	6e69746c 	cdpvs	4, 6, cr7, cr9, cr12, {3}
    2064:	7078655f 	rsbsvc	r6, r8, pc, asr r5
    2068:	28746365 	ldmdacs	r4!, {r0, r2, r5, r6, r8, r9, sp, lr}^
    206c:	70786528 	rsbsvc	r6, r8, r8, lsr #10
    2070:	31202c29 			; <UNDEFINED> instruction: 0x31202c29
    2074:	58450029 	stmdapl	r5, {r0, r3, r5}^
    2078:	50384954 	eorspl	r4, r8, r4, asr r9
    207c:	28203844 	stmdacs	r0!, {r2, r6, fp, ip, sp}
    2080:	49545845 	ldmdbmi	r4, {r0, r2, r6, fp, ip, lr}^
    2084:	4950475f 	ldmdbmi	r0, {r0, r1, r2, r3, r4, r6, r8, r9, sl, lr}^
    2088:	614d5f4f 	cmpvs	sp, pc, asr #30
    208c:	6e697070 	mcrvs	0, 3, r7, cr9, cr0, {3}
    2090:	29745f67 	ldmdbcs	r4!, {r0, r1, r2, r5, r6, r8, r9, sl, fp, ip, lr}^
    2094:	5458457b 	ldrbpl	r4, [r8], #-1403	; 0xfffffa85
    2098:	202c3849 	eorcs	r3, ip, r9, asr #16
    209c:	4f495047 	svcmi	0x00495047
    20a0:	47202c44 	strmi	r2, [r0, -r4, asr #24]!
    20a4:	5f4f4950 	svcpl	0x004f4950
    20a8:	5f4e4950 	svcpl	0x004e4950
    20ac:	45202c38 	strmi	r2, [r0, #-3128]!	; 0xfffff3c8
    20b0:	38495458 	stmdacc	r9, {r3, r4, r6, sl, ip, lr}^
    20b4:	5152495f 	cmppl	r2, pc, asr r9
    20b8:	5f5f007d 	svcpl	0x005f007d
    20bc:	6b636f6c 	blvs	18dde74 <_Min_Stack_Size+0x18dda74>
    20c0:	6c65725f 	sfmvs	f7, 2, [r5], #-380	; 0xfffffe84
    20c4:	65736165 	ldrbvs	r6, [r3, #-357]!	; 0xfffffe9b
    20c8:	6365725f 	cmnvs	r5, #-268435451	; 0xf0000005
    20cc:	69737275 	ldmdbvs	r3!, {r0, r2, r4, r5, r6, r9, ip, sp, lr}^
    20d0:	6c286576 	cfstr32vs	mvfx6, [r8], #-472	; 0xfffffe28
    20d4:	296b636f 	stmdbcs	fp!, {r0, r1, r2, r3, r5, r6, r8, r9, sp, lr}^
    20d8:	725f5f20 	subsvc	r5, pc, #32, 30	; 0x80
    20dc:	72617465 	rsbvc	r7, r1, #1694498816	; 0x65000000
    20e0:	5f746567 	svcpl	0x00746567
    20e4:	6b636f6c 	blvs	18dde9c <_Min_Stack_Size+0x18dda9c>
    20e8:	6c65725f 	sfmvs	f7, 2, [r5], #-380	; 0xfffffe84
    20ec:	65736165 	ldrbvs	r6, [r3, #-357]!	; 0xfffffe9b
    20f0:	6365725f 	cmnvs	r5, #-268435451	; 0xf0000005
    20f4:	69737275 	ldmdbvs	r3!, {r0, r2, r4, r5, r6, r9, ip, sp, lr}^
    20f8:	6c286576 	cfstr32vs	mvfx6, [r8], #-472	; 0xfffffe28
    20fc:	296b636f 	stmdbcs	fp!, {r0, r1, r2, r3, r5, r6, r8, r9, sp, lr}^
    2100:	465f5f00 	ldrbmi	r5, [pc], -r0, lsl #30
    2104:	445f544c 	ldrbmi	r5, [pc], #-1100	; 210c <_Min_Stack_Size+0x1d0c>
    2108:	5f5f4749 	svcpl	0x005f4749
    210c:	45003620 	strmi	r3, [r0, #-1568]	; 0xfffff9e0
    2110:	37495458 	smlsldcc	r5, r9, r8, r4
    2114:	20374350 	eorscs	r4, r7, r0, asr r3
    2118:	54584528 	ldrbpl	r4, [r8], #-1320	; 0xfffffad8
    211c:	50475f49 	subpl	r5, r7, r9, asr #30
    2120:	4d5f4f49 	ldclmi	15, cr4, [pc, #-292]	; 2004 <_Min_Stack_Size+0x1c04>
    2124:	69707061 	ldmdbvs	r0!, {r0, r5, r6, ip, sp, lr}^
    2128:	745f676e 	ldrbvc	r6, [pc], #-1902	; 2130 <_Min_Stack_Size+0x1d30>
    212c:	58457b29 	stmdapl	r5, {r0, r3, r5, r8, r9, fp, ip, sp, lr}^
    2130:	2c374954 			; <UNDEFINED> instruction: 0x2c374954
    2134:	49504720 	ldmdbmi	r0, {r5, r8, r9, sl, lr}^
    2138:	202c434f 	eorcs	r4, ip, pc, asr #6
    213c:	4f495047 	svcmi	0x00495047
    2140:	4e49505f 	mcrmi	0, 2, r5, cr9, cr15, {2}
    2144:	202c375f 	eorcs	r3, ip, pc, asr r7
    2148:	49545845 	ldmdbmi	r4, {r0, r2, r6, fp, ip, lr}^
    214c:	52495f37 	subpl	r5, r9, #55, 30	; 0xdc
    2150:	5f007d51 	svcpl	0x00007d51
    2154:	544e495f 	strbpl	r4, [lr], #-2399	; 0xfffff6a1
    2158:	5341465f 	movtpl	r4, #5727	; 0x165f
    215c:	5f323354 	svcpl	0x00323354
    2160:	54444957 	strbpl	r4, [r4], #-2391	; 0xfffff6a9
    2164:	205f5f48 	subscs	r5, pc, r8, asr #30
    2168:	5f003233 	svcpl	0x00003233
    216c:	7474615f 	ldrbtvc	r6, [r4], #-351	; 0xfffffea1
    2170:	75626972 	strbvc	r6, [r2, #-2418]!	; 0xfffff68e
    2174:	665f6574 			; <UNDEFINED> instruction: 0x665f6574
    2178:	616d726f 	cmnvs	sp, pc, ror #4
    217c:	74735f74 	ldrbtvc	r5, [r3], #-3956	; 0xfffff08c
    2180:	6f6d6672 	svcvs	0x006d6672
    2184:	285f5f6e 	ldmdacs	pc, {r1, r2, r3, r5, r6, r8, r9, sl, fp, ip, lr}^	; <UNPREDICTABLE>
    2188:	29622c61 	stmdbcs	r2!, {r0, r5, r6, sl, fp, sp}^
    218c:	425f0020 	subsmi	r0, pc, #32
    2190:	535f4453 	cmppl	pc, #1392508928	; 0x53000000
    2194:	5f455a49 	svcpl	0x00455a49
    2198:	45445f54 	strbmi	r5, [r4, #-3924]	; 0xfffff0ac
    219c:	454e4946 	strbmi	r4, [lr, #-2374]	; 0xfffff6ba
    21a0:	00205f44 	eoreq	r5, r0, r4, asr #30
    21a4:	49555f5f 	ldmdbmi	r5, {r0, r1, r2, r3, r4, r6, r8, r9, sl, fp, ip, lr}^
    21a8:	465f544e 	ldrbmi	r5, [pc], -lr, asr #8
    21ac:	33545341 	cmpcc	r4, #67108865	; 0x4000001
    21b0:	59545f32 	ldmdbpl	r4, {r1, r4, r5, r8, r9, sl, fp, ip, lr}^
    21b4:	5f5f4550 	svcpl	0x005f4550
    21b8:	736e7520 	cmnvc	lr, #32, 10	; 0x8000000
    21bc:	656e6769 	strbvs	r6, [lr, #-1897]!	; 0xfffff897
    21c0:	6e692064 	cdpvs	0, 6, cr2, cr9, cr4, {3}
    21c4:	5f5f0074 	svcpl	0x005f0074
    21c8:	746e695f 	strbtvc	r6, [lr], #-2399	; 0xfffff6a1
    21cc:	7a69735f 	bvc	1a5ef50 <_Min_Stack_Size+0x1a5eb50>
    21d0:	5f745f65 	svcpl	0x00745f65
    21d4:	5f002068 	svcpl	0x00002068
    21d8:	4454535f 	ldrbmi	r5, [r4], #-863	; 0xfffffca1
    21dc:	54555f43 	ldrbpl	r5, [r5], #-3907	; 0xfffff0bd
    21e0:	32335f46 	eorscc	r5, r3, #280	; 0x118
    21e4:	31205f5f 			; <UNDEFINED> instruction: 0x31205f5f
    21e8:	535f5f00 	cmppl	pc, #0, 30
    21ec:	4f455a49 	svcmi	0x00455a49
    21f0:	4c465f46 	mcrrmi	15, 4, r5, r6, cr6
    21f4:	5f54414f 	svcpl	0x0054414f
    21f8:	0034205f 	eorseq	r2, r4, pc, asr r0
    21fc:	4c465f5f 	mcrrmi	15, 5, r5, r6, cr15
    2200:	58323354 	ldmdapl	r2!, {r2, r4, r6, r8, r9, ip, sp}
    2204:	4e45445f 	mcrmi	4, 2, r4, cr5, cr15, {2}
    2208:	5f4d524f 	svcpl	0x004d524f
    220c:	5f4e494d 	svcpl	0x004e494d
    2210:	2e34205f 	mrccs	0, 1, r2, cr4, cr15, {2}
    2214:	36303439 			; <UNDEFINED> instruction: 0x36303439
    2218:	35343635 	ldrcc	r3, [r4, #-1589]!	; 0xfffff9cb
    221c:	32313438 	eorscc	r3, r1, #56, 8	; 0x38000000
    2220:	34353634 	ldrtcc	r3, [r5], #-1588	; 0xfffff9cc
    2224:	32332d65 	eorscc	r2, r3, #6464	; 0x1940
    2228:	32334634 	eorscc	r4, r3, #52, 12	; 0x3400000
    222c:	5f5f0078 	svcpl	0x005f0078
    2230:	43554e47 	cmpmi	r5, #1136	; 0x470
    2234:	454b494c 	strbmi	r4, [fp, #-2380]	; 0xfffff6b4
    2238:	54414d5f 	strbpl	r4, [r1], #-3423	; 0xfffff2a1
    223c:	55425f48 	strbpl	r5, [r2, #-3912]	; 0xfffff0b8
    2240:	49544c49 	ldmdbmi	r4, {r0, r3, r6, sl, fp, lr}^
    2244:	45525f4e 	ldrbmi	r5, [r2, #-3918]	; 0xfffff0b2
    2248:	53504f4c 	cmppl	r0, #76, 30	; 0x130
    224c:	5f5f0020 	svcpl	0x005f0020
    2250:	5f544c46 	svcpl	0x00544c46
    2254:	5f58414d 	svcpl	0x0058414d
    2258:	455f3031 	ldrbmi	r3, [pc, #-49]	; 222f <_Min_Stack_Size+0x1e2f>
    225c:	5f5f5058 	svcpl	0x005f5058
    2260:	00383320 	eorseq	r3, r8, r0, lsr #6
    2264:	4d505f5f 	ldclmi	15, cr5, [r0, #-380]	; 0xfffffe84
    2268:	72612854 	rsbvc	r2, r1, #84, 16	; 0x540000
    226c:	20297367 	eorcs	r7, r9, r7, ror #6
    2270:	73677261 	cmnvc	r7, #268435462	; 0x10000006
    2274:	465f5f00 	ldrbmi	r5, [pc], -r0, lsl #30
    2278:	54434152 	strbpl	r4, [r3], #-338	; 0xfffffeae
    227c:	58414d5f 	stmdapl	r1, {r0, r1, r2, r3, r4, r6, r8, sl, fp, lr}^
    2280:	30205f5f 	eorcc	r5, r0, pc, asr pc
    2284:	46463758 			; <UNDEFINED> instruction: 0x46463758
    2288:	312d5046 			; <UNDEFINED> instruction: 0x312d5046
    228c:	4e005235 	mcrmi	2, 0, r5, cr0, cr5, {1}
    2290:	5f434956 	svcpl	0x00434956
    2294:	49545845 	ldmdbmi	r4, {r0, r2, r6, fp, ip, lr}^
    2298:	52495f31 	subpl	r5, r9, #49, 30	; 0xc4
    229c:	6e455f51 	mcrvs	15, 2, r5, cr5, cr1, {2}
    22a0:	656c6261 	strbvs	r6, [ip, #-609]!	; 0xfffffd9f
    22a4:	564e2820 	strbpl	r2, [lr], -r0, lsr #16
    22a8:	495f4349 	ldmdbmi	pc, {r0, r3, r6, r8, r9, lr}^	; <UNPREDICTABLE>
    22ac:	30524553 	subscc	r4, r2, r3, asr r5
    22b0:	203d7c20 	eorscs	r7, sp, r0, lsr #24
    22b4:	373c3c31 			; <UNDEFINED> instruction: 0x373c3c31
    22b8:	5f5f0029 	svcpl	0x005f0029
    22bc:	5f544e49 	svcpl	0x00544e49
    22c0:	54534146 	ldrbpl	r4, [r3], #-326	; 0xfffffeba
    22c4:	4d5f3233 	lfmmi	f3, 2, [pc, #-204]	; 2200 <_Min_Stack_Size+0x1e00>
    22c8:	5f5f5841 	svcpl	0x005f5841
    22cc:	37783020 	ldrbcc	r3, [r8, -r0, lsr #32]!
    22d0:	66666666 	strbtvs	r6, [r6], -r6, ror #12
    22d4:	00666666 	rsbeq	r6, r6, r6, ror #12
    22d8:	54415f5f 	strbpl	r5, [r1], #-3935	; 0xfffff0a1
    22dc:	43494d4f 	movtmi	r4, #40271	; 0x9d4f
    22e0:	5145535f 	cmppl	r5, pc, asr r3
    22e4:	5453435f 	ldrbpl	r4, [r3], #-863	; 0xfffffca1
    22e8:	5f003520 	svcpl	0x00003520
    22ec:	44414552 	strbmi	r4, [r1], #-1362	; 0xfffffaae
    22f0:	4952575f 	ldmdbmi	r2, {r0, r1, r2, r3, r4, r6, r8, r9, sl, ip, lr}^
    22f4:	525f4554 	subspl	r4, pc, #84, 10	; 0x15000000
    22f8:	52555445 	subspl	r5, r5, #1157627904	; 0x45000000
    22fc:	59545f4e 	ldmdbpl	r4, {r1, r2, r3, r6, r8, r9, sl, fp, ip, lr}^
    2300:	69204550 	stmdbvs	r0!, {r4, r6, r8, sl, lr}
    2304:	4500746e 	strmi	r7, [r0, #-1134]	; 0xfffffb92
    2308:	31495458 	cmpcc	r9, r8, asr r4
    230c:	31435034 	cmpcc	r3, r4, lsr r0
    2310:	45282034 	strmi	r2, [r8, #-52]!	; 0xffffffcc
    2314:	5f495458 	svcpl	0x00495458
    2318:	4f495047 	svcmi	0x00495047
    231c:	70614d5f 	rsbvc	r4, r1, pc, asr sp
    2320:	676e6970 			; <UNDEFINED> instruction: 0x676e6970
    2324:	7b29745f 	blvc	a5f4a8 <_Min_Stack_Size+0xa5f0a8>
    2328:	49545845 	ldmdbmi	r4, {r0, r2, r6, fp, ip, lr}^
    232c:	202c3431 	eorcs	r3, ip, r1, lsr r4
    2330:	4f495047 	svcmi	0x00495047
    2334:	47202c43 	strmi	r2, [r0, -r3, asr #24]!
    2338:	5f4f4950 	svcpl	0x004f4950
    233c:	5f4e4950 	svcpl	0x004e4950
    2340:	202c3431 	eorcs	r3, ip, r1, lsr r4
    2344:	49545845 	ldmdbmi	r4, {r0, r2, r6, fp, ip, lr}^
    2348:	495f3431 	ldmdbmi	pc, {r0, r4, r5, sl, ip, sp}^	; <UNPREDICTABLE>
    234c:	007d5152 	rsbseq	r5, sp, r2, asr r1
    2350:	656e5f5f 	strbvs	r5, [lr, #-3935]!	; 0xfffff0a1
    2354:	775f6465 	ldrbvc	r6, [pc, -r5, ror #8]
    2358:	5f746e69 	svcpl	0x00746e69
    235c:	5f5f0074 	svcpl	0x005f0074
    2360:	5f6d7973 	svcpl	0x006d7973
    2364:	61666564 	cmnvs	r6, r4, ror #10
    2368:	28746c75 	ldmdacs	r4!, {r0, r2, r4, r5, r6, sl, fp, sp, lr}^
    236c:	2c6d7973 			; <UNDEFINED> instruction: 0x2c6d7973
    2370:	6c706d69 	ldclvs	13, cr6, [r0], #-420	; 0xfffffe5c
    2374:	7265762c 	rsbvc	r7, r5, #44, 12	; 0x2c00000
    2378:	20296469 	eorcs	r6, r9, r9, ror #8
    237c:	73615f5f 	cmnvc	r1, #380	; 0x17c
    2380:	285f5f6d 	ldmdacs	pc, {r0, r2, r3, r5, r6, r8, r9, sl, fp, ip, lr}^	; <UNPREDICTABLE>
    2384:	79732e22 	ldmdbvc	r3!, {r1, r5, r9, sl, fp, sp}^
    2388:	7265766d 	rsbvc	r7, r5, #114294784	; 0x6d00000
    238c:	23202220 			; <UNDEFINED> instruction: 0x23202220
    2390:	6c706d69 	ldclvs	13, cr6, [r0], #-420	; 0xfffffe5c
    2394:	202c2220 	eorcs	r2, ip, r0, lsr #4
    2398:	73232022 			; <UNDEFINED> instruction: 0x73232022
    239c:	22206d79 	eorcs	r6, r0, #7744	; 0x1e40
    23a0:	20224040 	eorcs	r4, r2, r0, asr #32
    23a4:	72657623 	rsbvc	r7, r5, #36700160	; 0x2300000
    23a8:	00296469 	eoreq	r6, r9, r9, ror #8
    23ac:	374d4954 	smlsldcc	r4, sp, r4, r9
    23b0:	5341425f 	movtpl	r4, #4703	; 0x125f
    23b4:	78302045 	ldmdavc	r0!, {r0, r2, r6, sp}
    23b8:	30303034 	eorscc	r3, r0, r4, lsr r0
    23bc:	30303431 	eorscc	r3, r0, r1, lsr r4
    23c0:	4e490075 	mcrmi	0, 2, r0, cr9, cr5, {3}
    23c4:	41465f54 	cmpmi	r6, r4, asr pc
    23c8:	5f385453 	svcpl	0x00385453
    23cc:	2058414d 	subscs	r4, r8, sp, asr #2
    23d0:	495f5f28 	ldmdbmi	pc, {r3, r5, r8, r9, sl, fp, ip, lr}^	; <UNPREDICTABLE>
    23d4:	465f544e 	ldrbmi	r5, [pc], -lr, asr #8
    23d8:	38545341 	ldmdacc	r4, {r0, r6, r8, r9, ip, lr}^
    23dc:	58414d5f 	stmdapl	r1, {r0, r1, r2, r3, r4, r6, r8, sl, fp, lr}^
    23e0:	00295f5f 	eoreq	r5, r9, pc, asr pc
    23e4:	4f495047 	svcmi	0x00495047
    23e8:	4e49505f 	mcrmi	0, 2, r5, cr9, cr15, {2}
    23ec:	5445535f 	strbpl	r5, [r5], #-863	; 0xfffffca1
    23f0:	5f003120 	svcpl	0x00003120
    23f4:	6c6c615f 	stfvse	f6, [ip], #-380	; 0xfffffe84
    23f8:	735f636f 	cmpvc	pc, #-1140850687	; 0xbc000001
    23fc:	32657a69 	rsbcc	r7, r5, #430080	; 0x69000
    2400:	782c6e28 	stmdavc	ip!, {r3, r5, r9, sl, fp, sp, lr}
    2404:	5f5f2029 	svcpl	0x005f2029
    2408:	72747461 	rsbsvc	r7, r4, #1627389952	; 0x61000000
    240c:	74756269 	ldrbtvc	r6, [r5], #-617	; 0xfffffd97
    2410:	285f5f65 	ldmdacs	pc, {r0, r2, r5, r6, r8, r9, sl, fp, ip, lr}^	; <UNPREDICTABLE>
    2414:	615f5f28 	cmpvs	pc, r8, lsr #30
    2418:	636f6c6c 	cmnvs	pc, #108, 24	; 0x6c00
    241c:	7a69735f 	bvc	1a5f1a0 <_Min_Stack_Size+0x1a5eda0>
    2420:	285f5f65 	ldmdacs	pc, {r0, r2, r5, r6, r8, r9, sl, fp, ip, lr}^	; <UNPREDICTABLE>
    2424:	78202c6e 	stmdavc	r0!, {r1, r2, r3, r5, r6, sl, fp, sp}
    2428:	00292929 	eoreq	r2, r9, r9, lsr #18
    242c:	49555f5f 	ldmdbmi	r5, {r0, r1, r2, r3, r4, r6, r8, r9, sl, fp, ip, lr}^
    2430:	3631544e 	ldrtcc	r5, [r1], -lr, asr #8
    2434:	58414d5f 	stmdapl	r1, {r0, r1, r2, r3, r4, r6, r8, sl, fp, lr}^
    2438:	30205f5f 	eorcc	r5, r0, pc, asr pc
    243c:	66666678 			; <UNDEFINED> instruction: 0x66666678
    2440:	43520066 	cmpmi	r2, #102	; 0x66
    2444:	50535f43 	subspl	r5, r3, r3, asr #30
    2448:	435f3249 	cmpmi	pc, #-1879048188	; 0x90000004
    244c:	455f4b4c 	ldrbmi	r4, [pc, #-2892]	; 1908 <_Min_Stack_Size+0x1508>
    2450:	2029284e 	eorcs	r2, r9, lr, asr #16
    2454:	43435228 	movtmi	r5, #12840	; 0x3228
    2458:	50413e2d 	subpl	r3, r1, sp, lsr #28
    245c:	4e453142 	dvfmism	f3, f5, f2
    2460:	3d7c2052 	ldclcc	0, cr2, [ip, #-328]!	; 0xfffffeb8
    2464:	3c312820 	ldccc	8, cr2, [r1], #-128	; 0xffffff80
    2468:	2934313c 	ldmdbcs	r4!, {r2, r3, r4, r5, r8, ip, sp}
    246c:	5f5f0029 	svcpl	0x005f0029
    2470:	465f5154 			; <UNDEFINED> instruction: 0x465f5154
    2474:	5f544942 	svcpl	0x00544942
    2478:	3231205f 	eorscc	r2, r1, #95	; 0x5f
    247c:	58450037 	stmdapl	r5, {r0, r1, r2, r4, r5}^
    2480:	745f4954 	ldrbvc	r4, [pc], #-2388	; 2488 <_Min_Stack_Size+0x2088>
    2484:	67676972 			; <UNDEFINED> instruction: 0x67676972
    2488:	725f7265 	subsvc	r7, pc, #1342177286	; 0x50000006
    248c:	6e697369 	cdpvs	3, 6, cr7, cr9, cr9, {3}
    2490:	00302067 	eorseq	r2, r0, r7, rrx
    2494:	444c5f5f 	strbmi	r5, [ip], #-3935	; 0xfffff0a1
    2498:	4d5f4c42 	ldclmi	12, cr4, [pc, #-264]	; 2398 <_Min_Stack_Size+0x1f98>
    249c:	455f5841 	ldrbmi	r5, [pc, #-2113]	; 1c63 <_Min_Stack_Size+0x1863>
    24a0:	5f5f5058 	svcpl	0x005f5058
    24a4:	32303120 	eorscc	r3, r0, #32, 2
    24a8:	58450034 	stmdapl	r5, {r2, r4, r5}^
    24ac:	50314954 	eorspl	r4, r1, r4, asr r9
    24b0:	28203141 	stmdacs	r0!, {r0, r6, r8, ip, sp}
    24b4:	49545845 	ldmdbmi	r4, {r0, r2, r6, fp, ip, lr}^
    24b8:	4950475f 	ldmdbmi	r0, {r0, r1, r2, r3, r4, r6, r8, r9, sl, lr}^
    24bc:	614d5f4f 	cmpvs	sp, pc, asr #30
    24c0:	6e697070 	mcrvs	0, 3, r7, cr9, cr0, {3}
    24c4:	29745f67 	ldmdbcs	r4!, {r0, r1, r2, r5, r6, r8, r9, sl, fp, ip, lr}^
    24c8:	5458457b 	ldrbpl	r4, [r8], #-1403	; 0xfffffa85
    24cc:	202c3149 	eorcs	r3, ip, r9, asr #2
    24d0:	4f495047 	svcmi	0x00495047
    24d4:	47202c41 	strmi	r2, [r0, -r1, asr #24]!
    24d8:	5f4f4950 	svcpl	0x004f4950
    24dc:	5f4e4950 	svcpl	0x004e4950
    24e0:	45202c31 	strmi	r2, [r0, #-3121]!	; 0xfffff3cf
    24e4:	31495458 	cmpcc	r9, r8, asr r4
    24e8:	5152495f 	cmppl	r2, pc, asr r9
    24ec:	555f007d 	ldrbpl	r0, [pc, #-125]	; 2477 <_Min_Stack_Size+0x2077>
    24f0:	36544e49 	ldrbcc	r4, [r4], -r9, asr #28
    24f4:	5f545f34 	svcpl	0x00545f34
    24f8:	4c434544 	cfstr64mi	mvdx4, [r3], {68}	; 0x44
    24fc:	44455241 	strbmi	r5, [r5], #-577	; 0xfffffdbf
    2500:	5f5f0020 	svcpl	0x005f0020
    2504:	5f746e69 	svcpl	0x00746e69
    2508:	74736166 	ldrbtvc	r6, [r3], #-358	; 0xfffffe9a
    250c:	745f3436 	ldrbvc	r3, [pc], #-1078	; 2514 <_Min_Stack_Size+0x2114>
    2510:	6665645f 			; <UNDEFINED> instruction: 0x6665645f
    2514:	64656e69 	strbtvs	r6, [r5], #-3689	; 0xfffff197
    2518:	47003120 	strmi	r3, [r0, -r0, lsr #2]
    251c:	5f4f4950 	svcpl	0x004f4950
    2520:	45444f4d 	strbmi	r4, [r4, #-3917]	; 0xfffff0b3
    2524:	54554f5f 	ldrbpl	r4, [r5], #-3935	; 0xfffff0a1
    2528:	5f545550 	svcpl	0x00545550
    252c:	4f5f4641 	svcmi	0x005f4641
    2530:	78302044 	ldmdavc	r0!, {r2, r6, sp}
    2534:	30303030 	eorscc	r3, r0, r0, lsr r0
    2538:	37303030 			; <UNDEFINED> instruction: 0x37303030
    253c:	49504700 	ldmdbmi	r0, {r8, r9, sl, lr}^
    2540:	2820414f 	stmdacs	r0!, {r0, r1, r2, r3, r6, r8, lr}
    2544:	49504728 	ldmdbmi	r0, {r3, r5, r8, r9, sl, lr}^
    2548:	79545f4f 	ldmdbvc	r4, {r0, r1, r2, r3, r6, r8, r9, sl, fp, ip, lr}^
    254c:	65646570 	strbvs	r6, [r4, #-1392]!	; 0xfffffa90
    2550:	2a745f66 	bcs	1d1a2f0 <_Min_Stack_Size+0x1d19ef0>
    2554:	49504729 	ldmdbmi	r0, {r0, r3, r5, r8, r9, sl, lr}^
    2558:	425f414f 	subsmi	r4, pc, #-1073741805	; 0xc0000013
    255c:	29455341 	stmdbcs	r5, {r0, r6, r8, r9, ip, lr}^
    2560:	6d695400 	cfstrdvs	mvd5, [r9, #-0]
    2564:	28282033 	stmdacs	r8!, {r0, r1, r4, r5, sp}
    2568:	324d4954 	subcc	r4, sp, #84, 18	; 0x150000
    256c:	545f3574 	ldrbpl	r3, [pc], #-1396	; 2574 <_Min_Stack_Size+0x2174>
    2570:	44657079 	strbtmi	r7, [r5], #-121	; 0xffffff87
    2574:	745f6665 	ldrbvc	r6, [pc], #-1637	; 257c <_Min_Stack_Size+0x217c>
    2578:	4954292a 	ldmdbmi	r4, {r1, r3, r5, r8, fp, sp}^
    257c:	425f334d 	subsmi	r3, pc, #872415233	; 0x34000001
    2580:	29455341 	stmdbcs	r5, {r0, r6, r8, r9, ip, lr}^
    2584:	535f5f00 	cmppl	pc, #0, 30
    2588:	4f455a49 	svcmi	0x00455a49
    258c:	48535f46 	ldmdami	r3, {r1, r2, r6, r8, r9, sl, fp, ip, lr}^
    2590:	5f54524f 	svcpl	0x0054524f
    2594:	0032205f 	eorseq	r2, r2, pc, asr r0
    2598:	4c555f5f 	mrrcmi	15, 5, r5, r5, cr15	; <UNPREDICTABLE>
    259c:	4343414c 	movtmi	r4, #12620	; 0x314c
    25a0:	465f4d55 			; <UNDEFINED> instruction: 0x465f4d55
    25a4:	5f544942 	svcpl	0x00544942
    25a8:	3233205f 	eorscc	r2, r3, #95	; 0x5f
    25ac:	54584500 	ldrbpl	r4, [r8], #-1280	; 0xfffffb00
    25b0:	50323149 	eorspl	r3, r2, r9, asr #2
    25b4:	20323144 	eorscs	r3, r2, r4, asr #2
    25b8:	54584528 	ldrbpl	r4, [r8], #-1320	; 0xfffffad8
    25bc:	50475f49 	subpl	r5, r7, r9, asr #30
    25c0:	4d5f4f49 	ldclmi	15, cr4, [pc, #-292]	; 24a4 <_Min_Stack_Size+0x20a4>
    25c4:	69707061 	ldmdbvs	r0!, {r0, r5, r6, ip, sp, lr}^
    25c8:	745f676e 	ldrbvc	r6, [pc], #-1902	; 25d0 <_Min_Stack_Size+0x21d0>
    25cc:	58457b29 	stmdapl	r5, {r0, r3, r5, r8, r9, fp, ip, sp, lr}^
    25d0:	32314954 	eorscc	r4, r1, #84, 18	; 0x150000
    25d4:	5047202c 	subpl	r2, r7, ip, lsr #32
    25d8:	2c444f49 	mcrrcs	15, 4, r4, r4, cr9
    25dc:	49504720 	ldmdbmi	r0, {r5, r8, r9, sl, lr}^
    25e0:	49505f4f 	ldmdbmi	r0, {r0, r1, r2, r3, r6, r8, r9, sl, fp, ip, lr}^
    25e4:	32315f4e 	eorscc	r5, r1, #312	; 0x138
    25e8:	5845202c 	stmdapl	r5, {r2, r3, r5, sp}^
    25ec:	32314954 	eorscc	r4, r1, #84, 18	; 0x150000
    25f0:	5152495f 	cmppl	r2, pc, asr r9
    25f4:	5f5f007d 	svcpl	0x005f007d
    25f8:	4f434544 	svcmi	0x00434544
    25fc:	2854534e 	ldmdacs	r4, {r1, r2, r3, r6, r8, r9, ip, lr}^
    2600:	65707974 	ldrbvs	r7, [r0, #-2420]!	; 0xfffff68c
    2604:	7261762c 	rsbvc	r7, r1, #44, 12	; 0x2c00000
    2608:	28282029 	stmdacs	r8!, {r0, r3, r5, sp}
    260c:	65707974 	ldrbvs	r7, [r0, #-2420]!	; 0xfffff68c
    2610:	5f5f2829 	svcpl	0x005f2829
    2614:	746e6975 	strbtvc	r6, [lr], #-2421	; 0xfffff68b
    2618:	5f727470 	svcpl	0x00727470
    261c:	63282974 			; <UNDEFINED> instruction: 0x63282974
    2620:	74736e6f 	ldrbtvc	r6, [r3], #-3695	; 0xfffff191
    2624:	696f7620 	stmdbvs	pc!, {r5, r9, sl, ip, sp, lr}^	; <UNPREDICTABLE>
    2628:	292a2064 	stmdbcs	sl!, {r2, r5, r6, sp}
    262c:	72617628 	rsbvc	r7, r1, #40, 12	; 0x2800000
    2630:	5f002929 	svcpl	0x00002929
    2634:	5f535953 	svcpl	0x00535953
    2638:	54414546 	strbpl	r4, [r1], #-1350	; 0xfffffaba
    263c:	53455255 	movtpl	r5, #21077	; 0x5255
    2640:	0020485f 	eoreq	r4, r0, pc, asr r8
    2644:	544e4955 	strbpl	r4, [lr], #-2389	; 0xfffff6ab
    2648:	41454c5f 	cmpmi	r5, pc, asr ip
    264c:	34365453 	ldrtcc	r5, [r6], #-1107	; 0xfffffbad
    2650:	58414d5f 	stmdapl	r1, {r0, r1, r2, r3, r4, r6, r8, sl, fp, lr}^
    2654:	5f5f2820 	svcpl	0x005f2820
    2658:	544e4955 	strbpl	r4, [lr], #-2389	; 0xfffff6ab
    265c:	41454c5f 	cmpmi	r5, pc, asr ip
    2660:	34365453 	ldrtcc	r5, [r6], #-1107	; 0xfffffbad
    2664:	58414d5f 	stmdapl	r1, {r0, r1, r2, r3, r4, r6, r8, sl, fp, lr}^
    2668:	00295f5f 	eoreq	r5, r9, pc, asr pc
    266c:	6f6e5f5f 	svcvs	0x006e5f5f
    2670:	696c6e69 	stmdbvs	ip!, {r0, r3, r5, r6, r9, sl, fp, sp, lr}^
    2674:	5f20656e 	svcpl	0x0020656e
    2678:	7474615f 	ldrbtvc	r6, [r4], #-351	; 0xfffffea1
    267c:	75626972 	strbvc	r6, [r2, #-2418]!	; 0xfffff68e
    2680:	5f5f6574 	svcpl	0x005f6574
    2684:	5f282820 	svcpl	0x00282820
    2688:	696f6e5f 	stmdbvs	pc!, {r0, r1, r2, r3, r4, r6, r9, sl, fp, sp, lr}^	; <UNPREDICTABLE>
    268c:	6e696c6e 	cdpvs	12, 6, cr6, cr9, cr14, {3}
    2690:	295f5f65 	ldmdbcs	pc, {r0, r2, r5, r6, r8, r9, sl, fp, ip, lr}^	; <UNPREDICTABLE>
    2694:	50470029 	subpl	r0, r7, r9, lsr #32
    2698:	505f4f49 	subspl	r4, pc, r9, asr #30
    269c:	315f4e49 	cmpcc	pc, r9, asr #28
    26a0:	28282032 	stmdacs	r8!, {r1, r4, r5, sp}
    26a4:	746e6975 	strbtvc	r6, [lr], #-2421	; 0xfffff68b
    26a8:	745f3631 	ldrbvc	r3, [pc], #-1585	; 26b0 <_Min_Stack_Size+0x22b0>
    26ac:	78302029 	ldmdavc	r0!, {r0, r3, r5, sp}
    26b0:	30303031 	eorscc	r3, r0, r1, lsr r0
    26b4:	4d5f0029 	ldclmi	0, cr0, [pc, #-164]	; 2618 <_Min_Stack_Size+0x2218>
    26b8:	53484341 	movtpl	r4, #33601	; 0x8341
    26bc:	494c4454 	stmdbmi	ip, {r2, r4, r6, sl, lr}^
    26c0:	5f485f42 	svcpl	0x00485f42
    26c4:	5f5f0020 	svcpl	0x005f0020
    26c8:	455a4953 	ldrbmi	r4, [sl, #-2387]	; 0xfffff6ad
    26cc:	4c5f464f 	mrrcmi	6, 4, r4, pc, cr15	; <UNPREDICTABLE>
    26d0:	5f474e4f 	svcpl	0x00474e4f
    26d4:	42554f44 	subsmi	r4, r5, #68, 30	; 0x110
    26d8:	5f5f454c 	svcpl	0x005f454c
    26dc:	47003820 	strmi	r3, [r0, -r0, lsr #16]
    26e0:	5f4f4950 	svcpl	0x004f4950
    26e4:	5f4e4950 	svcpl	0x004e4950
    26e8:	28282035 	stmdacs	r8!, {r0, r2, r4, r5, sp}
    26ec:	746e6975 	strbtvc	r6, [lr], #-2421	; 0xfffff68b
    26f0:	745f3631 	ldrbvc	r3, [pc], #-1585	; 26f8 <_Min_Stack_Size+0x22f8>
    26f4:	78302029 	ldmdavc	r0!, {r0, r3, r5, sp}
    26f8:	30323030 	eorscc	r3, r2, r0, lsr r0
    26fc:	5f5f0029 	svcpl	0x005f0029
    2700:	47415250 	smlsldmi	r5, r1, r0, r2
    2704:	525f414d 	subspl	r4, pc, #1073741843	; 0x40000013
    2708:	46454445 	strbmi	r4, [r5], -r5, asr #8
    270c:	5f454e49 	svcpl	0x00454e49
    2710:	4e545845 	cdpmi	8, 5, cr5, cr4, cr5, {2}
    2714:	20454d41 	subcs	r4, r5, r1, asr #26
    2718:	5f5f0031 	svcpl	0x005f0031
    271c:	41484357 	cmpmi	r8, r7, asr r3
    2720:	59545f52 	ldmdbpl	r4, {r1, r4, r6, r8, r9, sl, fp, ip, lr}^
    2724:	5f5f4550 	svcpl	0x005f4550
    2728:	736e7520 	cmnvc	lr, #32, 10	; 0x8000000
    272c:	656e6769 	strbvs	r6, [lr, #-1897]!	; 0xfffff897
    2730:	6e692064 	cdpvs	0, 6, cr2, cr9, cr4, {3}
    2734:	525f0074 	subspl	r0, pc, #116	; 0x74
    2738:	544e4545 	strbpl	r4, [lr], #-1349	; 0xfffffabb
    273c:	4749535f 	smlsldmi	r5, r9, pc, r3	; <UNPREDICTABLE>
    2740:	4d41474e 	stclmi	7, cr4, [r1, #-312]	; 0xfffffec8
    2744:	72747028 	rsbsvc	r7, r4, #40	; 0x28
    2748:	28282029 	stmdacs	r8!, {r0, r3, r5, sp}
    274c:	29727470 	ldmdbcs	r2!, {r4, r5, r6, sl, ip, sp, lr}^
    2750:	675f3e2d 	ldrbvs	r3, [pc, -sp, lsr #28]
    2754:	616d6d61 	cmnvs	sp, r1, ror #26
    2758:	6769735f 			; <UNDEFINED> instruction: 0x6769735f
    275c:	6d61676e 	stclvs	7, cr6, [r1, #-440]!	; 0xfffffe48
    2760:	58450029 	stmdapl	r5, {r0, r3, r5}^
    2764:	50364954 	eorspl	r4, r6, r4, asr r9
    2768:	28203644 	stmdacs	r0!, {r2, r6, r9, sl, ip, sp}
    276c:	49545845 	ldmdbmi	r4, {r0, r2, r6, fp, ip, lr}^
    2770:	4950475f 	ldmdbmi	r0, {r0, r1, r2, r3, r4, r6, r8, r9, sl, lr}^
    2774:	614d5f4f 	cmpvs	sp, pc, asr #30
    2778:	6e697070 	mcrvs	0, 3, r7, cr9, cr0, {3}
    277c:	29745f67 	ldmdbcs	r4!, {r0, r1, r2, r5, r6, r8, r9, sl, fp, ip, lr}^
    2780:	5458457b 	ldrbpl	r4, [r8], #-1403	; 0xfffffa85
    2784:	202c3649 	eorcs	r3, ip, r9, asr #12
    2788:	4f495047 	svcmi	0x00495047
    278c:	47202c44 	strmi	r2, [r0, -r4, asr #24]!
    2790:	5f4f4950 	svcpl	0x004f4950
    2794:	5f4e4950 	svcpl	0x004e4950
    2798:	45202c36 	strmi	r2, [r0, #-3126]!	; 0xfffff3ca
    279c:	36495458 			; <UNDEFINED> instruction: 0x36495458
    27a0:	5152495f 	cmppl	r2, pc, asr r9
    27a4:	5845007d 	stmdapl	r5, {r0, r2, r3, r4, r5, r6}^
    27a8:	50384954 	eorspl	r4, r8, r4, asr r9
    27ac:	28203842 	stmdacs	r0!, {r1, r6, fp, ip, sp}
    27b0:	49545845 	ldmdbmi	r4, {r0, r2, r6, fp, ip, lr}^
    27b4:	4950475f 	ldmdbmi	r0, {r0, r1, r2, r3, r4, r6, r8, r9, sl, lr}^
    27b8:	614d5f4f 	cmpvs	sp, pc, asr #30
    27bc:	6e697070 	mcrvs	0, 3, r7, cr9, cr0, {3}
    27c0:	29745f67 	ldmdbcs	r4!, {r0, r1, r2, r5, r6, r8, r9, sl, fp, ip, lr}^
    27c4:	5458457b 	ldrbpl	r4, [r8], #-1403	; 0xfffffa85
    27c8:	202c3849 	eorcs	r3, ip, r9, asr #16
    27cc:	4f495047 	svcmi	0x00495047
    27d0:	47202c42 	strmi	r2, [r0, -r2, asr #24]!
    27d4:	5f4f4950 	svcpl	0x004f4950
    27d8:	5f4e4950 	svcpl	0x004e4950
    27dc:	45202c38 	strmi	r2, [r0, #-3128]!	; 0xfffff3c8
    27e0:	38495458 	stmdacc	r9, {r3, r4, r6, sl, ip, lr}^
    27e4:	5152495f 	cmppl	r2, pc, asr r9
    27e8:	5f5f007d 	svcpl	0x005f007d
    27ec:	5f415355 	svcpl	0x00415355
    27f0:	54494249 	strbpl	r4, [r9], #-585	; 0xfffffdb7
    27f4:	31205f5f 			; <UNDEFINED> instruction: 0x31205f5f
    27f8:	58450036 	stmdapl	r5, {r1, r2, r4, r5}^
    27fc:	5f314954 	svcpl	0x00314954
    2800:	20515249 	subscs	r5, r1, r9, asr #4
    2804:	5f5f0037 	svcpl	0x005f0037
    2808:	5f434347 	svcpl	0x00434347
    280c:	45564148 	ldrbmi	r4, [r6, #-328]	; 0xfffffeb8
    2810:	4e59535f 	mrcmi	3, 2, r5, cr9, cr15, {2}
    2814:	4f435f43 	svcmi	0x00435f43
    2818:	5241504d 	subpl	r5, r1, #77	; 0x4d
    281c:	4e415f45 	cdpmi	15, 4, cr5, cr1, cr5, {2}
    2820:	57535f44 	ldrbpl	r5, [r3, -r4, asr #30]
    2824:	325f5041 	subscc	r5, pc, #65	; 0x41
    2828:	41003120 	tstmi	r0, r0, lsr #2
    282c:	53524248 	cmppl	r2, #72, 4	; 0x80000004
    2830:	5f005254 	svcpl	0x00005254
    2834:	65656e5f 	strbvs	r6, [r5, #-3679]!	; 0xfffff1a1
    2838:	63775f64 	cmnvs	r7, #100, 30	; 0x190
    283c:	5f726168 	svcpl	0x00726168
    2840:	5f002074 	svcpl	0x00002074
    2844:	6469685f 	strbtvs	r6, [r9], #-2143	; 0xfffff7a1
    2848:	206e6564 	rsbcs	r6, lr, r4, ror #10
    284c:	74615f5f 	strbtvc	r5, [r1], #-3935	; 0xfffff0a1
    2850:	62697274 	rsbvs	r7, r9, #116, 4	; 0x40000007
    2854:	5f657475 	svcpl	0x00657475
    2858:	5f28285f 	svcpl	0x0028285f
    285c:	7369765f 	cmnvc	r9, #99614720	; 0x5f00000
    2860:	6c696269 	sfmvs	f6, 2, [r9], #-420	; 0xfffffe5c
    2864:	5f797469 	svcpl	0x00797469
    2868:	6822285f 	stmdavs	r2!, {r0, r1, r2, r3, r4, r6, fp, sp}
    286c:	65646469 	strbvs	r6, [r4, #-1129]!	; 0xfffffb97
    2870:	2929226e 	stmdbcs	r9!, {r1, r2, r3, r5, r6, r9, sp}
    2874:	4e490029 	cdpmi	0, 4, cr0, cr9, cr9, {1}
    2878:	454c5f54 	strbmi	r5, [ip, #-3924]	; 0xfffff0ac
    287c:	33545341 	cmpcc	r4, #67108865	; 0x4000001
    2880:	414d5f32 	cmpmi	sp, r2, lsr pc
    2884:	5f282058 	svcpl	0x00282058
    2888:	544e495f 	strbpl	r4, [lr], #-2399	; 0xfffff6a1
    288c:	41454c5f 	cmpmi	r5, pc, asr ip
    2890:	32335453 	eorscc	r5, r3, #1392508928	; 0x53000000
    2894:	58414d5f 	stmdapl	r1, {r0, r1, r2, r3, r4, r6, r8, sl, fp, lr}^
    2898:	00295f5f 	eoreq	r5, r9, pc, asr pc
    289c:	46535f5f 	usaxmi	r5, r3, pc	; <UNPREDICTABLE>
    28a0:	54434152 	strbpl	r4, [r3], #-338	; 0xfffffeae
    28a4:	58414d5f 	stmdapl	r1, {r0, r1, r2, r3, r4, r6, r8, sl, fp, lr}^
    28a8:	30205f5f 	eorcc	r5, r0, pc, asr pc
    28ac:	50463758 	subpl	r3, r6, r8, asr r7
    28b0:	5248372d 	subpl	r3, r8, #11796480	; 0xb40000
    28b4:	555f5f00 	ldrbpl	r5, [pc, #-3840]	; 19bc <_Min_Stack_Size+0x15bc>
    28b8:	5f544e49 	svcpl	0x00544e49
    28bc:	54534146 	ldrbpl	r4, [r3], #-326	; 0xfffffeba
    28c0:	545f3436 	ldrbpl	r3, [pc], #-1078	; 28c8 <_Min_Stack_Size+0x24c8>
    28c4:	5f455059 	svcpl	0x00455059
    28c8:	6f6c205f 	svcvs	0x006c205f
    28cc:	6c20676e 	stcvs	7, cr6, [r0], #-440	; 0xfffffe48
    28d0:	20676e6f 	rsbcs	r6, r7, pc, ror #28
    28d4:	69736e75 	ldmdbvs	r3!, {r0, r2, r4, r5, r6, r9, sl, fp, sp, lr}^
    28d8:	64656e67 	strbtvs	r6, [r5], #-3687	; 0xfffff199
    28dc:	746e6920 	strbtvc	r6, [lr], #-2336	; 0xfffff6e0
    28e0:	49575f00 	ldmdbmi	r7, {r8, r9, sl, fp, ip, lr}^
    28e4:	545f544e 	ldrbpl	r5, [pc], #-1102	; 28ec <_Min_Stack_Size+0x24ec>
    28e8:	4e490020 	cdpmi	0, 4, cr0, cr9, cr0, {1}
    28ec:	454c5f54 	strbmi	r5, [ip, #-3924]	; 0xfffff0ac
    28f0:	38545341 	ldmdacc	r4, {r0, r6, r8, r9, ip, lr}^
    28f4:	58414d5f 	stmdapl	r1, {r0, r1, r2, r3, r4, r6, r8, sl, fp, lr}^
    28f8:	5f5f2820 	svcpl	0x005f2820
    28fc:	5f544e49 	svcpl	0x00544e49
    2900:	5341454c 	movtpl	r4, #5452	; 0x154c
    2904:	4d5f3854 	ldclmi	8, cr3, [pc, #-336]	; 27bc <_Min_Stack_Size+0x23bc>
    2908:	5f5f5841 	svcpl	0x005f5841
    290c:	564e0029 	strbpl	r0, [lr], -r9, lsr #32
    2910:	455f4349 	ldrbmi	r4, [pc, #-841]	; 25cf <_Min_Stack_Size+0x21cf>
    2914:	30495458 	subcc	r5, r9, r8, asr r4
    2918:	5152495f 	cmppl	r2, pc, asr r9
    291c:	7369445f 	cmnvc	r9, #1593835520	; 0x5f000000
    2920:	656c6261 	strbvs	r6, [ip, #-609]!	; 0xfffffd9f
    2924:	564e2820 	strbpl	r2, [lr], -r0, lsr #16
    2928:	495f4349 	ldmdbmi	pc, {r0, r3, r6, r8, r9, lr}^	; <UNPREDICTABLE>
    292c:	30524543 	subscc	r4, r2, r3, asr #10
    2930:	203d7c20 	eorscs	r7, sp, r0, lsr #24
    2934:	363c3c31 			; <UNDEFINED> instruction: 0x363c3c31
    2938:	5f5f0029 	svcpl	0x005f0029
    293c:	5f544c46 	svcpl	0x00544c46
    2940:	5f4e494d 	svcpl	0x004e494d
    2944:	2e31205f 	mrccs	0, 1, r2, cr1, cr15, {2}
    2948:	34353731 	ldrtcc	r3, [r5], #-1841	; 0xfffff8cf
    294c:	35333439 	ldrcc	r3, [r3, #-1081]!	; 0xfffffbc7
    2950:	32323830 	eorscc	r3, r2, #48, 16	; 0x300000
    2954:	35373832 	ldrcc	r3, [r7, #-2098]!	; 0xfffff7ce
    2958:	38332d65 	ldmdacc	r3!, {r0, r2, r5, r6, r8, sl, fp, sp}
    295c:	5f5f0046 	svcpl	0x005f0046
    2960:	6465656e 	strbtvs	r6, [r5], #-1390	; 0xfffffa92
    2964:	7a69735f 	bvc	1a5f6e8 <_Min_Stack_Size+0x1a5f2e8>
    2968:	20745f65 	rsbscs	r5, r4, r5, ror #30
    296c:	485f5f00 	ldmdami	pc, {r8, r9, sl, fp, ip, lr}^	; <UNPREDICTABLE>
    2970:	42465f41 	submi	r5, r6, #260	; 0x104
    2974:	5f5f5449 	svcpl	0x005f5449
    2978:	5f003720 	svcpl	0x00003720
    297c:	5044465f 	subpl	r4, r4, pc, asr r6
    2980:	5f5f4349 	svcpl	0x005f4349
    2984:	555f5f00 	ldrbpl	r5, [pc, #-3840]	; 1a8c <_Min_Stack_Size+0x168c>
    2988:	43415246 	movtmi	r5, #4678	; 0x1246
    298c:	494d5f54 	stmdbmi	sp, {r2, r4, r6, r8, r9, sl, fp, ip, lr}^
    2990:	205f5f4e 	subscs	r5, pc, lr, asr #30
    2994:	55302e30 	ldrpl	r2, [r0, #-3632]!	; 0xfffff1d0
    2998:	5f5f0052 	svcpl	0x005f0052
    299c:	5f434347 	svcpl	0x00434347
    29a0:	4d4f5441 	cfstrdmi	mvd5, [pc, #-260]	; 28a4 <_Min_Stack_Size+0x24a4>
    29a4:	4c5f4349 	mrrcmi	3, 4, r4, pc, cr9	; <UNPREDICTABLE>
    29a8:	474e4f4c 	strbmi	r4, [lr, -ip, asr #30]
    29ac:	434f4c5f 	movtmi	r4, #64607	; 0xfc5f
    29b0:	52465f4b 	subpl	r5, r6, #300	; 0x12c
    29b4:	31204545 			; <UNDEFINED> instruction: 0x31204545
    29b8:	47495300 	strbmi	r5, [r9, -r0, lsl #6]
    29bc:	4f54415f 	svcmi	0x0054415f
    29c0:	5f43494d 	svcpl	0x0043494d
    29c4:	2058414d 	subscs	r4, r8, sp, asr #2
    29c8:	535f5f28 	cmppl	pc, #40, 30	; 0xa0
    29cc:	4e494454 	mcrmi	4, 2, r4, cr9, cr4, {2}
    29d0:	58455f54 	stmdapl	r5, {r2, r4, r6, r8, r9, sl, fp, ip, lr}^
    29d4:	4e492850 	mcrmi	8, 2, r2, cr9, cr0, {2}
    29d8:	414d5f54 	cmpmi	sp, r4, asr pc
    29dc:	00292958 	eoreq	r2, r9, r8, asr r9
    29e0:	4349564e 	movtmi	r5, #38478	; 0x964e
    29e4:	4543495f 	strbmi	r4, [r3, #-2399]	; 0xfffff6a1
    29e8:	2a203152 	bcs	80ef38 <_Min_Stack_Size+0x80eb38>
    29ec:	6c6f7628 	stclvs	6, cr7, [pc], #-160	; 2954 <_Min_Stack_Size+0x2554>
    29f0:	6c697461 	cfstrdvs	mvd7, [r9], #-388	; 0xfffffe7c
    29f4:	69752065 	ldmdbvs	r5!, {r0, r2, r5, r6, sp}^
    29f8:	3233746e 	eorscc	r7, r3, #1845493760	; 0x6e000000
    29fc:	202a745f 	eorcs	r7, sl, pc, asr r4
    2a00:	564e2829 	strbpl	r2, [lr], -r9, lsr #16
    2a04:	425f4349 	subsmi	r4, pc, #603979777	; 0x24000001
    2a08:	20657361 	rsbcs	r7, r5, r1, ror #6
    2a0c:	3078302b 	rsbscc	r3, r8, fp, lsr #32
    2a10:	00293438 	eoreq	r3, r9, r8, lsr r4
    2a14:	544e4955 	strbpl	r4, [lr], #-2389	; 0xfffff6ab
    2a18:	4d5f3436 	cfldrdmi	mvd3, [pc, #-216]	; 2948 <_Min_Stack_Size+0x2548>
    2a1c:	28205841 	stmdacs	r0!, {r0, r6, fp, ip, lr}
    2a20:	49555f5f 	ldmdbmi	r5, {r0, r1, r2, r3, r4, r6, r8, r9, sl, fp, ip, lr}^
    2a24:	3436544e 	ldrtcc	r5, [r6], #-1102	; 0xfffffbb2
    2a28:	58414d5f 	stmdapl	r1, {r0, r1, r2, r3, r4, r6, r8, sl, fp, lr}^
    2a2c:	00295f5f 	eoreq	r5, r9, pc, asr pc
    2a30:	32495053 	subcc	r5, r9, #83	; 0x53
    2a34:	5152495f 	cmppl	r2, pc, asr r9
    2a38:	00363320 	eorseq	r3, r6, r0, lsr #6
    2a3c:	20554e47 	subscs	r4, r5, r7, asr #28
    2a40:	20313143 	eorscs	r3, r1, r3, asr #2
    2a44:	332e3031 			; <UNDEFINED> instruction: 0x332e3031
    2a48:	3220312e 	eorcc	r3, r0, #-2147483637	; 0x8000000b
    2a4c:	30313230 	eorscc	r3, r1, r0, lsr r2
    2a50:	20343238 	eorscs	r3, r4, r8, lsr r2
    2a54:	6c657228 	sfmvs	f7, 2, [r5], #-160	; 0xffffff60
    2a58:	65736165 	ldrbvs	r6, [r3, #-357]!	; 0xfffffe9b
    2a5c:	6d2d2029 	stcvs	0, cr2, [sp, #-164]!	; 0xffffff5c
    2a60:	3d757063 	ldclcc	0, cr7, [r5, #-396]!	; 0xfffffe74
    2a64:	74726f63 	ldrbtvc	r6, [r2], #-3939	; 0xfffff09d
    2a68:	6d2d7865 	stcvs	8, cr7, [sp, #-404]!	; 0xfffffe6c
    2a6c:	6d2d2033 	stcvs	0, cr2, [sp, #-204]!	; 0xffffff34
    2a70:	616f6c66 	cmnvs	pc, r6, ror #24
    2a74:	62612d74 	rsbvs	r2, r1, #116, 26	; 0x1d00
    2a78:	6f733d69 	svcvs	0x00733d69
    2a7c:	2d207466 	cfstrscs	mvf7, [r0, #-408]!	; 0xfffffe68
    2a80:	7568746d 	strbvc	r7, [r8, #-1133]!	; 0xfffffb93
    2a84:	2d20626d 	sfmcs	f6, 4, [r0, #-436]!	; 0xfffffe4c
    2a88:	6372616d 	cmnvs	r2, #1073741851	; 0x4000001b
    2a8c:	72613d68 	rsbvc	r3, r1, #104, 26	; 0x1a00
    2a90:	2d37766d 	ldccs	6, cr7, [r7, #-436]!	; 0xfffffe4c
    2a94:	672d206d 	strvs	r2, [sp, -sp, rrx]!
    2a98:	72617764 	rsbvc	r7, r1, #100, 14	; 0x1900000
    2a9c:	20322d66 	eorscs	r2, r2, r6, ror #26
    2aa0:	2033672d 	eorscs	r6, r3, sp, lsr #14
    2aa4:	20304f2d 	eorscs	r4, r0, sp, lsr #30
    2aa8:	6474732d 	ldrbtvs	r7, [r4], #-813	; 0xfffffcd3
    2aac:	756e673d 	strbvc	r6, [lr, #-1853]!	; 0xfffff8c3
    2ab0:	2d203131 	stfcss	f3, [r0, #-196]!	; 0xffffff3c
    2ab4:	6e756666 	cdpvs	6, 7, cr6, cr5, cr6, {3}
    2ab8:	6f697463 	svcvs	0x00697463
    2abc:	65732d6e 	ldrbvs	r2, [r3, #-3438]!	; 0xfffff292
    2ac0:	6f697463 	svcvs	0x00697463
    2ac4:	2d20736e 	stccs	3, cr7, [r0, #-440]!	; 0xfffffe48
    2ac8:	74616466 	strbtvc	r6, [r1], #-1126	; 0xfffffb9a
    2acc:	65732d61 	ldrbvs	r2, [r3, #-3425]!	; 0xfffff29f
    2ad0:	6f697463 	svcvs	0x00697463
    2ad4:	2d20736e 	stccs	3, cr7, [r0, #-440]!	; 0xfffffe48
    2ad8:	61747366 	cmnvs	r4, r6, ror #6
    2adc:	752d6b63 	strvc	r6, [sp, #-2915]!	; 0xfffff49d
    2ae0:	65676173 	strbvs	r6, [r7, #-371]!	; 0xfffffe8d
    2ae4:	63662d20 	cmnvs	r6, #32, 26	; 0x800
    2ae8:	6f6c6379 	svcvs	0x006c6379
    2aec:	6974616d 	ldmdbvs	r4!, {r0, r2, r3, r5, r6, r8, sp, lr}^
    2af0:	6f632d63 	svcvs	0x00632d63
    2af4:	656c706d 	strbvs	r7, [ip, #-109]!	; 0xffffff93
    2af8:	79746978 	ldmdbvc	r4!, {r3, r4, r5, r6, r8, fp, sp, lr}^
    2afc:	54584500 	ldrbpl	r4, [r8], #-1280	; 0xfffffb00
    2b00:	5f333149 	svcpl	0x00333149
    2b04:	20515249 	subscs	r5, r1, r9, asr #4
    2b08:	5f003034 	svcpl	0x00003034
    2b0c:	4653555f 			; <UNDEFINED> instruction: 0x4653555f
    2b10:	54434152 	strbpl	r4, [r3], #-338	; 0xfffffeae
    2b14:	4942495f 	stmdbmi	r2, {r0, r1, r2, r3, r4, r6, r8, fp, lr}^
    2b18:	205f5f54 	subscs	r5, pc, r4, asr pc	; <UNPREDICTABLE>
    2b1c:	5f5f0030 	svcpl	0x005f0030
    2b20:	33544e49 	cmpcc	r4, #1168	; 0x490
    2b24:	28435f32 	stmdacs	r3, {r1, r4, r5, r8, r9, sl, fp, ip, lr}^
    2b28:	63202963 			; <UNDEFINED> instruction: 0x63202963
    2b2c:	20232320 	eorcs	r2, r3, r0, lsr #6
    2b30:	5f5f004c 	svcpl	0x005f004c
    2b34:	746e6975 	strbtvc	r6, [lr], #-2421	; 0xfffff68b
    2b38:	745f3631 	ldrbvc	r3, [pc], #-1585	; 2b40 <_Min_Stack_Size+0x2740>
    2b3c:	45525f00 	ldrbmi	r5, [r2, #-3840]	; 0xfffff100
    2b40:	5f544e45 	svcpl	0x00544e45
    2b44:	4e474953 			; <UNDEFINED> instruction: 0x4e474953
    2b48:	425f4c41 	subsmi	r4, pc, #16640	; 0x4100
    2b4c:	70284655 	eorvc	r4, r8, r5, asr r6
    2b50:	20297274 	eorcs	r7, r9, r4, ror r2
    2b54:	74702828 	ldrbtvc	r2, [r0], #-2088	; 0xfffff7d8
    2b58:	3e2d2972 			; <UNDEFINED> instruction: 0x3e2d2972
    2b5c:	6769735f 			; <UNDEFINED> instruction: 0x6769735f
    2b60:	5f6c616e 	svcpl	0x006c616e
    2b64:	29667562 	stmdbcs	r6!, {r1, r5, r6, r8, sl, ip, sp, lr}^
    2b68:	49564e00 	ldmdbmi	r6, {r9, sl, fp, lr}^
    2b6c:	43495f43 	movtmi	r5, #40771	; 0x9f43
    2b70:	20305245 	eorscs	r5, r0, r5, asr #4
    2b74:	6f76282a 	svcvs	0x0076282a
    2b78:	6974616c 	ldmdbvs	r4!, {r2, r3, r5, r6, r8, sp, lr}^
    2b7c:	7520656c 	strvc	r6, [r0, #-1388]!	; 0xfffffa94
    2b80:	33746e69 	cmncc	r4, #1680	; 0x690
    2b84:	2a745f32 	bcs	1d1a854 <_Min_Stack_Size+0x1d1a454>
    2b88:	4e282920 	vmulmi.f16	s4, s16, s1	; <UNPREDICTABLE>
    2b8c:	5f434956 	svcpl	0x00434956
    2b90:	65736142 	ldrbvs	r6, [r3, #-322]!	; 0xfffffebe
    2b94:	78302b20 	ldmdavc	r0!, {r5, r8, r9, fp, sp}
    2b98:	29303830 	ldmdbcs	r0!, {r4, r5, fp, ip, sp}
    2b9c:	555f5f00 	ldrbpl	r5, [pc, #-3840]	; 1ca4 <_Min_Stack_Size+0x18a4>
    2ba0:	41524653 	cmpmi	r2, r3, asr r6
    2ba4:	4d5f5443 	cfldrdmi	mvd5, [pc, #-268]	; 2aa0 <_Min_Stack_Size+0x26a0>
    2ba8:	5f5f4e49 	svcpl	0x005f4e49
    2bac:	302e3020 	eorcc	r3, lr, r0, lsr #32
    2bb0:	00524855 	subseq	r4, r2, r5, asr r8
    2bb4:	73755f5f 	cmnvc	r5, #380	; 0x17c
    2bb8:	5f206465 	svcpl	0x00206465
    2bbc:	7474615f 	ldrbtvc	r6, [r4], #-351	; 0xfffffea1
    2bc0:	75626972 	strbvc	r6, [r2, #-2418]!	; 0xfffff68e
    2bc4:	5f5f6574 	svcpl	0x005f6574
    2bc8:	5f5f2828 	svcpl	0x005f2828
    2bcc:	64657375 	strbtvs	r7, [r5], #-885	; 0xfffffc8b
    2bd0:	29295f5f 	stmdbcs	r9!, {r0, r1, r2, r3, r4, r6, r8, r9, sl, fp, ip, lr}
    2bd4:	675f5f00 	ldrbvs	r5, [pc, -r0, lsl #30]
    2bd8:	72656e65 	rsbvc	r6, r5, #1616	; 0x650
    2bdc:	65286369 	strvs	r6, [r8, #-873]!	; 0xfffffc97
    2be0:	2c727078 	ldclcs	0, cr7, [r2], #-480	; 0xfffffe20
    2be4:	65792c74 	ldrbvs	r2, [r9, #-3188]!	; 0xfffff38c
    2be8:	6f6e2c73 	svcvs	0x006e2c73
    2bec:	475f2029 	ldrbmi	r2, [pc, -r9, lsr #32]
    2bf0:	72656e65 	rsbvc	r6, r5, #1616	; 0x650
    2bf4:	65286369 	strvs	r6, [r8, #-873]!	; 0xfffffc97
    2bf8:	2c727078 	ldclcs	0, cr7, [r2], #-480	; 0xfffffe20
    2bfc:	203a7420 	eorscs	r7, sl, r0, lsr #8
    2c00:	2c736579 	cfldr64cs	mvdx6, [r3], #-484	; 0xfffffe1c
    2c04:	66656420 	strbtvs	r6, [r5], -r0, lsr #8
    2c08:	746c7561 	strbtvc	r7, [ip], #-1377	; 0xfffffa9f
    2c0c:	6f6e203a 	svcvs	0x006e203a
    2c10:	5f5f0029 	svcpl	0x005f0029
    2c14:	5f4d5241 	svcpl	0x004d5241
    2c18:	4e4f454e 	cdpmi	5, 4, cr4, cr15, cr14, {2}
    2c1c:	45525f00 	ldrbmi	r5, [r2, #-3840]	; 0xfffff100
    2c20:	5f544e45 	svcpl	0x00544e45
    2c24:	52454d45 	subpl	r4, r5, #4416	; 0x1140
    2c28:	434e4547 	movtmi	r4, #58695	; 0xe547
    2c2c:	74702859 	ldrbtvc	r2, [r0], #-2137	; 0xfffff7a7
    2c30:	28202972 	stmdacs	r0!, {r1, r4, r5, r6, r8, fp, sp}
    2c34:	72747028 	rsbsvc	r7, r4, #40	; 0x28
    2c38:	5f3e2d29 	svcpl	0x003e2d29
    2c3c:	72656d65 	rsbvc	r6, r5, #6464	; 0x1940
    2c40:	636e6567 	cmnvs	lr, #432013312	; 0x19c00000
    2c44:	5f002979 	svcpl	0x00002979
    2c48:	554e475f 	strbpl	r4, [lr, #-1887]	; 0xfffff8a1
    2c4c:	4b494c43 	blmi	1255d60 <_Min_Stack_Size+0x1255960>
    2c50:	54435f45 	strbpl	r5, [r3], #-3909	; 0xfffff0bb
    2c54:	535f524f 	cmppl	pc, #-268435452	; 0xf0000004
    2c58:	49544345 	ldmdbmi	r4, {r0, r2, r6, r8, r9, lr}^
    2c5c:	485f4e4f 	ldmdami	pc, {r0, r1, r2, r3, r6, r9, sl, fp, lr}^	; <UNPREDICTABLE>
    2c60:	4c444e41 	mcrrmi	14, 4, r4, r4, cr1
    2c64:	20474e49 	subcs	r4, r7, r9, asr #28
    2c68:	5f5f0031 	svcpl	0x005f0031
    2c6c:	544e4955 	strbpl	r4, [lr], #-2389	; 0xfffff6ab
    2c70:	414d5f38 	cmpmi	sp, r8, lsr pc
    2c74:	205f5f58 	subscs	r5, pc, r8, asr pc	; <UNPREDICTABLE>
    2c78:	66667830 			; <UNDEFINED> instruction: 0x66667830
    2c7c:	6c5f5f00 	mrrcvs	15, 0, r5, pc, cr0	; <UNPREDICTABLE>
    2c80:	5f6b636f 	svcpl	0x006b636f
    2c84:	75716361 	ldrbvc	r6, [r1, #-865]!	; 0xfffffc9f
    2c88:	5f657269 	svcpl	0x00657269
    2c8c:	75636572 	strbvc	r6, [r3, #-1394]!	; 0xfffffa8e
    2c90:	76697372 			; <UNDEFINED> instruction: 0x76697372
    2c94:	6f6c2865 	svcvs	0x006c2865
    2c98:	20296b63 	eorcs	r6, r9, r3, ror #22
    2c9c:	65725f5f 	ldrbvs	r5, [r2, #-3935]!	; 0xfffff0a1
    2ca0:	67726174 			; <UNDEFINED> instruction: 0x67726174
    2ca4:	6c5f7465 	cfldrdvs	mvd7, [pc], {101}	; 0x65
    2ca8:	5f6b636f 	svcpl	0x006b636f
    2cac:	75716361 	ldrbvc	r6, [r1, #-865]!	; 0xfffffc9f
    2cb0:	5f657269 	svcpl	0x00657269
    2cb4:	75636572 	strbvc	r6, [r3, #-1394]!	; 0xfffffa8e
    2cb8:	76697372 			; <UNDEFINED> instruction: 0x76697372
    2cbc:	6f6c2865 	svcvs	0x006c2865
    2cc0:	00296b63 	eoreq	r6, r9, r3, ror #22
    2cc4:	4545525f 	strbmi	r5, [r5, #-607]	; 0xfffffda1
    2cc8:	5f20544e 	svcpl	0x0020544e
    2ccc:	75706d69 	ldrbvc	r6, [r0, #-3433]!	; 0xfffff297
    2cd0:	705f6572 	subsvc	r6, pc, r2, ror r5	; <UNPREDICTABLE>
    2cd4:	5f007274 	svcpl	0x00007274
    2cd8:	7361685f 	cmnvc	r1, #6225920	; 0x5f0000
    2cdc:	6165665f 	cmnvs	r5, pc, asr r6
    2ce0:	65727574 	ldrbvs	r7, [r2, #-1396]!	; 0xfffffa8c
    2ce4:	20297828 	eorcs	r7, r9, r8, lsr #16
    2ce8:	58450030 	stmdapl	r5, {r4, r5}^
    2cec:	505f4954 	subspl	r4, pc, r4, asr r9	; <UNPREDICTABLE>
    2cf0:	6f436e69 	svcvs	0x00436e69
    2cf4:	6769666e 	strbvs	r6, [r9, -lr, ror #12]!
    2cf8:	5500745f 	strpl	r7, [r0, #-1119]	; 0xfffffba1
    2cfc:	54524153 	ldrbpl	r4, [r2], #-339	; 0xfffffead
    2d00:	28282033 	stmdacs	r8!, {r0, r1, r4, r5, sp}
    2d04:	52415355 	subpl	r5, r1, #1409286145	; 0x54000001
    2d08:	79545f54 	ldmdbvc	r4, {r2, r4, r6, r8, r9, sl, fp, ip, lr}^
    2d0c:	65646570 	strbvs	r6, [r4, #-1392]!	; 0xfffffa90
    2d10:	20745f66 	rsbscs	r5, r4, r6, ror #30
    2d14:	5355292a 	cmppl	r5, #688128	; 0xa8000
    2d18:	33545241 	cmpcc	r4, #268435460	; 0x10000004
    2d1c:	5341425f 	movtpl	r4, #4703	; 0x125f
    2d20:	5f002945 	svcpl	0x00002945
    2d24:	7078655f 	rsbsvc	r6, r8, pc, asr r5
    2d28:	6574726f 	ldrbvs	r7, [r4, #-623]!	; 0xfffffd91
    2d2c:	5f5f2064 	svcpl	0x005f2064
    2d30:	72747461 	rsbsvc	r7, r4, #1627389952	; 0x61000000
    2d34:	74756269 	ldrbtvc	r6, [r5], #-617	; 0xfffffd97
    2d38:	285f5f65 	ldmdacs	pc, {r0, r2, r5, r6, r8, r9, sl, fp, ip, lr}^	; <UNPREDICTABLE>
    2d3c:	765f5f28 	ldrbvc	r5, [pc], -r8, lsr #30
    2d40:	62697369 	rsbvs	r7, r9, #-1543503871	; 0xa4000001
    2d44:	74696c69 	strbtvc	r6, [r9], #-3177	; 0xfffff397
    2d48:	285f5f79 	ldmdacs	pc, {r0, r3, r4, r5, r6, r8, r9, sl, fp, ip, lr}^	; <UNPREDICTABLE>
    2d4c:	66656422 	strbtvs	r6, [r5], -r2, lsr #8
    2d50:	746c7561 	strbtvc	r7, [ip], #-1377	; 0xfffffa9f
    2d54:	29292922 	stmdbcs	r9!, {r1, r5, r8, fp, sp}
    2d58:	535f5f00 	cmppl	pc, #0, 30
    2d5c:	49534343 	ldmdbmi	r3, {r0, r1, r6, r8, r9, lr}^
    2d60:	29732844 	ldmdbcs	r3!, {r2, r6, fp, sp}^
    2d64:	72747320 	rsbsvc	r7, r4, #32, 6	; 0x80000000
    2d68:	20746375 	rsbscs	r6, r4, r5, ror r3
    2d6c:	61685f5f 	cmnvs	r8, pc, asr pc
    2d70:	5f006b63 	svcpl	0x00006b63
    2d74:	4c42445f 	cfstrdmi	mvd4, [r2], {95}	; 0x5f
    2d78:	5341485f 	movtpl	r4, #6239	; 0x185f
    2d7c:	4e45445f 	mcrmi	4, 2, r4, cr5, cr15, {2}
    2d80:	5f4d524f 	svcpl	0x004d524f
    2d84:	0031205f 	eorseq	r2, r1, pc, asr r0
    2d88:	6f6c5f5f 	svcvs	0x006c5f5f
    2d8c:	745f6b63 	ldrbvc	r6, [pc], #-2915	; 2d94 <_Min_Stack_Size+0x2994>
    2d90:	615f7972 	cmpvs	pc, r2, ror r9	; <UNPREDICTABLE>
    2d94:	69757163 	ldmdbvs	r5!, {r0, r1, r5, r6, r8, ip, sp, lr}^
    2d98:	725f6572 	subsvc	r6, pc, #478150656	; 0x1c800000
    2d9c:	72756365 	rsbsvc	r6, r5, #-1811939327	; 0x94000001
    2da0:	65766973 	ldrbvs	r6, [r6, #-2419]!	; 0xfffff68d
    2da4:	636f6c28 	cmnvs	pc, #40, 24	; 0x2800
    2da8:	5f20296b 	svcpl	0x0020296b
    2dac:	7465725f 	strbtvc	r7, [r5], #-607	; 0xfffffda1
    2db0:	65677261 	strbvs	r7, [r7, #-609]!	; 0xfffffd9f
    2db4:	6f6c5f74 	svcvs	0x006c5f74
    2db8:	745f6b63 	ldrbvc	r6, [pc], #-2915	; 2dc0 <_Min_Stack_Size+0x29c0>
    2dbc:	615f7972 	cmpvs	pc, r2, ror r9	; <UNPREDICTABLE>
    2dc0:	69757163 	ldmdbvs	r5!, {r0, r1, r5, r6, r8, ip, sp, lr}^
    2dc4:	725f6572 	subsvc	r6, pc, #478150656	; 0x1c800000
    2dc8:	72756365 	rsbsvc	r6, r5, #-1811939327	; 0x94000001
    2dcc:	65766973 	ldrbvs	r6, [r6, #-2419]!	; 0xfffff68d
    2dd0:	636f6c28 	cmnvs	pc, #40, 24	; 0x2800
    2dd4:	5f00296b 	svcpl	0x0000296b
    2dd8:	4c5f424d 	lfmmi	f4, 2, [pc], {77}	; 0x4d
    2ddc:	4d5f4e45 	ldclmi	14, cr4, [pc, #-276]	; 2cd0 <_Min_Stack_Size+0x28d0>
    2de0:	31205841 			; <UNDEFINED> instruction: 0x31205841
    2de4:	544e4900 	strbpl	r4, [lr], #-2304	; 0xfffff700
    2de8:	5f58414d 	svcpl	0x0058414d
    2dec:	2058414d 	subscs	r4, r8, sp, asr #2
    2df0:	495f5f28 	ldmdbmi	pc, {r3, r5, r8, r9, sl, fp, ip, lr}^	; <UNPREDICTABLE>
    2df4:	414d544e 	cmpmi	sp, lr, asr #8
    2df8:	414d5f58 	cmpmi	sp, r8, asr pc
    2dfc:	295f5f58 	ldmdbcs	pc, {r3, r4, r6, r8, r9, sl, fp, ip, lr}^	; <UNPREDICTABLE>
    2e00:	544e4900 	strbpl	r4, [lr], #-2304	; 0xfffff700
    2e04:	4d5f3233 	lfmmi	f3, 2, [pc, #-204]	; 2d40 <_Min_Stack_Size+0x2940>
    2e08:	28205841 	stmdacs	r0!, {r0, r6, fp, ip, lr}
    2e0c:	4e495f5f 	mcrmi	15, 2, r5, cr9, cr15, {2}
    2e10:	5f323354 	svcpl	0x00323354
    2e14:	5f58414d 	svcpl	0x0058414d
    2e18:	5f00295f 	svcpl	0x0000295f
    2e1c:	5f41445f 	svcpl	0x0041445f
    2e20:	54494246 	strbpl	r4, [r9], #-582	; 0xfffffdba
    2e24:	33205f5f 			; <UNDEFINED> instruction: 0x33205f5f
    2e28:	5f5f0031 	svcpl	0x005f0031
    2e2c:	5f585847 	svcpl	0x00585847
    2e30:	5f494241 	svcpl	0x00494241
    2e34:	53524556 	cmppl	r2, #360710144	; 0x15800000
    2e38:	204e4f49 	subcs	r4, lr, r9, asr #30
    2e3c:	34313031 	ldrtcc	r3, [r1], #-49	; 0xffffffcf
    2e40:	495f5f00 	ldmdbmi	pc, {r8, r9, sl, fp, ip, lr}^	; <UNPREDICTABLE>
    2e44:	4c5f544e 	cfldrdmi	mvd5, [pc], {78}	; 0x4e
    2e48:	54534145 	ldrbpl	r4, [r3], #-325	; 0xfffffebb
    2e4c:	4d5f3631 	ldclmi	6, cr3, [pc, #-196]	; 2d90 <_Min_Stack_Size+0x2990>
    2e50:	5f5f5841 	svcpl	0x005f5841
    2e54:	37783020 	ldrbcc	r3, [r8, -r0, lsr #32]!
    2e58:	00666666 	rsbeq	r6, r6, r6, ror #12
    2e5c:	4c465f5f 	mcrrmi	15, 5, r5, r6, cr15
    2e60:	45445f54 	strbmi	r5, [r4, #-3924]	; 0xfffff0ac
    2e64:	4d524f4e 	ldclmi	15, cr4, [r2, #-312]	; 0xfffffec8
    2e68:	4e494d5f 	mcrmi	13, 2, r4, cr9, cr15, {2}
    2e6c:	31205f5f 			; <UNDEFINED> instruction: 0x31205f5f
    2e70:	3130342e 	teqcc	r0, lr, lsr #8
    2e74:	34383932 	ldrtcc	r3, [r8], #-2354	; 0xfffff6ce
    2e78:	32333436 	eorscc	r3, r3, #905969664	; 0x36000000
    2e7c:	37313834 			; <UNDEFINED> instruction: 0x37313834
    2e80:	342d6531 	strtcc	r6, [sp], #-1329	; 0xfffffacf
    2e84:	5f004635 	svcpl	0x00004635
    2e88:	41454c5f 	cmpmi	r5, pc, asr ip
    2e8c:	20385453 	eorscs	r5, r8, r3, asr r4
    2e90:	22686822 	rsbcs	r6, r8, #2228224	; 0x220000
    2e94:	4e495500 	cdpmi	5, 4, cr5, cr9, cr0, {0}
    2e98:	41465f54 	cmpmi	r6, r4, asr pc
    2e9c:	36315453 			; <UNDEFINED> instruction: 0x36315453
    2ea0:	58414d5f 	stmdapl	r1, {r0, r1, r2, r3, r4, r6, r8, sl, fp, lr}^
    2ea4:	5f5f2820 	svcpl	0x005f2820
    2ea8:	544e4955 	strbpl	r4, [lr], #-2389	; 0xfffff6ab
    2eac:	5341465f 	movtpl	r4, #5727	; 0x165f
    2eb0:	5f363154 	svcpl	0x00363154
    2eb4:	5f58414d 	svcpl	0x0058414d
    2eb8:	4700295f 	smlsdmi	r0, pc, r9, r2	; <UNPREDICTABLE>
    2ebc:	5f4f4950 	svcpl	0x004f4950
    2ec0:	45444f4d 	strbmi	r4, [r4, #-3917]	; 0xfffff0b3
    2ec4:	616e415f 	cmnvs	lr, pc, asr r1
    2ec8:	20676f6c 	rsbcs	r6, r7, ip, ror #30
    2ecc:	30307830 	eorscc	r7, r0, r0, lsr r8
    2ed0:	30303030 	eorscc	r3, r0, r0, lsr r0
    2ed4:	5f003030 	svcpl	0x00003030
    2ed8:	7465725f 	strbtvc	r7, [r5], #-607	; 0xfffffda1
    2edc:	736e7275 	cmnvc	lr, #1342177287	; 0x50000007
    2ee0:	6977745f 	ldmdbvs	r7!, {r0, r1, r2, r3, r4, r6, sl, ip, sp, lr}^
    2ee4:	5f206563 	svcpl	0x00206563
    2ee8:	7474615f 	ldrbtvc	r6, [r4], #-351	; 0xfffffea1
    2eec:	75626972 	strbvc	r6, [r2, #-2418]!	; 0xfffff68e
    2ef0:	5f5f6574 	svcpl	0x005f6574
    2ef4:	5f5f2828 	svcpl	0x005f2828
    2ef8:	75746572 	ldrbvc	r6, [r4, #-1394]!	; 0xfffffa8e
    2efc:	5f736e72 	svcpl	0x00736e72
    2f00:	63697774 	cmnvs	r9, #116, 14	; 0x1d00000
    2f04:	295f5f65 	ldmdbcs	pc, {r0, r2, r5, r6, r8, r9, sl, fp, ip, lr}^	; <UNPREDICTABLE>
    2f08:	5f5f0029 	svcpl	0x005f0029
    2f0c:	414c4c55 	cmpmi	ip, r5, asr ip
    2f10:	4d554343 	ldclmi	3, cr4, [r5, #-268]	; 0xfffffef4
    2f14:	5350455f 	cmppl	r0, #398458880	; 0x17c00000
    2f18:	4e4f4c49 	cdpmi	12, 4, cr4, cr15, cr9, {2}
    2f1c:	30205f5f 	eorcc	r5, r0, pc, asr pc
    2f20:	2d503178 	ldfcse	f3, [r0, #-480]	; 0xfffffe20
    2f24:	4c553233 	lfmmi	f3, 2, [r5], {51}	; 0x33
    2f28:	5f004b4c 	svcpl	0x00004b4c
    2f2c:	7165725f 	cmnvc	r5, pc, asr r2
    2f30:	65726975 	ldrbvs	r6, [r2, #-2421]!	; 0xfffff68b
    2f34:	68735f73 	ldmdavs	r3!, {r0, r1, r4, r5, r6, r8, r9, sl, fp, ip, lr}^
    2f38:	64657261 	strbtvs	r7, [r5], #-609	; 0xfffffd9f
    2f3c:	2e2e2e28 	cdpcs	14, 2, cr2, cr14, cr8, {1}
    2f40:	5f5f2029 	svcpl	0x005f2029
    2f44:	6b636f6c 	blvs	18decfc <_Min_Stack_Size+0x18de8fc>
    2f48:	6e6e615f 	mcrvs	1, 3, r6, cr14, cr15, {2}
    2f4c:	7461746f 	strbtvc	r7, [r1], #-1135	; 0xfffffb91
    2f50:	68732865 	ldmdavs	r3!, {r0, r2, r5, r6, fp, sp}^
    2f54:	64657261 	strbtvs	r7, [r5], #-609	; 0xfffffd9f
    2f58:	636f6c5f 	cmnvs	pc, #24320	; 0x5f00
    2f5c:	725f736b 	subsvc	r7, pc, #-1409286143	; 0xac000001
    2f60:	69757165 	ldmdbvs	r5!, {r0, r2, r5, r6, r8, ip, sp, lr}^
    2f64:	28646572 	stmdacs	r4!, {r1, r4, r5, r6, r8, sl, sp, lr}^
    2f68:	41565f5f 	cmpmi	r6, pc, asr pc
    2f6c:	4752415f 			; <UNDEFINED> instruction: 0x4752415f
    2f70:	295f5f53 	ldmdbcs	pc, {r0, r1, r4, r6, r8, r9, sl, fp, ip, lr}^	; <UNPREDICTABLE>
    2f74:	455f0029 	ldrbmi	r0, [pc, #-41]	; 2f53 <_Min_Stack_Size+0x2b53>
    2f78:	535f444e 	cmppl	pc, #1308622848	; 0x4e000000
    2f7c:	435f4454 	cmpmi	pc, #84, 8	; 0x54000000
    2f80:	545f0020 	ldrbpl	r0, [pc], #-32	; 2f88 <_Min_Stack_Size+0x2b88>
    2f84:	5a49535f 	bpl	1257d08 <_Min_Stack_Size+0x1257908>
    2f88:	4e002045 	cdpmi	0, 0, cr2, cr0, cr5, {2}
    2f8c:	5f434956 	svcpl	0x00434956
    2f90:	52415355 	subpl	r5, r1, #1409286145	; 0x54000001
    2f94:	495f3354 	ldmdbmi	pc, {r2, r4, r6, r8, r9, ip, sp}^	; <UNPREDICTABLE>
    2f98:	455f5152 	ldrbmi	r5, [pc, #-338]	; 2e4e <_Min_Stack_Size+0x2a4e>
    2f9c:	6c62616e 	stfvse	f6, [r2], #-440	; 0xfffffe48
    2fa0:	4e282065 	cdpmi	0, 2, cr2, cr8, cr5, {3}
    2fa4:	5f434956 	svcpl	0x00434956
    2fa8:	52455349 	subpl	r5, r5, #603979777	; 0x24000001
    2fac:	3d7c2031 	ldclcc	0, cr2, [ip, #-196]!	; 0xffffff3c
    2fb0:	3c3c3120 	ldfccs	f3, [ip], #-128	; 0xffffff80
    2fb4:	41535528 	cmpmi	r3, r8, lsr #10
    2fb8:	5f335452 	svcpl	0x00335452
    2fbc:	20515249 	subscs	r5, r1, r9, asr #4
    2fc0:	3233202d 	eorscc	r2, r3, #45	; 0x2d
    2fc4:	55002929 	strpl	r2, [r0, #-2345]	; 0xfffff6d7
    2fc8:	5f544e49 	svcpl	0x00544e49
    2fcc:	5341454c 	movtpl	r4, #5452	; 0x154c
    2fd0:	5f363154 	svcpl	0x00363154
    2fd4:	2058414d 	subscs	r4, r8, sp, asr #2
    2fd8:	555f5f28 	ldrbpl	r5, [pc, #-3880]	; 20b8 <_Min_Stack_Size+0x1cb8>
    2fdc:	5f544e49 	svcpl	0x00544e49
    2fe0:	5341454c 	movtpl	r4, #5452	; 0x154c
    2fe4:	5f363154 	svcpl	0x00363154
    2fe8:	5f58414d 	svcpl	0x0058414d
    2fec:	5f00295f 	svcpl	0x0000295f
    2ff0:	4e49555f 	mcrmi	5, 2, r5, cr9, cr15, {2}
    2ff4:	5f323354 	svcpl	0x00323354
    2ff8:	29632843 	stmdbcs	r3!, {r0, r1, r6, fp, sp}^
    2ffc:	23206320 			; <UNDEFINED> instruction: 0x23206320
    3000:	4c552023 	mrrcmi	0, 2, r2, r5, cr3
    3004:	555f5f00 	ldrbpl	r5, [pc, #-3840]	; 210c <_Min_Stack_Size+0x1d0c>
    3008:	55434341 	strbpl	r4, [r3, #-833]	; 0xfffffcbf
    300c:	494d5f4d 	stmdbmi	sp, {r0, r2, r3, r6, r8, r9, sl, fp, ip, lr}^
    3010:	205f5f4e 	subscs	r5, pc, lr, asr #30
    3014:	55302e30 	ldrpl	r2, [r0, #-3632]!	; 0xfffff1d0
    3018:	525f004b 	subspl	r0, pc, #75	; 0x4b
    301c:	544e4545 	strbpl	r4, [lr], #-1349	; 0xfffffabb
    3020:	54424d5f 	strbpl	r4, [r2], #-3423	; 0xfffff2a1
    3024:	5f43574f 	svcpl	0x0043574f
    3028:	54415453 	strbpl	r5, [r1], #-1107	; 0xfffffbad
    302c:	74702845 	ldrbtvc	r2, [r0], #-2117	; 0xfffff7bb
    3030:	28202972 	stmdacs	r0!, {r1, r4, r5, r6, r8, fp, sp}
    3034:	72747028 	rsbsvc	r7, r4, #40	; 0x28
    3038:	5f3e2d29 	svcpl	0x003e2d29
    303c:	6373696d 	cmnvs	r3, #1785856	; 0x1b4000
    3040:	6d5f3e2d 	ldclvs	14, cr3, [pc, #-180]	; 2f94 <_Min_Stack_Size+0x2b94>
    3044:	776f7462 	strbvc	r7, [pc, -r2, ror #8]!
    3048:	74735f63 	ldrbtvc	r5, [r3], #-3939	; 0xfffff09d
    304c:	29657461 	stmdbcs	r5!, {r0, r5, r6, sl, ip, sp, lr}^
    3050:	754e5f00 	strbvc	r5, [lr, #-3840]	; 0xfffff100
    3054:	755f6c6c 	ldrbvc	r6, [pc, #-3180]	; 23f0 <_Min_Stack_Size+0x1ff0>
    3058:	6570736e 	ldrbvs	r7, [r0, #-878]!	; 0xfffffc92
    305c:	69666963 	stmdbvs	r6!, {r0, r1, r5, r6, r8, fp, sp, lr}^
    3060:	00206465 	eoreq	r6, r0, r5, ror #8
    3064:	4c465f5f 	mcrrmi	15, 5, r5, r6, cr15
    3068:	50455f54 	subpl	r5, r5, r4, asr pc
    306c:	4f4c4953 	svcmi	0x004c4953
    3070:	205f5f4e 	subscs	r5, pc, lr, asr #30
    3074:	39312e31 	ldmdbcc	r1!, {r0, r4, r5, r9, sl, fp, sp}
    3078:	32393032 	eorscc	r3, r9, #50	; 0x32
    307c:	35353938 	ldrcc	r3, [r5, #-2360]!	; 0xfffff6c8
    3080:	31383730 	teqcc	r8, r0, lsr r7
    3084:	2d653532 	cfstr64cs	mvdx3, [r5, #-200]!	; 0xffffff38
    3088:	5f004637 	svcpl	0x00004637
    308c:	5453585f 	ldrbpl	r5, [r3], #-2143	; 0xfffff7a1
    3090:	474e4952 	smlsldmi	r4, lr, r2, r9
    3094:	20297828 	eorcs	r7, r9, r8, lsr #16
    3098:	54535f5f 	ldrbpl	r5, [r3], #-3935	; 0xfffff0a1
    309c:	474e4952 	smlsldmi	r4, lr, r2, r9
    30a0:	00297828 	eoreq	r7, r9, r8, lsr #16
    30a4:	74615f5f 	strbtvc	r5, [r1], #-3935	; 0xfffff0a1
    30a8:	62697274 	rsbvs	r7, r9, #116, 4	; 0x40000007
    30ac:	5f657475 	svcpl	0x00657475
    30b0:	65727570 	ldrbvs	r7, [r2, #-1392]!	; 0xfffffa90
    30b4:	00205f5f 	eoreq	r5, r0, pc, asr pc
    30b8:	43475f5f 	movtmi	r5, #32607	; 0x7f5f
    30bc:	54415f43 	strbpl	r5, [r1], #-3907	; 0xfffff0bd
    30c0:	43494d4f 	movtmi	r4, #40271	; 0x9d4f
    30c4:	4f48535f 	svcmi	0x0048535f
    30c8:	4c5f5452 	cfldrdmi	mvd5, [pc], {82}	; 0x52
    30cc:	5f4b434f 	svcpl	0x004b434f
    30d0:	45455246 	strbmi	r5, [r5, #-582]	; 0xfffffdba
    30d4:	53003220 	movwpl	r3, #544	; 0x220
    30d8:	20314950 	eorscs	r4, r1, r0, asr r9
    30dc:	50532828 	subspl	r2, r3, r8, lsr #16
    30e0:	79545f49 	ldmdbvc	r4, {r0, r3, r6, r8, r9, sl, fp, ip, lr}^
    30e4:	65646570 	strbvs	r6, [r4, #-1392]!	; 0xfffffa90
    30e8:	20745f66 	rsbscs	r5, r4, r6, ror #30
    30ec:	5053292a 	subspl	r2, r3, sl, lsr #18
    30f0:	425f3149 	subsmi	r3, pc, #1073741842	; 0x40000012
    30f4:	29455341 	stmdbcs	r5, {r0, r6, r8, r9, ip, lr}^
    30f8:	415f5f00 	cmpmi	pc, r0, lsl #30
    30fc:	415f4d52 	cmpmi	pc, r2, asr sp	; <UNPREDICTABLE>
    3100:	5f484352 	svcpl	0x00484352
    3104:	5f415349 	svcpl	0x00415349
    3108:	4d554854 	ldclmi	8, cr4, [r5, #-336]	; 0xfffffeb0
    310c:	58450042 	stmdapl	r5, {r1, r6}^
    3110:	28204954 	stmdacs	r0!, {r2, r4, r6, r8, fp, lr}
    3114:	54584528 	ldrbpl	r4, [r8], #-1320	; 0xfffffad8
    3118:	79545f49 	ldmdbvc	r4, {r0, r3, r6, r8, r9, sl, fp, ip, lr}^
    311c:	65646570 	strbvs	r6, [r4, #-1392]!	; 0xfffffa90
    3120:	20745f66 	rsbscs	r5, r4, r6, ror #30
    3124:	5845292a 	stmdapl	r5, {r1, r3, r5, r8, fp, sp}^
    3128:	425f4954 	subsmi	r4, pc, #84, 18	; 0x150000
    312c:	29455341 	stmdbcs	r5, {r0, r6, r8, r9, ip, lr}^
    3130:	51524900 	cmppl	r2, r0, lsl #18
    3134:	616c465f 	cmnvs	ip, pc, asr r6
    3138:	5f5f0067 	svcpl	0x005f0067
    313c:	43554e47 	cmpmi	r5, #1136	; 0x470
    3140:	454b494c 	strbmi	r4, [fp, #-2380]	; 0xfffff6b4
    3144:	4955425f 	ldmdbmi	r5, {r0, r1, r2, r3, r4, r6, r9, lr}^
    3148:	4e49544c 	cdpmi	4, 4, cr5, cr9, cr12, {2}
    314c:	5241565f 	subpl	r5, r1, #99614720	; 0x5f00000
    3150:	53475241 	movtpl	r5, #29249	; 0x7241
    3154:	54003120 	strpl	r3, [r0], #-288	; 0xfffffee0
    3158:	5f334d49 	svcpl	0x00334d49
    315c:	45534142 	ldrbmi	r4, [r3, #-322]	; 0xfffffebe
    3160:	34783020 	ldrbtcc	r3, [r8], #-32	; 0xffffffe0
    3164:	30303030 	eorscc	r3, r0, r0, lsr r0
    3168:	75303034 	ldrvc	r3, [r0, #-52]!	; 0xffffffcc
    316c:	565f5f00 	ldrbpl	r5, [pc], -r0, lsl #30
    3170:	465f5046 	ldrbmi	r5, [pc], -r6, asr #32
    3174:	205f5f50 	subscs	r5, pc, r0, asr pc	; <UNPREDICTABLE>
    3178:	5f5f0031 	svcpl	0x005f0031
    317c:	544e4955 	strbpl	r4, [lr], #-2389	; 0xfffff6ab
    3180:	59545f38 	ldmdbpl	r4, {r3, r4, r5, r8, r9, sl, fp, ip, lr}^
    3184:	5f5f4550 	svcpl	0x005f4550
    3188:	736e7520 	cmnvc	lr, #32, 10	; 0x8000000
    318c:	656e6769 	strbvs	r6, [lr, #-1897]!	; 0xfffff897
    3190:	68632064 	stmdavs	r3!, {r2, r5, r6, sp}^
    3194:	55007261 	strpl	r7, [r0, #-609]	; 0xfffffd9f
    3198:	34545241 	ldrbcc	r5, [r4], #-577	; 0xfffffdbf
    319c:	5341425f 	movtpl	r4, #4703	; 0x125f
    31a0:	78302045 	ldmdavc	r0!, {r0, r2, r6, sp}
    31a4:	30303034 	eorscc	r3, r0, r4, lsr r0
    31a8:	30304334 	eorscc	r4, r0, r4, lsr r3
    31ac:	4e490075 	mcrmi	0, 2, r0, cr9, cr5, {3}
    31b0:	454c5f54 	strbmi	r5, [ip, #-3924]	; 0xfffff0ac
    31b4:	33545341 	cmpcc	r4, #67108865	; 0x4000001
    31b8:	494d5f32 	stmdbmi	sp, {r1, r4, r5, r8, r9, sl, fp, ip, lr}^
    31bc:	2d28204e 	stccs	0, cr2, [r8, #-312]!	; 0xfffffec8
    31c0:	4e495f5f 	mcrmi	15, 2, r5, cr9, cr15, {2}
    31c4:	454c5f54 	strbmi	r5, [ip, #-3924]	; 0xfffff0ac
    31c8:	33545341 	cmpcc	r4, #67108865	; 0x4000001
    31cc:	414d5f32 	cmpmi	sp, r2, lsr pc
    31d0:	205f5f58 	subscs	r5, pc, r8, asr pc	; <UNPREDICTABLE>
    31d4:	2931202d 	ldmdbcs	r1!, {r0, r2, r3, r5, sp}
    31d8:	2f2e2e00 	svccs	0x002e2e00
    31dc:	2f637253 	svccs	0x00637253
    31e0:	6e69616d 	powvsez	f6, f1, #5.0
    31e4:	5500632e 	strpl	r6, [r0, #-814]	; 0xfffffcd2
    31e8:	33544e49 	cmpcc	r4, #1168	; 0x490
    31ec:	414d5f32 	cmpmi	sp, r2, lsr pc
    31f0:	5f282058 	svcpl	0x00282058
    31f4:	4e49555f 	mcrmi	5, 2, r5, cr9, cr15, {2}
    31f8:	5f323354 	svcpl	0x00323354
    31fc:	5f58414d 	svcpl	0x0058414d
    3200:	4500295f 	strmi	r2, [r0, #-2399]	; 0xfffff6a1
    3204:	31495458 	cmpcc	r9, r8, asr r4
    3208:	31445035 	cmpcc	r4, r5, lsr r0
    320c:	45282035 	strmi	r2, [r8, #-53]!	; 0xffffffcb
    3210:	5f495458 	svcpl	0x00495458
    3214:	4f495047 	svcmi	0x00495047
    3218:	70614d5f 	rsbvc	r4, r1, pc, asr sp
    321c:	676e6970 			; <UNDEFINED> instruction: 0x676e6970
    3220:	7b29745f 	blvc	a603a4 <_Min_Stack_Size+0xa5ffa4>
    3224:	49545845 	ldmdbmi	r4, {r0, r2, r6, fp, ip, lr}^
    3228:	202c3531 	eorcs	r3, ip, r1, lsr r5
    322c:	4f495047 	svcmi	0x00495047
    3230:	47202c44 	strmi	r2, [r0, -r4, asr #24]!
    3234:	5f4f4950 	svcpl	0x004f4950
    3238:	5f4e4950 	svcpl	0x004e4950
    323c:	202c3531 	eorcs	r3, ip, r1, lsr r5
    3240:	49545845 	ldmdbmi	r4, {r0, r2, r6, fp, ip, lr}^
    3244:	495f3531 	ldmdbmi	pc, {r0, r4, r5, r8, sl, ip, sp}^	; <UNPREDICTABLE>
    3248:	007d5152 	rsbseq	r5, sp, r2, asr r1
    324c:	53555f5f 	cmppl	r5, #380	; 0x17c
    3250:	55434341 	strbpl	r4, [r3, #-833]	; 0xfffffcbf
    3254:	42465f4d 	submi	r5, r6, #308	; 0x134
    3258:	5f5f5449 	svcpl	0x005f5449
    325c:	53003820 	movwpl	r3, #2080	; 0x820
    3260:	5f4d4152 	svcpl	0x004d4152
    3264:	45534142 	ldrbmi	r4, [r3, #-322]	; 0xfffffebe
    3268:	32783020 	rsbscc	r3, r8, #32
    326c:	30303030 	eorscc	r3, r0, r0, lsr r0
    3270:	75303030 	ldrvc	r3, [r0, #-48]!	; 0xffffffd0
    3274:	475f5f00 	ldrbmi	r5, [pc, -r0, lsl #30]
    3278:	415f4343 	cmpmi	pc, r3, asr #6
    327c:	494d4f54 	stmdbmi	sp, {r2, r4, r6, r8, r9, sl, fp, lr}^
    3280:	45545f43 	ldrbmi	r5, [r4, #-3907]	; 0xfffff0bd
    3284:	415f5453 	cmpmi	pc, r3, asr r4	; <UNPREDICTABLE>
    3288:	535f444e 	cmppl	pc, #1308622848	; 0x4e000000
    328c:	545f5445 	ldrbpl	r5, [pc], #-1093	; 3294 <_Min_Stack_Size+0x2e94>
    3290:	56455552 			; <UNDEFINED> instruction: 0x56455552
    3294:	31204c41 			; <UNDEFINED> instruction: 0x31204c41
    3298:	455f5f00 	ldrbmi	r5, [pc, #-3840]	; 23a0 <_Min_Stack_Size+0x1fa0>
    329c:	5f5f464c 	svcpl	0x005f464c
    32a0:	42003120 	andmi	r3, r0, #32, 2
    32a4:	00524344 	subseq	r4, r2, r4, asr #6
    32a8:	4f495047 	svcmi	0x00495047
    32ac:	4e49505f 	mcrmi	0, 2, r5, cr9, cr15, {2}
    32b0:	5345525f 	movtpl	r5, #21087	; 0x525f
    32b4:	30205445 	eorcc	r5, r0, r5, asr #8
    32b8:	465f5f00 	ldrbmi	r5, [pc], -r0, lsl #30
    32bc:	3233544c 	eorscc	r5, r3, #76, 8	; 0x4c000000
    32c0:	5341485f 	movtpl	r4, #6239	; 0x185f
    32c4:	4955515f 	ldmdbmi	r5, {r0, r1, r2, r3, r4, r6, r8, ip, lr}^
    32c8:	4e5f5445 	cdpmi	4, 5, cr5, cr15, cr5, {2}
    32cc:	5f5f4e41 	svcpl	0x005f4e41
    32d0:	5f003120 	svcpl	0x00003120
    32d4:	4d52415f 	ldfmie	f4, [r2, #-380]	; 0xfffffe84
    32d8:	4145465f 	cmpmi	r5, pc, asr r6
    32dc:	45525554 	ldrbmi	r5, [r2, #-1364]	; 0xfffffaac
    32e0:	54414d5f 	strbpl	r4, [r1], #-3423	; 0xfffff2a1
    32e4:	5f4c554d 	svcpl	0x004c554d
    32e8:	38544e49 	ldmdacc	r4, {r0, r3, r6, r9, sl, fp, lr}^
    32ec:	4f5f5f00 	svcmi	0x005f5f00
    32f0:	4c4f5342 	mcrrmi	3, 4, r5, pc, cr2
    32f4:	5f455445 	svcpl	0x00455445
    32f8:	4854414d 	ldmdami	r4, {r0, r2, r3, r6, r8, lr}^
    32fc:	4f5f5f20 	svcmi	0x005f5f20
    3300:	4c4f5342 	mcrrmi	3, 4, r5, pc, cr2
    3304:	5f455445 	svcpl	0x00455445
    3308:	4854414d 	ldmdami	r4, {r0, r2, r3, r6, r8, lr}^
    330c:	4645445f 			; <UNDEFINED> instruction: 0x4645445f
    3310:	544c5541 	strbpl	r5, [ip], #-1345	; 0xfffffabf
    3314:	4c5f5f00 	mrrcmi	15, 0, r5, pc, cr0	; <UNPREDICTABLE>
    3318:	5f4c4244 	svcpl	0x004c4244
    331c:	5f534148 	svcpl	0x00534148
    3320:	49464e49 	stmdbmi	r6, {r0, r3, r6, r9, sl, fp, lr}^
    3324:	5954494e 	ldmdbpl	r4, {r1, r2, r3, r6, r8, fp, lr}^
    3328:	31205f5f 			; <UNDEFINED> instruction: 0x31205f5f
    332c:	54584500 	ldrbpl	r4, [r8], #-1280	; 0xfffffb00
    3330:	43503249 	cmpmi	r0, #-1879048188	; 0x90000004
    3334:	45282032 	strmi	r2, [r8, #-50]!	; 0xffffffce
    3338:	5f495458 	svcpl	0x00495458
    333c:	4f495047 	svcmi	0x00495047
    3340:	70614d5f 	rsbvc	r4, r1, pc, asr sp
    3344:	676e6970 			; <UNDEFINED> instruction: 0x676e6970
    3348:	7b29745f 	blvc	a604cc <_Min_Stack_Size+0xa600cc>
    334c:	49545845 	ldmdbmi	r4, {r0, r2, r6, fp, ip, lr}^
    3350:	47202c32 			; <UNDEFINED> instruction: 0x47202c32
    3354:	434f4950 	movtmi	r4, #63824	; 0xf950
    3358:	5047202c 	subpl	r2, r7, ip, lsr #32
    335c:	505f4f49 	subspl	r4, pc, r9, asr #30
    3360:	325f4e49 	subscc	r4, pc, #1168	; 0x490
    3364:	5845202c 	stmdapl	r5, {r2, r3, r5, sp}^
    3368:	5f324954 	svcpl	0x00324954
    336c:	7d515249 	lfmvc	f5, 2, [r1, #-292]	; 0xfffffedc
    3370:	4e495500 	cdpmi	5, 4, cr5, cr9, cr0, {0}
    3374:	41465f54 	cmpmi	r6, r4, asr pc
    3378:	34365453 	ldrtcc	r5, [r6], #-1107	; 0xfffffbad
    337c:	58414d5f 	stmdapl	r1, {r0, r1, r2, r3, r4, r6, r8, sl, fp, lr}^
    3380:	5f5f2820 	svcpl	0x005f2820
    3384:	544e4955 	strbpl	r4, [lr], #-2389	; 0xfffff6ab
    3388:	5341465f 	movtpl	r4, #5727	; 0x165f
    338c:	5f343654 	svcpl	0x00343654
    3390:	5f58414d 	svcpl	0x0058414d
    3394:	5f00295f 	svcpl	0x0000295f
    3398:	5f41545f 	svcpl	0x0041545f
    339c:	54494246 	strbpl	r4, [r9], #-582	; 0xfffffdba
    33a0:	36205f5f 	qsaxcc	r5, r0, pc	; <UNPREDICTABLE>
    33a4:	58450033 	stmdapl	r5, {r0, r1, r4, r5}^
    33a8:	20304954 	eorscs	r4, r0, r4, asr r9
    33ac:	50470030 	subpl	r0, r7, r0, lsr r0
    33b0:	505f4f49 	subspl	r4, pc, r9, asr #30
    33b4:	315f4e49 	cmpcc	pc, r9, asr #28
    33b8:	28282033 	stmdacs	r8!, {r0, r1, r4, r5, sp}
    33bc:	746e6975 	strbtvc	r6, [lr], #-2421	; 0xfffff68b
    33c0:	745f3631 	ldrbvc	r3, [pc], #-1585	; 33c8 <_Min_Stack_Size+0x2fc8>
    33c4:	78302029 	ldmdavc	r0!, {r0, r3, r5, sp}
    33c8:	30303032 	eorscc	r3, r0, r2, lsr r0
    33cc:	58450029 	stmdapl	r5, {r0, r3, r5}^
    33d0:	5f334954 	svcpl	0x00334954
    33d4:	20515249 	subscs	r5, r1, r9, asr #4
    33d8:	49540039 	ldmdbmi	r4, {r0, r3, r4, r5}^
    33dc:	5f31314d 	svcpl	0x0031314d
    33e0:	45534142 	ldrbmi	r4, [r3, #-322]	; 0xfffffebe
    33e4:	34783020 	ldrbtcc	r3, [r8], #-32	; 0xffffffe0
    33e8:	35313030 	ldrcc	r3, [r1, #-48]!	; 0xffffffd0
    33ec:	75303034 	ldrvc	r3, [r0, #-52]!	; 0xffffffcc
    33f0:	465f5f00 	ldrbmi	r5, [pc], -r0, lsl #30
    33f4:	3233544c 	eorscc	r5, r3, #76, 8	; 0x4c000000
    33f8:	414d5f58 	cmpmi	sp, r8, asr pc
    33fc:	30315f58 	eorscc	r5, r1, r8, asr pc
    3400:	5058455f 	subspl	r4, r8, pc, asr r5
    3404:	33205f5f 			; <UNDEFINED> instruction: 0x33205f5f
    3408:	5f003830 	svcpl	0x00003830
    340c:	4d52415f 	ldfmie	f4, [r2, #-380]	; 0xfffffe84
    3410:	4352415f 	cmpmi	r2, #-1073741801	; 0xc0000017
    3414:	58455f48 	stmdapl	r5, {r3, r6, r8, r9, sl, fp, ip, lr}^
    3418:	44495f54 	strbmi	r5, [r9], #-3924	; 0xfffff0ac
    341c:	5f5f5649 	svcpl	0x005f5649
    3420:	5f003120 	svcpl	0x00003120
    3424:	4d52415f 	ldfmie	f4, [r2, #-380]	; 0xfffffe84
    3428:	5343505f 	movtpl	r5, #12383	; 0x305f
    342c:	5f003120 	svcpl	0x00003120
    3430:	7275705f 	rsbsvc	r7, r5, #95	; 0x5f
    3434:	5f5f2065 	svcpl	0x005f2065
    3438:	72747461 	rsbsvc	r7, r4, #1627389952	; 0x61000000
    343c:	74756269 	ldrbtvc	r6, [r5], #-617	; 0xfffffd97
    3440:	285f5f65 	ldmdacs	pc, {r0, r2, r5, r6, r8, r9, sl, fp, ip, lr}^	; <UNPREDICTABLE>
    3444:	705f5f28 	subsvc	r5, pc, r8, lsr #30
    3448:	5f657275 	svcpl	0x00657275
    344c:	0029295f 	eoreq	r2, r9, pc, asr r9
    3450:	49535f5f 	ldmdbmi	r3, {r0, r1, r2, r3, r4, r6, r8, r9, sl, fp, ip, lr}^
    3454:	54415f47 	strbpl	r5, [r1], #-3911	; 0xfffff0b9
    3458:	43494d4f 	movtmi	r4, #40271	; 0x9d4f
    345c:	4e494d5f 	mcrmi	13, 2, r4, cr9, cr15, {2}
    3460:	28205f5f 	stmdacs	r0!, {r0, r1, r2, r3, r4, r6, r8, r9, sl, fp, ip, lr}
    3464:	535f5f2d 	cmppl	pc, #45, 30	; 0xb4
    3468:	415f4749 	cmpmi	pc, r9, asr #14
    346c:	494d4f54 	stmdbmi	sp, {r2, r4, r6, r8, r9, sl, fp, lr}^
    3470:	414d5f43 	cmpmi	sp, r3, asr #30
    3474:	205f5f58 	subscs	r5, pc, r8, asr pc	; <UNPREDICTABLE>
    3478:	2931202d 	ldmdbcs	r1!, {r0, r2, r3, r5, sp}
    347c:	2f3a4400 	svccs	0x003a4400
    3480:	76697244 	strbtvc	r7, [r9], -r4, asr #4
    3484:	2f737265 	svccs	0x00737265
    3488:	75626544 	strbvc	r6, [r2, #-1348]!	; 0xfffffabc
    348c:	58450067 	stmdapl	r5, {r0, r1, r2, r5, r6}^
    3490:	20354954 	eorscs	r4, r5, r4, asr r9
    3494:	525f0035 	subspl	r0, pc, #53	; 0x35
    3498:	544e4545 	strbpl	r4, [lr], #-1349	; 0xfffffabb
    349c:	4548435f 	strbmi	r4, [r8, #-863]	; 0xfffffca1
    34a0:	415f4b43 	cmpmi	pc, r3, asr #22
    34a4:	49544353 	ldmdbmi	r4, {r0, r1, r4, r6, r8, r9, lr}^
    34a8:	425f454d 	subsmi	r4, pc, #322961408	; 0x13400000
    34ac:	76284655 			; <UNDEFINED> instruction: 0x76284655
    34b0:	20297261 	eorcs	r7, r9, r1, ror #4
    34b4:	4545525f 	strbmi	r5, [r5, #-607]	; 0xfffffda1
    34b8:	435f544e 	cmpmi	pc, #1308622848	; 0x4e000000
    34bc:	4b434548 	blmi	10d49e4 <_Min_Stack_Size+0x10d45e4>
    34c0:	72617628 	rsbvc	r7, r1, #40, 12	; 0x2800000
    34c4:	615f202c 	cmpvs	pc, ip, lsr #32
    34c8:	69746373 	ldmdbvs	r4!, {r0, r1, r4, r5, r6, r8, r9, sp, lr}^
    34cc:	625f656d 	subsvs	r6, pc, #457179136	; 0x1b400000
    34d0:	202c6675 	eorcs	r6, ip, r5, ror r6
    34d4:	72616863 	rsbvc	r6, r1, #6488064	; 0x630000
    34d8:	202c2a20 	eorcs	r2, ip, r0, lsr #20
    34dc:	4545525f 	strbmi	r5, [r5, #-607]	; 0xfffffda1
    34e0:	415f544e 	cmpmi	pc, lr, asr #8
    34e4:	49544353 	ldmdbmi	r4, {r0, r1, r4, r6, r8, r9, lr}^
    34e8:	535f454d 	cmppl	pc, #322961408	; 0x13400000
    34ec:	2c455a49 	mcrrcs	10, 4, r5, r5, cr9
    34f0:	6d656d20 	stclvs	13, cr6, [r5, #-128]!	; 0xffffff80
    34f4:	28746573 	ldmdacs	r4!, {r0, r1, r4, r5, r6, r8, sl, sp, lr}^
    34f8:	72617628 	rsbvc	r7, r1, #40, 12	; 0x2800000
    34fc:	5f3e2d29 	svcpl	0x003e2d29
    3500:	74637361 	strbtvc	r7, [r3], #-865	; 0xfffffc9f
    3504:	5f656d69 	svcpl	0x00656d69
    3508:	2c667562 	cfstr64cs	mvdx7, [r6], #-392	; 0xfffffe78
    350c:	202c3020 	eorcs	r3, ip, r0, lsr #32
    3510:	4545525f 	strbmi	r5, [r5, #-607]	; 0xfffffda1
    3514:	415f544e 	cmpmi	pc, lr, asr #8
    3518:	49544353 	ldmdbmi	r4, {r0, r1, r4, r6, r8, r9, lr}^
    351c:	535f454d 	cmppl	pc, #322961408	; 0x13400000
    3520:	29455a49 	stmdbcs	r5, {r0, r3, r6, r9, fp, ip, lr}^
    3524:	58450029 	stmdapl	r5, {r0, r3, r5}^
    3528:	50304954 	eorspl	r4, r0, r4, asr r9
    352c:	28203042 	stmdacs	r0!, {r1, r6, ip, sp}
    3530:	49545845 	ldmdbmi	r4, {r0, r2, r6, fp, ip, lr}^
    3534:	4950475f 	ldmdbmi	r0, {r0, r1, r2, r3, r4, r6, r8, r9, sl, lr}^
    3538:	614d5f4f 	cmpvs	sp, pc, asr #30
    353c:	6e697070 	mcrvs	0, 3, r7, cr9, cr0, {3}
    3540:	29745f67 	ldmdbcs	r4!, {r0, r1, r2, r5, r6, r8, r9, sl, fp, ip, lr}^
    3544:	5458457b 	ldrbpl	r4, [r8], #-1403	; 0xfffffa85
    3548:	202c3049 	eorcs	r3, ip, r9, asr #32
    354c:	4f495047 	svcmi	0x00495047
    3550:	47202c42 	strmi	r2, [r0, -r2, asr #24]!
    3554:	5f4f4950 	svcpl	0x004f4950
    3558:	5f4e4950 	svcpl	0x004e4950
    355c:	45202c30 	strmi	r2, [r0, #-3120]!	; 0xfffff3d0
    3560:	30495458 	subcc	r5, r9, r8, asr r4
    3564:	5152495f 	cmppl	r2, pc, asr r9
    3568:	425f007d 	subsmi	r0, pc, #125	; 0x7d
    356c:	575f4453 			; <UNDEFINED> instruction: 0x575f4453
    3570:	52414843 	subpl	r4, r1, #4390912	; 0x430000
    3574:	205f545f 	subscs	r5, pc, pc, asr r4	; <UNPREDICTABLE>
    3578:	53595300 	cmppl	r9, #0, 6
    357c:	5f4d4554 	svcpl	0x004d4554
    3580:	4f4d454d 	svcmi	0x004d454d
    3584:	425f5952 	subsmi	r5, pc, #1343488	; 0x148000
    3588:	20455341 	subcs	r5, r5, r1, asr #6
    358c:	46317830 			; <UNDEFINED> instruction: 0x46317830
    3590:	30464646 	subcc	r4, r6, r6, asr #12
    3594:	00753030 	rsbseq	r3, r5, r0, lsr r0
    3598:	6f6e5f5f 	svcvs	0x006e5f5f
    359c:	696e6173 	stmdbvs	lr!, {r0, r1, r4, r5, r6, r8, sp, lr}^
    35a0:	657a6974 	ldrbvs	r6, [sl, #-2420]!	; 0xfffff68c
    35a4:	72646461 	rsbvc	r6, r4, #1627389952	; 0x61000000
    35a8:	20737365 	rsbscs	r7, r3, r5, ror #6
    35ac:	45525f00 	ldrbmi	r5, [r2, #-3840]	; 0xfffff100
    35b0:	5f544e45 	svcpl	0x00544e45
    35b4:	505f504d 	subspl	r5, pc, sp, asr #32
    35b8:	70285335 	eorvc	r5, r8, r5, lsr r3
    35bc:	20297274 	eorcs	r7, r9, r4, ror r2
    35c0:	74702828 	ldrbtvc	r2, [r0], #-2088	; 0xfffff7d8
    35c4:	3e2d2972 			; <UNDEFINED> instruction: 0x3e2d2972
    35c8:	2d706d5f 	ldclcs	13, cr6, [r0, #-380]!	; 0xfffffe84
    35cc:	35705f3e 	ldrbcc	r5, [r0, #-3902]!	; 0xfffff0c2
    35d0:	53002973 	movwpl	r2, #2419	; 0x973
    35d4:	415f4749 	cmpmi	pc, r9, asr #14
    35d8:	494d4f54 	stmdbmi	sp, {r2, r4, r6, r8, r9, sl, fp, lr}^
    35dc:	494d5f43 	stmdbmi	sp, {r0, r1, r6, r8, r9, sl, fp, ip, lr}^
    35e0:	2d28204e 	stccs	0, cr2, [r8, #-312]!	; 0xfffffec8
    35e4:	54535f5f 	ldrbpl	r5, [r3], #-3935	; 0xfffff0a1
    35e8:	544e4944 	strbpl	r4, [lr], #-2372	; 0xfffff6bc
    35ec:	5058455f 	subspl	r4, r8, pc, asr r5
    35f0:	544e4928 	strbpl	r4, [lr], #-2344	; 0xfffff6d8
    35f4:	58414d5f 	stmdapl	r1, {r0, r1, r2, r3, r4, r6, r8, sl, fp, lr}^
    35f8:	202d2029 	eorcs	r2, sp, r9, lsr #32
    35fc:	55002931 	strpl	r2, [r0, #-2353]	; 0xfffff6cf
    3600:	31544e49 	cmpcc	r4, r9, asr #28
    3604:	28435f36 	stmdacs	r3, {r1, r2, r4, r5, r8, r9, sl, fp, ip, lr}^
    3608:	5f202978 	svcpl	0x00202978
    360c:	4e49555f 	mcrmi	5, 2, r5, cr9, cr15, {2}
    3610:	5f363154 	svcpl	0x00363154
    3614:	29782843 	ldmdbcs	r8!, {r0, r1, r6, fp, sp}^
    3618:	4e495f00 	cdpmi	15, 4, cr5, cr9, cr0, {0}
    361c:	5f363154 	svcpl	0x00363154
    3620:	45445f54 	strbmi	r5, [r4, #-3924]	; 0xfffff0ac
    3624:	52414c43 	subpl	r4, r1, #17152	; 0x4300
    3628:	00204445 	eoreq	r4, r0, r5, asr #8
    362c:	49545845 	ldmdbmi	r4, {r0, r2, r6, fp, ip, lr}^
    3630:	39415039 	stmdbcc	r1, {r0, r3, r4, r5, ip, lr}^
    3634:	58452820 	stmdapl	r5, {r5, fp, sp}^
    3638:	475f4954 			; <UNDEFINED> instruction: 0x475f4954
    363c:	5f4f4950 	svcpl	0x004f4950
    3640:	7070614d 	rsbsvc	r6, r0, sp, asr #2
    3644:	5f676e69 	svcpl	0x00676e69
    3648:	457b2974 	ldrbmi	r2, [fp, #-2420]!	; 0xfffff68c
    364c:	39495458 	stmdbcc	r9, {r3, r4, r6, sl, ip, lr}^
    3650:	5047202c 	subpl	r2, r7, ip, lsr #32
    3654:	2c414f49 	mcrrcs	15, 4, r4, r1, cr9
    3658:	49504720 	ldmdbmi	r0, {r5, r8, r9, sl, lr}^
    365c:	49505f4f 	ldmdbmi	r0, {r0, r1, r2, r3, r6, r8, r9, sl, fp, ip, lr}^
    3660:	2c395f4e 	ldccs	15, cr5, [r9], #-312	; 0xfffffec8
    3664:	54584520 	ldrbpl	r4, [r8], #-1312	; 0xfffffae0
    3668:	495f3949 	ldmdbmi	pc, {r0, r3, r6, r8, fp, ip, sp}^	; <UNPREDICTABLE>
    366c:	007d5152 	rsbseq	r5, sp, r2, asr r1
    3670:	52415355 	subpl	r5, r1, #1409286145	; 0x54000001
    3674:	28203154 	stmdacs	r0!, {r2, r4, r6, r8, ip, sp}
    3678:	41535528 	cmpmi	r3, r8, lsr #10
    367c:	545f5452 	ldrbpl	r5, [pc], #-1106	; 3684 <_Min_Stack_Size+0x3284>
    3680:	64657079 	strbtvs	r7, [r5], #-121	; 0xffffff87
    3684:	745f6665 	ldrbvc	r6, [pc], #-1637	; 368c <_Min_Stack_Size+0x328c>
    3688:	55292a20 	strpl	r2, [r9, #-2592]!	; 0xfffff5e0
    368c:	54524153 	ldrbpl	r4, [r2], #-339	; 0xfffffead
    3690:	41425f31 	cmpmi	r2, r1, lsr pc
    3694:	00294553 	eoreq	r4, r9, r3, asr r5
    3698:	4e495f5f 	mcrmi	15, 2, r5, cr9, cr15, {2}
    369c:	454c5f54 	strbmi	r5, [ip, #-3924]	; 0xfffff0ac
    36a0:	31545341 	cmpcc	r4, r1, asr #6
    36a4:	49575f36 	ldmdbmi	r7, {r1, r2, r4, r5, r8, r9, sl, fp, ip, lr}^
    36a8:	5f485444 	svcpl	0x00485444
    36ac:	3631205f 			; <UNDEFINED> instruction: 0x3631205f
    36b0:	43435200 	movtmi	r5, #12800	; 0x3200
    36b4:	4153555f 	cmpmi	r3, pc, asr r5
    36b8:	5f315452 	svcpl	0x00315452
    36bc:	5f4b4c43 	svcpl	0x004b4c43
    36c0:	29284e45 	stmdbcs	r8!, {r0, r2, r6, r9, sl, fp, lr}
    36c4:	43522820 	cmpmi	r2, #32, 16	; 0x200000
    36c8:	413e2d43 	teqmi	lr, r3, asr #26
    36cc:	45324250 	ldrmi	r4, [r2, #-592]!	; 0xfffffdb0
    36d0:	7c20524e 	sfmvc	f5, 4, [r0], #-312	; 0xfffffec8
    36d4:	3128203d 			; <UNDEFINED> instruction: 0x3128203d
    36d8:	34313c3c 	ldrtcc	r3, [r1], #-3132	; 0xfffff3c4
    36dc:	5f002929 	svcpl	0x00002929
    36e0:	4345445f 	movtmi	r4, #21599	; 0x545f
    36e4:	4156455f 	cmpmi	r6, pc, asr r5
    36e8:	454d5f4c 	strbmi	r5, [sp, #-3916]	; 0xfffff0b4
    36ec:	444f4854 	strbmi	r4, [pc], #-2132	; 36f4 <_Min_Stack_Size+0x32f4>
    36f0:	32205f5f 	eorcc	r5, r0, #380	; 0x17c
    36f4:	415f5f00 	cmpmi	pc, r0, lsl #30
    36f8:	465f4d52 			; <UNDEFINED> instruction: 0x465f4d52
    36fc:	55544145 	ldrbpl	r4, [r4, #-325]	; 0xfffffebb
    3700:	465f4552 			; <UNDEFINED> instruction: 0x465f4552
    3704:	5f363150 	svcpl	0x00363150
    3708:	004c4d46 	subeq	r4, ip, r6, asr #26
    370c:	48555f5f 	ldmdami	r5, {r0, r1, r2, r3, r4, r6, r8, r9, sl, fp, ip, lr}^
    3710:	42495f41 	submi	r5, r9, #260	; 0x104
    3714:	5f5f5449 	svcpl	0x005f5449
    3718:	5f003820 	svcpl	0x00003820
    371c:	7365725f 	cmnvc	r5, #-268435451	; 0xf0000005
    3720:	63697274 	cmnvs	r9, #116, 4	; 0x40000007
    3724:	65722074 	ldrbvs	r2, [r2, #-116]!	; 0xffffff8c
    3728:	69727473 	ldmdbvs	r2!, {r0, r1, r4, r5, r6, sl, ip, sp, lr}^
    372c:	5f007463 	svcpl	0x00007463
    3730:	4653555f 			; <UNDEFINED> instruction: 0x4653555f
    3734:	54434152 	strbpl	r4, [r3], #-338	; 0xfffffeae
    3738:	5350455f 	cmppl	r0, #398458880	; 0x17c00000
    373c:	4e4f4c49 	cdpmi	12, 4, cr4, cr15, cr9, {2}
    3740:	30205f5f 	eorcc	r5, r0, pc, asr pc
    3744:	2d503178 	ldfcse	f3, [r0, #-480]	; 0xfffffe20
    3748:	52485538 	subpl	r5, r8, #56, 10	; 0xe000000
    374c:	4c554e00 	mrrcmi	14, 0, r4, r5, cr0
    3750:	2828204c 	stmdacs	r8!, {r2, r3, r6, sp}
    3754:	64696f76 	strbtvs	r6, [r9], #-3958	; 0xfffff08a
    3758:	30292a20 	eorcc	r2, r9, r0, lsr #20
    375c:	5f5f0029 	svcpl	0x005f0029
    3760:	65737361 	ldrbvs	r7, [r3, #-865]!	; 0xfffffc9f
    3764:	5f737472 	svcpl	0x00737472
    3768:	6c637865 	stclvs	8, cr7, [r3], #-404	; 0xfffffe6c
    376c:	76697375 			; <UNDEFINED> instruction: 0x76697375
    3770:	2e2e2865 	cdpcs	8, 2, cr2, cr14, cr5, {3}
    3774:	5f20292e 	svcpl	0x0020292e
    3778:	636f6c5f 	cmnvs	pc, #24320	; 0x5f00
    377c:	6e615f6b 	cdpvs	15, 6, cr5, cr1, cr11, {3}
    3780:	61746f6e 	cmnvs	r4, lr, ror #30
    3784:	61286574 			; <UNDEFINED> instruction: 0x61286574
    3788:	72657373 	rsbvc	r7, r5, #-872415231	; 0xcc000001
    378c:	78655f74 	stmdavc	r5!, {r2, r4, r5, r6, r8, r9, sl, fp, ip, lr}^
    3790:	73756c63 	cmnvc	r5, #25344	; 0x6300
    3794:	5f657669 	svcpl	0x00657669
    3798:	6b636f6c 	blvs	18df550 <_Min_Stack_Size+0x18df150>
    379c:	565f5f28 	ldrbpl	r5, [pc], -r8, lsr #30
    37a0:	52415f41 	subpl	r5, r1, #260	; 0x104
    37a4:	5f5f5347 	svcpl	0x005f5347
    37a8:	43002929 	movwmi	r2, #2345	; 0x929
    37ac:	00524746 	subseq	r4, r2, r6, asr #14
    37b0:	4349564e 	movtmi	r5, #38478	; 0x964e
    37b4:	4153555f 	cmpmi	r3, pc, asr r5
    37b8:	5f315452 	svcpl	0x00315452
    37bc:	5f515249 	svcpl	0x00515249
    37c0:	61736944 	cmnvs	r3, r4, asr #18
    37c4:	20656c62 	rsbcs	r6, r5, r2, ror #24
    37c8:	49564e28 	ldmdbmi	r6, {r3, r5, r9, sl, fp, lr}^
    37cc:	43495f43 	movtmi	r5, #40771	; 0x9f43
    37d0:	20315245 	eorscs	r5, r1, r5, asr #4
    37d4:	31203d7c 			; <UNDEFINED> instruction: 0x31203d7c
    37d8:	55283c3c 	strpl	r3, [r8, #-3132]!	; 0xfffff3c4
    37dc:	54524153 	ldrbpl	r4, [r2], #-339	; 0xfffffead
    37e0:	52495f31 	subpl	r5, r9, #49, 30	; 0xc4
    37e4:	202d2051 	eorcs	r2, sp, r1, asr r0
    37e8:	29293233 	stmdbcs	r9!, {r0, r1, r4, r5, r9, ip, sp}
    37ec:	5f5f5f00 	svcpl	0x005f5f00
    37f0:	5f746e69 	svcpl	0x00746e69
    37f4:	7361656c 	cmnvc	r1, #108, 10	; 0x1b000000
    37f8:	5f323374 	svcpl	0x00323374
    37fc:	65645f74 	strbvs	r5, [r4, #-3956]!	; 0xfffff08c
    3800:	656e6966 	strbvs	r6, [lr, #-2406]!	; 0xfffff69a
    3804:	00312064 	eorseq	r2, r1, r4, rrx
    3808:	4c4c5f5f 	mcrrmi	15, 5, r5, ip, cr15
    380c:	55434341 	strbpl	r4, [r3, #-833]	; 0xfffffcbf
    3810:	414d5f4d 	cmpmi	sp, sp, asr #30
    3814:	205f5f58 	subscs	r5, pc, r8, asr pc	; <UNPREDICTABLE>
    3818:	46375830 			; <UNDEFINED> instruction: 0x46375830
    381c:	46464646 	strbmi	r4, [r6], -r6, asr #12
    3820:	46464646 	strbmi	r4, [r6], -r6, asr #12
    3824:	46464646 	strbmi	r4, [r6], -r6, asr #12
    3828:	2d504646 	ldclcs	6, cr4, [r0, #-280]	; 0xfffffee8
    382c:	4c4c3133 	stfmie	f3, [ip], {51}	; 0x33
    3830:	5f5f004b 	svcpl	0x005f004b
    3834:	6465656e 	strbtvs	r6, [r5], #-1390	; 0xfffffa92
    3838:	4c554e5f 	mrrcmi	14, 5, r4, r5, cr15
    383c:	5845004c 	stmdapl	r5, {r2, r3, r6}^
    3840:	32314954 	eorscc	r4, r1, #84, 18	; 0x150000
    3844:	32314150 	eorscc	r4, r1, #80, 2
    3848:	58452820 	stmdapl	r5, {r5, fp, sp}^
    384c:	475f4954 			; <UNDEFINED> instruction: 0x475f4954
    3850:	5f4f4950 	svcpl	0x004f4950
    3854:	7070614d 	rsbsvc	r6, r0, sp, asr #2
    3858:	5f676e69 	svcpl	0x00676e69
    385c:	457b2974 	ldrbmi	r2, [fp, #-2420]!	; 0xfffff68c
    3860:	31495458 	cmpcc	r9, r8, asr r4
    3864:	47202c32 			; <UNDEFINED> instruction: 0x47202c32
    3868:	414f4950 	cmpmi	pc, r0, asr r9	; <UNPREDICTABLE>
    386c:	5047202c 	subpl	r2, r7, ip, lsr #32
    3870:	505f4f49 	subspl	r4, pc, r9, asr #30
    3874:	315f4e49 	cmpcc	pc, r9, asr #28
    3878:	45202c32 	strmi	r2, [r0, #-3122]!	; 0xfffff3ce
    387c:	31495458 	cmpcc	r9, r8, asr r4
    3880:	52495f32 	subpl	r5, r9, #50, 30	; 0xc8
    3884:	4e007d51 	mcrmi	13, 0, r7, cr0, cr1, {2}
    3888:	5f434956 	svcpl	0x00434956
    388c:	49545845 	ldmdbmi	r4, {r0, r2, r6, fp, ip, lr}^
    3890:	315f3531 	cmpcc	pc, r1, lsr r5	; <UNPREDICTABLE>
    3894:	52495f30 	subpl	r5, r9, #48, 30	; 0xc0
    3898:	6e455f51 	mcrvs	15, 2, r5, cr5, cr1, {2}
    389c:	656c6261 	strbvs	r6, [ip, #-609]!	; 0xfffffd9f
    38a0:	564e2820 	strbpl	r2, [lr], -r0, lsr #16
    38a4:	495f4349 	ldmdbmi	pc, {r0, r3, r6, r8, r9, lr}^	; <UNPREDICTABLE>
    38a8:	31524553 	cmpcc	r2, r3, asr r5
    38ac:	203d7c20 	eorscs	r7, sp, r0, lsr #24
    38b0:	383c3c31 	ldmdacc	ip!, {r0, r4, r5, sl, fp, ip, sp}
    38b4:	5f5f0029 	svcpl	0x005f0029
    38b8:	52455355 	subpl	r5, r5, #1409286145	; 0x54000001
    38bc:	42414c5f 	submi	r4, r1, #24320	; 0x5f00
    38c0:	505f4c45 	subspl	r4, pc, r5, asr #24
    38c4:	49464552 	stmdbmi	r6, {r1, r4, r6, r8, sl, lr}^
    38c8:	205f5f58 	subscs	r5, pc, r8, asr pc	; <UNPREDICTABLE>
    38cc:	555f5f00 	ldrbpl	r5, [pc, #-3840]	; 29d4 <_Min_Stack_Size+0x25d4>
    38d0:	36544e49 	ldrbcc	r4, [r4], -r9, asr #28
    38d4:	414d5f34 	cmpmi	sp, r4, lsr pc
    38d8:	205f5f58 	subscs	r5, pc, r8, asr pc	; <UNPREDICTABLE>
    38dc:	66667830 			; <UNDEFINED> instruction: 0x66667830
    38e0:	66666666 	strbtvs	r6, [r6], -r6, ror #12
    38e4:	66666666 	strbtvs	r6, [r6], -r6, ror #12
    38e8:	66666666 	strbtvs	r6, [r6], -r6, ror #12
    38ec:	4c556666 	mrrcmi	6, 6, r6, r5, cr6
    38f0:	5845004c 	stmdapl	r5, {r2, r3, r6}^
    38f4:	50344954 	eorspl	r4, r4, r4, asr r9
    38f8:	28203442 	stmdacs	r0!, {r1, r6, sl, ip, sp}
    38fc:	49545845 	ldmdbmi	r4, {r0, r2, r6, fp, ip, lr}^
    3900:	4950475f 	ldmdbmi	r0, {r0, r1, r2, r3, r4, r6, r8, r9, sl, lr}^
    3904:	614d5f4f 	cmpvs	sp, pc, asr #30
    3908:	6e697070 	mcrvs	0, 3, r7, cr9, cr0, {3}
    390c:	29745f67 	ldmdbcs	r4!, {r0, r1, r2, r5, r6, r8, r9, sl, fp, ip, lr}^
    3910:	5458457b 	ldrbpl	r4, [r8], #-1403	; 0xfffffa85
    3914:	202c3449 	eorcs	r3, ip, r9, asr #8
    3918:	4f495047 	svcmi	0x00495047
    391c:	47202c42 	strmi	r2, [r0, -r2, asr #24]!
    3920:	5f4f4950 	svcpl	0x004f4950
    3924:	5f4e4950 	svcpl	0x004e4950
    3928:	45202c34 	strmi	r2, [r0, #-3124]!	; 0xfffff3cc
    392c:	34495458 	strbcc	r5, [r9], #-1112	; 0xfffffba8
    3930:	5152495f 	cmppl	r2, pc, asr r9
    3934:	5f5f007d 	svcpl	0x005f007d
    3938:	544e4955 	strbpl	r4, [lr], #-2389	; 0xfffff6ab
    393c:	4d5f3233 	lfmmi	f3, 2, [pc, #-204]	; 3878 <_Min_Stack_Size+0x3478>
    3940:	5f5f5841 	svcpl	0x005f5841
    3944:	66783020 	ldrbtvs	r3, [r8], -r0, lsr #32
    3948:	66666666 	strbtvs	r6, [r6], -r6, ror #12
    394c:	55666666 	strbpl	r6, [r6, #-1638]!	; 0xfffff99a
    3950:	4e49004c 	cdpmi	0, 4, cr0, cr9, cr12, {2}
    3954:	5f343654 	svcpl	0x00343654
    3958:	29782843 	ldmdbcs	r8!, {r0, r1, r6, fp, sp}^
    395c:	495f5f20 	ldmdbmi	pc, {r5, r8, r9, sl, fp, ip, lr}^	; <UNPREDICTABLE>
    3960:	3436544e 	ldrtcc	r5, [r6], #-1102	; 0xfffffbb2
    3964:	7828435f 	stmdavc	r8!, {r0, r1, r2, r3, r4, r6, r8, r9, lr}
    3968:	415f0029 	cmpmi	pc, r9, lsr #32
    396c:	4c494654 	mcrrmi	6, 5, r4, r9, cr4
    3970:	4f535f45 	svcmi	0x00535f45
    3974:	45435255 	strbmi	r5, [r3, #-597]	; 0xfffffdab
    3978:	544e4900 	strbpl	r4, [lr], #-2304	; 0xfffff700
    397c:	494d5f38 	stmdbmi	sp, {r3, r4, r5, r8, r9, sl, fp, ip, lr}^
    3980:	2d28204e 	stccs	0, cr2, [r8, #-312]!	; 0xfffffec8
    3984:	4e495f5f 	mcrmi	15, 2, r5, cr9, cr15, {2}
    3988:	4d5f3854 	ldclmi	8, cr3, [pc, #-336]	; 3840 <_Min_Stack_Size+0x3440>
    398c:	5f5f5841 	svcpl	0x005f5841
    3990:	31202d20 			; <UNDEFINED> instruction: 0x31202d20
    3994:	5f5f0029 	svcpl	0x005f0029
    3998:	43445453 	movtmi	r5, #17491	; 0x4453
    399c:	5245565f 	subpl	r5, r5, #99614720	; 0x5f00000
    39a0:	4e4f4953 			; <UNDEFINED> instruction: 0x4e4f4953
    39a4:	32205f5f 	eorcc	r5, r0, #380	; 0x17c
    39a8:	31313130 	teqcc	r1, r0, lsr r1
    39ac:	5f004c32 	svcpl	0x00004c32
    39b0:	7972745f 	ldmdbvc	r2!, {r0, r1, r2, r3, r4, r6, sl, ip, sp, lr}^
    39b4:	6b636f6c 	blvs	18df76c <_Min_Stack_Size+0x18df36c>
    39b8:	68735f73 	ldmdavs	r3!, {r0, r1, r4, r5, r6, r8, r9, sl, fp, ip, lr}^
    39bc:	64657261 	strbtvs	r7, [r5], #-609	; 0xfffffd9f
    39c0:	2e2e2e28 	cdpcs	14, 2, cr2, cr14, cr8, {1}
    39c4:	5f5f2029 	svcpl	0x005f2029
    39c8:	6b636f6c 	blvs	18df780 <_Min_Stack_Size+0x18df380>
    39cc:	6e6e615f 	mcrvs	1, 3, r6, cr14, cr15, {2}
    39d0:	7461746f 	strbtvc	r7, [r1], #-1135	; 0xfffffb91
    39d4:	68732865 	ldmdavs	r3!, {r0, r2, r5, r6, fp, sp}^
    39d8:	64657261 	strbtvs	r7, [r5], #-609	; 0xfffffd9f
    39dc:	7972745f 	ldmdbvc	r2!, {r0, r1, r2, r3, r4, r6, sl, ip, sp, lr}^
    39e0:	6b636f6c 	blvs	18df798 <_Min_Stack_Size+0x18df398>
    39e4:	6e75665f 	mrcvs	6, 3, r6, cr5, cr15, {2}
    39e8:	6f697463 	svcvs	0x00697463
    39ec:	5f5f286e 	svcpl	0x005f286e
    39f0:	415f4156 	cmpmi	pc, r6, asr r1	; <UNPREDICTABLE>
    39f4:	5f534752 	svcpl	0x00534752
    39f8:	0029295f 	eoreq	r2, r9, pc, asr r9
    39fc:	4e495f5f 	mcrmi	15, 2, r5, cr9, cr15, {2}
    3a00:	454c5f54 	strbmi	r5, [ip, #-3924]	; 0xfffff0ac
    3a04:	38545341 	ldmdacc	r4, {r0, r6, r8, r9, ip, lr}^
    3a08:	58414d5f 	stmdapl	r1, {r0, r1, r2, r3, r4, r6, r8, sl, fp, lr}^
    3a0c:	30205f5f 	eorcc	r5, r0, pc, asr pc
    3a10:	00663778 	rsbeq	r3, r6, r8, ror r7
    3a14:	43475f5f 	movtmi	r5, #32607	; 0x7f5f
    3a18:	54415f43 	strbpl	r5, [r1], #-3907	; 0xfffff0bd
    3a1c:	43494d4f 	movtmi	r4, #40271	; 0x9d4f
    3a20:	494f505f 	stmdbmi	pc, {r0, r1, r2, r3, r4, r6, ip, lr}^	; <UNPREDICTABLE>
    3a24:	5245544e 	subpl	r5, r5, #1308622848	; 0x4e000000
    3a28:	434f4c5f 	movtmi	r4, #64607	; 0xfc5f
    3a2c:	52465f4b 	subpl	r5, r6, #300	; 0x12c
    3a30:	32204545 	eorcc	r4, r0, #289406976	; 0x11400000
    3a34:	415f5f00 	cmpmi	pc, r0, lsl #30
    3a38:	465f4d52 			; <UNDEFINED> instruction: 0x465f4d52
    3a3c:	55544145 	ldrbpl	r4, [r4, #-325]	; 0xfffffebb
    3a40:	515f4552 	cmppl	pc, r2, asr r5	; <UNPREDICTABLE>
    3a44:	20544942 	subscs	r4, r4, r2, asr #18
    3a48:	5f5f0031 	svcpl	0x005f0031
    3a4c:	5f4d5241 	svcpl	0x004d5241
    3a50:	54414546 	strbpl	r4, [r1], #-1350	; 0xfffffaba
    3a54:	5f455255 	svcpl	0x00455255
    3a58:	205a4c43 	subscs	r4, sl, r3, asr #24
    3a5c:	5f5f0031 	svcpl	0x005f0031
    3a60:	4d4f5441 	cfstrdmi	mvd5, [pc, #-260]	; 3964 <_Min_Stack_Size+0x3564>
    3a64:	415f4349 	cmpmi	pc, r9, asr #6
    3a68:	49555143 	ldmdbmi	r5, {r0, r1, r6, r8, ip, lr}^
    3a6c:	32204552 	eorcc	r4, r0, #343932928	; 0x14800000
    3a70:	415f5f00 	cmpmi	pc, r0, lsl #30
    3a74:	465f4d52 			; <UNDEFINED> instruction: 0x465f4d52
    3a78:	55544145 	ldrbpl	r4, [r4, #-325]	; 0xfffffebb
    3a7c:	435f4552 	cmpmi	pc, #343932928	; 0x14800000
    3a80:	4c504d4f 	mrrcmi	13, 4, r4, r0, cr15
    3a84:	5f005845 	svcpl	0x00005845
    3a88:	636f6c5f 	cmnvs	pc, #24320	; 0x5f00
    3a8c:	735f736b 	cmpvc	pc, #-1409286143	; 0xac000001
    3a90:	65726168 	ldrbvs	r6, [r2, #-360]!	; 0xfffffe98
    3a94:	2e2e2864 	cdpcs	8, 2, cr2, cr14, cr4, {3}
    3a98:	5f20292e 	svcpl	0x0020292e
    3a9c:	636f6c5f 	cmnvs	pc, #24320	; 0x5f00
    3aa0:	6e615f6b 	cdpvs	15, 6, cr5, cr1, cr11, {3}
    3aa4:	61746f6e 	cmnvs	r4, lr, ror #30
    3aa8:	73286574 			; <UNDEFINED> instruction: 0x73286574
    3aac:	65726168 	ldrbvs	r6, [r2, #-360]!	; 0xfffffe98
    3ab0:	6f6c5f64 	svcvs	0x006c5f64
    3ab4:	665f6b63 	ldrbvs	r6, [pc], -r3, ror #22
    3ab8:	74636e75 	strbtvc	r6, [r3], #-3701	; 0xfffff18b
    3abc:	286e6f69 	stmdacs	lr!, {r0, r3, r5, r6, r8, r9, sl, fp, sp, lr}^
    3ac0:	41565f5f 	cmpmi	r6, pc, asr pc
    3ac4:	4752415f 			; <UNDEFINED> instruction: 0x4752415f
    3ac8:	295f5f53 	ldmdbcs	pc, {r0, r1, r4, r6, r8, r9, sl, fp, ip, lr}^	; <UNPREDICTABLE>
    3acc:	5f5f0029 	svcpl	0x005f0029
    3ad0:	31544e49 	cmpcc	r4, r9, asr #28
    3ad4:	68222036 	stmdavs	r2!, {r1, r2, r4, r5, sp}
    3ad8:	6e750022 	cdpvs	0, 7, cr0, cr5, cr2, {1}
    3adc:	6e676973 			; <UNDEFINED> instruction: 0x6e676973
    3ae0:	73206465 			; <UNDEFINED> instruction: 0x73206465
    3ae4:	656e6769 	strbvs	r6, [lr, #-1897]!	; 0xfffff897
    3ae8:	49540064 	ldmdbmi	r4, {r2, r5, r6}^
    3aec:	5f30314d 	svcpl	0x0030314d
    3af0:	45534142 	ldrbmi	r4, [r3, #-322]	; 0xfffffebe
    3af4:	34783020 	ldrbtcc	r3, [r8], #-32	; 0xffffffe0
    3af8:	35313030 	ldrcc	r3, [r1, #-48]!	; 0xffffffd0
    3afc:	75303030 	ldrvc	r3, [r0, #-48]!	; 0xffffffd0
    3b00:	555f5f00 	ldrbpl	r5, [pc, #-3840]	; 2c08 <_Min_Stack_Size+0x2808>
    3b04:	36544e49 	ldrbcc	r4, [r4], -r9, asr #28
    3b08:	59545f34 	ldmdbpl	r4, {r2, r4, r5, r8, r9, sl, fp, ip, lr}^
    3b0c:	5f5f4550 	svcpl	0x005f4550
    3b10:	6e6f6c20 	cdpvs	12, 6, cr6, cr15, cr0, {1}
    3b14:	6f6c2067 	svcvs	0x006c2067
    3b18:	7520676e 	strvc	r6, [r0, #-1902]!	; 0xfffff892
    3b1c:	6769736e 	strbvs	r7, [r9, -lr, ror #6]!
    3b20:	2064656e 	rsbcs	r6, r4, lr, ror #10
    3b24:	00746e69 	rsbseq	r6, r4, r9, ror #28
    3b28:	544e495f 	strbpl	r4, [lr], #-2399	; 0xfffff6a1
    3b2c:	5f525450 	svcpl	0x00525450
    3b30:	495f5145 	ldmdbmi	pc, {r0, r2, r6, r8, ip, lr}^	; <UNPREDICTABLE>
    3b34:	0020544e 	eoreq	r5, r0, lr, asr #8
    3b38:	52415f5f 	subpl	r5, r1, #380	; 0x17c
    3b3c:	49535f4d 	ldmdbmi	r3, {r0, r2, r3, r6, r8, r9, sl, fp, ip, lr}^
    3b40:	464f455a 			; <UNDEFINED> instruction: 0x464f455a
    3b44:	4843575f 	stmdami	r3, {r0, r1, r2, r3, r4, r6, r8, r9, sl, ip, lr}^
    3b48:	545f5241 	ldrbpl	r5, [pc], #-577	; 3b50 <_Min_Stack_Size+0x3750>
    3b4c:	5f003420 	svcpl	0x00003420
    3b50:	544c465f 	strbpl	r4, [ip], #-1631	; 0xfffff9a1
    3b54:	5f583233 	svcpl	0x00583233
    3b58:	5f58414d 	svcpl	0x0058414d
    3b5c:	5f505845 	svcpl	0x00505845
    3b60:	3031205f 	eorscc	r2, r1, pc, asr r0
    3b64:	45003432 	strmi	r3, [r0, #-1074]	; 0xfffffbce
    3b68:	33495458 	movtcc	r5, #37976	; 0x9458
    3b6c:	20334350 	eorscs	r4, r3, r0, asr r3
    3b70:	54584528 	ldrbpl	r4, [r8], #-1320	; 0xfffffad8
    3b74:	50475f49 	subpl	r5, r7, r9, asr #30
    3b78:	4d5f4f49 	ldclmi	15, cr4, [pc, #-292]	; 3a5c <_Min_Stack_Size+0x365c>
    3b7c:	69707061 	ldmdbvs	r0!, {r0, r5, r6, ip, sp, lr}^
    3b80:	745f676e 	ldrbvc	r6, [pc], #-1902	; 3b88 <_Min_Stack_Size+0x3788>
    3b84:	58457b29 	stmdapl	r5, {r0, r3, r5, r8, r9, fp, ip, sp, lr}^
    3b88:	2c334954 			; <UNDEFINED> instruction: 0x2c334954
    3b8c:	49504720 	ldmdbmi	r0, {r5, r8, r9, sl, lr}^
    3b90:	202c434f 	eorcs	r4, ip, pc, asr #6
    3b94:	4f495047 	svcmi	0x00495047
    3b98:	4e49505f 	mcrmi	0, 2, r5, cr9, cr15, {2}
    3b9c:	202c335f 	eorcs	r3, ip, pc, asr r3
    3ba0:	49545845 	ldmdbmi	r4, {r0, r2, r6, fp, ip, lr}^
    3ba4:	52495f33 	subpl	r5, r9, #51, 30	; 0xcc
    3ba8:	52007d51 	andpl	r7, r0, #5184	; 0x1440
    3bac:	28204343 	stmdacs	r0!, {r0, r1, r6, r8, r9, lr}
    3bb0:	43435228 	movtmi	r5, #12840	; 0x3228
    3bb4:	7079545f 	rsbsvc	r5, r9, pc, asr r4
    3bb8:	66656465 	strbtvs	r6, [r5], -r5, ror #8
    3bbc:	2a20745f 	bcs	820d40 <_Min_Stack_Size+0x820940>
    3bc0:	43435229 	movtmi	r5, #12841	; 0x3229
    3bc4:	5341425f 	movtpl	r4, #4703	; 0x125f
    3bc8:	4e002945 	vmlsmi.f16	s4, s0, s10	; <UNPREDICTABLE>
    3bcc:	5f434956 	svcpl	0x00434956
    3bd0:	49545845 	ldmdbmi	r4, {r0, r2, r6, fp, ip, lr}^
    3bd4:	52495f34 	subpl	r5, r9, #52, 30	; 0xd0
    3bd8:	6e455f51 	mcrvs	15, 2, r5, cr5, cr1, {2}
    3bdc:	656c6261 	strbvs	r6, [ip, #-609]!	; 0xfffffd9f
    3be0:	564e2820 	strbpl	r2, [lr], -r0, lsr #16
    3be4:	495f4349 	ldmdbmi	pc, {r0, r3, r6, r8, r9, lr}^	; <UNPREDICTABLE>
    3be8:	30524553 	subscc	r4, r2, r3, asr r5
    3bec:	203d7c20 	eorscs	r7, sp, r0, lsr #24
    3bf0:	313c3c31 	teqcc	ip, r1, lsr ip
    3bf4:	5f002930 	svcpl	0x00002930
    3bf8:	4e49555f 	mcrmi	5, 2, r5, cr9, cr15, {2}
    3bfc:	454c5f54 	strbmi	r5, [ip, #-3924]	; 0xfffff0ac
    3c00:	33545341 	cmpcc	r4, #67108865	; 0x4000001
    3c04:	414d5f32 	cmpmi	sp, r2, lsr pc
    3c08:	205f5f58 	subscs	r5, pc, r8, asr pc	; <UNPREDICTABLE>
    3c0c:	66667830 			; <UNDEFINED> instruction: 0x66667830
    3c10:	66666666 	strbtvs	r6, [r6], -r6, ror #12
    3c14:	4c556666 	mrrcmi	6, 6, r6, r5, cr6
    3c18:	54584500 	ldrbpl	r4, [r8], #-1280	; 0xfffffb00
    3c1c:	41503549 	cmpmi	r0, r9, asr #10
    3c20:	45282035 	strmi	r2, [r8, #-53]!	; 0xffffffcb
    3c24:	5f495458 	svcpl	0x00495458
    3c28:	4f495047 	svcmi	0x00495047
    3c2c:	70614d5f 	rsbvc	r4, r1, pc, asr sp
    3c30:	676e6970 			; <UNDEFINED> instruction: 0x676e6970
    3c34:	7b29745f 	blvc	a60db8 <_Min_Stack_Size+0xa609b8>
    3c38:	49545845 	ldmdbmi	r4, {r0, r2, r6, fp, ip, lr}^
    3c3c:	47202c35 			; <UNDEFINED> instruction: 0x47202c35
    3c40:	414f4950 	cmpmi	pc, r0, asr r9	; <UNPREDICTABLE>
    3c44:	5047202c 	subpl	r2, r7, ip, lsr #32
    3c48:	505f4f49 	subspl	r4, pc, r9, asr #30
    3c4c:	355f4e49 	ldrbcc	r4, [pc, #-3657]	; 2e0b <_Min_Stack_Size+0x2a0b>
    3c50:	5845202c 	stmdapl	r5, {r2, r3, r5, sp}^
    3c54:	5f354954 	svcpl	0x00354954
    3c58:	7d515249 	lfmvc	f5, 2, [r1, #-292]	; 0xfffffedc
    3c5c:	445f5f00 	ldrbmi	r5, [pc], #-3840	; 3c64 <_Min_Stack_Size+0x3864>
    3c60:	455f4c42 	ldrbmi	r4, [pc, #-3138]	; 3026 <_Min_Stack_Size+0x2c26>
    3c64:	4c495350 	mcrrmi	3, 5, r5, r9, cr0
    3c68:	5f5f4e4f 	svcpl	0x005f4e4f
    3c6c:	64282820 	strtvs	r2, [r8], #-2080	; 0xfffff7e0
    3c70:	6c62756f 	cfstr64vs	mvdx7, [r2], #-444	; 0xfffffe44
    3c74:	2e322965 	vsubcs.f16	s4, s4, s11	; <UNPREDICTABLE>
    3c78:	34303232 	ldrtcc	r3, [r0], #-562	; 0xfffffdce
    3c7c:	34303634 	ldrtcc	r3, [r0], #-1588	; 0xfffff9cc
    3c80:	30353239 	eorscc	r3, r5, r9, lsr r2
    3c84:	31333133 	teqcc	r3, r3, lsr r1
    3c88:	36312d65 	ldrtcc	r2, [r1], -r5, ror #26
    3c8c:	4700294c 	strmi	r2, [r0, -ip, asr #18]
    3c90:	5f4f4950 	svcpl	0x004f4950
    3c94:	45455053 	strbmi	r5, [r5, #-83]	; 0xffffffad
    3c98:	30355f44 	eorscc	r5, r5, r4, asr #30
    3c9c:	7830204d 	ldmdavc	r0!, {r0, r2, r3, r6, sp}
    3ca0:	30303030 	eorscc	r3, r0, r0, lsr r0
    3ca4:	33303030 	teqcc	r0, #48	; 0x30
    3ca8:	5f5f0075 	svcpl	0x005f0075
    3cac:	4d4f5441 	cfstrdmi	mvd5, [pc, #-260]	; 3bb0 <_Min_Stack_Size+0x37b0>
    3cb0:	435f4349 	cmpmi	pc, #603979777	; 0x24000001
    3cb4:	55534e4f 	ldrbpl	r4, [r3, #-3663]	; 0xfffff1b1
    3cb8:	3120454d 			; <UNDEFINED> instruction: 0x3120454d
    3cbc:	495f5f00 	ldmdbmi	pc, {r8, r9, sl, fp, ip, lr}^	; <UNPREDICTABLE>
    3cc0:	4c5f544e 	cfldrdmi	mvd5, [pc], {78}	; 0x4e
    3cc4:	54534145 	ldrbpl	r4, [r3], #-325	; 0xfffffebb
    3cc8:	575f3436 	smmlarpl	pc, r6, r4, r3	; <UNPREDICTABLE>
    3ccc:	48544449 	ldmdami	r4, {r0, r3, r6, sl, lr}^
    3cd0:	36205f5f 	qsaxcc	r5, r0, pc	; <UNPREDICTABLE>
    3cd4:	5f5f0034 	svcpl	0x005f0034
    3cd8:	5f544c46 	svcpl	0x00544c46
    3cdc:	5f534148 	svcpl	0x00534148
    3ce0:	49464e49 	stmdbmi	r6, {r0, r3, r6, r9, sl, fp, lr}^
    3ce4:	5954494e 	ldmdbpl	r4, {r1, r2, r3, r6, r8, fp, lr}^
    3ce8:	31205f5f 			; <UNDEFINED> instruction: 0x31205f5f
    3cec:	45525f00 	ldrbmi	r5, [r2, #-3840]	; 0xfffff100
    3cf0:	5f544e45 	svcpl	0x00544e45
    3cf4:	424f4c47 	submi	r4, pc, #18176	; 0x4700
    3cf8:	415f4c41 	cmpmi	pc, r1, asr #24
    3cfc:	49584554 	ldmdbmi	r8, {r2, r4, r6, r8, sl, lr}^
    3d00:	00312054 	eorseq	r2, r1, r4, asr r0
    3d04:	43415f5f 	movtmi	r5, #8031	; 0x1f5f
    3d08:	5f4d5543 	svcpl	0x004d5543
    3d0c:	5f58414d 	svcpl	0x0058414d
    3d10:	5830205f 	ldmdapl	r0!, {r0, r1, r2, r3, r4, r6, sp}
    3d14:	46464637 			; <UNDEFINED> instruction: 0x46464637
    3d18:	46464646 	strbmi	r4, [r6], -r6, asr #12
    3d1c:	35312d50 	ldrcc	r2, [r1, #-3408]!	; 0xfffff2b0
    3d20:	5f5f004b 	svcpl	0x005f004b
    3d24:	38544e49 	ldmdacc	r4, {r0, r3, r6, r9, sl, fp, lr}^
    3d28:	58414d5f 	stmdapl	r1, {r0, r1, r2, r3, r4, r6, r8, sl, fp, lr}^
    3d2c:	30205f5f 	eorcc	r5, r0, pc, asr pc
    3d30:	00663778 	rsbeq	r3, r6, r8, ror r7
    3d34:	5f434e49 	svcpl	0x00434e49
    3d38:	334d5453 	movtcc	r5, #54355	; 0xd453
    3d3c:	31465f32 	cmpcc	r6, r2, lsr pc
    3d40:	36433330 			; <UNDEFINED> instruction: 0x36433330
    3d44:	4952445f 	ldmdbmi	r2, {r0, r1, r2, r3, r4, r6, sl, lr}^
    3d48:	53524556 	cmppl	r2, #360710144	; 0x15800000
    3d4c:	4950475f 	ldmdbmi	r0, {r0, r1, r2, r3, r4, r6, r8, r9, sl, lr}^
    3d50:	5f485f4f 	svcpl	0x00485f4f
    3d54:	5f5f0020 	svcpl	0x005f0020
    3d58:	5f434347 	svcpl	0x00434347
    3d5c:	45564148 	ldrbmi	r4, [r6, #-328]	; 0xfffffeb8
    3d60:	4157445f 	cmpmi	r7, pc, asr r4
    3d64:	5f324652 	svcpl	0x00324652
    3d68:	5f494643 	svcpl	0x00494643
    3d6c:	204d5341 	subcs	r5, sp, r1, asr #6
    3d70:	5f5f0031 	svcpl	0x005f0031
    3d74:	746e695f 	strbtvc	r6, [lr], #-2399	; 0xfffff6a1
    3d78:	5f745f38 	svcpl	0x00745f38
    3d7c:	69666564 	stmdbvs	r6!, {r2, r5, r6, r8, sl, sp, lr}^
    3d80:	2064656e 	rsbcs	r6, r4, lr, ror #10
    3d84:	5f5f0031 	svcpl	0x005f0031
    3d88:	41524653 	cmpmi	r2, r3, asr r6
    3d8c:	4d5f5443 	cfldrdmi	mvd5, [pc, #-268]	; 3c88 <_Min_Stack_Size+0x3888>
    3d90:	5f5f4e49 	svcpl	0x005f4e49
    3d94:	302d2820 	eorcc	r2, sp, r0, lsr #16
    3d98:	5248352e 	subpl	r3, r8, #192937984	; 0xb800000
    3d9c:	352e302d 	strcc	r3, [lr, #-45]!	; 0xffffffd3
    3da0:	00295248 	eoreq	r5, r9, r8, asr #4
    3da4:	41535f5f 	cmpmi	r3, pc, asr pc
    3da8:	4942495f 	stmdbmi	r2, {r0, r1, r2, r3, r4, r6, r8, fp, lr}^
    3dac:	205f5f54 	subscs	r5, pc, r4, asr pc	; <UNPREDICTABLE>
    3db0:	5f003631 	svcpl	0x00003631
    3db4:	66666f5f 	uqsaxvs	r6, r6, pc	; <UNPREDICTABLE>
    3db8:	6f746573 	svcvs	0x00746573
    3dbc:	79742866 	ldmdbvc	r4!, {r1, r2, r5, r6, fp, sp}^
    3dc0:	662c6570 			; <UNDEFINED> instruction: 0x662c6570
    3dc4:	646c6569 	strbtvs	r6, [ip], #-1385	; 0xfffffa97
    3dc8:	666f2029 	strbtvs	r2, [pc], -r9, lsr #32
    3dcc:	74657366 	strbtvc	r7, [r5], #-870	; 0xfffffc9a
    3dd0:	7428666f 	strtvc	r6, [r8], #-1647	; 0xfffff991
    3dd4:	2c657079 	stclcs	0, cr7, [r5], #-484	; 0xfffffe1c
    3dd8:	65696620 	strbvs	r6, [r9, #-1568]!	; 0xfffff9e0
    3ddc:	0029646c 	eoreq	r6, r9, ip, ror #8
    3de0:	43475f5f 	movtmi	r5, #32607	; 0x7f5f
    3de4:	45495f43 	strbmi	r5, [r9, #-3907]	; 0xfffff0bd
    3de8:	35355f43 	ldrcc	r5, [r5, #-3907]!	; 0xfffff0bd
    3dec:	4f435f39 	svcmi	0x00435f39
    3df0:	454c504d 	strbmi	r5, [ip, #-77]	; 0xffffffb3
    3df4:	00302058 	eorseq	r2, r0, r8, asr r0
    3df8:	52415f5f 	subpl	r5, r1, #380	; 0x17c
    3dfc:	45465f4d 	strbmi	r5, [r6, #-3917]	; 0xfffff0b3
    3e00:	52555441 	subspl	r5, r5, #1090519040	; 0x41000000
    3e04:	564d5f45 	strbpl	r5, [sp], -r5, asr #30
    3e08:	5f5f0045 	svcpl	0x005f0045
    3e0c:	6e6e6f6e 	cdpvs	15, 6, cr6, cr14, cr14, {3}
    3e10:	5f6c6c75 	svcpl	0x006c6c75
    3e14:	206c6c61 	rsbcs	r6, ip, r1, ror #24
    3e18:	74615f5f 	strbtvc	r5, [r1], #-3935	; 0xfffff0a1
    3e1c:	62697274 	rsbvs	r7, r9, #116, 4	; 0x40000007
    3e20:	5f657475 	svcpl	0x00657475
    3e24:	5f28285f 	svcpl	0x0028285f
    3e28:	6e6f6e5f 	mcrvs	14, 3, r6, cr15, cr15, {2}
    3e2c:	6c6c756e 	cfstr64vs	mvdx7, [ip], #-440	; 0xfffffe48
    3e30:	29295f5f 	stmdbcs	r9!, {r0, r1, r2, r3, r4, r6, r8, r9, sl, fp, ip, lr}
    3e34:	415f5f00 	cmpmi	pc, r0, lsl #30
    3e38:	465f4d52 			; <UNDEFINED> instruction: 0x465f4d52
    3e3c:	5f363150 	svcpl	0x00363150
    3e40:	4d524f46 	ldclmi	15, cr4, [r2, #-280]	; 0xfffffee8
    3e44:	495f5441 	ldmdbmi	pc, {r0, r6, sl, ip, lr}^	; <UNPREDICTABLE>
    3e48:	00454545 	subeq	r4, r5, r5, asr #10
    3e4c:	4545525f 	strbmi	r5, [r5, #-607]	; 0xfffffda1
    3e50:	4d5f544e 	cfldrdmi	mvd5, [pc, #-312]	; 3d20 <_Min_Stack_Size+0x3920>
    3e54:	54525342 	ldrbpl	r5, [r2], #-834	; 0xfffffcbe
    3e58:	5343574f 	movtpl	r5, #14159	; 0x374f
    3e5c:	4154535f 	cmpmi	r4, pc, asr r3
    3e60:	70284554 	eorvc	r4, r8, r4, asr r5
    3e64:	20297274 	eorcs	r7, r9, r4, ror r2
    3e68:	74702828 	ldrbtvc	r2, [r0], #-2088	; 0xfffff7d8
    3e6c:	3e2d2972 			; <UNDEFINED> instruction: 0x3e2d2972
    3e70:	73696d5f 	cmnvc	r9, #6080	; 0x17c0
    3e74:	5f3e2d63 	svcpl	0x003e2d63
    3e78:	7273626d 	rsbsvc	r6, r3, #-805306362	; 0xd0000006
    3e7c:	63776f74 	cmnvs	r7, #116, 30	; 0x1d0
    3e80:	74735f73 	ldrbtvc	r5, [r3], #-3955	; 0xfffff08d
    3e84:	29657461 	stmdbcs	r5!, {r0, r5, r6, sl, ip, sp, lr}^
    3e88:	4f505f00 	svcmi	0x00505f00
    3e8c:	5f584953 	svcpl	0x00584953
    3e90:	52554f53 	subspl	r4, r5, #332	; 0x14c
    3e94:	52004543 	andpl	r4, r0, #281018368	; 0x10c00000
    3e98:	5f444e41 	svcpl	0x00444e41
    3e9c:	2058414d 	subscs	r4, r8, sp, asr #2
    3ea0:	41525f5f 	cmpmi	r2, pc, asr pc
    3ea4:	4d5f444e 	cfldrdmi	mvd4, [pc, #-312]	; 3d74 <_Min_Stack_Size+0x3974>
    3ea8:	5f005841 	svcpl	0x00005841
    3eac:	6e69755f 	mcrvs	5, 3, r7, cr9, cr15, {2}
    3eb0:	5f323374 	svcpl	0x00323374
    3eb4:	50470074 	subpl	r0, r7, r4, ror r0
    3eb8:	4d5f4f49 	ldclmi	15, cr4, [pc, #-292]	; 3d9c <_Min_Stack_Size+0x399c>
    3ebc:	5f45444f 	svcpl	0x0045444f
    3ec0:	55504e49 	ldrbpl	r4, [r0, #-3657]	; 0xfffff1b7
    3ec4:	44505f54 	ldrbmi	r5, [r0], #-3924	; 0xfffff0ac
    3ec8:	30783020 	rsbscc	r3, r8, r0, lsr #32
    3ecc:	30303030 	eorscc	r3, r0, r0, lsr r0
    3ed0:	00333030 	eorseq	r3, r3, r0, lsr r0
    3ed4:	4f535f5f 	svcmi	0x00535f5f
    3ed8:	50465446 	subpl	r5, r6, r6, asr #8
    3edc:	31205f5f 			; <UNDEFINED> instruction: 0x31205f5f
    3ee0:	45525f00 	ldrbmi	r5, [r2, #-3840]	; 0xfffff100
    3ee4:	5f544e45 	svcpl	0x00544e45
    3ee8:	70284d54 	eorvc	r4, r8, r4, asr sp
    3eec:	20297274 	eorcs	r7, r9, r4, ror r2
    3ef0:	74702828 	ldrbtvc	r2, [r0], #-2088	; 0xfffff7d8
    3ef4:	3e2d2972 			; <UNDEFINED> instruction: 0x3e2d2972
    3ef8:	636f6c5f 	cmnvs	pc, #24320	; 0x5f00
    3efc:	69746c61 	ldmdbvs	r4!, {r0, r5, r6, sl, fp, sp, lr}^
    3f00:	625f656d 	subsvs	r6, pc, #457179136	; 0x1b400000
    3f04:	00296675 	eoreq	r6, r9, r5, ror r6
    3f08:	535f545f 	cmppl	pc, #1593835520	; 0x5f000000
    3f0c:	5f455a49 	svcpl	0x00455a49
    3f10:	5f5f0020 	svcpl	0x005f0020
    3f14:	5f544c46 	svcpl	0x00544c46
    3f18:	4c415645 	mcrrmi	6, 4, r5, r1, cr5
    3f1c:	54454d5f 	strbpl	r4, [r5], #-3423	; 0xfffff2a1
    3f20:	5f444f48 	svcpl	0x00444f48
    3f24:	315f5354 	cmpcc	pc, r4, asr r3	; <UNPREDICTABLE>
    3f28:	31363638 	teqcc	r6, r8, lsr r6
    3f2c:	5f5f335f 	svcpl	0x005f335f
    3f30:	5f003020 	svcpl	0x00003020
    3f34:	7474615f 	ldrbtvc	r6, [r4], #-351	; 0xfffffea1
    3f38:	75626972 	strbvc	r6, [r2, #-2418]!	; 0xfffff68e
    3f3c:	6d5f6574 	cfldr64vs	mvdx6, [pc, #-464]	; 3d74 <_Min_Stack_Size+0x3974>
    3f40:	6f6c6c61 	svcvs	0x006c6c61
    3f44:	205f5f63 	subscs	r5, pc, r3, ror #30
    3f48:	54584500 	ldrbpl	r4, [r8], #-1280	; 0xfffffb00
    3f4c:	50343149 	eorspl	r3, r4, r9, asr #2
    3f50:	20343142 	eorscs	r3, r4, r2, asr #2
    3f54:	54584528 	ldrbpl	r4, [r8], #-1320	; 0xfffffad8
    3f58:	50475f49 	subpl	r5, r7, r9, asr #30
    3f5c:	4d5f4f49 	ldclmi	15, cr4, [pc, #-292]	; 3e40 <_Min_Stack_Size+0x3a40>
    3f60:	69707061 	ldmdbvs	r0!, {r0, r5, r6, ip, sp, lr}^
    3f64:	745f676e 	ldrbvc	r6, [pc], #-1902	; 3f6c <_Min_Stack_Size+0x3b6c>
    3f68:	58457b29 	stmdapl	r5, {r0, r3, r5, r8, r9, fp, ip, sp, lr}^
    3f6c:	34314954 	ldrtcc	r4, [r1], #-2388	; 0xfffff6ac
    3f70:	5047202c 	subpl	r2, r7, ip, lsr #32
    3f74:	2c424f49 	mcrrcs	15, 4, r4, r2, cr9
    3f78:	49504720 	ldmdbmi	r0, {r5, r8, r9, sl, lr}^
    3f7c:	49505f4f 	ldmdbmi	r0, {r0, r1, r2, r3, r6, r8, r9, sl, fp, ip, lr}^
    3f80:	34315f4e 	ldrtcc	r5, [r1], #-3918	; 0xfffff0b2
    3f84:	5845202c 	stmdapl	r5, {r2, r3, r5, sp}^
    3f88:	34314954 	ldrtcc	r4, [r1], #-2388	; 0xfffff6ac
    3f8c:	5152495f 	cmppl	r2, pc, asr r9
    3f90:	5f5f007d 	svcpl	0x005f007d
    3f94:	41484353 	cmpmi	r8, r3, asr r3
    3f98:	49575f52 	ldmdbmi	r7, {r1, r4, r6, r8, r9, sl, fp, ip, lr}^
    3f9c:	5f485444 	svcpl	0x00485444
    3fa0:	0038205f 	eorseq	r2, r8, pc, asr r0
    3fa4:	38544e49 	ldmdacc	r4, {r0, r3, r6, r9, sl, fp, lr}^
    3fa8:	7828435f 	stmdavc	r8!, {r0, r1, r2, r3, r4, r6, r8, r9, lr}
    3fac:	5f5f2029 	svcpl	0x005f2029
    3fb0:	38544e49 	ldmdacc	r4, {r0, r3, r6, r9, sl, fp, lr}^
    3fb4:	7828435f 	stmdavc	r8!, {r0, r1, r2, r3, r4, r6, r8, r9, lr}
    3fb8:	5f5f0029 	svcpl	0x005f0029
    3fbc:	4c4c554e 	cfstr64mi	mvdx5, [ip], {78}	; 0x4e
    3fc0:	4c494241 	sfmmi	f4, 2, [r9], {65}	; 0x41
    3fc4:	5f595449 	svcpl	0x00595449
    3fc8:	47415250 	smlsldmi	r5, r1, r0, r2
    3fcc:	505f414d 	subspl	r4, pc, sp, asr #2
    3fd0:	0020504f 	eoreq	r5, r0, pc, asr #32
    3fd4:	49555f5f 	ldmdbmi	r5, {r0, r1, r2, r3, r4, r6, r8, r9, sl, fp, ip, lr}^
    3fd8:	465f544e 	ldrbmi	r5, [pc], -lr, asr #8
    3fdc:	38545341 	ldmdacc	r4, {r0, r6, r8, r9, ip, lr}^
    3fe0:	5059545f 	subspl	r5, r9, pc, asr r4
    3fe4:	205f5f45 	subscs	r5, pc, r5, asr #30
    3fe8:	69736e75 	ldmdbvs	r3!, {r0, r2, r4, r5, r6, r9, sl, fp, sp, lr}^
    3fec:	64656e67 	strbtvs	r6, [r5], #-3687	; 0xfffff199
    3ff0:	746e6920 	strbtvc	r6, [lr], #-2336	; 0xfffff6e0
    3ff4:	4c5f5f00 	mrrcmi	15, 0, r5, pc, cr0	; <UNPREDICTABLE>
    3ff8:	4343414c 	movtmi	r4, #12620	; 0x314c
    3ffc:	495f4d55 	ldmdbmi	pc, {r0, r2, r4, r6, r8, sl, fp, lr}^	; <UNPREDICTABLE>
    4000:	5f544942 	svcpl	0x00544942
    4004:	3233205f 	eorscc	r2, r3, #95	; 0x5f
    4008:	6c5f5f00 	mrrcvs	15, 0, r5, pc, cr0	; <UNPREDICTABLE>
    400c:	5f6b636f 	svcpl	0x006b636f
    4010:	736f6c63 	cmnvc	pc, #25344	; 0x6300
    4014:	65725f65 	ldrbvs	r5, [r2, #-3941]!	; 0xfffff09b
    4018:	73727563 	cmnvc	r2, #415236096	; 0x18c00000
    401c:	28657669 	stmdacs	r5!, {r0, r3, r5, r6, r9, sl, ip, sp, lr}^
    4020:	6b636f6c 	blvs	18dfdd8 <_Min_Stack_Size+0x18df9d8>
    4024:	5f5f2029 	svcpl	0x005f2029
    4028:	61746572 	cmnvs	r4, r2, ror r5
    402c:	74656772 	strbtvc	r6, [r5], #-1906	; 0xfffff88e
    4030:	636f6c5f 	cmnvs	pc, #24320	; 0x5f00
    4034:	6c635f6b 	stclvs	15, cr5, [r3], #-428	; 0xfffffe54
    4038:	5f65736f 	svcpl	0x0065736f
    403c:	75636572 	strbvc	r6, [r3, #-1394]!	; 0xfffffa8e
    4040:	76697372 			; <UNDEFINED> instruction: 0x76697372
    4044:	6f6c2865 	svcvs	0x006c2865
    4048:	00296b63 	eoreq	r6, r9, r3, ror #22
    404c:	49545845 	ldmdbmi	r4, {r0, r2, r6, fp, ip, lr}^
    4050:	30445030 	subcc	r5, r4, r0, lsr r0
    4054:	58452820 	stmdapl	r5, {r5, fp, sp}^
    4058:	475f4954 			; <UNDEFINED> instruction: 0x475f4954
    405c:	5f4f4950 	svcpl	0x004f4950
    4060:	7070614d 	rsbsvc	r6, r0, sp, asr #2
    4064:	5f676e69 	svcpl	0x00676e69
    4068:	457b2974 	ldrbmi	r2, [fp, #-2420]!	; 0xfffff68c
    406c:	30495458 	subcc	r5, r9, r8, asr r4
    4070:	5047202c 	subpl	r2, r7, ip, lsr #32
    4074:	2c444f49 	mcrrcs	15, 4, r4, r4, cr9
    4078:	49504720 	ldmdbmi	r0, {r5, r8, r9, sl, lr}^
    407c:	49505f4f 	ldmdbmi	r0, {r0, r1, r2, r3, r6, r8, r9, sl, fp, ip, lr}^
    4080:	2c305f4e 	ldccs	15, cr5, [r0], #-312	; 0xfffffec8
    4084:	54584520 	ldrbpl	r4, [r8], #-1312	; 0xfffffae0
    4088:	495f3049 	ldmdbmi	pc, {r0, r3, r6, ip, sp}^	; <UNPREDICTABLE>
    408c:	007d5152 	rsbseq	r5, sp, r2, asr r1
    4090:	4e495f5f 	mcrmi	15, 2, r5, cr9, cr15, {2}
    4094:	5f323354 	svcpl	0x00323354
    4098:	5f58414d 	svcpl	0x0058414d
    409c:	7830205f 	ldmdavc	r0!, {r0, r1, r2, r3, r4, r6, sp}
    40a0:	66666637 			; <UNDEFINED> instruction: 0x66666637
    40a4:	66666666 	strbtvs	r6, [r6], -r6, ror #12
    40a8:	5f5f004c 	svcpl	0x005f004c
    40ac:	5f6e696d 	svcpl	0x006e696d
    40b0:	657a6973 	ldrbvs	r6, [sl, #-2419]!	; 0xfffff68d
    40b4:	20297828 	eorcs	r7, r9, r8, lsr #16
    40b8:	74617473 	strbtvc	r7, [r1], #-1139	; 0xfffffb8d
    40bc:	28206369 	stmdacs	r0!, {r0, r3, r5, r6, r8, r9, sp, lr}
    40c0:	5f002978 	svcpl	0x00002978
    40c4:	454d4954 	strbmi	r4, [sp, #-2388]	; 0xfffff6ac
    40c8:	5f545f52 	svcpl	0x00545f52
    40cc:	736e7520 	cmnvc	lr, #32, 10	; 0x8000000
    40d0:	656e6769 	strbvs	r6, [lr, #-1897]!	; 0xfffff897
    40d4:	6f6c2064 	svcvs	0x006c2064
    40d8:	5f00676e 	svcpl	0x0000676e
    40dc:	4745425f 	smlsldmi	r4, r5, pc, r2	; <UNPREDICTABLE>
    40e0:	445f4e49 	ldrbmi	r4, [pc], #-3657	; 40e8 <_Min_Stack_Size+0x3ce8>
    40e4:	534c4345 	movtpl	r4, #49989	; 0xc345
    40e8:	5f5f0020 	svcpl	0x005f0020
    40ec:	5f544e49 	svcpl	0x00544e49
    40f0:	5341454c 	movtpl	r4, #5452	; 0x154c
    40f4:	5f343654 	svcpl	0x00343654
    40f8:	5f58414d 	svcpl	0x0058414d
    40fc:	7830205f 	ldmdavc	r0!, {r0, r1, r2, r3, r4, r6, sp}
    4100:	66666637 			; <UNDEFINED> instruction: 0x66666637
    4104:	66666666 	strbtvs	r6, [r6], -r6, ror #12
    4108:	66666666 	strbtvs	r6, [r6], -r6, ror #12
    410c:	66666666 	strbtvs	r6, [r6], -r6, ror #12
    4110:	5f004c4c 	svcpl	0x00004c4c
    4114:	4350415f 	cmpmi	r0, #-1073741801	; 0xc0000017
    4118:	32335f53 	eorscc	r5, r3, #332	; 0x14c
    411c:	31205f5f 			; <UNDEFINED> instruction: 0x31205f5f
    4120:	415f5f00 	cmpmi	pc, r0, lsl #30
    4124:	465f4d52 			; <UNDEFINED> instruction: 0x465f4d52
    4128:	55544145 	ldrbpl	r4, [r4, #-325]	; 0xfffffebb
    412c:	425f4552 	subsmi	r4, pc, #343932928	; 0x14800000
    4130:	5f363146 	svcpl	0x00363146
    4134:	54434556 	strbpl	r4, [r3], #-1366	; 0xfffffaaa
    4138:	415f524f 	cmpmi	pc, pc, asr #4
    413c:	48544952 	ldmdami	r4, {r1, r4, r6, r8, fp, lr}^
    4140:	4954454d 	ldmdbmi	r4, {r0, r2, r3, r6, r8, sl, lr}^
    4144:	535f0043 	cmppl	pc, #67	; 0x43
    4148:	5f5f5359 	svcpl	0x005f5359
    414c:	49445453 	stmdbmi	r4, {r0, r1, r4, r6, sl, ip, lr}^
    4150:	485f544e 	ldmdami	pc, {r1, r2, r3, r6, sl, ip, lr}^	; <UNPREDICTABLE>
    4154:	5f5f0020 	svcpl	0x005f0020
    4158:	6465656e 	strbtvs	r6, [r5], #-1390	; 0xfffffa92
    415c:	4c554e5f 	mrrcmi	14, 5, r4, r5, cr15
    4160:	4600204c 	strmi	r2, [r0], -ip, asr #32
    4164:	4853414c 	ldmdami	r3, {r2, r3, r6, r8, lr}^
    4168:	5341425f 	movtpl	r4, #4703	; 0x125f
    416c:	78302045 	ldmdavc	r0!, {r0, r2, r6, sp}
    4170:	30303830 	eorscc	r3, r0, r0, lsr r8
    4174:	30303030 	eorscc	r3, r0, r0, lsr r0
    4178:	445f0075 	ldrbmi	r0, [pc], #-117	; 4180 <_Min_Stack_Size+0x3d80>
    417c:	55414645 	strbpl	r4, [r1, #-1605]	; 0xfffff9bb
    4180:	535f544c 	cmppl	pc, #76, 8	; 0x4c000000
    4184:	4352554f 	cmpmi	r2, #331350016	; 0x13c00000
    4188:	00312045 	eorseq	r2, r1, r5, asr #32
    418c:	4c465f5f 	mcrrmi	15, 5, r5, r6, cr15
    4190:	5f323354 	svcpl	0x00323354
    4194:	544e414d 	strbpl	r4, [lr], #-333	; 0xfffffeb3
    4198:	4749445f 	smlsldmi	r4, r9, pc, r4	; <UNPREDICTABLE>
    419c:	32205f5f 	eorcc	r5, r0, #380	; 0x17c
    41a0:	5f5f0034 	svcpl	0x005f0034
    41a4:	33544c46 	cmpcc	r4, #17920	; 0x4600
    41a8:	45445f32 	strbmi	r5, [r4, #-3890]	; 0xfffff0ce
    41ac:	4d524f4e 	ldclmi	15, cr4, [r2, #-312]	; 0xfffffec8
    41b0:	4e494d5f 	mcrmi	13, 2, r4, cr9, cr15, {2}
    41b4:	31205f5f 			; <UNDEFINED> instruction: 0x31205f5f
    41b8:	3130342e 	teqcc	r0, lr, lsr #8
    41bc:	34383932 	ldrtcc	r3, [r8], #-2354	; 0xfffff6ce
    41c0:	32333436 	eorscc	r3, r3, #905969664	; 0x36000000
    41c4:	37313834 			; <UNDEFINED> instruction: 0x37313834
    41c8:	342d6531 	strtcc	r6, [sp], #-1329	; 0xfffffacf
    41cc:	32334635 	eorscc	r4, r3, #55574528	; 0x3500000
    41d0:	735f5f00 	cmpvc	pc, #0, 30
    41d4:	69746365 	ldmdbvs	r4!, {r0, r2, r5, r6, r8, r9, sp, lr}^
    41d8:	78286e6f 	stmdavc	r8!, {r0, r1, r2, r3, r5, r6, r9, sl, fp, sp, lr}
    41dc:	5f5f2029 	svcpl	0x005f2029
    41e0:	72747461 	rsbsvc	r7, r4, #1627389952	; 0x61000000
    41e4:	74756269 	ldrbtvc	r6, [r5], #-617	; 0xfffffd97
    41e8:	285f5f65 	ldmdacs	pc, {r0, r2, r5, r6, r8, r9, sl, fp, ip, lr}^	; <UNPREDICTABLE>
    41ec:	735f5f28 	cmpvc	pc, #40, 30	; 0xa0
    41f0:	69746365 	ldmdbvs	r4!, {r0, r2, r5, r6, r8, r9, sp, lr}^
    41f4:	5f5f6e6f 	svcpl	0x005f6e6f
    41f8:	29297828 	stmdbcs	r9!, {r3, r5, fp, ip, sp, lr}
    41fc:	666f0029 	strbtvs	r0, [pc], -r9, lsr #32
    4200:	74657366 	strbtvc	r7, [r5], #-870	; 0xfffffc9a
    4204:	5428666f 	strtpl	r6, [r8], #-1647	; 0xfffff991
    4208:	2c455059 	mcrrcs	0, 5, r5, r5, cr9
    420c:	424d454d 	submi	r4, sp, #322961408	; 0x13400000
    4210:	20295245 	eorcs	r5, r9, r5, asr #4
    4214:	75625f5f 	strbvc	r5, [r2, #-3935]!	; 0xfffff0a1
    4218:	69746c69 	ldmdbvs	r4!, {r0, r3, r5, r6, sl, fp, sp, lr}^
    421c:	666f5f6e 	strbtvs	r5, [pc], -lr, ror #30
    4220:	74657366 	strbtvc	r7, [r5], #-870	; 0xfffffc9a
    4224:	2820666f 	stmdacs	r0!, {r0, r1, r2, r3, r5, r6, r9, sl, sp, lr}
    4228:	45505954 	ldrbmi	r5, [r0, #-2388]	; 0xfffff6ac
    422c:	454d202c 	strbmi	r2, [sp, #-44]	; 0xffffffd4
    4230:	5245424d 	subpl	r4, r5, #-805306364	; 0xd0000004
    4234:	5f5f0029 	svcpl	0x005f0029
    4238:	544e4955 	strbpl	r4, [lr], #-2389	; 0xfffff6ab
    423c:	435f3436 	cmpmi	pc, #905969664	; 0x36000000
    4240:	20296328 	eorcs	r6, r9, r8, lsr #6
    4244:	23232063 			; <UNDEFINED> instruction: 0x23232063
    4248:	4c4c5520 	cfstr64mi	mvdx5, [ip], {32}
    424c:	555f5f00 	ldrbpl	r5, [pc, #-3840]	; 3354 <_Min_Stack_Size+0x2f54>
    4250:	5f544e49 	svcpl	0x00544e49
    4254:	5341454c 	movtpl	r4, #5452	; 0x154c
    4258:	5f343654 	svcpl	0x00343654
    425c:	45505954 	ldrbmi	r5, [r0, #-2388]	; 0xfffff6ac
    4260:	6c205f5f 	stcvs	15, cr5, [r0], #-380	; 0xfffffe84
    4264:	20676e6f 	rsbcs	r6, r7, pc, ror #28
    4268:	676e6f6c 	strbvs	r6, [lr, -ip, ror #30]!
    426c:	736e7520 	cmnvc	lr, #32, 10	; 0x8000000
    4270:	656e6769 	strbvs	r6, [lr, #-1897]!	; 0xfffff897
    4274:	6e692064 	cdpvs	0, 6, cr2, cr9, cr4, {3}
    4278:	50470074 	subpl	r0, r7, r4, ror r0
    427c:	4d5f4f49 	ldclmi	15, cr4, [pc, #-292]	; 4160 <_Min_Stack_Size+0x3d60>
    4280:	5f45444f 	svcpl	0x0045444f
    4284:	55504e49 	ldrbpl	r4, [r0, #-3657]	; 0xfffff1b7
    4288:	4c465f54 	mcrrmi	15, 5, r5, r6, cr4
    428c:	7830204f 	ldmdavc	r0!, {r0, r1, r2, r3, r6, sp}
    4290:	30303030 	eorscc	r3, r0, r0, lsr r0
    4294:	31303030 	teqcc	r0, r0, lsr r0
    4298:	555f5f00 	ldrbpl	r5, [pc, #-3840]	; 33a0 <_Min_Stack_Size+0x2fa0>
    429c:	41524653 	cmpmi	r2, r3, asr r6
    42a0:	465f5443 	ldrbmi	r5, [pc], -r3, asr #8
    42a4:	5f544942 	svcpl	0x00544942
    42a8:	0038205f 	eorseq	r2, r8, pc, asr r0
    42ac:	444c5f5f 	strbmi	r5, [ip], #-3935	; 0xfffff0a1
    42b0:	455f4c42 	ldrbmi	r4, [pc, #-3138]	; 3676 <_Min_Stack_Size+0x3276>
    42b4:	4c495350 	mcrrmi	3, 5, r5, r9, cr0
    42b8:	5f5f4e4f 	svcpl	0x005f4e4f
    42bc:	322e3220 	eorcc	r3, lr, #32, 4
    42c0:	34343032 	ldrtcc	r3, [r4], #-50	; 0xffffffce
    42c4:	39343036 	ldmdbcc	r4!, {r1, r2, r4, r5, ip, sp}
    42c8:	33303532 	teqcc	r0, #209715200	; 0xc800000
    42cc:	65313331 	ldrvs	r3, [r1, #-817]!	; 0xfffffccf
    42d0:	4c36312d 	ldfmis	f3, [r6], #-180	; 0xffffff4c
    42d4:	54584500 	ldrbpl	r4, [r8], #-1280	; 0xfffffb00
    42d8:	50313149 	eorspl	r3, r1, r9, asr #2
    42dc:	20313143 	eorscs	r3, r1, r3, asr #2
    42e0:	54584528 	ldrbpl	r4, [r8], #-1320	; 0xfffffad8
    42e4:	50475f49 	subpl	r5, r7, r9, asr #30
    42e8:	4d5f4f49 	ldclmi	15, cr4, [pc, #-292]	; 41cc <_Min_Stack_Size+0x3dcc>
    42ec:	69707061 	ldmdbvs	r0!, {r0, r5, r6, ip, sp, lr}^
    42f0:	745f676e 	ldrbvc	r6, [pc], #-1902	; 42f8 <_Min_Stack_Size+0x3ef8>
    42f4:	58457b29 	stmdapl	r5, {r0, r3, r5, r8, r9, fp, ip, sp, lr}^
    42f8:	31314954 	teqcc	r1, r4, asr r9
    42fc:	5047202c 	subpl	r2, r7, ip, lsr #32
    4300:	2c434f49 	mcrrcs	15, 4, r4, r3, cr9
    4304:	49504720 	ldmdbmi	r0, {r5, r8, r9, sl, lr}^
    4308:	49505f4f 	ldmdbmi	r0, {r0, r1, r2, r3, r6, r8, r9, sl, fp, ip, lr}^
    430c:	31315f4e 	teqcc	r1, lr, asr #30
    4310:	5845202c 	stmdapl	r5, {r2, r3, r5, sp}^
    4314:	31314954 	teqcc	r1, r4, asr r9
    4318:	5152495f 	cmppl	r2, pc, asr r9
    431c:	4e49007d 	mcrmi	0, 2, r0, cr9, cr13, {3}
    4320:	41465f54 	cmpmi	r6, r4, asr pc
    4324:	34365453 	ldrtcc	r5, [r6], #-1107	; 0xfffffbad
    4328:	58414d5f 	stmdapl	r1, {r0, r1, r2, r3, r4, r6, r8, sl, fp, lr}^
    432c:	5f5f2820 	svcpl	0x005f2820
    4330:	5f544e49 	svcpl	0x00544e49
    4334:	54534146 	ldrbpl	r4, [r3], #-326	; 0xfffffeba
    4338:	4d5f3436 	cfldrdmi	mvd3, [pc, #-216]	; 4268 <_Min_Stack_Size+0x3e68>
    433c:	5f5f5841 	svcpl	0x005f5841
    4340:	5f5f0029 	svcpl	0x005f0029
    4344:	65727570 	ldrbvs	r7, [r2, #-1392]!	; 0xfffffa90
    4348:	5f5f2032 	svcpl	0x005f2032
    434c:	72747461 	rsbsvc	r7, r4, #1627389952	; 0x61000000
    4350:	74756269 	ldrbtvc	r6, [r5], #-617	; 0xfffffd97
    4354:	285f5f65 	ldmdacs	pc, {r0, r2, r5, r6, r8, r9, sl, fp, ip, lr}^	; <UNPREDICTABLE>
    4358:	635f5f28 	cmpvs	pc, #40, 30	; 0xa0
    435c:	74736e6f 	ldrbtvc	r6, [r3], #-3695	; 0xfffff191
    4360:	29295f5f 	stmdbcs	r9!, {r0, r1, r2, r3, r4, r6, r8, r9, sl, fp, ip, lr}
    4364:	475f5f00 	ldrbmi	r5, [pc, -r0, lsl #30]
    4368:	415f4343 	cmpmi	pc, r3, asr #6
    436c:	494d4f54 	stmdbmi	sp, {r2, r4, r6, r8, r9, sl, fp, lr}^
    4370:	48435f43 	stmdami	r3, {r0, r1, r6, r8, r9, sl, fp, ip, lr}^
    4374:	36315241 	ldrtcc	r5, [r1], -r1, asr #4
    4378:	4c5f545f 	cfldrdmi	mvd5, [pc], {95}	; 0x5f
    437c:	5f4b434f 	svcpl	0x004b434f
    4380:	45455246 	strbmi	r5, [r5, #-582]	; 0xfffffdba
    4384:	5f003220 	svcpl	0x00003220
    4388:	4c554e5f 	mrrcmi	14, 5, r4, r5, cr15
    438c:	4942414c 	stmdbmi	r2, {r2, r3, r6, r8, lr}^
    4390:	5954494c 	ldmdbpl	r4, {r2, r3, r6, r8, fp, lr}^
    4394:	4152505f 	cmpmi	r2, pc, asr r0
    4398:	5f414d47 	svcpl	0x00414d47
    439c:	48535550 	ldmdami	r3, {r4, r6, r8, sl, ip, lr}^
    43a0:	58450020 	stmdapl	r5, {r5}^
    43a4:	50324954 	eorspl	r4, r2, r4, asr r9
    43a8:	28203241 	stmdacs	r0!, {r0, r6, r9, ip, sp}
    43ac:	49545845 	ldmdbmi	r4, {r0, r2, r6, fp, ip, lr}^
    43b0:	4950475f 	ldmdbmi	r0, {r0, r1, r2, r3, r4, r6, r8, r9, sl, lr}^
    43b4:	614d5f4f 	cmpvs	sp, pc, asr #30
    43b8:	6e697070 	mcrvs	0, 3, r7, cr9, cr0, {3}
    43bc:	29745f67 	ldmdbcs	r4!, {r0, r1, r2, r5, r6, r8, r9, sl, fp, ip, lr}^
    43c0:	5458457b 	ldrbpl	r4, [r8], #-1403	; 0xfffffa85
    43c4:	202c3249 	eorcs	r3, ip, r9, asr #4
    43c8:	4f495047 	svcmi	0x00495047
    43cc:	47202c41 	strmi	r2, [r0, -r1, asr #24]!
    43d0:	5f4f4950 	svcpl	0x004f4950
    43d4:	5f4e4950 	svcpl	0x004e4950
    43d8:	45202c32 	strmi	r2, [r0, #-3122]!	; 0xfffff3ce
    43dc:	32495458 	subcc	r5, r9, #88, 8	; 0x58000000
    43e0:	5152495f 	cmppl	r2, pc, asr r9
    43e4:	434c007d 	movtmi	r0, #49277	; 0xc07d
    43e8:	5f00524b 	svcpl	0x0000524b
    43ec:	4c42445f 	cfstrdmi	mvd4, [r2], {95}	; 0x5f
    43f0:	58414d5f 	stmdapl	r1, {r0, r1, r2, r3, r4, r6, r8, sl, fp, lr}^
    43f4:	5058455f 	subspl	r4, r8, pc, asr r5
    43f8:	31205f5f 			; <UNDEFINED> instruction: 0x31205f5f
    43fc:	00343230 	eorseq	r3, r4, r0, lsr r2
    4400:	41465f5f 	cmpmi	r6, pc, asr pc
    4404:	34365453 	ldrtcc	r5, [r6], #-1107	; 0xfffffbad
    4408:	6c6c2220 	sfmvs	f2, 2, [ip], #-128	; 0xffffff80
    440c:	5f5f0022 	svcpl	0x005f0022
    4410:	4d4f5441 	cfstrdmi	mvd5, [pc, #-260]	; 4314 <_Min_Stack_Size+0x3f14>
    4414:	525f4349 	subspl	r4, pc, #603979777	; 0x24000001
    4418:	41454c45 	cmpmi	r5, r5, asr #24
    441c:	33204553 			; <UNDEFINED> instruction: 0x33204553
    4420:	736e7500 	cmnvc	lr, #0, 10
    4424:	656e6769 	strbvs	r6, [lr, #-1897]!	; 0xfffff897
    4428:	302b2064 	eorcc	r2, fp, r4, rrx
    442c:	465f5f00 	ldrbmi	r5, [pc], -r0, lsl #30
    4430:	3233544c 	eorscc	r5, r3, #76, 8	; 0x4c000000
    4434:	41485f58 	cmpmi	r8, r8, asr pc
    4438:	45445f53 	strbmi	r5, [r4, #-3923]	; 0xfffff0ad
    443c:	4d524f4e 	ldclmi	15, cr4, [r2, #-312]	; 0xfffffec8
    4440:	31205f5f 			; <UNDEFINED> instruction: 0x31205f5f
    4444:	465f5f00 	ldrbmi	r5, [pc], -r0, lsl #30
    4448:	4d5f544c 	cfldrdmi	mvd5, [pc, #-304]	; 4320 <_Min_Stack_Size+0x3f20>
    444c:	5f544e41 	svcpl	0x00544e41
    4450:	5f474944 	svcpl	0x00474944
    4454:	3432205f 	ldrtcc	r2, [r2], #-95	; 0xffffffa1
    4458:	41535500 	cmpmi	r3, r0, lsl #10
    445c:	5f315452 	svcpl	0x00315452
    4460:	20515249 	subscs	r5, r1, r9, asr #4
    4464:	5f003733 	svcpl	0x00003733
    4468:	444e4152 	strbmi	r4, [lr], #-338	; 0xfffffeae
    446c:	535f3834 	cmppl	pc, #52, 16	; 0x340000
    4470:	5f444545 	svcpl	0x00444545
    4474:	30282031 	eorcc	r2, r8, r1, lsr r0
    4478:	63626178 	cmnvs	r2, #120, 2
    447c:	5f002964 	svcpl	0x00002964
    4480:	5144555f 	cmppl	r4, pc, asr r5
    4484:	4942495f 	stmdbmi	r2, {r0, r1, r2, r3, r4, r6, r8, fp, lr}^
    4488:	205f5f54 	subscs	r5, pc, r4, asr pc	; <UNPREDICTABLE>
    448c:	475f0030 	smmlarmi	pc, r0, r0, r0	; <UNPREDICTABLE>
    4490:	41424f4c 	cmpmi	r2, ip, asr #30
    4494:	54415f4c 	strbpl	r5, [r1], #-3916	; 0xfffff0b4
    4498:	54495845 	strbpl	r5, [r9], #-2117	; 0xfffff7bb
    449c:	6c675f20 	stclvs	15, cr5, [r7], #-128	; 0xffffff80
    44a0:	6c61626f 	sfmvs	f6, 2, [r1], #-444	; 0xfffffe44
    44a4:	6574615f 	ldrbvs	r6, [r4, #-351]!	; 0xfffffea1
    44a8:	00746978 	rsbseq	r6, r4, r8, ror r9
    44ac:	4e495f5f 	mcrmi	15, 2, r5, cr9, cr15, {2}
    44b0:	454c5f54 	strbmi	r5, [ip, #-3924]	; 0xfffff0ac
    44b4:	33545341 	cmpcc	r4, #67108865	; 0x4000001
    44b8:	59545f32 	ldmdbpl	r4, {r1, r4, r5, r8, r9, sl, fp, ip, lr}^
    44bc:	5f5f4550 	svcpl	0x005f4550
    44c0:	6e6f6c20 	cdpvs	12, 6, cr6, cr15, cr0, {1}
    44c4:	6e692067 	cdpvs	0, 6, cr2, cr9, cr7, {3}
    44c8:	49550074 	ldmdbmi	r5, {r2, r4, r5, r6}^
    44cc:	414d544e 	cmpmi	sp, lr, asr #8
    44d0:	414d5f58 	cmpmi	sp, r8, asr pc
    44d4:	5f282058 	svcpl	0x00282058
    44d8:	4e49555f 	mcrmi	5, 2, r5, cr9, cr15, {2}
    44dc:	58414d54 	stmdapl	r1, {r2, r4, r6, r8, sl, fp, lr}^
    44e0:	58414d5f 	stmdapl	r1, {r0, r1, r2, r3, r4, r6, r8, sl, fp, lr}^
    44e4:	00295f5f 	eoreq	r5, r9, pc, asr pc
    44e8:	52415355 	subpl	r5, r1, #1409286145	; 0x54000001
    44ec:	495f3354 	ldmdbmi	pc, {r2, r4, r6, r8, r9, ip, sp}^	; <UNPREDICTABLE>
    44f0:	33205152 			; <UNDEFINED> instruction: 0x33205152
    44f4:	58450039 	stmdapl	r5, {r0, r3, r4, r5}^
    44f8:	50354954 	eorspl	r4, r5, r4, asr r9
    44fc:	28203542 	stmdacs	r0!, {r1, r6, r8, sl, ip, sp}
    4500:	49545845 	ldmdbmi	r4, {r0, r2, r6, fp, ip, lr}^
    4504:	4950475f 	ldmdbmi	r0, {r0, r1, r2, r3, r4, r6, r8, r9, sl, lr}^
    4508:	614d5f4f 	cmpvs	sp, pc, asr #30
    450c:	6e697070 	mcrvs	0, 3, r7, cr9, cr0, {3}
    4510:	29745f67 	ldmdbcs	r4!, {r0, r1, r2, r5, r6, r8, r9, sl, fp, ip, lr}^
    4514:	5458457b 	ldrbpl	r4, [r8], #-1403	; 0xfffffa85
    4518:	202c3549 	eorcs	r3, ip, r9, asr #10
    451c:	4f495047 	svcmi	0x00495047
    4520:	47202c42 	strmi	r2, [r0, -r2, asr #24]!
    4524:	5f4f4950 	svcpl	0x004f4950
    4528:	5f4e4950 	svcpl	0x004e4950
    452c:	45202c35 	strmi	r2, [r0, #-3125]!	; 0xfffff3cb
    4530:	35495458 	strbcc	r5, [r9, #-1112]	; 0xfffffba8
    4534:	5152495f 	cmppl	r2, pc, asr r9
    4538:	5f5f007d 	svcpl	0x005f007d
    453c:	43434155 	movtmi	r4, #12629	; 0x3155
    4540:	4d5f4d55 	ldclmi	13, cr4, [pc, #-340]	; 43f4 <_Min_Stack_Size+0x3ff4>
    4544:	5f5f5841 	svcpl	0x005f5841
    4548:	46583020 	ldrbmi	r3, [r8], -r0, lsr #32
    454c:	46464646 	strbmi	r4, [r6], -r6, asr #12
    4550:	50464646 	subpl	r4, r6, r6, asr #12
    4554:	5536312d 	ldrpl	r3, [r6, #-301]!	; 0xfffffed3
    4558:	5f5f004b 	svcpl	0x005f004b
    455c:	535f4343 	cmppl	pc, #201326593	; 0xc000001
    4560:	4f505055 	svcmi	0x00505055
    4564:	5f535452 	svcpl	0x00535452
    4568:	55465f5f 	strbpl	r5, [r6, #-3935]	; 0xfffff0a1
    456c:	5f5f434e 	svcpl	0x005f434e
    4570:	5f003120 	svcpl	0x00003120
    4574:	544c465f 	strbpl	r4, [ip], #-1631	; 0xfffff9a1
    4578:	4e5f3436 	mrcmi	4, 2, r3, cr15, cr6, {1}
    457c:	5f4d524f 	svcpl	0x004d524f
    4580:	5f58414d 	svcpl	0x0058414d
    4584:	2e31205f 	mrccs	0, 1, r2, cr1, cr15, {2}
    4588:	36373937 			; <UNDEFINED> instruction: 0x36373937
    458c:	33313339 	teqcc	r1, #-469762048	; 0xe4000000
    4590:	32363834 	eorscc	r3, r6, #52, 16	; 0x340000
    4594:	37353133 			; <UNDEFINED> instruction: 0x37353133
    4598:	30332b65 	eorscc	r2, r3, r5, ror #22
    459c:	34364638 	ldrtcc	r4, [r6], #-1592	; 0xfffff9c8
    45a0:	475f5f00 	ldrbmi	r5, [pc, -r0, lsl #30]
    45a4:	4c43554e 	cfstr64mi	mvdx5, [r3], {78}	; 0x4e
    45a8:	5f454b49 	svcpl	0x00454b49
    45ac:	4854414d 	ldmdami	r4, {r0, r2, r3, r6, r8, lr}^
    45b0:	4955425f 	ldmdbmi	r5, {r0, r1, r2, r3, r4, r6, r9, lr}^
    45b4:	4e49544c 	cdpmi	4, 4, cr5, cr9, cr12, {2}
    45b8:	4e4f435f 	mcrmi	3, 2, r4, cr15, cr15, {2}
    45bc:	4e415453 	mcrmi	4, 2, r5, cr1, cr3, {2}
    45c0:	00205354 	eoreq	r5, r0, r4, asr r3
    45c4:	4545525f 	strbmi	r5, [r5, #-607]	; 0xfffffda1
    45c8:	415f544e 	cmpmi	pc, lr, asr #8
    45cc:	49544353 	ldmdbmi	r4, {r0, r1, r4, r6, r8, r9, lr}^
    45d0:	425f454d 	subsmi	r4, pc, #322961408	; 0x13400000
    45d4:	70284655 	eorvc	r4, r8, r5, asr r6
    45d8:	20297274 	eorcs	r7, r9, r4, ror r2
    45dc:	74702828 	ldrbtvc	r2, [r0], #-2088	; 0xfffff7d8
    45e0:	3e2d2972 			; <UNDEFINED> instruction: 0x3e2d2972
    45e4:	6373615f 	cmnvs	r3, #-1073741801	; 0xc0000017
    45e8:	656d6974 	strbvs	r6, [sp, #-2420]!	; 0xfffff68c
    45ec:	6675625f 			; <UNDEFINED> instruction: 0x6675625f
    45f0:	545f0029 	ldrbpl	r0, [pc], #-41	; 45f8 <_Min_Stack_Size+0x41f8>
    45f4:	5254505f 	subspl	r5, r4, #95	; 0x5f
    45f8:	46464944 	strbmi	r4, [r6], -r4, asr #18
    45fc:	5f00205f 	svcpl	0x0000205f
    4600:	42444c5f 	submi	r4, r4, #24320	; 0x5f00
    4604:	45445f4c 	strbmi	r5, [r4, #-3916]	; 0xfffff0b4
    4608:	4d524f4e 	ldclmi	15, cr4, [r2, #-312]	; 0xfffffec8
    460c:	4e494d5f 	mcrmi	13, 2, r4, cr9, cr15, {2}
    4610:	34205f5f 	strtcc	r5, [r0], #-3935	; 0xfffff0a1
    4614:	3034392e 	eorscc	r3, r4, lr, lsr #18
    4618:	34363536 	ldrtcc	r3, [r6], #-1334	; 0xfffffaca
    461c:	31343835 	teqcc	r4, r5, lsr r8
    4620:	35363432 	ldrcc	r3, [r6, #-1074]!	; 0xfffffbce
    4624:	332d6534 			; <UNDEFINED> instruction: 0x332d6534
    4628:	004c3432 	subeq	r3, ip, r2, lsr r4
    462c:	4e495f5f 	mcrmi	15, 2, r5, cr9, cr15, {2}
    4630:	5f343654 	svcpl	0x00343654
    4634:	5f58414d 	svcpl	0x0058414d
    4638:	7830205f 	ldmdavc	r0!, {r0, r1, r2, r3, r4, r6, sp}
    463c:	66666637 			; <UNDEFINED> instruction: 0x66666637
    4640:	66666666 	strbtvs	r6, [r6], -r6, ror #12
    4644:	66666666 	strbtvs	r6, [r6], -r6, ror #12
    4648:	66666666 	strbtvs	r6, [r6], -r6, ror #12
    464c:	61004c4c 	tstvs	r0, ip, asr #24
    4650:	72657373 	rsbvc	r7, r5, #-872415231	; 0xcc000001
    4654:	5f5f2874 	svcpl	0x005f2874
    4658:	28202965 	stmdacs	r0!, {r0, r2, r5, r6, r8, fp, sp}
    465c:	655f5f28 	ldrbvs	r5, [pc, #-3880]	; 373c <_Min_Stack_Size+0x333c>
    4660:	203f2029 	eorscs	r2, pc, r9, lsr #32
    4664:	696f7628 	stmdbvs	pc!, {r3, r5, r9, sl, ip, sp, lr}^	; <UNPREDICTABLE>
    4668:	20302964 	eorscs	r2, r0, r4, ror #18
    466c:	5f5f203a 	svcpl	0x005f203a
    4670:	65737361 	ldrbvs	r7, [r3, #-865]!	; 0xfffffc9f
    4674:	665f7472 			; <UNDEFINED> instruction: 0x665f7472
    4678:	20636e75 	rsbcs	r6, r3, r5, ror lr
    467c:	465f5f28 	ldrbmi	r5, [pc], -r8, lsr #30
    4680:	5f454c49 	svcpl	0x00454c49
    4684:	5f202c5f 	svcpl	0x00202c5f
    4688:	4e494c5f 	mcrmi	12, 2, r4, cr9, cr15, {2}
    468c:	2c5f5f45 	mrrccs	15, 4, r5, pc, cr5	; <UNPREDICTABLE>
    4690:	415f5f20 	cmpmi	pc, r0, lsr #30
    4694:	52455353 	subpl	r5, r5, #1275068417	; 0x4c000001
    4698:	55465f54 	strbpl	r5, [r6, #-3924]	; 0xfffff0ac
    469c:	202c434e 	eorcs	r4, ip, lr, asr #6
    46a0:	655f5f23 	ldrbvs	r5, [pc, #-3875]	; 3785 <_Min_Stack_Size+0x3385>
    46a4:	5f002929 	svcpl	0x00002929
    46a8:	4c4c555f 	cfstr64mi	mvdx5, [ip], {95}	; 0x5f
    46ac:	43415246 	movtmi	r5, #4678	; 0x1246
    46b0:	42495f54 	submi	r5, r9, #84, 30	; 0x150
    46b4:	5f5f5449 	svcpl	0x005f5449
    46b8:	5f003020 	svcpl	0x00003020
    46bc:	49534e41 	ldmdbmi	r3, {r0, r6, r9, sl, fp, lr}^
    46c0:	4454535f 	ldrbmi	r5, [r4], #-863	; 0xfffffca1
    46c4:	5f464544 	svcpl	0x00464544
    46c8:	47002048 	strmi	r2, [r0, -r8, asr #32]
    46cc:	5f4f4950 	svcpl	0x004f4950
    46d0:	5f4e4950 	svcpl	0x004e4950
    46d4:	28282036 	stmdacs	r8!, {r1, r2, r4, r5, sp}
    46d8:	746e6975 	strbtvc	r6, [lr], #-2421	; 0xfffff68b
    46dc:	745f3631 	ldrbvc	r3, [pc], #-1585	; 46e4 <_Min_Stack_Size+0x42e4>
    46e0:	78302029 	ldmdavc	r0!, {r0, r3, r5, sp}
    46e4:	30343030 	eorscc	r3, r4, r0, lsr r0
    46e8:	564e0029 	strbpl	r0, [lr], -r9, lsr #32
    46ec:	495f4349 	ldmdbmi	pc, {r0, r3, r6, r8, r9, lr}^	; <UNPREDICTABLE>
    46f0:	30524553 	subscc	r4, r2, r3, asr r5
    46f4:	76282a20 	strtvc	r2, [r8], -r0, lsr #20
    46f8:	74616c6f 	strbtvc	r6, [r1], #-3183	; 0xfffff391
    46fc:	20656c69 	rsbcs	r6, r5, r9, ror #24
    4700:	746e6975 	strbtvc	r6, [lr], #-2421	; 0xfffff68b
    4704:	745f3233 	ldrbvc	r3, [pc], #-563	; 470c <_Min_Stack_Size+0x430c>
    4708:	2829202a 	stmdacs	r9!, {r1, r3, r5, sp}
    470c:	4349564e 	movtmi	r5, #38478	; 0x964e
    4710:	7361425f 	cmnvc	r1, #-268435451	; 0xf0000005
    4714:	302b2065 	eorcc	r2, fp, r5, rrx
    4718:	30303078 	eorscc	r3, r0, r8, ror r0
    471c:	5f5f0029 	svcpl	0x005f0029
    4720:	43554e47 	cmpmi	r5, #1136	; 0x470
    4724:	31205f5f 			; <UNDEFINED> instruction: 0x31205f5f
    4728:	525f0030 	subspl	r0, pc, #48	; 0x30
    472c:	544e4545 	strbpl	r4, [lr], #-1349	; 0xfffffabb
    4730:	5243575f 	subpl	r5, r3, #24903680	; 0x17c0000
    4734:	424d4f54 	submi	r4, sp, #84, 30	; 0x150
    4738:	4154535f 	cmpmi	r4, pc, asr r3
    473c:	70284554 	eorvc	r4, r8, r4, asr r5
    4740:	20297274 	eorcs	r7, r9, r4, ror r2
    4744:	74702828 	ldrbtvc	r2, [r0], #-2088	; 0xfffff7d8
    4748:	3e2d2972 			; <UNDEFINED> instruction: 0x3e2d2972
    474c:	73696d5f 	cmnvc	r9, #6080	; 0x17c0
    4750:	5f3e2d63 	svcpl	0x003e2d63
    4754:	74726377 	ldrbtvc	r6, [r2], #-887	; 0xfffffc89
    4758:	5f626d6f 	svcpl	0x00626d6f
    475c:	74617473 	strbtvc	r7, [r1], #-1139	; 0xfffffb8d
    4760:	5f002965 	svcpl	0x00002965
    4764:	6c6c615f 	stfvse	f6, [ip], #-380	; 0xfffffe84
    4768:	735f636f 	cmpvc	pc, #-1140850687	; 0xbc000001
    476c:	28657a69 	stmdacs	r5!, {r0, r3, r5, r6, r9, fp, ip, sp, lr}^
    4770:	5f202978 	svcpl	0x00202978
    4774:	7474615f 	ldrbtvc	r6, [r4], #-351	; 0xfffffea1
    4778:	75626972 	strbvc	r6, [r2, #-2418]!	; 0xfffff68e
    477c:	5f5f6574 	svcpl	0x005f6574
    4780:	5f5f2828 	svcpl	0x005f2828
    4784:	6f6c6c61 	svcvs	0x006c6c61
    4788:	69735f63 	ldmdbvs	r3!, {r0, r1, r5, r6, r8, r9, sl, fp, ip, lr}^
    478c:	5f5f657a 	svcpl	0x005f657a
    4790:	29297828 	stmdbcs	r9!, {r3, r5, fp, ip, sp, lr}
    4794:	5f5f0029 	svcpl	0x005f0029
    4798:	474e4f4c 	strbmi	r4, [lr, -ip, asr #30]
    479c:	4449575f 	strbmi	r5, [r9], #-1887	; 0xfffff8a1
    47a0:	5f5f4854 	svcpl	0x005f4854
    47a4:	00323320 	eorseq	r3, r2, r0, lsr #6
    47a8:	346d6954 	strbtcc	r6, [sp], #-2388	; 0xfffff6ac
    47ac:	54282820 	strtpl	r2, [r8], #-2080	; 0xfffff7e0
    47b0:	74324d49 	ldrtvc	r4, [r2], #-3401	; 0xfffff2b7
    47b4:	79545f35 	ldmdbvc	r4, {r0, r2, r4, r5, r8, r9, sl, fp, ip, lr}^
    47b8:	65446570 	strbvs	r6, [r4, #-1392]	; 0xfffffa90
    47bc:	2a745f66 	bcs	1d1c55c <_Min_Stack_Size+0x1d1c15c>
    47c0:	4d495429 	cfstrdmi	mvd5, [r9, #-164]	; 0xffffff5c
    47c4:	41425f34 	cmpmi	r2, r4, lsr pc
    47c8:	00294553 	eoreq	r4, r9, r3, asr r5
    47cc:	4c465f5f 	mcrrmi	15, 5, r5, r6, cr15
    47d0:	414d5f54 	cmpmi	sp, r4, asr pc
    47d4:	205f5f58 	subscs	r5, pc, r8, asr pc	; <UNPREDICTABLE>
    47d8:	30342e33 	eorscc	r2, r4, r3, lsr lr
    47dc:	33323832 	teqcc	r2, #3276800	; 0x320000
    47e0:	33363634 	teqcc	r6, #52, 12	; 0x3400000
    47e4:	38323538 	ldmdacc	r2!, {r3, r4, r5, r8, sl, ip, sp}
    47e8:	2b653638 	blcs	19520d0 <_Min_Stack_Size+0x1951cd0>
    47ec:	00463833 	subeq	r3, r6, r3, lsr r8
    47f0:	4f495047 	svcmi	0x00495047
    47f4:	41425f46 	cmpmi	r2, r6, asr #30
    47f8:	30204553 	eorcc	r4, r0, r3, asr r5
    47fc:	30303478 	eorscc	r3, r0, r8, ror r4
    4800:	30433131 	subcc	r3, r3, r1, lsr r1
    4804:	5f007530 	svcpl	0x00007530
    4808:	4341555f 	movtmi	r5, #5471	; 0x155f
    480c:	5f4d5543 	svcpl	0x004d5543
    4810:	54494246 	strbpl	r4, [r9], #-582	; 0xfffffdba
    4814:	31205f5f 			; <UNDEFINED> instruction: 0x31205f5f
    4818:	5f5f0036 	svcpl	0x005f0036
    481c:	6e726177 	mrcvs	1, 3, r6, cr2, cr7, {3}
    4820:	6665725f 			; <UNDEFINED> instruction: 0x6665725f
    4824:	6e657265 	cdpvs	2, 6, cr7, cr5, cr5, {3}
    4828:	28736563 	ldmdacs	r3!, {r0, r1, r5, r6, r8, sl, sp, lr}^
    482c:	2c6d7973 			; <UNDEFINED> instruction: 0x2c6d7973
    4830:	2967736d 	stmdbcs	r7!, {r0, r2, r3, r5, r6, r8, r9, ip, sp, lr}^
    4834:	615f5f20 	cmpvs	pc, r0, lsr #30
    4838:	5f5f6d73 	svcpl	0x005f6d73
    483c:	732e2228 			; <UNDEFINED> instruction: 0x732e2228
    4840:	69746365 	ldmdbvs	r4!, {r0, r2, r5, r6, r8, r9, sp, lr}^
    4844:	2e206e6f 	cdpcs	14, 2, cr6, cr0, cr15, {3}
    4848:	2e756e67 	cdpcs	14, 7, cr6, cr5, cr7, {3}
    484c:	6e726177 	mrcvs	1, 3, r6, cr2, cr7, {3}
    4850:	2e676e69 	cdpcs	14, 6, cr6, cr7, cr9, {3}
    4854:	73232022 			; <UNDEFINED> instruction: 0x73232022
    4858:	3b296d79 	blcc	a5fe44 <_Min_Stack_Size+0xa5fa44>
    485c:	615f5f20 	cmpvs	pc, r0, lsr #30
    4860:	5f5f6d73 	svcpl	0x005f6d73
    4864:	612e2228 			; <UNDEFINED> instruction: 0x612e2228
    4868:	7a696373 	bvc	1a5d63c <_Min_Stack_Size+0x1a5d23c>
    486c:	22225c20 	eorcs	r5, r2, #32, 24	; 0x2000
    4870:	67736d20 	ldrbvs	r6, [r3, -r0, lsr #26]!
    4874:	225c2220 	subscs	r2, ip, #32, 4
    4878:	203b2922 	eorscs	r2, fp, r2, lsr #18
    487c:	73615f5f 	cmnvc	r1, #380	; 0x17c
    4880:	285f5f6d 	ldmdacs	pc, {r0, r2, r3, r5, r6, r8, r9, sl, fp, ip, lr}^	; <UNPREDICTABLE>
    4884:	72702e22 	rsbsvc	r2, r0, #544	; 0x220
    4888:	6f697665 	svcvs	0x00697665
    488c:	29227375 	stmdbcs	r2!, {r0, r2, r4, r5, r6, r8, r9, ip, sp, lr}
    4890:	555f5f00 	ldrbpl	r5, [pc, #-3840]	; 3998 <_Min_Stack_Size+0x3598>
    4894:	43415246 	movtmi	r5, #4678	; 0x1246
    4898:	50455f54 	subpl	r5, r5, r4, asr pc
    489c:	4f4c4953 	svcmi	0x004c4953
    48a0:	205f5f4e 	subscs	r5, pc, lr, asr #30
    48a4:	50317830 	eorspl	r7, r1, r0, lsr r8
    48a8:	5536312d 	ldrpl	r3, [r6, #-301]!	; 0xfffffed3
    48ac:	5f5f0052 	svcpl	0x005f0052
    48b0:	41484357 	cmpmi	r8, r7, asr r3
    48b4:	494d5f52 	stmdbmi	sp, {r1, r4, r6, r8, r9, sl, fp, ip, lr}^
    48b8:	205f5f4e 	subscs	r5, pc, lr, asr #30
    48bc:	5f005530 	svcpl	0x00005530
    48c0:	5151555f 	cmppl	r1, pc, asr r5
    48c4:	4942495f 	stmdbmi	r2, {r0, r1, r2, r3, r4, r6, r8, fp, lr}^
    48c8:	205f5f54 	subscs	r5, pc, r4, asr pc	; <UNPREDICTABLE>
    48cc:	4e5f0030 	mrcmi	0, 2, r0, cr15, cr0, {1}
    48d0:	494c5745 	stmdbmi	ip, {r0, r2, r6, r8, r9, sl, ip, lr}^
    48d4:	45565f42 	ldrbmi	r5, [r6, #-3906]	; 0xfffff0be
    48d8:	4f495352 	svcmi	0x00495352
    48dc:	5f485f4e 	svcpl	0x00485f4e
    48e0:	0031205f 	eorseq	r2, r1, pc, asr r0
    48e4:	43475f5f 	movtmi	r5, #32607	; 0x7f5f
    48e8:	54415f43 	strbpl	r5, [r1], #-3907	; 0xfffff0bd
    48ec:	43494d4f 	movtmi	r4, #40271	; 0x9d4f
    48f0:	4e4f4c5f 	mcrmi	12, 2, r4, cr15, cr15, {2}
    48f4:	4f4c5f47 	svcmi	0x004c5f47
    48f8:	465f4b43 	ldrbmi	r4, [pc], -r3, asr #22
    48fc:	20454552 	subcs	r4, r5, r2, asr r5
    4900:	5f5f0032 	svcpl	0x005f0032
    4904:	43414c55 	movtmi	r4, #7253	; 0x1c55
    4908:	5f4d5543 	svcpl	0x004d5543
    490c:	5f4e494d 	svcpl	0x004e494d
    4910:	2e30205f 	mrccs	0, 1, r2, cr0, cr15, {2}
    4914:	4b4c5530 	blmi	1319ddc <_Min_Stack_Size+0x13199dc>
    4918:	54415f00 	strbpl	r5, [r1], #-3840	; 0xfffff100
    491c:	54495845 	strbpl	r5, [r9], #-2117	; 0xfffff7bb
    4920:	4e59445f 	mrcmi	4, 2, r4, cr9, cr15, {2}
    4924:	43494d41 	movtmi	r4, #40257	; 0x9d41
    4928:	4c4c415f 	stfmie	f4, [ip], {95}	; 0x5f
    492c:	3120434f 			; <UNDEFINED> instruction: 0x3120434f
    4930:	6e5f5f00 	cdpvs	15, 5, cr5, cr15, cr0, {0}
    4934:	5f646565 	svcpl	0x00646565
    4938:	657a6973 	ldrbvs	r6, [sl, #-2419]!	; 0xfffff68d
    493c:	5f00745f 	svcpl	0x0000745f
    4940:	42444c5f 	submi	r4, r4, #24320	; 0x5f00
    4944:	414d5f4c 	cmpmi	sp, ip, asr #30
    4948:	205f5f58 	subscs	r5, pc, r8, asr pc	; <UNPREDICTABLE>
    494c:	39372e31 	ldmdbcc	r7!, {r0, r4, r5, r9, sl, fp, sp}
    4950:	33393637 	teqcc	r9, #57671680	; 0x3700000
    4954:	38343331 	ldmdacc	r4!, {r0, r4, r5, r8, r9, ip, sp}
    4958:	31333236 	teqcc	r3, r6, lsr r2
    495c:	2b653735 	blcs	1952638 <_Min_Stack_Size+0x1952238>
    4960:	4c383033 	ldcmi	0, cr3, [r8], #-204	; 0xffffff34
    4964:	415f5f00 	cmpmi	pc, r0, lsl #30
    4968:	415f4d52 	cmpmi	pc, r2, asr sp	; <UNPREDICTABLE>
    496c:	20484352 	subcs	r4, r8, r2, asr r3
    4970:	5f5f0037 	svcpl	0x005f0037
    4974:	5f544c46 	svcpl	0x00544c46
    4978:	49444152 	stmdbmi	r4, {r1, r4, r6, r8, lr}^
    497c:	205f5f58 	subscs	r5, pc, r8, asr pc	; <UNPREDICTABLE>
    4980:	50470032 	subpl	r0, r7, r2, lsr r0
    4984:	5f454f49 	svcpl	0x00454f49
    4988:	45534142 	ldrbmi	r4, [r3, #-322]	; 0xfffffebe
    498c:	34783020 	ldrbtcc	r3, [r8], #-32	; 0xffffffe0
    4990:	31313030 	teqcc	r1, r0, lsr r0
    4994:	75303038 	ldrvc	r3, [r0, #-56]!	; 0xffffffc8
    4998:	544e4900 	strbpl	r4, [lr], #-2304	; 0xfffff700
    499c:	4d5f3436 	cfldrdmi	mvd3, [pc, #-216]	; 48cc <_Min_Stack_Size+0x44cc>
    49a0:	28205841 	stmdacs	r0!, {r0, r6, fp, ip, lr}
    49a4:	4e495f5f 	mcrmi	15, 2, r5, cr9, cr15, {2}
    49a8:	5f343654 	svcpl	0x00343654
    49ac:	5f58414d 	svcpl	0x0058414d
    49b0:	5f00295f 	svcpl	0x0000295f
    49b4:	4d52415f 	ldfmie	f4, [r2, #-380]	; 0xfffffe84
    49b8:	4145465f 	cmpmi	r5, pc, asr r6
    49bc:	45525554 	ldrbmi	r5, [r2, #-1364]	; 0xfffffaac
    49c0:	534d435f 	movtpl	r4, #54111	; 0xd35f
    49c4:	564e0045 	strbpl	r0, [lr], -r5, asr #32
    49c8:	555f4349 	ldrbpl	r4, [pc, #-841]	; 4687 <_Min_Stack_Size+0x4287>
    49cc:	54524153 	ldrbpl	r4, [r2], #-339	; 0xfffffead
    49d0:	52495f33 	subpl	r5, r9, #51, 30	; 0xcc
    49d4:	69445f51 	stmdbvs	r4, {r0, r4, r6, r8, r9, sl, fp, ip, lr}^
    49d8:	6c626173 	stfvse	f6, [r2], #-460	; 0xfffffe34
    49dc:	4e282065 	cdpmi	0, 2, cr2, cr8, cr5, {3}
    49e0:	5f434956 	svcpl	0x00434956
    49e4:	52454349 	subpl	r4, r5, #603979777	; 0x24000001
    49e8:	3d7c2031 	ldclcc	0, cr2, [ip, #-196]!	; 0xffffff3c
    49ec:	3c3c3120 	ldfccs	f3, [ip], #-128	; 0xffffff80
    49f0:	41535528 	cmpmi	r3, r8, lsr #10
    49f4:	5f335452 	svcpl	0x00335452
    49f8:	20515249 	subscs	r5, r1, r9, asr #4
    49fc:	3233202d 	eorscc	r2, r3, #45	; 0x2d
    4a00:	5f002929 	svcpl	0x00002929
    4a04:	43414c5f 	movtmi	r4, #7263	; 0x1c5f
    4a08:	5f4d5543 	svcpl	0x004d5543
    4a0c:	49535045 	ldmdbmi	r3, {r0, r2, r6, ip, lr}^
    4a10:	5f4e4f4c 	svcpl	0x004e4f4c
    4a14:	7830205f 	ldmdavc	r0!, {r0, r1, r2, r3, r4, r6, sp}
    4a18:	332d5031 			; <UNDEFINED> instruction: 0x332d5031
    4a1c:	004b4c31 	subeq	r4, fp, r1, lsr ip
    4a20:	43475f5f 	movtmi	r5, #32607	; 0x7f5f
    4a24:	54415f43 	strbpl	r5, [r1], #-3907	; 0xfffff0bd
    4a28:	43494d4f 	movtmi	r4, #40271	; 0x9d4f
    4a2c:	4f4f425f 	svcmi	0x004f425f
    4a30:	4f4c5f4c 	svcmi	0x004c5f4c
    4a34:	465f4b43 	ldrbmi	r4, [pc], -r3, asr #22
    4a38:	20454552 	subcs	r4, r5, r2, asr r5
    4a3c:	5f5f0032 	svcpl	0x005f0032
    4a40:	61686377 	smcvs	34359	; 0x8637
    4a44:	5f745f72 	svcpl	0x00745f72
    4a48:	5f00205f 	svcpl	0x0000205f
    4a4c:	4e454552 	mcrmi	5, 2, r4, cr5, cr2, {2}
    4a50:	4e495f54 	mcrmi	15, 2, r5, cr9, cr4, {2}
    4a54:	4d5f5449 	cfldrdmi	mvd5, [pc, #-292]	; 4938 <_Min_Stack_Size+0x4538>
    4a58:	28435349 	stmdacs	r3, {r0, r3, r6, r8, r9, ip, lr}^
    4a5c:	29726176 	ldmdbcs	r2!, {r1, r2, r4, r5, r6, r8, sp, lr}^
    4a60:	206f6420 	rsbcs	r6, pc, r0, lsr #8
    4a64:	7473207b 	ldrbtvc	r2, [r3], #-123	; 0xffffff85
    4a68:	74637572 	strbtvc	r7, [r3], #-1394	; 0xfffffa8e
    4a6c:	65725f20 	ldrbvs	r5, [r2, #-3872]!	; 0xfffff0e0
    4a70:	20746e65 	rsbscs	r6, r4, r5, ror #28
    4a74:	20725f2a 	rsbscs	r5, r2, sl, lsr #30
    4a78:	7628203d 			; <UNDEFINED> instruction: 0x7628203d
    4a7c:	3b297261 	blcc	a61408 <_Min_Stack_Size+0xa61008>
    4a80:	2d725f20 	ldclcs	15, cr5, [r2, #-128]!	; 0xffffff80
    4a84:	696d5f3e 	stmdbvs	sp!, {r1, r2, r3, r4, r5, r8, r9, sl, fp, ip, lr}^
    4a88:	3e2d6373 	mcrcc	3, 1, r6, cr13, cr3, {3}
    4a8c:	7274735f 	rsbsvc	r7, r4, #2080374785	; 0x7c000001
    4a90:	5f6b6f74 	svcpl	0x006b6f74
    4a94:	7473616c 	ldrbtvc	r6, [r3], #-364	; 0xfffffe94
    4a98:	5f203d20 	svcpl	0x00203d20
    4a9c:	4c4c554e 	cfstr64mi	mvdx5, [ip], {78}	; 0x4e
    4aa0:	725f203b 	subsvc	r2, pc, #59	; 0x3b
    4aa4:	6d5f3e2d 	ldclvs	14, cr3, [pc, #-180]	; 49f8 <_Min_Stack_Size+0x45f8>
    4aa8:	2d637369 	stclcs	3, cr7, [r3, #-420]!	; 0xfffffe5c
    4aac:	626d5f3e 	rsbvs	r5, sp, #62, 30	; 0xf8
    4ab0:	5f6e656c 	svcpl	0x006e656c
    4ab4:	74617473 	strbtvc	r7, [r1], #-1139	; 0xfffffb8d
    4ab8:	5f5f2e65 	svcpl	0x005f2e65
    4abc:	6e756f63 	cdpvs	15, 7, cr6, cr5, cr3, {3}
    4ac0:	203d2074 	eorscs	r2, sp, r4, ror r0
    4ac4:	5f203b30 	svcpl	0x00203b30
    4ac8:	5f3e2d72 	svcpl	0x003e2d72
    4acc:	6373696d 	cmnvs	r3, #1785856	; 0x1b4000
    4ad0:	6d5f3e2d 	ldclvs	14, cr3, [pc, #-180]	; 4a24 <_Min_Stack_Size+0x4624>
    4ad4:	6e656c62 	cdpvs	12, 6, cr6, cr5, cr2, {3}
    4ad8:	6174735f 	cmnvs	r4, pc, asr r3
    4adc:	5f2e6574 	svcpl	0x002e6574
    4ae0:	6c61765f 	stclvs	6, cr7, [r1], #-380	; 0xfffffe84
    4ae4:	5f2e6575 	svcpl	0x002e6575
    4ae8:	6863775f 	stmdavs	r3!, {r0, r1, r2, r3, r4, r6, r8, r9, sl, ip, sp, lr}^
    4aec:	30203d20 	eorcc	r3, r0, r0, lsr #26
    4af0:	725f203b 	subsvc	r2, pc, #59	; 0x3b
    4af4:	6d5f3e2d 	ldclvs	14, cr3, [pc, #-180]	; 4a48 <_Min_Stack_Size+0x4648>
    4af8:	2d637369 	stclcs	3, cr7, [r3, #-420]!	; 0xfffffe5c
    4afc:	63775f3e 	cmnvs	r7, #62, 30	; 0xf8
    4b00:	626d6f74 	rsbvs	r6, sp, #116, 30	; 0x1d0
    4b04:	6174735f 	cmnvs	r4, pc, asr r3
    4b08:	5f2e6574 	svcpl	0x002e6574
    4b0c:	756f635f 	strbvc	r6, [pc, #-863]!	; 47b5 <_Min_Stack_Size+0x43b5>
    4b10:	3d20746e 	cfstrscc	mvf7, [r0, #-440]!	; 0xfffffe48
    4b14:	203b3020 	eorscs	r3, fp, r0, lsr #32
    4b18:	3e2d725f 	mcrcc	2, 1, r7, cr13, cr15, {2}
    4b1c:	73696d5f 	cmnvc	r9, #6080	; 0x17c0
    4b20:	5f3e2d63 	svcpl	0x003e2d63
    4b24:	6f746377 	svcvs	0x00746377
    4b28:	735f626d 	cmpvc	pc, #-805306362	; 0xd0000006
    4b2c:	65746174 	ldrbvs	r6, [r4, #-372]!	; 0xfffffe8c
    4b30:	765f5f2e 	ldrbvc	r5, [pc], -lr, lsr #30
    4b34:	65756c61 	ldrbvs	r6, [r5, #-3169]!	; 0xfffff39f
    4b38:	775f5f2e 	ldrbvc	r5, [pc, -lr, lsr #30]
    4b3c:	3d206863 	stccc	8, cr6, [r0, #-396]!	; 0xfffffe74
    4b40:	203b3020 	eorscs	r3, fp, r0, lsr #32
    4b44:	3e2d725f 	mcrcc	2, 1, r7, cr13, cr15, {2}
    4b48:	73696d5f 	cmnvc	r9, #6080	; 0x17c0
    4b4c:	5f3e2d63 	svcpl	0x003e2d63
    4b50:	6f74626d 	svcvs	0x0074626d
    4b54:	735f6377 	cmpvc	pc, #-603979775	; 0xdc000001
    4b58:	65746174 	ldrbvs	r6, [r4, #-372]!	; 0xfffffe8c
    4b5c:	635f5f2e 	cmpvs	pc, #46, 30	; 0xb8
    4b60:	746e756f 	strbtvc	r7, [lr], #-1391	; 0xfffffa91
    4b64:	30203d20 	eorcc	r3, r0, r0, lsr #26
    4b68:	725f203b 	subsvc	r2, pc, #59	; 0x3b
    4b6c:	6d5f3e2d 	ldclvs	14, cr3, [pc, #-180]	; 4ac0 <_Min_Stack_Size+0x46c0>
    4b70:	2d637369 	stclcs	3, cr7, [r3, #-420]!	; 0xfffffe5c
    4b74:	626d5f3e 	rsbvs	r5, sp, #62, 30	; 0xf8
    4b78:	63776f74 	cmnvs	r7, #116, 30	; 0x1d0
    4b7c:	6174735f 	cmnvs	r4, pc, asr r3
    4b80:	5f2e6574 	svcpl	0x002e6574
    4b84:	6c61765f 	stclvs	6, cr7, [r1], #-380	; 0xfffffe84
    4b88:	5f2e6575 	svcpl	0x002e6575
    4b8c:	6863775f 	stmdavs	r3!, {r0, r1, r2, r3, r4, r6, r8, r9, sl, ip, sp, lr}^
    4b90:	30203d20 	eorcc	r3, r0, r0, lsr #26
    4b94:	725f203b 	subsvc	r2, pc, #59	; 0x3b
    4b98:	6d5f3e2d 	ldclvs	14, cr3, [pc, #-180]	; 4aec <_Min_Stack_Size+0x46ec>
    4b9c:	2d637369 	stclcs	3, cr7, [r3, #-420]!	; 0xfffffe5c
    4ba0:	626d5f3e 	rsbvs	r5, sp, #62, 30	; 0xf8
    4ba4:	6e656c72 	mcrvs	12, 3, r6, cr5, cr2, {3}
    4ba8:	6174735f 	cmnvs	r4, pc, asr r3
    4bac:	5f2e6574 	svcpl	0x002e6574
    4bb0:	756f635f 	strbvc	r6, [pc, #-863]!	; 4859 <_Min_Stack_Size+0x4459>
    4bb4:	3d20746e 	cfstrscc	mvf7, [r0, #-440]!	; 0xfffffe48
    4bb8:	203b3020 	eorscs	r3, fp, r0, lsr #32
    4bbc:	3e2d725f 	mcrcc	2, 1, r7, cr13, cr15, {2}
    4bc0:	73696d5f 	cmnvc	r9, #6080	; 0x17c0
    4bc4:	5f3e2d63 	svcpl	0x003e2d63
    4bc8:	6c72626d 	lfmvs	f6, 2, [r2], #-436	; 0xfffffe4c
    4bcc:	735f6e65 	cmpvc	pc, #1616	; 0x650
    4bd0:	65746174 	ldrbvs	r6, [r4, #-372]!	; 0xfffffe8c
    4bd4:	765f5f2e 	ldrbvc	r5, [pc], -lr, lsr #30
    4bd8:	65756c61 	ldrbvs	r6, [r5, #-3169]!	; 0xfffff39f
    4bdc:	775f5f2e 	ldrbvc	r5, [pc, -lr, lsr #30]
    4be0:	3d206863 	stccc	8, cr6, [r0, #-396]!	; 0xfffffe74
    4be4:	203b3020 	eorscs	r3, fp, r0, lsr #32
    4be8:	3e2d725f 	mcrcc	2, 1, r7, cr13, cr15, {2}
    4bec:	73696d5f 	cmnvc	r9, #6080	; 0x17c0
    4bf0:	5f3e2d63 	svcpl	0x003e2d63
    4bf4:	7472626d 	ldrbtvc	r6, [r2], #-621	; 0xfffffd93
    4bf8:	5f63776f 	svcpl	0x0063776f
    4bfc:	74617473 	strbtvc	r7, [r1], #-1139	; 0xfffffb8d
    4c00:	5f5f2e65 	svcpl	0x005f2e65
    4c04:	6e756f63 	cdpvs	15, 7, cr6, cr5, cr3, {3}
    4c08:	203d2074 	eorscs	r2, sp, r4, ror r0
    4c0c:	5f203b30 	svcpl	0x00203b30
    4c10:	5f3e2d72 	svcpl	0x003e2d72
    4c14:	6373696d 	cmnvs	r3, #1785856	; 0x1b4000
    4c18:	6d5f3e2d 	ldclvs	14, cr3, [pc, #-180]	; 4b6c <_Min_Stack_Size+0x476c>
    4c1c:	6f747262 	svcvs	0x00747262
    4c20:	735f6377 	cmpvc	pc, #-603979775	; 0xdc000001
    4c24:	65746174 	ldrbvs	r6, [r4, #-372]!	; 0xfffffe8c
    4c28:	765f5f2e 	ldrbvc	r5, [pc], -lr, lsr #30
    4c2c:	65756c61 	ldrbvs	r6, [r5, #-3169]!	; 0xfffff39f
    4c30:	775f5f2e 	ldrbvc	r5, [pc, -lr, lsr #30]
    4c34:	3d206863 	stccc	8, cr6, [r0, #-396]!	; 0xfffffe74
    4c38:	203b3020 	eorscs	r3, fp, r0, lsr #32
    4c3c:	3e2d725f 	mcrcc	2, 1, r7, cr13, cr15, {2}
    4c40:	73696d5f 	cmnvc	r9, #6080	; 0x17c0
    4c44:	5f3e2d63 	svcpl	0x003e2d63
    4c48:	7273626d 	rsbsvc	r6, r3, #-805306362	; 0xd0000006
    4c4c:	63776f74 	cmnvs	r7, #116, 30	; 0x1d0
    4c50:	74735f73 	ldrbtvc	r5, [r3], #-3955	; 0xfffff08d
    4c54:	2e657461 	cdpcs	4, 6, cr7, cr5, cr1, {3}
    4c58:	6f635f5f 	svcvs	0x00635f5f
    4c5c:	20746e75 	rsbscs	r6, r4, r5, ror lr
    4c60:	3b30203d 	blcc	c0cd5c <_Min_Stack_Size+0xc0c95c>
    4c64:	2d725f20 	ldclcs	15, cr5, [r2, #-128]!	; 0xffffff80
    4c68:	696d5f3e 	stmdbvs	sp!, {r1, r2, r3, r4, r5, r8, r9, sl, fp, ip, lr}^
    4c6c:	3e2d6373 	mcrcc	3, 1, r6, cr13, cr3, {3}
    4c70:	73626d5f 	cmnvc	r2, #6080	; 0x17c0
    4c74:	776f7472 			; <UNDEFINED> instruction: 0x776f7472
    4c78:	735f7363 	cmpvc	pc, #-1946157055	; 0x8c000001
    4c7c:	65746174 	ldrbvs	r6, [r4, #-372]!	; 0xfffffe8c
    4c80:	765f5f2e 	ldrbvc	r5, [pc], -lr, lsr #30
    4c84:	65756c61 	ldrbvs	r6, [r5, #-3169]!	; 0xfffff39f
    4c88:	775f5f2e 	ldrbvc	r5, [pc, -lr, lsr #30]
    4c8c:	3d206863 	stccc	8, cr6, [r0, #-396]!	; 0xfffffe74
    4c90:	203b3020 	eorscs	r3, fp, r0, lsr #32
    4c94:	3e2d725f 	mcrcc	2, 1, r7, cr13, cr15, {2}
    4c98:	73696d5f 	cmnvc	r9, #6080	; 0x17c0
    4c9c:	5f3e2d63 	svcpl	0x003e2d63
    4ca0:	74726377 	ldrbtvc	r6, [r2], #-887	; 0xfffffc89
    4ca4:	5f626d6f 	svcpl	0x00626d6f
    4ca8:	74617473 	strbtvc	r7, [r1], #-1139	; 0xfffffb8d
    4cac:	5f5f2e65 	svcpl	0x005f2e65
    4cb0:	6e756f63 	cdpvs	15, 7, cr6, cr5, cr3, {3}
    4cb4:	203d2074 	eorscs	r2, sp, r4, ror r0
    4cb8:	5f203b30 	svcpl	0x00203b30
    4cbc:	5f3e2d72 	svcpl	0x003e2d72
    4cc0:	6373696d 	cmnvs	r3, #1785856	; 0x1b4000
    4cc4:	775f3e2d 	ldrbvc	r3, [pc, -sp, lsr #28]
    4cc8:	6f747263 	svcvs	0x00747263
    4ccc:	735f626d 	cmpvc	pc, #-805306362	; 0xd0000006
    4cd0:	65746174 	ldrbvs	r6, [r4, #-372]!	; 0xfffffe8c
    4cd4:	765f5f2e 	ldrbvc	r5, [pc], -lr, lsr #30
    4cd8:	65756c61 	ldrbvs	r6, [r5, #-3169]!	; 0xfffff39f
    4cdc:	775f5f2e 	ldrbvc	r5, [pc, -lr, lsr #30]
    4ce0:	3d206863 	stccc	8, cr6, [r0, #-396]!	; 0xfffffe74
    4ce4:	203b3020 	eorscs	r3, fp, r0, lsr #32
    4ce8:	3e2d725f 	mcrcc	2, 1, r7, cr13, cr15, {2}
    4cec:	73696d5f 	cmnvc	r9, #6080	; 0x17c0
    4cf0:	5f3e2d63 	svcpl	0x003e2d63
    4cf4:	72736377 	rsbsvc	r6, r3, #-603979775	; 0xdc000001
    4cf8:	626d6f74 	rsbvs	r6, sp, #116, 30	; 0x1d0
    4cfc:	74735f73 	ldrbtvc	r5, [r3], #-3955	; 0xfffff08d
    4d00:	2e657461 	cdpcs	4, 6, cr7, cr5, cr1, {3}
    4d04:	6f635f5f 	svcvs	0x00635f5f
    4d08:	20746e75 	rsbscs	r6, r4, r5, ror lr
    4d0c:	3b30203d 	blcc	c0ce08 <_Min_Stack_Size+0xc0ca08>
    4d10:	2d725f20 	ldclcs	15, cr5, [r2, #-128]!	; 0xffffff80
    4d14:	696d5f3e 	stmdbvs	sp!, {r1, r2, r3, r4, r5, r8, r9, sl, fp, ip, lr}^
    4d18:	3e2d6373 	mcrcc	3, 1, r6, cr13, cr3, {3}
    4d1c:	7363775f 	cmnvc	r3, #24903680	; 0x17c0000
    4d20:	6d6f7472 	cfstrdvs	mvd7, [pc, #-456]!	; 4b60 <_Min_Stack_Size+0x4760>
    4d24:	735f7362 	cmpvc	pc, #-2013265919	; 0x88000001
    4d28:	65746174 	ldrbvs	r6, [r4, #-372]!	; 0xfffffe8c
    4d2c:	765f5f2e 	ldrbvc	r5, [pc], -lr, lsr #30
    4d30:	65756c61 	ldrbvs	r6, [r5, #-3169]!	; 0xfffff39f
    4d34:	775f5f2e 	ldrbvc	r5, [pc, -lr, lsr #30]
    4d38:	3d206863 	stccc	8, cr6, [r0, #-396]!	; 0xfffffe74
    4d3c:	203b3020 	eorscs	r3, fp, r0, lsr #32
    4d40:	3e2d725f 	mcrcc	2, 1, r7, cr13, cr15, {2}
    4d44:	73696d5f 	cmnvc	r9, #6080	; 0x17c0
    4d48:	5f3e2d63 	svcpl	0x003e2d63
    4d4c:	6134366c 	teqvs	r4, ip, ror #12
    4d50:	6675625f 			; <UNDEFINED> instruction: 0x6675625f
    4d54:	205d305b 	subscs	r3, sp, fp, asr r0
    4d58:	5c27203d 	stcpl	0, cr2, [r7], #-244	; 0xffffff0c
    4d5c:	203b2730 	eorscs	r2, fp, r0, lsr r7
    4d60:	3e2d725f 	mcrcc	2, 1, r7, cr13, cr15, {2}
    4d64:	73696d5f 	cmnvc	r9, #6080	; 0x17c0
    4d68:	5f3e2d63 	svcpl	0x003e2d63
    4d6c:	64746567 	ldrbtvs	r6, [r4], #-1383	; 0xfffffa99
    4d70:	5f657461 	svcpl	0x00657461
    4d74:	20727265 	rsbscs	r7, r2, r5, ror #4
    4d78:	3b30203d 	blcc	c0ce74 <_Min_Stack_Size+0xc0ca74>
    4d7c:	77207d20 	strvc	r7, [r0, -r0, lsr #26]!
    4d80:	656c6968 	strbvs	r6, [ip, #-2408]!	; 0xfffff698
    4d84:	29302820 	ldmdbcs	r0!, {r5, fp, sp}
    4d88:	4c5f5f00 	mrrcmi	15, 0, r5, pc, cr0	; <UNPREDICTABLE>
    4d8c:	5f474e4f 	svcpl	0x00474e4f
    4d90:	474e4f4c 	strbmi	r4, [lr, -ip, asr #30]
    4d94:	4449575f 	strbmi	r5, [r9], #-1887	; 0xfffff8a1
    4d98:	5f5f4854 	svcpl	0x005f4854
    4d9c:	00343620 	eorseq	r3, r4, r0, lsr #12
    4da0:	49545845 	ldmdbmi	r4, {r0, r2, r6, fp, ip, lr}^
    4da4:	52495f32 	subpl	r5, r9, #50, 30	; 0xc8
    4da8:	00382051 	eorseq	r2, r8, r1, asr r0
    4dac:	544e4957 	strbpl	r4, [lr], #-2391	; 0xfffff6a9
    4db0:	58414d5f 	stmdapl	r1, {r0, r1, r2, r3, r4, r6, r8, sl, fp, lr}^
    4db4:	5f5f2820 	svcpl	0x005f2820
    4db8:	544e4957 	strbpl	r4, [lr], #-2391	; 0xfffff6a9
    4dbc:	58414d5f 	stmdapl	r1, {r0, r1, r2, r3, r4, r6, r8, sl, fp, lr}^
    4dc0:	00295f5f 	eoreq	r5, r9, pc, asr pc
    4dc4:	4f495047 	svcmi	0x00495047
    4dc8:	28282044 	stmdacs	r8!, {r2, r6, sp}
    4dcc:	4f495047 	svcmi	0x00495047
    4dd0:	7079545f 	rsbsvc	r5, r9, pc, asr r4
    4dd4:	66656465 	strbtvs	r6, [r5], -r5, ror #8
    4dd8:	2a20745f 	bcs	821f5c <_Min_Stack_Size+0x821b5c>
    4ddc:	49504729 	ldmdbmi	r0, {r0, r3, r5, r8, r9, sl, lr}^
    4de0:	425f444f 	subsmi	r4, pc, #1325400064	; 0x4f000000
    4de4:	29455341 	stmdbcs	r5, {r0, r6, r8, r9, ip, lr}^
    4de8:	555f5f00 	ldrbpl	r5, [pc, #-3840]	; 3ef0 <_Min_Stack_Size+0x3af0>
    4dec:	5f544e49 	svcpl	0x00544e49
    4df0:	54534146 	ldrbpl	r4, [r3], #-326	; 0xfffffeba
    4df4:	4d5f3436 	cfldrdmi	mvd3, [pc, #-216]	; 4d24 <_Min_Stack_Size+0x4924>
    4df8:	5f5f5841 	svcpl	0x005f5841
    4dfc:	66783020 	ldrbtvs	r3, [r8], -r0, lsr #32
    4e00:	66666666 	strbtvs	r6, [r6], -r6, ror #12
    4e04:	66666666 	strbtvs	r6, [r6], -r6, ror #12
    4e08:	66666666 	strbtvs	r6, [r6], -r6, ror #12
    4e0c:	55666666 	strbpl	r6, [r6, #-1638]!	; 0xfffff99a
    4e10:	5f004c4c 	svcpl	0x00004c4c
    4e14:	4d52415f 	ldfmie	f4, [r2, #-380]	; 0xfffffe84
    4e18:	0050465f 	subseq	r4, r0, pc, asr r6
    4e1c:	4545525f 	strbmi	r5, [r5, #-607]	; 0xfffffda1
    4e20:	435f544e 	cmpmi	pc, #1308622848	; 0x4e000000
    4e24:	4b434548 	blmi	10d634c <_Min_Stack_Size+0x10d5f4c>
    4e28:	454d455f 	strbmi	r4, [sp, #-1375]	; 0xfffffaa1
    4e2c:	4e454752 	mcrmi	7, 2, r4, cr5, cr2, {2}
    4e30:	76285943 	strtvc	r5, [r8], -r3, asr #18
    4e34:	20297261 	eorcs	r7, r9, r1, ror #4
    4e38:	4545525f 	strbmi	r5, [r5, #-607]	; 0xfffffda1
    4e3c:	435f544e 	cmpmi	pc, #1308622848	; 0x4e000000
    4e40:	4b434548 	blmi	10d6368 <_Min_Stack_Size+0x10d5f68>
    4e44:	72617628 	rsbvc	r7, r1, #40, 12	; 0x2800000
    4e48:	655f202c 	ldrbvs	r2, [pc, #-44]	; 4e24 <_Min_Stack_Size+0x4a24>
    4e4c:	6772656d 	ldrbvs	r6, [r2, -sp, ror #10]!
    4e50:	79636e65 	stmdbvc	r3!, {r0, r2, r5, r6, r9, sl, fp, sp, lr}^
    4e54:	6863202c 	stmdavs	r3!, {r2, r3, r5, sp}^
    4e58:	2a207261 	bcs	8217e4 <_Min_Stack_Size+0x8213e4>
    4e5c:	525f202c 	subspl	r2, pc, #44	; 0x2c
    4e60:	544e4545 	strbpl	r4, [lr], #-1349	; 0xfffffabb
    4e64:	454d455f 	strbmi	r4, [sp, #-1375]	; 0xfffffaa1
    4e68:	4e454752 	mcrmi	7, 2, r4, cr5, cr2, {2}
    4e6c:	535f5943 	cmppl	pc, #1097728	; 0x10c000
    4e70:	2c455a49 	mcrrcs	10, 4, r5, r5, cr9
    4e74:	5f002920 	svcpl	0x00002920
    4e78:	4d52415f 	ldfmie	f4, [r2, #-380]	; 0xfffffe84
    4e7c:	4145465f 	cmpmi	r5, pc, asr r6
    4e80:	45525554 	ldrbmi	r5, [r2, #-1364]	; 0xfffffaac
    4e84:	5053445f 	subspl	r4, r3, pc, asr r4
    4e88:	495f5f00 	ldmdbmi	pc, {r8, r9, sl, fp, ip, lr}^	; <UNPREDICTABLE>
    4e8c:	5450544e 	ldrbpl	r5, [r0], #-1102	; 0xfffffbb2
    4e90:	49575f52 	ldmdbmi	r7, {r1, r4, r6, r8, r9, sl, fp, ip, lr}^
    4e94:	5f485444 	svcpl	0x00485444
    4e98:	3233205f 	eorscc	r2, r3, #95	; 0x5f
    4e9c:	45525f00 	ldrbmi	r5, [r2, #-3840]	; 0xfffff100
    4ea0:	5f544e45 	svcpl	0x00544e45
    4ea4:	54494e49 	strbpl	r4, [r9], #-3657	; 0xfffff1b7
    4ea8:	28504d5f 	ldmdacs	r0, {r0, r1, r2, r3, r4, r6, r8, sl, fp, lr}^
    4eac:	29726176 	ldmdbcs	r2!, {r1, r2, r4, r5, r6, r8, sp, lr}^
    4eb0:	206f6420 	rsbcs	r6, pc, r0, lsr #8
    4eb4:	7473207b 	ldrbtvc	r2, [r3], #-123	; 0xffffff85
    4eb8:	74637572 	strbtvc	r7, [r3], #-1394	; 0xfffffa8e
    4ebc:	65725f20 	ldrbvs	r5, [r2, #-3872]!	; 0xfffff0e0
    4ec0:	20746e65 	rsbscs	r6, r4, r5, ror #28
    4ec4:	20725f2a 	rsbscs	r5, r2, sl, lsr #30
    4ec8:	7628203d 			; <UNDEFINED> instruction: 0x7628203d
    4ecc:	3b297261 	blcc	a61858 <_Min_Stack_Size+0xa61458>
    4ed0:	2d725f20 	ldclcs	15, cr5, [r2, #-128]!	; 0xffffff80
    4ed4:	706d5f3e 	rsbvc	r5, sp, lr, lsr pc
    4ed8:	725f3e2d 	subsvc	r3, pc, #720	; 0x2d0
    4edc:	6c757365 	ldclvs	3, cr7, [r5], #-404	; 0xfffffe6c
    4ee0:	206b5f74 	rsbcs	r5, fp, r4, ror pc
    4ee4:	3b30203d 	blcc	c0cfe0 <_Min_Stack_Size+0xc0cbe0>
    4ee8:	2d725f20 	ldclcs	15, cr5, [r2, #-128]!	; 0xffffff80
    4eec:	706d5f3e 	rsbvc	r5, sp, lr, lsr pc
    4ef0:	725f3e2d 	subsvc	r3, pc, #720	; 0x2d0
    4ef4:	6c757365 	ldclvs	3, cr7, [r5], #-404	; 0xfffffe6c
    4ef8:	203d2074 	eorscs	r2, sp, r4, ror r0
    4efc:	3e2d725f 	mcrcc	2, 1, r7, cr13, cr15, {2}
    4f00:	2d706d5f 	ldclcs	13, cr6, [r0, #-380]!	; 0xfffffe84
    4f04:	35705f3e 	ldrbcc	r5, [r0, #-3902]!	; 0xfffff0c2
    4f08:	203d2073 	eorscs	r2, sp, r3, ror r0
    4f0c:	4c554e5f 	mrrcmi	14, 5, r4, r5, cr15
    4f10:	5f203b4c 	svcpl	0x00203b4c
    4f14:	5f3e2d72 	svcpl	0x003e2d72
    4f18:	3e2d706d 	cdpcc	0, 2, cr7, cr13, cr13, {3}
    4f1c:	6572665f 	ldrbvs	r6, [r2, #-1631]!	; 0xfffff9a1
    4f20:	73696c65 	cmnvc	r9, #25856	; 0x6500
    4f24:	203d2074 	eorscs	r2, sp, r4, ror r0
    4f28:	4c554e5f 	mrrcmi	14, 5, r4, r5, cr15
    4f2c:	7d203b4c 	vstmdbvc	r0!, {d3-<overflow reg d40>}
    4f30:	69687720 	stmdbvs	r8!, {r5, r8, r9, sl, ip, sp, lr}^
    4f34:	2820656c 	stmdacs	r0!, {r2, r3, r5, r6, r8, sl, sp, lr}
    4f38:	45002930 	strmi	r2, [r0, #-2352]	; 0xfffff6d0
    4f3c:	5f495458 	svcpl	0x00495458
    4f40:	75706e49 	ldrbvc	r6, [r0, #-3657]!	; 0xfffff1b7
    4f44:	6e694c74 	mcrvs	12, 3, r4, cr9, cr4, {3}
    4f48:	6d754e65 	ldclvs	14, cr4, [r5, #-404]!	; 0xfffffe6c
    4f4c:	00726562 	rsbseq	r6, r2, r2, ror #10
    4f50:	4f495047 	svcmi	0x00495047
    4f54:	444f4d5f 	strbmi	r4, [pc], #-3423	; 4f5c <_Min_Stack_Size+0x4b5c>
    4f58:	554f5f45 	strbpl	r5, [pc, #-3909]	; 401b <_Min_Stack_Size+0x3c1b>
    4f5c:	54555054 	ldrbpl	r5, [r5], #-84	; 0xffffffac
    4f60:	5f46415f 	svcpl	0x0046415f
    4f64:	30205050 	eorcc	r5, r0, r0, asr r0
    4f68:	30303078 	eorscc	r3, r0, r8, ror r0
    4f6c:	30303030 	eorscc	r3, r0, r0, lsr r0
    4f70:	5f5f0036 	svcpl	0x005f0036
    4f74:	33544c46 	cmpcc	r4, #17920	; 0x4600
    4f78:	4d5f5832 	ldclmi	8, cr5, [pc, #-200]	; 4eb8 <_Min_Stack_Size+0x4ab8>
    4f7c:	5f5f4e49 	svcpl	0x005f4e49
    4f80:	322e3220 	eorcc	r3, lr, #32, 4
    4f84:	37303532 			; <UNDEFINED> instruction: 0x37303532
    4f88:	38353833 	ldmdacc	r5!, {r0, r1, r4, r5, fp, ip, sp}
    4f8c:	32373035 	eorscc	r3, r7, #53	; 0x35
    4f90:	65343130 	ldrvs	r3, [r4, #-304]!	; 0xfffffed0
    4f94:	3830332d 	ldmdacc	r0!, {r0, r2, r3, r5, r8, r9, ip, sp}
    4f98:	78323346 	ldmdavc	r2!, {r1, r2, r6, r8, r9, ip, sp}
    4f9c:	45525f00 	ldrbmi	r5, [r2, #-3840]	; 0xfffff100
    4fa0:	5f544e45 	svcpl	0x00544e45
    4fa4:	444e4152 	strbmi	r4, [lr], #-338	; 0xfffffeae
    4fa8:	4d5f3834 	ldclmi	8, cr3, [pc, #-208]	; 4ee0 <_Min_Stack_Size+0x4ae0>
    4fac:	28544c55 	ldmdacs	r4, {r0, r2, r4, r6, sl, fp, lr}^
    4fb0:	29727470 	ldmdbcs	r2!, {r4, r5, r6, sl, ip, sp, lr}^
    4fb4:	70282820 	eorvc	r2, r8, r0, lsr #16
    4fb8:	2d297274 	sfmcs	f7, 4, [r9, #-464]!	; 0xfffffe30
    4fbc:	34725f3e 	ldrbtcc	r5, [r2], #-3902	; 0xfffff0c2
    4fc0:	5f3e2d38 	svcpl	0x003e2d38
    4fc4:	746c756d 	strbtvc	r7, [ip], #-1389	; 0xfffffa93
    4fc8:	5f5f0029 	svcpl	0x005f0029
    4fcc:	36544c46 	ldrbcc	r4, [r4], -r6, asr #24
    4fd0:	414d5f34 	cmpmi	sp, r4, lsr pc
    4fd4:	58455f58 	stmdapl	r5, {r3, r4, r6, r8, r9, sl, fp, ip, lr}^
    4fd8:	205f5f50 	subscs	r5, pc, r0, asr pc	; <UNPREDICTABLE>
    4fdc:	34323031 	ldrtcc	r3, [r2], #-49	; 0xffffffcf
    4fe0:	575f5f00 	ldrbpl	r5, [pc, -r0, lsl #30]
    4fe4:	52414843 	subpl	r4, r1, #4390912	; 0x430000
    4fe8:	0020545f 	eoreq	r5, r0, pc, asr r4
    4fec:	435f424d 	cmpmi	pc, #-805306364	; 0xd0000004
    4ff0:	4d5f5255 	lfmmi	f5, 2, [pc, #-340]	; 4ea4 <_Min_Stack_Size+0x4aa4>
    4ff4:	5f205841 	svcpl	0x00205841
    4ff8:	636f6c5f 	cmnvs	pc, #24320	; 0x5f00
    4ffc:	5f656c61 	svcpl	0x00656c61
    5000:	635f626d 	cmpvs	pc, #-805306362	; 0xd0000006
    5004:	6d5f7275 	lfmvs	f7, 2, [pc, #-468]	; 4e38 <_Min_Stack_Size+0x4a38>
    5008:	29287861 	stmdbcs	r8!, {r0, r5, r6, fp, ip, sp, lr}
    500c:	465f5f00 	ldrbmi	r5, [pc], -r0, lsl #30
    5010:	3436544c 	ldrtcc	r5, [r6], #-1100	; 0xfffffbb4
    5014:	4e494d5f 	mcrmi	13, 2, r4, cr9, cr15, {2}
    5018:	32205f5f 	eorcc	r5, r0, #380	; 0x17c
    501c:	3532322e 	ldrcc	r3, [r2, #-558]!	; 0xfffffdd2
    5020:	38333730 	ldmdacc	r3!, {r4, r5, r8, r9, sl, ip, sp}
    5024:	30353835 	eorscc	r3, r5, r5, lsr r8
    5028:	31303237 	teqcc	r0, r7, lsr r2
    502c:	332d6534 			; <UNDEFINED> instruction: 0x332d6534
    5030:	36463830 			; <UNDEFINED> instruction: 0x36463830
    5034:	5f5f0034 	svcpl	0x005f0034
    5038:	746e695f 	strbtvc	r6, [lr], #-2399	; 0xfffff6a1
    503c:	745f3233 	ldrbvc	r3, [pc], #-563	; 5044 <_Min_Stack_Size+0x4c44>
    5040:	6665645f 			; <UNDEFINED> instruction: 0x6665645f
    5044:	64656e69 	strbtvs	r6, [r5], #-3689	; 0xfffff197
    5048:	41003120 	tstmi	r0, r0, lsr #2
    504c:	52324250 	eorspl	r4, r2, #80, 4
    5050:	00525453 	subseq	r5, r2, r3, asr r4
    5054:	4f495047 	svcmi	0x00495047
    5058:	4e49505f 	mcrmi	0, 2, r5, cr9, cr15, {2}
    505c:	2820385f 	stmdacs	r0!, {r0, r1, r2, r3, r4, r6, fp, ip, sp}
    5060:	6e697528 	cdpvs	5, 6, cr7, cr9, cr8, {1}
    5064:	5f363174 	svcpl	0x00363174
    5068:	30202974 	eorcc	r2, r0, r4, ror r9
    506c:	30313078 	eorscc	r3, r1, r8, ror r0
    5070:	5f002930 	svcpl	0x00002930
    5074:	544c465f 	strbpl	r4, [ip], #-1631	; 0xfffff9a1
    5078:	4e494d5f 	mcrmi	13, 2, r4, cr9, cr15, {2}
    507c:	5058455f 	subspl	r4, r8, pc, asr r5
    5080:	28205f5f 	stmdacs	r0!, {r0, r1, r2, r3, r4, r6, r8, r9, sl, fp, ip, lr}
    5084:	3532312d 	ldrcc	r3, [r2, #-301]!	; 0xfffffed3
    5088:	5f5f0029 	svcpl	0x005f0029
    508c:	5f4d5241 	svcpl	0x004d5241
    5090:	48435241 	stmdami	r3, {r0, r6, r9, ip, lr}^
    5094:	4f52505f 	svcmi	0x0052505f
    5098:	454c4946 	strbmi	r4, [ip, #-2374]	; 0xfffff6ba
    509c:	495f5f00 	ldmdbmi	pc, {r8, r9, sl, fp, ip, lr}^	; <UNPREDICTABLE>
    50a0:	3436544e 	ldrtcc	r5, [r6], #-1102	; 0xfffffbb2
    50a4:	5059545f 	subspl	r5, r9, pc, asr r4
    50a8:	205f5f45 	subscs	r5, pc, r5, asr #30
    50ac:	676e6f6c 	strbvs	r6, [lr, -ip, ror #30]!
    50b0:	6e6f6c20 	cdpvs	12, 6, cr6, cr15, cr0, {1}
    50b4:	6e692067 	cdpvs	0, 6, cr2, cr9, cr7, {3}
    50b8:	5f5f0074 	svcpl	0x005f0074
    50bc:	4152464c 	cmpmi	r2, ip, asr #12
    50c0:	465f5443 	ldrbmi	r5, [pc], -r3, asr #8
    50c4:	5f544942 	svcpl	0x00544942
    50c8:	3133205f 	teqcc	r3, pc, asr r0
    50cc:	435f5f00 	cmpmi	pc, #0, 30
    50d0:	5f524148 	svcpl	0x00524148
    50d4:	5f544942 	svcpl	0x00544942
    50d8:	0038205f 	eorseq	r2, r8, pc, asr r0
    50dc:	49545845 	ldmdbmi	r4, {r0, r2, r6, fp, ip, lr}^
    50e0:	4e49505f 	mcrmi	0, 2, r5, cr9, cr15, {2}
    50e4:	425f5f00 	subsmi	r5, pc, #0, 30
    50e8:	565f4453 			; <UNDEFINED> instruction: 0x565f4453
    50ec:	42495349 	submi	r5, r9, #603979777	; 0x24000001
    50f0:	3120454c 			; <UNDEFINED> instruction: 0x3120454c
    50f4:	544e4900 	strbpl	r4, [lr], #-2304	; 0xfffff700
    50f8:	41454c5f 	cmpmi	r5, pc, asr ip
    50fc:	36315453 			; <UNDEFINED> instruction: 0x36315453
    5100:	4e494d5f 	mcrmi	13, 2, r4, cr9, cr15, {2}
    5104:	5f2d2820 	svcpl	0x002d2820
    5108:	544e495f 	strbpl	r4, [lr], #-2399	; 0xfffff6a1
    510c:	41454c5f 	cmpmi	r5, pc, asr ip
    5110:	36315453 			; <UNDEFINED> instruction: 0x36315453
    5114:	58414d5f 	stmdapl	r1, {r0, r1, r2, r3, r4, r6, r8, sl, fp, lr}^
    5118:	2d205f5f 	stccs	15, cr5, [r0, #-380]!	; 0xfffffe84
    511c:	00293120 	eoreq	r3, r9, r0, lsr #2
    5120:	6e755f5f 	mrcvs	15, 3, r5, cr5, cr15, {2}
    5124:	64657375 	strbtvs	r7, [r5], #-885	; 0xfffffc8b
    5128:	615f5f20 	cmpvs	pc, r0, lsr #30
    512c:	69727474 	ldmdbvs	r2!, {r2, r4, r5, r6, sl, ip, sp, lr}^
    5130:	65747562 	ldrbvs	r7, [r4, #-1378]!	; 0xfffffa9e
    5134:	28285f5f 	stmdacs	r8!, {r0, r1, r2, r3, r4, r6, r8, r9, sl, fp, ip, lr}
    5138:	6e755f5f 	mrcvs	15, 3, r5, cr5, cr15, {2}
    513c:	64657375 	strbtvs	r7, [r5], #-885	; 0xfffffc8b
    5140:	29295f5f 	stmdbcs	r9!, {r0, r1, r2, r3, r4, r6, r8, r9, sl, fp, ip, lr}
    5144:	415f5f00 	cmpmi	pc, r0, lsl #30
    5148:	52455353 	subpl	r5, r5, #1275068417	; 0x4c000001
    514c:	55465f54 	strbpl	r5, [r6, #-3924]	; 0xfffff0ac
    5150:	5f20434e 	svcpl	0x0020434e
    5154:	6e75665f 	mrcvs	6, 3, r6, cr5, cr15, {2}
    5158:	005f5f63 	subseq	r5, pc, r3, ror #30
    515c:	52415355 	subpl	r5, r1, #1409286145	; 0x54000001
    5160:	495f3254 	ldmdbmi	pc, {r2, r4, r6, r9, ip, sp}^	; <UNPREDICTABLE>
    5164:	33205152 			; <UNDEFINED> instruction: 0x33205152
    5168:	5f5f0038 	svcpl	0x005f0038
    516c:	41524655 	cmpmi	r2, r5, asr r6
    5170:	4d5f5443 	cfldrdmi	mvd5, [pc, #-268]	; 506c <_Min_Stack_Size+0x4c6c>
    5174:	5f5f5841 	svcpl	0x005f5841
    5178:	46583020 	ldrbmi	r3, [r8], -r0, lsr #32
    517c:	50464646 	subpl	r4, r6, r6, asr #12
    5180:	5536312d 	ldrpl	r3, [r6, #-301]!	; 0xfffffed3
    5184:	5f5f0052 	svcpl	0x005f0052
    5188:	746e695f 	strbtvc	r6, [lr], #-2399	; 0xfffff6a1
    518c:	61656c5f 	cmnvs	r5, pc, asr ip
    5190:	34367473 	ldrtcc	r7, [r6], #-1139	; 0xfffffb8d
    5194:	645f745f 	ldrbvs	r7, [pc], #-1119	; 519c <_Min_Stack_Size+0x4d9c>
    5198:	6e696665 	cdpvs	6, 6, cr6, cr9, cr5, {3}
    519c:	31206465 			; <UNDEFINED> instruction: 0x31206465
    51a0:	54584500 	ldrbpl	r4, [r8], #-1280	; 0xfffffb00
    51a4:	50303149 	eorspl	r3, r0, r9, asr #2
    51a8:	20303143 	eorscs	r3, r0, r3, asr #2
    51ac:	54584528 	ldrbpl	r4, [r8], #-1320	; 0xfffffad8
    51b0:	50475f49 	subpl	r5, r7, r9, asr #30
    51b4:	4d5f4f49 	ldclmi	15, cr4, [pc, #-292]	; 5098 <_Min_Stack_Size+0x4c98>
    51b8:	69707061 	ldmdbvs	r0!, {r0, r5, r6, ip, sp, lr}^
    51bc:	745f676e 	ldrbvc	r6, [pc], #-1902	; 51c4 <_Min_Stack_Size+0x4dc4>
    51c0:	58457b29 	stmdapl	r5, {r0, r3, r5, r8, r9, fp, ip, sp, lr}^
    51c4:	30314954 	eorscc	r4, r1, r4, asr r9
    51c8:	5047202c 	subpl	r2, r7, ip, lsr #32
    51cc:	2c434f49 	mcrrcs	15, 4, r4, r3, cr9
    51d0:	49504720 	ldmdbmi	r0, {r5, r8, r9, sl, lr}^
    51d4:	49505f4f 	ldmdbmi	r0, {r0, r1, r2, r3, r6, r8, r9, sl, fp, ip, lr}^
    51d8:	30315f4e 	eorscc	r5, r1, lr, asr #30
    51dc:	5845202c 	stmdapl	r5, {r2, r3, r5, sp}^
    51e0:	30314954 	eorscc	r4, r1, r4, asr r9
    51e4:	5152495f 	cmppl	r2, pc, asr r9
    51e8:	575f007d 			; <UNDEFINED> instruction: 0x575f007d
    51ec:	5f544e41 	svcpl	0x00544e41
    51f0:	4e454552 	mcrmi	5, 2, r4, cr5, cr2, {2}
    51f4:	4d535f54 	ldclmi	15, cr5, [r3, #-336]	; 0xfffffeb0
    51f8:	204c4c41 	subcs	r4, ip, r1, asr #24
    51fc:	5f5f0031 	svcpl	0x005f0031
    5200:	4f524854 	svcmi	0x00524854
    5204:	5f002057 	svcpl	0x00002057
    5208:	4e454552 	mcrmi	5, 2, r4, cr5, cr2, {2}
    520c:	48435f54 	stmdami	r3, {r2, r4, r6, r8, r9, sl, fp, ip, lr}^
    5210:	5f4b4345 	svcpl	0x004b4345
    5214:	7628504d 	strtvc	r5, [r8], -sp, asr #32
    5218:	20297261 	eorcs	r7, r9, r1, ror #4
    521c:	4545525f 	strbmi	r5, [r5, #-607]	; 0xfffffda1
    5220:	435f544e 	cmpmi	pc, #1308622848	; 0x4e000000
    5224:	4b434548 	blmi	10d674c <_Min_Stack_Size+0x10d634c>
    5228:	72617628 	rsbvc	r7, r1, #40, 12	; 0x2800000
    522c:	6d5f202c 	ldclvs	0, cr2, [pc, #-176]	; 5184 <_Min_Stack_Size+0x4d84>
    5230:	73202c70 			; <UNDEFINED> instruction: 0x73202c70
    5234:	63757274 	cmnvs	r5, #116, 4	; 0x40000007
    5238:	6d5f2074 	ldclvs	0, cr2, [pc, #-464]	; 5070 <_Min_Stack_Size+0x4c70>
    523c:	63657270 	cmnvs	r5, #112, 4
    5240:	202c2a20 	eorcs	r2, ip, r0, lsr #20
    5244:	657a6973 	ldrbvs	r6, [sl, #-2419]!	; 0xfffff68d
    5248:	2a20666f 	bcs	81ec0c <_Min_Stack_Size+0x81e80c>
    524c:	61762828 	cmnvs	r6, r8, lsr #16
    5250:	3e2d2972 			; <UNDEFINED> instruction: 0x3e2d2972
    5254:	29706d5f 	ldmdbcs	r0!, {r0, r1, r2, r3, r4, r6, r8, sl, fp, sp, lr}^
    5258:	525f202c 	subspl	r2, pc, #44	; 0x2c
    525c:	544e4545 	strbpl	r4, [lr], #-1349	; 0xfffffabb
    5260:	494e495f 	stmdbmi	lr, {r0, r1, r2, r3, r4, r6, r8, fp, lr}^
    5264:	504d5f54 	subpl	r5, sp, r4, asr pc
    5268:	72617628 	rsbvc	r7, r1, #40, 12	; 0x2800000
    526c:	5f002929 	svcpl	0x00002929
    5270:	5246535f 	subpl	r5, r6, #2080374785	; 0x7c000001
    5274:	5f544341 	svcpl	0x00544341
    5278:	54494249 	strbpl	r4, [r9], #-585	; 0xfffffdb7
    527c:	30205f5f 	eorcc	r5, r0, pc, asr pc
    5280:	49564e00 	ldmdbmi	r6, {r9, sl, fp, lr}^
    5284:	58455f43 	stmdapl	r5, {r0, r1, r6, r8, r9, sl, fp, ip, lr}^
    5288:	5f334954 	svcpl	0x00334954
    528c:	5f515249 	svcpl	0x00515249
    5290:	61736944 	cmnvs	r3, r4, asr #18
    5294:	20656c62 	rsbcs	r6, r5, r2, ror #24
    5298:	49564e28 	ldmdbmi	r6, {r3, r5, r9, sl, fp, lr}^
    529c:	43495f43 	movtmi	r5, #40771	; 0x9f43
    52a0:	20305245 	eorscs	r5, r0, r5, asr #4
    52a4:	31203d7c 			; <UNDEFINED> instruction: 0x31203d7c
    52a8:	29393c3c 	ldmdbcs	r9!, {r2, r3, r4, r5, sl, fp, ip, sp}
    52ac:	54415f00 	strbpl	r5, [r1], #-3840	; 0xfffff100
    52b0:	454c4946 	strbmi	r4, [ip, #-2374]	; 0xfffff6ba
    52b4:	554f535f 	strbpl	r5, [pc, #-863]	; 4f5d <_Min_Stack_Size+0x4b5d>
    52b8:	20454352 	subcs	r4, r5, r2, asr r3
    52bc:	5f5f0031 	svcpl	0x005f0031
    52c0:	49445453 	stmdbmi	r4, {r0, r1, r4, r6, sl, ip, lr}^
    52c4:	455f544e 	ldrbmi	r5, [pc, #-1102]	; 4e7e <_Min_Stack_Size+0x4a7e>
    52c8:	78285058 	stmdavc	r8!, {r3, r4, r6, ip, lr}
    52cc:	5f5f2029 	svcpl	0x005f2029
    52d0:	78232320 	stmdavc	r3!, {r5, r8, r9, sp}
    52d4:	5f232320 	svcpl	0x00232320
    52d8:	5f5f005f 	svcpl	0x005f005f
    52dc:	28505845 	ldmdacs	r0, {r0, r2, r6, fp, ip, lr}^
    52e0:	5f202978 	svcpl	0x00202978
    52e4:	2323205f 			; <UNDEFINED> instruction: 0x2323205f
    52e8:	23232078 			; <UNDEFINED> instruction: 0x23232078
    52ec:	5f005f5f 	svcpl	0x00005f5f
    52f0:	5459425f 	ldrbpl	r4, [r9], #-607	; 0xfffffda1
    52f4:	524f5f45 	subpl	r5, pc, #276	; 0x114
    52f8:	5f524544 	svcpl	0x00524544
    52fc:	5f5f205f 	svcpl	0x005f205f
    5300:	4544524f 	strbmi	r5, [r4, #-591]	; 0xfffffdb1
    5304:	494c5f52 	stmdbmi	ip, {r1, r4, r6, r8, r9, sl, fp, ip, lr}^
    5308:	454c5454 	strbmi	r5, [ip, #-1108]	; 0xfffffbac
    530c:	444e455f 	strbmi	r4, [lr], #-1375	; 0xfffffaa1
    5310:	5f4e4149 	svcpl	0x004e4149
    5314:	5f5f005f 	svcpl	0x005f005f
    5318:	33544c46 	cmpcc	r4, #17920	; 0x4600
    531c:	50455f32 	subpl	r5, r5, r2, lsr pc
    5320:	4f4c4953 	svcmi	0x004c4953
    5324:	205f5f4e 	subscs	r5, pc, lr, asr #30
    5328:	39312e31 	ldmdbcc	r1!, {r0, r4, r5, r9, sl, fp, sp}
    532c:	32393032 	eorscc	r3, r9, #50	; 0x32
    5330:	35353938 	ldrcc	r3, [r5, #-2360]!	; 0xfffff6c8
    5334:	31383730 	teqcc	r8, r0, lsr r7
    5338:	2d653532 	cfstr64cs	mvdx3, [r5, #-200]!	; 0xffffff38
    533c:	32334637 	eorscc	r4, r3, #57671680	; 0x3700000
    5340:	415f5f00 	cmpmi	pc, r0, lsl #30
    5344:	4e5f4d52 	mrcmi	13, 2, r4, cr15, cr2, {2}
    5348:	5f4e4f45 	svcpl	0x004e4f45
    534c:	5f005046 	svcpl	0x00005046
    5350:	48544f4e 	ldmdami	r4, {r1, r2, r3, r6, r8, r9, sl, fp, lr}^
    5354:	20574f52 	subscs	r4, r7, r2, asr pc
    5358:	4e415f00 	cdpmi	15, 4, cr5, cr1, cr0, {0}
    535c:	45444953 	strbmi	r4, [r4, #-2387]	; 0xfffff6ad
    5360:	485f4c43 	ldmdami	pc, {r0, r1, r6, sl, fp, lr}^	; <UNPREDICTABLE>
    5364:	4500205f 	strmi	r2, [r0, #-95]	; 0xffffffa1
    5368:	31495458 	cmpcc	r9, r8, asr r4
    536c:	52495f30 	subpl	r5, r9, #48, 30	; 0xc0
    5370:	30342051 	eorscc	r2, r4, r1, asr r0
    5374:	43435200 	movtmi	r5, #12800	; 0x3200
    5378:	4950535f 	ldmdbmi	r0, {r0, r1, r2, r3, r4, r6, r8, r9, ip, lr}^
    537c:	4c435f31 	mcrrmi	15, 3, r5, r3, cr1
    5380:	4e455f4b 	cdpmi	15, 4, cr5, cr5, cr11, {2}
    5384:	28202928 	stmdacs	r0!, {r3, r5, r8, fp, sp}
    5388:	2d434352 	stclcs	3, cr4, [r3, #-328]	; 0xfffffeb8
    538c:	4250413e 	subsmi	r4, r0, #-2147483633	; 0x8000000f
    5390:	524e4532 	subpl	r4, lr, #209715200	; 0xc800000
    5394:	203d7c20 	eorscs	r7, sp, r0, lsr #24
    5398:	3c3c3128 	ldfccs	f3, [ip], #-160	; 0xffffff60
    539c:	29293231 	stmdbcs	r9!, {r0, r4, r5, r9, ip, sp}
    53a0:	49505300 	ldmdbmi	r0, {r8, r9, ip, lr}^
    53a4:	41425f31 	cmpmi	r2, r1, lsr pc
    53a8:	30204553 	eorcc	r4, r0, r3, asr r5
    53ac:	30303478 	eorscc	r3, r0, r8, ror r4
    53b0:	30303331 	eorscc	r3, r0, r1, lsr r3
    53b4:	5f007530 	svcpl	0x00007530
    53b8:	534f505f 	movtpl	r5, #61535	; 0xf05f
    53bc:	565f5849 	ldrbpl	r5, [pc], -r9, asr #16
    53c0:	42495349 	submi	r5, r9, #603979777	; 0x24000001
    53c4:	3220454c 	eorcc	r4, r0, #76, 10	; 0x13000000
    53c8:	30383030 	eorscc	r3, r8, r0, lsr r0
    53cc:	58450039 	stmdapl	r5, {r0, r3, r4, r5}^
    53d0:	34314954 	ldrtcc	r4, [r1], #-2388	; 0xfffff6ac
    53d4:	5152495f 	cmppl	r2, pc, asr r9
    53d8:	00303420 	eorseq	r3, r0, r0, lsr #8
    53dc:	49545845 	ldmdbmi	r4, {r0, r2, r6, fp, ip, lr}^
    53e0:	00312031 	eorseq	r2, r1, r1, lsr r0
    53e4:	46555f5f 	usaxmi	r5, r5, pc	; <UNPREDICTABLE>
    53e8:	54434152 	strbpl	r4, [r3], #-338	; 0xfffffeae
    53ec:	4942465f 	stmdbmi	r2, {r0, r1, r2, r3, r4, r6, r9, sl, lr}^
    53f0:	205f5f54 	subscs	r5, pc, r4, asr pc	; <UNPREDICTABLE>
    53f4:	5f003631 	svcpl	0x00003631
    53f8:	5144555f 	cmppl	r4, pc, asr r5
    53fc:	4942465f 	stmdbmi	r2, {r0, r1, r2, r3, r4, r6, r9, sl, lr}^
    5400:	205f5f54 	subscs	r5, pc, r4, asr pc	; <UNPREDICTABLE>
    5404:	5f003436 	svcpl	0x00003436
    5408:	4c42445f 	cfstrdmi	mvd4, [r2], {95}	; 0x5f
    540c:	524f4e5f 	subpl	r4, pc, #1520	; 0x5f0
    5410:	414d5f4d 	cmpmi	sp, sp, asr #30
    5414:	205f5f58 	subscs	r5, pc, r8, asr pc	; <UNPREDICTABLE>
    5418:	6f642828 	svcvs	0x00642828
    541c:	656c6275 	strbvs	r6, [ip, #-629]!	; 0xfffffd8b
    5420:	372e3129 	strcc	r3, [lr, -r9, lsr #2]!
    5424:	39363739 	ldmdbcc	r6!, {r0, r3, r4, r5, r8, r9, sl, ip, sp}
    5428:	34333133 	ldrtcc	r3, [r3], #-307	; 0xfffffecd
    542c:	33323638 	teqcc	r2, #56, 12	; 0x3800000
    5430:	65373531 	ldrvs	r3, [r7, #-1329]!	; 0xfffffacf
    5434:	3830332b 	ldmdacc	r0!, {r0, r1, r3, r5, r8, r9, ip, sp}
    5438:	5f00294c 	svcpl	0x0000294c
    543c:	554e475f 	strbpl	r4, [lr, #-1887]	; 0xfffff8a1
    5440:	4b494c43 	blmi	1258554 <_Min_Stack_Size+0x1258154>
    5444:	55425f45 	strbpl	r5, [r2, #-3909]	; 0xfffff0bb
    5448:	49544c49 	ldmdbmi	r4, {r0, r3, r6, sl, fp, lr}^
    544c:	454d5f4e 	strbmi	r5, [sp, #-3918]	; 0xfffff0b2
    5450:	5950434d 	ldmdbpl	r0, {r0, r2, r3, r6, r8, r9, lr}^
    5454:	4d003120 	stfmis	f3, [r0, #-128]	; 0xffffff80
    5458:	5f6c6163 	svcpl	0x006c6163
    545c:	49545845 	ldmdbmi	r4, {r0, r2, r6, fp, ip, lr}^
    5460:	4950475f 	ldmdbmi	r0, {r0, r1, r2, r3, r4, r6, r8, r9, sl, lr}^
    5464:	6e695f4f 	cdpvs	15, 6, cr5, cr9, cr15, {2}
    5468:	5f007469 	svcpl	0x00007469
    546c:	42444c5f 	submi	r4, r4, #24320	; 0x5f00
    5470:	414d5f4c 	cmpmi	sp, ip, asr #30
    5474:	30315f58 	eorscc	r5, r1, r8, asr pc
    5478:	5058455f 	subspl	r4, r8, pc, asr r5
    547c:	33205f5f 			; <UNDEFINED> instruction: 0x33205f5f
    5480:	5f003830 	svcpl	0x00003830
    5484:	4e454552 	mcrmi	5, 2, r4, cr5, cr2, {2}
    5488:	424d5f54 	submi	r5, sp, #84, 30	; 0x150
    548c:	4e454c52 	mcrmi	12, 2, r4, cr5, cr2, {2}
    5490:	4154535f 	cmpmi	r4, pc, asr r3
    5494:	70284554 	eorvc	r4, r8, r4, asr r5
    5498:	20297274 	eorcs	r7, r9, r4, ror r2
    549c:	74702828 	ldrbtvc	r2, [r0], #-2088	; 0xfffff7d8
    54a0:	3e2d2972 			; <UNDEFINED> instruction: 0x3e2d2972
    54a4:	73696d5f 	cmnvc	r9, #6080	; 0x17c0
    54a8:	5f3e2d63 	svcpl	0x003e2d63
    54ac:	6c72626d 	lfmvs	f6, 2, [r2], #-436	; 0xfffffe4c
    54b0:	735f6e65 	cmpvc	pc, #1616	; 0x650
    54b4:	65746174 	ldrbvs	r6, [r4, #-372]!	; 0xfffffe8c
    54b8:	58450029 	stmdapl	r5, {r0, r3, r5}^
    54bc:	50384954 	eorspl	r4, r8, r4, asr r9
    54c0:	28203841 	stmdacs	r0!, {r0, r6, fp, ip, sp}
    54c4:	49545845 	ldmdbmi	r4, {r0, r2, r6, fp, ip, lr}^
    54c8:	4950475f 	ldmdbmi	r0, {r0, r1, r2, r3, r4, r6, r8, r9, sl, lr}^
    54cc:	614d5f4f 	cmpvs	sp, pc, asr #30
    54d0:	6e697070 	mcrvs	0, 3, r7, cr9, cr0, {3}
    54d4:	29745f67 	ldmdbcs	r4!, {r0, r1, r2, r5, r6, r8, r9, sl, fp, ip, lr}^
    54d8:	5458457b 	ldrbpl	r4, [r8], #-1403	; 0xfffffa85
    54dc:	202c3849 	eorcs	r3, ip, r9, asr #16
    54e0:	4f495047 	svcmi	0x00495047
    54e4:	47202c41 	strmi	r2, [r0, -r1, asr #24]!
    54e8:	5f4f4950 	svcpl	0x004f4950
    54ec:	5f4e4950 	svcpl	0x004e4950
    54f0:	45202c38 	strmi	r2, [r0, #-3128]!	; 0xfffff3c8
    54f4:	38495458 	stmdacc	r9, {r3, r4, r6, sl, ip, lr}^
    54f8:	5152495f 	cmppl	r2, pc, asr r9
    54fc:	5f5f007d 	svcpl	0x005f007d
    5500:	5f4c4244 	svcpl	0x004c4244
    5504:	4f4e4544 	svcmi	0x004e4544
    5508:	4d5f4d52 	ldclmi	13, cr4, [pc, #-328]	; 53c8 <_Min_Stack_Size+0x4fc8>
    550c:	5f5f4e49 	svcpl	0x005f4e49
    5510:	64282820 	strtvs	r2, [r8], #-2080	; 0xfffff7e0
    5514:	6c62756f 	cfstr64vs	mvdx7, [r2], #-444	; 0xfffffe44
    5518:	2e342965 	vsubcs.f16	s4, s8, s11	; <UNPREDICTABLE>
    551c:	36303439 			; <UNDEFINED> instruction: 0x36303439
    5520:	35343635 	ldrcc	r3, [r4, #-1589]!	; 0xfffff9cb
    5524:	32313438 	eorscc	r3, r1, #56, 8	; 0x38000000
    5528:	34353634 	ldrtcc	r3, [r5], #-1588	; 0xfffff9cc
    552c:	32332d65 	eorscc	r2, r3, #6464	; 0x1940
    5530:	00294c34 	eoreq	r4, r9, r4, lsr ip
    5534:	344d4954 	strbcc	r4, [sp], #-2388	; 0xfffff6ac
    5538:	5341425f 	movtpl	r4, #4703	; 0x125f
    553c:	78302045 	ldmdavc	r0!, {r0, r2, r6, sp}
    5540:	30303034 	eorscc	r3, r0, r4, lsr r0
    5544:	30303830 	eorscc	r3, r0, r0, lsr r8
    5548:	5f5f0075 	svcpl	0x005f0075
    554c:	5f544e49 	svcpl	0x00544e49
    5550:	54534146 	ldrbpl	r4, [r3], #-326	; 0xfffffeba
    5554:	545f3233 	ldrbpl	r3, [pc], #-563	; 555c <_Min_Stack_Size+0x515c>
    5558:	5f455059 	svcpl	0x00455059
    555c:	6e69205f 	mcrvs	0, 3, r2, cr9, cr15, {2}
    5560:	50470074 	subpl	r0, r7, r4, ror r0
    5564:	545f4f49 	ldrbpl	r4, [pc], #-3913	; 556c <_Min_Stack_Size+0x516c>
    5568:	64657079 	strbtvs	r7, [r5], #-121	; 0xffffff87
    556c:	745f6665 	ldrbvc	r6, [pc], #-1637	; 5574 <_Min_Stack_Size+0x5174>
    5570:	4d545300 	ldclmi	3, cr5, [r4, #-0]
    5574:	31463233 	cmpcc	r6, r3, lsr r2
    5578:	36433330 			; <UNDEFINED> instruction: 0x36433330
    557c:	31207854 			; <UNDEFINED> instruction: 0x31207854
    5580:	54584500 	ldrbpl	r4, [r8], #-1280	; 0xfffffb00
    5584:	36203649 	strtcc	r3, [r0], -r9, asr #12
    5588:	4e5f5f00 	cdpmi	15, 5, cr5, cr15, cr0, {0}
    558c:	494c5745 	stmdbmi	ip, {r0, r2, r6, r8, r9, sl, ip, lr}^
    5590:	494d5f42 	stmdbmi	sp, {r1, r6, r8, r9, sl, fp, ip, lr}^
    5594:	5f524f4e 	svcpl	0x00524f4e
    5598:	0031205f 	eorseq	r2, r1, pc, asr r0
    559c:	49545845 	ldmdbmi	r4, {r0, r2, r6, fp, ip, lr}^
    55a0:	52495f35 	subpl	r5, r9, #53, 30	; 0xd4
    55a4:	33322051 	teqcc	r2, #81	; 0x51
    55a8:	49535f00 	ldmdbmi	r3, {r8, r9, sl, fp, ip, lr}^
    55ac:	5f54455a 	svcpl	0x0054455a
    55b0:	5f5f0020 	svcpl	0x005f0020
    55b4:	36544c46 	ldrbcc	r4, [r4], -r6, asr #24
    55b8:	41485f34 	cmpmi	r8, r4, lsr pc
    55bc:	55515f53 	ldrbpl	r5, [r1, #-3923]	; 0xfffff0ad
    55c0:	5f544549 	svcpl	0x00544549
    55c4:	5f4e414e 	svcpl	0x004e414e
    55c8:	0031205f 	eorseq	r2, r1, pc, asr r0
    55cc:	544e4955 	strbpl	r4, [lr], #-2389	; 0xfffff6ab
    55d0:	435f3233 	cmpmi	pc, #805306371	; 0x30000003
    55d4:	20297828 	eorcs	r7, r9, r8, lsr #16
    55d8:	49555f5f 	ldmdbmi	r5, {r0, r1, r2, r3, r4, r6, r8, r9, sl, fp, ip, lr}^
    55dc:	3233544e 	eorscc	r5, r3, #1308622848	; 0x4e000000
    55e0:	7828435f 	stmdavc	r8!, {r0, r1, r2, r3, r4, r6, r8, r9, lr}
    55e4:	5f5f0029 	svcpl	0x005f0029
    55e8:	43415355 	movtmi	r5, #4949	; 0x1355
    55ec:	5f4d5543 	svcpl	0x004d5543
    55f0:	54494249 	strbpl	r4, [r9], #-585	; 0xfffffdb7
    55f4:	38205f5f 	stmdacc	r0!, {r0, r1, r2, r3, r4, r6, r8, r9, sl, fp, ip, lr}
    55f8:	544e4900 	strbpl	r4, [lr], #-2304	; 0xfffff700
    55fc:	5341465f 	movtpl	r4, #5727	; 0x165f
    5600:	4d5f3854 	ldclmi	8, cr3, [pc, #-336]	; 54b8 <_Min_Stack_Size+0x50b8>
    5604:	28204e49 	stmdacs	r0!, {r0, r3, r6, r9, sl, fp, lr}
    5608:	495f5f2d 	ldmdbmi	pc, {r0, r2, r3, r5, r8, r9, sl, fp, ip, lr}^	; <UNPREDICTABLE>
    560c:	465f544e 	ldrbmi	r5, [pc], -lr, asr #8
    5610:	38545341 	ldmdacc	r4, {r0, r6, r8, r9, ip, lr}^
    5614:	58414d5f 	stmdapl	r1, {r0, r1, r2, r3, r4, r6, r8, sl, fp, lr}^
    5618:	2d205f5f 	stccs	15, cr5, [r0, #-380]!	; 0xfffffe84
    561c:	00293120 	eoreq	r3, r9, r0, lsr #2
    5620:	72705f5f 	rsbsvc	r5, r0, #380	; 0x17c
    5624:	63696465 	cmnvs	r9, #1694498816	; 0x65000000
    5628:	61665f74 	smcvs	26100	; 0x65f4
    562c:	2865736c 	stmdacs	r5!, {r2, r3, r5, r6, r8, r9, ip, sp, lr}^
    5630:	29707865 	ldmdbcs	r0!, {r0, r2, r5, r6, fp, ip, sp, lr}^
    5634:	625f5f20 	subsvs	r5, pc, #32, 30	; 0x80
    5638:	746c6975 	strbtvc	r6, [ip], #-2421	; 0xfffff68b
    563c:	655f6e69 	ldrbvs	r6, [pc, #-3689]	; 47db <_Min_Stack_Size+0x43db>
    5640:	63657078 	cmnvs	r5, #120	; 0x78
    5644:	65282874 	strvs	r2, [r8, #-2164]!	; 0xfffff78c
    5648:	2c297078 	stccs	0, cr7, [r9], #-480	; 0xfffffe20
    564c:	00293020 	eoreq	r3, r9, r0, lsr #32
    5650:	4c465f5f 	mcrrmi	15, 5, r5, r6, cr15
    5654:	5f343654 	svcpl	0x00343654
    5658:	5f534148 	svcpl	0x00534148
    565c:	4f4e4544 	svcmi	0x004e4544
    5660:	5f5f4d52 	svcpl	0x005f4d52
    5664:	5f003120 	svcpl	0x00003120
    5668:	4c4c555f 	cfstr64mi	mvdx5, [ip], {95}	; 0x5f
    566c:	55434341 	strbpl	r4, [r3, #-833]	; 0xfffffcbf
    5670:	42495f4d 	submi	r5, r9, #308	; 0x134
    5674:	5f5f5449 	svcpl	0x005f5449
    5678:	00323320 	eorseq	r3, r2, r0, lsr #6
    567c:	41555f5f 	cmpmi	r5, pc, asr pc
    5680:	4d554343 	ldclmi	3, cr4, [r5, #-268]	; 0xfffffef4
    5684:	5350455f 	cmppl	r0, #398458880	; 0x17c00000
    5688:	4e4f4c49 	cdpmi	12, 4, cr4, cr15, cr9, {2}
    568c:	30205f5f 	eorcc	r5, r0, pc, asr pc
    5690:	2d503178 	ldfcse	f3, [r0, #-480]	; 0xfffffe20
    5694:	4b553631 	blmi	1552f60 <_Min_Stack_Size+0x1552b60>
    5698:	47464300 	strbmi	r4, [r6, -r0, lsl #6]
    569c:	5f003252 	svcpl	0x00003252
    56a0:	41484357 	cmpmi	r8, r7, asr r3
    56a4:	5f545f52 	svcpl	0x00545f52
    56a8:	4c434544 	cfstr64mi	mvdx4, [r3], {68}	; 0x44
    56ac:	44455241 	strbmi	r5, [r5], #-577	; 0xfffffdbf
    56b0:	4e490020 	cdpmi	0, 4, cr0, cr9, cr0, {1}
    56b4:	41465f54 	cmpmi	r6, r4, asr pc
    56b8:	36315453 			; <UNDEFINED> instruction: 0x36315453
    56bc:	58414d5f 	stmdapl	r1, {r0, r1, r2, r3, r4, r6, r8, sl, fp, lr}^
    56c0:	5f5f2820 	svcpl	0x005f2820
    56c4:	5f544e49 	svcpl	0x00544e49
    56c8:	54534146 	ldrbpl	r4, [r3], #-326	; 0xfffffeba
    56cc:	4d5f3631 	ldclmi	6, cr3, [pc, #-196]	; 5610 <_Min_Stack_Size+0x5210>
    56d0:	5f5f5841 	svcpl	0x005f5841
    56d4:	535f0029 	cmppl	pc, #41	; 0x29
    56d8:	525f5359 	subspl	r5, pc, #1677721601	; 0x64000001
    56dc:	544e4545 	strbpl	r4, [lr], #-1349	; 0xfffffabb
    56e0:	205f485f 	subscs	r4, pc, pc, asr r8	; <UNPREDICTABLE>
    56e4:	465f5f00 	ldrbmi	r5, [pc], -r0, lsl #30
    56e8:	455f544c 	ldrbmi	r5, [pc, #-1100]	; 52a4 <_Min_Stack_Size+0x4ea4>
    56ec:	5f4c4156 	svcpl	0x004c4156
    56f0:	4854454d 	ldmdami	r4, {r0, r2, r3, r6, r8, sl, lr}^
    56f4:	5f5f444f 	svcpl	0x005f444f
    56f8:	5f003020 	svcpl	0x00003020
    56fc:	746e695f 	strbtvc	r6, [lr], #-2399	; 0xfffff6a1
    5700:	7361665f 	cmnvc	r1, #99614720	; 0x5f00000
    5704:	5f363174 	svcpl	0x00363174
    5708:	65645f74 	strbvs	r5, [r4, #-3956]!	; 0xfffff08c
    570c:	656e6966 	strbvs	r6, [lr, #-2406]!	; 0xfffff69a
    5710:	00312064 	eorseq	r2, r1, r4, rrx
    5714:	43535f5f 	cmpmi	r3, #380	; 0x17c
    5718:	5f524148 	svcpl	0x00524148
    571c:	5f58414d 	svcpl	0x0058414d
    5720:	7830205f 	ldmdavc	r0!, {r0, r1, r2, r3, r4, r6, sp}
    5724:	5f006637 	svcpl	0x00006637
    5728:	544e495f 	strbpl	r4, [lr], #-2399	; 0xfffff6a1
    572c:	5341465f 	movtpl	r4, #5727	; 0x165f
    5730:	575f3854 			; <UNDEFINED> instruction: 0x575f3854
    5734:	48544449 	ldmdami	r4, {r0, r3, r6, sl, lr}^
    5738:	33205f5f 			; <UNDEFINED> instruction: 0x33205f5f
    573c:	5f5f0032 	svcpl	0x005f0032
    5740:	43445453 	movtmi	r5, #17491	; 0x4453
    5744:	4654555f 			; <UNDEFINED> instruction: 0x4654555f
    5748:	5f36315f 	svcpl	0x0036315f
    574c:	0031205f 	eorseq	r2, r1, pc, asr r0
    5750:	4e41525f 	mcrmi	2, 2, r5, cr1, cr15, {2}
    5754:	5f383444 	svcpl	0x00383444
    5758:	544c554d 	strbpl	r5, [ip], #-1357	; 0xfffffab3
    575c:	2820325f 	stmdacs	r0!, {r0, r1, r2, r3, r4, r6, r9, ip, sp}
    5760:	30307830 	eorscc	r7, r0, r0, lsr r8
    5764:	00293530 	eoreq	r3, r9, r0, lsr r5
    5768:	52415f5f 	subpl	r5, r1, #380	; 0x17c
    576c:	45465f4d 	strbmi	r5, [r6, #-3917]	; 0xfffff0b3
    5770:	52555441 	subspl	r5, r5, #1090519040	; 0x41000000
    5774:	444c5f45 	strbmi	r5, [ip], #-3909	; 0xfffff0bb
    5778:	00584552 	subseq	r4, r8, r2, asr r5
    577c:	4545525f 	strbmi	r5, [r5, #-607]	; 0xfffffda1
    5780:	435f544e 	cmpmi	pc, #1308622848	; 0x4e000000
    5784:	4b434548 	blmi	10d6cac <_Min_Stack_Size+0x10d68ac>
    5788:	53494d5f 	movtpl	r4, #40287	; 0x9d5f
    578c:	61762843 	cmnvs	r6, r3, asr #16
    5790:	5f202972 	svcpl	0x00202972
    5794:	4e454552 	mcrmi	5, 2, r4, cr5, cr2, {2}
    5798:	48435f54 	stmdami	r3, {r2, r4, r6, r8, r9, sl, fp, ip, lr}^
    579c:	284b4345 	stmdacs	fp, {r0, r2, r6, r8, r9, lr}^
    57a0:	2c726176 	ldfcse	f6, [r2], #-472	; 0xfffffe28
    57a4:	696d5f20 	stmdbvs	sp!, {r5, r8, r9, sl, fp, ip, lr}^
    57a8:	202c6373 	eorcs	r6, ip, r3, ror r3
    57ac:	75727473 	ldrbvc	r7, [r2, #-1139]!	; 0xfffffb8d
    57b0:	5f207463 	svcpl	0x00207463
    57b4:	6373696d 	cmnvs	r3, #1785856	; 0x1b4000
    57b8:	6565725f 	strbvs	r7, [r5, #-607]!	; 0xfffffda1
    57bc:	2a20746e 	bcs	82297c <_Min_Stack_Size+0x82257c>
    57c0:	6973202c 	ldmdbvs	r3!, {r2, r3, r5, sp}^
    57c4:	666f657a 			; <UNDEFINED> instruction: 0x666f657a
    57c8:	28282a20 	stmdacs	r8!, {r5, r9, fp, sp}
    57cc:	29726176 	ldmdbcs	r2!, {r1, r2, r4, r5, r6, r8, sp, lr}^
    57d0:	6d5f3e2d 	ldclvs	14, cr3, [pc, #-180]	; 5724 <_Min_Stack_Size+0x5324>
    57d4:	29637369 	stmdbcs	r3!, {r0, r3, r5, r6, r8, r9, ip, sp, lr}^
    57d8:	525f202c 	subspl	r2, pc, #44	; 0x2c
    57dc:	544e4545 	strbpl	r4, [lr], #-1349	; 0xfffffabb
    57e0:	494e495f 	stmdbmi	lr, {r0, r1, r2, r3, r4, r6, r8, fp, lr}^
    57e4:	494d5f54 	stmdbmi	sp, {r2, r4, r6, r8, r9, sl, fp, ip, lr}^
    57e8:	76284353 			; <UNDEFINED> instruction: 0x76284353
    57ec:	29297261 	stmdbcs	r9!, {r0, r5, r6, r9, ip, sp, lr}
    57f0:	5f545f00 	svcpl	0x00545f00
    57f4:	44525450 	ldrbmi	r5, [r2], #-1104	; 0xfffffbb0
    57f8:	20464649 	subcs	r4, r6, r9, asr #12
    57fc:	555f5f00 	ldrbpl	r5, [pc, #-3840]	; 4904 <_Min_Stack_Size+0x4504>
    5800:	465f5151 			; <UNDEFINED> instruction: 0x465f5151
    5804:	5f544942 	svcpl	0x00544942
    5808:	0038205f 	eorseq	r2, r8, pc, asr r0
    580c:	4349564e 	movtmi	r5, #38478	; 0x964e
    5810:	4950535f 	ldmdbmi	r0, {r0, r1, r2, r3, r4, r6, r8, r9, ip, lr}^
    5814:	52495f32 	subpl	r5, r9, #50, 30	; 0xc8
    5818:	69445f51 	stmdbvs	r4, {r0, r4, r6, r8, r9, sl, fp, ip, lr}^
    581c:	6c626173 	stfvse	f6, [r2], #-460	; 0xfffffe34
    5820:	4e282065 	cdpmi	0, 2, cr2, cr8, cr5, {3}
    5824:	5f434956 	svcpl	0x00434956
    5828:	52454349 	subpl	r4, r5, #603979777	; 0x24000001
    582c:	3d7c2031 	ldclcc	0, cr2, [ip, #-196]!	; 0xffffff3c
    5830:	3c3c3120 	ldfccs	f3, [ip], #-128	; 0xffffff80
    5834:	49505328 	ldmdbmi	r0, {r3, r5, r8, r9, ip, lr}^
    5838:	52495f32 	subpl	r5, r9, #50, 30	; 0xc8
    583c:	202d2051 	eorcs	r2, sp, r1, asr r0
    5840:	29293233 	stmdbcs	r9!, {r0, r1, r4, r5, r9, ip, sp}
    5844:	575f5f00 	ldrbpl	r5, [pc, -r0, lsl #30]
    5848:	5f544e49 	svcpl	0x00544e49
    584c:	45505954 	ldrbmi	r5, [r0, #-2388]	; 0xfffff6ac
    5850:	75205f5f 	strvc	r5, [r0, #-3935]!	; 0xfffff0a1
    5854:	6769736e 	strbvs	r7, [r9, -lr, ror #6]!
    5858:	2064656e 	rsbcs	r6, r4, lr, ror #10
    585c:	00746e69 	rsbseq	r6, r4, r9, ror #28
    5860:	20746e69 	rsbscs	r6, r4, r9, ror #28
    5864:	5f00322b 	svcpl	0x0000322b
    5868:	4d52415f 	ldfmie	f4, [r2, #-380]	; 0xfffffe84
    586c:	3150465f 	cmpcc	r0, pc, asr r6
    5870:	52415f36 	subpl	r5, r1, #54, 30	; 0xd8
    5874:	5f005347 	svcpl	0x00005347
    5878:	4343475f 	movtmi	r4, #14175	; 0x375f
    587c:	4345495f 	movtmi	r4, #22879	; 0x595f
    5880:	3935355f 	ldmdbcc	r5!, {r0, r1, r2, r3, r4, r6, r8, sl, ip, sp}
    5884:	5f003020 	svcpl	0x00003020
    5888:	7165725f 	cmnvc	r5, pc, asr r2
    588c:	65726975 	ldrbvs	r6, [r2, #-2421]!	; 0xfffff68b
    5890:	6e755f73 	mrcvs	15, 3, r5, cr5, cr3, {3}
    5894:	6b636f6c 	blvs	18e164c <_Min_Stack_Size+0x18e124c>
    5898:	2e286465 	cdpcs	4, 2, cr6, cr8, cr5, {3}
    589c:	20292e2e 	eorcs	r2, r9, lr, lsr #28
    58a0:	6f6c5f5f 	svcvs	0x006c5f5f
    58a4:	615f6b63 	cmpvs	pc, r3, ror #22
    58a8:	746f6e6e 	strbtvc	r6, [pc], #-3694	; 58b0 <_Min_Stack_Size+0x54b0>
    58ac:	28657461 	stmdacs	r5!, {r0, r5, r6, sl, ip, sp, lr}^
    58b0:	6b636f6c 	blvs	18e1668 <_Min_Stack_Size+0x18e1268>
    58b4:	78655f73 	stmdavc	r5!, {r0, r1, r4, r5, r6, r8, r9, sl, fp, ip, lr}^
    58b8:	64756c63 	ldrbtvs	r6, [r5], #-3171	; 0xfffff39d
    58bc:	5f286465 	svcpl	0x00286465
    58c0:	5f41565f 	svcpl	0x0041565f
    58c4:	53475241 	movtpl	r5, #29249	; 0x7241
    58c8:	29295f5f 	stmdbcs	r9!, {r0, r1, r2, r3, r4, r6, r8, r9, sl, fp, ip, lr}
    58cc:	61686300 	cmnvs	r8, r0, lsl #6
    58d0:	302b2072 	eorcc	r2, fp, r2, ror r0
    58d4:	6c6c6100 	stfvse	f6, [ip], #-0
    58d8:	0061636f 	rsbeq	r6, r1, pc, ror #6
    58dc:	464c5f5f 			; <UNDEFINED> instruction: 0x464c5f5f
    58e0:	54434152 	strbpl	r4, [r3], #-338	; 0xfffffeae
    58e4:	58414d5f 	stmdapl	r1, {r0, r1, r2, r3, r4, r6, r8, sl, fp, lr}^
    58e8:	30205f5f 	eorcc	r5, r0, pc, asr pc
    58ec:	46463758 			; <UNDEFINED> instruction: 0x46463758
    58f0:	46464646 	strbmi	r4, [r6], -r6, asr #12
    58f4:	332d5046 			; <UNDEFINED> instruction: 0x332d5046
    58f8:	00524c31 	subseq	r4, r2, r1, lsr ip
    58fc:	49535f5f 	ldmdbmi	r3, {r0, r1, r2, r3, r4, r6, r8, r9, sl, fp, ip, lr}^
    5900:	464f455a 			; <UNDEFINED> instruction: 0x464f455a
    5904:	5254505f 	subspl	r5, r4, #95	; 0x5f
    5908:	46464944 	strbmi	r4, [r6], -r4, asr #18
    590c:	5f5f545f 	svcpl	0x005f545f
    5910:	45003420 	strmi	r3, [r0, #-1056]	; 0xfffffbe0
    5914:	31495458 	cmpcc	r9, r8, asr r4
    5918:	31312031 	teqcc	r1, r1, lsr r0
    591c:	575f5f00 	ldrbpl	r5, [pc, -r0, lsl #30]
    5920:	52414843 	subpl	r4, r1, #4390912	; 0x430000
    5924:	5f5f545f 	svcpl	0x005f545f
    5928:	5f5f0020 	svcpl	0x005f0020
    592c:	746e695f 	strbtvc	r6, [lr], #-2399	; 0xfffff6a1
    5930:	61656c5f 	cmnvs	r5, pc, asr ip
    5934:	5f387473 	svcpl	0x00387473
    5938:	65645f74 	strbvs	r5, [r4, #-3956]!	; 0xfffff08c
    593c:	656e6966 	strbvs	r6, [lr, #-2406]!	; 0xfffff69a
    5940:	00312064 	eorseq	r2, r1, r4, rrx
    5944:	52415f5f 	subpl	r5, r1, #380	; 0x17c
    5948:	45465f4d 	strbmi	r5, [r6, #-3917]	; 0xfffff0b3
    594c:	52555441 	subspl	r5, r5, #1090519040	; 0x41000000
    5950:	44495f45 	strbmi	r5, [r9], #-3909	; 0xfffff0bb
    5954:	31205649 			; <UNDEFINED> instruction: 0x31205649
    5958:	41535500 	cmpmi	r3, r0, lsl #10
    595c:	5f315452 	svcpl	0x00315452
    5960:	45534142 	ldrbmi	r4, [r3, #-322]	; 0xfffffebe
    5964:	34783020 	ldrbtcc	r3, [r8], #-32	; 0xffffffe0
    5968:	33313030 	teqcc	r1, #48	; 0x30
    596c:	75303038 	ldrvc	r3, [r0, #-56]!	; 0xffffffc8
    5970:	465f5f00 	ldrbmi	r5, [pc], -r0, lsl #30
    5974:	54414f4c 	strbpl	r4, [r1], #-3916	; 0xfffff0b4
    5978:	524f575f 	subpl	r5, pc, #24903680	; 0x17c0000
    597c:	524f5f44 	subpl	r5, pc, #68, 30	; 0x110
    5980:	5f524544 	svcpl	0x00524544
    5984:	5f5f205f 	svcpl	0x005f205f
    5988:	4544524f 	strbmi	r5, [r4, #-591]	; 0xfffffdb1
    598c:	494c5f52 	stmdbmi	ip, {r1, r4, r6, r8, r9, sl, fp, ip, lr}^
    5990:	454c5454 	strbmi	r5, [ip, #-1108]	; 0xfffffbac
    5994:	444e455f 	strbmi	r4, [lr], #-1375	; 0xfffffaa1
    5998:	5f4e4149 	svcpl	0x004e4149
    599c:	475f005f 			; <UNDEFINED> instruction: 0x475f005f
    59a0:	575f4343 	ldrbpl	r4, [pc, -r3, asr #6]
    59a4:	52414843 	subpl	r4, r1, #4390912	; 0x430000
    59a8:	0020545f 	eoreq	r5, r0, pc, asr r4
    59ac:	6e755f5f 	mrcvs	15, 3, r5, cr5, cr15, {2}
    59b0:	6b636f6c 	blvs	18e1768 <_Min_Stack_Size+0x18e1368>
    59b4:	2e2e2873 	mcrcs	8, 1, r2, cr14, cr3, {3}
    59b8:	5f20292e 	svcpl	0x0020292e
    59bc:	636f6c5f 	cmnvs	pc, #24320	; 0x5f00
    59c0:	6e615f6b 	cdpvs	15, 6, cr5, cr1, cr11, {3}
    59c4:	61746f6e 	cmnvs	r4, lr, ror #30
    59c8:	75286574 	strvc	r6, [r8, #-1396]!	; 0xfffffa8c
    59cc:	636f6c6e 	cmnvs	pc, #28160	; 0x6e00
    59d0:	75665f6b 	strbvc	r5, [r6, #-3947]!	; 0xfffff095
    59d4:	6974636e 	ldmdbvs	r4!, {r1, r2, r3, r5, r6, r8, r9, sp, lr}^
    59d8:	5f286e6f 	svcpl	0x00286e6f
    59dc:	5f41565f 	svcpl	0x0041565f
    59e0:	53475241 	movtpl	r5, #29249	; 0x7241
    59e4:	29295f5f 	stmdbcs	r9!, {r0, r1, r2, r3, r4, r6, r8, r9, sl, fp, ip, lr}
    59e8:	455f5f00 	ldrbmi	r5, [pc, #-3840]	; 4af0 <_Min_Stack_Size+0x46f0>
    59ec:	524f5058 	subpl	r5, pc, #88	; 0x58
    59f0:	5f002054 	svcpl	0x00002054
    59f4:	4e49555f 	mcrmi	5, 2, r5, cr9, cr15, {2}
    59f8:	454c5f54 	strbmi	r5, [ip, #-3924]	; 0xfffff0ac
    59fc:	38545341 	ldmdacc	r4, {r0, r6, r8, r9, ip, lr}^
    5a00:	5059545f 	subspl	r5, r9, pc, asr r4
    5a04:	205f5f45 	subscs	r5, pc, r5, asr #30
    5a08:	69736e75 	ldmdbvs	r3!, {r0, r2, r4, r5, r6, r9, sl, fp, sp, lr}^
    5a0c:	64656e67 	strbtvs	r6, [r5], #-3687	; 0xfffff199
    5a10:	61686320 	cmnvs	r8, r0, lsr #6
    5a14:	5f5f0072 	svcpl	0x005f0072
    5a18:	4f53424f 	svcmi	0x0053424f
    5a1c:	4554454c 	ldrbmi	r4, [r4, #-1356]	; 0xfffffab4
    5a20:	54414d5f 	strbpl	r4, [r1], #-3423	; 0xfffff2a1
    5a24:	45445f48 	strbmi	r5, [r4, #-3912]	; 0xfffff0b8
    5a28:	4c554146 	ldfmie	f4, [r5], {70}	; 0x46
    5a2c:	00312054 	eorseq	r2, r1, r4, asr r0
    5a30:	48535f5f 	ldmdami	r3, {r0, r1, r2, r3, r4, r6, r8, r9, sl, fp, ip, lr}^
    5a34:	575f5452 			; <UNDEFINED> instruction: 0x575f5452
    5a38:	48544449 	ldmdami	r4, {r0, r3, r6, sl, lr}^
    5a3c:	31205f5f 			; <UNDEFINED> instruction: 0x31205f5f
    5a40:	525f0036 	subspl	r0, pc, #54	; 0x36
    5a44:	5f444145 	svcpl	0x00444145
    5a48:	54495257 	strbpl	r5, [r9], #-599	; 0xfffffda9
    5a4c:	55425f45 	strbpl	r5, [r2, #-3909]	; 0xfffff0bb
    5a50:	5a495346 	bpl	125a770 <_Min_Stack_Size+0x125a370>
    5a54:	59545f45 	ldmdbpl	r4, {r0, r2, r6, r8, r9, sl, fp, ip, lr}^
    5a58:	69204550 	stmdbvs	r0!, {r4, r6, r8, sl, lr}
    5a5c:	4e00746e 	cdpmi	4, 0, cr7, cr0, cr14, {3}
    5a60:	5f434956 	svcpl	0x00434956
    5a64:	52455349 	subpl	r5, r5, #603979777	; 0x24000001
    5a68:	282a2032 	stmdacs	sl!, {r1, r4, r5, sp}
    5a6c:	616c6f76 	smcvs	50934	; 0xc6f6
    5a70:	656c6974 	strbvs	r6, [ip, #-2420]!	; 0xfffff68c
    5a74:	6e697520 	cdpvs	5, 6, cr7, cr9, cr0, {1}
    5a78:	5f323374 	svcpl	0x00323374
    5a7c:	29202a74 	stmdbcs	r0!, {r2, r4, r5, r6, r9, fp, sp}
    5a80:	49564e28 	ldmdbmi	r6, {r3, r5, r9, sl, fp, lr}^
    5a84:	61425f43 	cmpvs	r2, r3, asr #30
    5a88:	2b206573 	blcs	81f05c <_Min_Stack_Size+0x81ec5c>
    5a8c:	38307830 	ldmdacc	r0!, {r4, r5, fp, ip, sp, lr}
    5a90:	58450029 	stmdapl	r5, {r0, r3, r5}^
    5a94:	5f394954 	svcpl	0x00394954
    5a98:	6c6c6163 	stfvse	f6, [ip], #-396	; 0xfffffe74
    5a9c:	6b636142 	blvs	18ddfac <_Min_Stack_Size+0x18ddbac>
    5aa0:	544e4900 	strbpl	r4, [lr], #-2304	; 0xfffff700
    5aa4:	5f525450 	svcpl	0x00525450
    5aa8:	2058414d 	subscs	r4, r8, sp, asr #2
    5aac:	495f5f28 	ldmdbmi	pc, {r3, r5, r8, r9, sl, fp, ip, lr}^	; <UNPREDICTABLE>
    5ab0:	5450544e 	ldrbpl	r5, [r0], #-1102	; 0xfffffbb2
    5ab4:	414d5f52 	cmpmi	sp, r2, asr pc
    5ab8:	295f5f58 	ldmdbcs	pc, {r3, r4, r6, r8, r9, sl, fp, ip, lr}^	; <UNPREDICTABLE>
    5abc:	495f5f00 	ldmdbmi	pc, {r8, r9, sl, fp, ip, lr}^	; <UNPREDICTABLE>
    5ac0:	524f504d 	subpl	r5, pc, #77	; 0x4d
    5ac4:	47002054 	smlsdmi	r0, r4, r0, r2
    5ac8:	5f4f4950 	svcpl	0x004f4950
    5acc:	5f4e4950 	svcpl	0x004e4950
    5ad0:	28282030 	stmdacs	r8!, {r4, r5, sp}
    5ad4:	746e6975 	strbtvc	r6, [lr], #-2421	; 0xfffff68b
    5ad8:	745f3631 	ldrbvc	r3, [pc], #-1585	; 5ae0 <_Min_Stack_Size+0x56e0>
    5adc:	78302029 	ldmdavc	r0!, {r0, r3, r5, sp}
    5ae0:	31303030 	teqcc	r0, r0, lsr r0
    5ae4:	505f0029 	subspl	r0, pc, r9, lsr #32
    5ae8:	49445254 	stmdbmi	r4, {r2, r4, r6, r9, ip, lr}^
    5aec:	545f4646 	ldrbpl	r4, [pc], #-1606	; 5af4 <_Min_Stack_Size+0x56f4>
    5af0:	4345445f 	movtmi	r4, #21599	; 0x545f
    5af4:	4552414c 	ldrbmi	r4, [r2, #-332]	; 0xfffffeb4
    5af8:	5f002044 	svcpl	0x00002044
    5afc:	4153555f 	cmpmi	r3, pc, asr r5
    5b00:	4942465f 	stmdbmi	r2, {r0, r1, r2, r3, r4, r6, r9, sl, lr}^
    5b04:	205f5f54 	subscs	r5, pc, r4, asr pc	; <UNPREDICTABLE>
    5b08:	5f003631 	svcpl	0x00003631
    5b0c:	6c6f765f 	stclvs	6, cr7, [pc], #-380	; 5998 <_Min_Stack_Size+0x5598>
    5b10:	6c697461 	cfstrdvs	mvd7, [r9], #-388	; 0xfffffe7c
    5b14:	6f762065 	svcvs	0x00762065
    5b18:	6974616c 	ldmdbvs	r4!, {r2, r3, r5, r6, r8, sp, lr}^
    5b1c:	5f00656c 	svcpl	0x0000656c
    5b20:	4843414d 	stmdami	r3, {r0, r2, r3, r6, r8, lr}^
    5b24:	5f454e49 	svcpl	0x00454e49
    5b28:	5059545f 	subspl	r5, r9, pc, asr r4
    5b2c:	485f5345 	ldmdami	pc, {r0, r2, r6, r8, r9, ip, lr}^	; <UNPREDICTABLE>
    5b30:	5f5f0020 	svcpl	0x005f0020
    5b34:	45454549 	strbmi	r4, [r5, #-1353]	; 0xfffffab7
    5b38:	54494c5f 	strbpl	r4, [r9], #-3167	; 0xfffff3a1
    5b3c:	5f454c54 	svcpl	0x00454c54
    5b40:	49444e45 	stmdbmi	r4, {r0, r2, r6, r9, sl, fp, lr}^
    5b44:	00204e41 	eoreq	r4, r0, r1, asr #28
    5b48:	444c5f5f 	strbmi	r5, [ip], #-3935	; 0xfffff0a1
    5b4c:	4d5f4c42 	ldclmi	12, cr4, [pc, #-264]	; 5a4c <_Min_Stack_Size+0x564c>
    5b50:	315f4e49 	cmpcc	pc, r9, asr #28
    5b54:	58455f30 	stmdapl	r5, {r4, r5, r8, r9, sl, fp, ip, lr}^
    5b58:	205f5f50 	subscs	r5, pc, r0, asr pc	; <UNPREDICTABLE>
    5b5c:	30332d28 	eorscc	r2, r3, r8, lsr #26
    5b60:	5f002937 	svcpl	0x00002937
    5b64:	4654415f 			; <UNDEFINED> instruction: 0x4654415f
    5b68:	5f454c49 	svcpl	0x00454c49
    5b6c:	49534956 	ldmdbmi	r3, {r1, r2, r4, r6, r8, fp, lr}^
    5b70:	20454c42 	subcs	r4, r5, r2, asr #24
    5b74:	58450031 	stmdapl	r5, {r0, r4, r5}^
    5b78:	745f4954 	ldrbvc	r4, [pc], #-2388	; 5b80 <_Min_Stack_Size+0x5780>
    5b7c:	67676972 			; <UNDEFINED> instruction: 0x67676972
    5b80:	725f7265 	subsvc	r7, pc, #1342177286	; 0x50000006
    5b84:	6e697369 	cdpvs	3, 6, cr7, cr9, cr9, {3}
    5b88:	444e4167 	strbmi	r4, [lr], #-359	; 0xfffffe99
    5b8c:	6c6c6166 	stfvse	f6, [ip], #-408	; 0xfffffe68
    5b90:	20676e69 	rsbcs	r6, r7, r9, ror #28
    5b94:	58450032 	stmdapl	r5, {r1, r4, r5}^
    5b98:	35314954 	ldrcc	r4, [r1, #-2388]!	; 0xfffff6ac
    5b9c:	00353120 	eorseq	r3, r5, r0, lsr #2
    5ba0:	464c5f5f 			; <UNDEFINED> instruction: 0x464c5f5f
    5ba4:	54434152 	strbpl	r4, [r3], #-338	; 0xfffffeae
    5ba8:	5350455f 	cmppl	r0, #398458880	; 0x17c00000
    5bac:	4e4f4c49 	cdpmi	12, 4, cr4, cr15, cr9, {2}
    5bb0:	30205f5f 	eorcc	r5, r0, pc, asr pc
    5bb4:	2d503178 	ldfcse	f3, [r0, #-480]	; 0xfffffe20
    5bb8:	524c3133 	subpl	r3, ip, #-1073741812	; 0xc000000c
    5bbc:	45425f00 	strbmi	r5, [r2, #-3840]	; 0xfffff100
    5bc0:	5f4e4947 	svcpl	0x004e4947
    5bc4:	5f445453 	svcpl	0x00445453
    5bc8:	5f002043 	svcpl	0x00002043
    5bcc:	6c616d5f 	stclvs	13, cr6, [r1], #-380	; 0xfffffe84
    5bd0:	5f636f6c 	svcpl	0x00636f6c
    5bd4:	656b696c 	strbvs	r6, [fp, #-2412]!	; 0xfffff694
    5bd8:	615f5f20 	cmpvs	pc, r0, lsr #30
    5bdc:	69727474 	ldmdbvs	r2!, {r2, r4, r5, r6, sl, ip, sp, lr}^
    5be0:	65747562 	ldrbvs	r7, [r4, #-1378]!	; 0xfffffa9e
    5be4:	28285f5f 	stmdacs	r8!, {r0, r1, r2, r3, r4, r6, r8, r9, sl, fp, ip, lr}
    5be8:	616d5f5f 	cmnvs	sp, pc, asr pc
    5bec:	636f6c6c 	cmnvs	pc, #108, 24	; 0x6c00
    5bf0:	29295f5f 	stmdbcs	r9!, {r0, r1, r2, r3, r4, r6, r8, r9, sl, fp, ip, lr}
    5bf4:	45525f00 	ldrbmi	r5, [r2, #-3840]	; 0xfffff100
    5bf8:	5f544e45 	svcpl	0x00544e45
    5bfc:	54494e49 	strbpl	r4, [r9], #-3657	; 0xfffff1b7
    5c00:	72617628 	rsbvc	r7, r1, #40, 12	; 0x2800000
    5c04:	207b2029 	rsbscs	r2, fp, r9, lsr #32
    5c08:	28202c30 	stmdacs	r0!, {r4, r5, sl, fp, sp}
    5c0c:	49465f5f 	stmdbmi	r6, {r0, r1, r2, r3, r4, r6, r8, r9, sl, fp, ip, lr}^
    5c10:	2a20454c 	bcs	817148 <_Min_Stack_Size+0x816d48>
    5c14:	5f5f2629 	svcpl	0x005f2629
    5c18:	665f6673 			; <UNDEFINED> instruction: 0x665f6673
    5c1c:	5f656b61 	svcpl	0x00656b61
    5c20:	69647473 	stmdbvs	r4!, {r0, r1, r4, r5, r6, sl, ip, sp, lr}^
    5c24:	28202c6e 	stmdacs	r0!, {r1, r2, r3, r5, r6, sl, fp, sp}
    5c28:	49465f5f 	stmdbmi	r6, {r0, r1, r2, r3, r4, r6, r8, r9, sl, fp, ip, lr}^
    5c2c:	2a20454c 	bcs	817164 <_Min_Stack_Size+0x816d64>
    5c30:	5f5f2629 	svcpl	0x005f2629
    5c34:	665f6673 			; <UNDEFINED> instruction: 0x665f6673
    5c38:	5f656b61 	svcpl	0x00656b61
    5c3c:	6f647473 	svcvs	0x00647473
    5c40:	202c7475 	eorcs	r7, ip, r5, ror r4
    5c44:	465f5f28 	ldrbmi	r5, [pc], -r8, lsr #30
    5c48:	20454c49 	subcs	r4, r5, r9, asr #24
    5c4c:	5f26292a 	svcpl	0x0026292a
    5c50:	5f66735f 	svcpl	0x0066735f
    5c54:	656b6166 	strbvs	r6, [fp, #-358]!	; 0xfffffe9a
    5c58:	6474735f 	ldrbtvs	r7, [r4], #-863	; 0xfffffca1
    5c5c:	2c727265 	lfmcs	f7, 2, [r2], #-404	; 0xfffffe6c
    5c60:	202c3020 	eorcs	r3, ip, r0, lsr #32
    5c64:	4c554e5f 	mrrcmi	14, 5, r4, r5, cr15
    5c68:	30202c4c 	eorcc	r2, r0, ip, asr #24
    5c6c:	2c30202c 	ldccs	0, cr2, [r0], #-176	; 0xffffff50
    5c70:	554e5f20 	strbpl	r5, [lr, #-3872]	; 0xfffff0e0
    5c74:	202c4c4c 	eorcs	r4, ip, ip, asr #24
    5c78:	4c554e5f 	mrrcmi	14, 5, r4, r5, cr15
    5c7c:	5f202c4c 	svcpl	0x00202c4c
    5c80:	4c4c554e 	cfstr64mi	mvdx5, [ip], {78}	; 0x4e
    5c84:	2c30202c 	ldccs	0, cr2, [r0], #-176	; 0xffffff50
    5c88:	202c3020 	eorcs	r3, ip, r0, lsr #32
    5c8c:	4c554e5f 	mrrcmi	14, 5, r4, r5, cr15
    5c90:	5f202c4c 	svcpl	0x00202c4c
    5c94:	4c4c554e 	cfstr64mi	mvdx5, [ip], {78}	; 0x4e
    5c98:	4e5f202c 	cdpmi	0, 5, cr2, cr15, cr12, {1}
    5c9c:	2c4c4c55 	mcrrcs	12, 5, r4, ip, cr5
    5ca0:	554e5f20 	strbpl	r5, [lr, #-3872]	; 0xfffff0e0
    5ca4:	202c4c4c 	eorcs	r4, ip, ip, asr #24
    5ca8:	4c554e5f 	mrrcmi	14, 5, r4, r5, cr15
    5cac:	5f202c4c 	svcpl	0x00202c4c
    5cb0:	4e454552 	mcrmi	5, 2, r4, cr5, cr2, {2}
    5cb4:	4e495f54 	mcrmi	15, 2, r5, cr9, cr4, {2}
    5cb8:	415f5449 	cmpmi	pc, r9, asr #8
    5cbc:	49584554 	ldmdbmi	r8, {r2, r4, r6, r8, sl, lr}^
    5cc0:	5f7b2054 	svcpl	0x007b2054
    5cc4:	4c4c554e 	cfstr64mi	mvdx5, [ip], {78}	; 0x4e
    5cc8:	2c30202c 	ldccs	0, cr2, [r0], #-176	; 0xffffff50
    5ccc:	554e5f20 	strbpl	r5, [lr, #-3872]	; 0xfffff0e0
    5cd0:	2c7d4c4c 	ldclcs	12, cr4, [sp], #-304	; 0xfffffed0
    5cd4:	554e5f20 	strbpl	r5, [lr, #-3872]	; 0xfffff0e0
    5cd8:	202c4c4c 	eorcs	r4, ip, ip, asr #24
    5cdc:	4c554e5f 	mrrcmi	14, 5, r4, r5, cr15
    5ce0:	5f202c4c 	svcpl	0x00202c4c
    5ce4:	4c4c554e 	cfstr64mi	mvdx5, [ip], {78}	; 0x4e
    5ce8:	5f007d20 	svcpl	0x00007d20
    5cec:	4d52415f 	ldfmie	f4, [r2, #-380]	; 0xfffffe84
    5cf0:	5a49535f 	bpl	125aa74 <_Min_Stack_Size+0x125a674>
    5cf4:	5f464f45 	svcpl	0x00464f45
    5cf8:	494e494d 	stmdbmi	lr, {r0, r2, r3, r6, r8, fp, lr}^
    5cfc:	5f4c414d 	svcpl	0x004c414d
    5d00:	4d554e45 	ldclmi	14, cr4, [r5, #-276]	; 0xfffffeec
    5d04:	5f003120 	svcpl	0x00003120
    5d08:	4e494f50 	mcrmi	15, 2, r4, cr9, cr0, {2}
    5d0c:	5f524554 	svcpl	0x00524554
    5d10:	20544e49 	subscs	r4, r4, r9, asr #28
    5d14:	676e6f6c 	strbvs	r6, [lr, -ip, ror #30]!
    5d18:	465f5f00 	ldrbmi	r5, [pc], -r0, lsl #30
    5d1c:	3233544c 	eorscc	r5, r3, #76, 8	; 0x4c000000
    5d20:	4f4e5f58 	svcmi	0x004e5f58
    5d24:	4d5f4d52 	ldclmi	13, cr4, [pc, #-328]	; 5be4 <_Min_Stack_Size+0x57e4>
    5d28:	5f5f5841 	svcpl	0x005f5841
    5d2c:	372e3120 	strcc	r3, [lr, -r0, lsr #2]!
    5d30:	39363739 	ldmdbcc	r6!, {r0, r3, r4, r5, r8, r9, sl, ip, sp}
    5d34:	34333133 	ldrtcc	r3, [r3], #-307	; 0xfffffecd
    5d38:	33323638 	teqcc	r2, #56, 12	; 0x3800000
    5d3c:	65373531 	ldrvs	r3, [r7, #-1329]!	; 0xfffffacf
    5d40:	3830332b 	ldmdacc	r0!, {r0, r1, r3, r5, r8, r9, ip, sp}
    5d44:	78323346 	ldmdavc	r2!, {r1, r2, r6, r8, r9, ip, sp}
    5d48:	54584500 	ldrbpl	r4, [r8], #-1280	; 0xfffffb00
    5d4c:	20323149 	eorscs	r3, r2, r9, asr #2
    5d50:	5f003231 	svcpl	0x00003231
    5d54:	6d72615f 	ldfvse	f6, [r2, #-380]!	; 0xfffffe84
    5d58:	31205f5f 			; <UNDEFINED> instruction: 0x31205f5f
    5d5c:	465f5f00 	ldrbmi	r5, [pc], -r0, lsl #30
    5d60:	54434152 	strbpl	r4, [r3], #-338	; 0xfffffeae
    5d64:	5350455f 	cmppl	r0, #398458880	; 0x17c00000
    5d68:	4e4f4c49 	cdpmi	12, 4, cr4, cr15, cr9, {2}
    5d6c:	30205f5f 	eorcc	r5, r0, pc, asr pc
    5d70:	2d503178 	ldfcse	f3, [r0, #-480]	; 0xfffffe20
    5d74:	00523531 	subseq	r3, r2, r1, lsr r5
    5d78:	4c465f5f 	mcrrmi	15, 5, r5, r6, cr15
    5d7c:	5f323354 	svcpl	0x00323354
    5d80:	5f4e494d 	svcpl	0x004e494d
    5d84:	455f3031 	ldrbmi	r3, [pc, #-49]	; 5d5b <_Min_Stack_Size+0x595b>
    5d88:	5f5f5058 	svcpl	0x005f5058
    5d8c:	332d2820 			; <UNDEFINED> instruction: 0x332d2820
    5d90:	5f002937 	svcpl	0x00002937
    5d94:	4e454552 	mcrmi	5, 2, r4, cr5, cr2, {2}
    5d98:	43575f54 	cmpmi	r7, #84, 30	; 0x150
    5d9c:	424d4f54 	submi	r4, sp, #84, 30	; 0x150
    5da0:	4154535f 	cmpmi	r4, pc, asr r3
    5da4:	70284554 	eorvc	r4, r8, r4, asr r5
    5da8:	20297274 	eorcs	r7, r9, r4, ror r2
    5dac:	74702828 	ldrbtvc	r2, [r0], #-2088	; 0xfffff7d8
    5db0:	3e2d2972 			; <UNDEFINED> instruction: 0x3e2d2972
    5db4:	73696d5f 	cmnvc	r9, #6080	; 0x17c0
    5db8:	5f3e2d63 	svcpl	0x003e2d63
    5dbc:	6f746377 	svcvs	0x00746377
    5dc0:	735f626d 	cmpvc	pc, #-805306362	; 0xd0000006
    5dc4:	65746174 	ldrbvs	r6, [r4, #-372]!	; 0xfffffe8c
    5dc8:	5f5f0029 	svcpl	0x005f0029
    5dcc:	5f4f5349 	svcpl	0x004f5349
    5dd0:	49565f43 	ldmdbmi	r6, {r0, r1, r6, r8, r9, sl, fp, ip, lr}^
    5dd4:	4c424953 	mcrrmi	9, 5, r4, r2, cr3	; <UNPREDICTABLE>
    5dd8:	30322045 	eorscc	r2, r2, r5, asr #32
    5ddc:	55003131 	strpl	r3, [r0, #-305]	; 0xfffffecf
    5de0:	35545241 	ldrbcc	r5, [r4, #-577]	; 0xfffffdbf
    5de4:	55282820 	strpl	r2, [r8, #-2080]!	; 0xfffff7e0
    5de8:	54524153 	ldrbpl	r4, [r2], #-339	; 0xfffffead
    5dec:	7079545f 	rsbsvc	r5, r9, pc, asr r4
    5df0:	66656465 	strbtvs	r6, [r5], -r5, ror #8
    5df4:	2a20745f 	bcs	822f78 <_Min_Stack_Size+0x822b78>
    5df8:	52415529 	subpl	r5, r1, #171966464	; 0xa400000
    5dfc:	425f3554 	subsmi	r3, pc, #84, 10	; 0x15000000
    5e00:	29455341 	stmdbcs	r5, {r0, r6, r8, r9, ip, lr}^
    5e04:	415f5f00 	cmpmi	pc, r0, lsl #30
    5e08:	465f4d52 			; <UNDEFINED> instruction: 0x465f4d52
    5e0c:	5f363150 	svcpl	0x00363150
    5e10:	4d524f46 	ldclmi	15, cr4, [r2, #-280]	; 0xfffffee8
    5e14:	415f5441 	cmpmi	pc, r1, asr #8
    5e18:	5245544c 	subpl	r5, r5, #76, 8	; 0x4c000000
    5e1c:	4954414e 	ldmdbmi	r4, {r1, r2, r3, r6, r8, lr}^
    5e20:	45004556 	strmi	r4, [r0, #-1366]	; 0xfffffaaa
    5e24:	35495458 	strbcc	r5, [r9, #-1112]	; 0xfffffba8
    5e28:	20354450 	eorscs	r4, r5, r0, asr r4
    5e2c:	54584528 	ldrbpl	r4, [r8], #-1320	; 0xfffffad8
    5e30:	50475f49 	subpl	r5, r7, r9, asr #30
    5e34:	4d5f4f49 	ldclmi	15, cr4, [pc, #-292]	; 5d18 <_Min_Stack_Size+0x5918>
    5e38:	69707061 	ldmdbvs	r0!, {r0, r5, r6, ip, sp, lr}^
    5e3c:	745f676e 	ldrbvc	r6, [pc], #-1902	; 5e44 <_Min_Stack_Size+0x5a44>
    5e40:	58457b29 	stmdapl	r5, {r0, r3, r5, r8, r9, fp, ip, sp, lr}^
    5e44:	2c354954 			; <UNDEFINED> instruction: 0x2c354954
    5e48:	49504720 	ldmdbmi	r0, {r5, r8, r9, sl, lr}^
    5e4c:	202c444f 	eorcs	r4, ip, pc, asr #8
    5e50:	4f495047 	svcmi	0x00495047
    5e54:	4e49505f 	mcrmi	0, 2, r5, cr9, cr15, {2}
    5e58:	202c355f 	eorcs	r3, ip, pc, asr r5
    5e5c:	49545845 	ldmdbmi	r4, {r0, r2, r6, fp, ip, lr}^
    5e60:	52495f35 	subpl	r5, r9, #53, 30	; 0xd4
    5e64:	5f007d51 	svcpl	0x00007d51
    5e68:	5342465f 	movtpl	r4, #9823	; 0x265f
    5e6c:	28444944 	stmdacs	r4, {r2, r6, r8, fp, lr}^
    5e70:	73202973 			; <UNDEFINED> instruction: 0x73202973
    5e74:	63757274 	cmnvs	r5, #116, 4	; 0x40000007
    5e78:	5f5f2074 	svcpl	0x005f2074
    5e7c:	6b636168 	blvs	18de424 <_Min_Stack_Size+0x18de024>
    5e80:	4c5f5f00 	mrrcmi	15, 0, r5, pc, cr0	; <UNPREDICTABLE>
    5e84:	5f4c4244 	svcpl	0x004c4244
    5e88:	4d524f4e 	ldclmi	15, cr4, [r2, #-312]	; 0xfffffec8
    5e8c:	58414d5f 	stmdapl	r1, {r0, r1, r2, r3, r4, r6, r8, sl, fp, lr}^
    5e90:	31205f5f 			; <UNDEFINED> instruction: 0x31205f5f
    5e94:	3739372e 	ldrcc	r3, [r9, -lr, lsr #14]!
    5e98:	31333936 	teqcc	r3, r6, lsr r9
    5e9c:	36383433 			; <UNDEFINED> instruction: 0x36383433
    5ea0:	35313332 	ldrcc	r3, [r1, #-818]!	; 0xfffffcce
    5ea4:	332b6537 			; <UNDEFINED> instruction: 0x332b6537
    5ea8:	004c3830 	subeq	r3, ip, r0, lsr r8
    5eac:	5f544e49 	svcpl	0x00544e49
    5eb0:	54534146 	ldrbpl	r4, [r3], #-326	; 0xfffffeba
    5eb4:	4d5f3436 	cfldrdmi	mvd3, [pc, #-216]	; 5de4 <_Min_Stack_Size+0x59e4>
    5eb8:	28204e49 	stmdacs	r0!, {r0, r3, r6, r9, sl, fp, lr}
    5ebc:	495f5f2d 	ldmdbmi	pc, {r0, r2, r3, r5, r8, r9, sl, fp, ip, lr}^	; <UNPREDICTABLE>
    5ec0:	465f544e 	ldrbmi	r5, [pc], -lr, asr #8
    5ec4:	36545341 	ldrbcc	r5, [r4], -r1, asr #6
    5ec8:	414d5f34 	cmpmi	sp, r4, lsr pc
    5ecc:	205f5f58 	subscs	r5, pc, r8, asr pc	; <UNPREDICTABLE>
    5ed0:	2931202d 	ldmdbcs	r1!, {r0, r2, r3, r5, sp}
    5ed4:	414d5f00 	cmpmi	sp, r0, lsl #30
    5ed8:	4e494843 	cdpmi	8, 4, cr4, cr9, cr3, {2}
    5edc:	445f5f45 	ldrbmi	r5, [pc], #-3909	; 5ee4 <_Min_Stack_Size+0x5ae4>
    5ee0:	55414645 	strbpl	r4, [r1, #-1605]	; 0xfffff9bb
    5ee4:	545f544c 	ldrbpl	r5, [pc], #-1100	; 5eec <_Min_Stack_Size+0x5aec>
    5ee8:	53455059 	movtpl	r5, #20569	; 0x5059
    5eec:	0020485f 	eoreq	r4, r0, pc, asr r8
    5ef0:	49425f5f 	stmdbmi	r2, {r0, r1, r2, r3, r4, r6, r8, r9, sl, fp, ip, lr}^
    5ef4:	53454747 	movtpl	r4, #22343	; 0x5747
    5ef8:	4c415f54 	mcrrmi	15, 5, r5, r1, cr4
    5efc:	4d4e4749 	stclmi	7, cr4, [lr, #-292]	; 0xfffffedc
    5f00:	5f544e45 	svcpl	0x00544e45
    5f04:	0038205f 	eorseq	r2, r8, pc, asr r0
    5f08:	4343475f 	movtmi	r4, #14175	; 0x375f
    5f0c:	5254505f 	subspl	r5, r4, #95	; 0x5f
    5f10:	46464944 	strbmi	r4, [r6], -r4, asr #18
    5f14:	0020545f 	eoreq	r5, r0, pc, asr r4
    5f18:	4e475f5f 	mcrmi	15, 2, r5, cr7, cr15, {2}
    5f1c:	494c4355 	stmdbmi	ip, {r0, r2, r4, r6, r8, r9, lr}^
    5f20:	425f454b 	subsmi	r4, pc, #314572800	; 0x12c00000
    5f24:	544c4955 	strbpl	r4, [ip], #-2389	; 0xfffff6ab
    5f28:	4e5f4e49 	cdpmi	14, 5, cr4, cr15, cr9, {2}
    5f2c:	5f545845 	svcpl	0x00545845
    5f30:	20475241 	subcs	r5, r7, r1, asr #4
    5f34:	50470031 	subpl	r0, r7, r1, lsr r0
    5f38:	505f4f49 	subspl	r4, pc, r9, asr #30
    5f3c:	315f4e49 	cmpcc	pc, r9, asr #28
    5f40:	75282820 	strvc	r2, [r8, #-2080]!	; 0xfffff7e0
    5f44:	31746e69 	cmncc	r4, r9, ror #28
    5f48:	29745f36 	ldmdbcs	r4!, {r1, r2, r4, r5, r8, r9, sl, fp, ip, lr}^
    5f4c:	30783020 	rsbscc	r3, r8, r0, lsr #32
    5f50:	29323030 	ldmdbcs	r2!, {r4, r5, ip, sp}
    5f54:	545f5f00 	ldrbpl	r5, [pc], #-3840	; 5f5c <_Min_Stack_Size+0x5b5c>
    5f58:	42495f41 	submi	r5, r9, #260	; 0x104
    5f5c:	5f5f5449 	svcpl	0x005f5449
    5f60:	00343620 	eorseq	r3, r4, r0, lsr #12
    5f64:	49545845 	ldmdbmi	r4, {r0, r2, r6, fp, ip, lr}^
    5f68:	34415034 	strbcc	r5, [r1], #-52	; 0xffffffcc
    5f6c:	58452820 	stmdapl	r5, {r5, fp, sp}^
    5f70:	475f4954 			; <UNDEFINED> instruction: 0x475f4954
    5f74:	5f4f4950 	svcpl	0x004f4950
    5f78:	7070614d 	rsbsvc	r6, r0, sp, asr #2
    5f7c:	5f676e69 	svcpl	0x00676e69
    5f80:	457b2974 	ldrbmi	r2, [fp, #-2420]!	; 0xfffff68c
    5f84:	34495458 	strbcc	r5, [r9], #-1112	; 0xfffffba8
    5f88:	5047202c 	subpl	r2, r7, ip, lsr #32
    5f8c:	2c414f49 	mcrrcs	15, 4, r4, r1, cr9
    5f90:	49504720 	ldmdbmi	r0, {r5, r8, r9, sl, lr}^
    5f94:	49505f4f 	ldmdbmi	r0, {r0, r1, r2, r3, r6, r8, r9, sl, fp, ip, lr}^
    5f98:	2c345f4e 	ldccs	15, cr5, [r4], #-312	; 0xfffffec8
    5f9c:	54584520 	ldrbpl	r4, [r8], #-1312	; 0xfffffae0
    5fa0:	495f3449 	ldmdbmi	pc, {r0, r3, r6, sl, ip, sp}^	; <UNPREDICTABLE>
    5fa4:	007d5152 	rsbseq	r5, sp, r2, asr r1
    5fa8:	334d5453 	movtcc	r5, #54355	; 0xd453
    5fac:	00312032 	eorseq	r2, r1, r2, lsr r0
    5fb0:	454c5f5f 	strbmi	r5, [ip, #-3935]	; 0xfffff0a1
    5fb4:	36545341 	ldrbcc	r5, [r4], -r1, asr #6
    5fb8:	6c222034 	stcvs	0, cr2, [r2], #-208	; 0xffffff30
    5fbc:	4500226c 	strmi	r2, [r0, #-620]	; 0xfffffd94
    5fc0:	34495458 	strbcc	r5, [r9], #-1112	; 0xfffffba8
    5fc4:	5f003420 	svcpl	0x00003420
    5fc8:	6565725f 	strbvs	r7, [r5, #-607]!	; 0xfffffda1
    5fcc:	615f746e 	cmpvs	pc, lr, ror #8
    5fd0:	72657373 	rsbvc	r7, r5, #-872415231	; 0xcc000001
    5fd4:	29782874 	ldmdbcs	r8!, {r2, r4, r5, r6, fp, sp}^
    5fd8:	78282820 	stmdavc	r8!, {r5, fp, sp}
    5fdc:	203f2029 	eorscs	r2, pc, r9, lsr #32
    5fe0:	696f7628 	stmdbvs	pc!, {r3, r5, r9, sl, ip, sp, lr}^	; <UNPREDICTABLE>
    5fe4:	20302964 	eorscs	r2, r0, r4, ror #18
    5fe8:	5f5f203a 	svcpl	0x005f203a
    5fec:	65737361 	ldrbvs	r7, [r3, #-865]!	; 0xfffffc9f
    5ff0:	665f7472 			; <UNDEFINED> instruction: 0x665f7472
    5ff4:	28636e75 	stmdacs	r3!, {r0, r2, r4, r5, r6, r9, sl, fp, sp, lr}^
    5ff8:	49465f5f 	stmdbmi	r6, {r0, r1, r2, r3, r4, r6, r8, r9, sl, fp, ip, lr}^
    5ffc:	5f5f454c 	svcpl	0x005f454c
    6000:	5f5f202c 	svcpl	0x005f202c
    6004:	454e494c 	strbmi	r4, [lr, #-2380]	; 0xfffff6b4
    6008:	202c5f5f 	eorcs	r5, ip, pc, asr pc
    600c:	61686328 	cmnvs	r8, r8, lsr #6
    6010:	292a2072 	stmdbcs	sl!, {r1, r4, r5, r6, sp}
    6014:	22202c30 	eorcs	r2, r0, #48, 24	; 0x3000
    6018:	4e454552 	mcrmi	5, 2, r4, cr5, cr2, {2}
    601c:	616d2054 	qdsubvs	r2, r4, sp
    6020:	636f6c6c 	cmnvs	pc, #108, 24	; 0x6c00
    6024:	63757320 	cmnvs	r5, #32, 6	; 0x80000000
    6028:	64656563 	strbtvs	r6, [r5], #-1379	; 0xfffffa9d
    602c:	29226465 	stmdbcs	r2!, {r0, r2, r5, r6, sl, sp, lr}
    6030:	5f5f0029 	svcpl	0x005f0029
    6034:	5f4d5241 	svcpl	0x004d5241
    6038:	54414546 	strbpl	r4, [r1], #-1350	; 0xfffffaba
    603c:	5f455255 	svcpl	0x00455255
    6040:	4d445251 	sfmmi	f5, 2, [r4, #-324]	; 0xfffffebc
    6044:	485f0058 	ldmdami	pc, {r3, r4, r6}^	; <UNPREDICTABLE>
    6048:	5f455641 	svcpl	0x00455641
    604c:	495f4343 	ldmdbmi	pc, {r0, r1, r6, r8, r9, lr}^	; <UNPREDICTABLE>
    6050:	4249484e 	submi	r4, r9, #5111808	; 0x4e0000
    6054:	4c5f5449 	cfldrdmi	mvd5, [pc], {73}	; 0x49
    6058:	5f504f4f 	svcpl	0x00504f4f
    605c:	4c5f4f54 	mrrcmi	15, 5, r4, pc, cr4	; <UNPREDICTABLE>
    6060:	41434249 	cmpmi	r3, r9, asr #4
    6064:	31204c4c 			; <UNDEFINED> instruction: 0x31204c4c
    6068:	415f5f00 	cmpmi	pc, r0, lsl #30
    606c:	415f4d52 	cmpmi	pc, r2, asr sp	; <UNPREDICTABLE>
    6070:	5f484352 	svcpl	0x00484352
    6074:	5f415349 	svcpl	0x00415349
    6078:	4d554854 	ldclmi	8, cr4, [r5, #-336]	; 0xfffffeb0
    607c:	00322042 	eorseq	r2, r2, r2, asr #32
    6080:	4f494641 	svcmi	0x00494641
    6084:	4b4c435f 	blmi	1316e08 <_Min_Stack_Size+0x1316a08>
    6088:	284e455f 	stmdacs	lr, {r0, r1, r2, r3, r4, r6, r8, sl, lr}^
    608c:	52282029 	eorpl	r2, r8, #41	; 0x29
    6090:	3e2d4343 	cdpcc	3, 2, cr4, cr13, cr3, {2}
    6094:	32425041 	subcc	r5, r2, #65	; 0x41
    6098:	20524e45 	subscs	r4, r2, r5, asr #28
    609c:	28203d7c 	stmdacs	r0!, {r2, r3, r4, r5, r6, r8, sl, fp, ip, sp}
    60a0:	303c3c31 	eorscc	r3, ip, r1, lsr ip
    60a4:	5f002929 	svcpl	0x00002929
    60a8:	4e4f4c5f 	mcrmi	12, 2, r4, cr15, cr15, {2}
    60ac:	4f4c5f47 	svcmi	0x004c5f47
    60b0:	4d5f474e 	ldclmi	7, cr4, [pc, #-312]	; 5f80 <_Min_Stack_Size+0x5b80>
    60b4:	5f5f5841 	svcpl	0x005f5841
    60b8:	37783020 	ldrbcc	r3, [r8, -r0, lsr #32]!
    60bc:	66666666 	strbtvs	r6, [r6], -r6, ror #12
    60c0:	66666666 	strbtvs	r6, [r6], -r6, ror #12
    60c4:	66666666 	strbtvs	r6, [r6], -r6, ror #12
    60c8:	4c666666 	stclmi	6, cr6, [r6], #-408	; 0xfffffe68
    60cc:	4352004c 	cmpmi	r2, #76	; 0x4c
    60d0:	50475f43 	subpl	r5, r7, r3, asr #30
    60d4:	5f444f49 	svcpl	0x00444f49
    60d8:	5f4b4c43 	svcpl	0x004b4c43
    60dc:	29284e45 	stmdbcs	r8!, {r0, r2, r6, r9, sl, fp, lr}
    60e0:	43522820 	cmpmi	r2, #32, 16	; 0x200000
    60e4:	413e2d43 	teqmi	lr, r3, asr #26
    60e8:	45324250 	ldrmi	r4, [r2, #-592]!	; 0xfffffdb0
    60ec:	7c20524e 	sfmvc	f5, 4, [r0], #-312	; 0xfffffec8
    60f0:	3128203d 			; <UNDEFINED> instruction: 0x3128203d
    60f4:	29353c3c 	ldmdbcs	r5!, {r2, r3, r4, r5, sl, fp, ip, sp}
    60f8:	5f5f0029 	svcpl	0x005f0029
    60fc:	5f677261 	svcpl	0x00677261
    6100:	65707974 	ldrbvs	r7, [r0, #-2420]!	; 0xfffff68c
    6104:	6761745f 			; <UNDEFINED> instruction: 0x6761745f
    6108:	67726128 	ldrbvs	r6, [r2, -r8, lsr #2]!
    610c:	6e696b5f 	vmovvs.8	d9[6], r6
    6110:	72612c64 	rsbvc	r2, r1, #100, 24	; 0x6400
    6114:	64695f67 	strbtvs	r5, [r9], #-3943	; 0xfffff099
    6118:	79742c78 	ldmdbvc	r4!, {r3, r4, r5, r6, sl, fp, sp}^
    611c:	745f6570 	ldrbvc	r6, [pc], #-1392	; 6124 <_Min_Stack_Size+0x5d24>
    6120:	695f6761 	ldmdbvs	pc, {r0, r5, r6, r8, r9, sl, sp, lr}^	; <UNPREDICTABLE>
    6124:	20297864 	eorcs	r7, r9, r4, ror #16
    6128:	49505300 	ldmdbmi	r0, {r8, r9, ip, lr}^
    612c:	52495f31 	subpl	r5, r9, #49, 30	; 0xc4
    6130:	35332051 	ldrcc	r2, [r3, #-81]!	; 0xffffffaf
    6134:	535f5f00 	cmppl	pc, #0, 30
    6138:	4e495254 	mcrmi	2, 2, r5, cr9, cr4, {2}
    613c:	29782847 	ldmdbcs	r8!, {r0, r1, r2, r6, fp, sp}^
    6140:	00782320 	rsbseq	r2, r8, r0, lsr #6
    6144:	726f6873 	rsbvc	r6, pc, #7536640	; 0x730000
    6148:	525f0074 	subspl	r0, pc, #116	; 0x74
    614c:	544e4545 	strbpl	r4, [lr], #-1349	; 0xfffffabb
    6150:	494e495f 	stmdbmi	lr, {r0, r1, r2, r3, r4, r6, r8, fp, lr}^
    6154:	54505f54 	ldrbpl	r5, [r0], #-3924	; 0xfffff0ac
    6158:	61762852 	cmnvs	r6, r2, asr r8
    615c:	7b202972 	blvc	81072c <_Min_Stack_Size+0x81032c>
    6160:	6d656d20 	stclvs	13, cr6, [r5, #-128]!	; 0xffffff80
    6164:	28746573 	ldmdacs	r4!, {r0, r1, r4, r5, r6, r8, sl, sp, lr}^
    6168:	72617628 	rsbvc	r7, r1, #40, 12	; 0x2800000
    616c:	30202c29 	eorcc	r2, r0, r9, lsr #24
    6170:	6973202c 	ldmdbvs	r3!, {r2, r3, r5, sp}^
    6174:	666f657a 			; <UNDEFINED> instruction: 0x666f657a
    6178:	76282a28 	strtvc	r2, [r8], -r8, lsr #20
    617c:	29297261 	stmdbcs	r9!, {r0, r5, r6, r9, ip, sp, lr}
    6180:	5f203b29 	svcpl	0x00203b29
    6184:	4e454552 	mcrmi	5, 2, r4, cr5, cr2, {2}
    6188:	4e495f54 	mcrmi	15, 2, r5, cr9, cr4, {2}
    618c:	505f5449 	subspl	r5, pc, r9, asr #8
    6190:	5a5f5254 	bpl	17daae8 <_Min_Stack_Size+0x17da6e8>
    6194:	454f5245 	strbmi	r5, [pc, #-581]	; 5f57 <_Min_Stack_Size+0x5b57>
    6198:	61762844 	cmnvs	r6, r4, asr #16
    619c:	203b2972 	eorscs	r2, fp, r2, ror r9
    61a0:	5f5f007d 	svcpl	0x005f007d
    61a4:	59504f43 	ldmdbpl	r0, {r0, r1, r6, r8, r9, sl, fp, lr}^
    61a8:	48474952 	stmdami	r7, {r1, r4, r6, r8, fp, lr}^
    61ac:	29732854 	ldmdbcs	r3!, {r2, r4, r6, fp, sp}^
    61b0:	72747320 	rsbsvc	r7, r4, #32, 6	; 0x80000000
    61b4:	20746375 	rsbscs	r6, r4, r5, ror r3
    61b8:	61685f5f 	cmnvs	r8, pc, asr pc
    61bc:	5f006b63 	svcpl	0x00006b63
    61c0:	5246555f 	subpl	r5, r6, #398458880	; 0x17c00000
    61c4:	5f544341 	svcpl	0x00544341
    61c8:	54494249 	strbpl	r4, [r9], #-585	; 0xfffffdb7
    61cc:	30205f5f 	eorcc	r5, r0, pc, asr pc
    61d0:	415f5f00 	cmpmi	pc, r0, lsl #30
    61d4:	335f4d52 	cmpcc	pc, #5248	; 0x1480
    61d8:	54494232 	strbpl	r4, [r9], #-562	; 0xfffffdce
    61dc:	4154535f 	cmpmi	r4, pc, asr r3
    61e0:	31204554 			; <UNDEFINED> instruction: 0x31204554
    61e4:	495f5f00 	ldmdbmi	pc, {r8, r9, sl, fp, ip, lr}^	; <UNPREDICTABLE>
    61e8:	5f38544e 	svcpl	0x0038544e
    61ec:	29632843 	stmdbcs	r3!, {r0, r1, r6, fp, sp}^
    61f0:	5f006320 	svcpl	0x00006320
    61f4:	52464c5f 	subpl	r4, r6, #24320	; 0x5f00
    61f8:	5f544341 	svcpl	0x00544341
    61fc:	54494249 	strbpl	r4, [r9], #-585	; 0xfffffdb7
    6200:	30205f5f 	eorcc	r5, r0, pc, asr pc
    6204:	54535f00 	ldrbpl	r5, [r3], #-3840	; 0xfffff100
    6208:	46454444 	strbmi	r4, [r5], -r4, asr #8
    620c:	205f485f 	subscs	r4, pc, pc, asr r8	; <UNPREDICTABLE>
    6210:	49504700 	ldmdbmi	r0, {r8, r9, sl, lr}^
    6214:	50535f4f 	subspl	r5, r3, pc, asr #30
    6218:	5f444545 	svcpl	0x00444545
    621c:	204d3031 	subcs	r3, sp, r1, lsr r0
    6220:	30307830 	eorscc	r7, r0, r0, lsr r8
    6224:	30303030 	eorscc	r3, r0, r0, lsr r0
    6228:	00753130 	rsbseq	r3, r5, r0, lsr r1
    622c:	4f495047 	svcmi	0x00495047
    6230:	28282043 	stmdacs	r8!, {r0, r1, r6, sp}
    6234:	4f495047 	svcmi	0x00495047
    6238:	7079545f 	rsbsvc	r5, r9, pc, asr r4
    623c:	66656465 	strbtvs	r6, [r5], -r5, ror #8
    6240:	2a20745f 	bcs	8233c4 <_Min_Stack_Size+0x822fc4>
    6244:	49504729 	ldmdbmi	r0, {r0, r3, r5, r8, r9, sl, lr}^
    6248:	425f434f 	subsmi	r4, pc, #1006632961	; 0x3c000001
    624c:	29455341 	stmdbcs	r5, {r0, r6, r8, r9, ip, lr}^
    6250:	445f5f00 	ldrbmi	r5, [pc], #-3840	; 6258 <_Min_Stack_Size+0x5e58>
    6254:	4d5f4c42 	ldclmi	12, cr4, [pc, #-264]	; 6154 <_Min_Stack_Size+0x5d54>
    6258:	455f4e49 	ldrbmi	r4, [pc, #-3657]	; 5417 <_Min_Stack_Size+0x5017>
    625c:	5f5f5058 	svcpl	0x005f5058
    6260:	312d2820 			; <UNDEFINED> instruction: 0x312d2820
    6264:	29313230 	ldmdbcs	r1!, {r4, r5, r9, ip, sp}
    6268:	535f5f00 	cmppl	pc, #0, 30
    626c:	5f455a49 	svcpl	0x00455a49
    6270:	45002054 	strmi	r2, [r0, #-84]	; 0xffffffac
    6274:	31495458 	cmpcc	r9, r8, asr r4
    6278:	20314250 	eorscs	r4, r1, r0, asr r2
    627c:	54584528 	ldrbpl	r4, [r8], #-1320	; 0xfffffad8
    6280:	50475f49 	subpl	r5, r7, r9, asr #30
    6284:	4d5f4f49 	ldclmi	15, cr4, [pc, #-292]	; 6168 <_Min_Stack_Size+0x5d68>
    6288:	69707061 	ldmdbvs	r0!, {r0, r5, r6, ip, sp, lr}^
    628c:	745f676e 	ldrbvc	r6, [pc], #-1902	; 6294 <_Min_Stack_Size+0x5e94>
    6290:	58457b29 	stmdapl	r5, {r0, r3, r5, r8, r9, fp, ip, sp, lr}^
    6294:	2c314954 			; <UNDEFINED> instruction: 0x2c314954
    6298:	49504720 	ldmdbmi	r0, {r5, r8, r9, sl, lr}^
    629c:	202c424f 	eorcs	r4, ip, pc, asr #4
    62a0:	4f495047 	svcmi	0x00495047
    62a4:	4e49505f 	mcrmi	0, 2, r5, cr9, cr15, {2}
    62a8:	202c315f 	eorcs	r3, ip, pc, asr r1
    62ac:	49545845 	ldmdbmi	r4, {r0, r2, r6, fp, ip, lr}^
    62b0:	52495f31 	subpl	r5, r9, #49, 30	; 0xc4
    62b4:	5f007d51 	svcpl	0x00007d51
    62b8:	6972705f 	ldmdbvs	r2!, {r0, r1, r2, r3, r4, r6, ip, sp, lr}^
    62bc:	3066746e 	rsbcc	r7, r6, lr, ror #8
    62c0:	656b696c 	strbvs	r6, [fp, #-2412]!	; 0xfffff694
    62c4:	746d6628 	strbtvc	r6, [sp], #-1576	; 0xfffff9d8
    62c8:	2c677261 	sfmcs	f7, 2, [r7], #-388	; 0xfffffe7c
    62cc:	73726966 	cmnvc	r2, #1671168	; 0x198000
    62d0:	72617674 	rsbvc	r7, r1, #116, 12	; 0x7400000
    62d4:	29677261 	stmdbcs	r7!, {r0, r5, r6, r9, ip, sp, lr}^
    62d8:	50470020 	subpl	r0, r7, r0, lsr #32
    62dc:	4d5f4f49 	ldclmi	15, cr4, [pc, #-292]	; 61c0 <_Min_Stack_Size+0x5dc0>
    62e0:	5f45444f 	svcpl	0x0045444f
    62e4:	5054554f 	subspl	r5, r4, pc, asr #10
    62e8:	505f5455 	subspl	r5, pc, r5, asr r4	; <UNPREDICTABLE>
    62ec:	78302050 	ldmdavc	r0!, {r4, r6, sp}
    62f0:	30303030 	eorscc	r3, r0, r0, lsr r0
    62f4:	34303030 	ldrtcc	r3, [r0], #-48	; 0xffffffd0
    62f8:	465f5f00 	ldrbmi	r5, [pc], -r0, lsl #30
    62fc:	3233544c 	eorscc	r5, r3, #76, 8	; 0x4c000000
    6300:	4749445f 	smlsldmi	r4, r9, pc, r4	; <UNPREDICTABLE>
    6304:	36205f5f 	qsaxcc	r5, r0, pc	; <UNPREDICTABLE>
    6308:	54584500 	ldrbpl	r4, [r8], #-1280	; 0xfffffb00
    630c:	41503649 	cmpmi	r0, r9, asr #12
    6310:	45282036 	strmi	r2, [r8, #-54]!	; 0xffffffca
    6314:	5f495458 	svcpl	0x00495458
    6318:	4f495047 	svcmi	0x00495047
    631c:	70614d5f 	rsbvc	r4, r1, pc, asr sp
    6320:	676e6970 			; <UNDEFINED> instruction: 0x676e6970
    6324:	7b29745f 	blvc	a634a8 <_Min_Stack_Size+0xa630a8>
    6328:	49545845 	ldmdbmi	r4, {r0, r2, r6, fp, ip, lr}^
    632c:	47202c36 			; <UNDEFINED> instruction: 0x47202c36
    6330:	414f4950 	cmpmi	pc, r0, asr r9	; <UNPREDICTABLE>
    6334:	5047202c 	subpl	r2, r7, ip, lsr #32
    6338:	505f4f49 	subspl	r4, pc, r9, asr #30
    633c:	365f4e49 	ldrbcc	r4, [pc], -r9, asr #28
    6340:	5845202c 	stmdapl	r5, {r2, r3, r5, sp}^
    6344:	5f364954 	svcpl	0x00364954
    6348:	7d515249 	lfmvc	f5, 2, [r1, #-292]	; 0xfffffedc
    634c:	645f5f00 	ldrbvs	r5, [pc], #-3840	; 6354 <_Min_Stack_Size+0x5f54>
    6350:	32646165 	rsbcc	r6, r4, #1073741849	; 0x40000019
    6354:	615f5f20 	cmpvs	pc, r0, lsr #30
    6358:	69727474 	ldmdbvs	r2!, {r2, r4, r5, r6, sl, ip, sp, lr}^
    635c:	65747562 	ldrbvs	r7, [r4, #-1378]!	; 0xfffffa9e
    6360:	28285f5f 	stmdacs	r8!, {r0, r1, r2, r3, r4, r6, r8, r9, sl, fp, ip, lr}
    6364:	6f6e5f5f 	svcvs	0x006e5f5f
    6368:	75746572 	ldrbvc	r6, [r4, #-1394]!	; 0xfffffa8e
    636c:	5f5f6e72 	svcpl	0x005f6e72
    6370:	5f002929 	svcpl	0x00002929
    6374:	6d6f635f 	stclvs	3, cr6, [pc, #-380]!	; 6200 <_Min_Stack_Size+0x5e00>
    6378:	5f726170 	svcpl	0x00726170
    637c:	745f6e66 	ldrbvc	r6, [pc], #-3686	; 6384 <_Min_Stack_Size+0x5f84>
    6380:	6665645f 			; <UNDEFINED> instruction: 0x6665645f
    6384:	64656e69 	strbtvs	r6, [r5], #-3689	; 0xfffff197
    6388:	49550020 	ldmdbmi	r5, {r5}^
    638c:	414d544e 	cmpmi	sp, lr, asr #8
    6390:	28435f58 	stmdacs	r3, {r3, r4, r6, r8, r9, sl, fp, ip, lr}^
    6394:	5f202978 	svcpl	0x00202978
    6398:	4e49555f 	mcrmi	5, 2, r5, cr9, cr15, {2}
    639c:	58414d54 	stmdapl	r1, {r2, r4, r6, r8, sl, fp, lr}^
    63a0:	7828435f 	stmdavc	r8!, {r0, r1, r2, r3, r4, r6, r8, r9, lr}
    63a4:	5f5f0029 	svcpl	0x005f0029
    63a8:	4353494d 	cmpmi	r3, #1261568	; 0x134000
    63ac:	5349565f 	movtpl	r5, #38495	; 0x965f
    63b0:	454c4249 	strbmi	r4, [ip, #-585]	; 0xfffffdb7
    63b4:	5f003120 	svcpl	0x00003120
    63b8:	5058455f 	subspl	r4, r8, pc, asr r5
    63bc:	5f5f5f00 	svcpl	0x005f5f00
    63c0:	36746e69 	ldrbtcc	r6, [r4], -r9, ror #28
    63c4:	5f745f34 	svcpl	0x00745f34
    63c8:	69666564 	stmdbvs	r6!, {r2, r5, r6, r8, sl, sp, lr}^
    63cc:	2064656e 	rsbcs	r6, r4, lr, ror #10
    63d0:	5f5f0031 	svcpl	0x005f0031
    63d4:	4c42444c 	cfstrdmi	mvd4, [r2], {76}	; 0x4c
    63d8:	5341485f 	movtpl	r4, #6239	; 0x185f
    63dc:	4e45445f 	mcrmi	4, 2, r4, cr5, cr15, {2}
    63e0:	5f4d524f 	svcpl	0x004d524f
    63e4:	0031205f 	eorseq	r2, r1, pc, asr r0
    63e8:	41485f5f 	cmpmi	r8, pc, asr pc
    63ec:	535f4556 	cmppl	pc, #360710144	; 0x15800000
    63f0:	55434550 	strbpl	r4, [r3, #-1360]	; 0xfffffab0
    63f4:	4954414c 	ldmdbmi	r4, {r2, r3, r6, r8, lr}^
    63f8:	535f4e4f 	cmppl	pc, #1264	; 0x4f0
    63fc:	5f454641 	svcpl	0x00454641
    6400:	554c4156 	strbpl	r4, [ip, #-342]	; 0xfffffeaa
    6404:	00312045 	eorseq	r2, r1, r5, asr #32
    6408:	41535f5f 	cmpmi	r3, pc, asr pc
    640c:	4d554343 	ldclmi	3, cr4, [r5, #-268]	; 0xfffffef4
    6410:	4942465f 	stmdbmi	r2, {r0, r1, r2, r3, r4, r6, r9, sl, lr}^
    6414:	205f5f54 	subscs	r5, pc, r4, asr pc	; <UNPREDICTABLE>
    6418:	5f5f0037 	svcpl	0x005f0037
    641c:	5f434347 	svcpl	0x00434347
    6420:	45564148 	ldrbmi	r4, [r6, #-328]	; 0xfffffeb8
    6424:	4e59535f 	mrcmi	3, 2, r5, cr9, cr15, {2}
    6428:	4f435f43 	svcmi	0x00435f43
    642c:	5241504d 	subpl	r5, r1, #77	; 0x4d
    6430:	4e415f45 	cdpmi	15, 4, cr5, cr1, cr5, {2}
    6434:	57535f44 	ldrbpl	r5, [r3, -r4, asr #30]
    6438:	345f5041 	ldrbcc	r5, [pc], #-65	; 6440 <_Min_Stack_Size+0x6040>
    643c:	4e003120 	adfmisp	f3, f0, f0
    6440:	5f434956 	svcpl	0x00434956
    6444:	49545845 	ldmdbmi	r4, {r0, r2, r6, fp, ip, lr}^
    6448:	52495f32 	subpl	r5, r9, #50, 30	; 0xc8
    644c:	69445f51 	stmdbvs	r4, {r0, r4, r6, r8, r9, sl, fp, ip, lr}^
    6450:	6c626173 	stfvse	f6, [r2], #-460	; 0xfffffe34
    6454:	4e282065 	cdpmi	0, 2, cr2, cr8, cr5, {3}
    6458:	5f434956 	svcpl	0x00434956
    645c:	52454349 	subpl	r4, r5, #603979777	; 0x24000001
    6460:	3d7c2030 	ldclcc	0, cr2, [ip, #-192]!	; 0xffffff40
    6464:	3c3c3120 	ldfccs	f3, [ip], #-128	; 0xffffff80
    6468:	41002938 	tstmi	r0, r8, lsr r9
    646c:	52314250 	eorspl	r4, r1, #80, 4
    6470:	00525453 	subseq	r5, r2, r3, asr r4
    6474:	43415f5f 	movtmi	r5, #8031	; 0x1f5f
    6478:	5f4d5543 	svcpl	0x004d5543
    647c:	5f4e494d 	svcpl	0x004e494d
    6480:	2d28205f 	stccs	0, cr2, [r8, #-380]!	; 0xfffffe84
    6484:	50315830 	eorspl	r5, r1, r0, lsr r8
    6488:	2d4b3531 	cfstr64cs	mvdx3, [fp, #-196]	; 0xffffff3c
    648c:	50315830 	eorspl	r5, r1, r0, lsr r8
    6490:	294b3531 	stmdbcs	fp, {r0, r4, r5, r8, sl, ip, sp}^
    6494:	475f5f00 	ldrbmi	r5, [pc, -r0, lsl #30]
    6498:	5f43554e 	svcpl	0x0043554e
    649c:	4c5f4156 	ldfmie	f4, [pc], {86}	; 0x56
    64a0:	5f545349 	svcpl	0x00545349
    64a4:	504d4f43 	subpl	r4, sp, r3, asr #30
    64a8:	42495441 	submi	r5, r9, #1090519040	; 0x41000000
    64ac:	54494c49 	strbpl	r4, [r9], #-3145	; 0xfffff3b7
    64b0:	00312059 	eorseq	r2, r1, r9, asr r0
    64b4:	52415f5f 	subpl	r5, r1, #380	; 0x17c
    64b8:	45465f4d 	strbmi	r5, [r6, #-3917]	; 0xfffff0b3
    64bc:	52555441 	subspl	r5, r5, #1090519040	; 0x41000000
    64c0:	52435f45 	subpl	r5, r3, #276	; 0x114
    64c4:	4f545059 	svcmi	0x00545059
    64c8:	535f5f00 	cmppl	pc, #0, 30
    64cc:	4f455a49 	svcmi	0x00455a49
    64d0:	43575f46 	cmpmi	r7, #280	; 0x118
    64d4:	5f524148 	svcpl	0x00524148
    64d8:	205f5f54 	subscs	r5, pc, r4, asr pc	; <UNPREDICTABLE>
    64dc:	50410034 	subpl	r0, r1, r4, lsr r0
    64e0:	4e453142 	dvfmism	f3, f5, f2
    64e4:	564e0052 			; <UNDEFINED> instruction: 0x564e0052
    64e8:	455f4349 	ldrbmi	r4, [pc, #-841]	; 61a7 <_Min_Stack_Size+0x5da7>
    64ec:	31495458 	cmpcc	r9, r8, asr r4
    64f0:	5152495f 	cmppl	r2, pc, asr r9
    64f4:	7369445f 	cmnvc	r9, #1593835520	; 0x5f000000
    64f8:	656c6261 	strbvs	r6, [ip, #-609]!	; 0xfffffd9f
    64fc:	564e2820 	strbpl	r2, [lr], -r0, lsr #16
    6500:	495f4349 	ldmdbmi	pc, {r0, r3, r6, r8, r9, lr}^	; <UNPREDICTABLE>
    6504:	30524543 	subscc	r4, r2, r3, asr #10
    6508:	203d7c20 	eorscs	r7, sp, r0, lsr #24
    650c:	373c3c31 			; <UNDEFINED> instruction: 0x373c3c31
    6510:	58450029 	stmdapl	r5, {r0, r3, r5}^
    6514:	50374954 	eorspl	r4, r7, r4, asr r9
    6518:	28203744 	stmdacs	r0!, {r2, r6, r8, r9, sl, ip, sp}
    651c:	49545845 	ldmdbmi	r4, {r0, r2, r6, fp, ip, lr}^
    6520:	4950475f 	ldmdbmi	r0, {r0, r1, r2, r3, r4, r6, r8, r9, sl, lr}^
    6524:	614d5f4f 	cmpvs	sp, pc, asr #30
    6528:	6e697070 	mcrvs	0, 3, r7, cr9, cr0, {3}
    652c:	29745f67 	ldmdbcs	r4!, {r0, r1, r2, r5, r6, r8, r9, sl, fp, ip, lr}^
    6530:	5458457b 	ldrbpl	r4, [r8], #-1403	; 0xfffffa85
    6534:	202c3749 	eorcs	r3, ip, r9, asr #14
    6538:	4f495047 	svcmi	0x00495047
    653c:	47202c44 	strmi	r2, [r0, -r4, asr #24]!
    6540:	5f4f4950 	svcpl	0x004f4950
    6544:	5f4e4950 	svcpl	0x004e4950
    6548:	45202c37 	strmi	r2, [r0, #-3127]!	; 0xfffff3c9
    654c:	37495458 	smlsldcc	r5, r9, r8, r4
    6550:	5152495f 	cmppl	r2, pc, asr r9
    6554:	5f5f007d 	svcpl	0x005f007d
    6558:	544e4955 	strbpl	r4, [lr], #-2389	; 0xfffff6ab
    655c:	41454c5f 	cmpmi	r5, pc, asr ip
    6560:	34365453 	ldrtcc	r5, [r6], #-1107	; 0xfffffbad
    6564:	58414d5f 	stmdapl	r1, {r0, r1, r2, r3, r4, r6, r8, sl, fp, lr}^
    6568:	30205f5f 	eorcc	r5, r0, pc, asr pc
    656c:	66666678 			; <UNDEFINED> instruction: 0x66666678
    6570:	66666666 	strbtvs	r6, [r6], -r6, ror #12
    6574:	66666666 	strbtvs	r6, [r6], -r6, ror #12
    6578:	66666666 	strbtvs	r6, [r6], -r6, ror #12
    657c:	4c4c5566 	cfstr64mi	mvdx5, [ip], {102}	; 0x66
    6580:	465f5f00 	ldrbmi	r5, [pc], -r0, lsl #30
    6584:	54434152 	strbpl	r4, [r3], #-338	; 0xfffffeae
    6588:	4942495f 	stmdbmi	r2, {r0, r1, r2, r3, r4, r6, r8, fp, lr}^
    658c:	205f5f54 	subscs	r5, pc, r4, asr pc	; <UNPREDICTABLE>
    6590:	58450030 	stmdapl	r5, {r4, r5}^
    6594:	31314954 	teqcc	r1, r4, asr r9
    6598:	5152495f 	cmppl	r2, pc, asr r9
    659c:	00303420 	eorseq	r3, r0, r0, lsr #8
    65a0:	4e495f5f 	mcrmi	15, 2, r5, cr9, cr15, {2}
    65a4:	49575f54 	ldmdbmi	r7, {r2, r4, r6, r8, r9, sl, fp, ip, lr}^
    65a8:	5f485444 	svcpl	0x00485444
    65ac:	3233205f 	eorscc	r2, r3, #95	; 0x5f
    65b0:	4e5f5f00 	cdpmi	15, 5, cr5, cr15, cr0, {0}
    65b4:	494c5745 	stmdbmi	ip, {r0, r2, r6, r8, r9, sl, ip, lr}^
    65b8:	41505f42 	cmpmi	r0, r2, asr #30
    65bc:	4c484354 	mcrrmi	3, 5, r4, r8, cr4
    65c0:	4c455645 	mcrrmi	6, 4, r5, r5, cr5
    65c4:	30205f5f 	eorcc	r5, r0, pc, asr pc
    65c8:	6c5f5f00 	mrrcvs	15, 0, r5, pc, cr0	; <UNPREDICTABLE>
    65cc:	5f6b636f 	svcpl	0x006b636f
    65d0:	75716361 	ldrbvc	r6, [r1, #-865]!	; 0xfffffc9f
    65d4:	28657269 	stmdacs	r5!, {r0, r3, r5, r6, r9, ip, sp, lr}^
    65d8:	6b636f6c 	blvs	18e2390 <_Min_Stack_Size+0x18e1f90>
    65dc:	5f5f2029 	svcpl	0x005f2029
    65e0:	61746572 	cmnvs	r4, r2, ror r5
    65e4:	74656772 	strbtvc	r6, [r5], #-1906	; 0xfffff88e
    65e8:	636f6c5f 	cmnvs	pc, #24320	; 0x5f00
    65ec:	63615f6b 	cmnvs	r1, #428	; 0x1ac
    65f0:	72697571 	rsbvc	r7, r9, #473956352	; 0x1c400000
    65f4:	6f6c2865 	svcvs	0x006c2865
    65f8:	00296b63 	eoreq	r6, r9, r3, ror #22
    65fc:	524f5f5f 	subpl	r5, pc, #380	; 0x17c
    6600:	5f524544 	svcpl	0x00524544
    6604:	5454494c 	ldrbpl	r4, [r4], #-2380	; 0xfffff6b4
    6608:	455f454c 	ldrbmi	r4, [pc, #-1356]	; 60c4 <_Min_Stack_Size+0x5cc4>
    660c:	4149444e 	cmpmi	r9, lr, asr #8
    6610:	205f5f4e 	subscs	r5, pc, lr, asr #30
    6614:	34333231 	ldrtcc	r3, [r3], #-561	; 0xfffffdcf
    6618:	735f5f00 	cmpvc	pc, #0, 30
    661c:	5f657a69 	svcpl	0x00657a69
    6620:	58450074 	stmdapl	r5, {r2, r4, r5, r6}^
    6624:	33314954 	teqcc	r1, #84, 18	; 0x150000
    6628:	33314150 	teqcc	r1, #80, 2
    662c:	58452820 	stmdapl	r5, {r5, fp, sp}^
    6630:	475f4954 			; <UNDEFINED> instruction: 0x475f4954
    6634:	5f4f4950 	svcpl	0x004f4950
    6638:	7070614d 	rsbsvc	r6, r0, sp, asr #2
    663c:	5f676e69 	svcpl	0x00676e69
    6640:	457b2974 	ldrbmi	r2, [fp, #-2420]!	; 0xfffff68c
    6644:	31495458 	cmpcc	r9, r8, asr r4
    6648:	47202c33 			; <UNDEFINED> instruction: 0x47202c33
    664c:	414f4950 	cmpmi	pc, r0, asr r9	; <UNPREDICTABLE>
    6650:	5047202c 	subpl	r2, r7, ip, lsr #32
    6654:	505f4f49 	subspl	r4, pc, r9, asr #30
    6658:	315f4e49 	cmpcc	pc, r9, asr #28
    665c:	45202c33 	strmi	r2, [r0, #-3123]!	; 0xfffff3cd
    6660:	31495458 	cmpcc	r9, r8, asr r4
    6664:	52495f33 	subpl	r5, r9, #51, 30	; 0xcc
    6668:	5f007d51 	svcpl	0x00007d51
    666c:	5f43435f 	svcpl	0x0043435f
    6670:	50505553 	subspl	r5, r0, r3, asr r5
    6674:	5354524f 	cmppl	r4, #-268435452	; 0xf0000004
    6678:	4c4e495f 	mcrrmi	9, 5, r4, lr, cr15	; <UNPREDICTABLE>
    667c:	20454e49 	subcs	r4, r5, r9, asr #28
    6680:	5f5f0031 	svcpl	0x005f0031
    6684:	53544f44 	cmppl	r4, #68, 30	; 0x110
    6688:	2e202c20 	cdpcs	12, 2, cr2, cr0, cr0, {1}
    668c:	5f002e2e 	svcpl	0x00002e2e
    6690:	4e454552 	mcrmi	5, 2, r4, cr5, cr2, {2}
    6694:	45475f54 	strbmi	r5, [r7, #-3924]	; 0xfffff0ac
    6698:	54414454 	strbpl	r4, [r1], #-1108	; 0xfffffbac
    669c:	52455f45 	subpl	r5, r5, #276	; 0x114
    66a0:	28505f52 	ldmdacs	r0, {r1, r4, r6, r8, r9, sl, fp, ip, lr}^
    66a4:	29727470 	ldmdbcs	r2!, {r4, r5, r6, sl, ip, sp, lr}^
    66a8:	28262820 	stmdacs	r6!, {r5, fp, sp}
    66ac:	72747028 	rsbsvc	r7, r4, #40	; 0x28
    66b0:	5f3e2d29 	svcpl	0x003e2d29
    66b4:	6373696d 	cmnvs	r3, #1785856	; 0x1b4000
    66b8:	675f3e2d 	ldrbvs	r3, [pc, -sp, lsr #28]
    66bc:	61647465 	cmnvs	r4, r5, ror #8
    66c0:	655f6574 	ldrbvs	r6, [pc, #-1396]	; 6154 <_Min_Stack_Size+0x5d54>
    66c4:	29297272 	stmdbcs	r9!, {r1, r4, r5, r6, r9, ip, sp, lr}
    66c8:	465f5f00 	ldrbmi	r5, [pc], -r0, lsl #30
    66cc:	4d5f544c 	cfldrdmi	mvd5, [pc, #-304]	; 65a4 <_Min_Stack_Size+0x61a4>
    66d0:	315f4e49 	cmpcc	pc, r9, asr #28
    66d4:	58455f30 	stmdapl	r5, {r4, r5, r8, r9, sl, fp, ip, lr}^
    66d8:	205f5f50 	subscs	r5, pc, r0, asr pc	; <UNPREDICTABLE>
    66dc:	37332d28 	ldrcc	r2, [r3, -r8, lsr #26]!
    66e0:	5f5f0029 	svcpl	0x005f0029
    66e4:	43414c55 	movtmi	r4, #7253	; 0x1c55
    66e8:	5f4d5543 	svcpl	0x004d5543
    66ec:	54494249 	strbpl	r4, [r9], #-585	; 0xfffffdb7
    66f0:	33205f5f 			; <UNDEFINED> instruction: 0x33205f5f
    66f4:	5f5f0032 	svcpl	0x005f0032
    66f8:	54524853 	ldrbpl	r4, [r2], #-2131	; 0xfffff7ad
    66fc:	58414d5f 	stmdapl	r1, {r0, r1, r2, r3, r4, r6, r8, sl, fp, lr}^
    6700:	30205f5f 	eorcc	r5, r0, pc, asr pc
    6704:	66663778 			; <UNDEFINED> instruction: 0x66663778
    6708:	49550066 	ldmdbmi	r5, {r1, r2, r5, r6}^
    670c:	465f544e 	ldrbmi	r5, [pc], -lr, asr #8
    6710:	38545341 	ldmdacc	r4, {r0, r6, r8, r9, ip, lr}^
    6714:	58414d5f 	stmdapl	r1, {r0, r1, r2, r3, r4, r6, r8, sl, fp, lr}^
    6718:	5f5f2820 	svcpl	0x005f2820
    671c:	544e4955 	strbpl	r4, [lr], #-2389	; 0xfffff6ab
    6720:	5341465f 	movtpl	r4, #5727	; 0x165f
    6724:	4d5f3854 	ldclmi	8, cr3, [pc, #-336]	; 65dc <_Min_Stack_Size+0x61dc>
    6728:	5f5f5841 	svcpl	0x005f5841
    672c:	5f5f0029 	svcpl	0x005f0029
    6730:	44525450 	ldrbmi	r5, [r2], #-1104	; 0xfffffbb0
    6734:	5f464649 	svcpl	0x00464649
    6738:	45505954 	ldrbmi	r5, [r0, #-2388]	; 0xfffff6ac
    673c:	69205f5f 	stmdbvs	r0!, {r0, r1, r2, r3, r4, r6, r8, r9, sl, fp, ip, lr}
    6740:	5f00746e 	svcpl	0x0000746e
    6744:	455a4953 	ldrbmi	r4, [sl, #-2387]	; 0xfffff6ad
    6748:	445f545f 	ldrbmi	r5, [pc], #-1119	; 6750 <_Min_Stack_Size+0x6350>
    674c:	4e494645 	cdpmi	6, 4, cr4, cr9, cr5, {2}
    6750:	00204445 	eoreq	r4, r0, r5, asr #8
    6754:	51445f5f 	cmppl	r4, pc, asr pc
    6758:	4942465f 	stmdbmi	r2, {r0, r1, r2, r3, r4, r6, r9, sl, lr}^
    675c:	205f5f54 	subscs	r5, pc, r4, asr pc	; <UNPREDICTABLE>
    6760:	5f003336 	svcpl	0x00003336
    6764:	554e475f 	strbpl	r4, [lr, #-1887]	; 0xfffff8a1
    6768:	5349565f 	movtpl	r5, #38495	; 0x965f
    676c:	454c4249 	strbmi	r4, [ip, #-585]	; 0xfffffdb7
    6770:	45003020 	strmi	r3, [r0, #-32]	; 0xffffffe0
    6774:	37495458 	smlsldcc	r5, r9, r8, r4
    6778:	20374150 	eorscs	r4, r7, r0, asr r1
    677c:	54584528 	ldrbpl	r4, [r8], #-1320	; 0xfffffad8
    6780:	50475f49 	subpl	r5, r7, r9, asr #30
    6784:	4d5f4f49 	ldclmi	15, cr4, [pc, #-292]	; 6668 <_Min_Stack_Size+0x6268>
    6788:	69707061 	ldmdbvs	r0!, {r0, r5, r6, ip, sp, lr}^
    678c:	745f676e 	ldrbvc	r6, [pc], #-1902	; 6794 <_Min_Stack_Size+0x6394>
    6790:	58457b29 	stmdapl	r5, {r0, r3, r5, r8, r9, fp, ip, sp, lr}^
    6794:	2c374954 			; <UNDEFINED> instruction: 0x2c374954
    6798:	49504720 	ldmdbmi	r0, {r5, r8, r9, sl, lr}^
    679c:	202c414f 	eorcs	r4, ip, pc, asr #2
    67a0:	4f495047 	svcmi	0x00495047
    67a4:	4e49505f 	mcrmi	0, 2, r5, cr9, cr15, {2}
    67a8:	202c375f 	eorcs	r3, ip, pc, asr r7
    67ac:	49545845 	ldmdbmi	r4, {r0, r2, r6, fp, ip, lr}^
    67b0:	52495f37 	subpl	r5, r9, #55, 30	; 0xdc
    67b4:	5f007d51 	svcpl	0x00007d51
    67b8:	4341535f 	movtmi	r5, #4959	; 0x135f
    67bc:	5f4d5543 	svcpl	0x004d5543
    67c0:	54494249 	strbpl	r4, [r9], #-585	; 0xfffffdb7
    67c4:	38205f5f 	stmdacc	r0!, {r0, r1, r2, r3, r4, r6, r8, r9, sl, fp, ip, lr}
    67c8:	505f5f00 	subspl	r5, pc, r0, lsl #30
    67cc:	49445254 	stmdbmi	r4, {r2, r4, r6, r9, ip, lr}^
    67d0:	545f4646 	ldrbpl	r4, [pc], #-1606	; 67d8 <_Min_Stack_Size+0x63d8>
    67d4:	5f5f0020 	svcpl	0x005f0020
    67d8:	5f514855 	svcpl	0x00514855
    67dc:	54494249 	strbpl	r4, [r9], #-585	; 0xfffffdb7
    67e0:	30205f5f 	eorcc	r5, r0, pc, asr pc
    67e4:	495f5f00 	ldmdbmi	pc, {r8, r9, sl, fp, ip, lr}^	; <UNPREDICTABLE>
    67e8:	465f544e 	ldrbmi	r5, [pc], -lr, asr #8
    67ec:	31545341 	cmpcc	r4, r1, asr #6
    67f0:	59545f36 	ldmdbpl	r4, {r1, r2, r4, r5, r8, r9, sl, fp, ip, lr}^
    67f4:	5f5f4550 	svcpl	0x005f4550
    67f8:	746e6920 	strbtvc	r6, [lr], #-2336	; 0xfffff6e0
    67fc:	49555f00 	ldmdbmi	r5, {r8, r9, sl, fp, ip, lr}^
    6800:	414d544e 	cmpmi	sp, lr, asr #8
    6804:	5f545f58 	svcpl	0x00545f58
    6808:	4c434544 	cfstr64mi	mvdx4, [r3], {68}	; 0x44
    680c:	44455241 	strbmi	r5, [r5], #-577	; 0xfffffdbf
    6810:	5f5f0020 	svcpl	0x005f0020
    6814:	5f474953 	svcpl	0x00474953
    6818:	4d4f5441 	cfstrdmi	mvd5, [pc, #-260]	; 671c <_Min_Stack_Size+0x631c>
    681c:	545f4349 	ldrbpl	r4, [pc], #-841	; 6824 <_Min_Stack_Size+0x6424>
    6820:	5f455059 	svcpl	0x00455059
    6824:	6e69205f 	mcrvs	0, 3, r2, cr9, cr15, {2}
    6828:	5f5f0074 	svcpl	0x005f0074
    682c:	43434153 	movtmi	r4, #12627	; 0x3153
    6830:	4d5f4d55 	ldclmi	13, cr4, [pc, #-340]	; 66e4 <_Min_Stack_Size+0x62e4>
    6834:	5f5f4e49 	svcpl	0x005f4e49
    6838:	302d2820 	eorcc	r2, sp, r0, lsr #16
    683c:	37503158 			; <UNDEFINED> instruction: 0x37503158
    6840:	302d4b48 	eorcc	r4, sp, r8, asr #22
    6844:	37503158 			; <UNDEFINED> instruction: 0x37503158
    6848:	00294b48 	eoreq	r4, r9, r8, asr #22
    684c:	4c555f5f 	mrrcmi	15, 5, r5, r5, cr15	; <UNPREDICTABLE>
    6850:	43415246 	movtmi	r5, #4678	; 0x1246
    6854:	414d5f54 	cmpmi	sp, r4, asr pc
    6858:	205f5f58 	subscs	r5, pc, r8, asr pc	; <UNPREDICTABLE>
    685c:	46465830 			; <UNDEFINED> instruction: 0x46465830
    6860:	46464646 	strbmi	r4, [r6], -r6, asr #12
    6864:	2d504646 	ldclcs	6, cr4, [r0, #-280]	; 0xfffffee8
    6868:	4c553233 	lfmmi	f3, 2, [r5], {51}	; 0x33
    686c:	5f5f0052 	svcpl	0x005f0052
    6870:	544e4955 	strbpl	r4, [lr], #-2389	; 0xfffff6ab
    6874:	41454c5f 	cmpmi	r5, pc, asr ip
    6878:	36315453 			; <UNDEFINED> instruction: 0x36315453
    687c:	5059545f 	subspl	r5, r9, pc, asr r4
    6880:	205f5f45 	subscs	r5, pc, r5, asr #30
    6884:	726f6873 	rsbvc	r6, pc, #7536640	; 0x730000
    6888:	6e752074 	mrcvs	0, 3, r2, cr5, cr4, {3}
    688c:	6e676973 			; <UNDEFINED> instruction: 0x6e676973
    6890:	69206465 	stmdbvs	r0!, {r0, r2, r5, r6, sl, sp, lr}
    6894:	5f00746e 	svcpl	0x0000746e
    6898:	4d52415f 	ldfmie	f4, [r2, #-380]	; 0xfffffe84
    689c:	4145465f 	cmpmi	r5, pc, asr r6
    68a0:	45525554 	ldrbmi	r5, [r2, #-1364]	; 0xfffffaac
    68a4:	414d465f 	cmpmi	sp, pc, asr r6
    68a8:	4c5f5f00 	mrrcmi	15, 0, r5, pc, cr0	; <UNPREDICTABLE>
    68ac:	55434341 	strbpl	r4, [r3, #-833]	; 0xfffffcbf
    68b0:	414d5f4d 	cmpmi	sp, sp, asr #30
    68b4:	205f5f58 	subscs	r5, pc, r8, asr pc	; <UNPREDICTABLE>
    68b8:	46375830 			; <UNDEFINED> instruction: 0x46375830
    68bc:	46464646 	strbmi	r4, [r6], -r6, asr #12
    68c0:	46464646 	strbmi	r4, [r6], -r6, asr #12
    68c4:	46464646 	strbmi	r4, [r6], -r6, asr #12
    68c8:	2d504646 	ldclcs	6, cr4, [r0, #-280]	; 0xfffffee8
    68cc:	4b4c3133 	blmi	1312da0 <_Min_Stack_Size+0x13129a0>
    68d0:	435f5f00 	cmpmi	pc, #0, 30
    68d4:	31524148 	cmpcc	r2, r8, asr #2
    68d8:	59545f36 	ldmdbpl	r4, {r1, r2, r4, r5, r8, r9, sl, fp, ip, lr}^
    68dc:	5f5f4550 	svcpl	0x005f4550
    68e0:	6f687320 	svcvs	0x00687320
    68e4:	75207472 	strvc	r7, [r0, #-1138]!	; 0xfffffb8e
    68e8:	6769736e 	strbvs	r7, [r9, -lr, ror #6]!
    68ec:	2064656e 	rsbcs	r6, r4, lr, ror #10
    68f0:	00746e69 	rsbseq	r6, r4, r9, ror #28
    68f4:	49545845 	ldmdbmi	r4, {r0, r2, r6, fp, ip, lr}^
    68f8:	41503131 	cmpmi	r0, r1, lsr r1
    68fc:	28203131 	stmdacs	r0!, {r0, r4, r5, r8, ip, sp}
    6900:	49545845 	ldmdbmi	r4, {r0, r2, r6, fp, ip, lr}^
    6904:	4950475f 	ldmdbmi	r0, {r0, r1, r2, r3, r4, r6, r8, r9, sl, lr}^
    6908:	614d5f4f 	cmpvs	sp, pc, asr #30
    690c:	6e697070 	mcrvs	0, 3, r7, cr9, cr0, {3}
    6910:	29745f67 	ldmdbcs	r4!, {r0, r1, r2, r5, r6, r8, r9, sl, fp, ip, lr}^
    6914:	5458457b 	ldrbpl	r4, [r8], #-1403	; 0xfffffa85
    6918:	2c313149 	ldfcss	f3, [r1], #-292	; 0xfffffedc
    691c:	49504720 	ldmdbmi	r0, {r5, r8, r9, sl, lr}^
    6920:	202c414f 	eorcs	r4, ip, pc, asr #2
    6924:	4f495047 	svcmi	0x00495047
    6928:	4e49505f 	mcrmi	0, 2, r5, cr9, cr15, {2}
    692c:	2c31315f 	ldfcss	f3, [r1], #-380	; 0xfffffe84
    6930:	54584520 	ldrbpl	r4, [r8], #-1312	; 0xfffffae0
    6934:	5f313149 	svcpl	0x00313149
    6938:	7d515249 	lfmvc	f5, 2, [r1, #-292]	; 0xfffffedc
    693c:	49504700 	ldmdbmi	r0, {r8, r9, sl, lr}^
    6940:	6f505f4f 	svcvs	0x00505f4f
    6944:	5f007472 	svcpl	0x00007472
    6948:	544c465f 	strbpl	r4, [ip], #-1631	; 0xfffff9a1
    694c:	5f583233 	svcpl	0x00583233
    6950:	5f474944 	svcpl	0x00474944
    6954:	3531205f 	ldrcc	r2, [r1, #-95]!	; 0xffffffa1
    6958:	735f5f00 	cmpvc	pc, #0, 30
    695c:	656e6769 	strbvs	r6, [lr, #-1897]!	; 0xfffff897
    6960:	69732064 	ldmdbvs	r3!, {r2, r5, r6, sp}^
    6964:	64656e67 	strbtvs	r6, [r5], #-3687	; 0xfffff199
    6968:	555f5f00 	ldrbpl	r5, [pc, #-3840]	; 5a70 <_Min_Stack_Size+0x5670>
    696c:	465f5154 			; <UNDEFINED> instruction: 0x465f5154
    6970:	5f544942 	svcpl	0x00544942
    6974:	3231205f 	eorscc	r2, r1, #95	; 0x5f
    6978:	5f5f0038 	svcpl	0x005f0038
    697c:	43414c4c 	movtmi	r4, #7244	; 0x1c4c
    6980:	5f4d5543 	svcpl	0x004d5543
    6984:	49535045 	ldmdbmi	r3, {r0, r2, r6, ip, lr}^
    6988:	5f4e4f4c 	svcpl	0x004e4f4c
    698c:	7830205f 	ldmdavc	r0!, {r0, r1, r2, r3, r4, r6, sp}
    6990:	332d5031 			; <UNDEFINED> instruction: 0x332d5031
    6994:	4b4c4c31 	blmi	1319a60 <_Min_Stack_Size+0x1319660>
    6998:	465f5f00 	ldrbmi	r5, [pc], -r0, lsl #30
    699c:	54494e49 	strbpl	r4, [r9], #-3657	; 0xfffff1b7
    69a0:	414d5f45 	cmpmi	sp, r5, asr #30
    69a4:	4f5f4854 	svcmi	0x005f4854
    69a8:	5f594c4e 	svcpl	0x00594c4e
    69ac:	0030205f 	eorseq	r2, r0, pc, asr r0
    69b0:	4e495f5f 	mcrmi	15, 2, r5, cr9, cr15, {2}
    69b4:	41465f54 	cmpmi	r6, r4, asr pc
    69b8:	36315453 			; <UNDEFINED> instruction: 0x36315453
    69bc:	58414d5f 	stmdapl	r1, {r0, r1, r2, r3, r4, r6, r8, sl, fp, lr}^
    69c0:	30205f5f 	eorcc	r5, r0, pc, asr pc
    69c4:	66663778 			; <UNDEFINED> instruction: 0x66663778
    69c8:	66666666 	strbtvs	r6, [r6], -r6, ror #12
    69cc:	5f5f0066 	svcpl	0x005f0066
    69d0:	65766168 	ldrbvs	r6, [r6, #-360]!	; 0xfffffe98
    69d4:	6e6f6c5f 	mcrvs	12, 3, r6, cr15, cr15, {2}
    69d8:	6e6f6c67 	cdpvs	12, 6, cr6, cr15, cr7, {3}
    69dc:	20343667 	eorscs	r3, r4, r7, ror #12
    69e0:	555f0031 	ldrbpl	r0, [pc, #-49]	; 69b7 <_Min_Stack_Size+0x65b7>
    69e4:	38544e49 	ldmdacc	r4, {r0, r3, r6, r9, sl, fp, lr}^
    69e8:	445f545f 	ldrbmi	r5, [pc], #-1119	; 69f0 <_Min_Stack_Size+0x65f0>
    69ec:	414c4345 	cmpmi	ip, r5, asr #6
    69f0:	20444552 	subcs	r4, r4, r2, asr r5
    69f4:	49504700 	ldmdbmi	r0, {r8, r9, sl, lr}^
    69f8:	49505f4f 	ldmdbmi	r0, {r0, r1, r2, r3, r6, r8, r9, sl, fp, ip, lr}^
    69fc:	564e004e 	strbpl	r0, [lr], -lr, asr #32
    6a00:	455f4349 	ldrbmi	r4, [pc, #-841]	; 66bf <_Min_Stack_Size+0x62bf>
    6a04:	31495458 	cmpcc	r9, r8, asr r4
    6a08:	30315f35 	eorscc	r5, r1, r5, lsr pc
    6a0c:	5152495f 	cmppl	r2, pc, asr r9
    6a10:	7369445f 	cmnvc	r9, #1593835520	; 0x5f000000
    6a14:	656c6261 	strbvs	r6, [ip, #-609]!	; 0xfffffd9f
    6a18:	564e2820 	strbpl	r2, [lr], -r0, lsr #16
    6a1c:	495f4349 	ldmdbmi	pc, {r0, r3, r6, r8, r9, lr}^	; <UNPREDICTABLE>
    6a20:	31524543 	cmpcc	r2, r3, asr #10
    6a24:	203d7c20 	eorscs	r7, sp, r0, lsr #24
    6a28:	383c3c31 	ldmdacc	ip!, {r0, r4, r5, sl, fp, ip, sp}
    6a2c:	5f5f0029 	svcpl	0x005f0029
    6a30:	6b636f6c 	blvs	18e27e8 <_Min_Stack_Size+0x18e23e8>
    6a34:	7972745f 	ldmdbvc	r2!, {r0, r1, r2, r3, r4, r6, sl, ip, sp, lr}^
    6a38:	7163615f 	cmnvc	r3, pc, asr r1
    6a3c:	65726975 	ldrbvs	r6, [r2, #-2421]!	; 0xfffff68b
    6a40:	636f6c28 	cmnvs	pc, #40, 24	; 0x2800
    6a44:	5f20296b 	svcpl	0x0020296b
    6a48:	7465725f 	strbtvc	r7, [r5], #-607	; 0xfffffda1
    6a4c:	65677261 	strbvs	r7, [r7, #-609]!	; 0xfffffd9f
    6a50:	6f6c5f74 	svcvs	0x006c5f74
    6a54:	745f6b63 	ldrbvc	r6, [pc], #-2915	; 6a5c <_Min_Stack_Size+0x665c>
    6a58:	615f7972 	cmpvs	pc, r2, ror r9	; <UNPREDICTABLE>
    6a5c:	69757163 	ldmdbvs	r5!, {r0, r1, r5, r6, r8, ip, sp, lr}^
    6a60:	6c286572 	cfstr32vs	mvfx6, [r8], #-456	; 0xfffffe38
    6a64:	296b636f 	stmdbcs	fp!, {r0, r1, r2, r3, r5, r6, r8, r9, sp, lr}^
    6a68:	49555f00 	ldmdbmi	r5, {r8, r9, sl, fp, ip, lr}^
    6a6c:	5450544e 	ldrbpl	r5, [r0], #-1102	; 0xfffffbb2
    6a70:	5f545f52 	svcpl	0x00545f52
    6a74:	4c434544 	cfstr64mi	mvdx4, [r3], {68}	; 0x44
    6a78:	44455241 	strbmi	r5, [r5], #-577	; 0xfffffdbf
    6a7c:	564e0020 	strbpl	r0, [lr], -r0, lsr #32
    6a80:	455f4349 	ldrbmi	r4, [pc, #-841]	; 673f <_Min_Stack_Size+0x633f>
    6a84:	30495458 	subcc	r5, r9, r8, asr r4
    6a88:	5152495f 	cmppl	r2, pc, asr r9
    6a8c:	616e455f 	cmnvs	lr, pc, asr r5
    6a90:	20656c62 	rsbcs	r6, r5, r2, ror #24
    6a94:	49564e28 	ldmdbmi	r6, {r3, r5, r9, sl, fp, lr}^
    6a98:	53495f43 	movtpl	r5, #40771	; 0x9f43
    6a9c:	20305245 	eorscs	r5, r0, r5, asr #4
    6aa0:	31203d7c 			; <UNDEFINED> instruction: 0x31203d7c
    6aa4:	29363c3c 	ldmdbcs	r6!, {r2, r3, r4, r5, sl, fp, ip, sp}
    6aa8:	54584500 	ldrbpl	r4, [r8], #-1280	; 0xfffffb00
    6aac:	5f353149 	svcpl	0x00353149
    6ab0:	20515249 	subscs	r5, r1, r9, asr #4
    6ab4:	45003034 	strmi	r3, [r0, #-52]	; 0xffffffcc
    6ab8:	30495458 	subcc	r5, r9, r8, asr r4
    6abc:	20304150 	eorscs	r4, r0, r0, asr r1
    6ac0:	54584528 	ldrbpl	r4, [r8], #-1320	; 0xfffffad8
    6ac4:	50475f49 	subpl	r5, r7, r9, asr #30
    6ac8:	4d5f4f49 	ldclmi	15, cr4, [pc, #-292]	; 69ac <_Min_Stack_Size+0x65ac>
    6acc:	69707061 	ldmdbvs	r0!, {r0, r5, r6, ip, sp, lr}^
    6ad0:	745f676e 	ldrbvc	r6, [pc], #-1902	; 6ad8 <_Min_Stack_Size+0x66d8>
    6ad4:	58457b29 	stmdapl	r5, {r0, r3, r5, r8, r9, fp, ip, sp, lr}^
    6ad8:	2c304954 			; <UNDEFINED> instruction: 0x2c304954
    6adc:	49504720 	ldmdbmi	r0, {r5, r8, r9, sl, lr}^
    6ae0:	202c414f 	eorcs	r4, ip, pc, asr #2
    6ae4:	4f495047 	svcmi	0x00495047
    6ae8:	4e49505f 	mcrmi	0, 2, r5, cr9, cr15, {2}
    6aec:	202c305f 	eorcs	r3, ip, pc, asr r0
    6af0:	49545845 	ldmdbmi	r4, {r0, r2, r6, fp, ip, lr}^
    6af4:	52495f30 	subpl	r5, r9, #48, 30	; 0xc0
    6af8:	5f007d51 	svcpl	0x00007d51
    6afc:	41484357 	cmpmi	r8, r7, asr r3
    6b00:	5f545f52 	svcpl	0x00545f52
    6b04:	49464544 	stmdbmi	r6, {r2, r6, r8, sl, lr}^
    6b08:	2044454e 	subcs	r4, r4, lr, asr #10
    6b0c:	555f5f00 	ldrbpl	r5, [pc, #-3840]	; 5c14 <_Min_Stack_Size+0x5814>
    6b10:	4343414c 	movtmi	r4, #12620	; 0x314c
    6b14:	4d5f4d55 	ldclmi	13, cr4, [pc, #-340]	; 69c8 <_Min_Stack_Size+0x65c8>
    6b18:	5f5f5841 	svcpl	0x005f5841
    6b1c:	46583020 	ldrbmi	r3, [r8], -r0, lsr #32
    6b20:	46464646 	strbmi	r4, [r6], -r6, asr #12
    6b24:	46464646 	strbmi	r4, [r6], -r6, asr #12
    6b28:	46464646 	strbmi	r4, [r6], -r6, asr #12
    6b2c:	50464646 	subpl	r4, r6, r6, asr #12
    6b30:	5532332d 	ldrpl	r3, [r2, #-813]!	; 0xfffffcd3
    6b34:	5f004b4c 	svcpl	0x00004b4c
    6b38:	7972745f 	ldmdbvc	r2!, {r0, r1, r2, r3, r4, r6, sl, ip, sp, lr}^
    6b3c:	6b636f6c 	blvs	18e28f4 <_Min_Stack_Size+0x18e24f4>
    6b40:	78655f73 	stmdavc	r5!, {r0, r1, r4, r5, r6, r8, r9, sl, fp, ip, lr}^
    6b44:	73756c63 	cmnvc	r5, #25344	; 0x6300
    6b48:	28657669 	stmdacs	r5!, {r0, r3, r5, r6, r9, sl, ip, sp, lr}^
    6b4c:	292e2e2e 	stmdbcs	lr!, {r1, r2, r3, r5, r9, sl, fp, sp}
    6b50:	6c5f5f20 	mrrcvs	15, 2, r5, pc, cr0	; <UNPREDICTABLE>
    6b54:	5f6b636f 	svcpl	0x006b636f
    6b58:	6f6e6e61 	svcvs	0x006e6e61
    6b5c:	65746174 	ldrbvs	r6, [r4, #-372]!	; 0xfffffe8c
    6b60:	63786528 	cmnvs	r8, #40, 10	; 0xa000000
    6b64:	6973756c 	ldmdbvs	r3!, {r2, r3, r5, r6, r8, sl, ip, sp, lr}^
    6b68:	745f6576 	ldrbvc	r6, [pc], #-1398	; 6b70 <_Min_Stack_Size+0x6770>
    6b6c:	6f6c7972 	svcvs	0x006c7972
    6b70:	665f6b63 	ldrbvs	r6, [pc], -r3, ror #22
    6b74:	74636e75 	strbtvc	r6, [r3], #-3701	; 0xfffff18b
    6b78:	286e6f69 	stmdacs	lr!, {r0, r3, r5, r6, r8, r9, sl, fp, sp, lr}^
    6b7c:	41565f5f 	cmpmi	r6, pc, asr pc
    6b80:	4752415f 			; <UNDEFINED> instruction: 0x4752415f
    6b84:	295f5f53 	ldmdbcs	pc, {r0, r1, r4, r6, r8, r9, sl, fp, ip, lr}^	; <UNPREDICTABLE>
    6b88:	50470029 	subpl	r0, r7, r9, lsr #32
    6b8c:	505f4f49 	subspl	r4, pc, r9, asr #30
    6b90:	315f4e49 	cmpcc	pc, r9, asr #28
    6b94:	28282035 	stmdacs	r8!, {r0, r2, r4, r5, sp}
    6b98:	746e6975 	strbtvc	r6, [lr], #-2421	; 0xfffff68b
    6b9c:	745f3631 	ldrbvc	r3, [pc], #-1585	; 6ba4 <_Min_Stack_Size+0x67a4>
    6ba0:	78302029 	ldmdavc	r0!, {r0, r3, r5, sp}
    6ba4:	30303038 	eorscc	r3, r0, r8, lsr r0
    6ba8:	525f0029 	subspl	r0, pc, #41	; 0x29
    6bac:	544e4545 	strbpl	r4, [lr], #-1349	; 0xfffffabb
    6bb0:	4e41525f 	mcrmi	2, 2, r5, cr1, cr15, {2}
    6bb4:	454e5f44 	strbmi	r5, [lr, #-3908]	; 0xfffff0bc
    6bb8:	70285458 	eorvc	r5, r8, r8, asr r4
    6bbc:	20297274 	eorcs	r7, r9, r4, ror r2
    6bc0:	74702828 	ldrbtvc	r2, [r0], #-2088	; 0xfffff7d8
    6bc4:	3e2d2972 			; <UNDEFINED> instruction: 0x3e2d2972
    6bc8:	3834725f 	ldmdacc	r4!, {r0, r1, r2, r3, r4, r6, r9, ip, sp, lr}
    6bcc:	725f3e2d 	subsvc	r3, pc, #720	; 0x2d0
    6bd0:	5f646e61 	svcpl	0x00646e61
    6bd4:	7478656e 	ldrbtvc	r6, [r8], #-1390	; 0xfffffa92
    6bd8:	58450029 	stmdapl	r5, {r0, r3, r5}^
    6bdc:	5f304954 	svcpl	0x00304954
    6be0:	20515249 	subscs	r5, r1, r9, asr #4
    6be4:	5f5f0036 	svcpl	0x005f0036
    6be8:	52464c55 	subpl	r4, r6, #21760	; 0x5500
    6bec:	5f544341 	svcpl	0x00544341
    6bf0:	5f4e494d 	svcpl	0x004e494d
    6bf4:	2e30205f 	mrccs	0, 1, r2, cr0, cr15, {2}
    6bf8:	524c5530 	subpl	r5, ip, #48, 10	; 0xc000000
    6bfc:	5a495300 	bpl	125b804 <_Min_Stack_Size+0x125b404>
    6c00:	414d5f45 	cmpmi	sp, r5, asr #30
    6c04:	5f282058 	svcpl	0x00282058
    6c08:	5a49535f 	bpl	125b98c <_Min_Stack_Size+0x125b58c>
    6c0c:	414d5f45 	cmpmi	sp, r5, asr #30
    6c10:	295f5f58 	ldmdbcs	pc, {r3, r4, r6, r8, r9, sl, fp, ip, lr}^	; <UNPREDICTABLE>
    6c14:	445f5f00 	ldrbmi	r5, [pc], #-3840	; 6c1c <_Min_Stack_Size+0x681c>
    6c18:	42495f51 	submi	r5, r9, #324	; 0x144
    6c1c:	5f5f5449 	svcpl	0x005f5449
    6c20:	5f003020 	svcpl	0x00003020
    6c24:	4d52415f 	ldfmie	f4, [r2, #-380]	; 0xfffffe84
    6c28:	3146425f 	cmpcc	r6, pc, asr r2
    6c2c:	4f465f36 	svcmi	0x00465f36
    6c30:	54414d52 	strbpl	r4, [r1], #-3410	; 0xfffff2ae
    6c34:	544c415f 	strbpl	r4, [ip], #-351	; 0xfffffea1
    6c38:	414e5245 	cmpmi	lr, r5, asr #4
    6c3c:	45564954 	ldrbmi	r4, [r6, #-2388]	; 0xfffff6ac
    6c40:	495f5f00 	ldmdbmi	pc, {r8, r9, sl, fp, ip, lr}^	; <UNPREDICTABLE>
    6c44:	3233544e 	eorscc	r5, r3, #1308622848	; 0x4e000000
    6c48:	5059545f 	subspl	r5, r9, pc, asr r4
    6c4c:	205f5f45 	subscs	r5, pc, r5, asr #30
    6c50:	676e6f6c 	strbvs	r6, [lr, -ip, ror #30]!
    6c54:	746e6920 	strbtvc	r6, [lr], #-2336	; 0xfffff6e0
    6c58:	555f5f00 	ldrbpl	r5, [pc, #-3840]	; 5d60 <_Min_Stack_Size+0x5960>
    6c5c:	5f544e49 	svcpl	0x00544e49
    6c60:	5341454c 	movtpl	r4, #5452	; 0x154c
    6c64:	4d5f3854 	ldclmi	8, cr3, [pc, #-336]	; 6b1c <_Min_Stack_Size+0x671c>
    6c68:	5f5f5841 	svcpl	0x005f5841
    6c6c:	66783020 	ldrbtvs	r3, [r8], -r0, lsr #32
    6c70:	415f0066 	cmpmi	pc, r6, rrx
    6c74:	49584554 	ldmdbmi	r8, {r2, r4, r6, r8, sl, lr}^
    6c78:	49535f54 	ldmdbmi	r3, {r2, r4, r6, r8, r9, sl, fp, ip, lr}^
    6c7c:	3320455a 			; <UNDEFINED> instruction: 0x3320455a
    6c80:	5f5f0032 	svcpl	0x005f0032
    6c84:	746e6f63 	strbtvc	r6, [lr], #-3939	; 0xfffff09d
    6c88:	656e6961 	strbvs	r6, [lr, #-2401]!	; 0xfffff69f
    6c8c:	28666f72 	stmdacs	r6!, {r1, r4, r5, r6, r8, r9, sl, fp, sp, lr}^
    6c90:	2c732c78 	ldclcs	12, cr2, [r3], #-480	; 0xfffffe20
    6c94:	2820296d 	stmdacs	r0!, {r0, r2, r3, r5, r6, r8, fp, sp}
    6c98:	6f63207b 	svcvs	0x0063207b
    6c9c:	2074736e 	rsbscs	r7, r4, lr, ror #6
    6ca0:	616c6f76 	smcvs	50934	; 0xc6f6
    6ca4:	656c6974 	strbvs	r6, [ip, #-2420]!	; 0xfffff68c
    6ca8:	745f5f20 	ldrbvc	r5, [pc], #-3872	; 6cb0 <_Min_Stack_Size+0x68b0>
    6cac:	6f657079 	svcvs	0x00657079
    6cb0:	28282866 	stmdacs	r8!, {r1, r2, r5, r6, fp, sp}
    6cb4:	292a2073 	stmdbcs	sl!, {r0, r1, r4, r5, r6, sp}
    6cb8:	3e2d2930 			; <UNDEFINED> instruction: 0x3e2d2930
    6cbc:	2a20296d 	bcs	811278 <_Min_Stack_Size+0x810e78>
    6cc0:	20785f5f 	rsbscs	r5, r8, pc, asr pc
    6cc4:	7828203d 	stmdavc	r8!, {r0, r2, r3, r4, r5, sp}
    6cc8:	5f203b29 	svcpl	0x00203b29
    6ccc:	5145445f 	cmppl	r5, pc, asr r4
    6cd0:	494c4155 	stmdbmi	ip, {r0, r2, r4, r6, r8, lr}^
    6cd4:	73285946 			; <UNDEFINED> instruction: 0x73285946
    6cd8:	202c2a20 	eorcs	r2, ip, r0, lsr #20
    6cdc:	6e6f6328 	cdpvs	3, 6, cr6, cr15, cr8, {1}
    6ce0:	76207473 			; <UNDEFINED> instruction: 0x76207473
    6ce4:	74616c6f 	strbtvc	r6, [r1], #-3183	; 0xfffff391
    6ce8:	20656c69 	rsbcs	r6, r5, r9, ror #24
    6cec:	72616863 	rsbvc	r6, r1, #6488064	; 0x630000
    6cf0:	5f292a20 	svcpl	0x00292a20
    6cf4:	2d20785f 	stccs	8, cr7, [r0, #-380]!	; 0xfffffe84
    6cf8:	6f5f5f20 	svcvs	0x005f5f20
    6cfc:	65736666 	ldrbvs	r6, [r3, #-1638]!	; 0xfffff99a
    6d00:	28666f74 	stmdacs	r6!, {r2, r4, r5, r6, r8, r9, sl, fp, sp, lr}^
    6d04:	6d202c73 	stcvs	12, cr2, [r0, #-460]!	; 0xfffffe34
    6d08:	7d3b2929 			; <UNDEFINED> instruction: 0x7d3b2929
    6d0c:	564e0029 	strbpl	r0, [lr], -r9, lsr #32
    6d10:	535f4349 	cmppl	pc, #603979777	; 0x24000001
    6d14:	5f314950 	svcpl	0x00314950
    6d18:	5f515249 	svcpl	0x00515249
    6d1c:	61736944 	cmnvs	r3, r4, asr #18
    6d20:	20656c62 	rsbcs	r6, r5, r2, ror #24
    6d24:	49564e28 	ldmdbmi	r6, {r3, r5, r9, sl, fp, lr}^
    6d28:	43495f43 	movtmi	r5, #40771	; 0x9f43
    6d2c:	20315245 	eorscs	r5, r1, r5, asr #4
    6d30:	31203d7c 			; <UNDEFINED> instruction: 0x31203d7c
    6d34:	53283c3c 			; <UNDEFINED> instruction: 0x53283c3c
    6d38:	5f314950 	svcpl	0x00314950
    6d3c:	20515249 	subscs	r5, r1, r9, asr #4
    6d40:	3233202d 	eorscc	r2, r3, #45	; 0x2d
    6d44:	5f002929 	svcpl	0x00002929
    6d48:	5f445342 	svcpl	0x00445342
    6d4c:	455a4953 	ldrbmi	r4, [sl, #-2387]	; 0xfffff6ad
    6d50:	205f545f 	subscs	r5, pc, pc, asr r4	; <UNPREDICTABLE>
    6d54:	695f5f00 	ldmdbvs	pc, {r8, r9, sl, fp, ip, lr}^	; <UNPREDICTABLE>
    6d58:	3032746e 	eorscc	r7, r2, lr, ror #8
    6d5c:	2b205f5f 	blcs	81eae0 <_Min_Stack_Size+0x81e6e0>
    6d60:	58450032 	stmdapl	r5, {r1, r4, r5}^
    6d64:	30314954 	eorscc	r4, r1, r4, asr r9
    6d68:	30314250 	eorscc	r4, r1, r0, asr r2
    6d6c:	58452820 	stmdapl	r5, {r5, fp, sp}^
    6d70:	475f4954 			; <UNDEFINED> instruction: 0x475f4954
    6d74:	5f4f4950 	svcpl	0x004f4950
    6d78:	7070614d 	rsbsvc	r6, r0, sp, asr #2
    6d7c:	5f676e69 	svcpl	0x00676e69
    6d80:	457b2974 	ldrbmi	r2, [fp, #-2420]!	; 0xfffff68c
    6d84:	31495458 	cmpcc	r9, r8, asr r4
    6d88:	47202c30 			; <UNDEFINED> instruction: 0x47202c30
    6d8c:	424f4950 	submi	r4, pc, #80, 18	; 0x140000
    6d90:	5047202c 	subpl	r2, r7, ip, lsr #32
    6d94:	505f4f49 	subspl	r4, pc, r9, asr #30
    6d98:	315f4e49 	cmpcc	pc, r9, asr #28
    6d9c:	45202c30 	strmi	r2, [r0, #-3120]!	; 0xfffff3d0
    6da0:	31495458 	cmpcc	r9, r8, asr r4
    6da4:	52495f30 	subpl	r5, r9, #48, 30	; 0xc0
    6da8:	5f007d51 	svcpl	0x00007d51
    6dac:	5f6f6e5f 	svcpl	0x006f6e5f
    6db0:	6b636f6c 	blvs	18e2b68 <_Min_Stack_Size+0x18e2768>
    6db4:	616e615f 	cmnvs	lr, pc, asr r1
    6db8:	6973796c 	ldmdbvs	r3!, {r2, r3, r5, r6, r8, fp, ip, sp, lr}^
    6dbc:	5f5f2073 	svcpl	0x005f2073
    6dc0:	6b636f6c 	blvs	18e2b78 <_Min_Stack_Size+0x18e2778>
    6dc4:	6e6e615f 	mcrvs	1, 3, r6, cr14, cr15, {2}
    6dc8:	7461746f 	strbtvc	r7, [r1], #-1135	; 0xfffffb91
    6dcc:	6f6e2865 	svcvs	0x006e2865
    6dd0:	7268745f 	rsbvc	r7, r8, #1593835520	; 0x5f000000
    6dd4:	5f646165 	svcpl	0x00646165
    6dd8:	65666173 	strbvs	r6, [r6, #-371]!	; 0xfffffe8d
    6ddc:	615f7974 	cmpvs	pc, r4, ror r9	; <UNPREDICTABLE>
    6de0:	796c616e 	stmdbvc	ip!, {r1, r2, r3, r5, r6, r8, sp, lr}^
    6de4:	29736973 	ldmdbcs	r3!, {r0, r1, r4, r5, r6, r8, fp, sp, lr}^
    6de8:	49504700 	ldmdbmi	r0, {r8, r9, sl, lr}^
    6dec:	49505f4f 	ldmdbmi	r0, {r0, r1, r2, r3, r6, r8, r9, sl, fp, ip, lr}^
    6df0:	31315f4e 	teqcc	r1, lr, asr #30
    6df4:	75282820 	strvc	r2, [r8, #-2080]!	; 0xfffff7e0
    6df8:	31746e69 	cmncc	r4, r9, ror #28
    6dfc:	29745f36 	ldmdbcs	r4!, {r1, r2, r4, r5, r8, r9, sl, fp, ip, lr}^
    6e00:	30783020 	rsbscc	r3, r8, r0, lsr #32
    6e04:	29303038 	ldmdbcs	r0!, {r3, r4, r5, ip, sp}
    6e08:	4e495f00 	cdpmi	15, 4, cr5, cr9, cr0, {0}
    6e0c:	5f343654 	svcpl	0x00343654
    6e10:	45445f54 	strbmi	r5, [r4, #-3924]	; 0xfffff0ac
    6e14:	52414c43 	subpl	r4, r1, #17152	; 0x4300
    6e18:	00204445 	eoreq	r4, r0, r5, asr #8
    6e1c:	5f434352 	svcpl	0x00434352
    6e20:	52415355 	subpl	r5, r1, #1409286145	; 0x54000001
    6e24:	435f3254 	cmpmi	pc, #84, 4	; 0x40000005
    6e28:	455f4b4c 	ldrbmi	r4, [pc, #-2892]	; 62e4 <_Min_Stack_Size+0x5ee4>
    6e2c:	2029284e 	eorcs	r2, r9, lr, asr #16
    6e30:	43435228 	movtmi	r5, #12840	; 0x3228
    6e34:	50413e2d 	subpl	r3, r1, sp, lsr #28
    6e38:	4e453142 	dvfmism	f3, f5, f2
    6e3c:	3d7c2052 	ldclcc	0, cr2, [ip, #-328]!	; 0xfffffeb8
    6e40:	3c312820 	ldccc	8, cr2, [r1], #-128	; 0xffffff80
    6e44:	2937313c 	ldmdbcs	r7!, {r2, r3, r4, r5, r8, ip, sp}
    6e48:	564e0029 	strbpl	r0, [lr], -r9, lsr #32
    6e4c:	495f4349 	ldmdbmi	pc, {r0, r3, r6, r8, r9, lr}^	; <UNPREDICTABLE>
    6e50:	31524553 	cmpcc	r2, r3, asr r5
    6e54:	76282a20 	strtvc	r2, [r8], -r0, lsr #20
    6e58:	74616c6f 	strbtvc	r6, [r1], #-3183	; 0xfffff391
    6e5c:	20656c69 	rsbcs	r6, r5, r9, ror #24
    6e60:	746e6975 	strbtvc	r6, [lr], #-2421	; 0xfffff68b
    6e64:	745f3233 	ldrbvc	r3, [pc], #-563	; 6e6c <_Min_Stack_Size+0x6a6c>
    6e68:	2829202a 	stmdacs	r9!, {r1, r3, r5, sp}
    6e6c:	4349564e 	movtmi	r5, #38478	; 0x964e
    6e70:	7361425f 	cmnvc	r1, #-268435451	; 0xf0000005
    6e74:	302b2065 	eorcc	r2, fp, r5, rrx
    6e78:	34303078 	ldrtcc	r3, [r0], #-120	; 0xffffff88
    6e7c:	525f0029 	subspl	r0, pc, #41	; 0x29
    6e80:	544e4545 	strbpl	r4, [lr], #-1349	; 0xfffffabb
    6e84:	5f504d5f 	svcpl	0x00504d5f
    6e88:	45455246 	strbmi	r5, [r5, #-582]	; 0xfffffdba
    6e8c:	5453494c 	ldrbpl	r4, [r3], #-2380	; 0xfffff6b4
    6e90:	72747028 	rsbsvc	r7, r4, #40	; 0x28
    6e94:	28282029 	stmdacs	r8!, {r0, r3, r5, sp}
    6e98:	29727470 	ldmdbcs	r2!, {r4, r5, r6, sl, ip, sp, lr}^
    6e9c:	6d5f3e2d 	ldclvs	14, cr3, [pc, #-180]	; 6df0 <_Min_Stack_Size+0x69f0>
    6ea0:	5f3e2d70 	svcpl	0x003e2d70
    6ea4:	65657266 	strbvs	r7, [r5, #-614]!	; 0xfffffd9a
    6ea8:	7473696c 	ldrbtvc	r6, [r3], #-2412	; 0xfffff694
    6eac:	6c610029 	stclvs	0, cr0, [r1], #-164	; 0xffffff5c
    6eb0:	61636f6c 	cmnvs	r3, ip, ror #30
    6eb4:	7a697328 	bvc	1a63b5c <_Min_Stack_Size+0x1a6375c>
    6eb8:	5f202965 	svcpl	0x00202965
    6ebc:	6975625f 	ldmdbvs	r5!, {r0, r1, r2, r3, r4, r6, r9, sp, lr}^
    6ec0:	6e69746c 	cdpvs	4, 6, cr7, cr9, cr12, {3}
    6ec4:	6c6c615f 	stfvse	f6, [ip], #-380	; 0xfffffe84
    6ec8:	2861636f 	stmdacs	r1!, {r0, r1, r2, r3, r5, r6, r8, r9, sp, lr}^
    6ecc:	657a6973 	ldrbvs	r6, [sl, #-2419]!	; 0xfffff68d
    6ed0:	435f0029 	cmpmi	pc, #41	; 0x29
    6ed4:	4b434f4c 	blmi	10dac0c <_Min_Stack_Size+0x10da80c>
    6ed8:	545f4449 	ldrbpl	r4, [pc], #-1097	; 6ee0 <_Min_Stack_Size+0x6ae0>
    6edc:	6e75205f 	mrcvs	0, 3, r2, cr5, cr15, {2}
    6ee0:	6e676973 			; <UNDEFINED> instruction: 0x6e676973
    6ee4:	6c206465 	cfstrsvs	mvf6, [r0], #-404	; 0xfffffe6c
    6ee8:	00676e6f 	rsbeq	r6, r7, pc, ror #28
    6eec:	54555f5f 	ldrbpl	r5, [r5], #-3935	; 0xfffff0a1
    6ef0:	42495f51 	submi	r5, r9, #324	; 0x144
    6ef4:	5f5f5449 	svcpl	0x005f5449
    6ef8:	45003020 	strmi	r3, [r0, #-32]	; 0xffffffe0
    6efc:	32495458 	subcc	r5, r9, #88, 8	; 0x58000000
    6f00:	5f003220 	svcpl	0x00003220
    6f04:	5f41535f 	svcpl	0x0041535f
    6f08:	54494246 	strbpl	r4, [r9], #-582	; 0xfffffdba
    6f0c:	31205f5f 			; <UNDEFINED> instruction: 0x31205f5f
    6f10:	5f5f0035 	svcpl	0x005f0035
    6f14:	5f544e49 	svcpl	0x00544e49
    6f18:	41484357 	cmpmi	r8, r7, asr r3
    6f1c:	5f545f52 	svcpl	0x00545f52
    6f20:	5f002048 	svcpl	0x00002048
    6f24:	544c465f 	strbpl	r4, [ip], #-1631	; 0xfffff9a1
    6f28:	5f583233 	svcpl	0x00583233
    6f2c:	5f58414d 	svcpl	0x0058414d
    6f30:	2e31205f 	mrccs	0, 1, r2, cr1, cr15, {2}
    6f34:	36373937 			; <UNDEFINED> instruction: 0x36373937
    6f38:	33313339 	teqcc	r1, #-469762048	; 0xe4000000
    6f3c:	32363834 	eorscc	r3, r6, #52, 16	; 0x340000
    6f40:	37353133 			; <UNDEFINED> instruction: 0x37353133
    6f44:	30332b65 	eorscc	r2, r3, r5, ror #22
    6f48:	32334638 	eorscc	r4, r3, #56, 12	; 0x3800000
    6f4c:	58450078 	stmdapl	r5, {r3, r4, r5, r6}^
    6f50:	34314954 	ldrtcc	r4, [r1], #-2388	; 0xfffff6ac
    6f54:	34314450 	ldrtcc	r4, [r1], #-1104	; 0xfffffbb0
    6f58:	58452820 	stmdapl	r5, {r5, fp, sp}^
    6f5c:	475f4954 			; <UNDEFINED> instruction: 0x475f4954
    6f60:	5f4f4950 	svcpl	0x004f4950
    6f64:	7070614d 	rsbsvc	r6, r0, sp, asr #2
    6f68:	5f676e69 	svcpl	0x00676e69
    6f6c:	457b2974 	ldrbmi	r2, [fp, #-2420]!	; 0xfffff68c
    6f70:	31495458 	cmpcc	r9, r8, asr r4
    6f74:	47202c34 			; <UNDEFINED> instruction: 0x47202c34
    6f78:	444f4950 	strbmi	r4, [pc], #-2384	; 6f80 <_Min_Stack_Size+0x6b80>
    6f7c:	5047202c 	subpl	r2, r7, ip, lsr #32
    6f80:	505f4f49 	subspl	r4, pc, r9, asr #30
    6f84:	315f4e49 	cmpcc	pc, r9, asr #28
    6f88:	45202c34 	strmi	r2, [r0, #-3124]!	; 0xfffff3cc
    6f8c:	31495458 	cmpcc	r9, r8, asr r4
    6f90:	52495f34 	subpl	r5, r9, #52, 30	; 0xd0
    6f94:	5f007d51 	svcpl	0x00007d51
    6f98:	6e695f5f 	mcrvs	15, 3, r5, cr9, cr15, {2}
    6f9c:	5f363174 	svcpl	0x00363174
    6fa0:	65645f74 	strbvs	r5, [r4, #-3956]!	; 0xfffff08c
    6fa4:	656e6966 	strbvs	r6, [lr, #-2406]!	; 0xfffff69a
    6fa8:	00312064 	eorseq	r2, r1, r4, rrx
    6fac:	41484357 	cmpmi	r8, r7, asr r3
    6fb0:	414d5f52 	cmpmi	sp, r2, asr pc
    6fb4:	5f282058 	svcpl	0x00282058
    6fb8:	4843575f 	stmdami	r3, {r0, r1, r2, r3, r4, r6, r8, r9, sl, ip, lr}^
    6fbc:	4d5f5241 	lfmmi	f5, 2, [pc, #-260]	; 6ec0 <_Min_Stack_Size+0x6ac0>
    6fc0:	5f5f5841 	svcpl	0x005f5841
    6fc4:	5f5f0029 	svcpl	0x005f0029
    6fc8:	5f4d5241 	svcpl	0x004d5241
    6fcc:	49424145 	stmdbmi	r2, {r0, r2, r6, r8, lr}^
    6fd0:	31205f5f 			; <UNDEFINED> instruction: 0x31205f5f
    6fd4:	415f5f00 	cmpmi	pc, r0, lsl #30
    6fd8:	414e4d53 	cmpmi	lr, r3, asr sp
    6fdc:	6328454d 			; <UNDEFINED> instruction: 0x6328454d
    6fe0:	656d616e 	strbvs	r6, [sp, #-366]!	; 0xfffffe92
    6fe4:	5f5f2029 	svcpl	0x005f2029
    6fe8:	52545358 	subspl	r5, r4, #88, 6	; 0x60000001
    6fec:	20474e49 	subcs	r4, r7, r9, asr #28
    6ff0:	555f5f28 	ldrbpl	r5, [pc, #-3880]	; 60d0 <_Min_Stack_Size+0x5cd0>
    6ff4:	5f524553 	svcpl	0x00524553
    6ff8:	4542414c 	strbmi	r4, [r2, #-332]	; 0xfffffeb4
    6ffc:	52505f4c 	subspl	r5, r0, #76, 30	; 0x130
    7000:	58494645 	stmdapl	r9, {r0, r2, r6, r9, sl, lr}^
    7004:	20295f5f 	eorcs	r5, r9, pc, asr pc
    7008:	6d616e63 	stclvs	14, cr6, [r1, #-396]!	; 0xfffffe74
    700c:	4e490065 	cdpmi	0, 4, cr0, cr9, cr5, {3}
    7010:	5f323354 	svcpl	0x00323354
    7014:	204e494d 	subcs	r4, lr, sp, asr #18
    7018:	5f5f2d28 	svcpl	0x005f2d28
    701c:	33544e49 	cmpcc	r4, #1168	; 0x490
    7020:	414d5f32 	cmpmi	sp, r2, lsr pc
    7024:	205f5f58 	subscs	r5, pc, r8, asr pc	; <UNPREDICTABLE>
    7028:	2931202d 	ldmdbcs	r1!, {r0, r2, r3, r5, sp}
    702c:	545f5f00 	ldrbpl	r5, [pc], #-3840	; 7034 <_Min_Stack_Size+0x6c34>
    7030:	424d5548 	submi	r5, sp, #72, 10	; 0x12000000
    7034:	5f5f4c45 	svcpl	0x005f4c45
    7038:	53003120 	movwpl	r3, #288	; 0x120
    703c:	5f334950 	svcpl	0x00334950
    7040:	45534142 	ldrbmi	r4, [r3, #-322]	; 0xfffffebe
    7044:	34783020 	ldrbtcc	r3, [r8], #-32	; 0xffffffe0
    7048:	33303030 	teqcc	r0, #48	; 0x30
    704c:	75303043 	ldrvc	r3, [r0, #-67]!	; 0xffffffbd
    7050:	49504700 	ldmdbmi	r0, {r8, r9, sl, lr}^
    7054:	4f4d5f4f 	svcmi	0x004d5f4f
    7058:	4f5f4544 	svcmi	0x005f4544
    705c:	55505455 	ldrbpl	r5, [r0, #-1109]	; 0xfffffbab
    7060:	444f5f54 	strbmi	r5, [pc], #-3924	; 7068 <_Min_Stack_Size+0x6c68>
    7064:	30783020 	rsbscc	r3, r8, r0, lsr #32
    7068:	30303030 	eorscc	r3, r0, r0, lsr r0
    706c:	00353030 	eorseq	r3, r5, r0, lsr r0
    7070:	51515f5f 	cmppl	r1, pc, asr pc
    7074:	4942495f 	stmdbmi	r2, {r0, r1, r2, r3, r4, r6, r8, fp, lr}^
    7078:	205f5f54 	subscs	r5, pc, r4, asr pc	; <UNPREDICTABLE>
    707c:	5f5f0030 	svcpl	0x005f0030
    7080:	454d5241 	strbmi	r5, [sp, #-577]	; 0xfffffdbf
    7084:	205f5f4c 	subscs	r5, pc, ip, asr #30
    7088:	49540031 	ldmdbmi	r4, {r0, r4, r5}^
    708c:	425f384d 	subsmi	r3, pc, #5046272	; 0x4d0000
    7090:	20455341 	subcs	r5, r5, r1, asr #6
    7094:	30347830 	eorscc	r7, r4, r0, lsr r8
    7098:	34333130 	ldrtcc	r3, [r3], #-304	; 0xfffffed0
    709c:	00753030 	rsbseq	r3, r5, r0, lsr r0
    70a0:	5f434352 	svcpl	0x00434352
    70a4:	45534142 	ldrbmi	r4, [r3, #-322]	; 0xfffffebe
    70a8:	34783020 	ldrbtcc	r3, [r8], #-32	; 0xffffffe0
    70ac:	31323030 	teqcc	r2, r0, lsr r0
    70b0:	55303030 	ldrpl	r3, [r0, #-48]!	; 0xffffffd0
    70b4:	5149004c 	cmppl	r9, ip, asr #32
    70b8:	4e455f52 	mcrmi	15, 2, r5, cr5, cr2, {2}
    70bc:	74730042 	ldrbtvc	r0, [r3], #-66	; 0xffffffbe
    70c0:	63697461 	cmnvs	r9, #1627389952	; 0x61000000
    70c4:	7373615f 	cmnvc	r3, #-1073741801	; 0xc0000017
    70c8:	20747265 	rsbscs	r7, r4, r5, ror #4
    70cc:	6174535f 	cmnvs	r4, pc, asr r3
    70d0:	5f636974 	svcpl	0x00636974
    70d4:	65737361 	ldrbvs	r7, [r3, #-865]!	; 0xfffffc9f
    70d8:	5f007472 	svcpl	0x00007472
    70dc:	434f4c5f 	movtmi	r4, #64607	; 0xfc5f
    70e0:	4e495f4b 	cdpmi	15, 4, cr5, cr9, cr11, {2}
    70e4:	525f5449 	subspl	r5, pc, #1224736768	; 0x49000000
    70e8:	52554345 	subspl	r4, r5, #335544321	; 0x14000001
    70ec:	45564953 	ldrbmi	r4, [r6, #-2387]	; 0xfffff6ad
    70f0:	616c6328 	cmnvs	ip, r8, lsr #6
    70f4:	6c2c7373 	stcvs	3, cr7, [ip], #-460	; 0xfffffe34
    70f8:	296b636f 	stmdbcs	fp!, {r0, r1, r2, r3, r5, r6, r8, r9, sp, lr}^
    70fc:	4c5f5f20 	mrrcmi	15, 2, r5, pc, cr0	; <UNPREDICTABLE>
    7100:	5f4b434f 	svcpl	0x004b434f
    7104:	54494e49 	strbpl	r4, [r9], #-3657	; 0xfffff1b7
    7108:	616c6328 	cmnvs	ip, r8, lsr #6
    710c:	6c2c7373 	stcvs	3, cr7, [ip], #-460	; 0xfffffe34
    7110:	296b636f 	stmdbcs	fp!, {r0, r1, r2, r3, r5, r6, r8, r9, sp, lr}^
    7114:	4c5f5f00 	mrrcmi	15, 0, r5, pc, cr0	; <UNPREDICTABLE>
    7118:	4343414c 	movtmi	r4, #12620	; 0x314c
    711c:	465f4d55 			; <UNDEFINED> instruction: 0x465f4d55
    7120:	5f544942 	svcpl	0x00544942
    7124:	3133205f 	teqcc	r3, pc, asr r0
    7128:	4e495500 	cdpmi	5, 4, cr5, cr9, cr0, {0}
    712c:	5f363154 	svcpl	0x00363154
    7130:	2058414d 	subscs	r4, r8, sp, asr #2
    7134:	555f5f28 	ldrbpl	r5, [pc, #-3880]	; 6214 <_Min_Stack_Size+0x5e14>
    7138:	31544e49 	cmpcc	r4, r9, asr #28
    713c:	414d5f36 	cmpmi	sp, r6, lsr pc
    7140:	295f5f58 	ldmdbcs	pc, {r3, r4, r6, r8, r9, sl, fp, ip, lr}^	; <UNPREDICTABLE>
    7144:	465f5f00 	ldrbmi	r5, [pc], -r0, lsl #30
    7148:	3233544c 	eorscc	r5, r3, #76, 8	; 0x4c000000
    714c:	494d5f58 	stmdbmi	sp, {r3, r4, r6, r8, r9, sl, fp, ip, lr}^
    7150:	30315f4e 	eorscc	r5, r1, lr, asr #30
    7154:	5058455f 	subspl	r4, r8, pc, asr r5
    7158:	28205f5f 	stmdacs	r0!, {r0, r1, r2, r3, r4, r6, r8, r9, sl, fp, ip, lr}
    715c:	3730332d 	ldrcc	r3, [r0, -sp, lsr #6]!
    7160:	49550029 	ldmdbmi	r5, {r0, r3, r5}^
    7164:	4c5f544e 	cfldrdmi	mvd5, [pc], {78}	; 0x4e
    7168:	54534145 	ldrbpl	r4, [r3], #-325	; 0xfffffebb
    716c:	414d5f38 	cmpmi	sp, r8, lsr pc
    7170:	5f282058 	svcpl	0x00282058
    7174:	4e49555f 	mcrmi	5, 2, r5, cr9, cr15, {2}
    7178:	454c5f54 	strbmi	r5, [ip, #-3924]	; 0xfffff0ac
    717c:	38545341 	ldmdacc	r4, {r0, r6, r8, r9, ip, lr}^
    7180:	58414d5f 	stmdapl	r1, {r0, r1, r2, r3, r4, r6, r8, sl, fp, lr}^
    7184:	00295f5f 	eoreq	r5, r9, pc, asr pc
    7188:	53555f5f 	cmppl	r5, #380	; 0x17c
    718c:	42495f51 	submi	r5, r9, #324	; 0x144
    7190:	5f5f5449 	svcpl	0x005f5449
    7194:	5f003020 	svcpl	0x00003020
    7198:	554e475f 	strbpl	r4, [lr, #-1887]	; 0xfffff8a1
    719c:	494d5f43 	stmdbmi	sp, {r0, r1, r6, r8, r9, sl, fp, ip, lr}^
    71a0:	5f524f4e 	svcpl	0x00524f4e
    71a4:	0033205f 	eorseq	r2, r3, pc, asr r0
    71a8:	4c465f5f 	mcrrmi	15, 5, r5, r6, cr15
    71ac:	58323354 	ldmdapl	r2!, {r2, r4, r6, r8, r9, ip, sp}
    71b0:	4e494d5f 	mcrmi	13, 2, r4, cr9, cr15, {2}
    71b4:	5058455f 	subspl	r4, r8, pc, asr r5
    71b8:	28205f5f 	stmdacs	r0!, {r0, r1, r2, r3, r4, r6, r8, r9, sl, fp, ip, lr}
    71bc:	3230312d 	eorscc	r3, r0, #1073741835	; 0x4000000b
    71c0:	5f002931 	svcpl	0x00002931
    71c4:	4e49555f 	mcrmi	5, 2, r5, cr9, cr15, {2}
    71c8:	454c5f54 	strbmi	r5, [ip, #-3924]	; 0xfffff0ac
    71cc:	33545341 	cmpcc	r4, #67108865	; 0x4000001
    71d0:	59545f32 	ldmdbpl	r4, {r1, r4, r5, r8, r9, sl, fp, ip, lr}^
    71d4:	5f5f4550 	svcpl	0x005f4550
    71d8:	6e6f6c20 	cdpvs	12, 6, cr6, cr15, cr0, {1}
    71dc:	6e752067 	cdpvs	0, 7, cr2, cr5, cr7, {3}
    71e0:	6e676973 			; <UNDEFINED> instruction: 0x6e676973
    71e4:	69206465 	stmdbvs	r0!, {r0, r2, r5, r6, sl, sp, lr}
    71e8:	5400746e 	strpl	r7, [r0], #-1134	; 0xfffffb92
    71ec:	20326d69 	eorscs	r6, r2, r9, ror #26
    71f0:	49542828 	ldmdbmi	r4, {r3, r5, fp, sp}^
    71f4:	3574324d 	ldrbcc	r3, [r4, #-589]!	; 0xfffffdb3
    71f8:	7079545f 	rsbsvc	r5, r9, pc, asr r4
    71fc:	66654465 	strbtvs	r4, [r5], -r5, ror #8
    7200:	292a745f 	stmdbcs	sl!, {r0, r1, r2, r3, r4, r6, sl, ip, sp, lr}
    7204:	324d4954 	subcc	r4, sp, #84, 18	; 0x150000
    7208:	5341425f 	movtpl	r4, #4703	; 0x125f
    720c:	5f002945 	svcpl	0x00002945
    7210:	4d52415f 	ldfmie	f4, [r2, #-380]	; 0xfffffe84
    7214:	4145465f 	cmpmi	r5, pc, asr r6
    7218:	45525554 	ldrbmi	r5, [r2, #-1364]	; 0xfffffaac
    721c:	4d554e5f 	ldclmi	14, cr4, [r5, #-380]	; 0xfffffe84
    7220:	43495245 	movtmi	r5, #37445	; 0x9245
    7224:	58414d5f 	stmdapl	r1, {r0, r1, r2, r3, r4, r6, r8, sl, fp, lr}^
    7228:	004e494d 	subeq	r4, lr, sp, asr #18
    722c:	4e41525f 	mcrmi	2, 2, r5, cr1, cr15, {2}
    7230:	5f383444 	svcpl	0x00383444
    7234:	544c554d 	strbpl	r5, [ip], #-1357	; 0xfffffab3
    7238:	2820315f 	stmdacs	r0!, {r0, r1, r2, r3, r4, r6, r8, ip, sp}
    723c:	65647830 	strbvs	r7, [r4, #-2096]!	; 0xfffff7d0
    7240:	00296365 	eoreq	r6, r9, r5, ror #6
    7244:	4e495f5f 	mcrmi	15, 2, r5, cr9, cr15, {2}
    7248:	58414d54 	stmdapl	r1, {r2, r4, r6, r8, sl, fp, lr}^
    724c:	5059545f 	subspl	r5, r9, pc, asr r4
    7250:	205f5f45 	subscs	r5, pc, r5, asr #30
    7254:	676e6f6c 	strbvs	r6, [lr, -ip, ror #30]!
    7258:	6e6f6c20 	cdpvs	12, 6, cr6, cr15, cr0, {1}
    725c:	6e692067 	cdpvs	0, 6, cr2, cr9, cr7, {3}
    7260:	58450074 	stmdapl	r5, {r2, r4, r5, r6}^
    7264:	50374954 	eorspl	r4, r7, r4, asr r9
    7268:	28203742 	stmdacs	r0!, {r1, r6, r8, r9, sl, ip, sp}
    726c:	49545845 	ldmdbmi	r4, {r0, r2, r6, fp, ip, lr}^
    7270:	4950475f 	ldmdbmi	r0, {r0, r1, r2, r3, r4, r6, r8, r9, sl, lr}^
    7274:	614d5f4f 	cmpvs	sp, pc, asr #30
    7278:	6e697070 	mcrvs	0, 3, r7, cr9, cr0, {3}
    727c:	29745f67 	ldmdbcs	r4!, {r0, r1, r2, r5, r6, r8, r9, sl, fp, ip, lr}^
    7280:	5458457b 	ldrbpl	r4, [r8], #-1403	; 0xfffffa85
    7284:	202c3749 	eorcs	r3, ip, r9, asr #14
    7288:	4f495047 	svcmi	0x00495047
    728c:	47202c42 	strmi	r2, [r0, -r2, asr #24]!
    7290:	5f4f4950 	svcpl	0x004f4950
    7294:	5f4e4950 	svcpl	0x004e4950
    7298:	45202c37 	strmi	r2, [r0, #-3127]!	; 0xfffff3c9
    729c:	37495458 	smlsldcc	r5, r9, r8, r4
    72a0:	5152495f 	cmppl	r2, pc, asr r9
    72a4:	4955007d 	ldmdbmi	r5, {r0, r2, r3, r4, r5, r6}^
    72a8:	465f544e 	ldrbmi	r5, [pc], -lr, asr #8
    72ac:	33545341 	cmpcc	r4, #67108865	; 0x4000001
    72b0:	414d5f32 	cmpmi	sp, r2, lsr pc
    72b4:	5f282058 	svcpl	0x00282058
    72b8:	4e49555f 	mcrmi	5, 2, r5, cr9, cr15, {2}
    72bc:	41465f54 	cmpmi	r6, r4, asr pc
    72c0:	32335453 	eorscc	r5, r3, #1392508928	; 0x53000000
    72c4:	58414d5f 	stmdapl	r1, {r0, r1, r2, r3, r4, r6, r8, sl, fp, lr}^
    72c8:	00295f5f 	eoreq	r5, r9, pc, asr pc
    72cc:	43475f5f 	movtmi	r5, #32607	; 0x7f5f
    72d0:	54415f43 	strbpl	r5, [r1], #-3907	; 0xfffff0bd
    72d4:	43494d4f 	movtmi	r4, #40271	; 0x9d4f
    72d8:	544e495f 	strbpl	r4, [lr], #-2399	; 0xfffff6a1
    72dc:	434f4c5f 	movtmi	r4, #64607	; 0xfc5f
    72e0:	52465f4b 	subpl	r5, r6, #300	; 0x12c
    72e4:	32204545 	eorcc	r4, r0, #289406976	; 0x11400000
    72e8:	49504700 	ldmdbmi	r0, {r8, r9, sl, lr}^
    72ec:	49505f4f 	ldmdbmi	r0, {r0, r1, r2, r3, r6, r8, r9, sl, fp, ip, lr}^
    72f0:	4c415f4e 	mcrrmi	15, 4, r5, r1, cr14
    72f4:	2828204c 	stmdacs	r8!, {r2, r3, r6, sp}
    72f8:	746e6975 	strbtvc	r6, [lr], #-2421	; 0xfffff68b
    72fc:	745f3631 	ldrbvc	r3, [pc], #-1585	; 7304 <_Min_Stack_Size+0x6f04>
    7300:	78302029 	ldmdavc	r0!, {r0, r3, r5, sp}
    7304:	46464646 	strbmi	r4, [r6], -r6, asr #12
    7308:	525f0029 	subspl	r0, pc, #41	; 0x29
    730c:	34444e41 	strbcc	r4, [r4], #-3649	; 0xfffff1bf
    7310:	45535f38 	ldrbmi	r5, [r3, #-3896]	; 0xfffff0c8
    7314:	305f4445 	subscc	r4, pc, r5, asr #8
    7318:	78302820 	ldmdavc	r0!, {r5, fp, sp}
    731c:	65303333 	ldrvs	r3, [r0, #-819]!	; 0xfffffccd
    7320:	58450029 	stmdapl	r5, {r0, r3, r5}^
    7324:	50394954 	eorspl	r4, r9, r4, asr r9
    7328:	28203944 	stmdacs	r0!, {r2, r6, r8, fp, ip, sp}
    732c:	49545845 	ldmdbmi	r4, {r0, r2, r6, fp, ip, lr}^
    7330:	4950475f 	ldmdbmi	r0, {r0, r1, r2, r3, r4, r6, r8, r9, sl, lr}^
    7334:	614d5f4f 	cmpvs	sp, pc, asr #30
    7338:	6e697070 	mcrvs	0, 3, r7, cr9, cr0, {3}
    733c:	29745f67 	ldmdbcs	r4!, {r0, r1, r2, r5, r6, r8, r9, sl, fp, ip, lr}^
    7340:	5458457b 	ldrbpl	r4, [r8], #-1403	; 0xfffffa85
    7344:	202c3949 	eorcs	r3, ip, r9, asr #18
    7348:	4f495047 	svcmi	0x00495047
    734c:	47202c44 	strmi	r2, [r0, -r4, asr #24]!
    7350:	5f4f4950 	svcpl	0x004f4950
    7354:	5f4e4950 	svcpl	0x004e4950
    7358:	45202c39 	strmi	r2, [r0, #-3129]!	; 0xfffff3c7
    735c:	39495458 	stmdbcc	r9, {r3, r4, r6, sl, ip, lr}^
    7360:	5152495f 	cmppl	r2, pc, asr r9
    7364:	475f007d 			; <UNDEFINED> instruction: 0x475f007d
    7368:	4d5f4343 	ldclmi	3, cr4, [pc, #-268]	; 7264 <_Min_Stack_Size+0x6e64>
    736c:	415f5841 	cmpmi	pc, r1, asr #16
    7370:	4e47494c 	vmlsmi.f16	s9, s14, s24	; <UNPREDICTABLE>
    7374:	0020545f 	eoreq	r5, r0, pc, asr r4
    7378:	6f4c5f5f 	svcvs	0x004c5f5f
    737c:	6c20676e 	stcvs	7, cr6, [r0], #-440	; 0xfffffe48
    7380:	00676e6f 	rsbeq	r6, r7, pc, ror #28
    7384:	52415f5f 	subpl	r5, r1, #380	; 0x17c
    7388:	45465f4d 	strbmi	r5, [r6, #-3917]	; 0xfffff0b3
    738c:	52555441 	subspl	r5, r5, #1090519040	; 0x41000000
    7390:	50465f45 	subpl	r5, r6, r5, asr #30
    7394:	535f3631 	cmppl	pc, #51380224	; 0x3100000
    7398:	414c4143 	cmpmi	ip, r3, asr #2
    739c:	52415f52 	subpl	r5, r1, #328	; 0x148
    73a0:	4d485449 	cfstrdmi	mvd5, [r8, #-292]	; 0xfffffedc
    73a4:	43495445 	movtmi	r5, #37957	; 0x9445
    73a8:	465f5f00 	ldrbmi	r5, [pc], -r0, lsl #30
    73ac:	4e5f544c 	cdpmi	4, 5, cr5, cr15, cr12, {2}
    73b0:	5f4d524f 	svcpl	0x004d524f
    73b4:	5f58414d 	svcpl	0x0058414d
    73b8:	2e33205f 	mrccs	0, 1, r2, cr3, cr15, {2}
    73bc:	38323034 	ldmdacc	r2!, {r2, r4, r5, ip, sp}
    73c0:	36343332 			; <UNDEFINED> instruction: 0x36343332
    73c4:	35383336 	ldrcc	r3, [r8, #-822]!	; 0xfffffcca
    73c8:	36383832 			; <UNDEFINED> instruction: 0x36383832
    73cc:	38332b65 	ldmdacc	r3!, {r0, r2, r5, r6, r8, r9, fp, sp}
    73d0:	5f5f0046 	svcpl	0x005f0046
    73d4:	43415355 	movtmi	r5, #4949	; 0x1355
    73d8:	5f4d5543 	svcpl	0x004d5543
    73dc:	49535045 	ldmdbmi	r3, {r0, r2, r6, ip, lr}^
    73e0:	5f4e4f4c 	svcpl	0x004e4f4c
    73e4:	7830205f 	ldmdavc	r0!, {r0, r1, r2, r3, r4, r6, sp}
    73e8:	382d5031 	stmdacc	sp!, {r0, r4, r5, ip, lr}
    73ec:	004b4855 	subeq	r4, fp, r5, asr r8
    73f0:	42445f5f 	submi	r5, r4, #380	; 0x17c
    73f4:	41485f4c 	cmpmi	r8, ip, asr #30
    73f8:	55515f53 	ldrbpl	r5, [r1, #-3923]	; 0xfffff0ad
    73fc:	5f544549 	svcpl	0x00544549
    7400:	5f4e414e 	svcpl	0x004e414e
    7404:	0031205f 	eorseq	r2, r1, pc, asr r0
    7408:	33544e49 	cmpcc	r4, #1168	; 0x490
    740c:	28435f32 	stmdacs	r3, {r1, r4, r5, r8, r9, sl, fp, ip, lr}^
    7410:	5f202978 	svcpl	0x00202978
    7414:	544e495f 	strbpl	r4, [lr], #-2399	; 0xfffff6a1
    7418:	435f3233 	cmpmi	pc, #805306371	; 0x30000003
    741c:	00297828 	eoreq	r7, r9, r8, lsr #16
    7420:	74705f5f 	ldrbtvc	r5, [r0], #-3935	; 0xfffff0a1
    7424:	6c617672 	stclvs	6, cr7, [r1], #-456	; 0xfffffe38
    7428:	00206575 	eoreq	r6, r0, r5, ror r5
    742c:	494f4e5f 	stmdbmi	pc, {r0, r1, r2, r3, r4, r6, r9, sl, fp, lr}^	; <UNPREDICTABLE>
    7430:	4e494c4e 	cdpmi	12, 4, cr4, cr9, cr14, {2}
    7434:	54535f45 	ldrbpl	r5, [r3], #-3909	; 0xfffff0bb
    7438:	43495441 	movtmi	r5, #37953	; 0x9441
    743c:	4f4e5f20 	svcmi	0x004e5f20
    7440:	494c4e49 	stmdbmi	ip, {r0, r3, r6, r9, sl, fp, lr}^
    7444:	7320454e 			; <UNDEFINED> instruction: 0x7320454e
    7448:	69746174 	ldmdbvs	r4!, {r2, r4, r5, r6, r8, sp, lr}^
    744c:	5f5f0063 	svcpl	0x005f0063
    7450:	52464c4c 	subpl	r4, r6, #76, 24	; 0x4c00
    7454:	5f544341 	svcpl	0x00544341
    7458:	5f58414d 	svcpl	0x0058414d
    745c:	5830205f 	ldmdapl	r0!, {r0, r1, r2, r3, r4, r6, sp}
    7460:	46464637 			; <UNDEFINED> instruction: 0x46464637
    7464:	46464646 	strbmi	r4, [r6], -r6, asr #12
    7468:	46464646 	strbmi	r4, [r6], -r6, asr #12
    746c:	46464646 	strbmi	r4, [r6], -r6, asr #12
    7470:	33362d50 	teqcc	r6, #80, 26	; 0x1400
    7474:	00524c4c 	subseq	r4, r2, ip, asr #24
    7478:	6f635f5f 	svcvs	0x00635f5f
    747c:	2074736e 	rsbscs	r7, r4, lr, ror #6
    7480:	736e6f63 	cmnvc	lr, #396	; 0x18c
    7484:	58450074 	stmdapl	r5, {r2, r4, r5, r6}^
    7488:	50304954 	eorspl	r4, r0, r4, asr r9
    748c:	28203043 	stmdacs	r0!, {r0, r1, r6, ip, sp}
    7490:	49545845 	ldmdbmi	r4, {r0, r2, r6, fp, ip, lr}^
    7494:	4950475f 	ldmdbmi	r0, {r0, r1, r2, r3, r4, r6, r8, r9, sl, lr}^
    7498:	614d5f4f 	cmpvs	sp, pc, asr #30
    749c:	6e697070 	mcrvs	0, 3, r7, cr9, cr0, {3}
    74a0:	29745f67 	ldmdbcs	r4!, {r0, r1, r2, r5, r6, r8, r9, sl, fp, ip, lr}^
    74a4:	5458457b 	ldrbpl	r4, [r8], #-1403	; 0xfffffa85
    74a8:	202c3049 	eorcs	r3, ip, r9, asr #32
    74ac:	4f495047 	svcmi	0x00495047
    74b0:	47202c43 	strmi	r2, [r0, -r3, asr #24]!
    74b4:	5f4f4950 	svcpl	0x004f4950
    74b8:	5f4e4950 	svcpl	0x004e4950
    74bc:	45202c30 	strmi	r2, [r0, #-3120]!	; 0xfffff3d0
    74c0:	30495458 	subcc	r5, r9, r8, asr r4
    74c4:	5152495f 	cmppl	r2, pc, asr r9
    74c8:	4955007d 	ldmdbmi	r5, {r0, r2, r3, r4, r5, r6}^
    74cc:	4c5f544e 	cfldrdmi	mvd5, [pc], {78}	; 0x4e
    74d0:	54534145 	ldrbpl	r4, [r3], #-325	; 0xfffffebb
    74d4:	4d5f3233 	lfmmi	f3, 2, [pc, #-204]	; 7410 <_Min_Stack_Size+0x7010>
    74d8:	28205841 	stmdacs	r0!, {r0, r6, fp, ip, lr}
    74dc:	49555f5f 	ldmdbmi	r5, {r0, r1, r2, r3, r4, r6, r8, r9, sl, fp, ip, lr}^
    74e0:	4c5f544e 	cfldrdmi	mvd5, [pc], {78}	; 0x4e
    74e4:	54534145 	ldrbpl	r4, [r3], #-325	; 0xfffffebb
    74e8:	4d5f3233 	lfmmi	f3, 2, [pc, #-204]	; 7424 <_Min_Stack_Size+0x7024>
    74ec:	5f5f5841 	svcpl	0x005f5841
    74f0:	58450029 	stmdapl	r5, {r0, r3, r5}^
    74f4:	50314954 	eorspl	r4, r1, r4, asr r9
    74f8:	28203143 	stmdacs	r0!, {r0, r1, r6, r8, ip, sp}
    74fc:	49545845 	ldmdbmi	r4, {r0, r2, r6, fp, ip, lr}^
    7500:	4950475f 	ldmdbmi	r0, {r0, r1, r2, r3, r4, r6, r8, r9, sl, lr}^
    7504:	614d5f4f 	cmpvs	sp, pc, asr #30
    7508:	6e697070 	mcrvs	0, 3, r7, cr9, cr0, {3}
    750c:	29745f67 	ldmdbcs	r4!, {r0, r1, r2, r5, r6, r8, r9, sl, fp, ip, lr}^
    7510:	5458457b 	ldrbpl	r4, [r8], #-1403	; 0xfffffa85
    7514:	202c3149 	eorcs	r3, ip, r9, asr #2
    7518:	4f495047 	svcmi	0x00495047
    751c:	47202c43 	strmi	r2, [r0, -r3, asr #24]!
    7520:	5f4f4950 	svcpl	0x004f4950
    7524:	5f4e4950 	svcpl	0x004e4950
    7528:	45202c31 	strmi	r2, [r0, #-3121]!	; 0xfffff3cf
    752c:	31495458 	cmpcc	r9, r8, asr r4
    7530:	5152495f 	cmppl	r2, pc, asr r9
    7534:	4352007d 	cmpmi	r2, #125	; 0x7d
    7538:	53555f43 	cmppl	r5, #268	; 0x10c
    753c:	33545241 	cmpcc	r4, #268435460	; 0x10000004
    7540:	4b4c435f 	blmi	13182c4 <_Min_Stack_Size+0x1317ec4>
    7544:	284e455f 	stmdacs	lr, {r0, r1, r2, r3, r4, r6, r8, sl, lr}^
    7548:	52282029 	eorpl	r2, r8, #41	; 0x29
    754c:	3e2d4343 	cdpcc	3, 2, cr4, cr13, cr3, {2}
    7550:	31425041 	cmpcc	r2, r1, asr #32
    7554:	20524e45 	subscs	r4, r2, r5, asr #28
    7558:	28203d7c 	stmdacs	r0!, {r2, r3, r4, r5, r6, r8, sl, fp, ip, sp}
    755c:	313c3c31 	teqcc	ip, r1, lsr ip
    7560:	00292938 	eoreq	r2, r9, r8, lsr r9
    7564:	41535f5f 	cmpmi	r3, pc, asr pc
    7568:	4d554343 	ldclmi	3, cr4, [r5, #-268]	; 0xfffffef4
    756c:	58414d5f 	stmdapl	r1, {r0, r1, r2, r3, r4, r6, r8, sl, fp, lr}^
    7570:	30205f5f 	eorcc	r5, r0, pc, asr pc
    7574:	46463758 			; <UNDEFINED> instruction: 0x46463758
    7578:	372d5046 	strcc	r5, [sp, -r6, asr #32]!
    757c:	5f004b48 	svcpl	0x00004b48
    7580:	544e495f 	strbpl	r4, [lr], #-2399	; 0xfffff6a1
    7584:	5f525450 	svcpl	0x00525450
    7588:	45505954 	ldrbmi	r5, [r0, #-2388]	; 0xfffff6ac
    758c:	69205f5f 	stmdbvs	r0!, {r0, r1, r2, r3, r4, r6, r8, r9, sl, fp, ip, lr}
    7590:	4500746e 	strmi	r7, [r0, #-1134]	; 0xfffffb92
    7594:	38495458 	stmdacc	r9, {r3, r4, r6, sl, ip, lr}^
    7598:	5152495f 	cmppl	r2, pc, asr r9
    759c:	00333220 	eorseq	r3, r3, r0, lsr #4
    75a0:	49555f5f 	ldmdbmi	r5, {r0, r1, r2, r3, r4, r6, r8, r9, sl, fp, ip, lr}^
    75a4:	5450544e 	ldrbpl	r5, [r0], #-1102	; 0xfffffbb2
    75a8:	59545f52 	ldmdbpl	r4, {r1, r4, r6, r8, r9, sl, fp, ip, lr}^
    75ac:	5f5f4550 	svcpl	0x005f4550
    75b0:	736e7520 	cmnvc	lr, #32, 10	; 0x8000000
    75b4:	656e6769 	strbvs	r6, [lr, #-1897]!	; 0xfffff897
    75b8:	6e692064 	cdpvs	0, 6, cr2, cr9, cr4, {3}
    75bc:	50470074 	subpl	r0, r7, r4, ror r0
    75c0:	4d5f4f49 	ldclmi	15, cr4, [pc, #-292]	; 74a4 <_Min_Stack_Size+0x70a4>
    75c4:	5f45444f 	svcpl	0x0045444f
    75c8:	55504e49 	ldrbpl	r4, [r0, #-3657]	; 0xfffff1b7
    75cc:	55505f54 	ldrbpl	r5, [r0, #-3924]	; 0xfffff0ac
    75d0:	30783020 	rsbscc	r3, r8, r0, lsr #32
    75d4:	30303030 	eorscc	r3, r0, r0, lsr r0
    75d8:	00323030 	eorseq	r3, r2, r0, lsr r0
    75dc:	4f495047 	svcmi	0x00495047
    75e0:	28282042 	stmdacs	r8!, {r1, r6, sp}
    75e4:	4f495047 	svcmi	0x00495047
    75e8:	7079545f 	rsbsvc	r5, r9, pc, asr r4
    75ec:	66656465 	strbtvs	r6, [r5], -r5, ror #8
    75f0:	2a20745f 	bcs	824774 <_Min_Stack_Size+0x824374>
    75f4:	49504729 	ldmdbmi	r0, {r0, r3, r5, r8, r9, sl, lr}^
    75f8:	425f424f 	subsmi	r4, pc, #-268435452	; 0xf0000004
    75fc:	29455341 	stmdbcs	r5, {r0, r6, r8, r9, ip, lr}^
    7600:	525f5f00 	subspl	r5, pc, #0, 30
    7604:	53494745 	movtpl	r4, #38725	; 0x9745
    7608:	5f524554 	svcpl	0x00524554
    760c:	46455250 			; <UNDEFINED> instruction: 0x46455250
    7610:	5f5f5849 	svcpl	0x005f5849
    7614:	5f5f0020 	svcpl	0x005f0020
    7618:	33544c46 	cmpcc	r4, #17920	; 0x4600
    761c:	414d5f32 	cmpmi	sp, r2, lsr pc
    7620:	205f5f58 	subscs	r5, pc, r8, asr pc	; <UNPREDICTABLE>
    7624:	30342e33 	eorscc	r2, r4, r3, lsr lr
    7628:	33323832 	teqcc	r2, #3276800	; 0x320000
    762c:	33363634 	teqcc	r6, #52, 12	; 0x3400000
    7630:	38323538 	ldmdacc	r2!, {r3, r4, r5, r8, sl, ip, sp}
    7634:	2b653638 	blcs	1954f1c <_Min_Stack_Size+0x1954b1c>
    7638:	33463833 	movtcc	r3, #26675	; 0x6833
    763c:	5f5f0032 	svcpl	0x005f0032
    7640:	5f4c4244 	svcpl	0x004c4244
    7644:	5f474944 	svcpl	0x00474944
    7648:	3531205f 	ldrcc	r2, [r1, #-95]!	; 0xffffffa1
    764c:	555f5f00 	ldrbpl	r5, [pc, #-3840]	; 6754 <_Min_Stack_Size+0x6354>
    7650:	4152464c 	cmpmi	r2, ip, asr #12
    7654:	455f5443 	ldrbmi	r5, [pc, #-1091]	; 7219 <_Min_Stack_Size+0x6e19>
    7658:	4c495350 	mcrrmi	3, 5, r5, r9, cr0
    765c:	5f5f4e4f 	svcpl	0x005f4e4f
    7660:	31783020 	cmncc	r8, r0, lsr #32
    7664:	32332d50 	eorscc	r2, r3, #80, 26	; 0x1400
    7668:	00524c55 	subseq	r4, r2, r5, asr ip
    766c:	43525f5f 	cmpmi	r2, #380	; 0x17c
    7670:	28444953 	stmdacs	r4, {r0, r1, r4, r6, r8, fp, lr}^
    7674:	73202973 			; <UNDEFINED> instruction: 0x73202973
    7678:	63757274 	cmnvs	r5, #116, 4	; 0x40000007
    767c:	5f5f2074 	svcpl	0x005f2074
    7680:	6b636168 	blvs	18dfc28 <_Min_Stack_Size+0x18df828>
    7684:	49504700 	ldmdbmi	r0, {r8, r9, sl, lr}^
    7688:	425f474f 	subsmi	r4, pc, #20709376	; 0x13c0000
    768c:	20455341 	subcs	r5, r5, r1, asr #6
    7690:	30347830 	eorscc	r7, r4, r0, lsr r8
    7694:	30323130 	eorscc	r3, r2, r0, lsr r1
    7698:	00753030 	rsbseq	r3, r5, r0, lsr r0
    769c:	4545525f 	strbmi	r5, [r5, #-607]	; 0xfffffda1
    76a0:	4c5f544e 	cfldrdmi	mvd5, [pc], {78}	; 0x4e
    76a4:	5f413436 	svcpl	0x00413436
    76a8:	28465542 	stmdacs	r6, {r1, r6, r8, sl, ip, lr}^
    76ac:	29727470 	ldmdbcs	r2!, {r4, r5, r6, sl, ip, sp, lr}^
    76b0:	70282820 	eorvc	r2, r8, r0, lsr #16
    76b4:	2d297274 	sfmcs	f7, 4, [r9, #-464]!	; 0xfffffe30
    76b8:	696d5f3e 	stmdbvs	sp!, {r1, r2, r3, r4, r5, r8, r9, sl, fp, ip, lr}^
    76bc:	3e2d6373 	mcrcc	3, 1, r6, cr13, cr3, {3}
    76c0:	34366c5f 	ldrtcc	r6, [r6], #-3167	; 0xfffff3a1
    76c4:	75625f61 	strbvc	r5, [r2, #-3937]!	; 0xfffff09f
    76c8:	5f002966 	svcpl	0x00002966
    76cc:	5a49535f 	bpl	125c450 <_Min_Stack_Size+0x125c050>
    76d0:	5f464f45 	svcpl	0x00464f45
    76d4:	455a4953 	ldrbmi	r4, [sl, #-2387]	; 0xfffff6ad
    76d8:	5f5f545f 	svcpl	0x005f545f
    76dc:	45003420 	strmi	r3, [r0, #-1056]	; 0xfffffbe0
    76e0:	5f495458 	svcpl	0x00495458
    76e4:	00474643 	subeq	r4, r7, r3, asr #12
    76e8:	4e495f5f 	mcrmi	15, 2, r5, cr9, cr15, {2}
    76ec:	5f343654 	svcpl	0x00343654
    76f0:	29632843 	stmdbcs	r3!, {r0, r1, r6, fp, sp}^
    76f4:	23206320 			; <UNDEFINED> instruction: 0x23206320
    76f8:	4c4c2023 	mcrrmi	0, 2, r2, ip, cr3
    76fc:	56414800 	strbpl	r4, [r1], -r0, lsl #16
    7700:	4e495f45 	cdpmi	15, 4, cr5, cr9, cr5, {2}
    7704:	49465449 	stmdbmi	r6, {r0, r3, r6, sl, ip, lr}^
    7708:	415f494e 	cmpmi	pc, lr, asr #18
    770c:	59415252 	stmdbpl	r1, {r1, r4, r6, r9, ip, lr}^
    7710:	5f003120 	svcpl	0x00003120
    7714:	636f6c5f 	cmnvs	pc, #24320	; 0x5f00
    7718:	6c62616b 	stfvse	f6, [r2], #-428	; 0xfffffe54
    771c:	5f5f2065 	svcpl	0x005f2065
    7720:	6b636f6c 	blvs	18e34d8 <_Min_Stack_Size+0x18e30d8>
    7724:	6e6e615f 	mcrvs	1, 3, r6, cr14, cr15, {2}
    7728:	7461746f 	strbtvc	r7, [r1], #-1135	; 0xfffffb91
    772c:	6f6c2865 	svcvs	0x006c2865
    7730:	62616b63 	rsbvs	r6, r1, #101376	; 0x18c00
    7734:	0029656c 	eoreq	r6, r9, ip, ror #10
    7738:	49545845 	ldmdbmi	r4, {r0, r2, r6, fp, ip, lr}^
    773c:	43503531 	cmpmi	r0, #205520896	; 0xc400000
    7740:	28203531 	stmdacs	r0!, {r0, r4, r5, r8, sl, ip, sp}
    7744:	49545845 	ldmdbmi	r4, {r0, r2, r6, fp, ip, lr}^
    7748:	4950475f 	ldmdbmi	r0, {r0, r1, r2, r3, r4, r6, r8, r9, sl, lr}^
    774c:	614d5f4f 	cmpvs	sp, pc, asr #30
    7750:	6e697070 	mcrvs	0, 3, r7, cr9, cr0, {3}
    7754:	29745f67 	ldmdbcs	r4!, {r0, r1, r2, r5, r6, r8, r9, sl, fp, ip, lr}^
    7758:	5458457b 	ldrbpl	r4, [r8], #-1403	; 0xfffffa85
    775c:	2c353149 	ldfcss	f3, [r5], #-292	; 0xfffffedc
    7760:	49504720 	ldmdbmi	r0, {r5, r8, r9, sl, lr}^
    7764:	202c434f 	eorcs	r4, ip, pc, asr #6
    7768:	4f495047 	svcmi	0x00495047
    776c:	4e49505f 	mcrmi	0, 2, r5, cr9, cr15, {2}
    7770:	2c35315f 	ldfcss	f3, [r5], #-380	; 0xfffffe84
    7774:	54584520 	ldrbpl	r4, [r8], #-1312	; 0xfffffae0
    7778:	5f353149 	svcpl	0x00353149
    777c:	7d515249 	lfmvc	f5, 2, [r1, #-292]	; 0xfffffedc
    7780:	455f5f00 	ldrbmi	r5, [pc, #-3840]	; 6888 <_Min_Stack_Size+0x6488>
    7784:	445f444e 	ldrbmi	r4, [pc], #-1102	; 778c <_Min_Stack_Size+0x738c>
    7788:	534c4345 	movtpl	r4, #49989	; 0xc345
    778c:	5f5f0020 	svcpl	0x005f0020
    7790:	4c42444c 	cfstrdmi	mvd4, [r2], {76}	; 0x4c
    7794:	4e494d5f 	mcrmi	13, 2, r4, cr9, cr15, {2}
    7798:	32205f5f 	eorcc	r5, r0, #380	; 0x17c
    779c:	3532322e 	ldrcc	r3, [r2, #-558]!	; 0xfffffdd2
    77a0:	38333730 	ldmdacc	r3!, {r4, r5, r8, r9, sl, ip, sp}
    77a4:	30353835 	eorscc	r3, r5, r5, lsr r8
    77a8:	31303237 	teqcc	r0, r7, lsr r2
    77ac:	332d6534 			; <UNDEFINED> instruction: 0x332d6534
    77b0:	004c3830 	subeq	r3, ip, r0, lsr r8
    77b4:	4349564e 	movtmi	r5, #38478	; 0x964e
    77b8:	4950535f 	ldmdbmi	r0, {r0, r1, r2, r3, r4, r6, r8, r9, ip, lr}^
    77bc:	52495f33 	subpl	r5, r9, #51, 30	; 0xcc
    77c0:	6e455f51 	mcrvs	15, 2, r5, cr5, cr1, {2}
    77c4:	656c6261 	strbvs	r6, [ip, #-609]!	; 0xfffffd9f
    77c8:	564e2820 	strbpl	r2, [lr], -r0, lsr #16
    77cc:	495f4349 	ldmdbmi	pc, {r0, r3, r6, r8, r9, lr}^	; <UNPREDICTABLE>
    77d0:	31524553 	cmpcc	r2, r3, asr r5
    77d4:	203d7c20 	eorscs	r7, sp, r0, lsr #24
    77d8:	283c3c31 	ldmdacs	ip!, {r0, r4, r5, sl, fp, ip, sp}
    77dc:	33495053 	movtcc	r5, #36947	; 0x9053
    77e0:	5152495f 	cmppl	r2, pc, asr r9
    77e4:	33202d20 			; <UNDEFINED> instruction: 0x33202d20
    77e8:	00292932 	eoreq	r2, r9, r2, lsr r9
    77ec:	52415f5f 	subpl	r5, r1, #380	; 0x17c
    77f0:	45465f4d 	strbmi	r5, [r6, #-3917]	; 0xfffff0b3
    77f4:	52555441 	subspl	r5, r5, #1090519040	; 0x41000000
    77f8:	44435f45 	strbmi	r5, [r3], #-3909	; 0xfffff0bb
    77fc:	5f5f0045 	svcpl	0x005f0045
    7800:	55434341 	strbpl	r4, [r3, #-833]	; 0xfffffcbf
    7804:	42495f4d 	submi	r5, r9, #308	; 0x134
    7808:	5f5f5449 	svcpl	0x005f5449
    780c:	00363120 	eorseq	r3, r6, r0, lsr #2
    7810:	49545845 	ldmdbmi	r4, {r0, r2, r6, fp, ip, lr}^
    7814:	42503331 	subsmi	r3, r0, #-1006632960	; 0xc4000000
    7818:	28203331 	stmdacs	r0!, {r0, r4, r5, r8, r9, ip, sp}
    781c:	49545845 	ldmdbmi	r4, {r0, r2, r6, fp, ip, lr}^
    7820:	4950475f 	ldmdbmi	r0, {r0, r1, r2, r3, r4, r6, r8, r9, sl, lr}^
    7824:	614d5f4f 	cmpvs	sp, pc, asr #30
    7828:	6e697070 	mcrvs	0, 3, r7, cr9, cr0, {3}
    782c:	29745f67 	ldmdbcs	r4!, {r0, r1, r2, r5, r6, r8, r9, sl, fp, ip, lr}^
    7830:	5458457b 	ldrbpl	r4, [r8], #-1403	; 0xfffffa85
    7834:	2c333149 	ldfcss	f3, [r3], #-292	; 0xfffffedc
    7838:	49504720 	ldmdbmi	r0, {r5, r8, r9, sl, lr}^
    783c:	202c424f 	eorcs	r4, ip, pc, asr #4
    7840:	4f495047 	svcmi	0x00495047
    7844:	4e49505f 	mcrmi	0, 2, r5, cr9, cr15, {2}
    7848:	2c33315f 	ldfcss	f3, [r3], #-380	; 0xfffffe84
    784c:	54584520 	ldrbpl	r4, [r8], #-1312	; 0xfffffae0
    7850:	5f333149 	svcpl	0x00333149
    7854:	7d515249 	lfmvc	f5, 2, [r1, #-292]	; 0xfffffedc
    7858:	736e7500 	cmnvc	lr, #0, 10
    785c:	656e6769 	strbvs	r6, [lr, #-1897]!	; 0xfffff897
    7860:	4e490064 	cdpmi	0, 4, cr0, cr9, cr4, {3}
    7864:	54535f43 	ldrbpl	r5, [r3], #-3907	; 0xfffff0bd
    7868:	5f32334d 	svcpl	0x0032334d
    786c:	33303146 	teqcc	r0, #-2147483631	; 0x80000011
    7870:	445f3643 	ldrbmi	r3, [pc], #-1603	; 7878 <_Min_Stack_Size+0x7478>
    7874:	45564952 	ldrbmi	r4, [r6, #-2386]	; 0xfffff6ae
    7878:	455f5352 	ldrbmi	r5, [pc, #-850]	; 752e <_Min_Stack_Size+0x712e>
    787c:	5f495458 	svcpl	0x00495458
    7880:	00205f48 	eoreq	r5, r0, r8, asr #30
    7884:	74705f5f 	ldrbtvc	r5, [r0], #-3935	; 0xfffff0a1
    7888:	6175675f 	cmnvs	r5, pc, asr r7
    788c:	64656472 	strbtvs	r6, [r5], #-1138	; 0xfffffb8e
    7890:	2879625f 	ldmdacs	r9!, {r0, r1, r2, r3, r4, r6, r9, sp, lr}^
    7894:	5f202978 	svcpl	0x00202978
    7898:	636f6c5f 	cmnvs	pc, #24320	; 0x5f00
    789c:	6e615f6b 	cdpvs	15, 6, cr5, cr1, cr11, {3}
    78a0:	61746f6e 	cmnvs	r4, lr, ror #30
    78a4:	70286574 	eorvc	r6, r8, r4, ror r5
    78a8:	75675f74 	strbvc	r5, [r7, #-3956]!	; 0xfffff08c
    78ac:	65647261 	strbvs	r7, [r4, #-609]!	; 0xfffffd9f
    78b0:	79625f64 	stmdbvc	r2!, {r2, r5, r6, r8, r9, sl, fp, ip, lr}^
    78b4:	29297828 	stmdbcs	r9!, {r3, r5, fp, ip, sp, lr}
    78b8:	675f5f00 	ldrbvs	r5, [pc, -r0, lsl #30]
    78bc:	64726175 	ldrbtvs	r6, [r2], #-373	; 0xfffffe8b
    78c0:	625f6465 	subsvs	r6, pc, #1694498816	; 0x65000000
    78c4:	29782879 	ldmdbcs	r8!, {r0, r3, r4, r5, r6, fp, sp}^
    78c8:	6c5f5f20 	mrrcvs	15, 2, r5, pc, cr0	; <UNPREDICTABLE>
    78cc:	5f6b636f 	svcpl	0x006b636f
    78d0:	6f6e6e61 	svcvs	0x006e6e61
    78d4:	65746174 	ldrbvs	r6, [r4, #-372]!	; 0xfffffe8c
    78d8:	61756728 	cmnvs	r5, r8, lsr #14
    78dc:	64656472 	strbtvs	r6, [r5], #-1138	; 0xfffffb8e
    78e0:	2879625f 	ldmdacs	r9!, {r0, r1, r2, r3, r4, r6, r9, sp, lr}^
    78e4:	00292978 	eoreq	r2, r9, r8, ror r9
    78e8:	49545845 	ldmdbmi	r4, {r0, r2, r6, fp, ip, lr}^
    78ec:	495f3231 	ldmdbmi	pc, {r0, r4, r5, r9, ip, sp}^	; <UNPREDICTABLE>
    78f0:	34205152 	strtcc	r5, [r0], #-338	; 0xfffffeae
    78f4:	5f5f0030 	svcpl	0x005f0030
    78f8:	43554e47 	cmpmi	r5, #1136	; 0x470
    78fc:	454b494c 	strbmi	r4, [fp, #-2380]	; 0xfffff6b4
    7900:	4f5f5f5f 	svcmi	0x005f5f5f
    7904:	45534646 	ldrbmi	r4, [r3, #-1606]	; 0xfffff9ba
    7908:	20464f54 	subcs	r4, r6, r4, asr pc
    790c:	5f5f0031 	svcpl	0x005f0031
    7910:	544e4955 	strbpl	r4, [lr], #-2389	; 0xfffff6ab
    7914:	435f3631 	cmpmi	pc, #51380224	; 0x3100000
    7918:	20296328 	eorcs	r6, r9, r8, lsr #6
    791c:	5f5f0063 	svcpl	0x005f0063
    7920:	36544c46 	ldrbcc	r4, [r4], -r6, asr #24
    7924:	494d5f34 	stmdbmi	sp, {r2, r4, r5, r8, r9, sl, fp, ip, lr}^
    7928:	58455f4e 	stmdapl	r5, {r1, r2, r3, r6, r8, r9, sl, fp, ip, lr}^
    792c:	205f5f50 	subscs	r5, pc, r0, asr pc	; <UNPREDICTABLE>
    7930:	30312d28 	eorscc	r2, r1, r8, lsr #26
    7934:	00293132 	eoreq	r3, r9, r2, lsr r1
    7938:	79735f5f 	ldmdbvc	r3!, {r0, r1, r2, r3, r4, r6, r8, r9, sl, fp, ip, lr}^
    793c:	6f635f6d 	svcvs	0x00635f6d
    7940:	7461706d 	strbtvc	r7, [r1], #-109	; 0xffffff93
    7944:	6d797328 	ldclvs	3, cr7, [r9, #-160]!	; 0xffffff60
    7948:	706d692c 	rsbvc	r6, sp, ip, lsr #18
    794c:	65762c6c 	ldrbvs	r2, [r6, #-3180]!	; 0xfffff394
    7950:	29646972 	stmdbcs	r4!, {r1, r4, r5, r6, r8, fp, sp, lr}^
    7954:	615f5f20 	cmpvs	pc, r0, lsr #30
    7958:	5f5f6d73 	svcpl	0x005f6d73
    795c:	732e2228 			; <UNDEFINED> instruction: 0x732e2228
    7960:	65766d79 	ldrbvs	r6, [r6, #-3449]!	; 0xfffff287
    7964:	20222072 	eorcs	r2, r2, r2, ror r0
    7968:	706d6923 	rsbvc	r6, sp, r3, lsr #18
    796c:	2c22206c 	stccs	0, cr2, [r2], #-432	; 0xfffffe50
    7970:	23202220 			; <UNDEFINED> instruction: 0x23202220
    7974:	206d7973 	rsbcs	r7, sp, r3, ror r9
    7978:	20224022 	eorcs	r4, r2, r2, lsr #32
    797c:	72657623 	rsbvc	r7, r5, #36700160	; 0x2300000
    7980:	00296469 	eoreq	r6, r9, r9, ror #8
    7984:	43435f5f 	movtmi	r5, #16223	; 0x3f5f
    7988:	5055535f 	subspl	r5, r5, pc, asr r3
    798c:	54524f50 	ldrbpl	r4, [r2], #-3920	; 0xfffff0b0
    7990:	5f5f5f53 	svcpl	0x005f5f53
    7994:	494c4e49 	stmdbmi	ip, {r0, r3, r6, r9, sl, fp, lr}^
    7998:	5f5f454e 	svcpl	0x005f454e
    799c:	5f003120 	svcpl	0x00003120
    79a0:	4144555f 	cmpmi	r4, pc, asr r5
    79a4:	4942495f 	stmdbmi	r2, {r0, r1, r2, r3, r4, r6, r8, fp, lr}^
    79a8:	205f5f54 	subscs	r5, pc, r4, asr pc	; <UNPREDICTABLE>
    79ac:	5f003233 	svcpl	0x00003233
    79b0:	41454c5f 	cmpmi	r5, pc, asr ip
    79b4:	36315453 			; <UNDEFINED> instruction: 0x36315453
    79b8:	22682220 	rsbcs	r2, r8, #32, 4
    79bc:	705f5f00 	subsvc	r5, pc, r0, lsl #30
    79c0:	746e6972 	strbtvc	r6, [lr], #-2418	; 0xfffff68e
    79c4:	6b696c66 	blvs	1a62b64 <_Min_Stack_Size+0x1a62764>
    79c8:	6d662865 	stclvs	8, cr2, [r6, #-404]!	; 0xfffffe6c
    79cc:	67726174 			; <UNDEFINED> instruction: 0x67726174
    79d0:	7269662c 	rsbvc	r6, r9, #44, 12	; 0x2c00000
    79d4:	61767473 	cmnvs	r6, r3, ror r4
    79d8:	67726172 			; <UNDEFINED> instruction: 0x67726172
    79dc:	5f5f2029 	svcpl	0x005f2029
    79e0:	72747461 	rsbsvc	r7, r4, #1627389952	; 0x61000000
    79e4:	74756269 	ldrbtvc	r6, [r5], #-617	; 0xfffffd97
    79e8:	285f5f65 	ldmdacs	pc, {r0, r2, r5, r6, r8, r9, sl, fp, ip, lr}^	; <UNPREDICTABLE>
    79ec:	665f5f28 	ldrbvs	r5, [pc], -r8, lsr #30
    79f0:	616d726f 	cmnvs	sp, pc, ror #4
    79f4:	205f5f74 	subscs	r5, pc, r4, ror pc	; <UNPREDICTABLE>
    79f8:	705f5f28 	subsvc	r5, pc, r8, lsr #30
    79fc:	746e6972 	strbtvc	r6, [lr], #-2418	; 0xfffff68e
    7a00:	2c5f5f66 	mrrccs	15, 6, r5, pc, cr6	; <UNPREDICTABLE>
    7a04:	746d6620 	strbtvc	r6, [sp], #-1568	; 0xfffff9e0
    7a08:	2c677261 	sfmcs	f7, 2, [r7], #-388	; 0xfffffe7c
    7a0c:	72696620 	rsbvc	r6, r9, #32, 12	; 0x2000000
    7a10:	61767473 	cmnvs	r6, r3, ror r4
    7a14:	67726172 			; <UNDEFINED> instruction: 0x67726172
    7a18:	00292929 	eoreq	r2, r9, r9, lsr #18
    7a1c:	4f4e5f5f 	svcmi	0x004e5f5f
    7a20:	4c4e495f 	mcrrmi	9, 5, r4, lr, cr15	; <UNPREDICTABLE>
    7a24:	5f454e49 	svcpl	0x00454e49
    7a28:	0031205f 	eorseq	r2, r1, pc, asr r0
    7a2c:	4349564e 	movtmi	r5, #38478	; 0x964e
    7a30:	4950535f 	ldmdbmi	r0, {r0, r1, r2, r3, r4, r6, r8, r9, ip, lr}^
    7a34:	52495f32 	subpl	r5, r9, #50, 30	; 0xc8
    7a38:	6e455f51 	mcrvs	15, 2, r5, cr5, cr1, {2}
    7a3c:	656c6261 	strbvs	r6, [ip, #-609]!	; 0xfffffd9f
    7a40:	564e2820 	strbpl	r2, [lr], -r0, lsr #16
    7a44:	495f4349 	ldmdbmi	pc, {r0, r3, r6, r8, r9, lr}^	; <UNPREDICTABLE>
    7a48:	31524553 	cmpcc	r2, r3, asr r5
    7a4c:	203d7c20 	eorscs	r7, sp, r0, lsr #24
    7a50:	283c3c31 	ldmdacs	ip!, {r0, r4, r5, sl, fp, ip, sp}
    7a54:	32495053 	subcc	r5, r9, #83	; 0x53
    7a58:	5152495f 	cmppl	r2, pc, asr r9
    7a5c:	33202d20 			; <UNDEFINED> instruction: 0x33202d20
    7a60:	00292932 	eoreq	r2, r9, r2, lsr r9
    7a64:	61665f5f 	cmnvs	r6, pc, asr pc
    7a68:	61637473 	smcvs	14147	; 0x3743
    7a6c:	5f206c6c 	svcpl	0x00206c6c
    7a70:	7474615f 	ldrbtvc	r6, [r4], #-351	; 0xfffffea1
    7a74:	75626972 	strbvc	r6, [r2, #-2418]!	; 0xfffff68e
    7a78:	5f5f6574 	svcpl	0x005f6574
    7a7c:	5f5f2828 	svcpl	0x005f2828
    7a80:	74736166 	ldrbtvc	r6, [r3], #-358	; 0xfffffe9a
    7a84:	6c6c6163 	stfvse	f6, [ip], #-396	; 0xfffffe74
    7a88:	29295f5f 	stmdbcs	r9!, {r0, r1, r2, r3, r4, r6, r8, r9, sl, fp, ip, lr}
    7a8c:	544e4900 	strbpl	r4, [lr], #-2304	; 0xfffff700
    7a90:	4d5f3436 	cfldrdmi	mvd3, [pc, #-216]	; 79c0 <_Min_Stack_Size+0x75c0>
    7a94:	28204e49 	stmdacs	r0!, {r0, r3, r6, r9, sl, fp, lr}
    7a98:	495f5f2d 	ldmdbmi	pc, {r0, r2, r3, r5, r8, r9, sl, fp, ip, lr}^	; <UNPREDICTABLE>
    7a9c:	3436544e 	ldrtcc	r5, [r6], #-1102	; 0xfffffbb2
    7aa0:	58414d5f 	stmdapl	r1, {r0, r1, r2, r3, r4, r6, r8, sl, fp, lr}^
    7aa4:	2d205f5f 	stccs	15, cr5, [r0, #-380]!	; 0xfffffe84
    7aa8:	00293120 	eoreq	r3, r9, r0, lsr #2
    7aac:	6f6c5f5f 	svcvs	0x006c5f5f
    7ab0:	615f6b63 	cmpvs	pc, r3, ror #22
    7ab4:	746f6e6e 	strbtvc	r6, [pc], #-3694	; 7abc <_Min_Stack_Size+0x76bc>
    7ab8:	28657461 	stmdacs	r5!, {r0, r5, r6, sl, ip, sp, lr}^
    7abc:	00202978 	eoreq	r2, r0, r8, ror r9
    7ac0:	54494c5f 	strbpl	r4, [r9], #-3167	; 0xfffff3a1
    7ac4:	58455f45 	stmdapl	r5, {r0, r2, r6, r8, r9, sl, fp, ip, lr}^
    7ac8:	31205449 			; <UNDEFINED> instruction: 0x31205449
    7acc:	415f5f00 	cmpmi	pc, r0, lsl #30
    7ad0:	494d4f54 	stmdbmi	sp, {r2, r4, r6, r8, r9, sl, fp, lr}^
    7ad4:	45525f43 	ldrbmi	r5, [r2, #-3907]	; 0xfffff0bd
    7ad8:	4558414c 	ldrbmi	r4, [r8, #-332]	; 0xfffffeb4
    7adc:	00302044 	eorseq	r2, r0, r4, asr #32
    7ae0:	5454415f 	ldrbpl	r4, [r4], #-351	; 0xfffffea1
    7ae4:	55424952 	strbpl	r4, [r2, #-2386]	; 0xfffff6ae
    7ae8:	61284554 			; <UNDEFINED> instruction: 0x61284554
    7aec:	73727474 	cmnvc	r2, #116, 8	; 0x74000000
    7af0:	5f5f2029 	svcpl	0x005f2029
    7af4:	72747461 	rsbsvc	r7, r4, #1627389952	; 0x61000000
    7af8:	74756269 	ldrbtvc	r6, [r5], #-617	; 0xfffffd97
    7afc:	205f5f65 	subscs	r5, pc, r5, ror #30
    7b00:	74746128 	ldrbtvc	r6, [r4], #-296	; 0xfffffed8
    7b04:	00297372 	eoreq	r7, r9, r2, ror r3
    7b08:	52415f5f 	subpl	r5, r1, #380	; 0x17c
    7b0c:	45465f4d 	strbmi	r5, [r6, #-3917]	; 0xfffff0b3
    7b10:	52555441 	subspl	r5, r5, #1090519040	; 0x41000000
    7b14:	4f435f45 	svcmi	0x00435f45
    7b18:	434f5250 	movtmi	r5, #62032	; 0xf250
    7b1c:	465f5f00 	ldrbmi	r5, [pc], -r0, lsl #30
    7b20:	38545341 	ldmdacc	r4, {r0, r6, r8, r9, ip, lr}^
    7b24:	5f5f0020 	svcpl	0x005f0020
    7b28:	52545441 	subspl	r5, r4, #1090519040	; 0x41000000
    7b2c:	54554249 	ldrbpl	r4, [r5], #-585	; 0xfffffdb7
    7b30:	4d495f45 	stclmi	15, cr5, [r9, #-276]	; 0xfffffeec
    7b34:	45525550 	ldrbmi	r5, [r2, #-1360]	; 0xfffffab0
    7b38:	5254505f 	subspl	r5, r4, #95	; 0x5f
    7b3c:	00205f5f 	eoreq	r5, r0, pc, asr pc
    7b40:	42445f5f 	submi	r5, r4, #380	; 0x17c
    7b44:	41485f4c 	cmpmi	r8, ip, asr #30
    7b48:	4e495f53 	mcrmi	15, 2, r5, cr9, cr3, {2}
    7b4c:	494e4946 	stmdbmi	lr, {r1, r2, r6, r8, fp, lr}^
    7b50:	5f5f5954 	svcpl	0x005f5954
    7b54:	5f003120 	svcpl	0x00003120
    7b58:	4749535f 	smlsldmi	r5, r9, pc, r3	; <UNPREDICTABLE>
    7b5c:	4f54415f 	svcmi	0x0054415f
    7b60:	5f43494d 	svcpl	0x0043494d
    7b64:	5f58414d 	svcpl	0x0058414d
    7b68:	7830205f 	ldmdavc	r0!, {r0, r1, r2, r3, r4, r6, sp}
    7b6c:	66666637 			; <UNDEFINED> instruction: 0x66666637
    7b70:	66666666 	strbtvs	r6, [r6], -r6, ror #12
    7b74:	41525f00 	cmpmi	r2, r0, lsl #30
    7b78:	3834444e 	ldmdacc	r4!, {r1, r2, r3, r6, sl, lr}
    7b7c:	4c554d5f 	mrrcmi	13, 5, r4, r5, cr15
    7b80:	20305f54 	eorscs	r5, r0, r4, asr pc
    7b84:	65783028 	ldrbvs	r3, [r8, #-40]!	; 0xffffffd8
    7b88:	29643636 	stmdbcs	r4!, {r1, r2, r4, r5, r9, sl, ip, sp}^
    7b8c:	49504700 	ldmdbmi	r0, {r8, r9, sl, lr}^
    7b90:	4f4d5f4f 	svcmi	0x004d5f4f
    7b94:	495f4544 	ldmdbmi	pc, {r2, r6, r8, sl, lr}^	; <UNPREDICTABLE>
    7b98:	5455504e 	ldrbpl	r5, [r5], #-78	; 0xffffffb2
    7b9c:	2046415f 	subcs	r4, r6, pc, asr r1
    7ba0:	30307830 	eorscc	r7, r0, r0, lsr r8
    7ba4:	30303030 	eorscc	r3, r0, r0, lsr r0
    7ba8:	5f003830 	svcpl	0x00003830
    7bac:	4e454552 	mcrmi	5, 2, r4, cr5, cr2, {2}
    7bb0:	48435f54 	stmdami	r3, {r2, r4, r6, r8, r9, sl, fp, ip, lr}^
    7bb4:	5f4b4345 	svcpl	0x004b4345
    7bb8:	444e4152 	strbmi	r4, [lr], #-338	; 0xfffffeae
    7bbc:	76283834 			; <UNDEFINED> instruction: 0x76283834
    7bc0:	20297261 	eorcs	r7, r9, r1, ror #4
    7bc4:	4545525f 	strbmi	r5, [r5, #-607]	; 0xfffffda1
    7bc8:	435f544e 	cmpmi	pc, #1308622848	; 0x4e000000
    7bcc:	4b434548 	blmi	10d90f4 <_Min_Stack_Size+0x10d8cf4>
    7bd0:	72617628 	rsbvc	r7, r1, #40, 12	; 0x2800000
    7bd4:	725f202c 	subsvc	r2, pc, #44	; 0x2c
    7bd8:	202c3834 	eorcs	r3, ip, r4, lsr r8
    7bdc:	75727473 	ldrbvc	r7, [r2, #-1139]!	; 0xfffffb8d
    7be0:	5f207463 	svcpl	0x00207463
    7be4:	646e6172 	strbtvs	r6, [lr], #-370	; 0xfffffe8e
    7be8:	2a203834 	bcs	815cc0 <_Min_Stack_Size+0x8158c0>
    7bec:	6973202c 	ldmdbvs	r3!, {r2, r3, r5, sp}^
    7bf0:	666f657a 			; <UNDEFINED> instruction: 0x666f657a
    7bf4:	28282a20 	stmdacs	r8!, {r5, r9, fp, sp}
    7bf8:	29726176 	ldmdbcs	r2!, {r1, r2, r4, r5, r6, r8, sp, lr}^
    7bfc:	725f3e2d 	subsvc	r3, pc, #720	; 0x2d0
    7c00:	2c293834 	stccs	8, cr3, [r9], #-208	; 0xffffff30
    7c04:	45525f20 	ldrbmi	r5, [r2, #-3872]	; 0xfffff0e0
    7c08:	5f544e45 	svcpl	0x00544e45
    7c0c:	54494e49 	strbpl	r4, [r9], #-3657	; 0xfffff1b7
    7c10:	4e41525f 	mcrmi	2, 2, r5, cr1, cr15, {2}
    7c14:	28383444 	ldmdacs	r8!, {r2, r6, sl, ip, sp}
    7c18:	72617628 	rsbvc	r7, r1, #40, 12	; 0x2800000
    7c1c:	00292929 	eoreq	r2, r9, r9, lsr #18
    7c20:	5445525f 	strbpl	r5, [r5], #-607	; 0xfffffda1
    7c24:	45475241 	strbmi	r5, [r7, #-577]	; 0xfffffdbf
    7c28:	4c424154 	stfmie	f4, [r2], {84}	; 0x54
    7c2c:	4f4c5f45 	svcmi	0x004c5f45
    7c30:	4e494b43 	vmlsmi.f64	d20, d9, d3
    7c34:	00312047 	eorseq	r2, r1, r7, asr #32
    7c38:	49545845 	ldmdbmi	r4, {r0, r2, r6, fp, ip, lr}^
    7c3c:	39435039 	stmdbcc	r3, {r0, r3, r4, r5, ip, lr}^
    7c40:	58452820 	stmdapl	r5, {r5, fp, sp}^
    7c44:	475f4954 			; <UNDEFINED> instruction: 0x475f4954
    7c48:	5f4f4950 	svcpl	0x004f4950
    7c4c:	7070614d 	rsbsvc	r6, r0, sp, asr #2
    7c50:	5f676e69 	svcpl	0x00676e69
    7c54:	457b2974 	ldrbmi	r2, [fp, #-2420]!	; 0xfffff68c
    7c58:	39495458 	stmdbcc	r9, {r3, r4, r6, sl, ip, lr}^
    7c5c:	5047202c 	subpl	r2, r7, ip, lsr #32
    7c60:	2c434f49 	mcrrcs	15, 4, r4, r3, cr9
    7c64:	49504720 	ldmdbmi	r0, {r5, r8, r9, sl, lr}^
    7c68:	49505f4f 	ldmdbmi	r0, {r0, r1, r2, r3, r6, r8, r9, sl, fp, ip, lr}^
    7c6c:	2c395f4e 	ldccs	15, cr5, [r9], #-312	; 0xfffffec8
    7c70:	54584520 	ldrbpl	r4, [r8], #-1312	; 0xfffffae0
    7c74:	495f3949 	ldmdbmi	pc, {r0, r3, r6, r8, fp, ip, sp}^	; <UNPREDICTABLE>
    7c78:	007d5152 	rsbseq	r5, sp, r2, asr r1
    7c7c:	49545845 	ldmdbmi	r4, {r0, r2, r6, fp, ip, lr}^
    7c80:	52495f37 	subpl	r5, r9, #55, 30	; 0xdc
    7c84:	33322051 	teqcc	r2, #81	; 0x51
    7c88:	725f5f00 	subsvc	r5, pc, #0, 30
    7c8c:	65676e61 	strbvs	r6, [r7, #-3681]!	; 0xfffff19f
    7c90:	7428666f 	strtvc	r6, [r8], #-1647	; 0xfffff991
    7c94:	2c657079 	stclcs	0, cr7, [r5], #-484	; 0xfffffe1c
    7c98:	72617473 	rsbvc	r7, r1, #1929379840	; 0x73000000
    7c9c:	6e652c74 	mcrvs	12, 3, r2, cr5, cr4, {3}
    7ca0:	28202964 	stmdacs	r0!, {r2, r5, r6, r8, fp, sp}
    7ca4:	666f5f5f 	uqsaxvs	r5, pc, pc	; <UNPREDICTABLE>
    7ca8:	74657366 	strbtvc	r7, [r5], #-870	; 0xfffffc9a
    7cac:	7428666f 	strtvc	r6, [r8], #-1647	; 0xfffff991
    7cb0:	2c657079 	stclcs	0, cr7, [r5], #-484	; 0xfffffe1c
    7cb4:	646e6520 	strbtvs	r6, [lr], #-1312	; 0xfffffae0
    7cb8:	202d2029 	eorcs	r2, sp, r9, lsr #32
    7cbc:	666f5f5f 	uqsaxvs	r5, pc, pc	; <UNPREDICTABLE>
    7cc0:	74657366 	strbtvc	r7, [r5], #-870	; 0xfffffc9a
    7cc4:	7428666f 	strtvc	r6, [r8], #-1647	; 0xfffff991
    7cc8:	2c657079 	stclcs	0, cr7, [r5], #-484	; 0xfffffe1c
    7ccc:	61747320 	cmnvs	r4, r0, lsr #6
    7cd0:	29297472 	stmdbcs	r9!, {r1, r4, r5, r6, sl, ip, sp, lr}
    7cd4:	554e5f00 	strbpl	r5, [lr, #-3840]	; 0xfffff100
    7cd8:	30204c4c 	eorcc	r4, r0, ip, asr #24
    7cdc:	49564e00 	ldmdbmi	r6, {r9, sl, fp, lr}^
    7ce0:	50535f43 	subspl	r5, r3, r3, asr #30
    7ce4:	495f3149 	ldmdbmi	pc, {r0, r3, r6, r8, ip, sp}^	; <UNPREDICTABLE>
    7ce8:	455f5152 	ldrbmi	r5, [pc, #-338]	; 7b9e <_Min_Stack_Size+0x779e>
    7cec:	6c62616e 	stfvse	f6, [r2], #-440	; 0xfffffe48
    7cf0:	4e282065 	cdpmi	0, 2, cr2, cr8, cr5, {3}
    7cf4:	5f434956 	svcpl	0x00434956
    7cf8:	52455349 	subpl	r5, r5, #603979777	; 0x24000001
    7cfc:	3d7c2031 	ldclcc	0, cr2, [ip, #-196]!	; 0xffffff3c
    7d00:	3c3c3120 	ldfccs	f3, [ip], #-128	; 0xffffff80
    7d04:	49505328 	ldmdbmi	r0, {r3, r5, r8, r9, ip, lr}^
    7d08:	52495f31 	subpl	r5, r9, #49, 30	; 0xc4
    7d0c:	202d2051 	eorcs	r2, sp, r1, asr r0
    7d10:	29293233 	stmdbcs	r9!, {r0, r1, r4, r5, r9, ip, sp}
    7d14:	555f5f00 	ldrbpl	r5, [pc, #-3840]	; 6e1c <_Min_Stack_Size+0x6a1c>
    7d18:	5f534553 	svcpl	0x00534553
    7d1c:	54494e49 	strbpl	r4, [r9], #-3657	; 0xfffff1b7
    7d20:	494e4946 	stmdbmi	lr, {r1, r2, r6, r8, fp, lr}^
    7d24:	31205f5f 			; <UNDEFINED> instruction: 0x31205f5f
    7d28:	4e495500 	cdpmi	5, 4, cr5, cr9, cr0, {0}
    7d2c:	435f3854 	cmpmi	pc, #84, 16	; 0x540000
    7d30:	20297828 	eorcs	r7, r9, r8, lsr #16
    7d34:	49555f5f 	ldmdbmi	r5, {r0, r1, r2, r3, r4, r6, r8, r9, sl, fp, ip, lr}^
    7d38:	5f38544e 	svcpl	0x0038544e
    7d3c:	29782843 	ldmdbcs	r8!, {r0, r1, r6, fp, sp}^
    7d40:	6e5f5f00 	cdpvs	15, 5, cr5, cr15, cr0, {0}
    7d44:	5f646565 	svcpl	0x00646565
    7d48:	64727470 	ldrbtvs	r7, [r2], #-1136	; 0xfffffb90
    7d4c:	5f666669 	svcpl	0x00666669
    7d50:	5f5f0074 	svcpl	0x005f0074
    7d54:	5f4c4244 	svcpl	0x004c4244
    7d58:	49434544 	stmdbmi	r3, {r2, r6, r8, sl, lr}^
    7d5c:	5f4c414d 	svcpl	0x004c414d
    7d60:	5f474944 	svcpl	0x00474944
    7d64:	3731205f 			; <UNDEFINED> instruction: 0x3731205f
    7d68:	415f5f00 	cmpmi	pc, r0, lsl #30
    7d6c:	465f4d52 			; <UNDEFINED> instruction: 0x465f4d52
    7d70:	55544145 	ldrbpl	r4, [r4, #-325]	; 0xfffffebb
    7d74:	535f4552 	cmppl	pc, #343932928	; 0x14800000
    7d78:	31205441 			; <UNDEFINED> instruction: 0x31205441
    7d7c:	685f5f00 	ldmdavs	pc, {r8, r9, sl, fp, ip, lr}^	; <UNPREDICTABLE>
    7d80:	5f657661 	svcpl	0x00657661
    7d84:	676e6f6c 	strbvs	r6, [lr, -ip, ror #30]!
    7d88:	31203233 			; <UNDEFINED> instruction: 0x31203233
    7d8c:	544e4900 	strbpl	r4, [lr], #-2304	; 0xfffff700
    7d90:	41454c5f 	cmpmi	r5, pc, asr ip
    7d94:	5f385453 	svcpl	0x00385453
    7d98:	204e494d 	subcs	r4, lr, sp, asr #18
    7d9c:	5f5f2d28 	svcpl	0x005f2d28
    7da0:	5f544e49 	svcpl	0x00544e49
    7da4:	5341454c 	movtpl	r4, #5452	; 0x154c
    7da8:	4d5f3854 	ldclmi	8, cr3, [pc, #-336]	; 7c60 <_Min_Stack_Size+0x7860>
    7dac:	5f5f5841 	svcpl	0x005f5841
    7db0:	31202d20 			; <UNDEFINED> instruction: 0x31202d20
    7db4:	475f0029 	ldrbmi	r0, [pc, -r9, lsr #32]
    7db8:	41424f4c 	cmpmi	r2, ip, asr #30
    7dbc:	45525f4c 	ldrbmi	r5, [r2, #-3916]	; 0xfffff0b4
    7dc0:	20544e45 	subscs	r4, r4, r5, asr #28
    7dc4:	6f6c675f 	svcvs	0x006c675f
    7dc8:	5f6c6162 	svcpl	0x006c6162
    7dcc:	75706d69 	ldrbvc	r6, [r0, #-3433]!	; 0xfffff297
    7dd0:	705f6572 	subsvc	r6, pc, r2, ror r5	; <UNPREDICTABLE>
    7dd4:	5f007274 	svcpl	0x00007274
    7dd8:	414c555f 	cmpmi	ip, pc, asr r5
    7ddc:	4d554343 	ldclmi	3, cr4, [r5, #-268]	; 0xfffffef4
    7de0:	4942465f 	stmdbmi	r2, {r0, r1, r2, r3, r4, r6, r9, sl, lr}^
    7de4:	205f5f54 	subscs	r5, pc, r4, asr pc	; <UNPREDICTABLE>
    7de8:	5f003233 	svcpl	0x00003233
    7dec:	656c665f 	strbvs	r6, [ip, #-1631]!	; 0xfffff9a1
    7df0:	72726178 	rsbsvc	r6, r2, #120, 2
    7df4:	5d305b20 	vldmdbpl	r0!, {d5-d20}
    7df8:	49564e00 	ldmdbmi	r6, {r9, sl, fp, lr}^
    7dfc:	61425f43 	cmpvs	r2, r3, asr #30
    7e00:	30206573 	eorcc	r6, r0, r3, ror r5
    7e04:	30304578 	eorscc	r4, r0, r8, ror r5
    7e08:	30314530 	eorscc	r4, r1, r0, lsr r5
    7e0c:	41007530 	tstmi	r0, r0, lsr r5
    7e10:	4e454248 	cdpmi	2, 4, cr4, cr5, cr8, {2}
    7e14:	49550052 	ldmdbmi	r5, {r1, r4, r6}^
    7e18:	3436544e 	ldrtcc	r5, [r6], #-1102	; 0xfffffbb2
    7e1c:	7828435f 	stmdavc	r8!, {r0, r1, r2, r3, r4, r6, r8, r9, lr}
    7e20:	5f5f2029 	svcpl	0x005f2029
    7e24:	544e4955 	strbpl	r4, [lr], #-2389	; 0xfffff6ab
    7e28:	435f3436 	cmpmi	pc, #905969664	; 0x36000000
    7e2c:	00297828 	eoreq	r7, r9, r8, lsr #16
    7e30:	4545525f 	strbmi	r5, [r5, #-607]	; 0xfffffda1
    7e34:	495f544e 	ldmdbmi	pc, {r1, r2, r3, r6, sl, ip, lr}^	; <UNPREDICTABLE>
    7e38:	5f54494e 	svcpl	0x0054494e
    7e3c:	5f525450 	svcpl	0x00525450
    7e40:	4f52455a 	svcmi	0x0052455a
    7e44:	76284445 	strtvc	r4, [r8], -r5, asr #8
    7e48:	20297261 	eorcs	r7, r9, r1, ror #4
    7e4c:	7628207b 			; <UNDEFINED> instruction: 0x7628207b
    7e50:	2d297261 	sfmcs	f7, 4, [r9, #-388]!	; 0xfffffe7c
    7e54:	74735f3e 	ldrbtvc	r5, [r3], #-3902	; 0xfffff0c2
    7e58:	206e6964 	rsbcs	r6, lr, r4, ror #18
    7e5c:	5f28203d 	svcpl	0x0028203d
    7e60:	4c49465f 	mcrrmi	6, 5, r4, r9, cr15
    7e64:	292a2045 	stmdbcs	sl!, {r0, r2, r6, sp}
    7e68:	735f5f26 	cmpvc	pc, #38, 30	; 0x98
    7e6c:	61665f66 	cmnvs	r6, r6, ror #30
    7e70:	735f656b 	cmpvc	pc, #448790528	; 0x1ac00000
    7e74:	6e696474 	mcrvs	4, 3, r6, cr9, cr4, {3}
    7e78:	7628203b 			; <UNDEFINED> instruction: 0x7628203b
    7e7c:	2d297261 	sfmcs	f7, 4, [r9, #-388]!	; 0xfffffe7c
    7e80:	74735f3e 	ldrbtvc	r5, [r3], #-3902	; 0xfffff0c2
    7e84:	74756f64 	ldrbtvc	r6, [r5], #-3940	; 0xfffff09c
    7e88:	28203d20 	stmdacs	r0!, {r5, r8, sl, fp, ip, sp}
    7e8c:	49465f5f 	stmdbmi	r6, {r0, r1, r2, r3, r4, r6, r8, r9, sl, fp, ip, lr}^
    7e90:	2a20454c 	bcs	8193c8 <_Min_Stack_Size+0x818fc8>
    7e94:	5f5f2629 	svcpl	0x005f2629
    7e98:	665f6673 			; <UNDEFINED> instruction: 0x665f6673
    7e9c:	5f656b61 	svcpl	0x00656b61
    7ea0:	6f647473 	svcvs	0x00647473
    7ea4:	203b7475 	eorscs	r7, fp, r5, ror r4
    7ea8:	72617628 	rsbvc	r7, r1, #40, 12	; 0x2800000
    7eac:	5f3e2d29 	svcpl	0x003e2d29
    7eb0:	65647473 	strbvs	r7, [r4, #-1139]!	; 0xfffffb8d
    7eb4:	3d207272 	sfmcc	f7, 4, [r0, #-456]!	; 0xfffffe38
    7eb8:	5f5f2820 	svcpl	0x005f2820
    7ebc:	454c4946 	strbmi	r4, [ip, #-2374]	; 0xfffff6ba
    7ec0:	26292a20 	strtcs	r2, [r9], -r0, lsr #20
    7ec4:	66735f5f 	uhsaxvs	r5, r3, pc	; <UNPREDICTABLE>
    7ec8:	6b61665f 	blvs	186184c <_Min_Stack_Size+0x186144c>
    7ecc:	74735f65 	ldrbtvc	r5, [r3], #-3941	; 0xfffff09b
    7ed0:	72726564 	rsbsvc	r6, r2, #100, 10	; 0x19000000
    7ed4:	007d203b 	rsbseq	r2, sp, fp, lsr r0
    7ed8:	4e495f5f 	mcrmi	15, 2, r5, cr9, cr15, {2}
    7edc:	5f363154 	svcpl	0x00363154
    7ee0:	5f58414d 	svcpl	0x0058414d
    7ee4:	7830205f 	ldmdavc	r0!, {r0, r1, r2, r3, r4, r6, sp}
    7ee8:	66666637 			; <UNDEFINED> instruction: 0x66666637
    7eec:	535f5f00 	cmppl	pc, #0, 30
    7ef0:	435f5359 	cmpmi	pc, #1677721601	; 0x64000001
    7ef4:	49464e4f 	stmdbmi	r6, {r0, r1, r2, r3, r6, r9, sl, fp, lr}^
    7ef8:	5f485f47 	svcpl	0x00485f47
    7efc:	5f00205f 	svcpl	0x0000205f
    7f00:	4343475f 	movtmi	r4, #14175	; 0x375f
    7f04:	4f54415f 	svcmi	0x0054415f
    7f08:	5f43494d 	svcpl	0x0043494d
    7f0c:	52414843 	subpl	r4, r1, #4390912	; 0x430000
    7f10:	434f4c5f 	movtmi	r4, #64607	; 0xfc5f
    7f14:	52465f4b 	subpl	r5, r6, #300	; 0x12c
    7f18:	32204545 	eorcc	r4, r0, #289406976	; 0x11400000
    7f1c:	49564e00 	ldmdbmi	r6, {r9, sl, fp, lr}^
    7f20:	58455f43 	stmdapl	r5, {r0, r1, r6, r8, r9, sl, fp, ip, lr}^
    7f24:	5f394954 	svcpl	0x00394954
    7f28:	52495f35 	subpl	r5, r9, #53, 30	; 0xd4
    7f2c:	69445f51 	stmdbvs	r4, {r0, r4, r6, r8, r9, sl, fp, ip, lr}^
    7f30:	6c626173 	stfvse	f6, [r2], #-460	; 0xfffffe34
    7f34:	4e282065 	cdpmi	0, 2, cr2, cr8, cr5, {3}
    7f38:	5f434956 	svcpl	0x00434956
    7f3c:	52454349 	subpl	r4, r5, #603979777	; 0x24000001
    7f40:	3d7c2030 	ldclcc	0, cr2, [ip, #-192]!	; 0xffffff40
    7f44:	3c3c3120 	ldfccs	f3, [ip], #-128	; 0xffffff80
    7f48:	00293332 	eoreq	r3, r9, r2, lsr r3
    7f4c:	45445f5f 	strbmi	r5, [r4, #-3935]	; 0xfffff0a1
    7f50:	414c4f56 	cmpmi	ip, r6, asr pc
    7f54:	454c4954 	strbmi	r4, [ip, #-2388]	; 0xfffff6ac
    7f58:	70797428 	rsbsvc	r7, r9, r8, lsr #8
    7f5c:	61762c65 	cmnvs	r6, r5, ror #24
    7f60:	28202972 	stmdacs	r0!, {r1, r4, r5, r6, r8, fp, sp}
    7f64:	70797428 	rsbsvc	r7, r9, r8, lsr #8
    7f68:	5f282965 	svcpl	0x00282965
    7f6c:	6e69755f 	mcrvs	5, 3, r7, cr9, cr15, {2}
    7f70:	72747074 	rsbsvc	r7, r4, #116	; 0x74
    7f74:	2829745f 	stmdacs	r9!, {r0, r1, r2, r3, r4, r6, sl, ip, sp, lr}
    7f78:	616c6f76 	smcvs	50934	; 0xc6f6
    7f7c:	656c6974 	strbvs	r6, [ip, #-2420]!	; 0xfffff68c
    7f80:	696f7620 	stmdbvs	pc!, {r5, r9, sl, ip, sp, lr}^	; <UNPREDICTABLE>
    7f84:	292a2064 	stmdbcs	sl!, {r2, r5, r6, sp}
    7f88:	72617628 	rsbvc	r7, r1, #40, 12	; 0x2800000
    7f8c:	5f002929 	svcpl	0x00002929
    7f90:	5053535f 	subspl	r5, r3, pc, asr r3
    7f94:	524f465f 	subpl	r4, pc, #99614720	; 0x5f00000
    7f98:	59464954 	stmdbpl	r6, {r2, r4, r6, r8, fp, lr}^
    7f9c:	56454c5f 			; <UNDEFINED> instruction: 0x56454c5f
    7fa0:	30204c45 	eorcc	r4, r0, r5, asr #24
    7fa4:	475f5f00 	ldrbmi	r5, [pc, -r0, lsl #30]
    7fa8:	4c43554e 	cfstr64mi	mvdx5, [r3], {78}	; 0x4e
    7fac:	5f454b49 	svcpl	0x00454b49
    7fb0:	4c495542 	cfstr64mi	mvdx5, [r9], {66}	; 0x42
    7fb4:	5f4e4954 	svcpl	0x004e4954
    7fb8:	41445453 	cmpmi	r4, r3, asr r4
    7fbc:	31204752 			; <UNDEFINED> instruction: 0x31204752
    7fc0:	585f5f00 	ldmdapl	pc, {r8, r9, sl, fp, ip, lr}^	; <UNPREDICTABLE>
    7fc4:	565f4953 			; <UNDEFINED> instruction: 0x565f4953
    7fc8:	42495349 	submi	r5, r9, #603979777	; 0x24000001
    7fcc:	3020454c 	eorcc	r4, r0, ip, asr #10
    7fd0:	54535f00 	ldrbpl	r5, [r3], #-3840	; 0xfffff100
    7fd4:	42494c44 	submi	r4, r9, #68, 24	; 0x4400
    7fd8:	205f485f 	subscs	r4, pc, pc, asr r8	; <UNPREDICTABLE>
    7fdc:	54584500 	ldrbpl	r4, [r8], #-1280	; 0xfffffb00
    7fe0:	37203749 	strcc	r3, [r0, -r9, asr #14]!
    7fe4:	52534200 	subspl	r4, r3, #0, 4
    7fe8:	58450052 	stmdapl	r5, {r1, r4, r6}^
    7fec:	50344954 	eorspl	r4, r4, r4, asr r9
    7ff0:	28203443 	stmdacs	r0!, {r0, r1, r6, sl, ip, sp}
    7ff4:	49545845 	ldmdbmi	r4, {r0, r2, r6, fp, ip, lr}^
    7ff8:	4950475f 	ldmdbmi	r0, {r0, r1, r2, r3, r4, r6, r8, r9, sl, lr}^
    7ffc:	614d5f4f 	cmpvs	sp, pc, asr #30
    8000:	6e697070 	mcrvs	0, 3, r7, cr9, cr0, {3}
    8004:	29745f67 	ldmdbcs	r4!, {r0, r1, r2, r5, r6, r8, r9, sl, fp, ip, lr}^
    8008:	5458457b 	ldrbpl	r4, [r8], #-1403	; 0xfffffa85
    800c:	202c3449 	eorcs	r3, ip, r9, asr #8
    8010:	4f495047 	svcmi	0x00495047
    8014:	47202c43 	strmi	r2, [r0, -r3, asr #24]!
    8018:	5f4f4950 	svcpl	0x004f4950
    801c:	5f4e4950 	svcpl	0x004e4950
    8020:	45202c34 	strmi	r2, [r0, #-3124]!	; 0xfffff3cc
    8024:	34495458 	strbcc	r5, [r9], #-1112	; 0xfffffba8
    8028:	5152495f 	cmppl	r2, pc, asr r9
    802c:	5f5f007d 	svcpl	0x005f007d
    8030:	54534146 	ldrbpl	r4, [r3], #-326	; 0xfffffeba
    8034:	00203233 	eoreq	r3, r0, r3, lsr r2
    8038:	49535f5f 	ldmdbmi	r3, {r0, r1, r2, r3, r4, r6, r8, r9, sl, fp, ip, lr}^
    803c:	54415f47 	strbpl	r5, [r1], #-3911	; 0xfffff0b9
    8040:	43494d4f 	movtmi	r4, #40271	; 0x9d4f
    8044:	4449575f 	strbmi	r5, [r9], #-1887	; 0xfffff8a1
    8048:	5f5f4854 	svcpl	0x005f4854
    804c:	00323320 	eorseq	r3, r2, r0, lsr #6
    8050:	4f495047 	svcmi	0x00495047
    8054:	41425f41 	cmpmi	r2, r1, asr #30
    8058:	30204553 	eorcc	r4, r0, r3, asr r5
    805c:	30303478 	eorscc	r3, r0, r8, ror r4
    8060:	30383031 	eorscc	r3, r8, r1, lsr r0
    8064:	5f007530 	svcpl	0x00007530
    8068:	544c465f 	strbpl	r4, [ip], #-1631	; 0xfffff9a1
    806c:	455f3436 	ldrbmi	r3, [pc, #-1078]	; 7c3e <_Min_Stack_Size+0x783e>
    8070:	4c495350 	mcrrmi	3, 5, r5, r9, cr0
    8074:	5f5f4e4f 	svcpl	0x005f4e4f
    8078:	322e3220 	eorcc	r3, lr, #32, 4
    807c:	34343032 	ldrtcc	r3, [r4], #-50	; 0xffffffce
    8080:	39343036 	ldmdbcc	r4!, {r1, r2, r4, r5, ip, sp}
    8084:	33303532 	teqcc	r0, #209715200	; 0xc800000
    8088:	65313331 	ldrvs	r3, [r1, #-817]!	; 0xfffffccf
    808c:	4636312d 	ldrtmi	r3, [r6], -sp, lsr #2
    8090:	5f003436 	svcpl	0x00003436
    8094:	4e454552 	mcrmi	5, 2, r4, cr5, cr2, {2}
    8098:	4e495f54 	mcrmi	15, 2, r5, cr9, cr4, {2}
    809c:	415f5449 	cmpmi	pc, r9, asr #8
    80a0:	49584554 	ldmdbmi	r8, {r2, r4, r6, r8, sl, lr}^
    80a4:	5f002054 	svcpl	0x00002054
    80a8:	554e475f 	strbpl	r4, [lr, #-1887]	; 0xfffff8a1
    80ac:	52505f43 	subspl	r5, r0, #268	; 0x10c
    80b0:	51455245 	cmppl	r5, r5, asr #4
    80b4:	6d285f5f 	stcvs	15, cr5, [r8, #-380]!	; 0xfffffe84
    80b8:	696d2c61 	stmdbvs	sp!, {r0, r5, r6, sl, fp, sp}^
    80bc:	5f5f2029 	svcpl	0x005f2029
    80c0:	43554e47 	cmpmi	r5, #1136	; 0x470
    80c4:	4552505f 	ldrbmi	r5, [r2, #-95]	; 0xffffffa1
    80c8:	28514552 	ldmdacs	r1, {r1, r4, r6, r8, sl, lr}^
    80cc:	202c616d 	eorcs	r6, ip, sp, ror #2
    80d0:	0029696d 	eoreq	r6, r9, sp, ror #18
    80d4:	54555f5f 	ldrbpl	r5, [r5], #-3935	; 0xfffff0a1
    80d8:	42495f41 	submi	r5, r9, #260	; 0x104
    80dc:	5f5f5449 	svcpl	0x005f5449
    80e0:	00343620 	eorseq	r3, r4, r0, lsr #12
    80e4:	52415f5f 	subpl	r5, r1, #380	; 0x17c
    80e8:	45465f4d 	strbmi	r5, [r6, #-3917]	; 0xfffff0b3
    80ec:	52555441 	subspl	r5, r5, #1090519040	; 0x41000000
    80f0:	52435f45 	subpl	r5, r3, #276	; 0x114
    80f4:	00323343 	eorseq	r3, r2, r3, asr #6
    80f8:	74735f5f 	ldrbtvc	r5, [r3], #-3935	; 0xfffff0a1
    80fc:	676e6f72 			; <UNDEFINED> instruction: 0x676e6f72
    8100:	6665725f 			; <UNDEFINED> instruction: 0x6665725f
    8104:	6e657265 	cdpvs	2, 6, cr7, cr5, cr5, {3}
    8108:	73286563 			; <UNDEFINED> instruction: 0x73286563
    810c:	612c6d79 			; <UNDEFINED> instruction: 0x612c6d79
    8110:	7361696c 	cmnvc	r1, #108, 18	; 0x1b0000
    8114:	296d7973 	stmdbcs	sp!, {r0, r1, r4, r5, r6, r8, fp, ip, sp, lr}^
    8118:	74786520 	ldrbtvc	r6, [r8], #-1312	; 0xfffffae0
    811c:	206e7265 	rsbcs	r7, lr, r5, ror #4
    8120:	79745f5f 	ldmdbvc	r4!, {r0, r1, r2, r3, r4, r6, r8, r9, sl, fp, ip, lr}^
    8124:	666f6570 			; <UNDEFINED> instruction: 0x666f6570
    8128:	79732820 	ldmdbvc	r3!, {r5, fp, sp}^
    812c:	6120296d 			; <UNDEFINED> instruction: 0x6120296d
    8130:	7361696c 	cmnvc	r1, #108, 18	; 0x1b0000
    8134:	206d7973 	rsbcs	r7, sp, r3, ror r9
    8138:	74615f5f 	strbtvc	r5, [r1], #-3935	; 0xfffff0a1
    813c:	62697274 	rsbvs	r7, r9, #116, 4	; 0x40000007
    8140:	5f657475 	svcpl	0x00657475
    8144:	2828205f 	stmdacs	r8!, {r0, r1, r2, r3, r4, r6, sp}
    8148:	6c615f5f 	stclvs	15, cr5, [r1], #-380	; 0xfffffe84
    814c:	5f736169 	svcpl	0x00736169
    8150:	2328205f 			; <UNDEFINED> instruction: 0x2328205f
    8154:	296d7973 	stmdbcs	sp!, {r0, r1, r4, r5, r6, r8, fp, ip, sp, lr}^
    8158:	45002929 	strmi	r2, [r0, #-2345]	; 0xfffff6d7
    815c:	5f495458 	svcpl	0x00495458
    8160:	5f515249 	svcpl	0x00515249
    8164:	62616e65 	rsbvs	r6, r1, #1616	; 0x650
    8168:	3120656c 			; <UNDEFINED> instruction: 0x3120656c
    816c:	555f5f00 	ldrbpl	r5, [pc, #-3840]	; 7274 <_Min_Stack_Size+0x6e74>
    8170:	52464c4c 	subpl	r4, r6, #76, 24	; 0x4c00
    8174:	5f544341 	svcpl	0x00544341
    8178:	49535045 	ldmdbmi	r3, {r0, r2, r6, ip, lr}^
    817c:	5f4e4f4c 	svcpl	0x004e4f4c
    8180:	7830205f 	ldmdavc	r0!, {r0, r1, r2, r3, r4, r6, sp}
    8184:	362d5031 			; <UNDEFINED> instruction: 0x362d5031
    8188:	4c4c5534 	cfstr64mi	mvdx5, [ip], {52}	; 0x34
    818c:	5f5f0052 	svcpl	0x005f0052
    8190:	65726e75 	ldrbvs	r6, [r2, #-3701]!	; 0xfffff18b
    8194:	61686361 	cmnvs	r8, r1, ror #6
    8198:	28656c62 	stmdacs	r5!, {r1, r5, r6, sl, fp, sp, lr}^
    819c:	5f5f2029 	svcpl	0x005f2029
    81a0:	6c697562 	cfstr64vs	mvdx7, [r9], #-392	; 0xfffffe78
    81a4:	5f6e6974 	svcpl	0x006e6974
    81a8:	65726e75 	ldrbvs	r6, [r2, #-3701]!	; 0xfffff18b
    81ac:	61686361 	cmnvs	r8, r1, ror #6
    81b0:	28656c62 	stmdacs	r5!, {r1, r5, r6, sl, fp, sp, lr}^
    81b4:	5f5f0029 	svcpl	0x005f0029
    81b8:	455a4953 	ldrbmi	r4, [sl, #-2387]	; 0xfffff6ad
    81bc:	575f464f 	ldrbpl	r4, [pc, -pc, asr #12]
    81c0:	5f544e49 	svcpl	0x00544e49
    81c4:	205f5f54 	subscs	r5, pc, r4, asr pc	; <UNPREDICTABLE>
    81c8:	5f5f0034 	svcpl	0x005f0034
    81cc:	5f4d5241 	svcpl	0x004d5241
    81d0:	54414546 	strbpl	r4, [r1], #-1350	; 0xfffffaba
    81d4:	5f455255 	svcpl	0x00455255
    81d8:	4c414e55 	mcrrmi	14, 5, r4, r1, cr5
    81dc:	454e4749 	strbmi	r4, [lr, #-1865]	; 0xfffff8b7
    81e0:	00312044 	eorseq	r2, r1, r4, asr #32
    81e4:	54535f5f 	ldrbpl	r5, [r3], #-3935	; 0xfffff0a1
    81e8:	5f5f4344 	svcpl	0x005f4344
    81ec:	5f003120 	svcpl	0x00003120
    81f0:	42444c5f 	submi	r4, r4, #24320	; 0x5f00
    81f4:	45445f4c 	strbmi	r5, [r4, #-3916]	; 0xfffff0b4
    81f8:	414d4943 	cmpmi	sp, r3, asr #18
    81fc:	49445f4c 	stmdbmi	r4, {r2, r3, r6, r8, r9, sl, fp, ip, lr}^
    8200:	205f5f47 	subscs	r5, pc, r7, asr #30
    8204:	5f003731 	svcpl	0x00003731
    8208:	554e475f 	strbpl	r4, [lr, #-1887]	; 0xfffff8a1
    820c:	4b494c43 	blmi	125b320 <_Min_Stack_Size+0x125af20>
    8210:	53415f45 	movtpl	r5, #8005	; 0x1f45
    8214:	0033204d 	eorseq	r2, r3, sp, asr #32
    8218:	414c5f5f 	cmpmi	ip, pc, asr pc
    821c:	4d554343 	ldclmi	3, cr4, [r5, #-268]	; 0xfffffef4
    8220:	4e494d5f 	mcrmi	13, 2, r4, cr9, cr15, {2}
    8224:	28205f5f 	stmdacs	r0!, {r0, r1, r2, r3, r4, r6, r8, r9, sl, fp, ip, lr}
    8228:	3158302d 	cmpcc	r8, sp, lsr #32
    822c:	4c313350 	ldcmi	3, cr3, [r1], #-320	; 0xfffffec0
    8230:	58302d4b 	ldmdapl	r0!, {r0, r1, r3, r6, r8, sl, fp, sp}
    8234:	31335031 	teqcc	r3, r1, lsr r0
    8238:	00294b4c 	eoreq	r4, r9, ip, asr #22
    823c:	4e495f5f 	mcrmi	15, 2, r5, cr9, cr15, {2}
    8240:	41465f54 	cmpmi	r6, r4, asr pc
    8244:	5f385453 	svcpl	0x00385453
    8248:	5f58414d 	svcpl	0x0058414d
    824c:	7830205f 	ldmdavc	r0!, {r0, r1, r2, r3, r4, r6, sp}
    8250:	66666637 			; <UNDEFINED> instruction: 0x66666637
    8254:	66666666 	strbtvs	r6, [r6], -r6, ror #12
    8258:	465f5f00 	ldrbmi	r5, [pc], -r0, lsl #30
    825c:	3233544c 	eorscc	r5, r3, #76, 8	; 0x4c000000
    8260:	5341485f 	movtpl	r4, #6239	; 0x185f
    8264:	4e45445f 	mcrmi	4, 2, r4, cr5, cr15, {2}
    8268:	5f4d524f 	svcpl	0x004d524f
    826c:	0031205f 	eorseq	r2, r1, pc, asr r0
    8270:	63735f5f 	cmnvs	r3, #380	; 0x17c
    8274:	6c666e61 	stclvs	14, cr6, [r6], #-388	; 0xfffffe7c
    8278:	28656b69 	stmdacs	r5!, {r0, r3, r5, r6, r8, r9, fp, sp, lr}^
    827c:	61746d66 	cmnvs	r4, r6, ror #26
    8280:	662c6772 			; <UNDEFINED> instruction: 0x662c6772
    8284:	74737269 	ldrbtvc	r7, [r3], #-617	; 0xfffffd97
    8288:	61726176 	cmnvs	r2, r6, ror r1
    828c:	20296772 	eorcs	r6, r9, r2, ror r7
    8290:	74615f5f 	strbtvc	r5, [r1], #-3935	; 0xfffff0a1
    8294:	62697274 	rsbvs	r7, r9, #116, 4	; 0x40000007
    8298:	5f657475 	svcpl	0x00657475
    829c:	5f28285f 	svcpl	0x0028285f
    82a0:	726f665f 	rsbvc	r6, pc, #99614720	; 0x5f00000
    82a4:	5f74616d 	svcpl	0x0074616d
    82a8:	5f28205f 	svcpl	0x0028205f
    82ac:	6163735f 	cmnvs	r3, pc, asr r3
    82b0:	5f5f666e 	svcpl	0x005f666e
    82b4:	6d66202c 	stclvs	0, cr2, [r6, #-176]!	; 0xffffff50
    82b8:	67726174 			; <UNDEFINED> instruction: 0x67726174
    82bc:	6966202c 	stmdbvs	r6!, {r2, r3, r5, sp}^
    82c0:	76747372 			; <UNDEFINED> instruction: 0x76747372
    82c4:	72617261 	rsbvc	r7, r1, #268435462	; 0x10000006
    82c8:	29292967 	stmdbcs	r9!, {r0, r1, r2, r5, r6, r8, fp, sp}
    82cc:	45525f00 	ldrbmi	r5, [r2, #-3840]	; 0xfffff100
    82d0:	5f544e45 	svcpl	0x00544e45
    82d4:	4c414d53 	mcrrmi	13, 5, r4, r1, cr3
    82d8:	5f00204c 	svcpl	0x0000204c
    82dc:	4c4c555f 	cfstr64mi	mvdx5, [ip], {95}	; 0x5f
    82e0:	55434341 	strbpl	r4, [r3, #-833]	; 0xfffffcbf
    82e4:	494d5f4d 	stmdbmi	sp, {r0, r2, r3, r6, r8, r9, sl, fp, ip, lr}^
    82e8:	205f5f4e 	subscs	r5, pc, lr, asr #30
    82ec:	55302e30 	ldrpl	r2, [r0, #-3632]!	; 0xfffff1d0
    82f0:	004b4c4c 	subeq	r4, fp, ip, asr #24
    82f4:	5359535f 	cmppl	r9, #2080374785	; 0x7c000001
    82f8:	59545f5f 	ldmdbpl	r4, {r0, r1, r2, r3, r4, r6, r8, r9, sl, fp, ip, lr}^
    82fc:	5f534550 	svcpl	0x00534550
    8300:	5f002048 	svcpl	0x00002048
    8304:	58455441 	stmdapl	r5, {r0, r6, sl, ip, lr}^
    8308:	495f5449 	ldmdbmi	pc, {r0, r3, r6, sl, ip, lr}^	; <UNPREDICTABLE>
    830c:	2054494e 	subscs	r4, r4, lr, asr #18
    8310:	554e5f7b 	strbpl	r5, [lr, #-3963]	; 0xfffff085
    8314:	202c4c4c 	eorcs	r4, ip, ip, asr #24
    8318:	7b202c30 	blvc	8133e0 <_Min_Stack_Size+0x812fe0>
    831c:	4c554e5f 	mrrcmi	14, 5, r4, r5, cr15
    8320:	202c7d4c 	eorcs	r7, ip, ip, asr #26
    8324:	4c554e5f 	mrrcmi	14, 5, r4, r5, cr15
    8328:	5f007d4c 	svcpl	0x00007d4c
    832c:	5f535953 	svcpl	0x00535953
    8330:	46454443 	strbmi	r4, [r5], -r3, asr #8
    8334:	5f485f53 	svcpl	0x00485f53
    8338:	50470020 	subpl	r0, r7, r0, lsr #32
    833c:	5f434f49 	svcpl	0x00434f49
    8340:	45534142 	ldrbmi	r4, [r3, #-322]	; 0xfffffebe
    8344:	34783020 	ldrbtcc	r3, [r8], #-32	; 0xffffffe0
    8348:	31313030 	teqcc	r1, r0, lsr r0
    834c:	75303030 	ldrvc	r3, [r0, #-48]!	; 0xffffffd0
    8350:	475f5f00 	ldrbmi	r5, [pc, -r0, lsl #30]
    8354:	4c43554e 	cfstr64mi	mvdx5, [r3], {78}	; 0x4e
    8358:	5f454b49 	svcpl	0x00454b49
    835c:	4c495542 	cfstr64mi	mvdx5, [r9], {66}	; 0x42
    8360:	5f4e4954 	svcpl	0x004e4954
    8364:	4c414156 	stfmie	f4, [r1], {86}	; 0x56
    8368:	20545349 	subscs	r5, r4, r9, asr #6
    836c:	4e5f0031 	mrcmi	0, 2, r0, cr15, cr1, {1}
    8370:	494c5745 	stmdbmi	ip, {r0, r2, r6, r8, r9, sl, ip, lr}^
    8374:	4c415f42 	mcrrmi	15, 4, r5, r1, cr2
    8378:	41434f4c 	cmpmi	r3, ip, asr #30
    837c:	0020485f 	eoreq	r4, r0, pc, asr r8
    8380:	4e495f5f 	mcrmi	15, 2, r5, cr9, cr15, {2}
    8384:	20323354 	eorscs	r3, r2, r4, asr r3
    8388:	00226c22 	eoreq	r6, r2, r2, lsr #24
    838c:	52415f5f 	subpl	r5, r1, #380	; 0x17c
    8390:	53415f4d 	movtpl	r5, #8013	; 0x1f4d
    8394:	59535f4d 	ldmdbpl	r3, {r0, r2, r3, r6, r8, r9, sl, fp, ip, lr}^
    8398:	5841544e 	stmdapl	r1, {r1, r2, r3, r6, sl, ip, lr}^
    839c:	494e555f 	stmdbmi	lr, {r0, r1, r2, r3, r4, r6, r8, sl, ip, lr}^
    83a0:	44454946 	strbmi	r4, [r5], #-2374	; 0xfffff6ba
    83a4:	31205f5f 			; <UNDEFINED> instruction: 0x31205f5f
    83a8:	72747300 	rsbsvc	r7, r4, #0, 6
    83ac:	66646f74 	uqsub16vs	r6, r4, r4
    83b0:	72747320 	rsbsvc	r7, r4, #32, 6	; 0x80000000
    83b4:	00666f74 	rsbeq	r6, r6, r4, ror pc
    83b8:	49555f5f 	ldmdbmi	r5, {r0, r1, r2, r3, r4, r6, r8, r9, sl, fp, ip, lr}^
    83bc:	3233544e 	eorscc	r5, r3, #1308622848	; 0x4e000000
    83c0:	5059545f 	subspl	r5, r9, pc, asr r4
    83c4:	205f5f45 	subscs	r5, pc, r5, asr #30
    83c8:	676e6f6c 	strbvs	r6, [lr, -ip, ror #30]!
    83cc:	736e7520 	cmnvc	lr, #32, 10	; 0x8000000
    83d0:	656e6769 	strbvs	r6, [lr, #-1897]!	; 0xfffff897
    83d4:	6e692064 	cdpvs	0, 6, cr2, cr9, cr4, {3}
    83d8:	5f5f0074 	svcpl	0x005f0074
    83dc:	5f4d5241 	svcpl	0x004d5241
    83e0:	54414546 	strbpl	r4, [r1], #-1350	; 0xfffffaba
    83e4:	5f455255 	svcpl	0x00455255
    83e8:	50544f44 	subspl	r4, r4, r4, asr #30
    83ec:	00444f52 	subeq	r4, r4, r2, asr pc
    83f0:	68745f5f 	ldmdavs	r4!, {r0, r1, r2, r3, r4, r6, r8, r9, sl, fp, ip, lr}^
    83f4:	32626d75 	rsbcc	r6, r2, #7488	; 0x1d40
    83f8:	31205f5f 			; <UNDEFINED> instruction: 0x31205f5f
    83fc:	54584500 	ldrbpl	r4, [r8], #-1280	; 0xfffffb00
    8400:	495f3449 	ldmdbmi	pc, {r0, r3, r6, sl, ip, sp}^	; <UNPREDICTABLE>
    8404:	31205152 			; <UNDEFINED> instruction: 0x31205152
    8408:	445f0030 	ldrbmi	r0, [pc], #-48	; 8410 <_Min_Stack_Size+0x8010>
    840c:	55414645 	strbpl	r4, [r1, #-1605]	; 0xfffff9bb
    8410:	535f544c 	cmppl	pc, #76, 8	; 0x4c000000
    8414:	4352554f 	cmpmi	r2, #331350016	; 0x13c00000
    8418:	68730045 	ldmdavs	r3!, {r0, r2, r6}^
    841c:	2074726f 	rsbscs	r7, r4, pc, ror #4
    8420:	5f00312b 	svcpl	0x0000312b
    8424:	5f434347 	svcpl	0x00434347
    8428:	455a4953 	ldrbmi	r4, [sl, #-2387]	; 0xfffff6ad
    842c:	0020545f 	eoreq	r5, r0, pc, asr r4
    8430:	43435f5f 	movtmi	r5, #16223	; 0x3f5f
    8434:	5055535f 	subspl	r5, r5, pc, asr r3
    8438:	54524f50 	ldrbpl	r4, [r2], #-3920	; 0xfffff0b0
    843c:	41575f53 	cmpmi	r7, r3, asr pc
    8440:	4e494e52 	mcrmi	14, 2, r4, cr9, cr2, {2}
    8444:	00312047 	eorseq	r2, r1, r7, asr #32
    8448:	49575f5f 	ldmdbmi	r7, {r0, r1, r2, r3, r4, r6, r8, r9, sl, fp, ip, lr}^
    844c:	575f544e 	ldrbpl	r5, [pc, -lr, asr #8]
    8450:	48544449 	ldmdami	r4, {r0, r3, r6, sl, lr}^
    8454:	33205f5f 			; <UNDEFINED> instruction: 0x33205f5f
    8458:	5f5f0032 	svcpl	0x005f0032
    845c:	464c4c55 			; <UNDEFINED> instruction: 0x464c4c55
    8460:	54434152 	strbpl	r4, [r3], #-338	; 0xfffffeae
    8464:	4e494d5f 	mcrmi	13, 2, r4, cr9, cr15, {2}
    8468:	30205f5f 	eorcc	r5, r0, pc, asr pc
    846c:	4c55302e 	mrrcmi	0, 2, r3, r5, cr14
    8470:	5f00524c 	svcpl	0x0000524c
    8474:	43575f54 	cmpmi	r7, #84, 30	; 0x150
    8478:	5f524148 	svcpl	0x00524148
    847c:	58450020 	stmdapl	r5, {r5}^
    8480:	34314954 	ldrtcc	r4, [r1], #-2388	; 0xfffff6ac
    8484:	34314150 	ldrtcc	r4, [r1], #-336	; 0xfffffeb0
    8488:	58452820 	stmdapl	r5, {r5, fp, sp}^
    848c:	475f4954 			; <UNDEFINED> instruction: 0x475f4954
    8490:	5f4f4950 	svcpl	0x004f4950
    8494:	7070614d 	rsbsvc	r6, r0, sp, asr #2
    8498:	5f676e69 	svcpl	0x00676e69
    849c:	457b2974 	ldrbmi	r2, [fp, #-2420]!	; 0xfffff68c
    84a0:	31495458 	cmpcc	r9, r8, asr r4
    84a4:	47202c34 			; <UNDEFINED> instruction: 0x47202c34
    84a8:	414f4950 	cmpmi	pc, r0, asr r9	; <UNPREDICTABLE>
    84ac:	5047202c 	subpl	r2, r7, ip, lsr #32
    84b0:	505f4f49 	subspl	r4, pc, r9, asr #30
    84b4:	315f4e49 	cmpcc	pc, r9, asr #28
    84b8:	45202c34 	strmi	r2, [r0, #-3124]!	; 0xfffff3cc
    84bc:	31495458 	cmpcc	r9, r8, asr r4
    84c0:	52495f34 	subpl	r5, r9, #52, 30	; 0xd0
    84c4:	5f007d51 	svcpl	0x00007d51
    84c8:	38544e49 	ldmdacc	r4, {r0, r3, r6, r9, sl, fp, lr}^
    84cc:	445f545f 	ldrbmi	r5, [pc], #-1119	; 84d4 <_Min_Stack_Size+0x80d4>
    84d0:	414c4345 	cmpmi	ip, r5, asr #6
    84d4:	20444552 	subcs	r4, r4, r2, asr r5
    84d8:	4e495f00 	cdpmi	15, 4, cr5, cr9, cr0, {0}
    84dc:	5f323354 	svcpl	0x00323354
    84e0:	45445f54 	strbmi	r5, [r4, #-3924]	; 0xfffff0ac
    84e4:	52414c43 	subpl	r4, r1, #17152	; 0x4300
    84e8:	00204445 	eoreq	r4, r0, r5, asr #8
    84ec:	49535f5f 	ldmdbmi	r3, {r0, r1, r2, r3, r4, r6, r8, r9, sl, fp, ip, lr}^
    84f0:	464f455a 			; <UNDEFINED> instruction: 0x464f455a
    84f4:	544e495f 	strbpl	r4, [lr], #-2399	; 0xfffff6a1
    84f8:	34205f5f 	strtcc	r5, [r0], #-3935	; 0xfffff0a1
    84fc:	53425f00 	movtpl	r5, #12032	; 0x2f00
    8500:	43575f44 	cmpmi	r7, #68, 30	; 0x110
    8504:	5f524148 	svcpl	0x00524148
    8508:	54005f54 	strpl	r5, [r0], #-3924	; 0xfffff0ac
    850c:	5f364d49 	svcpl	0x00364d49
    8510:	45534142 	ldrbmi	r4, [r3, #-322]	; 0xfffffebe
    8514:	34783020 	ldrbtcc	r3, [r8], #-32	; 0xffffffe0
    8518:	31303030 	teqcc	r0, r0, lsr r0
    851c:	75303030 	ldrvc	r3, [r0, #-48]!	; 0xffffffd0
    8520:	4c5f5f00 	mrrcmi	15, 0, r5, pc, cr0	; <UNPREDICTABLE>
    8524:	4152464c 	cmpmi	r2, ip, asr #12
    8528:	495f5443 	ldmdbmi	pc, {r0, r1, r6, sl, ip, lr}^	; <UNPREDICTABLE>
    852c:	5f544942 	svcpl	0x00544942
    8530:	0030205f 	eorseq	r2, r0, pc, asr r0
    8534:	43435f5f 	movtmi	r5, #16223	; 0x3f5f
    8538:	5055535f 	subspl	r5, r5, pc, asr r3
    853c:	54524f50 	ldrbpl	r4, [r2], #-3920	; 0xfffff0b0
    8540:	41565f53 	cmpmi	r6, r3, asr pc
    8544:	49444152 	stmdbmi	r4, {r1, r4, r6, r8, lr}^
    8548:	58585f43 	ldmdapl	r8, {r0, r1, r6, r8, r9, sl, fp, ip, lr}^
    854c:	00312058 	eorseq	r2, r1, r8, asr r0
    8550:	67697274 			; <UNDEFINED> instruction: 0x67697274
    8554:	5f726567 	svcpl	0x00726567
    8558:	65736143 	ldrbvs	r6, [r3, #-323]!	; 0xfffffebd
    855c:	49505300 	ldmdbmi	r0, {r8, r9, ip, lr}^
    8560:	41425f32 	cmpmi	r2, r2, lsr pc
    8564:	30204553 	eorcc	r4, r0, r3, asr r5
    8568:	30303478 	eorscc	r3, r0, r8, ror r4
    856c:	30383330 	eorscc	r3, r8, r0, lsr r3
    8570:	5f007530 	svcpl	0x00007530
    8574:	5f535953 	svcpl	0x00535953
    8578:	544e495f 	strbpl	r4, [lr], #-2399	; 0xfffff6a1
    857c:	5f505553 	svcpl	0x00505553
    8580:	5f002048 	svcpl	0x00002048
    8584:	4341535f 	movtmi	r5, #4959	; 0x135f
    8588:	5f4d5543 	svcpl	0x004d5543
    858c:	49535045 	ldmdbmi	r3, {r0, r2, r6, ip, lr}^
    8590:	5f4e4f4c 	svcpl	0x004e4f4c
    8594:	7830205f 	ldmdavc	r0!, {r0, r1, r2, r3, r4, r6, sp}
    8598:	372d5031 			; <UNDEFINED> instruction: 0x372d5031
    859c:	47004b48 	strmi	r4, [r0, -r8, asr #22]
    85a0:	5f4f4950 	svcpl	0x004f4950
    85a4:	5f4e4950 	svcpl	0x004e4950
    85a8:	28282032 	stmdacs	r8!, {r1, r4, r5, sp}
    85ac:	746e6975 	strbtvc	r6, [lr], #-2421	; 0xfffff68b
    85b0:	745f3631 	ldrbvc	r3, [pc], #-1585	; 85b8 <_Min_Stack_Size+0x81b8>
    85b4:	78302029 	ldmdavc	r0!, {r0, r3, r5, sp}
    85b8:	34303030 	ldrtcc	r3, [r0], #-48	; 0xffffffd0
    85bc:	5f5f0029 	svcpl	0x005f0029
    85c0:	5f434347 	svcpl	0x00434347
    85c4:	5f4d5341 	svcpl	0x004d5341
    85c8:	47414c46 	strbmi	r4, [r1, -r6, asr #24]
    85cc:	54554f5f 	ldrbpl	r4, [r5], #-3935	; 0xfffff0a1
    85d0:	53545550 	cmppl	r4, #80, 10	; 0x14000000
    85d4:	31205f5f 			; <UNDEFINED> instruction: 0x31205f5f
    85d8:	43435200 	movtmi	r5, #12800	; 0x3200
    85dc:	7079545f 	rsbsvc	r5, r9, pc, asr r4
    85e0:	66656465 	strbtvs	r6, [r5], -r5, ror #8
    85e4:	5f00745f 	svcpl	0x0000745f
    85e8:	4e454552 	mcrmi	5, 2, r4, cr5, cr2, {2}
    85ec:	48435f54 	stmdami	r3, {r2, r4, r6, r8, r9, sl, fp, ip, lr}^
    85f0:	5f4b4345 	svcpl	0x004b4345
    85f4:	49524556 	ldmdbmi	r2, {r1, r2, r4, r6, r8, sl, lr}^
    85f8:	31205946 			; <UNDEFINED> instruction: 0x31205946
    85fc:	49464100 	stmdbmi	r6, {r8, lr}^
    8600:	41425f4f 	cmpmi	r2, pc, asr #30
    8604:	30204553 	eorcc	r4, r0, r3, asr r5
    8608:	30303478 	eorscc	r3, r0, r8, ror r4
    860c:	30303031 	eorscc	r3, r0, r1, lsr r0
    8610:	5f007530 	svcpl	0x00007530
    8614:	49534f50 	ldmdbmi	r3, {r4, r6, r8, r9, sl, fp, lr}^
    8618:	4f535f58 	svcmi	0x00535f58
    861c:	45435255 	strbmi	r5, [r3, #-597]	; 0xfffffdab
    8620:	5f003120 	svcpl	0x00003120
    8624:	4e49555f 	mcrmi	5, 2, r5, cr9, cr15, {2}
    8628:	41465f54 	cmpmi	r6, r4, asr pc
    862c:	36315453 			; <UNDEFINED> instruction: 0x36315453
    8630:	5059545f 	subspl	r5, r9, pc, asr r4
    8634:	205f5f45 	subscs	r5, pc, r5, asr #30
    8638:	69736e75 	ldmdbvs	r3!, {r0, r2, r4, r5, r6, r9, sl, fp, sp, lr}^
    863c:	64656e67 	strbtvs	r6, [r5], #-3687	; 0xfffff199
    8640:	746e6920 	strbtvc	r6, [lr], #-2336	; 0xfffff6e0
    8644:	54584500 	ldrbpl	r4, [r8], #-1280	; 0xfffffb00
    8648:	43503549 	cmpmi	r0, #306184192	; 0x12400000
    864c:	45282035 	strmi	r2, [r8, #-53]!	; 0xffffffcb
    8650:	5f495458 	svcpl	0x00495458
    8654:	4f495047 	svcmi	0x00495047
    8658:	70614d5f 	rsbvc	r4, r1, pc, asr sp
    865c:	676e6970 			; <UNDEFINED> instruction: 0x676e6970
    8660:	7b29745f 	blvc	a657e4 <_Min_Stack_Size+0xa653e4>
    8664:	49545845 	ldmdbmi	r4, {r0, r2, r6, fp, ip, lr}^
    8668:	47202c35 			; <UNDEFINED> instruction: 0x47202c35
    866c:	434f4950 	movtmi	r4, #63824	; 0xf950
    8670:	5047202c 	subpl	r2, r7, ip, lsr #32
    8674:	505f4f49 	subspl	r4, pc, r9, asr #30
    8678:	355f4e49 	ldrbcc	r4, [pc, #-3657]	; 7837 <_Min_Stack_Size+0x7437>
    867c:	5845202c 	stmdapl	r5, {r2, r3, r5, sp}^
    8680:	5f354954 	svcpl	0x00354954
    8684:	7d515249 	lfmvc	f5, 2, [r1, #-292]	; 0xfffffedc
    8688:	45525f00 	ldrbmi	r5, [r2, #-3840]	; 0xfffff100
    868c:	5f544e45 	svcpl	0x00544e45
    8690:	454c424d 	strbmi	r4, [ip, #-589]	; 0xfffffdb3
    8694:	54535f4e 	ldrbpl	r5, [r3], #-3918	; 0xfffff0b2
    8698:	28455441 	stmdacs	r5, {r0, r6, sl, ip, lr}^
    869c:	29727470 	ldmdbcs	r2!, {r4, r5, r6, sl, ip, sp, lr}^
    86a0:	70282820 	eorvc	r2, r8, r0, lsr #16
    86a4:	2d297274 	sfmcs	f7, 4, [r9, #-464]!	; 0xfffffe30
    86a8:	696d5f3e 	stmdbvs	sp!, {r1, r2, r3, r4, r5, r8, r9, sl, fp, ip, lr}^
    86ac:	3e2d6373 	mcrcc	3, 1, r6, cr13, cr3, {3}
    86b0:	6c626d5f 	stclvs	13, cr6, [r2], #-380	; 0xfffffe84
    86b4:	735f6e65 	cmpvc	pc, #1616	; 0x650
    86b8:	65746174 	ldrbvs	r6, [r4, #-372]!	; 0xfffffe8c
    86bc:	5f5f0029 	svcpl	0x005f0029
    86c0:	43554e47 	cmpmi	r5, #1136	; 0x470
    86c4:	4454535f 	ldrbmi	r5, [r4], #-863	; 0xfffffca1
    86c8:	4e495f43 	cdpmi	15, 4, cr5, cr9, cr3, {2}
    86cc:	454e494c 	strbmi	r4, [lr, #-2380]	; 0xfffff6b4
    86d0:	31205f5f 			; <UNDEFINED> instruction: 0x31205f5f
    86d4:	6e5f5f00 	cdpvs	15, 5, cr5, cr15, cr0, {0}
    86d8:	5f646565 	svcpl	0x00646565
    86dc:	746e6977 	strbtvc	r6, [lr], #-2423	; 0xfffff689
    86e0:	0020745f 	eoreq	r7, r0, pc, asr r4
    86e4:	43415f5f 	movtmi	r5, #8031	; 0x1f5f
    86e8:	5f4d5543 	svcpl	0x004d5543
    86ec:	49535045 	ldmdbmi	r3, {r0, r2, r6, ip, lr}^
    86f0:	5f4e4f4c 	svcpl	0x004e4f4c
    86f4:	7830205f 	ldmdavc	r0!, {r0, r1, r2, r3, r4, r6, sp}
    86f8:	312d5031 			; <UNDEFINED> instruction: 0x312d5031
    86fc:	5f004b35 	svcpl	0x00004b35
    8700:	414c555f 	cmpmi	ip, pc, asr r5
    8704:	4d554343 	ldclmi	3, cr4, [r5, #-268]	; 0xfffffef4
    8708:	5350455f 	cmppl	r0, #398458880	; 0x17c00000
    870c:	4e4f4c49 	cdpmi	12, 4, cr4, cr15, cr9, {2}
    8710:	30205f5f 	eorcc	r5, r0, pc, asr pc
    8714:	2d503178 	ldfcse	f3, [r0, #-480]	; 0xfffffe20
    8718:	4c553233 	lfmmi	f3, 2, [r5], {51}	; 0x33
    871c:	5f5f004b 	svcpl	0x005f004b
    8720:	4c42444c 	cfstrdmi	mvd4, [r2], {76}	; 0x4c
    8724:	4749445f 	smlsldmi	r4, r9, pc, r4	; <UNPREDICTABLE>
    8728:	31205f5f 			; <UNDEFINED> instruction: 0x31205f5f
    872c:	5f5f0035 	svcpl	0x005f0035
    8730:	455a4953 	ldrbmi	r4, [sl, #-2387]	; 0xfffff6ad
    8734:	4449575f 	strbmi	r5, [r9], #-1887	; 0xfffff8a1
    8738:	5f5f4854 	svcpl	0x005f4854
    873c:	00323320 	eorseq	r3, r2, r0, lsr #6
    8740:	49545845 	ldmdbmi	r4, {r0, r2, r6, fp, ip, lr}^
    8744:	42503131 	subsmi	r3, r0, #1073741836	; 0x4000000c
    8748:	28203131 	stmdacs	r0!, {r0, r4, r5, r8, ip, sp}
    874c:	49545845 	ldmdbmi	r4, {r0, r2, r6, fp, ip, lr}^
    8750:	4950475f 	ldmdbmi	r0, {r0, r1, r2, r3, r4, r6, r8, r9, sl, lr}^
    8754:	614d5f4f 	cmpvs	sp, pc, asr #30
    8758:	6e697070 	mcrvs	0, 3, r7, cr9, cr0, {3}
    875c:	29745f67 	ldmdbcs	r4!, {r0, r1, r2, r5, r6, r8, r9, sl, fp, ip, lr}^
    8760:	5458457b 	ldrbpl	r4, [r8], #-1403	; 0xfffffa85
    8764:	2c313149 	ldfcss	f3, [r1], #-292	; 0xfffffedc
    8768:	49504720 	ldmdbmi	r0, {r5, r8, r9, sl, lr}^
    876c:	202c424f 	eorcs	r4, ip, pc, asr #4
    8770:	4f495047 	svcmi	0x00495047
    8774:	4e49505f 	mcrmi	0, 2, r5, cr9, cr15, {2}
    8778:	2c31315f 	ldfcss	f3, [r1], #-380	; 0xfffffe84
    877c:	54584520 	ldrbpl	r4, [r8], #-1312	; 0xfffffae0
    8780:	5f313149 	svcpl	0x00313149
    8784:	7d515249 	lfmvc	f5, 2, [r1, #-292]	; 0xfffffedc
    8788:	45525f00 	ldrbmi	r5, [r2, #-3840]	; 0xfffff100
    878c:	5f544e45 	svcpl	0x00544e45
    8790:	525f504d 	subspl	r5, pc, #77	; 0x4d
    8794:	4c555345 	mrrcmi	3, 4, r5, r5, cr5	; <UNPREDICTABLE>
    8798:	74702854 	ldrbtvc	r2, [r0], #-2132	; 0xfffff7ac
    879c:	28202972 	stmdacs	r0!, {r1, r4, r5, r6, r8, fp, sp}
    87a0:	72747028 	rsbsvc	r7, r4, #40	; 0x28
    87a4:	5f3e2d29 	svcpl	0x003e2d29
    87a8:	3e2d706d 	cdpcc	0, 2, cr7, cr13, cr13, {3}
    87ac:	7365725f 	cmnvc	r5, #-268435451	; 0xf0000005
    87b0:	29746c75 	ldmdbcs	r4!, {r0, r2, r4, r5, r6, sl, fp, sp, lr}^
    87b4:	575f5f00 	ldrbpl	r5, [pc, -r0, lsl #30]
    87b8:	5f544e49 	svcpl	0x00544e49
    87bc:	5f4e494d 	svcpl	0x004e494d
    87c0:	5530205f 	ldrpl	r2, [r0, #-95]!	; 0xffffffa1
    87c4:	465f5f00 	ldrbmi	r5, [pc], -r0, lsl #30
    87c8:	3436544c 	ldrtcc	r5, [r6], #-1100	; 0xfffffbb4
    87cc:	4749445f 	smlsldmi	r4, r9, pc, r4	; <UNPREDICTABLE>
    87d0:	31205f5f 			; <UNDEFINED> instruction: 0x31205f5f
    87d4:	495f0035 	ldmdbmi	pc, {r0, r2, r4, r5}^	; <UNPREDICTABLE>
    87d8:	3233544e 	eorscc	r5, r3, #1308622848	; 0x4e000000
    87dc:	5f51455f 	svcpl	0x0051455f
    87e0:	474e4f4c 	strbmi	r4, [lr, -ip, asr #30]
    87e4:	50470020 	subpl	r0, r7, r0, lsr #32
    87e8:	505f4f49 	subspl	r4, pc, r9, asr #30
    87ec:	395f4e49 	ldmdbcc	pc, {r0, r3, r6, r9, sl, fp, lr}^	; <UNPREDICTABLE>
    87f0:	75282820 	strvc	r2, [r8, #-2080]!	; 0xfffff7e0
    87f4:	31746e69 	cmncc	r4, r9, ror #28
    87f8:	29745f36 	ldmdbcs	r4!, {r1, r2, r4, r5, r8, r9, sl, fp, ip, lr}^
    87fc:	30783020 	rsbscc	r3, r8, r0, lsr #32
    8800:	29303032 	ldmdbcs	r0!, {r1, r4, r5, ip, sp}
    8804:	575f5f00 	ldrbpl	r5, [pc, -r0, lsl #30]
    8808:	5f544e49 	svcpl	0x00544e49
    880c:	5f58414d 	svcpl	0x0058414d
    8810:	7830205f 	ldmdavc	r0!, {r0, r1, r2, r3, r4, r6, sp}
    8814:	66666666 	strbtvs	r6, [r6], -r6, ror #12
    8818:	66666666 	strbtvs	r6, [r6], -r6, ror #12
    881c:	5f5f0055 	svcpl	0x005f0055
    8820:	5f544e49 	svcpl	0x00544e49
    8824:	5341454c 	movtpl	r4, #5452	; 0x154c
    8828:	575f3854 			; <UNDEFINED> instruction: 0x575f3854
    882c:	48544449 	ldmdami	r4, {r0, r3, r6, sl, lr}^
    8830:	38205f5f 	stmdacc	r0!, {r0, r1, r2, r3, r4, r6, r8, r9, sl, fp, ip, lr}
    8834:	49504700 	ldmdbmi	r0, {r8, r9, sl, lr}^
    8838:	49505f4f 	ldmdbmi	r0, {r0, r1, r2, r3, r6, r8, r9, sl, fp, ip, lr}^
    883c:	20335f4e 	eorscs	r5, r3, lr, asr #30
    8840:	69752828 	ldmdbvs	r5!, {r3, r5, fp, sp}^
    8844:	3631746e 	ldrtcc	r7, [r1], -lr, ror #8
    8848:	2029745f 	eorcs	r7, r9, pc, asr r4
    884c:	30307830 	eorscc	r7, r0, r0, lsr r8
    8850:	00293830 	eoreq	r3, r9, r0, lsr r8
    8854:	6f6c5f5f 	svcvs	0x006c5f5f
    8858:	645f676e 	ldrbvs	r6, [pc], #-1902	; 8860 <_Min_Stack_Size+0x8460>
    885c:	6c62756f 	cfstr64vs	mvdx7, [r2], #-444	; 0xfffffe44
    8860:	20745f65 	rsbscs	r5, r4, r5, ror #30
    8864:	676e6f6c 	strbvs	r6, [lr, -ip, ror #30]!
    8868:	756f6420 	strbvc	r6, [pc, #-1056]!	; 8450 <_Min_Stack_Size+0x8050>
    886c:	00656c62 	rsbeq	r6, r5, r2, ror #24
    8870:	4e495f5f 	mcrmi	15, 2, r5, cr9, cr15, {2}
    8874:	454c5f54 	strbmi	r5, [ip, #-3924]	; 0xfffff0ac
    8878:	31545341 	cmpcc	r4, r1, asr #6
    887c:	59545f36 	ldmdbpl	r4, {r1, r2, r4, r5, r8, r9, sl, fp, ip, lr}^
    8880:	5f5f4550 	svcpl	0x005f4550
    8884:	6f687320 	svcvs	0x00687320
    8888:	69207472 	stmdbvs	r0!, {r1, r4, r5, r6, sl, ip, sp, lr}
    888c:	5f00746e 	svcpl	0x0000746e
    8890:	5f51515f 	svcpl	0x0051515f
    8894:	54494246 	strbpl	r4, [r9], #-582	; 0xfffffdba
    8898:	37205f5f 			; <UNDEFINED> instruction: 0x37205f5f
    889c:	434e4900 	movtmi	r4, #59648	; 0xe900
    88a0:	4d54535f 	ldclmi	3, cr5, [r4, #-380]	; 0xfffffe84
    88a4:	465f3233 			; <UNDEFINED> instruction: 0x465f3233
    88a8:	58333031 	ldmdapl	r3!, {r0, r4, r5, ip, sp}
    88ac:	5f485f36 	svcpl	0x00485f36
    88b0:	5f5f0020 	svcpl	0x005f0020
    88b4:	5f4c4244 	svcpl	0x004c4244
    88b8:	5f58414d 	svcpl	0x0058414d
    88bc:	2828205f 	stmdacs	r8!, {r0, r1, r2, r3, r4, r6, sp}
    88c0:	62756f64 	rsbsvs	r6, r5, #100, 30	; 0x190
    88c4:	3129656c 			; <UNDEFINED> instruction: 0x3129656c
    88c8:	3739372e 	ldrcc	r3, [r9, -lr, lsr #14]!
    88cc:	31333936 	teqcc	r3, r6, lsr r9
    88d0:	36383433 			; <UNDEFINED> instruction: 0x36383433
    88d4:	35313332 	ldrcc	r3, [r1, #-818]!	; 0xfffffcce
    88d8:	332b6537 			; <UNDEFINED> instruction: 0x332b6537
    88dc:	294c3830 	stmdbcs	ip, {r4, r5, fp, ip, sp}^
    88e0:	4c5f5f00 	mrrcmi	15, 0, r5, pc, cr0	; <UNPREDICTABLE>
    88e4:	4152464c 	cmpmi	r2, ip, asr #12
    88e8:	465f5443 	ldrbmi	r5, [pc], -r3, asr #8
    88ec:	5f544942 	svcpl	0x00544942
    88f0:	3336205f 	teqcc	r6, #95	; 0x5f
    88f4:	465f5f00 	ldrbmi	r5, [pc], -r0, lsl #30
    88f8:	3233544c 	eorscc	r5, r3, #76, 8	; 0x4c000000
    88fc:	5341485f 	movtpl	r4, #6239	; 0x185f
    8900:	464e495f 			; <UNDEFINED> instruction: 0x464e495f
    8904:	54494e49 	strbpl	r4, [r9], #-3657	; 0xfffff1b7
    8908:	205f5f59 	subscs	r5, pc, r9, asr pc	; <UNPREDICTABLE>
    890c:	5f5f0031 	svcpl	0x005f0031
    8910:	6d756874 	ldclvs	8, cr6, [r5, #-464]!	; 0xfffffe30
    8914:	205f5f62 	subscs	r5, pc, r2, ror #30
    8918:	58450031 	stmdapl	r5, {r0, r4, r5}^
    891c:	33314954 	teqcc	r1, #84, 18	; 0x150000
    8920:	33314350 	teqcc	r1, #80, 6	; 0x40000001
    8924:	58452820 	stmdapl	r5, {r5, fp, sp}^
    8928:	475f4954 			; <UNDEFINED> instruction: 0x475f4954
    892c:	5f4f4950 	svcpl	0x004f4950
    8930:	7070614d 	rsbsvc	r6, r0, sp, asr #2
    8934:	5f676e69 	svcpl	0x00676e69
    8938:	457b2974 	ldrbmi	r2, [fp, #-2420]!	; 0xfffff68c
    893c:	31495458 	cmpcc	r9, r8, asr r4
    8940:	47202c33 			; <UNDEFINED> instruction: 0x47202c33
    8944:	434f4950 	movtmi	r4, #63824	; 0xf950
    8948:	5047202c 	subpl	r2, r7, ip, lsr #32
    894c:	505f4f49 	subspl	r4, pc, r9, asr #30
    8950:	315f4e49 	cmpcc	pc, r9, asr #28
    8954:	45202c33 	strmi	r2, [r0, #-3123]!	; 0xfffff3cd
    8958:	31495458 	cmpcc	r9, r8, asr r4
    895c:	52495f33 	subpl	r5, r9, #51, 30	; 0xcc
    8960:	54007d51 	strpl	r7, [r0], #-3409	; 0xfffff2af
    8964:	34314d49 	ldrtcc	r4, [r1], #-3401	; 0xfffff2b7
    8968:	5341425f 	movtpl	r4, #4703	; 0x125f
    896c:	78302045 	ldmdavc	r0!, {r0, r2, r6, sp}
    8970:	30303034 	eorscc	r3, r0, r4, lsr r0
    8974:	30303032 	eorscc	r3, r0, r2, lsr r0
    8978:	46410075 			; <UNDEFINED> instruction: 0x46410075
    897c:	28204f49 	stmdacs	r0!, {r0, r3, r6, r8, r9, sl, fp, lr}
    8980:	49464128 	stmdbmi	r6, {r3, r5, r8, lr}^
    8984:	79545f4f 	ldmdbvc	r4, {r0, r1, r2, r3, r6, r8, r9, sl, fp, ip, lr}^
    8988:	65646570 	strbvs	r6, [r4, #-1392]!	; 0xfffffa90
    898c:	20745f66 	rsbscs	r5, r4, r6, ror #30
    8990:	4641292a 	strbmi	r2, [r1], -sl, lsr #18
    8994:	425f4f49 	subsmi	r4, pc, #292	; 0x124
    8998:	29455341 	stmdbcs	r5, {r0, r6, r8, r9, ip, lr}^
    899c:	465f5f00 	ldrbmi	r5, [pc], -r0, lsl #30
    89a0:	3436544c 	ldrtcc	r5, [r6], #-1100	; 0xfffffbb4
    89a4:	4e414d5f 	mcrmi	13, 2, r4, cr1, cr15, {2}
    89a8:	49445f54 	stmdbmi	r4, {r2, r4, r6, r8, r9, sl, fp, ip, lr}^
    89ac:	205f5f47 	subscs	r5, pc, r7, asr #30
    89b0:	5f003335 	svcpl	0x00003335
    89b4:	4d544e49 	ldclmi	14, cr4, [r4, #-292]	; 0xfffffedc
    89b8:	545f5841 	ldrbpl	r5, [pc], #-2113	; 89c0 <_Min_Stack_Size+0x85c0>
    89bc:	4345445f 	movtmi	r4, #21599	; 0x545f
    89c0:	4552414c 	ldrbmi	r4, [r2, #-332]	; 0xfffffeb4
    89c4:	5f002044 	svcpl	0x00002044
    89c8:	726f665f 	rsbvc	r6, pc, #99614720	; 0x5f00000
    89cc:	5f74616d 	svcpl	0x0074616d
    89d0:	28677261 	stmdacs	r7!, {r0, r5, r6, r9, ip, sp, lr}^
    89d4:	61746d66 	cmnvs	r4, r6, ror #26
    89d8:	20296772 	eorcs	r6, r9, r2, ror r7
    89dc:	74615f5f 	strbtvc	r5, [r1], #-3935	; 0xfffff0a1
    89e0:	62697274 	rsbvs	r7, r9, #116, 4	; 0x40000007
    89e4:	5f657475 	svcpl	0x00657475
    89e8:	5f28285f 	svcpl	0x0028285f
    89ec:	726f665f 	rsbvc	r6, pc, #99614720	; 0x5f00000
    89f0:	5f74616d 	svcpl	0x0074616d
    89f4:	5f677261 	svcpl	0x00677261
    89f8:	6628205f 			; <UNDEFINED> instruction: 0x6628205f
    89fc:	7261746d 	rsbvc	r7, r1, #1828716544	; 0x6d000000
    8a00:	29292967 	stmdbcs	r9!, {r0, r1, r2, r5, r6, r8, fp, sp}
    8a04:	635f5f00 	cmpvs	pc, #0, 30
    8a08:	69706d6f 	ldmdbvs	r0!, {r0, r1, r2, r3, r5, r6, r8, sl, fp, sp, lr}^
    8a0c:	5f72656c 	svcpl	0x0072656c
    8a10:	626d656d 	rsbvs	r6, sp, #457179136	; 0x1b400000
    8a14:	29287261 	stmdbcs	r8!, {r0, r5, r6, r9, ip, sp, lr}
    8a18:	615f5f20 	cmpvs	pc, r0, lsr #30
    8a1c:	5f206d73 	svcpl	0x00206d73
    8a20:	6c6f765f 	stclvs	6, cr7, [pc], #-380	; 88ac <_Min_Stack_Size+0x84ac>
    8a24:	6c697461 	cfstrdvs	mvd7, [r9], #-388	; 0xfffffe7c
    8a28:	20222865 	eorcs	r2, r2, r5, ror #16
    8a2c:	203a2022 	eorscs	r2, sl, r2, lsr #32
    8a30:	203a203a 	eorscs	r2, sl, sl, lsr r0
    8a34:	6d656d22 	stclvs	13, cr6, [r5, #-136]!	; 0xffffff78
    8a38:	2279726f 	rsbscs	r7, r9, #-268435450	; 0xf0000006
    8a3c:	5f5f0029 	svcpl	0x005f0029
    8a40:	6b636f6c 	blvs	18e47f8 <_Min_Stack_Size+0x18e43f8>
    8a44:	6f6c635f 	svcvs	0x006c635f
    8a48:	6c286573 	cfstr32vs	mvfx6, [r8], #-460	; 0xfffffe34
    8a4c:	296b636f 	stmdbcs	fp!, {r0, r1, r2, r3, r5, r6, r8, r9, sp, lr}^
    8a50:	725f5f20 	subsvc	r5, pc, #32, 30	; 0x80
    8a54:	72617465 	rsbvc	r7, r1, #1694498816	; 0x65000000
    8a58:	5f746567 	svcpl	0x00746567
    8a5c:	6b636f6c 	blvs	18e4814 <_Min_Stack_Size+0x18e4414>
    8a60:	6f6c635f 	svcvs	0x006c635f
    8a64:	6c286573 	cfstr32vs	mvfx6, [r8], #-460	; 0xfffffe34
    8a68:	296b636f 	stmdbcs	fp!, {r0, r1, r2, r3, r5, r6, r8, r9, sp, lr}^
    8a6c:	485f5f00 	ldmdami	pc, {r8, r9, sl, fp, ip, lr}^	; <UNPREDICTABLE>
    8a70:	42465f51 	submi	r5, r6, #324	; 0x144
    8a74:	5f5f5449 	svcpl	0x005f5449
    8a78:	00353120 	eorseq	r3, r5, r0, lsr #2
    8a7c:	61645f5f 	cmnvs	r4, pc, asr pc
    8a80:	79746174 	ldmdbvc	r4!, {r2, r4, r5, r6, r8, sp, lr}^
    8a84:	745f6570 	ldrbvc	r6, [pc], #-1392	; 8a8c <_Min_Stack_Size+0x868c>
    8a88:	5f657079 	svcpl	0x00657079
    8a8c:	28676174 	stmdacs	r7!, {r2, r4, r5, r6, r8, sp, lr}^
    8a90:	646e696b 	strbtvs	r6, [lr], #-2411	; 0xfffff695
    8a94:	7079742c 	rsbsvc	r7, r9, ip, lsr #8
    8a98:	00202965 	eoreq	r2, r0, r5, ror #18
    8a9c:	49535f5f 	ldmdbmi	r3, {r0, r1, r2, r3, r4, r6, r8, r9, sl, fp, ip, lr}^
    8aa0:	4d5f455a 	cfldr64mi	mvdx4, [pc, #-360]	; 8940 <_Min_Stack_Size+0x8540>
    8aa4:	5f5f5841 	svcpl	0x005f5841
    8aa8:	66783020 	ldrbtvs	r3, [r8], -r0, lsr #32
    8aac:	66666666 	strbtvs	r6, [r6], -r6, ror #12
    8ab0:	55666666 	strbpl	r6, [r6, #-1638]!	; 0xfffff99a
    8ab4:	49564e00 	ldmdbmi	r6, {r9, sl, fp, lr}^
    8ab8:	50535f43 	subspl	r5, r3, r3, asr #30
    8abc:	495f3349 	ldmdbmi	pc, {r0, r3, r6, r8, r9, ip, sp}^	; <UNPREDICTABLE>
    8ac0:	445f5152 	ldrbmi	r5, [pc], #-338	; 8ac8 <_Min_Stack_Size+0x86c8>
    8ac4:	62617369 	rsbvs	r7, r1, #-1543503871	; 0xa4000001
    8ac8:	2820656c 	stmdacs	r0!, {r2, r3, r5, r6, r8, sl, sp, lr}
    8acc:	4349564e 	movtmi	r5, #38478	; 0x964e
    8ad0:	4543495f 	strbmi	r4, [r3, #-2399]	; 0xfffff6a1
    8ad4:	7c203152 	stfvcs	f3, [r0], #-328	; 0xfffffeb8
    8ad8:	3c31203d 	ldccc	0, cr2, [r1], #-244	; 0xffffff0c
    8adc:	5053283c 	subspl	r2, r3, ip, lsr r8
    8ae0:	495f3349 	ldmdbmi	pc, {r0, r3, r6, r8, r9, ip, sp}^	; <UNPREDICTABLE>
    8ae4:	2d205152 	stfcss	f5, [r0, #-328]!	; 0xfffffeb8
    8ae8:	29323320 	ldmdbcs	r2!, {r5, r8, r9, ip, sp}
    8aec:	49540029 	ldmdbmi	r4, {r0, r3, r5}^
    8af0:	5f33314d 	svcpl	0x0033314d
    8af4:	45534142 	ldrbmi	r4, [r3, #-322]	; 0xfffffebe
    8af8:	34783020 	ldrbtcc	r3, [r8], #-32	; 0xffffffe0
    8afc:	31303030 	teqcc	r0, r0, lsr r0
    8b00:	75303043 	ldrvc	r3, [r0, #-67]!	; 0xffffffbd
    8b04:	34783020 	ldrbtcc	r3, [r8], #-32	; 0xffffffe0
    8b08:	20303030 	eorscs	r3, r0, r0, lsr r0
    8b0c:	30303032 	eorscc	r3, r0, r2, lsr r0
    8b10:	495f5f00 	ldmdbmi	pc, {r8, r9, sl, fp, ip, lr}^	; <UNPREDICTABLE>
    8b14:	3436544e 	ldrtcc	r5, [r6], #-1102	; 0xfffffbb2
    8b18:	6c6c2220 	sfmvs	f2, 2, [ip], #-128	; 0xffffff80
    8b1c:	5f5f0022 	svcpl	0x005f0022
    8b20:	61776c61 	cmnvs	r7, r1, ror #24
    8b24:	695f7379 	ldmdbvs	pc, {r0, r3, r4, r5, r6, r8, r9, ip, sp, lr}^	; <UNPREDICTABLE>
    8b28:	6e696c6e 	cdpvs	12, 6, cr6, cr9, cr14, {3}
    8b2c:	5f5f2065 	svcpl	0x005f2065
    8b30:	696c6e69 	stmdbvs	ip!, {r0, r3, r5, r6, r9, sl, fp, sp, lr}^
    8b34:	5f5f656e 	svcpl	0x005f656e
    8b38:	615f5f20 	cmpvs	pc, r0, lsr #30
    8b3c:	69727474 	ldmdbvs	r2!, {r2, r4, r5, r6, sl, ip, sp, lr}^
    8b40:	65747562 	ldrbvs	r7, [r4, #-1378]!	; 0xfffffa9e
    8b44:	28285f5f 	stmdacs	r8!, {r0, r1, r2, r3, r4, r6, r8, r9, sl, fp, ip, lr}
    8b48:	6c615f5f 	stclvs	15, cr5, [r1], #-380	; 0xfffffe84
    8b4c:	73796177 	cmnvc	r9, #-1073741795	; 0xc000001d
    8b50:	6c6e695f 			; <UNDEFINED> instruction: 0x6c6e695f
    8b54:	5f656e69 	svcpl	0x00656e69
    8b58:	0029295f 	eoreq	r2, r9, pc, asr r9
    8b5c:	4f495047 	svcmi	0x00495047
    8b60:	4e49505f 	mcrmi	0, 2, r5, cr9, cr15, {2}
    8b64:	2030315f 	eorscs	r3, r0, pc, asr r1
    8b68:	69752828 	ldmdbvs	r5!, {r3, r5, fp, sp}^
    8b6c:	3631746e 	ldrtcc	r7, [r1], -lr, ror #8
    8b70:	2029745f 	eorcs	r7, r9, pc, asr r4
    8b74:	34307830 	ldrtcc	r7, [r0], #-2096	; 0xfffff7d0
    8b78:	00293030 	eoreq	r3, r9, r0, lsr r0
    8b7c:	52415f5f 	subpl	r5, r1, #380	; 0x17c
    8b80:	52415f4d 	subpl	r5, r1, #308	; 0x134
    8b84:	55004843 	strpl	r4, [r0, #-2115]	; 0xfffff7bd
    8b88:	38544e49 	ldmdacc	r4, {r0, r3, r6, r9, sl, fp, lr}^
    8b8c:	58414d5f 	stmdapl	r1, {r0, r1, r2, r3, r4, r6, r8, sl, fp, lr}^
    8b90:	5f5f2820 	svcpl	0x005f2820
    8b94:	544e4955 	strbpl	r4, [lr], #-2389	; 0xfffff6ab
    8b98:	414d5f38 	cmpmi	sp, r8, lsr pc
    8b9c:	295f5f58 	ldmdbcs	pc, {r3, r4, r6, r8, r9, sl, fp, ip, lr}^	; <UNPREDICTABLE>
    8ba0:	4c5f5f00 	mrrcmi	15, 0, r5, pc, cr0	; <UNPREDICTABLE>
    8ba4:	5f474e4f 	svcpl	0x00474e4f
    8ba8:	5f58414d 	svcpl	0x0058414d
    8bac:	7830205f 	ldmdavc	r0!, {r0, r1, r2, r3, r4, r6, sp}
    8bb0:	66666637 			; <UNDEFINED> instruction: 0x66666637
    8bb4:	66666666 	strbtvs	r6, [r6], -r6, ror #12
    8bb8:	5047004c 	subpl	r0, r7, ip, asr #32
    8bbc:	535f4f49 	cmppl	pc, #292	; 0x124
    8bc0:	44454550 	strbmi	r4, [r5], #-1360	; 0xfffffab0
    8bc4:	204d325f 	subcs	r3, sp, pc, asr r2
    8bc8:	30307830 	eorscc	r7, r0, r0, lsr r8
    8bcc:	30303030 	eorscc	r3, r0, r0, lsr r0
    8bd0:	00753230 	rsbseq	r3, r5, r0, lsr r2
    8bd4:	676e6f6c 	strbvs	r6, [lr, -ip, ror #30]!
    8bd8:	00342b20 	eorseq	r2, r4, r0, lsr #22
    8bdc:	49545845 	ldmdbmi	r4, {r0, r2, r6, fp, ip, lr}^
    8be0:	00332033 	eorseq	r2, r3, r3, lsr r0
    8be4:	6f6e5f5f 	svcvs	0x006e5f5f
    8be8:	6c756e6e 	ldclvs	14, cr6, [r5], #-440	; 0xfffffe48
    8bec:	2978286c 	ldmdbcs	r8!, {r2, r3, r5, r6, fp, sp}^
    8bf0:	615f5f20 	cmpvs	pc, r0, lsr #30
    8bf4:	69727474 	ldmdbvs	r2!, {r2, r4, r5, r6, sl, ip, sp, lr}^
    8bf8:	65747562 	ldrbvs	r7, [r4, #-1378]!	; 0xfffffa9e
    8bfc:	28285f5f 	stmdacs	r8!, {r0, r1, r2, r3, r4, r6, r8, r9, sl, fp, ip, lr}
    8c00:	6f6e5f5f 	svcvs	0x006e5f5f
    8c04:	6c756e6e 	ldclvs	14, cr6, [r5], #-440	; 0xfffffe48
    8c08:	205f5f6c 	subscs	r5, pc, ip, ror #30
    8c0c:	00292978 	eoreq	r2, r9, r8, ror r9
    8c10:	4e41525f 	mcrmi	2, 2, r5, cr1, cr15, {2}
    8c14:	5f383444 	svcpl	0x00383444
    8c18:	20444441 	subcs	r4, r4, r1, asr #8
    8c1c:	30783028 	rsbscc	r3, r8, r8, lsr #32
    8c20:	29623030 	stmdbcs	r2!, {r4, r5, ip, sp}^
    8c24:	49584500 	ldmdbmi	r8, {r8, sl, lr}^
    8c28:	41465f54 	cmpmi	r6, r4, asr pc
    8c2c:	52554c49 	subspl	r4, r5, #18688	; 0x4900
    8c30:	00312045 	eorseq	r2, r1, r5, asr #32
    8c34:	49545845 	ldmdbmi	r4, {r0, r2, r6, fp, ip, lr}^
    8c38:	31203331 			; <UNDEFINED> instruction: 0x31203331
    8c3c:	5f5f0033 	svcpl	0x005f0033
    8c40:	5f4d5241 	svcpl	0x004d5241
    8c44:	54414546 	strbpl	r4, [r1], #-1350	; 0xfffffaba
    8c48:	5f455255 	svcpl	0x00455255
    8c4c:	4552444c 	ldrbmi	r4, [r2, #-1100]	; 0xfffffbb4
    8c50:	00372058 	eorseq	r2, r7, r8, asr r0
    8c54:	4349564e 	movtmi	r5, #38478	; 0x964e
    8c58:	4543495f 	strbmi	r4, [r3, #-2399]	; 0xfffff6a1
    8c5c:	2a203252 	bcs	8155ac <_Min_Stack_Size+0x8151ac>
    8c60:	6c6f7628 	stclvs	6, cr7, [pc], #-160	; 8bc8 <_Min_Stack_Size+0x87c8>
    8c64:	6c697461 	cfstrdvs	mvd7, [r9], #-388	; 0xfffffe7c
    8c68:	69752065 	ldmdbvs	r5!, {r0, r2, r5, r6, sp}^
    8c6c:	3233746e 	eorscc	r7, r3, #1845493760	; 0x6e000000
    8c70:	202a745f 	eorcs	r7, sl, pc, asr r4
    8c74:	564e2829 	strbpl	r2, [lr], -r9, lsr #16
    8c78:	425f4349 	subsmi	r4, pc, #603979777	; 0x24000001
    8c7c:	20657361 	rsbcs	r7, r5, r1, ror #6
    8c80:	3078302b 	rsbscc	r3, r8, fp, lsr #32
    8c84:	00293838 	eoreq	r3, r9, r8, lsr r8
    8c88:	4c4c5f5f 	mcrrmi	15, 5, r5, ip, cr15
    8c8c:	43415246 	movtmi	r5, #4678	; 0x1246
    8c90:	50455f54 	subpl	r5, r5, r4, asr pc
    8c94:	4f4c4953 	svcmi	0x004c4953
    8c98:	205f5f4e 	subscs	r5, pc, lr, asr #30
    8c9c:	50317830 	eorspl	r7, r1, r0, lsr r8
    8ca0:	4c33362d 	ldcmi	6, cr3, [r3], #-180	; 0xffffff4c
    8ca4:	5f00524c 	svcpl	0x0000524c
    8ca8:	4d52415f 	ldfmie	f4, [r2, #-380]	; 0xfffffe84
    8cac:	4145465f 	cmpmi	r5, pc, asr r6
    8cb0:	45525554 	ldrbmi	r5, [r2, #-1364]	; 0xfffffaac
    8cb4:	4d49535f 	stclmi	3, cr5, [r9, #-380]	; 0xfffffe84
    8cb8:	00323344 	eorseq	r3, r2, r4, asr #6
    8cbc:	4c465f5f 	mcrrmi	15, 5, r5, r6, cr15
    8cc0:	58323354 	ldmdapl	r2!, {r2, r4, r6, r8, r9, ip, sp}
    8cc4:	4e414d5f 	mcrmi	13, 2, r4, cr1, cr15, {2}
    8cc8:	49445f54 	stmdbmi	r4, {r2, r4, r6, r8, r9, sl, fp, ip, lr}^
    8ccc:	205f5f47 	subscs	r5, pc, r7, asr #30
    8cd0:	45003335 	strmi	r3, [r0, #-821]	; 0xfffffccb
    8cd4:	38495458 	stmdacc	r9, {r3, r4, r6, sl, ip, lr}^
    8cd8:	5f003820 	svcpl	0x00003820
    8cdc:	4c57454e 	cfldr64mi	mvdx4, [r7], {78}	; 0x4e
    8ce0:	565f4249 	ldrbpl	r4, [pc], -r9, asr #4
    8ce4:	49535245 	ldmdbmi	r3, {r0, r2, r6, r9, ip, lr}^
    8ce8:	22204e4f 	eorcs	r4, r0, #1264	; 0x4f0
    8cec:	2e312e34 	mrccs	14, 1, r2, cr1, cr4, {1}
    8cf0:	5f002230 	svcpl	0x00002230
    8cf4:	4843575f 	stmdami	r3, {r0, r1, r2, r3, r4, r6, r8, r9, sl, ip, lr}^
    8cf8:	575f5241 	ldrbpl	r5, [pc, -r1, asr #4]
    8cfc:	48544449 	ldmdami	r4, {r0, r3, r6, sl, lr}^
    8d00:	33205f5f 			; <UNDEFINED> instruction: 0x33205f5f
    8d04:	5f5f0032 	svcpl	0x005f0032
    8d08:	31544e49 	cmpcc	r4, r9, asr #28
    8d0c:	28435f36 	stmdacs	r3, {r1, r2, r4, r5, r8, r9, sl, fp, ip, lr}^
    8d10:	63202963 			; <UNDEFINED> instruction: 0x63202963
    8d14:	54564900 	ldrbpl	r4, [r6], #-2304	; 0xfffff700
    8d18:	5152495f 	cmppl	r2, pc, asr r9
    8d1c:	6d754e5f 	ldclvs	14, cr4, [r5, #-380]!	; 0xfffffe84
    8d20:	00726562 	rsbseq	r6, r2, r2, ror #10
    8d24:	41445f5f 	cmpmi	r4, pc, asr pc
    8d28:	4942495f 	stmdbmi	r2, {r0, r1, r2, r3, r4, r6, r8, fp, lr}^
    8d2c:	205f5f54 	subscs	r5, pc, r4, asr pc	; <UNPREDICTABLE>
    8d30:	5f003233 	svcpl	0x00003233
    8d34:	7274735f 	rsbsvc	r7, r4, #2080374785	; 0x7c000001
    8d38:	6d697466 	cfstrdvs	mvd7, [r9, #-408]!	; 0xfffffe68
    8d3c:	6b696c65 	blvs	1a63ed8 <_Min_Stack_Size+0x1a63ad8>
    8d40:	6d662865 	stclvs	8, cr2, [r6, #-404]!	; 0xfffffe6c
    8d44:	67726174 			; <UNDEFINED> instruction: 0x67726174
    8d48:	7269662c 	rsbvc	r6, r9, #44, 12	; 0x2c00000
    8d4c:	61767473 	cmnvs	r6, r3, ror r4
    8d50:	67726172 			; <UNDEFINED> instruction: 0x67726172
    8d54:	5f5f2029 	svcpl	0x005f2029
    8d58:	72747461 	rsbsvc	r7, r4, #1627389952	; 0x61000000
    8d5c:	74756269 	ldrbtvc	r6, [r5], #-617	; 0xfffffd97
    8d60:	285f5f65 	ldmdacs	pc, {r0, r2, r5, r6, r8, r9, sl, fp, ip, lr}^	; <UNPREDICTABLE>
    8d64:	665f5f28 	ldrbvs	r5, [pc], -r8, lsr #30
    8d68:	616d726f 	cmnvs	sp, pc, ror #4
    8d6c:	205f5f74 	subscs	r5, pc, r4, ror pc	; <UNPREDICTABLE>
    8d70:	735f5f28 	cmpvc	pc, #40, 30	; 0xa0
    8d74:	74667274 	strbtvc	r7, [r6], #-628	; 0xfffffd8c
    8d78:	5f656d69 	svcpl	0x00656d69
    8d7c:	66202c5f 			; <UNDEFINED> instruction: 0x66202c5f
    8d80:	7261746d 	rsbvc	r7, r1, #1828716544	; 0x6d000000
    8d84:	66202c67 	strtvs	r2, [r0], -r7, ror #24
    8d88:	74737269 	ldrbtvc	r7, [r3], #-617	; 0xfffffd97
    8d8c:	61726176 	cmnvs	r2, r6, ror r1
    8d90:	29296772 	stmdbcs	r9!, {r1, r4, r5, r6, r8, r9, sl, sp, lr}
    8d94:	5f5f0029 	svcpl	0x005f0029
    8d98:	55514544 	ldrbpl	r4, [r1, #-1348]	; 0xfffffabc
    8d9c:	46494c41 	strbmi	r4, [r9], -r1, asr #24
    8da0:	79742859 	ldmdbvc	r4!, {r0, r3, r4, r6, fp, sp}^
    8da4:	762c6570 			; <UNDEFINED> instruction: 0x762c6570
    8da8:	20297261 	eorcs	r7, r9, r1, ror #4
    8dac:	79742828 	ldmdbvc	r4!, {r3, r5, fp, sp}^
    8db0:	28296570 	stmdacs	r9!, {r4, r5, r6, r8, sl, sp, lr}
    8db4:	69755f5f 	ldmdbvs	r5!, {r0, r1, r2, r3, r4, r6, r8, r9, sl, fp, ip, lr}^
    8db8:	7470746e 	ldrbtvc	r7, [r0], #-1134	; 0xfffffb92
    8dbc:	29745f72 	ldmdbcs	r4!, {r1, r4, r5, r6, r8, r9, sl, fp, ip, lr}^
    8dc0:	6e6f6328 	cdpvs	3, 6, cr6, cr15, cr8, {1}
    8dc4:	76207473 			; <UNDEFINED> instruction: 0x76207473
    8dc8:	74616c6f 	strbtvc	r6, [r1], #-3183	; 0xfffff391
    8dcc:	20656c69 	rsbcs	r6, r5, r9, ror #24
    8dd0:	64696f76 	strbtvs	r6, [r9], #-3958	; 0xfffff08a
    8dd4:	28292a20 	stmdacs	r9!, {r5, r9, fp, sp}
    8dd8:	29726176 	ldmdbcs	r2!, {r1, r2, r4, r5, r6, r8, sp, lr}^
    8ddc:	5f5f0029 	svcpl	0x005f0029
    8de0:	6b636f6c 	blvs	18e4b98 <_Min_Stack_Size+0x18e4798>
    8de4:	696e695f 	stmdbvs	lr!, {r0, r1, r2, r3, r4, r6, r8, fp, sp, lr}^
    8de8:	65725f74 	ldrbvs	r5, [r2, #-3956]!	; 0xfffff08c
    8dec:	73727563 	cmnvc	r2, #415236096	; 0x18c00000
    8df0:	28657669 	stmdacs	r5!, {r0, r3, r5, r6, r9, sl, ip, sp, lr}^
    8df4:	6b636f6c 	blvs	18e4bac <_Min_Stack_Size+0x18e47ac>
    8df8:	5f5f2029 	svcpl	0x005f2029
    8dfc:	61746572 	cmnvs	r4, r2, ror r5
    8e00:	74656772 	strbtvc	r6, [r5], #-1906	; 0xfffff88e
    8e04:	636f6c5f 	cmnvs	pc, #24320	; 0x5f00
    8e08:	6e695f6b 	cdpvs	15, 6, cr5, cr9, cr11, {3}
    8e0c:	725f7469 	subsvc	r7, pc, #1761607680	; 0x69000000
    8e10:	72756365 	rsbsvc	r6, r5, #-1811939327	; 0x94000001
    8e14:	65766973 	ldrbvs	r6, [r6, #-2419]!	; 0xfffff68d
    8e18:	6f6c2628 	svcvs	0x006c2628
    8e1c:	00296b63 	eoreq	r6, r9, r3, ror #22
    8e20:	54415f5f 	strbpl	r5, [r1], #-3935	; 0xfffff0a1
    8e24:	43494d4f 	movtmi	r4, #40271	; 0x9d4f
    8e28:	5143415f 	cmppl	r3, pc, asr r1
    8e2c:	4c45525f 	sfmmi	f5, 2, [r5], {95}	; 0x5f
    8e30:	4e003420 	cfcpydmi	mvd3, mvd0
    8e34:	5f434956 	svcpl	0x00434956
    8e38:	49545845 	ldmdbmi	r4, {r0, r2, r6, fp, ip, lr}^
    8e3c:	52495f34 	subpl	r5, r9, #52, 30	; 0xd0
    8e40:	69445f51 	stmdbvs	r4, {r0, r4, r6, r8, r9, sl, fp, ip, lr}^
    8e44:	6c626173 	stfvse	f6, [r2], #-460	; 0xfffffe34
    8e48:	4e282065 	cdpmi	0, 2, cr2, cr8, cr5, {3}
    8e4c:	5f434956 	svcpl	0x00434956
    8e50:	52454349 	subpl	r4, r5, #603979777	; 0x24000001
    8e54:	3d7c2030 	ldclcc	0, cr2, [ip, #-192]!	; 0xffffff40
    8e58:	3c3c3120 	ldfccs	f3, [ip], #-128	; 0xffffff80
    8e5c:	00293031 	eoreq	r3, r9, r1, lsr r0
    8e60:	51485f5f 	cmppl	r8, pc, asr pc
    8e64:	4942495f 	stmdbmi	r2, {r0, r1, r2, r3, r4, r6, r8, fp, lr}^
    8e68:	205f5f54 	subscs	r5, pc, r4, asr pc	; <UNPREDICTABLE>
    8e6c:	5f5f0030 	svcpl	0x005f0030
    8e70:	6b636170 	blvs	18e1438 <_Min_Stack_Size+0x18e1038>
    8e74:	5f206465 	svcpl	0x00206465
    8e78:	7474615f 	ldrbtvc	r6, [r4], #-351	; 0xfffffea1
    8e7c:	75626972 	strbvc	r6, [r2, #-2418]!	; 0xfffff68e
    8e80:	5f5f6574 	svcpl	0x005f6574
    8e84:	5f5f2828 	svcpl	0x005f2828
    8e88:	6b636170 	blvs	18e1450 <_Min_Stack_Size+0x18e1050>
    8e8c:	5f5f6465 	svcpl	0x005f6465
    8e90:	5f002929 	svcpl	0x00002929
    8e94:	41484357 	cmpmi	r8, r7, asr r3
    8e98:	5f545f52 	svcpl	0x00545f52
    8e9c:	49464544 	stmdbmi	r6, {r2, r6, r8, sl, lr}^
    8ea0:	5f44454e 	svcpl	0x0044454e
    8ea4:	54530020 	ldrbpl	r0, [r3], #-32	; 0xffffffe0
    8ea8:	4632334d 	ldrtmi	r3, [r2], -sp, asr #6
    8eac:	00312031 	eorseq	r2, r1, r1, lsr r0
    8eb0:	49545845 	ldmdbmi	r4, {r0, r2, r6, fp, ip, lr}^
    8eb4:	38435038 	stmdacc	r3, {r3, r4, r5, ip, lr}^
    8eb8:	58452820 	stmdapl	r5, {r5, fp, sp}^
    8ebc:	475f4954 			; <UNDEFINED> instruction: 0x475f4954
    8ec0:	5f4f4950 	svcpl	0x004f4950
    8ec4:	7070614d 	rsbsvc	r6, r0, sp, asr #2
    8ec8:	5f676e69 	svcpl	0x00676e69
    8ecc:	457b2974 	ldrbmi	r2, [fp, #-2420]!	; 0xfffff68c
    8ed0:	38495458 	stmdacc	r9, {r3, r4, r6, sl, ip, lr}^
    8ed4:	5047202c 	subpl	r2, r7, ip, lsr #32
    8ed8:	2c434f49 	mcrrcs	15, 4, r4, r3, cr9
    8edc:	49504720 	ldmdbmi	r0, {r5, r8, r9, sl, lr}^
    8ee0:	49505f4f 	ldmdbmi	r0, {r0, r1, r2, r3, r6, r8, r9, sl, fp, ip, lr}^
    8ee4:	2c385f4e 	ldccs	15, cr5, [r8], #-312	; 0xfffffec8
    8ee8:	54584520 	ldrbpl	r4, [r8], #-1312	; 0xfffffae0
    8eec:	495f3849 	ldmdbmi	pc, {r0, r3, r6, fp, ip, sp}^	; <UNPREDICTABLE>
    8ef0:	007d5152 	rsbseq	r5, sp, r2, asr r1
    8ef4:	49545845 	ldmdbmi	r4, {r0, r2, r6, fp, ip, lr}^
    8ef8:	44503131 	ldrbmi	r3, [r0], #-305	; 0xfffffecf
    8efc:	28203131 	stmdacs	r0!, {r0, r4, r5, r8, ip, sp}
    8f00:	49545845 	ldmdbmi	r4, {r0, r2, r6, fp, ip, lr}^
    8f04:	4950475f 	ldmdbmi	r0, {r0, r1, r2, r3, r4, r6, r8, r9, sl, lr}^
    8f08:	614d5f4f 	cmpvs	sp, pc, asr #30
    8f0c:	6e697070 	mcrvs	0, 3, r7, cr9, cr0, {3}
    8f10:	29745f67 	ldmdbcs	r4!, {r0, r1, r2, r5, r6, r8, r9, sl, fp, ip, lr}^
    8f14:	5458457b 	ldrbpl	r4, [r8], #-1403	; 0xfffffa85
    8f18:	2c313149 	ldfcss	f3, [r1], #-292	; 0xfffffedc
    8f1c:	49504720 	ldmdbmi	r0, {r5, r8, r9, sl, lr}^
    8f20:	202c444f 	eorcs	r4, ip, pc, asr #8
    8f24:	4f495047 	svcmi	0x00495047
    8f28:	4e49505f 	mcrmi	0, 2, r5, cr9, cr15, {2}
    8f2c:	2c31315f 	ldfcss	f3, [r1], #-380	; 0xfffffe84
    8f30:	54584520 	ldrbpl	r4, [r8], #-1312	; 0xfffffae0
    8f34:	5f313149 	svcpl	0x00313149
    8f38:	7d515249 	lfmvc	f5, 2, [r1, #-292]	; 0xfffffedc
    8f3c:	4d495400 	cfstrdmi	mvd5, [r9, #-0]
    8f40:	425f3231 	subsmi	r3, pc, #268435459	; 0x10000003
    8f44:	20455341 	subcs	r5, r5, r1, asr #6
    8f48:	30347830 	eorscc	r7, r4, r0, lsr r8
    8f4c:	38313030 	ldmdacc	r1!, {r4, r5, ip, sp}
    8f50:	00753030 	rsbseq	r3, r5, r0, lsr r0
    8f54:	73615f5f 	cmnvc	r1, #380	; 0x17c
    8f58:	74726573 	ldrbtvc	r6, [r2], #-1395	; 0xfffffa8d
    8f5c:	68735f73 	ldmdavs	r3!, {r0, r1, r4, r5, r6, r8, r9, sl, fp, ip, lr}^
    8f60:	64657261 	strbtvs	r7, [r5], #-609	; 0xfffffd9f
    8f64:	2e2e2e28 	cdpcs	14, 2, cr2, cr14, cr8, {1}
    8f68:	5f5f2029 	svcpl	0x005f2029
    8f6c:	6b636f6c 	blvs	18e4d24 <_Min_Stack_Size+0x18e4924>
    8f70:	6e6e615f 	mcrvs	1, 3, r6, cr14, cr15, {2}
    8f74:	7461746f 	strbtvc	r7, [r1], #-1135	; 0xfffffb91
    8f78:	73612865 	cmnvc	r1, #6619136	; 0x650000
    8f7c:	74726573 	ldrbtvc	r6, [r2], #-1395	; 0xfffffa8d
    8f80:	6168735f 	cmnvs	r8, pc, asr r3
    8f84:	5f646572 	svcpl	0x00646572
    8f88:	6b636f6c 	blvs	18e4d40 <_Min_Stack_Size+0x18e4940>
    8f8c:	565f5f28 	ldrbpl	r5, [pc], -r8, lsr #30
    8f90:	52415f41 	subpl	r5, r1, #260	; 0x104
    8f94:	5f5f5347 	svcpl	0x005f5347
    8f98:	5f002929 	svcpl	0x00002929
    8f9c:	4e454552 	mcrmi	5, 2, r4, cr5, cr2, {2}
    8fa0:	4d535f54 	ldclmi	15, cr5, [r3, #-336]	; 0xfffffeb0
    8fa4:	5f4c4c41 	svcpl	0x004c4c41
    8fa8:	43454843 	movtmi	r4, #22595	; 0x5843
    8fac:	4e495f4b 	cdpmi	15, 4, cr5, cr9, cr11, {2}
    8fb0:	70285449 	eorvc	r5, r8, r9, asr #8
    8fb4:	20297274 	eorcs	r7, r9, r4, ror r2
    8fb8:	7b206f64 	blvc	824d50 <_Min_Stack_Size+0x824950>
    8fbc:	20666920 	rsbcs	r6, r6, r0, lsr #18
    8fc0:	74702828 	ldrbtvc	r2, [r0], #-2088	; 0xfffff7d8
    8fc4:	26202972 			; <UNDEFINED> instruction: 0x26202972
    8fc8:	28212026 	stmdacs	r1!, {r1, r2, r5, sp}
    8fcc:	29727470 	ldmdbcs	r2!, {r4, r5, r6, sl, ip, sp, lr}^
    8fd0:	5f5f3e2d 	svcpl	0x005f3e2d
    8fd4:	64696473 	strbtvs	r6, [r9], #-1139	; 0xfffffb8d
    8fd8:	74696e69 	strbtvc	r6, [r9], #-3689	; 0xfffff197
    8fdc:	5f5f2029 	svcpl	0x005f2029
    8fe0:	696e6973 	stmdbvs	lr!, {r0, r1, r4, r5, r6, r8, fp, sp, lr}^
    8fe4:	70282074 	eorvc	r2, r8, r4, ror r0
    8fe8:	3b297274 	blcc	a659c0 <_Min_Stack_Size+0xa655c0>
    8fec:	77207d20 	strvc	r7, [r0, -r0, lsr #26]!
    8ff0:	656c6968 	strbvs	r6, [ip, #-2408]!	; 0xfffff698
    8ff4:	29302820 	ldmdbcs	r0!, {r5, fp, sp}
    8ff8:	695f5f00 	ldmdbvs	pc, {r8, r9, sl, fp, ip, lr}^	; <UNPREDICTABLE>
    8ffc:	3032746e 	eorscc	r7, r2, lr, ror #8
    9000:	4d495400 	cfstrdmi	mvd5, [r9, #-0]
    9004:	41425f32 	cmpmi	r2, r2, lsr pc
    9008:	30204553 	eorcc	r4, r0, r3, asr r5
    900c:	30303478 	eorscc	r3, r0, r8, ror r4
    9010:	30303030 	eorscc	r3, r0, r0, lsr r0
    9014:	5f007530 	svcpl	0x00007530
    9018:	4f4e414e 	svcmi	0x004e414e
    901c:	524f465f 	subpl	r4, pc, #99614720	; 0x5f00000
    9020:	5454414d 	ldrbpl	r4, [r4], #-333	; 0xfffffeb3
    9024:	495f4445 	ldmdbmi	pc, {r0, r2, r6, sl, lr}^	; <UNPREDICTABLE>
    9028:	0031204f 	eorseq	r2, r1, pc, asr #32
    902c:	5f544e49 	svcpl	0x00544e49
    9030:	54534146 	ldrbpl	r4, [r3], #-326	; 0xfffffeba
    9034:	4d5f3233 	lfmmi	f3, 2, [pc, #-204]	; 8f70 <_Min_Stack_Size+0x8b70>
    9038:	28205841 	stmdacs	r0!, {r0, r6, fp, ip, lr}
    903c:	4e495f5f 	mcrmi	15, 2, r5, cr9, cr15, {2}
    9040:	41465f54 	cmpmi	r6, r4, asr pc
    9044:	32335453 	eorscc	r5, r3, #1392508928	; 0x53000000
    9048:	58414d5f 	stmdapl	r1, {r0, r1, r2, r3, r4, r6, r8, sl, fp, lr}^
    904c:	00295f5f 	eoreq	r5, r9, pc, asr pc
    9050:	4c465f5f 	mcrrmi	15, 5, r5, r6, cr15
    9054:	5f323354 	svcpl	0x00323354
    9058:	4d524f4e 	ldclmi	15, cr4, [r2, #-312]	; 0xfffffec8
    905c:	58414d5f 	stmdapl	r1, {r0, r1, r2, r3, r4, r6, r8, sl, fp, lr}^
    9060:	33205f5f 			; <UNDEFINED> instruction: 0x33205f5f
    9064:	3230342e 	eorscc	r3, r0, #771751936	; 0x2e000000
    9068:	34333238 	ldrtcc	r3, [r3], #-568	; 0xfffffdc8
    906c:	38333636 	ldmdacc	r3!, {r1, r2, r4, r5, r9, sl, ip, sp}
    9070:	38383235 	ldmdacc	r8!, {r0, r2, r4, r5, r9, ip, sp}
    9074:	332b6536 			; <UNDEFINED> instruction: 0x332b6536
    9078:	32334638 	eorscc	r4, r3, #56, 12	; 0x3800000
    907c:	49564e00 	ldmdbmi	r6, {r9, sl, fp, lr}^
    9080:	53555f43 	cmppl	r5, #268	; 0x10c
    9084:	31545241 	cmpcc	r4, r1, asr #4
    9088:	5152495f 	cmppl	r2, pc, asr r9
    908c:	616e455f 	cmnvs	lr, pc, asr r5
    9090:	20656c62 	rsbcs	r6, r5, r2, ror #24
    9094:	49564e28 	ldmdbmi	r6, {r3, r5, r9, sl, fp, lr}^
    9098:	53495f43 	movtpl	r5, #40771	; 0x9f43
    909c:	20315245 	eorscs	r5, r1, r5, asr #4
    90a0:	31203d7c 			; <UNDEFINED> instruction: 0x31203d7c
    90a4:	55283c3c 	strpl	r3, [r8, #-3132]!	; 0xfffff3c4
    90a8:	54524153 	ldrbpl	r4, [r2], #-339	; 0xfffffead
    90ac:	52495f31 	subpl	r5, r9, #49, 30	; 0xc4
    90b0:	202d2051 	eorcs	r2, sp, r1, asr r0
    90b4:	29293233 	stmdbcs	r9!, {r0, r1, r4, r5, r9, ip, sp}
    90b8:	45525f00 	ldrbmi	r5, [r2, #-3840]	; 0xfffff100
    90bc:	5f544e45 	svcpl	0x00544e45
    90c0:	54435341 	strbpl	r5, [r3], #-833	; 0xfffffcbf
    90c4:	5f454d49 	svcpl	0x00454d49
    90c8:	455a4953 	ldrbmi	r4, [sl, #-2387]	; 0xfffff6ad
    90cc:	00363220 	eorseq	r3, r6, r0, lsr #4
    90d0:	5f434352 	svcpl	0x00434352
    90d4:	4f495047 	svcmi	0x00495047
    90d8:	4c435f41 	mcrrmi	15, 4, r5, r3, cr1
    90dc:	4e455f4b 	cdpmi	15, 4, cr5, cr5, cr11, {2}
    90e0:	28202928 	stmdacs	r0!, {r3, r5, r8, fp, sp}
    90e4:	2d434352 	stclcs	3, cr4, [r3, #-328]	; 0xfffffeb8
    90e8:	4250413e 	subsmi	r4, r0, #-2147483633	; 0x8000000f
    90ec:	524e4532 	subpl	r4, lr, #209715200	; 0xc800000
    90f0:	203d7c20 	eorscs	r7, sp, r0, lsr #24
    90f4:	3c3c3128 	ldfccs	f3, [ip], #-160	; 0xffffff60
    90f8:	00292932 	eoreq	r2, r9, r2, lsr r9
    90fc:	50544e49 	subspl	r4, r4, r9, asr #28
    9100:	4d5f5254 	lfmmi	f5, 2, [pc, #-336]	; 8fb8 <_Min_Stack_Size+0x8bb8>
    9104:	28204e49 	stmdacs	r0!, {r0, r3, r6, r9, sl, fp, lr}
    9108:	495f5f2d 	ldmdbmi	pc, {r0, r2, r3, r5, r8, r9, sl, fp, ip, lr}^	; <UNPREDICTABLE>
    910c:	5450544e 	ldrbpl	r5, [r0], #-1102	; 0xfffffbb2
    9110:	414d5f52 	cmpmi	sp, r2, asr pc
    9114:	205f5f58 	subscs	r5, pc, r8, asr pc	; <UNPREDICTABLE>
    9118:	2931202d 	ldmdbcs	r1!, {r0, r2, r3, r5, sp}
    911c:	52545000 	subspl	r5, r4, #0
    9120:	46464944 	strbmi	r4, [r6], -r4, asr #18
    9124:	4e494d5f 	mcrmi	13, 2, r4, cr9, cr15, {2}
    9128:	502d2820 	eorpl	r2, sp, r0, lsr #16
    912c:	49445254 	stmdbmi	r4, {r2, r4, r6, r9, ip, lr}^
    9130:	4d5f4646 	ldclmi	6, cr4, [pc, #-280]	; 9020 <_Min_Stack_Size+0x8c20>
    9134:	2d205841 	stccs	8, cr5, [r0, #-260]!	; 0xfffffefc
    9138:	00293120 	eoreq	r3, r9, r0, lsr #2
    913c:	534f505f 	movtpl	r5, #61535	; 0xf05f
    9140:	435f5849 	cmpmi	pc, #4784128	; 0x490000
    9144:	554f535f 	strbpl	r5, [pc, #-863]	; 8ded <_Min_Stack_Size+0x89ed>
    9148:	00454352 	subeq	r4, r5, r2, asr r3
    914c:	49555f5f 	ldmdbmi	r5, {r0, r1, r2, r3, r4, r6, r8, r9, sl, fp, ip, lr}^
    9150:	414d544e 	cmpmi	sp, lr, asr #8
    9154:	414d5f58 	cmpmi	sp, r8, asr pc
    9158:	205f5f58 	subscs	r5, pc, r8, asr pc	; <UNPREDICTABLE>
    915c:	66667830 			; <UNDEFINED> instruction: 0x66667830
    9160:	66666666 	strbtvs	r6, [r6], -r6, ror #12
    9164:	66666666 	strbtvs	r6, [r6], -r6, ror #12
    9168:	66666666 	strbtvs	r6, [r6], -r6, ror #12
    916c:	4c556666 	mrrcmi	6, 6, r6, r5, cr6
    9170:	564e004c 	strbpl	r0, [lr], -ip, asr #32
    9174:	555f4349 	ldrbpl	r4, [pc, #-841]	; 8e33 <_Min_Stack_Size+0x8a33>
    9178:	54524153 	ldrbpl	r4, [r2], #-339	; 0xfffffead
    917c:	52495f32 	subpl	r5, r9, #50, 30	; 0xc8
    9180:	6e455f51 	mcrvs	15, 2, r5, cr5, cr1, {2}
    9184:	656c6261 	strbvs	r6, [ip, #-609]!	; 0xfffffd9f
    9188:	564e2820 	strbpl	r2, [lr], -r0, lsr #16
    918c:	495f4349 	ldmdbmi	pc, {r0, r3, r6, r8, r9, lr}^	; <UNPREDICTABLE>
    9190:	31524553 	cmpcc	r2, r3, asr r5
    9194:	203d7c20 	eorscs	r7, sp, r0, lsr #24
    9198:	283c3c31 	ldmdacs	ip!, {r0, r4, r5, sl, fp, ip, sp}
    919c:	52415355 	subpl	r5, r1, #1409286145	; 0x54000001
    91a0:	495f3254 	ldmdbmi	pc, {r2, r4, r6, r9, ip, sp}^	; <UNPREDICTABLE>
    91a4:	2d205152 	stfcss	f5, [r0, #-328]!	; 0xfffffeb8
    91a8:	29323320 	ldmdbcs	r2!, {r5, r8, r9, ip, sp}
    91ac:	5f5f0029 	svcpl	0x005f0029
    91b0:	5f4c4244 	svcpl	0x004c4244
    91b4:	544e414d 	strbpl	r4, [lr], #-333	; 0xfffffeb3
    91b8:	4749445f 	smlsldmi	r4, r9, pc, r4	; <UNPREDICTABLE>
    91bc:	35205f5f 	strcc	r5, [r0, #-3935]!	; 0xfffff0a1
    91c0:	58450033 	stmdapl	r5, {r0, r1, r4, r5}^
    91c4:	50314954 	eorspl	r4, r1, r4, asr r9
    91c8:	28203144 	stmdacs	r0!, {r2, r6, r8, ip, sp}
    91cc:	49545845 	ldmdbmi	r4, {r0, r2, r6, fp, ip, lr}^
    91d0:	4950475f 	ldmdbmi	r0, {r0, r1, r2, r3, r4, r6, r8, r9, sl, lr}^
    91d4:	614d5f4f 	cmpvs	sp, pc, asr #30
    91d8:	6e697070 	mcrvs	0, 3, r7, cr9, cr0, {3}
    91dc:	29745f67 	ldmdbcs	r4!, {r0, r1, r2, r5, r6, r8, r9, sl, fp, ip, lr}^
    91e0:	5458457b 	ldrbpl	r4, [r8], #-1403	; 0xfffffa85
    91e4:	202c3149 	eorcs	r3, ip, r9, asr #2
    91e8:	4f495047 	svcmi	0x00495047
    91ec:	47202c44 	strmi	r2, [r0, -r4, asr #24]!
    91f0:	5f4f4950 	svcpl	0x004f4950
    91f4:	5f4e4950 	svcpl	0x004e4950
    91f8:	45202c31 	strmi	r2, [r0, #-3121]!	; 0xfffff3cf
    91fc:	31495458 	cmpcc	r9, r8, asr r4
    9200:	5152495f 	cmppl	r2, pc, asr r9
    9204:	5f5f007d 	svcpl	0x005f007d
    9208:	52464c55 	subpl	r4, r6, #21760	; 0x5500
    920c:	5f544341 	svcpl	0x00544341
    9210:	54494249 	strbpl	r4, [r9], #-585	; 0xfffffdb7
    9214:	30205f5f 	eorcc	r5, r0, pc, asr pc
    9218:	4d495400 	cfstrdmi	mvd5, [r9, #-0]
    921c:	41425f31 	cmpmi	r2, r1, lsr pc
    9220:	30204553 	eorcc	r4, r0, r3, asr r5
    9224:	30303478 	eorscc	r3, r0, r8, ror r4
    9228:	30433231 	subcc	r3, r3, r1, lsr r2
    922c:	45007530 	strmi	r7, [r0, #-1328]	; 0xfffffad0
    9230:	32495458 	subcc	r5, r9, #88, 8	; 0x58000000
    9234:	20324250 	eorscs	r4, r2, r0, asr r2
    9238:	54584528 	ldrbpl	r4, [r8], #-1320	; 0xfffffad8
    923c:	50475f49 	subpl	r5, r7, r9, asr #30
    9240:	4d5f4f49 	ldclmi	15, cr4, [pc, #-292]	; 9124 <_Min_Stack_Size+0x8d24>
    9244:	69707061 	ldmdbvs	r0!, {r0, r5, r6, ip, sp, lr}^
    9248:	745f676e 	ldrbvc	r6, [pc], #-1902	; 9250 <_Min_Stack_Size+0x8e50>
    924c:	58457b29 	stmdapl	r5, {r0, r3, r5, r8, r9, fp, ip, sp, lr}^
    9250:	2c324954 			; <UNDEFINED> instruction: 0x2c324954
    9254:	49504720 	ldmdbmi	r0, {r5, r8, r9, sl, lr}^
    9258:	202c424f 	eorcs	r4, ip, pc, asr #4
    925c:	4f495047 	svcmi	0x00495047
    9260:	4e49505f 	mcrmi	0, 2, r5, cr9, cr15, {2}
    9264:	202c325f 	eorcs	r3, ip, pc, asr r2
    9268:	49545845 	ldmdbmi	r4, {r0, r2, r6, fp, ip, lr}^
    926c:	52495f32 	subpl	r5, r9, #50, 30	; 0xc8
    9270:	5f007d51 	svcpl	0x00007d51
    9274:	5359535f 	cmppl	r9, #2080374785	; 0x7c000001
    9278:	434f4c5f 	movtmi	r4, #64607	; 0xfc5f
    927c:	5f485f4b 	svcpl	0x00485f4b
    9280:	5f00205f 	svcpl	0x0000205f
    9284:	736f6e5f 	cmnvc	pc, #1520	; 0x5f0
    9288:	74696e61 	strbtvc	r6, [r9], #-3681	; 0xfffff19f
    928c:	74657a69 	strbtvc	r7, [r5], #-2665	; 0xfffff597
    9290:	61657268 	cmnvs	r5, r8, ror #4
    9294:	5f002064 	svcpl	0x00002064
    9298:	544e495f 	strbpl	r4, [lr], #-2399	; 0xfffff6a1
    929c:	58414d5f 	stmdapl	r1, {r0, r1, r2, r3, r4, r6, r8, sl, fp, lr}^
    92a0:	30205f5f 	eorcc	r5, r0, pc, asr pc
    92a4:	66663778 			; <UNDEFINED> instruction: 0x66663778
    92a8:	66666666 	strbtvs	r6, [r6], -r6, ror #12
    92ac:	5f5f0066 	svcpl	0x005f0066
    92b0:	5f544e49 	svcpl	0x00544e49
    92b4:	5341454c 	movtpl	r4, #5452	; 0x154c
    92b8:	5f343654 	svcpl	0x00343654
    92bc:	45505954 	ldrbmi	r5, [r0, #-2388]	; 0xfffff6ac
    92c0:	6c205f5f 	stcvs	15, cr5, [r0], #-380	; 0xfffffe84
    92c4:	20676e6f 	rsbcs	r6, r7, pc, ror #28
    92c8:	676e6f6c 	strbvs	r6, [lr, -ip, ror #30]!
    92cc:	746e6920 	strbtvc	r6, [lr], #-2336	; 0xfffff6e0
    92d0:	54584500 	ldrbpl	r4, [r8], #-1280	; 0xfffffb00
    92d4:	50333149 	eorspl	r3, r3, r9, asr #2
    92d8:	20333144 	eorscs	r3, r3, r4, asr #2
    92dc:	54584528 	ldrbpl	r4, [r8], #-1320	; 0xfffffad8
    92e0:	50475f49 	subpl	r5, r7, r9, asr #30
    92e4:	4d5f4f49 	ldclmi	15, cr4, [pc, #-292]	; 91c8 <_Min_Stack_Size+0x8dc8>
    92e8:	69707061 	ldmdbvs	r0!, {r0, r5, r6, ip, sp, lr}^
    92ec:	745f676e 	ldrbvc	r6, [pc], #-1902	; 92f4 <_Min_Stack_Size+0x8ef4>
    92f0:	58457b29 	stmdapl	r5, {r0, r3, r5, r8, r9, fp, ip, sp, lr}^
    92f4:	33314954 	teqcc	r1, #84, 18	; 0x150000
    92f8:	5047202c 	subpl	r2, r7, ip, lsr #32
    92fc:	2c444f49 	mcrrcs	15, 4, r4, r4, cr9
    9300:	49504720 	ldmdbmi	r0, {r5, r8, r9, sl, lr}^
    9304:	49505f4f 	ldmdbmi	r0, {r0, r1, r2, r3, r6, r8, r9, sl, fp, ip, lr}^
    9308:	33315f4e 	teqcc	r1, #312	; 0x138
    930c:	5845202c 	stmdapl	r5, {r2, r3, r5, sp}^
    9310:	33314954 	teqcc	r1, #84, 18	; 0x150000
    9314:	5152495f 	cmppl	r2, pc, asr r9
    9318:	5f5f007d 	svcpl	0x005f007d
    931c:	5f4d5241 	svcpl	0x004d5241
    9320:	54414546 	strbpl	r4, [r1], #-1350	; 0xfffffaba
    9324:	5f455255 	svcpl	0x00455255
    9328:	5f454443 	svcpl	0x00454443
    932c:	52504f43 	subspl	r4, r0, #268	; 0x10c
    9330:	5f00434f 	svcpl	0x0000434f
    9334:	5245565f 	subpl	r5, r5, #99614720	; 0x5f00000
    9338:	4e4f4953 			; <UNDEFINED> instruction: 0x4e4f4953
    933c:	22205f5f 	eorcs	r5, r0, #380	; 0x17c
    9340:	332e3031 			; <UNDEFINED> instruction: 0x332e3031
    9344:	3220312e 	eorcc	r3, r0, #-2147483637	; 0x8000000b
    9348:	30313230 	eorscc	r3, r1, r0, lsr r2
    934c:	20343238 	eorscs	r3, r4, r8, lsr r2
    9350:	6c657228 	sfmvs	f7, 2, [r5], #-160	; 0xffffff60
    9354:	65736165 	ldrbvs	r6, [r3, #-357]!	; 0xfffffe9b
    9358:	2e002229 	cdpcs	2, 0, cr2, cr0, cr9, {1}
    935c:	74532f2e 	ldrbvc	r2, [r3], #-3886	; 0xfffff0d2
    9360:	75747261 	ldrbvc	r7, [r4, #-609]!	; 0xfffffd9f
    9364:	74732f70 	ldrbtvc	r2, [r3], #-3952	; 0xfffff090
    9368:	75747261 	ldrbvc	r7, [r4, #-609]!	; 0xfffffd9f
    936c:	74735f70 	ldrbtvc	r5, [r3], #-3952	; 0xfffff090
    9370:	6632336d 	ldrtvs	r3, [r2], -sp, ror #6
    9374:	63333031 	teqvs	r3, #49	; 0x31
    9378:	2e787436 	mrccs	4, 3, r7, cr8, cr6, {1}
    937c:	4e470073 	mcrmi	0, 2, r0, cr7, cr3, {3}
    9380:	53412055 	movtpl	r2, #4181	; 0x1055
    9384:	332e3220 			; <UNDEFINED> instruction: 0x332e3220
    9388:	00312e36 	eorseq	r2, r1, r6, lsr lr
    938c:	4c41434d 	mcrrmi	3, 4, r4, r1, cr13
    9390:	4950475f 	ldmdbmi	r0, {r0, r1, r2, r3, r4, r6, r8, r9, sl, lr}^
    9394:	6e495f4f 	cdpvs	15, 4, cr5, cr9, cr15, {2}
    9398:	45007469 	strmi	r7, [r0, #-1129]	; 0xfffffb97
    939c:	43495458 	movtmi	r5, #37976	; 0x9458
    93a0:	54460052 	strbpl	r0, [r6], #-82	; 0xffffffae
    93a4:	4d005253 	sfmmi	f5, 4, [r0, #-332]	; 0xfffffeb4
    93a8:	5f6c6163 	svcpl	0x006c6163
    93ac:	49545845 	ldmdbmi	r4, {r0, r2, r6, fp, ip, lr}^
    93b0:	4950475f 	ldmdbmi	r0, {r0, r1, r2, r3, r4, r6, r8, r9, sl, lr}^
    93b4:	70755f4f 	rsbsvc	r5, r5, pc, asr #30
    93b8:	65746164 	ldrbvs	r6, [r4, #-356]!	; 0xfffffe9c
    93bc:	53545200 	cmppl	r4, #0, 4
    93c0:	50470052 	subpl	r0, r7, r2, asr r0
    93c4:	4d5f4f49 	ldclmi	15, cr4, [pc, #-292]	; 92a8 <_Min_Stack_Size+0x8ea8>
    93c8:	0045444f 	subeq	r4, r5, pc, asr #8
    93cc:	49545845 	ldmdbmi	r4, {r0, r2, r6, fp, ip, lr}^
    93d0:	52495f34 	subpl	r5, r9, #52, 30	; 0xd0
    93d4:	6e614851 	mcrvs	8, 3, r4, cr1, cr1, {2}
    93d8:	72656c64 	rsbvc	r6, r5, #100, 24	; 0x6400
    93dc:	49464100 	stmdbmi	r6, {r8, lr}^
    93e0:	58455f4f 	stmdapl	r5, {r0, r1, r2, r3, r6, r8, r9, sl, fp, ip, lr}^
    93e4:	52434954 	subpl	r4, r3, #84, 18	; 0x150000
    93e8:	736f505f 	cmnvc	pc, #95	; 0x5f
    93ec:	6f697469 	svcvs	0x00697469
    93f0:	5047006e 	subpl	r0, r7, lr, rrx
    93f4:	505f4f49 	subspl	r4, pc, r9, asr #30
    93f8:	6f436e69 	svcvs	0x00436e69
    93fc:	6769666e 	strbvs	r6, [r9, -lr, ror #12]!
    9400:	4d00745f 	cfstrsmi	mvf7, [r0, #-380]	; 0xfffffe84
    9404:	32525041 	subscc	r5, r2, #65	; 0x41
    9408:	61634d00 	cmnvs	r3, r0, lsl #26
    940c:	58455f6c 	stmdapl	r5, {r2, r3, r5, r6, r8, r9, sl, fp, ip, lr}^
    9410:	475f4954 			; <UNDEFINED> instruction: 0x475f4954
    9414:	5f4f4950 	svcpl	0x004f4950
    9418:	6e496544 	cdpvs	5, 4, cr6, cr9, cr4, {2}
    941c:	47007469 	strmi	r7, [r0, -r9, ror #8]
    9420:	5f4f4950 	svcpl	0x004f4950
    9424:	5054554f 	subspl	r5, r4, pc, asr #10
    9428:	535f5455 	cmppl	pc, #1426063360	; 0x55000000
    942c:	44454550 	strbmi	r4, [r5], #-1360	; 0xfffffab0
    9430:	2f2e2e00 	svccs	0x002e2e00
    9434:	336d7473 	cmncc	sp, #1929379840	; 0x73000000
    9438:	31665f32 	cmncc	r6, r2, lsr pc
    943c:	36633330 			; <UNDEFINED> instruction: 0x36633330
    9440:	6972645f 	ldmdbvs	r2!, {r0, r1, r2, r3, r4, r6, sl, sp, lr}^
    9444:	73726576 	cmnvc	r2, #494927872	; 0x1d800000
    9448:	6d74732f 	ldclvs	3, cr7, [r4, #-188]!	; 0xffffff44
    944c:	665f3233 			; <UNDEFINED> instruction: 0x665f3233
    9450:	63333031 	teqvs	r3, #49	; 0x31
    9454:	72645f36 	rsbvc	r5, r4, #54, 30	; 0xd8
    9458:	72657669 	rsbvc	r7, r5, #110100480	; 0x6900000
    945c:	58455f73 	stmdapl	r5, {r0, r1, r4, r5, r6, r8, r9, sl, fp, ip, lr}^
    9460:	632e4954 			; <UNDEFINED> instruction: 0x632e4954
    9464:	51524900 	cmppl	r2, r0, lsl #18
    9468:	6d756e5f 	ldclvs	14, cr6, [r5, #-380]!	; 0xfffffe84
    946c:	49464100 	stmdbmi	r6, {r8, lr}^
    9470:	50475f4f 	subpl	r5, r7, pc, asr #30
    9474:	4d5f4f49 	ldclmi	15, cr4, [pc, #-292]	; 9358 <_Min_Stack_Size+0x8f58>
    9478:	69707061 	ldmdbvs	r0!, {r0, r5, r6, ip, sp, lr}^
    947c:	7828676e 	stmdavc	r8!, {r1, r2, r3, r5, r6, r8, r9, sl, sp, lr}
    9480:	20282029 	eorcs	r2, r8, r9, lsr #32
    9484:	3d3d7828 	ldccc	8, cr7, [sp, #-160]!	; 0xffffff60
    9488:	4f495047 	svcmi	0x00495047
    948c:	303f2941 	eorscc	r2, pc, r1, asr #18
    9490:	7828203a 	stmdavc	r8!, {r1, r3, r4, r5, sp}
    9494:	50473d3d 	subpl	r3, r7, sp, lsr sp
    9498:	29424f49 	stmdbcs	r2, {r0, r3, r6, r8, r9, sl, fp, lr}^
    949c:	203a313f 	eorscs	r3, sl, pc, lsr r1
    94a0:	3d3d7828 	ldccc	8, cr7, [sp, #-160]!	; 0xffffff60
    94a4:	4f495047 	svcmi	0x00495047
    94a8:	323f2943 	eorscc	r2, pc, #1097728	; 0x10c000
    94ac:	7828203a 	stmdavc	r8!, {r1, r3, r4, r5, sp}
    94b0:	50473d3d 	subpl	r3, r7, sp, lsr sp
    94b4:	29444f49 	stmdbcs	r4, {r0, r3, r6, r8, r9, sl, fp, lr}^
    94b8:	303a333f 	eorscc	r3, sl, pc, lsr r3
    94bc:	47002920 	strmi	r2, [r0, -r0, lsr #18]
    94c0:	52495f50 	subpl	r5, r9, #80, 30	; 0x140
    94c4:	61435f51 	cmpvs	r3, r1, asr pc
    94c8:	61426c6c 	cmpvs	r2, ip, ror #24
    94cc:	45006b63 	strmi	r6, [r0, #-2915]	; 0xfffff49d
    94d0:	5f495458 	svcpl	0x00495458
    94d4:	65707954 	ldrbvs	r7, [r0, #-2388]!	; 0xfffff6ac
    94d8:	5f666564 	svcpl	0x00666564
    94dc:	49500074 	ldmdbmi	r0, {r2, r4, r5, r6}^
    94e0:	4e4f434e 	cdpmi	3, 4, cr4, cr15, cr14, {2}
    94e4:	00474946 	subeq	r4, r7, r6, asr #18
    94e8:	45495753 	strbmi	r5, [r9, #-1875]	; 0xfffff8ad
    94ec:	414d0052 	qdaddmi	r0, r2, sp
    94f0:	45005250 	strmi	r5, [r0, #-592]	; 0xfffffdb0
    94f4:	32495458 	subcc	r5, r9, #88, 8	; 0x58000000
    94f8:	5152495f 	cmppl	r2, pc, asr r9
    94fc:	646e6148 	strbtvs	r6, [lr], #-328	; 0xfffffeb8
    9500:	0072656c 	rsbseq	r6, r2, ip, ror #10
    9504:	61647075 	smcvs	18181	; 0x4705
    9508:	455f6574 	ldrbmi	r6, [pc, #-1396]	; 8f9c <_Min_Stack_Size+0x8b9c>
    950c:	00495458 	subeq	r5, r9, r8, asr r4
    9510:	49545845 	ldmdbmi	r4, {r0, r2, r6, fp, ip, lr}^
    9514:	5f355f39 	svcpl	0x00355f39
    9518:	48515249 	ldmdami	r1, {r0, r3, r6, r9, ip, lr}^
    951c:	6c646e61 	stclvs	14, cr6, [r4], #-388	; 0xfffffe7c
    9520:	41007265 	tstmi	r0, r5, ror #4
    9524:	5f4f4946 	svcpl	0x004f4946
    9528:	65707954 	ldrbvs	r7, [r0, #-2388]!	; 0xfffff6ac
    952c:	5f666564 	svcpl	0x00666564
    9530:	58450074 	stmdapl	r5, {r2, r4, r5, r6}^
    9534:	705f4954 	subsvc	r4, pc, r4, asr r9	; <UNPREDICTABLE>
    9538:	6f636e69 	svcvs	0x00636e69
    953c:	6769666e 	strbvs	r6, [r9, -lr, ror #12]!
    9540:	49504700 	ldmdbmi	r0, {r8, r9, sl, lr}^
    9544:	69505f4f 	ldmdbvs	r0, {r0, r1, r2, r3, r6, r8, r9, sl, fp, ip, lr}^
    9548:	6d754e6e 	ldclvs	14, cr4, [r5, #-440]!	; 0xfffffe48
    954c:	00726562 	rsbseq	r6, r2, r2, ror #10
    9550:	49545845 	ldmdbmi	r4, {r0, r2, r6, fp, ip, lr}^
    9554:	52495f33 	subpl	r5, r9, #51, 30	; 0xcc
    9558:	6e614851 	mcrvs	8, 3, r4, cr1, cr1, {2}
    955c:	72656c64 	rsbvc	r6, r5, #100, 24	; 0x6400
    9560:	49464100 	stmdbmi	r6, {r8, lr}^
    9564:	58455f4f 	stmdapl	r5, {r0, r1, r2, r3, r6, r8, r9, sl, fp, ip, lr}^
    9568:	52434954 	subpl	r4, r3, #84, 18	; 0x150000
    956c:	646e695f 	strbtvs	r6, [lr], #-2399	; 0xfffff6a1
    9570:	45007865 	strmi	r7, [r0, #-2149]	; 0xfffff79b
    9574:	30495458 	subcc	r5, r9, r8, asr r4
    9578:	5152495f 	cmppl	r2, pc, asr r9
    957c:	646e6148 	strbtvs	r6, [lr], #-328	; 0xfffffeb8
    9580:	0072656c 	rsbseq	r6, r2, ip, ror #10
    9584:	52435645 	subpl	r5, r3, #72351744	; 0x4500000
    9588:	54584500 	ldrbpl	r4, [r8], #-1280	; 0xfffffb00
    958c:	5f353149 	svcpl	0x00353149
    9590:	495f3031 	ldmdbmi	pc, {r0, r4, r5, ip, sp}^	; <UNPREDICTABLE>
    9594:	61485152 	cmpvs	r8, r2, asr r1
    9598:	656c646e 	strbvs	r6, [ip, #-1134]!	; 0xfffffb92
    959c:	65720072 	ldrbvs	r0, [r2, #-114]!	; 0xffffff8e
    95a0:	76726573 			; <UNDEFINED> instruction: 0x76726573
    95a4:	44006465 	strmi	r6, [r0], #-1125	; 0xfffffb9b
    95a8:	62617369 	rsbvs	r7, r1, #-1543503871	; 0xa4000001
    95ac:	4e5f656c 	cdpmi	5, 5, cr6, cr15, cr12, {3}
    95b0:	00434956 	subeq	r4, r3, r6, asr r9
    95b4:	49545845 	ldmdbmi	r4, {r0, r2, r6, fp, ip, lr}^
    95b8:	52495f31 	subpl	r5, r9, #49, 30	; 0xc4
    95bc:	6e614851 	mcrvs	8, 3, r4, cr1, cr1, {2}
    95c0:	72656c64 	rsbvc	r6, r5, #100, 24	; 0x6400
    95c4:	616e4500 	cmnvs	lr, r0, lsl #10
    95c8:	5f656c62 	svcpl	0x00656c62
    95cc:	4349564e 	movtmi	r5, #38478	; 0x964e
    95d0:	2f2e2e00 	svccs	0x002e2e00
    95d4:	336d7473 	cmncc	sp, #1929379840	; 0x73000000
    95d8:	31665f32 	cmncc	r6, r2, lsr pc
    95dc:	36633330 			; <UNDEFINED> instruction: 0x36633330
    95e0:	6972645f 	ldmdbvs	r2!, {r0, r1, r2, r3, r4, r6, sl, sp, lr}^
    95e4:	73726576 	cmnvc	r2, #494927872	; 0x1d800000
    95e8:	6d74732f 	ldclvs	3, cr7, [r4, #-188]!	; 0xffffff44
    95ec:	665f3233 			; <UNDEFINED> instruction: 0x665f3233
    95f0:	63333031 	teqvs	r3, #49	; 0x31
    95f4:	72645f36 	rsbvc	r5, r4, #54, 30	; 0xd8
    95f8:	72657669 	rsbvc	r7, r5, #110100480	; 0x6900000
    95fc:	70675f73 	rsbvc	r5, r7, r3, ror pc
    9600:	632e6f69 			; <UNDEFINED> instruction: 0x632e6f69
    9604:	74654700 	strbtvc	r4, [r5], #-1792	; 0xfffff900
    9608:	4c52435f 	mrrcmi	3, 5, r4, r2, cr15
    960c:	6f505f48 	svcvs	0x00505f48
    9610:	69746973 	ldmdbvs	r4!, {r0, r1, r4, r5, r6, r8, fp, sp, lr}^
    9614:	76006e6f 	strvc	r6, [r0], -pc, ror #28
    9618:	65756c61 	ldrbvs	r6, [r5, #-3169]!	; 0xfffff39f
    961c:	6e695000 	cdpvs	0, 6, cr5, cr9, cr0, {0}
    9620:	666e6f43 	strbtvs	r6, [lr], -r3, asr #30
    9624:	4d006769 	stcmi	7, cr6, [r0, #-420]	; 0xfffffe5c
    9628:	5f4c4143 	svcpl	0x004c4143
    962c:	4f495047 	svcmi	0x00495047
    9630:	676f545f 			; <UNDEFINED> instruction: 0x676f545f
    9634:	50656c67 	rsbpl	r6, r5, r7, ror #24
    9638:	47006e69 	strmi	r6, [r0, -r9, ror #28]
    963c:	784f4950 	stmdavc	pc, {r4, r6, r8, fp, lr}^	; <UNPREDICTABLE>
    9640:	41434d00 	cmpmi	r3, r0, lsl #26
    9644:	50475f4c 	subpl	r5, r7, ip, asr #30
    9648:	525f4f49 	subspl	r4, pc, #292	; 0x124
    964c:	50646165 	rsbpl	r6, r4, r5, ror #2
    9650:	50006e69 	andpl	r6, r0, r9, ror #28
    9654:	435f4e49 	cmpmi	pc, #1168	; 0x490
    9658:	49464e4f 	stmdbmi	r6, {r0, r1, r2, r3, r6, r9, sl, fp, lr}^
    965c:	434d0047 	movtmi	r0, #53319	; 0xd047
    9660:	475f4c41 	ldrbmi	r4, [pc, -r1, asr #24]
    9664:	5f4f4950 	svcpl	0x004f4950
    9668:	74697257 	strbtvc	r7, [r9], #-599	; 0xfffffda9
    966c:	6e695065 	cdpvs	0, 6, cr5, cr9, cr5, {3}
    9670:	41434d00 	cmpmi	r3, r0, lsl #26
    9674:	50475f4c 	subpl	r5, r7, ip, asr #30
    9678:	575f4f49 	ldrbpl	r4, [pc, -r9, asr #30]
    967c:	65746972 	ldrbvs	r6, [r4, #-2418]!	; 0xfffff68e
    9680:	74726f50 	ldrbtvc	r6, [r2], #-3920	; 0xfffff0b0
    9684:	726f7000 	rsbvc	r7, pc, #0
    9688:	6c615674 	stclvs	6, cr5, [r1], #-464	; 0xfffffe30
    968c:	4d006575 	cfstr32mi	mvfx6, [r0, #-468]	; 0xfffffe2c
    9690:	5f4c4143 	svcpl	0x004c4143
    9694:	4f495047 	svcmi	0x00495047
    9698:	4965445f 	stmdbmi	r5!, {r0, r1, r2, r3, r4, r6, sl, lr}^
    969c:	0074696e 	rsbseq	r6, r4, lr, ror #18
    96a0:	4c41434d 	mcrrmi	3, 4, r4, r1, cr13
    96a4:	4950475f 	ldmdbmi	r0, {r0, r1, r2, r3, r4, r6, r8, r9, sl, lr}^
    96a8:	65525f4f 	ldrbvs	r5, [r2, #-3919]	; 0xfffff0b1
    96ac:	6f506461 	svcvs	0x00506461
    96b0:	62007472 	andvs	r7, r0, #1912602624	; 0x72000000
    96b4:	74537469 	ldrbvc	r7, [r3], #-1129	; 0xfffffb97
    96b8:	73757461 	cmnvc	r5, #1627389952	; 0x61000000
    96bc:	6e6f6300 	cdpvs	3, 6, cr6, cr15, cr0, {0}
    96c0:	52676966 	rsbpl	r6, r7, #1671168	; 0x198000
    96c4:	73696765 	cmnvc	r9, #26476544	; 0x1940000
    96c8:	00726574 	rsbseq	r6, r2, r4, ror r5

Disassembly of section .comment:

00000000 <.comment>:
   0:	3a434347 	bcc	10d0d24 <_Min_Stack_Size+0x10d0924>
   4:	4e472820 	cdpmi	8, 4, cr2, cr7, cr0, {1}
   8:	6f542055 	svcvs	0x00542055
   c:	20736c6f 	rsbscs	r6, r3, pc, ror #24
  10:	20726f66 	rsbscs	r6, r2, r6, ror #30
  14:	334d5453 	movtcc	r5, #54355	; 0xd453
  18:	30312032 	eorscc	r2, r1, r2, lsr r0
  1c:	322d332e 	eorcc	r3, sp, #-1207959552	; 0xb8000000
  20:	2e313230 	mrccs	2, 1, r3, cr1, cr0, {1}
  24:	322e3031 	eorcc	r3, lr, #49	; 0x31
  28:	31313230 	teqcc	r1, r0, lsr r2
  2c:	2d353031 	ldccs	0, cr3, [r5, #-196]!	; 0xffffff3c
  30:	30303131 	eorscc	r3, r0, r1, lsr r1
  34:	30312029 	eorscc	r2, r1, r9, lsr #32
  38:	312e332e 			; <UNDEFINED> instruction: 0x312e332e
  3c:	32303220 	eorscc	r3, r0, #32, 4
  40:	32383031 	eorscc	r3, r8, #49	; 0x31
  44:	72282034 	eorvc	r2, r8, #52	; 0x34
  48:	61656c65 	cmnvs	r5, r5, ror #24
  4c:	00296573 	eoreq	r6, r9, r3, ror r5

Disassembly of section .debug_frame:

00000000 <.debug_frame>:
   0:	0000000c 	andeq	r0, r0, ip
   4:	ffffffff 			; <UNDEFINED> instruction: 0xffffffff
   8:	7c020001 	stcvc	0, cr0, [r2], {1}
   c:	000d0c0e 	andeq	r0, sp, lr, lsl #24
  10:	0000001c 	andeq	r0, r0, ip, lsl r0
  14:	00000000 	andeq	r0, r0, r0
  18:	08000170 	stmdaeq	r0, {r4, r5, r6, r8}
  1c:	00000018 	andeq	r0, r0, r8, lsl r0
  20:	87040e41 	strhi	r0, [r4, -r1, asr #28]
  24:	070d4101 	streq	r4, [sp, -r1, lsl #2]
  28:	410d0d45 	tstmi	sp, r5, asr #26
  2c:	00000ec7 	andeq	r0, r0, r7, asr #29
  30:	0000001c 	andeq	r0, r0, ip, lsl r0
  34:	00000000 	andeq	r0, r0, r0
  38:	08000188 	stmdaeq	r0, {r3, r7, r8}
  3c:	00000068 	andeq	r0, r0, r8, rrx
  40:	87080e41 	strhi	r0, [r8, -r1, asr #28]
  44:	41018e02 	tstmi	r1, r2, lsl #28
  48:	0d41280e 	stcleq	8, cr2, [r1, #-56]	; 0xffffffc8
  4c:	00000007 	andeq	r0, r0, r7
  50:	0000000c 	andeq	r0, r0, ip
  54:	ffffffff 			; <UNDEFINED> instruction: 0xffffffff
  58:	7c020001 	stcvc	0, cr0, [r2], {1}
  5c:	000d0c0e 	andeq	r0, sp, lr, lsl #24
  60:	00000024 	andeq	r0, r0, r4, lsr #32
  64:	00000050 	andeq	r0, r0, r0, asr r0
  68:	08000244 	stmdaeq	r0, {r2, r6, r9}
  6c:	000000c8 	andeq	r0, r0, r8, asr #1
  70:	87040e41 	strhi	r0, [r4, -r1, asr #28]
  74:	100e4101 	andne	r4, lr, r1, lsl #2
  78:	02070d41 	andeq	r0, r7, #4160	; 0x1040
  7c:	41040e5a 	tstmi	r4, sl, asr lr
  80:	c7410d0d 	strbgt	r0, [r1, -sp, lsl #26]
  84:	0000000e 	andeq	r0, r0, lr
  88:	00000024 	andeq	r0, r0, r4, lsr #32
  8c:	00000050 	andeq	r0, r0, r0, asr r0
  90:	0800030c 	stmdaeq	r0, {r2, r3, r8, r9}
  94:	000000c8 	andeq	r0, r0, r8, asr #1
  98:	87040e41 	strhi	r0, [r4, -r1, asr #28]
  9c:	100e4101 	andne	r4, lr, r1, lsl #2
  a0:	02070d41 	andeq	r0, r7, #4160	; 0x1040
  a4:	41040e5a 	tstmi	r4, sl, asr lr
  a8:	c7410d0d 	strbgt	r0, [r1, -sp, lsl #26]
  ac:	0000000e 	andeq	r0, r0, lr
  b0:	00000020 	andeq	r0, r0, r0, lsr #32
  b4:	00000050 	andeq	r0, r0, r0, asr r0
  b8:	080003d4 	stmdaeq	r0, {r2, r4, r6, r7, r8, r9}
  bc:	000001d0 	ldrdeq	r0, [r0], -r0	; <UNPREDICTABLE>
  c0:	87080e41 	strhi	r0, [r8, -r1, asr #28]
  c4:	41018e02 	tstmi	r1, r2, lsl #28
  c8:	0d41180e 	stcleq	8, cr1, [r1, #-56]	; 0xffffffc8
  cc:	0ed50207 	cdpeq	2, 13, cr0, cr5, cr7, {0}
  d0:	0d0d4108 	stfeqs	f4, [sp, #-32]	; 0xffffffe0
  d4:	0000001c 	andeq	r0, r0, ip, lsl r0
  d8:	00000050 	andeq	r0, r0, r0, asr r0
  dc:	00000000 	andeq	r0, r0, r0
  e0:	00000094 	muleq	r0, r4, r0
  e4:	87040e41 	strhi	r0, [r4, -r1, asr #28]
  e8:	070d4101 	streq	r4, [sp, -r1, lsl #2]
  ec:	410d0d7f 	tstmi	sp, pc, ror sp
  f0:	00000ec7 	andeq	r0, r0, r7, asr #29
  f4:	00000020 	andeq	r0, r0, r0, lsr #32
  f8:	00000050 	andeq	r0, r0, r0, asr r0
  fc:	00000000 	andeq	r0, r0, r0
 100:	00000016 	andeq	r0, r0, r6, lsl r0
 104:	87080e41 	strhi	r0, [r8, -r1, asr #28]
 108:	41018e02 	tstmi	r1, r2, lsl #28
 10c:	0d41100e 	stcleq	0, cr1, [r1, #-56]	; 0xffffffc8
 110:	080e4607 	stmdaeq	lr, {r0, r1, r2, r9, sl, lr}
 114:	000d0d41 	andeq	r0, sp, r1, asr #26
 118:	00000020 	andeq	r0, r0, r0, lsr #32
 11c:	00000050 	andeq	r0, r0, r0, asr r0
 120:	080005a4 	stmdaeq	r0, {r2, r5, r7, r8, sl}
 124:	00000016 	andeq	r0, r0, r6, lsl r0
 128:	87080e41 	strhi	r0, [r8, -r1, asr #28]
 12c:	41018e02 	tstmi	r1, r2, lsl #28
 130:	0d41100e 	stcleq	0, cr1, [r1, #-56]	; 0xffffffc8
 134:	080e4607 	stmdaeq	lr, {r0, r1, r2, r9, sl, lr}
 138:	000d0d41 	andeq	r0, sp, r1, asr #26
 13c:	00000018 	andeq	r0, r0, r8, lsl r0
 140:	00000050 	andeq	r0, r0, r0, asr r0
 144:	080005bc 	stmdaeq	r0, {r2, r3, r4, r5, r7, r8, sl}
 148:	00000024 	andeq	r0, r0, r4, lsr #32
 14c:	87080e41 	strhi	r0, [r8, -r1, asr #28]
 150:	41018e02 	tstmi	r1, r2, lsl #28
 154:	0000070d 	andeq	r0, r0, sp, lsl #14
 158:	00000018 	andeq	r0, r0, r8, lsl r0
 15c:	00000050 	andeq	r0, r0, r0, asr r0
 160:	080005e0 	stmdaeq	r0, {r5, r6, r7, r8, sl}
 164:	00000024 	andeq	r0, r0, r4, lsr #32
 168:	87080e41 	strhi	r0, [r8, -r1, asr #28]
 16c:	41018e02 	tstmi	r1, r2, lsl #28
 170:	0000070d 	andeq	r0, r0, sp, lsl #14
 174:	00000018 	andeq	r0, r0, r8, lsl r0
 178:	00000050 	andeq	r0, r0, r0, asr r0
 17c:	08000604 	stmdaeq	r0, {r2, r9, sl}
 180:	00000024 	andeq	r0, r0, r4, lsr #32
 184:	87080e41 	strhi	r0, [r8, -r1, asr #28]
 188:	41018e02 	tstmi	r1, r2, lsl #28
 18c:	0000070d 	andeq	r0, r0, sp, lsl #14
 190:	00000018 	andeq	r0, r0, r8, lsl r0
 194:	00000050 	andeq	r0, r0, r0, asr r0
 198:	08000628 	stmdaeq	r0, {r3, r5, r9, sl}
 19c:	00000024 	andeq	r0, r0, r4, lsr #32
 1a0:	87080e41 	strhi	r0, [r8, -r1, asr #28]
 1a4:	41018e02 	tstmi	r1, r2, lsl #28
 1a8:	0000070d 	andeq	r0, r0, sp, lsl #14
 1ac:	00000018 	andeq	r0, r0, r8, lsl r0
 1b0:	00000050 	andeq	r0, r0, r0, asr r0
 1b4:	0800064c 	stmdaeq	r0, {r2, r3, r6, r9, sl}
 1b8:	00000024 	andeq	r0, r0, r4, lsr #32
 1bc:	87080e41 	strhi	r0, [r8, -r1, asr #28]
 1c0:	41018e02 	tstmi	r1, r2, lsl #28
 1c4:	0000070d 	andeq	r0, r0, sp, lsl #14
 1c8:	00000018 	andeq	r0, r0, r8, lsl r0
 1cc:	00000050 	andeq	r0, r0, r0, asr r0
 1d0:	08000670 	stmdaeq	r0, {r4, r5, r6, r9, sl}
 1d4:	000000a8 	andeq	r0, r0, r8, lsr #1
 1d8:	87080e41 	strhi	r0, [r8, -r1, asr #28]
 1dc:	41018e02 	tstmi	r1, r2, lsl #28
 1e0:	0000070d 	andeq	r0, r0, sp, lsl #14
 1e4:	00000018 	andeq	r0, r0, r8, lsl r0
 1e8:	00000050 	andeq	r0, r0, r0, asr r0
 1ec:	08000718 	stmdaeq	r0, {r3, r4, r8, r9, sl}
 1f0:	000000c4 	andeq	r0, r0, r4, asr #1
 1f4:	87080e41 	strhi	r0, [r8, -r1, asr #28]
 1f8:	41018e02 	tstmi	r1, r2, lsl #28
 1fc:	0000070d 	andeq	r0, r0, sp, lsl #14
 200:	0000000c 	andeq	r0, r0, ip
 204:	ffffffff 			; <UNDEFINED> instruction: 0xffffffff
 208:	7c020001 	stcvc	0, cr0, [r2], {1}
 20c:	000d0c0e 	andeq	r0, sp, lr, lsl #24
 210:	00000024 	andeq	r0, r0, r4, lsr #32
 214:	00000200 	andeq	r0, r0, r0, lsl #4
 218:	080007dc 	stmdaeq	r0, {r2, r3, r4, r6, r7, r8, r9, sl}
 21c:	0000016e 	andeq	r0, r0, lr, ror #2
 220:	87040e41 	strhi	r0, [r4, -r1, asr #28]
 224:	100e4101 	andne	r4, lr, r1, lsl #2
 228:	02070d41 	andeq	r0, r7, #4160	; 0x1040
 22c:	41040eb1 			; <UNDEFINED> instruction: 0x41040eb1
 230:	c7410d0d 	strbgt	r0, [r1, -sp, lsl #26]
 234:	0000000e 	andeq	r0, r0, lr
 238:	00000024 	andeq	r0, r0, r4, lsr #32
 23c:	00000200 	andeq	r0, r0, r0, lsl #4
 240:	0800094c 	stmdaeq	r0, {r2, r3, r6, r8, fp}
 244:	000000f8 	strdeq	r0, [r0], -r8
 248:	840c0e41 	strhi	r0, [ip], #-3649	; 0xfffff1bf
 24c:	8e028703 	cdphi	7, 0, cr8, cr2, cr3, {0}
 250:	200e4101 	andcs	r4, lr, r1, lsl #2
 254:	02070d41 	andeq	r0, r7, #4160	; 0x1040
 258:	410c0e77 	tstmi	ip, r7, ror lr
 25c:	00000d0d 	andeq	r0, r0, sp, lsl #26
 260:	00000024 	andeq	r0, r0, r4, lsr #32
 264:	00000200 	andeq	r0, r0, r0, lsl #4
 268:	00000000 	andeq	r0, r0, r0
 26c:	000000cc 	andeq	r0, r0, ip, asr #1
 270:	87040e41 	strhi	r0, [r4, -r1, asr #28]
 274:	100e4101 	andne	r4, lr, r1, lsl #2
 278:	02070d41 	andeq	r0, r7, #4160	; 0x1040
 27c:	41040e53 	tstmi	r4, r3, asr lr
 280:	c7410d0d 	strbgt	r0, [r1, -sp, lsl #26]
 284:	0000000e 	andeq	r0, r0, lr
 288:	00000024 	andeq	r0, r0, r4, lsr #32
 28c:	00000200 	andeq	r0, r0, r0, lsl #4
 290:	00000000 	andeq	r0, r0, r0
 294:	0000002e 	andeq	r0, r0, lr, lsr #32
 298:	87040e41 	strhi	r0, [r4, -r1, asr #28]
 29c:	180e4101 	stmdane	lr, {r0, r8, lr}
 2a0:	51070d41 	tstpl	r7, r1, asr #26
 2a4:	0d41040e 	cfstrdeq	mvd0, [r1, #-56]	; 0xffffffc8
 2a8:	0ec7410d 	poleqs	f4, f7, #5.0
 2ac:	00000000 	andeq	r0, r0, r0
 2b0:	00000024 	andeq	r0, r0, r4, lsr #32
 2b4:	00000200 	andeq	r0, r0, r0, lsl #4
 2b8:	00000000 	andeq	r0, r0, r0
 2bc:	0000001a 	andeq	r0, r0, sl, lsl r0
 2c0:	87040e41 	strhi	r0, [r4, -r1, asr #28]
 2c4:	180e4101 	stmdane	lr, {r0, r8, lr}
 2c8:	47070d41 	strmi	r0, [r7, -r1, asr #26]
 2cc:	0d41040e 	cfstrdeq	mvd0, [r1, #-56]	; 0xffffffc8
 2d0:	0ec7410d 	poleqs	f4, f7, #5.0
 2d4:	00000000 	andeq	r0, r0, r0
 2d8:	00000024 	andeq	r0, r0, r4, lsr #32
 2dc:	00000200 	andeq	r0, r0, r0, lsl #4
 2e0:	00000000 	andeq	r0, r0, r0
 2e4:	0000001c 	andeq	r0, r0, ip, lsl r0
 2e8:	87040e41 	strhi	r0, [r4, -r1, asr #28]
 2ec:	100e4101 	andne	r4, lr, r1, lsl #2
 2f0:	48070d41 	stmdami	r7, {r0, r6, r8, sl, fp}
 2f4:	0d41040e 	cfstrdeq	mvd0, [r1, #-56]	; 0xffffffc8
 2f8:	0ec7410d 	poleqs	f4, f7, #5.0
 2fc:	00000000 	andeq	r0, r0, r0
 300:	00000024 	andeq	r0, r0, r4, lsr #32
 304:	00000200 	andeq	r0, r0, r0, lsl #4
 308:	00000000 	andeq	r0, r0, r0
 30c:	0000002e 	andeq	r0, r0, lr, lsr #32
 310:	87040e41 	strhi	r0, [r4, -r1, asr #28]
 314:	100e4101 	andne	r4, lr, r1, lsl #2
 318:	51070d41 	tstpl	r7, r1, asr #26
 31c:	0d41040e 	cfstrdeq	mvd0, [r1, #-56]	; 0xffffffc8
 320:	0ec7410d 	poleqs	f4, f7, #5.0
 324:	00000000 	andeq	r0, r0, r0
 328:	00000024 	andeq	r0, r0, r4, lsr #32
 32c:	00000200 	andeq	r0, r0, r0, lsl #4
 330:	00000000 	andeq	r0, r0, r0
 334:	00000022 	andeq	r0, r0, r2, lsr #32
 338:	87040e41 	strhi	r0, [r4, -r1, asr #28]
 33c:	100e4101 	andne	r4, lr, r1, lsl #2
 340:	4b070d41 	blmi	1c384c <_Min_Stack_Size+0x1c344c>
 344:	0d41040e 	cfstrdeq	mvd0, [r1, #-56]	; 0xffffffc8
 348:	0ec7410d 	poleqs	f4, f7, #5.0
 34c:	00000000 	andeq	r0, r0, r0
 350:	0000000c 	andeq	r0, r0, ip
 354:	ffffffff 			; <UNDEFINED> instruction: 0xffffffff
 358:	7c020001 	stcvc	0, cr0, [r2], {1}
 35c:	000d0c0e 	andeq	r0, sp, lr, lsl #24
 360:	00000018 	andeq	r0, r0, r8, lsl r0
 364:	00000350 	andeq	r0, r0, r0, asr r3
 368:	08000a44 	stmdaeq	r0, {r2, r6, r9, fp}
 36c:	00000048 	andeq	r0, r0, r8, asr #32
 370:	84100e41 	ldrhi	r0, [r0], #-3649	; 0xfffff1bf
 374:	86038504 	strhi	r8, [r3], -r4, lsl #10
 378:	00018e02 	andeq	r8, r1, r2, lsl #28
