
Drivers.axf:     file format elf32-littlearm


Disassembly of section .isr_vector:

08000000 <g_pfnVectors>:
 8000000:	20002800 	andcs	r2, r0, r0, lsl #16
 8000004:	080001f1 	stmdaeq	r0, {r0, r4, r5, r6, r7, r8}
 8000008:	08000241 	stmdaeq	r0, {r0, r6, r9}
 800000c:	08000241 	stmdaeq	r0, {r0, r6, r9}
 8000010:	08000241 	stmdaeq	r0, {r0, r6, r9}
 8000014:	08000241 	stmdaeq	r0, {r0, r6, r9}
 8000018:	08000241 	stmdaeq	r0, {r0, r6, r9}
	...
 800002c:	08000241 	stmdaeq	r0, {r0, r6, r9}
 8000030:	08000241 	stmdaeq	r0, {r0, r6, r9}
 8000034:	00000000 	andeq	r0, r0, r0
 8000038:	08000241 	stmdaeq	r0, {r0, r6, r9}
 800003c:	08000241 	stmdaeq	r0, {r0, r6, r9}
 8000040:	08000241 	stmdaeq	r0, {r0, r6, r9}
 8000044:	08000241 	stmdaeq	r0, {r0, r6, r9}
 8000048:	08000241 	stmdaeq	r0, {r0, r6, r9}
 800004c:	08000241 	stmdaeq	r0, {r0, r6, r9}
 8000050:	08000241 	stmdaeq	r0, {r0, r6, r9}
 8000054:	08000241 	stmdaeq	r0, {r0, r6, r9}
 8000058:	080005bd 	stmdaeq	r0, {r0, r2, r3, r4, r5, r7, r8, sl}
 800005c:	080005e1 	stmdaeq	r0, {r0, r5, r6, r7, r8, sl}
 8000060:	08000605 	stmdaeq	r0, {r0, r2, r9, sl}
 8000064:	08000629 	stmdaeq	r0, {r0, r3, r5, r9, sl}
 8000068:	0800064d 	stmdaeq	r0, {r0, r2, r3, r6, r9, sl}
 800006c:	08000241 	stmdaeq	r0, {r0, r6, r9}
 8000070:	08000241 	stmdaeq	r0, {r0, r6, r9}
 8000074:	08000241 	stmdaeq	r0, {r0, r6, r9}
 8000078:	08000241 	stmdaeq	r0, {r0, r6, r9}
 800007c:	08000241 	stmdaeq	r0, {r0, r6, r9}
 8000080:	08000241 	stmdaeq	r0, {r0, r6, r9}
 8000084:	08000241 	stmdaeq	r0, {r0, r6, r9}
 8000088:	08000241 	stmdaeq	r0, {r0, r6, r9}
 800008c:	08000241 	stmdaeq	r0, {r0, r6, r9}
 8000090:	08000241 	stmdaeq	r0, {r0, r6, r9}
 8000094:	08000241 	stmdaeq	r0, {r0, r6, r9}
 8000098:	08000241 	stmdaeq	r0, {r0, r6, r9}
 800009c:	08000671 	stmdaeq	r0, {r0, r4, r5, r6, r9, sl}
 80000a0:	08000241 	stmdaeq	r0, {r0, r6, r9}
 80000a4:	08000241 	stmdaeq	r0, {r0, r6, r9}
 80000a8:	08000241 	stmdaeq	r0, {r0, r6, r9}
 80000ac:	08000241 	stmdaeq	r0, {r0, r6, r9}
 80000b0:	08000241 	stmdaeq	r0, {r0, r6, r9}
 80000b4:	08000241 	stmdaeq	r0, {r0, r6, r9}
 80000b8:	08000241 	stmdaeq	r0, {r0, r6, r9}
 80000bc:	08000241 	stmdaeq	r0, {r0, r6, r9}
 80000c0:	08000241 	stmdaeq	r0, {r0, r6, r9}
 80000c4:	08000241 	stmdaeq	r0, {r0, r6, r9}
 80000c8:	08000241 	stmdaeq	r0, {r0, r6, r9}
 80000cc:	08000241 	stmdaeq	r0, {r0, r6, r9}
 80000d0:	08000241 	stmdaeq	r0, {r0, r6, r9}
 80000d4:	08000241 	stmdaeq	r0, {r0, r6, r9}
 80000d8:	08000241 	stmdaeq	r0, {r0, r6, r9}
 80000dc:	08000241 	stmdaeq	r0, {r0, r6, r9}
 80000e0:	08000719 	stmdaeq	r0, {r0, r3, r4, r8, r9, sl}
 80000e4:	08000241 	stmdaeq	r0, {r0, r6, r9}
 80000e8:	00000000 	andeq	r0, r0, r0
 80000ec:	08000241 	stmdaeq	r0, {r0, r6, r9}
 80000f0:	08000241 	stmdaeq	r0, {r0, r6, r9}
 80000f4:	08000241 	stmdaeq	r0, {r0, r6, r9}
 80000f8:	08000241 	stmdaeq	r0, {r0, r6, r9}
 80000fc:	08000241 	stmdaeq	r0, {r0, r6, r9}
 8000100:	08000241 	stmdaeq	r0, {r0, r6, r9}
 8000104:	08000241 	stmdaeq	r0, {r0, r6, r9}
 8000108:	08000241 	stmdaeq	r0, {r0, r6, r9}
 800010c:	08000241 	stmdaeq	r0, {r0, r6, r9}
 8000110:	08000241 	stmdaeq	r0, {r0, r6, r9}
 8000114:	08000241 	stmdaeq	r0, {r0, r6, r9}
 8000118:	08000241 	stmdaeq	r0, {r0, r6, r9}
 800011c:	08000241 	stmdaeq	r0, {r0, r6, r9}
 8000120:	08000241 	stmdaeq	r0, {r0, r6, r9}
 8000124:	08000241 	stmdaeq	r0, {r0, r6, r9}
 8000128:	08000241 	stmdaeq	r0, {r0, r6, r9}
 800012c:	08000241 	stmdaeq	r0, {r0, r6, r9}

Disassembly of section .text:

08000130 <__do_global_dtors_aux>:
 8000130:	b510      	push	{r4, lr}
 8000132:	4c05      	ldr	r4, [pc, #20]	; (8000148 <__do_global_dtors_aux+0x18>)
 8000134:	7823      	ldrb	r3, [r4, #0]
 8000136:	b933      	cbnz	r3, 8000146 <__do_global_dtors_aux+0x16>
 8000138:	4b04      	ldr	r3, [pc, #16]	; (800014c <__do_global_dtors_aux+0x1c>)
 800013a:	b113      	cbz	r3, 8000142 <__do_global_dtors_aux+0x12>
 800013c:	4804      	ldr	r0, [pc, #16]	; (8000150 <__do_global_dtors_aux+0x20>)
 800013e:	f3af 8000 	nop.w
 8000142:	2301      	movs	r3, #1
 8000144:	7023      	strb	r3, [r4, #0]
 8000146:	bd10      	pop	{r4, pc}
 8000148:	20000000 	andcs	r0, r0, r0
 800014c:	00000000 	andeq	r0, r0, r0
 8000150:	08000a8c 	stmdaeq	r0, {r2, r3, r7, r9, fp}

08000154 <frame_dummy>:
 8000154:	b508      	push	{r3, lr}
 8000156:	4b03      	ldr	r3, [pc, #12]	; (8000164 <frame_dummy+0x10>)
 8000158:	b11b      	cbz	r3, 8000162 <frame_dummy+0xe>
 800015a:	4903      	ldr	r1, [pc, #12]	; (8000168 <frame_dummy+0x14>)
 800015c:	4803      	ldr	r0, [pc, #12]	; (800016c <frame_dummy+0x18>)
 800015e:	f3af 8000 	nop.w
 8000162:	bd08      	pop	{r3, pc}
 8000164:	00000000 	andeq	r0, r0, r0
 8000168:	20000004 	andcs	r0, r0, r4
 800016c:	08000a8c 	stmdaeq	r0, {r2, r3, r7, r9, fp}

08000170 <EXTI9_callBack>:
 8000170:	b480      	push	{r7}
 8000172:	af00      	add	r7, sp, #0
 8000174:	4b03      	ldr	r3, [pc, #12]	; (8000184 <EXTI9_callBack+0x14>)
 8000176:	2201      	movs	r2, #1
 8000178:	601a      	str	r2, [r3, #0]
 800017a:	bf00      	nop
 800017c:	46bd      	mov	sp, r7
 800017e:	bc80      	pop	{r7}
 8000180:	4770      	bx	lr
 8000182:	bf00      	nop
 8000184:	2000001c 	andcs	r0, r0, ip, lsl r0

08000188 <main>:
 8000188:	b580      	push	{r7, lr}
 800018a:	b088      	sub	sp, #32
 800018c:	af00      	add	r7, sp, #0
 800018e:	4b14      	ldr	r3, [pc, #80]	; (80001e0 <main+0x58>)
 8000190:	699b      	ldr	r3, [r3, #24]
 8000192:	4a13      	ldr	r2, [pc, #76]	; (80001e0 <main+0x58>)
 8000194:	f043 0308 	orr.w	r3, r3, #8
 8000198:	6193      	str	r3, [r2, #24]
 800019a:	4b11      	ldr	r3, [pc, #68]	; (80001e0 <main+0x58>)
 800019c:	699b      	ldr	r3, [r3, #24]
 800019e:	4a10      	ldr	r2, [pc, #64]	; (80001e0 <main+0x58>)
 80001a0:	f043 0301 	orr.w	r3, r3, #1
 80001a4:	6193      	str	r3, [r2, #24]
 80001a6:	4a0f      	ldr	r2, [pc, #60]	; (80001e4 <main+0x5c>)
 80001a8:	f107 030c 	add.w	r3, r7, #12
 80001ac:	ca07      	ldmia	r2, {r0, r1, r2}
 80001ae:	e883 0007 	stmia.w	r3, {r0, r1, r2}
 80001b2:	2300      	movs	r3, #0
 80001b4:	763b      	strb	r3, [r7, #24]
 80001b6:	4b0c      	ldr	r3, [pc, #48]	; (80001e8 <main+0x60>)
 80001b8:	61fb      	str	r3, [r7, #28]
 80001ba:	2301      	movs	r3, #1
 80001bc:	767b      	strb	r3, [r7, #25]
 80001be:	f107 030c 	add.w	r3, r7, #12
 80001c2:	4618      	mov	r0, r3
 80001c4:	f000 f9ee 	bl	80005a4 <Mcal_EXTI_GPIO_init>
 80001c8:	4b08      	ldr	r3, [pc, #32]	; (80001ec <main+0x64>)
 80001ca:	2201      	movs	r2, #1
 80001cc:	601a      	str	r2, [r3, #0]
 80001ce:	4b07      	ldr	r3, [pc, #28]	; (80001ec <main+0x64>)
 80001d0:	681b      	ldr	r3, [r3, #0]
 80001d2:	2b00      	cmp	r3, #0
 80001d4:	d0fb      	beq.n	80001ce <main+0x46>
 80001d6:	4b05      	ldr	r3, [pc, #20]	; (80001ec <main+0x64>)
 80001d8:	2200      	movs	r2, #0
 80001da:	601a      	str	r2, [r3, #0]
 80001dc:	e7f7      	b.n	80001ce <main+0x46>
 80001de:	bf00      	nop
 80001e0:	40021000 	andmi	r1, r2, r0
 80001e4:	08000aa4 	stmdaeq	r0, {r2, r5, r7, r9, fp}
 80001e8:	08000171 	stmdaeq	r0, {r0, r4, r5, r6, r8}
 80001ec:	2000001c 	andcs	r0, r0, ip, lsl r0

080001f0 <Reset_Handler>:
 80001f0:	480d      	ldr	r0, [pc, #52]	; (8000228 <LoopForever+0x2>)
 80001f2:	4685      	mov	sp, r0
 80001f4:	f3af 8000 	nop.w
 80001f8:	480c      	ldr	r0, [pc, #48]	; (800022c <LoopForever+0x6>)
 80001fa:	490d      	ldr	r1, [pc, #52]	; (8000230 <LoopForever+0xa>)
 80001fc:	4a0d      	ldr	r2, [pc, #52]	; (8000234 <LoopForever+0xe>)
 80001fe:	2300      	movs	r3, #0
 8000200:	e002      	b.n	8000208 <LoopCopyDataInit>

08000202 <CopyDataInit>:
 8000202:	58d4      	ldr	r4, [r2, r3]
 8000204:	50c4      	str	r4, [r0, r3]
 8000206:	3304      	adds	r3, #4

08000208 <LoopCopyDataInit>:
 8000208:	18c4      	adds	r4, r0, r3
 800020a:	428c      	cmp	r4, r1
 800020c:	d3f9      	bcc.n	8000202 <CopyDataInit>
 800020e:	4a0a      	ldr	r2, [pc, #40]	; (8000238 <LoopForever+0x12>)
 8000210:	4c0a      	ldr	r4, [pc, #40]	; (800023c <LoopForever+0x16>)
 8000212:	2300      	movs	r3, #0
 8000214:	e001      	b.n	800021a <LoopFillZerobss>

08000216 <FillZerobss>:
 8000216:	6013      	str	r3, [r2, #0]
 8000218:	3204      	adds	r2, #4

0800021a <LoopFillZerobss>:
 800021a:	42a2      	cmp	r2, r4
 800021c:	d3fb      	bcc.n	8000216 <FillZerobss>
 800021e:	f000 fc11 	bl	8000a44 <__libc_init_array>
 8000222:	f7ff ffb1 	bl	8000188 <main>

08000226 <LoopForever>:
 8000226:	e7fe      	b.n	8000226 <LoopForever>
 8000228:	20002800 	andcs	r2, r0, r0, lsl #16
 800022c:	20000000 	andcs	r0, r0, r0
 8000230:	20000000 	andcs	r0, r0, r0
 8000234:	08000ab8 	stmdaeq	r0, {r3, r4, r5, r7, r9, fp}
 8000238:	20000000 	andcs	r0, r0, r0
 800023c:	2000005c 	andcs	r0, r0, ip, asr r0

08000240 <ADC1_2_IRQHandler>:
 8000240:	e7fe      	b.n	8000240 <ADC1_2_IRQHandler>
	...

08000244 <Enable_NVIC>:
 8000244:	b480      	push	{r7}
 8000246:	b083      	sub	sp, #12
 8000248:	af00      	add	r7, sp, #0
 800024a:	4603      	mov	r3, r0
 800024c:	80fb      	strh	r3, [r7, #6]
 800024e:	88fb      	ldrh	r3, [r7, #6]
 8000250:	2b0e      	cmp	r3, #14
 8000252:	d852      	bhi.n	80002fa <Enable_NVIC+0xb6>
 8000254:	a201      	add	r2, pc, #4	; (adr r2, 800025c <Enable_NVIC+0x18>)
 8000256:	f852 f023 	ldr.w	pc, [r2, r3, lsl #2]
 800025a:	bf00      	nop
 800025c:	08000299 	stmdaeq	r0, {r0, r3, r4, r7, r9}
 8000260:	080002a7 	stmdaeq	r0, {r0, r1, r2, r5, r7, r9}
 8000264:	080002b5 	stmdaeq	r0, {r0, r2, r4, r5, r7, r9}
 8000268:	080002c3 	stmdaeq	r0, {r0, r1, r6, r7, r9}
 800026c:	080002d1 	stmdaeq	r0, {r0, r4, r6, r7, r9}
 8000270:	080002df 	stmdaeq	r0, {r0, r1, r2, r3, r4, r6, r7, r9}
 8000274:	080002df 	stmdaeq	r0, {r0, r1, r2, r3, r4, r6, r7, r9}
 8000278:	080002df 	stmdaeq	r0, {r0, r1, r2, r3, r4, r6, r7, r9}
 800027c:	080002df 	stmdaeq	r0, {r0, r1, r2, r3, r4, r6, r7, r9}
 8000280:	080002df 	stmdaeq	r0, {r0, r1, r2, r3, r4, r6, r7, r9}
 8000284:	080002ed 	stmdaeq	r0, {r0, r2, r3, r5, r6, r7, r9}
 8000288:	080002ed 	stmdaeq	r0, {r0, r2, r3, r5, r6, r7, r9}
 800028c:	080002ed 	stmdaeq	r0, {r0, r2, r3, r5, r6, r7, r9}
 8000290:	080002ed 	stmdaeq	r0, {r0, r2, r3, r5, r6, r7, r9}
 8000294:	080002ed 	stmdaeq	r0, {r0, r2, r3, r5, r6, r7, r9}
 8000298:	4b1a      	ldr	r3, [pc, #104]	; (8000304 <Enable_NVIC+0xc0>)
 800029a:	681b      	ldr	r3, [r3, #0]
 800029c:	4a19      	ldr	r2, [pc, #100]	; (8000304 <Enable_NVIC+0xc0>)
 800029e:	f043 0340 	orr.w	r3, r3, #64	; 0x40
 80002a2:	6013      	str	r3, [r2, #0]
 80002a4:	e029      	b.n	80002fa <Enable_NVIC+0xb6>
 80002a6:	4b17      	ldr	r3, [pc, #92]	; (8000304 <Enable_NVIC+0xc0>)
 80002a8:	681b      	ldr	r3, [r3, #0]
 80002aa:	4a16      	ldr	r2, [pc, #88]	; (8000304 <Enable_NVIC+0xc0>)
 80002ac:	f043 0380 	orr.w	r3, r3, #128	; 0x80
 80002b0:	6013      	str	r3, [r2, #0]
 80002b2:	e022      	b.n	80002fa <Enable_NVIC+0xb6>
 80002b4:	4b13      	ldr	r3, [pc, #76]	; (8000304 <Enable_NVIC+0xc0>)
 80002b6:	681b      	ldr	r3, [r3, #0]
 80002b8:	4a12      	ldr	r2, [pc, #72]	; (8000304 <Enable_NVIC+0xc0>)
 80002ba:	f443 7380 	orr.w	r3, r3, #256	; 0x100
 80002be:	6013      	str	r3, [r2, #0]
 80002c0:	e01b      	b.n	80002fa <Enable_NVIC+0xb6>
 80002c2:	4b10      	ldr	r3, [pc, #64]	; (8000304 <Enable_NVIC+0xc0>)
 80002c4:	681b      	ldr	r3, [r3, #0]
 80002c6:	4a0f      	ldr	r2, [pc, #60]	; (8000304 <Enable_NVIC+0xc0>)
 80002c8:	f443 7300 	orr.w	r3, r3, #512	; 0x200
 80002cc:	6013      	str	r3, [r2, #0]
 80002ce:	e014      	b.n	80002fa <Enable_NVIC+0xb6>
 80002d0:	4b0c      	ldr	r3, [pc, #48]	; (8000304 <Enable_NVIC+0xc0>)
 80002d2:	681b      	ldr	r3, [r3, #0]
 80002d4:	4a0b      	ldr	r2, [pc, #44]	; (8000304 <Enable_NVIC+0xc0>)
 80002d6:	f443 7300 	orr.w	r3, r3, #512	; 0x200
 80002da:	6013      	str	r3, [r2, #0]
 80002dc:	e00d      	b.n	80002fa <Enable_NVIC+0xb6>
 80002de:	4b09      	ldr	r3, [pc, #36]	; (8000304 <Enable_NVIC+0xc0>)
 80002e0:	681b      	ldr	r3, [r3, #0]
 80002e2:	4a08      	ldr	r2, [pc, #32]	; (8000304 <Enable_NVIC+0xc0>)
 80002e4:	f443 0300 	orr.w	r3, r3, #8388608	; 0x800000
 80002e8:	6013      	str	r3, [r2, #0]
 80002ea:	e006      	b.n	80002fa <Enable_NVIC+0xb6>
 80002ec:	4b06      	ldr	r3, [pc, #24]	; (8000308 <Enable_NVIC+0xc4>)
 80002ee:	681b      	ldr	r3, [r3, #0]
 80002f0:	4a05      	ldr	r2, [pc, #20]	; (8000308 <Enable_NVIC+0xc4>)
 80002f2:	f443 7380 	orr.w	r3, r3, #256	; 0x100
 80002f6:	6013      	str	r3, [r2, #0]
 80002f8:	bf00      	nop
 80002fa:	bf00      	nop
 80002fc:	370c      	adds	r7, #12
 80002fe:	46bd      	mov	sp, r7
 8000300:	bc80      	pop	{r7}
 8000302:	4770      	bx	lr
 8000304:	e000e100 	and	lr, r0, r0, lsl #2
 8000308:	e000e104 	and	lr, r0, r4, lsl #2

0800030c <Disable_NVIC>:
 800030c:	b480      	push	{r7}
 800030e:	b083      	sub	sp, #12
 8000310:	af00      	add	r7, sp, #0
 8000312:	4603      	mov	r3, r0
 8000314:	80fb      	strh	r3, [r7, #6]
 8000316:	88fb      	ldrh	r3, [r7, #6]
 8000318:	2b0e      	cmp	r3, #14
 800031a:	d852      	bhi.n	80003c2 <Disable_NVIC+0xb6>
 800031c:	a201      	add	r2, pc, #4	; (adr r2, 8000324 <Disable_NVIC+0x18>)
 800031e:	f852 f023 	ldr.w	pc, [r2, r3, lsl #2]
 8000322:	bf00      	nop
 8000324:	08000361 	stmdaeq	r0, {r0, r5, r6, r8, r9}
 8000328:	0800036f 	stmdaeq	r0, {r0, r1, r2, r3, r5, r6, r8, r9}
 800032c:	0800037d 	stmdaeq	r0, {r0, r2, r3, r4, r5, r6, r8, r9}
 8000330:	0800038b 	stmdaeq	r0, {r0, r1, r3, r7, r8, r9}
 8000334:	08000399 	stmdaeq	r0, {r0, r3, r4, r7, r8, r9}
 8000338:	080003a7 	stmdaeq	r0, {r0, r1, r2, r5, r7, r8, r9}
 800033c:	080003a7 	stmdaeq	r0, {r0, r1, r2, r5, r7, r8, r9}
 8000340:	080003a7 	stmdaeq	r0, {r0, r1, r2, r5, r7, r8, r9}
 8000344:	080003a7 	stmdaeq	r0, {r0, r1, r2, r5, r7, r8, r9}
 8000348:	080003a7 	stmdaeq	r0, {r0, r1, r2, r5, r7, r8, r9}
 800034c:	080003b5 	stmdaeq	r0, {r0, r2, r4, r5, r7, r8, r9}
 8000350:	080003b5 	stmdaeq	r0, {r0, r2, r4, r5, r7, r8, r9}
 8000354:	080003b5 	stmdaeq	r0, {r0, r2, r4, r5, r7, r8, r9}
 8000358:	080003b5 	stmdaeq	r0, {r0, r2, r4, r5, r7, r8, r9}
 800035c:	080003b5 	stmdaeq	r0, {r0, r2, r4, r5, r7, r8, r9}
 8000360:	4b1a      	ldr	r3, [pc, #104]	; (80003cc <Disable_NVIC+0xc0>)
 8000362:	681b      	ldr	r3, [r3, #0]
 8000364:	4a19      	ldr	r2, [pc, #100]	; (80003cc <Disable_NVIC+0xc0>)
 8000366:	f043 0340 	orr.w	r3, r3, #64	; 0x40
 800036a:	6013      	str	r3, [r2, #0]
 800036c:	e029      	b.n	80003c2 <Disable_NVIC+0xb6>
 800036e:	4b17      	ldr	r3, [pc, #92]	; (80003cc <Disable_NVIC+0xc0>)
 8000370:	681b      	ldr	r3, [r3, #0]
 8000372:	4a16      	ldr	r2, [pc, #88]	; (80003cc <Disable_NVIC+0xc0>)
 8000374:	f043 0380 	orr.w	r3, r3, #128	; 0x80
 8000378:	6013      	str	r3, [r2, #0]
 800037a:	e022      	b.n	80003c2 <Disable_NVIC+0xb6>
 800037c:	4b13      	ldr	r3, [pc, #76]	; (80003cc <Disable_NVIC+0xc0>)
 800037e:	681b      	ldr	r3, [r3, #0]
 8000380:	4a12      	ldr	r2, [pc, #72]	; (80003cc <Disable_NVIC+0xc0>)
 8000382:	f443 7380 	orr.w	r3, r3, #256	; 0x100
 8000386:	6013      	str	r3, [r2, #0]
 8000388:	e01b      	b.n	80003c2 <Disable_NVIC+0xb6>
 800038a:	4b10      	ldr	r3, [pc, #64]	; (80003cc <Disable_NVIC+0xc0>)
 800038c:	681b      	ldr	r3, [r3, #0]
 800038e:	4a0f      	ldr	r2, [pc, #60]	; (80003cc <Disable_NVIC+0xc0>)
 8000390:	f443 7300 	orr.w	r3, r3, #512	; 0x200
 8000394:	6013      	str	r3, [r2, #0]
 8000396:	e014      	b.n	80003c2 <Disable_NVIC+0xb6>
 8000398:	4b0c      	ldr	r3, [pc, #48]	; (80003cc <Disable_NVIC+0xc0>)
 800039a:	681b      	ldr	r3, [r3, #0]
 800039c:	4a0b      	ldr	r2, [pc, #44]	; (80003cc <Disable_NVIC+0xc0>)
 800039e:	f443 7300 	orr.w	r3, r3, #512	; 0x200
 80003a2:	6013      	str	r3, [r2, #0]
 80003a4:	e00d      	b.n	80003c2 <Disable_NVIC+0xb6>
 80003a6:	4b09      	ldr	r3, [pc, #36]	; (80003cc <Disable_NVIC+0xc0>)
 80003a8:	681b      	ldr	r3, [r3, #0]
 80003aa:	4a08      	ldr	r2, [pc, #32]	; (80003cc <Disable_NVIC+0xc0>)
 80003ac:	f443 0300 	orr.w	r3, r3, #8388608	; 0x800000
 80003b0:	6013      	str	r3, [r2, #0]
 80003b2:	e006      	b.n	80003c2 <Disable_NVIC+0xb6>
 80003b4:	4b06      	ldr	r3, [pc, #24]	; (80003d0 <Disable_NVIC+0xc4>)
 80003b6:	681b      	ldr	r3, [r3, #0]
 80003b8:	4a05      	ldr	r2, [pc, #20]	; (80003d0 <Disable_NVIC+0xc4>)
 80003ba:	f443 7380 	orr.w	r3, r3, #256	; 0x100
 80003be:	6013      	str	r3, [r2, #0]
 80003c0:	bf00      	nop
 80003c2:	bf00      	nop
 80003c4:	370c      	adds	r7, #12
 80003c6:	46bd      	mov	sp, r7
 80003c8:	bc80      	pop	{r7}
 80003ca:	4770      	bx	lr
 80003cc:	e000e180 	and	lr, r0, r0, lsl #3
 80003d0:	e000e184 	and	lr, r0, r4, lsl #3

080003d4 <update_EXTI>:
 80003d4:	b580      	push	{r7, lr}
 80003d6:	b084      	sub	sp, #16
 80003d8:	af00      	add	r7, sp, #0
 80003da:	6078      	str	r0, [r7, #4]
 80003dc:	687b      	ldr	r3, [r7, #4]
 80003de:	891b      	ldrh	r3, [r3, #8]
 80003e0:	813b      	strh	r3, [r7, #8]
 80003e2:	2301      	movs	r3, #1
 80003e4:	72bb      	strb	r3, [r7, #10]
 80003e6:	687b      	ldr	r3, [r7, #4]
 80003e8:	685b      	ldr	r3, [r3, #4]
 80003ea:	f107 0208 	add.w	r2, r7, #8
 80003ee:	4611      	mov	r1, r2
 80003f0:	4618      	mov	r0, r3
 80003f2:	f000 faab 	bl	800094c <MCAL_GPIO_Init>
 80003f6:	687b      	ldr	r3, [r7, #4]
 80003f8:	881b      	ldrh	r3, [r3, #0]
 80003fa:	089b      	lsrs	r3, r3, #2
 80003fc:	b29b      	uxth	r3, r3
 80003fe:	73fb      	strb	r3, [r7, #15]
 8000400:	687b      	ldr	r3, [r7, #4]
 8000402:	881b      	ldrh	r3, [r3, #0]
 8000404:	b2db      	uxtb	r3, r3
 8000406:	f003 0303 	and.w	r3, r3, #3
 800040a:	b2db      	uxtb	r3, r3
 800040c:	009b      	lsls	r3, r3, #2
 800040e:	73bb      	strb	r3, [r7, #14]
 8000410:	4a5d      	ldr	r2, [pc, #372]	; (8000588 <update_EXTI+0x1b4>)
 8000412:	7bfb      	ldrb	r3, [r7, #15]
 8000414:	3302      	adds	r3, #2
 8000416:	f852 2023 	ldr.w	r2, [r2, r3, lsl #2]
 800041a:	7bbb      	ldrb	r3, [r7, #14]
 800041c:	210f      	movs	r1, #15
 800041e:	fa01 f303 	lsl.w	r3, r1, r3
 8000422:	43db      	mvns	r3, r3
 8000424:	4618      	mov	r0, r3
 8000426:	4958      	ldr	r1, [pc, #352]	; (8000588 <update_EXTI+0x1b4>)
 8000428:	7bfb      	ldrb	r3, [r7, #15]
 800042a:	4002      	ands	r2, r0
 800042c:	3302      	adds	r3, #2
 800042e:	f841 2023 	str.w	r2, [r1, r3, lsl #2]
 8000432:	4a55      	ldr	r2, [pc, #340]	; (8000588 <update_EXTI+0x1b4>)
 8000434:	7bfb      	ldrb	r3, [r7, #15]
 8000436:	3302      	adds	r3, #2
 8000438:	f852 2023 	ldr.w	r2, [r2, r3, lsl #2]
 800043c:	687b      	ldr	r3, [r7, #4]
 800043e:	685b      	ldr	r3, [r3, #4]
 8000440:	4952      	ldr	r1, [pc, #328]	; (800058c <update_EXTI+0x1b8>)
 8000442:	428b      	cmp	r3, r1
 8000444:	d016      	beq.n	8000474 <update_EXTI+0xa0>
 8000446:	687b      	ldr	r3, [r7, #4]
 8000448:	685b      	ldr	r3, [r3, #4]
 800044a:	4951      	ldr	r1, [pc, #324]	; (8000590 <update_EXTI+0x1bc>)
 800044c:	428b      	cmp	r3, r1
 800044e:	d00f      	beq.n	8000470 <update_EXTI+0x9c>
 8000450:	687b      	ldr	r3, [r7, #4]
 8000452:	685b      	ldr	r3, [r3, #4]
 8000454:	494f      	ldr	r1, [pc, #316]	; (8000594 <update_EXTI+0x1c0>)
 8000456:	428b      	cmp	r3, r1
 8000458:	d008      	beq.n	800046c <update_EXTI+0x98>
 800045a:	687b      	ldr	r3, [r7, #4]
 800045c:	685b      	ldr	r3, [r3, #4]
 800045e:	494e      	ldr	r1, [pc, #312]	; (8000598 <update_EXTI+0x1c4>)
 8000460:	428b      	cmp	r3, r1
 8000462:	d101      	bne.n	8000468 <update_EXTI+0x94>
 8000464:	2303      	movs	r3, #3
 8000466:	e006      	b.n	8000476 <update_EXTI+0xa2>
 8000468:	2300      	movs	r3, #0
 800046a:	e004      	b.n	8000476 <update_EXTI+0xa2>
 800046c:	2302      	movs	r3, #2
 800046e:	e002      	b.n	8000476 <update_EXTI+0xa2>
 8000470:	2301      	movs	r3, #1
 8000472:	e000      	b.n	8000476 <update_EXTI+0xa2>
 8000474:	2300      	movs	r3, #0
 8000476:	7bb9      	ldrb	r1, [r7, #14]
 8000478:	408b      	lsls	r3, r1
 800047a:	4618      	mov	r0, r3
 800047c:	4942      	ldr	r1, [pc, #264]	; (8000588 <update_EXTI+0x1b4>)
 800047e:	7bfb      	ldrb	r3, [r7, #15]
 8000480:	4302      	orrs	r2, r0
 8000482:	3302      	adds	r3, #2
 8000484:	f841 2023 	str.w	r2, [r1, r3, lsl #2]
 8000488:	4b44      	ldr	r3, [pc, #272]	; (800059c <update_EXTI+0x1c8>)
 800048a:	689b      	ldr	r3, [r3, #8]
 800048c:	687a      	ldr	r2, [r7, #4]
 800048e:	8812      	ldrh	r2, [r2, #0]
 8000490:	4611      	mov	r1, r2
 8000492:	2201      	movs	r2, #1
 8000494:	408a      	lsls	r2, r1
 8000496:	43d2      	mvns	r2, r2
 8000498:	4611      	mov	r1, r2
 800049a:	4a40      	ldr	r2, [pc, #256]	; (800059c <update_EXTI+0x1c8>)
 800049c:	400b      	ands	r3, r1
 800049e:	6093      	str	r3, [r2, #8]
 80004a0:	4b3e      	ldr	r3, [pc, #248]	; (800059c <update_EXTI+0x1c8>)
 80004a2:	68db      	ldr	r3, [r3, #12]
 80004a4:	687a      	ldr	r2, [r7, #4]
 80004a6:	8812      	ldrh	r2, [r2, #0]
 80004a8:	4611      	mov	r1, r2
 80004aa:	2201      	movs	r2, #1
 80004ac:	408a      	lsls	r2, r1
 80004ae:	43d2      	mvns	r2, r2
 80004b0:	4611      	mov	r1, r2
 80004b2:	4a3a      	ldr	r2, [pc, #232]	; (800059c <update_EXTI+0x1c8>)
 80004b4:	400b      	ands	r3, r1
 80004b6:	60d3      	str	r3, [r2, #12]
 80004b8:	687b      	ldr	r3, [r7, #4]
 80004ba:	7b1b      	ldrb	r3, [r3, #12]
 80004bc:	2b00      	cmp	r3, #0
 80004be:	d10b      	bne.n	80004d8 <update_EXTI+0x104>
 80004c0:	4b36      	ldr	r3, [pc, #216]	; (800059c <update_EXTI+0x1c8>)
 80004c2:	689b      	ldr	r3, [r3, #8]
 80004c4:	687a      	ldr	r2, [r7, #4]
 80004c6:	8812      	ldrh	r2, [r2, #0]
 80004c8:	4611      	mov	r1, r2
 80004ca:	2201      	movs	r2, #1
 80004cc:	408a      	lsls	r2, r1
 80004ce:	4611      	mov	r1, r2
 80004d0:	4a32      	ldr	r2, [pc, #200]	; (800059c <update_EXTI+0x1c8>)
 80004d2:	430b      	orrs	r3, r1
 80004d4:	6093      	str	r3, [r2, #8]
 80004d6:	e025      	b.n	8000524 <update_EXTI+0x150>
 80004d8:	687b      	ldr	r3, [r7, #4]
 80004da:	7b1b      	ldrb	r3, [r3, #12]
 80004dc:	2b01      	cmp	r3, #1
 80004de:	d10b      	bne.n	80004f8 <update_EXTI+0x124>
 80004e0:	4b2e      	ldr	r3, [pc, #184]	; (800059c <update_EXTI+0x1c8>)
 80004e2:	68db      	ldr	r3, [r3, #12]
 80004e4:	687a      	ldr	r2, [r7, #4]
 80004e6:	8812      	ldrh	r2, [r2, #0]
 80004e8:	4611      	mov	r1, r2
 80004ea:	2201      	movs	r2, #1
 80004ec:	408a      	lsls	r2, r1
 80004ee:	4611      	mov	r1, r2
 80004f0:	4a2a      	ldr	r2, [pc, #168]	; (800059c <update_EXTI+0x1c8>)
 80004f2:	430b      	orrs	r3, r1
 80004f4:	60d3      	str	r3, [r2, #12]
 80004f6:	e015      	b.n	8000524 <update_EXTI+0x150>
 80004f8:	4b28      	ldr	r3, [pc, #160]	; (800059c <update_EXTI+0x1c8>)
 80004fa:	689b      	ldr	r3, [r3, #8]
 80004fc:	687a      	ldr	r2, [r7, #4]
 80004fe:	8812      	ldrh	r2, [r2, #0]
 8000500:	4611      	mov	r1, r2
 8000502:	2201      	movs	r2, #1
 8000504:	408a      	lsls	r2, r1
 8000506:	4611      	mov	r1, r2
 8000508:	4a24      	ldr	r2, [pc, #144]	; (800059c <update_EXTI+0x1c8>)
 800050a:	430b      	orrs	r3, r1
 800050c:	6093      	str	r3, [r2, #8]
 800050e:	4b23      	ldr	r3, [pc, #140]	; (800059c <update_EXTI+0x1c8>)
 8000510:	68db      	ldr	r3, [r3, #12]
 8000512:	687a      	ldr	r2, [r7, #4]
 8000514:	8812      	ldrh	r2, [r2, #0]
 8000516:	4611      	mov	r1, r2
 8000518:	2201      	movs	r2, #1
 800051a:	408a      	lsls	r2, r1
 800051c:	4611      	mov	r1, r2
 800051e:	4a1f      	ldr	r2, [pc, #124]	; (800059c <update_EXTI+0x1c8>)
 8000520:	430b      	orrs	r3, r1
 8000522:	60d3      	str	r3, [r2, #12]
 8000524:	687b      	ldr	r3, [r7, #4]
 8000526:	881b      	ldrh	r3, [r3, #0]
 8000528:	4619      	mov	r1, r3
 800052a:	687b      	ldr	r3, [r7, #4]
 800052c:	691b      	ldr	r3, [r3, #16]
 800052e:	4a1c      	ldr	r2, [pc, #112]	; (80005a0 <update_EXTI+0x1cc>)
 8000530:	f842 3021 	str.w	r3, [r2, r1, lsl #2]
 8000534:	687b      	ldr	r3, [r7, #4]
 8000536:	7b5b      	ldrb	r3, [r3, #13]
 8000538:	2b01      	cmp	r3, #1
 800053a:	d110      	bne.n	800055e <update_EXTI+0x18a>
 800053c:	4b17      	ldr	r3, [pc, #92]	; (800059c <update_EXTI+0x1c8>)
 800053e:	681b      	ldr	r3, [r3, #0]
 8000540:	687a      	ldr	r2, [r7, #4]
 8000542:	8812      	ldrh	r2, [r2, #0]
 8000544:	4611      	mov	r1, r2
 8000546:	2201      	movs	r2, #1
 8000548:	408a      	lsls	r2, r1
 800054a:	4611      	mov	r1, r2
 800054c:	4a13      	ldr	r2, [pc, #76]	; (800059c <update_EXTI+0x1c8>)
 800054e:	430b      	orrs	r3, r1
 8000550:	6013      	str	r3, [r2, #0]
 8000552:	687b      	ldr	r3, [r7, #4]
 8000554:	881b      	ldrh	r3, [r3, #0]
 8000556:	4618      	mov	r0, r3
 8000558:	f7ff fe74 	bl	8000244 <Enable_NVIC>
 800055c:	e010      	b.n	8000580 <update_EXTI+0x1ac>
 800055e:	4b0f      	ldr	r3, [pc, #60]	; (800059c <update_EXTI+0x1c8>)
 8000560:	681b      	ldr	r3, [r3, #0]
 8000562:	687a      	ldr	r2, [r7, #4]
 8000564:	8812      	ldrh	r2, [r2, #0]
 8000566:	4611      	mov	r1, r2
 8000568:	2201      	movs	r2, #1
 800056a:	408a      	lsls	r2, r1
 800056c:	43d2      	mvns	r2, r2
 800056e:	4611      	mov	r1, r2
 8000570:	4a0a      	ldr	r2, [pc, #40]	; (800059c <update_EXTI+0x1c8>)
 8000572:	400b      	ands	r3, r1
 8000574:	6013      	str	r3, [r2, #0]
 8000576:	687b      	ldr	r3, [r7, #4]
 8000578:	881b      	ldrh	r3, [r3, #0]
 800057a:	4618      	mov	r0, r3
 800057c:	f7ff fec6 	bl	800030c <Disable_NVIC>
 8000580:	bf00      	nop
 8000582:	3710      	adds	r7, #16
 8000584:	46bd      	mov	sp, r7
 8000586:	bd80      	pop	{r7, pc}
 8000588:	40010000 	andmi	r0, r1, r0
 800058c:	40010800 	andmi	r0, r1, r0, lsl #16
 8000590:	40010c00 	andmi	r0, r1, r0, lsl #24
 8000594:	40011000 	andmi	r1, r1, r0
 8000598:	40011400 	andmi	r1, r1, r0, lsl #8
 800059c:	40010400 	andmi	r0, r1, r0, lsl #8
 80005a0:	20000020 	andcs	r0, r0, r0, lsr #32

080005a4 <Mcal_EXTI_GPIO_init>:
 80005a4:	b580      	push	{r7, lr}
 80005a6:	b082      	sub	sp, #8
 80005a8:	af00      	add	r7, sp, #0
 80005aa:	6078      	str	r0, [r7, #4]
 80005ac:	6878      	ldr	r0, [r7, #4]
 80005ae:	f7ff ff11 	bl	80003d4 <update_EXTI>
 80005b2:	bf00      	nop
 80005b4:	3708      	adds	r7, #8
 80005b6:	46bd      	mov	sp, r7
 80005b8:	bd80      	pop	{r7, pc}
	...

080005bc <EXTI0_IRQHandler>:
 80005bc:	b580      	push	{r7, lr}
 80005be:	af00      	add	r7, sp, #0
 80005c0:	4b05      	ldr	r3, [pc, #20]	; (80005d8 <EXTI0_IRQHandler+0x1c>)
 80005c2:	695b      	ldr	r3, [r3, #20]
 80005c4:	4a04      	ldr	r2, [pc, #16]	; (80005d8 <EXTI0_IRQHandler+0x1c>)
 80005c6:	f043 0301 	orr.w	r3, r3, #1
 80005ca:	6153      	str	r3, [r2, #20]
 80005cc:	4b03      	ldr	r3, [pc, #12]	; (80005dc <EXTI0_IRQHandler+0x20>)
 80005ce:	681b      	ldr	r3, [r3, #0]
 80005d0:	4798      	blx	r3
 80005d2:	bf00      	nop
 80005d4:	bd80      	pop	{r7, pc}
 80005d6:	bf00      	nop
 80005d8:	40010400 	andmi	r0, r1, r0, lsl #8
 80005dc:	20000020 	andcs	r0, r0, r0, lsr #32

080005e0 <EXTI1_IRQHandler>:
 80005e0:	b580      	push	{r7, lr}
 80005e2:	af00      	add	r7, sp, #0
 80005e4:	4b05      	ldr	r3, [pc, #20]	; (80005fc <EXTI1_IRQHandler+0x1c>)
 80005e6:	695b      	ldr	r3, [r3, #20]
 80005e8:	4a04      	ldr	r2, [pc, #16]	; (80005fc <EXTI1_IRQHandler+0x1c>)
 80005ea:	f043 0302 	orr.w	r3, r3, #2
 80005ee:	6153      	str	r3, [r2, #20]
 80005f0:	4b03      	ldr	r3, [pc, #12]	; (8000600 <EXTI1_IRQHandler+0x20>)
 80005f2:	685b      	ldr	r3, [r3, #4]
 80005f4:	4798      	blx	r3
 80005f6:	bf00      	nop
 80005f8:	bd80      	pop	{r7, pc}
 80005fa:	bf00      	nop
 80005fc:	40010400 	andmi	r0, r1, r0, lsl #8
 8000600:	20000020 	andcs	r0, r0, r0, lsr #32

08000604 <EXTI2_IRQHandler>:
 8000604:	b580      	push	{r7, lr}
 8000606:	af00      	add	r7, sp, #0
 8000608:	4b05      	ldr	r3, [pc, #20]	; (8000620 <EXTI2_IRQHandler+0x1c>)
 800060a:	695b      	ldr	r3, [r3, #20]
 800060c:	4a04      	ldr	r2, [pc, #16]	; (8000620 <EXTI2_IRQHandler+0x1c>)
 800060e:	f043 0304 	orr.w	r3, r3, #4
 8000612:	6153      	str	r3, [r2, #20]
 8000614:	4b03      	ldr	r3, [pc, #12]	; (8000624 <EXTI2_IRQHandler+0x20>)
 8000616:	689b      	ldr	r3, [r3, #8]
 8000618:	4798      	blx	r3
 800061a:	bf00      	nop
 800061c:	bd80      	pop	{r7, pc}
 800061e:	bf00      	nop
 8000620:	40010400 	andmi	r0, r1, r0, lsl #8
 8000624:	20000020 	andcs	r0, r0, r0, lsr #32

08000628 <EXTI3_IRQHandler>:
 8000628:	b580      	push	{r7, lr}
 800062a:	af00      	add	r7, sp, #0
 800062c:	4b05      	ldr	r3, [pc, #20]	; (8000644 <EXTI3_IRQHandler+0x1c>)
 800062e:	695b      	ldr	r3, [r3, #20]
 8000630:	4a04      	ldr	r2, [pc, #16]	; (8000644 <EXTI3_IRQHandler+0x1c>)
 8000632:	f043 0308 	orr.w	r3, r3, #8
 8000636:	6153      	str	r3, [r2, #20]
 8000638:	4b03      	ldr	r3, [pc, #12]	; (8000648 <EXTI3_IRQHandler+0x20>)
 800063a:	68db      	ldr	r3, [r3, #12]
 800063c:	4798      	blx	r3
 800063e:	bf00      	nop
 8000640:	bd80      	pop	{r7, pc}
 8000642:	bf00      	nop
 8000644:	40010400 	andmi	r0, r1, r0, lsl #8
 8000648:	20000020 	andcs	r0, r0, r0, lsr #32

0800064c <EXTI4_IRQHandler>:
 800064c:	b580      	push	{r7, lr}
 800064e:	af00      	add	r7, sp, #0
 8000650:	4b05      	ldr	r3, [pc, #20]	; (8000668 <EXTI4_IRQHandler+0x1c>)
 8000652:	695b      	ldr	r3, [r3, #20]
 8000654:	4a04      	ldr	r2, [pc, #16]	; (8000668 <EXTI4_IRQHandler+0x1c>)
 8000656:	f043 0310 	orr.w	r3, r3, #16
 800065a:	6153      	str	r3, [r2, #20]
 800065c:	4b03      	ldr	r3, [pc, #12]	; (800066c <EXTI4_IRQHandler+0x20>)
 800065e:	691b      	ldr	r3, [r3, #16]
 8000660:	4798      	blx	r3
 8000662:	bf00      	nop
 8000664:	bd80      	pop	{r7, pc}
 8000666:	bf00      	nop
 8000668:	40010400 	andmi	r0, r1, r0, lsl #8
 800066c:	20000020 	andcs	r0, r0, r0, lsr #32

08000670 <EXTI9_5_IRQHandler>:
 8000670:	b580      	push	{r7, lr}
 8000672:	af00      	add	r7, sp, #0
 8000674:	4b26      	ldr	r3, [pc, #152]	; (8000710 <EXTI9_5_IRQHandler+0xa0>)
 8000676:	695b      	ldr	r3, [r3, #20]
 8000678:	f003 0320 	and.w	r3, r3, #32
 800067c:	2b00      	cmp	r3, #0
 800067e:	d008      	beq.n	8000692 <EXTI9_5_IRQHandler+0x22>
 8000680:	4b23      	ldr	r3, [pc, #140]	; (8000710 <EXTI9_5_IRQHandler+0xa0>)
 8000682:	695b      	ldr	r3, [r3, #20]
 8000684:	4a22      	ldr	r2, [pc, #136]	; (8000710 <EXTI9_5_IRQHandler+0xa0>)
 8000686:	f043 0320 	orr.w	r3, r3, #32
 800068a:	6153      	str	r3, [r2, #20]
 800068c:	4b21      	ldr	r3, [pc, #132]	; (8000714 <EXTI9_5_IRQHandler+0xa4>)
 800068e:	695b      	ldr	r3, [r3, #20]
 8000690:	4798      	blx	r3
 8000692:	4b1f      	ldr	r3, [pc, #124]	; (8000710 <EXTI9_5_IRQHandler+0xa0>)
 8000694:	695b      	ldr	r3, [r3, #20]
 8000696:	f003 0340 	and.w	r3, r3, #64	; 0x40
 800069a:	2b00      	cmp	r3, #0
 800069c:	d008      	beq.n	80006b0 <EXTI9_5_IRQHandler+0x40>
 800069e:	4b1c      	ldr	r3, [pc, #112]	; (8000710 <EXTI9_5_IRQHandler+0xa0>)
 80006a0:	695b      	ldr	r3, [r3, #20]
 80006a2:	4a1b      	ldr	r2, [pc, #108]	; (8000710 <EXTI9_5_IRQHandler+0xa0>)
 80006a4:	f043 0340 	orr.w	r3, r3, #64	; 0x40
 80006a8:	6153      	str	r3, [r2, #20]
 80006aa:	4b1a      	ldr	r3, [pc, #104]	; (8000714 <EXTI9_5_IRQHandler+0xa4>)
 80006ac:	699b      	ldr	r3, [r3, #24]
 80006ae:	4798      	blx	r3
 80006b0:	4b17      	ldr	r3, [pc, #92]	; (8000710 <EXTI9_5_IRQHandler+0xa0>)
 80006b2:	695b      	ldr	r3, [r3, #20]
 80006b4:	f003 0380 	and.w	r3, r3, #128	; 0x80
 80006b8:	2b00      	cmp	r3, #0
 80006ba:	d008      	beq.n	80006ce <EXTI9_5_IRQHandler+0x5e>
 80006bc:	4b14      	ldr	r3, [pc, #80]	; (8000710 <EXTI9_5_IRQHandler+0xa0>)
 80006be:	695b      	ldr	r3, [r3, #20]
 80006c0:	4a13      	ldr	r2, [pc, #76]	; (8000710 <EXTI9_5_IRQHandler+0xa0>)
 80006c2:	f043 0380 	orr.w	r3, r3, #128	; 0x80
 80006c6:	6153      	str	r3, [r2, #20]
 80006c8:	4b12      	ldr	r3, [pc, #72]	; (8000714 <EXTI9_5_IRQHandler+0xa4>)
 80006ca:	69db      	ldr	r3, [r3, #28]
 80006cc:	4798      	blx	r3
 80006ce:	4b10      	ldr	r3, [pc, #64]	; (8000710 <EXTI9_5_IRQHandler+0xa0>)
 80006d0:	695b      	ldr	r3, [r3, #20]
 80006d2:	f403 7380 	and.w	r3, r3, #256	; 0x100
 80006d6:	2b00      	cmp	r3, #0
 80006d8:	d008      	beq.n	80006ec <EXTI9_5_IRQHandler+0x7c>
 80006da:	4b0d      	ldr	r3, [pc, #52]	; (8000710 <EXTI9_5_IRQHandler+0xa0>)
 80006dc:	695b      	ldr	r3, [r3, #20]
 80006de:	4a0c      	ldr	r2, [pc, #48]	; (8000710 <EXTI9_5_IRQHandler+0xa0>)
 80006e0:	f443 7380 	orr.w	r3, r3, #256	; 0x100
 80006e4:	6153      	str	r3, [r2, #20]
 80006e6:	4b0b      	ldr	r3, [pc, #44]	; (8000714 <EXTI9_5_IRQHandler+0xa4>)
 80006e8:	6a1b      	ldr	r3, [r3, #32]
 80006ea:	4798      	blx	r3
 80006ec:	4b08      	ldr	r3, [pc, #32]	; (8000710 <EXTI9_5_IRQHandler+0xa0>)
 80006ee:	695b      	ldr	r3, [r3, #20]
 80006f0:	f403 7300 	and.w	r3, r3, #512	; 0x200
 80006f4:	2b00      	cmp	r3, #0
 80006f6:	d008      	beq.n	800070a <EXTI9_5_IRQHandler+0x9a>
 80006f8:	4b05      	ldr	r3, [pc, #20]	; (8000710 <EXTI9_5_IRQHandler+0xa0>)
 80006fa:	695b      	ldr	r3, [r3, #20]
 80006fc:	4a04      	ldr	r2, [pc, #16]	; (8000710 <EXTI9_5_IRQHandler+0xa0>)
 80006fe:	f443 7300 	orr.w	r3, r3, #512	; 0x200
 8000702:	6153      	str	r3, [r2, #20]
 8000704:	4b03      	ldr	r3, [pc, #12]	; (8000714 <EXTI9_5_IRQHandler+0xa4>)
 8000706:	6a5b      	ldr	r3, [r3, #36]	; 0x24
 8000708:	4798      	blx	r3
 800070a:	bf00      	nop
 800070c:	bd80      	pop	{r7, pc}
 800070e:	bf00      	nop
 8000710:	40010400 	andmi	r0, r1, r0, lsl #8
 8000714:	20000020 	andcs	r0, r0, r0, lsr #32

08000718 <EXTI15_10_IRQHandler>:
 8000718:	b580      	push	{r7, lr}
 800071a:	af00      	add	r7, sp, #0
 800071c:	4b2d      	ldr	r3, [pc, #180]	; (80007d4 <EXTI15_10_IRQHandler+0xbc>)
 800071e:	695b      	ldr	r3, [r3, #20]
 8000720:	f403 6380 	and.w	r3, r3, #1024	; 0x400
 8000724:	2b00      	cmp	r3, #0
 8000726:	d008      	beq.n	800073a <EXTI15_10_IRQHandler+0x22>
 8000728:	4b2a      	ldr	r3, [pc, #168]	; (80007d4 <EXTI15_10_IRQHandler+0xbc>)
 800072a:	695b      	ldr	r3, [r3, #20]
 800072c:	4a29      	ldr	r2, [pc, #164]	; (80007d4 <EXTI15_10_IRQHandler+0xbc>)
 800072e:	f443 6380 	orr.w	r3, r3, #1024	; 0x400
 8000732:	6153      	str	r3, [r2, #20]
 8000734:	4b28      	ldr	r3, [pc, #160]	; (80007d8 <EXTI15_10_IRQHandler+0xc0>)
 8000736:	6a9b      	ldr	r3, [r3, #40]	; 0x28
 8000738:	4798      	blx	r3
 800073a:	4b26      	ldr	r3, [pc, #152]	; (80007d4 <EXTI15_10_IRQHandler+0xbc>)
 800073c:	695b      	ldr	r3, [r3, #20]
 800073e:	f403 6300 	and.w	r3, r3, #2048	; 0x800
 8000742:	2b00      	cmp	r3, #0
 8000744:	d008      	beq.n	8000758 <EXTI15_10_IRQHandler+0x40>
 8000746:	4b23      	ldr	r3, [pc, #140]	; (80007d4 <EXTI15_10_IRQHandler+0xbc>)
 8000748:	695b      	ldr	r3, [r3, #20]
 800074a:	4a22      	ldr	r2, [pc, #136]	; (80007d4 <EXTI15_10_IRQHandler+0xbc>)
 800074c:	f443 6300 	orr.w	r3, r3, #2048	; 0x800
 8000750:	6153      	str	r3, [r2, #20]
 8000752:	4b21      	ldr	r3, [pc, #132]	; (80007d8 <EXTI15_10_IRQHandler+0xc0>)
 8000754:	6adb      	ldr	r3, [r3, #44]	; 0x2c
 8000756:	4798      	blx	r3
 8000758:	4b1e      	ldr	r3, [pc, #120]	; (80007d4 <EXTI15_10_IRQHandler+0xbc>)
 800075a:	695b      	ldr	r3, [r3, #20]
 800075c:	f403 5380 	and.w	r3, r3, #4096	; 0x1000
 8000760:	2b00      	cmp	r3, #0
 8000762:	d008      	beq.n	8000776 <EXTI15_10_IRQHandler+0x5e>
 8000764:	4b1b      	ldr	r3, [pc, #108]	; (80007d4 <EXTI15_10_IRQHandler+0xbc>)
 8000766:	695b      	ldr	r3, [r3, #20]
 8000768:	4a1a      	ldr	r2, [pc, #104]	; (80007d4 <EXTI15_10_IRQHandler+0xbc>)
 800076a:	f443 5380 	orr.w	r3, r3, #4096	; 0x1000
 800076e:	6153      	str	r3, [r2, #20]
 8000770:	4b19      	ldr	r3, [pc, #100]	; (80007d8 <EXTI15_10_IRQHandler+0xc0>)
 8000772:	6b1b      	ldr	r3, [r3, #48]	; 0x30
 8000774:	4798      	blx	r3
 8000776:	4b17      	ldr	r3, [pc, #92]	; (80007d4 <EXTI15_10_IRQHandler+0xbc>)
 8000778:	695b      	ldr	r3, [r3, #20]
 800077a:	f403 5300 	and.w	r3, r3, #8192	; 0x2000
 800077e:	2b00      	cmp	r3, #0
 8000780:	d008      	beq.n	8000794 <EXTI15_10_IRQHandler+0x7c>
 8000782:	4b14      	ldr	r3, [pc, #80]	; (80007d4 <EXTI15_10_IRQHandler+0xbc>)
 8000784:	695b      	ldr	r3, [r3, #20]
 8000786:	4a13      	ldr	r2, [pc, #76]	; (80007d4 <EXTI15_10_IRQHandler+0xbc>)
 8000788:	f443 5300 	orr.w	r3, r3, #8192	; 0x2000
 800078c:	6153      	str	r3, [r2, #20]
 800078e:	4b12      	ldr	r3, [pc, #72]	; (80007d8 <EXTI15_10_IRQHandler+0xc0>)
 8000790:	6b5b      	ldr	r3, [r3, #52]	; 0x34
 8000792:	4798      	blx	r3
 8000794:	4b0f      	ldr	r3, [pc, #60]	; (80007d4 <EXTI15_10_IRQHandler+0xbc>)
 8000796:	695b      	ldr	r3, [r3, #20]
 8000798:	f403 4380 	and.w	r3, r3, #16384	; 0x4000
 800079c:	2b00      	cmp	r3, #0
 800079e:	d008      	beq.n	80007b2 <EXTI15_10_IRQHandler+0x9a>
 80007a0:	4b0c      	ldr	r3, [pc, #48]	; (80007d4 <EXTI15_10_IRQHandler+0xbc>)
 80007a2:	695b      	ldr	r3, [r3, #20]
 80007a4:	4a0b      	ldr	r2, [pc, #44]	; (80007d4 <EXTI15_10_IRQHandler+0xbc>)
 80007a6:	f443 4380 	orr.w	r3, r3, #16384	; 0x4000
 80007aa:	6153      	str	r3, [r2, #20]
 80007ac:	4b0a      	ldr	r3, [pc, #40]	; (80007d8 <EXTI15_10_IRQHandler+0xc0>)
 80007ae:	6b9b      	ldr	r3, [r3, #56]	; 0x38
 80007b0:	4798      	blx	r3
 80007b2:	4b08      	ldr	r3, [pc, #32]	; (80007d4 <EXTI15_10_IRQHandler+0xbc>)
 80007b4:	695b      	ldr	r3, [r3, #20]
 80007b6:	f403 4300 	and.w	r3, r3, #32768	; 0x8000
 80007ba:	2b00      	cmp	r3, #0
 80007bc:	d008      	beq.n	80007d0 <EXTI15_10_IRQHandler+0xb8>
 80007be:	4b05      	ldr	r3, [pc, #20]	; (80007d4 <EXTI15_10_IRQHandler+0xbc>)
 80007c0:	695b      	ldr	r3, [r3, #20]
 80007c2:	4a04      	ldr	r2, [pc, #16]	; (80007d4 <EXTI15_10_IRQHandler+0xbc>)
 80007c4:	f443 4300 	orr.w	r3, r3, #32768	; 0x8000
 80007c8:	6153      	str	r3, [r2, #20]
 80007ca:	4b03      	ldr	r3, [pc, #12]	; (80007d8 <EXTI15_10_IRQHandler+0xc0>)
 80007cc:	6bdb      	ldr	r3, [r3, #60]	; 0x3c
 80007ce:	4798      	blx	r3
 80007d0:	bf00      	nop
 80007d2:	bd80      	pop	{r7, pc}
 80007d4:	40010400 	andmi	r0, r1, r0, lsl #8
 80007d8:	20000020 	andcs	r0, r0, r0, lsr #32

080007dc <Get_CRLH_Position>:
 80007dc:	b480      	push	{r7}
 80007de:	b083      	sub	sp, #12
 80007e0:	af00      	add	r7, sp, #0
 80007e2:	4603      	mov	r3, r0
 80007e4:	80fb      	strh	r3, [r7, #6]
 80007e6:	88fb      	ldrh	r3, [r7, #6]
 80007e8:	f5b3 4f00 	cmp.w	r3, #32768	; 0x8000
 80007ec:	f000 80a5 	beq.w	800093a <Get_CRLH_Position+0x15e>
 80007f0:	f5b3 4f00 	cmp.w	r3, #32768	; 0x8000
 80007f4:	f300 80a3 	bgt.w	800093e <Get_CRLH_Position+0x162>
 80007f8:	f5b3 4f80 	cmp.w	r3, #16384	; 0x4000
 80007fc:	f000 809b 	beq.w	8000936 <Get_CRLH_Position+0x15a>
 8000800:	f5b3 4f80 	cmp.w	r3, #16384	; 0x4000
 8000804:	f300 809b 	bgt.w	800093e <Get_CRLH_Position+0x162>
 8000808:	f5b3 5f00 	cmp.w	r3, #8192	; 0x2000
 800080c:	f000 8091 	beq.w	8000932 <Get_CRLH_Position+0x156>
 8000810:	f5b3 5f00 	cmp.w	r3, #8192	; 0x2000
 8000814:	f300 8093 	bgt.w	800093e <Get_CRLH_Position+0x162>
 8000818:	f5b3 5f80 	cmp.w	r3, #4096	; 0x1000
 800081c:	f000 8087 	beq.w	800092e <Get_CRLH_Position+0x152>
 8000820:	f5b3 5f80 	cmp.w	r3, #4096	; 0x1000
 8000824:	f300 808b 	bgt.w	800093e <Get_CRLH_Position+0x162>
 8000828:	f5b3 6f00 	cmp.w	r3, #2048	; 0x800
 800082c:	d07d      	beq.n	800092a <Get_CRLH_Position+0x14e>
 800082e:	f5b3 6f00 	cmp.w	r3, #2048	; 0x800
 8000832:	f300 8084 	bgt.w	800093e <Get_CRLH_Position+0x162>
 8000836:	f5b3 6f80 	cmp.w	r3, #1024	; 0x400
 800083a:	d074      	beq.n	8000926 <Get_CRLH_Position+0x14a>
 800083c:	f5b3 6f80 	cmp.w	r3, #1024	; 0x400
 8000840:	dc7d      	bgt.n	800093e <Get_CRLH_Position+0x162>
 8000842:	f5b3 7f00 	cmp.w	r3, #512	; 0x200
 8000846:	d06c      	beq.n	8000922 <Get_CRLH_Position+0x146>
 8000848:	f5b3 7f00 	cmp.w	r3, #512	; 0x200
 800084c:	dc77      	bgt.n	800093e <Get_CRLH_Position+0x162>
 800084e:	f5b3 7f80 	cmp.w	r3, #256	; 0x100
 8000852:	d064      	beq.n	800091e <Get_CRLH_Position+0x142>
 8000854:	f5b3 7f80 	cmp.w	r3, #256	; 0x100
 8000858:	dc71      	bgt.n	800093e <Get_CRLH_Position+0x162>
 800085a:	2b80      	cmp	r3, #128	; 0x80
 800085c:	d05d      	beq.n	800091a <Get_CRLH_Position+0x13e>
 800085e:	2b80      	cmp	r3, #128	; 0x80
 8000860:	dc6d      	bgt.n	800093e <Get_CRLH_Position+0x162>
 8000862:	2b20      	cmp	r3, #32
 8000864:	dc48      	bgt.n	80008f8 <Get_CRLH_Position+0x11c>
 8000866:	2b00      	cmp	r3, #0
 8000868:	dd69      	ble.n	800093e <Get_CRLH_Position+0x162>
 800086a:	3b01      	subs	r3, #1
 800086c:	2b1f      	cmp	r3, #31
 800086e:	d866      	bhi.n	800093e <Get_CRLH_Position+0x162>
 8000870:	a201      	add	r2, pc, #4	; (adr r2, 8000878 <Get_CRLH_Position+0x9c>)
 8000872:	f852 f023 	ldr.w	pc, [r2, r3, lsl #2]
 8000876:	bf00      	nop
 8000878:	080008ff 	stmdaeq	r0, {r0, r1, r2, r3, r4, r5, r6, r7, fp}
 800087c:	08000903 	stmdaeq	r0, {r0, r1, r8, fp}
 8000880:	0800093f 	stmdaeq	r0, {r0, r1, r2, r3, r4, r5, r8, fp}
 8000884:	08000907 	stmdaeq	r0, {r0, r1, r2, r8, fp}
 8000888:	0800093f 	stmdaeq	r0, {r0, r1, r2, r3, r4, r5, r8, fp}
 800088c:	0800093f 	stmdaeq	r0, {r0, r1, r2, r3, r4, r5, r8, fp}
 8000890:	0800093f 	stmdaeq	r0, {r0, r1, r2, r3, r4, r5, r8, fp}
 8000894:	0800090b 	stmdaeq	r0, {r0, r1, r3, r8, fp}
 8000898:	0800093f 	stmdaeq	r0, {r0, r1, r2, r3, r4, r5, r8, fp}
 800089c:	0800093f 	stmdaeq	r0, {r0, r1, r2, r3, r4, r5, r8, fp}
 80008a0:	0800093f 	stmdaeq	r0, {r0, r1, r2, r3, r4, r5, r8, fp}
 80008a4:	0800093f 	stmdaeq	r0, {r0, r1, r2, r3, r4, r5, r8, fp}
 80008a8:	0800093f 	stmdaeq	r0, {r0, r1, r2, r3, r4, r5, r8, fp}
 80008ac:	0800093f 	stmdaeq	r0, {r0, r1, r2, r3, r4, r5, r8, fp}
 80008b0:	0800093f 	stmdaeq	r0, {r0, r1, r2, r3, r4, r5, r8, fp}
 80008b4:	0800090f 	stmdaeq	r0, {r0, r1, r2, r3, r8, fp}
 80008b8:	0800093f 	stmdaeq	r0, {r0, r1, r2, r3, r4, r5, r8, fp}
 80008bc:	0800093f 	stmdaeq	r0, {r0, r1, r2, r3, r4, r5, r8, fp}
 80008c0:	0800093f 	stmdaeq	r0, {r0, r1, r2, r3, r4, r5, r8, fp}
 80008c4:	0800093f 	stmdaeq	r0, {r0, r1, r2, r3, r4, r5, r8, fp}
 80008c8:	0800093f 	stmdaeq	r0, {r0, r1, r2, r3, r4, r5, r8, fp}
 80008cc:	0800093f 	stmdaeq	r0, {r0, r1, r2, r3, r4, r5, r8, fp}
 80008d0:	0800093f 	stmdaeq	r0, {r0, r1, r2, r3, r4, r5, r8, fp}
 80008d4:	0800093f 	stmdaeq	r0, {r0, r1, r2, r3, r4, r5, r8, fp}
 80008d8:	0800093f 	stmdaeq	r0, {r0, r1, r2, r3, r4, r5, r8, fp}
 80008dc:	0800093f 	stmdaeq	r0, {r0, r1, r2, r3, r4, r5, r8, fp}
 80008e0:	0800093f 	stmdaeq	r0, {r0, r1, r2, r3, r4, r5, r8, fp}
 80008e4:	0800093f 	stmdaeq	r0, {r0, r1, r2, r3, r4, r5, r8, fp}
 80008e8:	0800093f 	stmdaeq	r0, {r0, r1, r2, r3, r4, r5, r8, fp}
 80008ec:	0800093f 	stmdaeq	r0, {r0, r1, r2, r3, r4, r5, r8, fp}
 80008f0:	0800093f 	stmdaeq	r0, {r0, r1, r2, r3, r4, r5, r8, fp}
 80008f4:	08000913 	stmdaeq	r0, {r0, r1, r4, r8, fp}
 80008f8:	2b40      	cmp	r3, #64	; 0x40
 80008fa:	d00c      	beq.n	8000916 <Get_CRLH_Position+0x13a>
 80008fc:	e01f      	b.n	800093e <Get_CRLH_Position+0x162>
 80008fe:	2300      	movs	r3, #0
 8000900:	e01e      	b.n	8000940 <Get_CRLH_Position+0x164>
 8000902:	2304      	movs	r3, #4
 8000904:	e01c      	b.n	8000940 <Get_CRLH_Position+0x164>
 8000906:	2308      	movs	r3, #8
 8000908:	e01a      	b.n	8000940 <Get_CRLH_Position+0x164>
 800090a:	230c      	movs	r3, #12
 800090c:	e018      	b.n	8000940 <Get_CRLH_Position+0x164>
 800090e:	2310      	movs	r3, #16
 8000910:	e016      	b.n	8000940 <Get_CRLH_Position+0x164>
 8000912:	2314      	movs	r3, #20
 8000914:	e014      	b.n	8000940 <Get_CRLH_Position+0x164>
 8000916:	2318      	movs	r3, #24
 8000918:	e012      	b.n	8000940 <Get_CRLH_Position+0x164>
 800091a:	231c      	movs	r3, #28
 800091c:	e010      	b.n	8000940 <Get_CRLH_Position+0x164>
 800091e:	2300      	movs	r3, #0
 8000920:	e00e      	b.n	8000940 <Get_CRLH_Position+0x164>
 8000922:	2304      	movs	r3, #4
 8000924:	e00c      	b.n	8000940 <Get_CRLH_Position+0x164>
 8000926:	2308      	movs	r3, #8
 8000928:	e00a      	b.n	8000940 <Get_CRLH_Position+0x164>
 800092a:	230c      	movs	r3, #12
 800092c:	e008      	b.n	8000940 <Get_CRLH_Position+0x164>
 800092e:	2310      	movs	r3, #16
 8000930:	e006      	b.n	8000940 <Get_CRLH_Position+0x164>
 8000932:	2314      	movs	r3, #20
 8000934:	e004      	b.n	8000940 <Get_CRLH_Position+0x164>
 8000936:	2318      	movs	r3, #24
 8000938:	e002      	b.n	8000940 <Get_CRLH_Position+0x164>
 800093a:	231c      	movs	r3, #28
 800093c:	e000      	b.n	8000940 <Get_CRLH_Position+0x164>
 800093e:	2300      	movs	r3, #0
 8000940:	4618      	mov	r0, r3
 8000942:	370c      	adds	r7, #12
 8000944:	46bd      	mov	sp, r7
 8000946:	bc80      	pop	{r7}
 8000948:	4770      	bx	lr
 800094a:	bf00      	nop

0800094c <MCAL_GPIO_Init>:
 800094c:	b590      	push	{r4, r7, lr}
 800094e:	b085      	sub	sp, #20
 8000950:	af00      	add	r7, sp, #0
 8000952:	6078      	str	r0, [r7, #4]
 8000954:	6039      	str	r1, [r7, #0]
 8000956:	2300      	movs	r3, #0
 8000958:	60bb      	str	r3, [r7, #8]
 800095a:	2300      	movs	r3, #0
 800095c:	73fb      	strb	r3, [r7, #15]
 800095e:	683b      	ldr	r3, [r7, #0]
 8000960:	881b      	ldrh	r3, [r3, #0]
 8000962:	2bff      	cmp	r3, #255	; 0xff
 8000964:	d801      	bhi.n	800096a <MCAL_GPIO_Init+0x1e>
 8000966:	687b      	ldr	r3, [r7, #4]
 8000968:	e001      	b.n	800096e <MCAL_GPIO_Init+0x22>
 800096a:	687b      	ldr	r3, [r7, #4]
 800096c:	3304      	adds	r3, #4
 800096e:	60bb      	str	r3, [r7, #8]
 8000970:	683b      	ldr	r3, [r7, #0]
 8000972:	881b      	ldrh	r3, [r3, #0]
 8000974:	4618      	mov	r0, r3
 8000976:	f7ff ff31 	bl	80007dc <Get_CRLH_Position>
 800097a:	4603      	mov	r3, r0
 800097c:	461a      	mov	r2, r3
 800097e:	230f      	movs	r3, #15
 8000980:	4093      	lsls	r3, r2
 8000982:	43da      	mvns	r2, r3
 8000984:	68bb      	ldr	r3, [r7, #8]
 8000986:	681b      	ldr	r3, [r3, #0]
 8000988:	401a      	ands	r2, r3
 800098a:	68bb      	ldr	r3, [r7, #8]
 800098c:	601a      	str	r2, [r3, #0]
 800098e:	683b      	ldr	r3, [r7, #0]
 8000990:	789b      	ldrb	r3, [r3, #2]
 8000992:	2b04      	cmp	r3, #4
 8000994:	d00b      	beq.n	80009ae <MCAL_GPIO_Init+0x62>
 8000996:	683b      	ldr	r3, [r7, #0]
 8000998:	789b      	ldrb	r3, [r3, #2]
 800099a:	2b05      	cmp	r3, #5
 800099c:	d007      	beq.n	80009ae <MCAL_GPIO_Init+0x62>
 800099e:	683b      	ldr	r3, [r7, #0]
 80009a0:	789b      	ldrb	r3, [r3, #2]
 80009a2:	2b06      	cmp	r3, #6
 80009a4:	d003      	beq.n	80009ae <MCAL_GPIO_Init+0x62>
 80009a6:	683b      	ldr	r3, [r7, #0]
 80009a8:	789b      	ldrb	r3, [r3, #2]
 80009aa:	2b07      	cmp	r3, #7
 80009ac:	d10e      	bne.n	80009cc <MCAL_GPIO_Init+0x80>
 80009ae:	683b      	ldr	r3, [r7, #0]
 80009b0:	789b      	ldrb	r3, [r3, #2]
 80009b2:	3b04      	subs	r3, #4
 80009b4:	009b      	lsls	r3, r3, #2
 80009b6:	b25a      	sxtb	r2, r3
 80009b8:	683b      	ldr	r3, [r7, #0]
 80009ba:	78db      	ldrb	r3, [r3, #3]
 80009bc:	b25b      	sxtb	r3, r3
 80009be:	f003 030f 	and.w	r3, r3, #15
 80009c2:	b25b      	sxtb	r3, r3
 80009c4:	4313      	orrs	r3, r2
 80009c6:	b25b      	sxtb	r3, r3
 80009c8:	73fb      	strb	r3, [r7, #15]
 80009ca:	e029      	b.n	8000a20 <MCAL_GPIO_Init+0xd4>
 80009cc:	683b      	ldr	r3, [r7, #0]
 80009ce:	789b      	ldrb	r3, [r3, #2]
 80009d0:	2b00      	cmp	r3, #0
 80009d2:	d003      	beq.n	80009dc <MCAL_GPIO_Init+0x90>
 80009d4:	683b      	ldr	r3, [r7, #0]
 80009d6:	789b      	ldrb	r3, [r3, #2]
 80009d8:	2b01      	cmp	r3, #1
 80009da:	d104      	bne.n	80009e6 <MCAL_GPIO_Init+0x9a>
 80009dc:	683b      	ldr	r3, [r7, #0]
 80009de:	789b      	ldrb	r3, [r3, #2]
 80009e0:	009b      	lsls	r3, r3, #2
 80009e2:	73fb      	strb	r3, [r7, #15]
 80009e4:	e01c      	b.n	8000a20 <MCAL_GPIO_Init+0xd4>
 80009e6:	683b      	ldr	r3, [r7, #0]
 80009e8:	789b      	ldrb	r3, [r3, #2]
 80009ea:	2b08      	cmp	r3, #8
 80009ec:	d102      	bne.n	80009f4 <MCAL_GPIO_Init+0xa8>
 80009ee:	2304      	movs	r3, #4
 80009f0:	73fb      	strb	r3, [r7, #15]
 80009f2:	e015      	b.n	8000a20 <MCAL_GPIO_Init+0xd4>
 80009f4:	2308      	movs	r3, #8
 80009f6:	73fb      	strb	r3, [r7, #15]
 80009f8:	683b      	ldr	r3, [r7, #0]
 80009fa:	789b      	ldrb	r3, [r3, #2]
 80009fc:	2b02      	cmp	r3, #2
 80009fe:	d107      	bne.n	8000a10 <MCAL_GPIO_Init+0xc4>
 8000a00:	687b      	ldr	r3, [r7, #4]
 8000a02:	68db      	ldr	r3, [r3, #12]
 8000a04:	683a      	ldr	r2, [r7, #0]
 8000a06:	8812      	ldrh	r2, [r2, #0]
 8000a08:	431a      	orrs	r2, r3
 8000a0a:	687b      	ldr	r3, [r7, #4]
 8000a0c:	60da      	str	r2, [r3, #12]
 8000a0e:	e007      	b.n	8000a20 <MCAL_GPIO_Init+0xd4>
 8000a10:	687b      	ldr	r3, [r7, #4]
 8000a12:	68db      	ldr	r3, [r3, #12]
 8000a14:	683a      	ldr	r2, [r7, #0]
 8000a16:	8812      	ldrh	r2, [r2, #0]
 8000a18:	43d2      	mvns	r2, r2
 8000a1a:	401a      	ands	r2, r3
 8000a1c:	687b      	ldr	r3, [r7, #4]
 8000a1e:	60da      	str	r2, [r3, #12]
 8000a20:	7bfc      	ldrb	r4, [r7, #15]
 8000a22:	683b      	ldr	r3, [r7, #0]
 8000a24:	881b      	ldrh	r3, [r3, #0]
 8000a26:	4618      	mov	r0, r3
 8000a28:	f7ff fed8 	bl	80007dc <Get_CRLH_Position>
 8000a2c:	4603      	mov	r3, r0
 8000a2e:	fa04 f203 	lsl.w	r2, r4, r3
 8000a32:	68bb      	ldr	r3, [r7, #8]
 8000a34:	681b      	ldr	r3, [r3, #0]
 8000a36:	431a      	orrs	r2, r3
 8000a38:	68bb      	ldr	r3, [r7, #8]
 8000a3a:	601a      	str	r2, [r3, #0]
 8000a3c:	bf00      	nop
 8000a3e:	3714      	adds	r7, #20
 8000a40:	46bd      	mov	sp, r7
 8000a42:	bd90      	pop	{r4, r7, pc}

08000a44 <__libc_init_array>:
 8000a44:	b570      	push	{r4, r5, r6, lr}
 8000a46:	2600      	movs	r6, #0
 8000a48:	4d0c      	ldr	r5, [pc, #48]	; (8000a7c <__libc_init_array+0x38>)
 8000a4a:	4c0d      	ldr	r4, [pc, #52]	; (8000a80 <__libc_init_array+0x3c>)
 8000a4c:	1b64      	subs	r4, r4, r5
 8000a4e:	10a4      	asrs	r4, r4, #2
 8000a50:	42a6      	cmp	r6, r4
 8000a52:	d109      	bne.n	8000a68 <__libc_init_array+0x24>
 8000a54:	f000 f81a 	bl	8000a8c <_init>
 8000a58:	2600      	movs	r6, #0
 8000a5a:	4d0a      	ldr	r5, [pc, #40]	; (8000a84 <__libc_init_array+0x40>)
 8000a5c:	4c0a      	ldr	r4, [pc, #40]	; (8000a88 <__libc_init_array+0x44>)
 8000a5e:	1b64      	subs	r4, r4, r5
 8000a60:	10a4      	asrs	r4, r4, #2
 8000a62:	42a6      	cmp	r6, r4
 8000a64:	d105      	bne.n	8000a72 <__libc_init_array+0x2e>
 8000a66:	bd70      	pop	{r4, r5, r6, pc}
 8000a68:	f855 3b04 	ldr.w	r3, [r5], #4
 8000a6c:	4798      	blx	r3
 8000a6e:	3601      	adds	r6, #1
 8000a70:	e7ee      	b.n	8000a50 <__libc_init_array+0xc>
 8000a72:	f855 3b04 	ldr.w	r3, [r5], #4
 8000a76:	4798      	blx	r3
 8000a78:	3601      	adds	r6, #1
 8000a7a:	e7f2      	b.n	8000a62 <__libc_init_array+0x1e>
 8000a7c:	08000ab0 	stmdaeq	r0, {r4, r5, r7, r9, fp}
 8000a80:	08000ab0 	stmdaeq	r0, {r4, r5, r7, r9, fp}
 8000a84:	08000ab0 	stmdaeq	r0, {r4, r5, r7, r9, fp}
 8000a88:	08000ab4 	stmdaeq	r0, {r2, r4, r5, r7, r9, fp}

08000a8c <_init>:
 8000a8c:	b5f8      	push	{r3, r4, r5, r6, r7, lr}
 8000a8e:	bf00      	nop
 8000a90:	bcf8      	pop	{r3, r4, r5, r6, r7}
 8000a92:	bc08      	pop	{r3}
 8000a94:	469e      	mov	lr, r3
 8000a96:	4770      	bx	lr

08000a98 <_fini>:
 8000a98:	b5f8      	push	{r3, r4, r5, r6, r7, lr}
 8000a9a:	bf00      	nop
 8000a9c:	bcf8      	pop	{r3, r4, r5, r6, r7}
 8000a9e:	bc08      	pop	{r3}
 8000aa0:	469e      	mov	lr, r3
 8000aa2:	4770      	bx	lr
