
Drivers.axf:     file format elf32-littlearm


Disassembly of section .isr_vector:

08000000 <g_pfnVectors>:
 8000000:	20002800 	andcs	r2, r0, r0, lsl #16
 8000004:	08000209 	stmdaeq	r0, {r0, r3, r9}
 8000008:	08000259 	stmdaeq	r0, {r0, r3, r4, r6, r9}
 800000c:	08000259 	stmdaeq	r0, {r0, r3, r4, r6, r9}
 8000010:	08000259 	stmdaeq	r0, {r0, r3, r4, r6, r9}
 8000014:	08000259 	stmdaeq	r0, {r0, r3, r4, r6, r9}
 8000018:	08000259 	stmdaeq	r0, {r0, r3, r4, r6, r9}
	...
 800002c:	08000259 	stmdaeq	r0, {r0, r3, r4, r6, r9}
 8000030:	08000259 	stmdaeq	r0, {r0, r3, r4, r6, r9}
 8000034:	00000000 	andeq	r0, r0, r0
 8000038:	08000259 	stmdaeq	r0, {r0, r3, r4, r6, r9}
 800003c:	08000259 	stmdaeq	r0, {r0, r3, r4, r6, r9}
 8000040:	08000259 	stmdaeq	r0, {r0, r3, r4, r6, r9}
 8000044:	08000259 	stmdaeq	r0, {r0, r3, r4, r6, r9}
 8000048:	08000259 	stmdaeq	r0, {r0, r3, r4, r6, r9}
 800004c:	08000259 	stmdaeq	r0, {r0, r3, r4, r6, r9}
 8000050:	08000259 	stmdaeq	r0, {r0, r3, r4, r6, r9}
 8000054:	08000259 	stmdaeq	r0, {r0, r3, r4, r6, r9}
 8000058:	080005d5 	stmdaeq	r0, {r0, r2, r4, r6, r7, r8, sl}
 800005c:	080005f9 	stmdaeq	r0, {r0, r3, r4, r5, r6, r7, r8, sl}
 8000060:	0800061d 	stmdaeq	r0, {r0, r2, r3, r4, r9, sl}
 8000064:	08000641 	stmdaeq	r0, {r0, r6, r9, sl}
 8000068:	08000665 	stmdaeq	r0, {r0, r2, r5, r6, r9, sl}
 800006c:	08000259 	stmdaeq	r0, {r0, r3, r4, r6, r9}
 8000070:	08000259 	stmdaeq	r0, {r0, r3, r4, r6, r9}
 8000074:	08000259 	stmdaeq	r0, {r0, r3, r4, r6, r9}
 8000078:	08000259 	stmdaeq	r0, {r0, r3, r4, r6, r9}
 800007c:	08000259 	stmdaeq	r0, {r0, r3, r4, r6, r9}
 8000080:	08000259 	stmdaeq	r0, {r0, r3, r4, r6, r9}
 8000084:	08000259 	stmdaeq	r0, {r0, r3, r4, r6, r9}
 8000088:	08000259 	stmdaeq	r0, {r0, r3, r4, r6, r9}
 800008c:	08000259 	stmdaeq	r0, {r0, r3, r4, r6, r9}
 8000090:	08000259 	stmdaeq	r0, {r0, r3, r4, r6, r9}
 8000094:	08000259 	stmdaeq	r0, {r0, r3, r4, r6, r9}
 8000098:	08000259 	stmdaeq	r0, {r0, r3, r4, r6, r9}
 800009c:	08000689 	stmdaeq	r0, {r0, r3, r7, r9, sl}
 80000a0:	08000259 	stmdaeq	r0, {r0, r3, r4, r6, r9}
 80000a4:	08000259 	stmdaeq	r0, {r0, r3, r4, r6, r9}
 80000a8:	08000259 	stmdaeq	r0, {r0, r3, r4, r6, r9}
 80000ac:	08000259 	stmdaeq	r0, {r0, r3, r4, r6, r9}
 80000b0:	08000259 	stmdaeq	r0, {r0, r3, r4, r6, r9}
 80000b4:	08000259 	stmdaeq	r0, {r0, r3, r4, r6, r9}
 80000b8:	08000259 	stmdaeq	r0, {r0, r3, r4, r6, r9}
 80000bc:	08000259 	stmdaeq	r0, {r0, r3, r4, r6, r9}
 80000c0:	08000259 	stmdaeq	r0, {r0, r3, r4, r6, r9}
 80000c4:	08000259 	stmdaeq	r0, {r0, r3, r4, r6, r9}
 80000c8:	08000259 	stmdaeq	r0, {r0, r3, r4, r6, r9}
 80000cc:	08000259 	stmdaeq	r0, {r0, r3, r4, r6, r9}
 80000d0:	08000259 	stmdaeq	r0, {r0, r3, r4, r6, r9}
 80000d4:	08000259 	stmdaeq	r0, {r0, r3, r4, r6, r9}
 80000d8:	08000259 	stmdaeq	r0, {r0, r3, r4, r6, r9}
 80000dc:	08000259 	stmdaeq	r0, {r0, r3, r4, r6, r9}
 80000e0:	08000731 	stmdaeq	r0, {r0, r4, r5, r8, r9, sl}
 80000e4:	08000259 	stmdaeq	r0, {r0, r3, r4, r6, r9}
 80000e8:	00000000 	andeq	r0, r0, r0
 80000ec:	08000259 	stmdaeq	r0, {r0, r3, r4, r6, r9}
 80000f0:	08000259 	stmdaeq	r0, {r0, r3, r4, r6, r9}
 80000f4:	08000259 	stmdaeq	r0, {r0, r3, r4, r6, r9}
 80000f8:	08000259 	stmdaeq	r0, {r0, r3, r4, r6, r9}
 80000fc:	08000259 	stmdaeq	r0, {r0, r3, r4, r6, r9}
 8000100:	08000259 	stmdaeq	r0, {r0, r3, r4, r6, r9}
 8000104:	08000259 	stmdaeq	r0, {r0, r3, r4, r6, r9}
 8000108:	08000259 	stmdaeq	r0, {r0, r3, r4, r6, r9}
 800010c:	08000259 	stmdaeq	r0, {r0, r3, r4, r6, r9}
 8000110:	08000259 	stmdaeq	r0, {r0, r3, r4, r6, r9}
 8000114:	08000259 	stmdaeq	r0, {r0, r3, r4, r6, r9}
 8000118:	08000259 	stmdaeq	r0, {r0, r3, r4, r6, r9}
 800011c:	08000259 	stmdaeq	r0, {r0, r3, r4, r6, r9}
 8000120:	08000259 	stmdaeq	r0, {r0, r3, r4, r6, r9}
 8000124:	08000259 	stmdaeq	r0, {r0, r3, r4, r6, r9}
 8000128:	08000259 	stmdaeq	r0, {r0, r3, r4, r6, r9}
 800012c:	08000259 	stmdaeq	r0, {r0, r3, r4, r6, r9}

Disassembly of section .text:

08000130 <__do_global_dtors_aux>:
 8000130:	b510      	push	{r4, lr}
 8000132:	4c05      	ldr	r4, [pc, #20]	; (8000148 <__do_global_dtors_aux+0x18>)
 8000134:	7823      	ldrb	r3, [r4, #0]
 8000136:	b933      	cbnz	r3, 8000146 <__do_global_dtors_aux+0x16>
 8000138:	4b04      	ldr	r3, [pc, #16]	; (800014c <__do_global_dtors_aux+0x1c>)
 800013a:	b113      	cbz	r3, 8000142 <__do_global_dtors_aux+0x12>
 800013c:	4804      	ldr	r0, [pc, #16]	; (8000150 <__do_global_dtors_aux+0x20>)
 800013e:	f3af 8000 	nop.w
 8000142:	2301      	movs	r3, #1
 8000144:	7023      	strb	r3, [r4, #0]
 8000146:	bd10      	pop	{r4, pc}
 8000148:	20000000 	andcs	r0, r0, r0
 800014c:	00000000 	andeq	r0, r0, r0
 8000150:	08000aa4 	stmdaeq	r0, {r2, r5, r7, r9, fp}

08000154 <frame_dummy>:
 8000154:	b508      	push	{r3, lr}
 8000156:	4b03      	ldr	r3, [pc, #12]	; (8000164 <frame_dummy+0x10>)
 8000158:	b11b      	cbz	r3, 8000162 <frame_dummy+0xe>
 800015a:	4903      	ldr	r1, [pc, #12]	; (8000168 <frame_dummy+0x14>)
 800015c:	4803      	ldr	r0, [pc, #12]	; (800016c <frame_dummy+0x18>)
 800015e:	f3af 8000 	nop.w
 8000162:	bd08      	pop	{r3, pc}
 8000164:	00000000 	andeq	r0, r0, r0
 8000168:	20000004 	andcs	r0, r0, r4
 800016c:	08000aa4 	stmdaeq	r0, {r2, r5, r7, r9, fp}

08000170 <EXTI9_callBack>:
 8000170:	b480      	push	{r7}
 8000172:	af00      	add	r7, sp, #0
 8000174:	f3ef 8405 	mrs	r4, IPSR
 8000178:	4623      	mov	r3, r4
 800017a:	4a04      	ldr	r2, [pc, #16]	; (800018c <EXTI9_callBack+0x1c>)
 800017c:	6013      	str	r3, [r2, #0]
 800017e:	4b04      	ldr	r3, [pc, #16]	; (8000190 <EXTI9_callBack+0x20>)
 8000180:	2201      	movs	r2, #1
 8000182:	601a      	str	r2, [r3, #0]
 8000184:	bf00      	nop
 8000186:	46bd      	mov	sp, r7
 8000188:	bc80      	pop	{r7}
 800018a:	4770      	bx	lr
 800018c:	20000020 	andcs	r0, r0, r0, lsr #32
 8000190:	2000001c 	andcs	r0, r0, ip, lsl r0

08000194 <main>:
 8000194:	b580      	push	{r7, lr}
 8000196:	b08a      	sub	sp, #40	; 0x28
 8000198:	af00      	add	r7, sp, #0
 800019a:	4b17      	ldr	r3, [pc, #92]	; (80001f8 <main+0x64>)
 800019c:	699b      	ldr	r3, [r3, #24]
 800019e:	4a16      	ldr	r2, [pc, #88]	; (80001f8 <main+0x64>)
 80001a0:	f043 0308 	orr.w	r3, r3, #8
 80001a4:	6193      	str	r3, [r2, #24]
 80001a6:	4b14      	ldr	r3, [pc, #80]	; (80001f8 <main+0x64>)
 80001a8:	699b      	ldr	r3, [r3, #24]
 80001aa:	4a13      	ldr	r2, [pc, #76]	; (80001f8 <main+0x64>)
 80001ac:	f043 0301 	orr.w	r3, r3, #1
 80001b0:	6193      	str	r3, [r2, #24]
 80001b2:	4a12      	ldr	r2, [pc, #72]	; (80001fc <main+0x68>)
 80001b4:	f107 0310 	add.w	r3, r7, #16
 80001b8:	ca07      	ldmia	r2, {r0, r1, r2}
 80001ba:	e883 0007 	stmia.w	r3, {r0, r1, r2}
 80001be:	2300      	movs	r3, #0
 80001c0:	773b      	strb	r3, [r7, #28]
 80001c2:	4b0f      	ldr	r3, [pc, #60]	; (8000200 <main+0x6c>)
 80001c4:	623b      	str	r3, [r7, #32]
 80001c6:	2301      	movs	r3, #1
 80001c8:	777b      	strb	r3, [r7, #29]
 80001ca:	f107 0310 	add.w	r3, r7, #16
 80001ce:	4618      	mov	r0, r3
 80001d0:	f000 f9f4 	bl	80005bc <Mcal_EXTI_GPIO_init>
 80001d4:	bf00      	nop
 80001d6:	bf00      	nop
 80001d8:	f3ef 8314 	mrs	r3, CONTROL
 80001dc:	461b      	mov	r3, r3
 80001de:	627b      	str	r3, [r7, #36]	; 0x24
 80001e0:	4b08      	ldr	r3, [pc, #32]	; (8000204 <main+0x70>)
 80001e2:	2201      	movs	r2, #1
 80001e4:	601a      	str	r2, [r3, #0]
 80001e6:	4b07      	ldr	r3, [pc, #28]	; (8000204 <main+0x70>)
 80001e8:	681b      	ldr	r3, [r3, #0]
 80001ea:	2b00      	cmp	r3, #0
 80001ec:	d0fb      	beq.n	80001e6 <main+0x52>
 80001ee:	4b05      	ldr	r3, [pc, #20]	; (8000204 <main+0x70>)
 80001f0:	2200      	movs	r2, #0
 80001f2:	601a      	str	r2, [r3, #0]
 80001f4:	e7f7      	b.n	80001e6 <main+0x52>
 80001f6:	bf00      	nop
 80001f8:	40021000 	andmi	r1, r2, r0
 80001fc:	08000abc 	stmdaeq	r0, {r2, r3, r4, r5, r7, r9, fp}
 8000200:	08000171 	stmdaeq	r0, {r0, r4, r5, r6, r8}
 8000204:	2000001c 	andcs	r0, r0, ip, lsl r0

08000208 <Reset_Handler>:
 8000208:	480d      	ldr	r0, [pc, #52]	; (8000240 <LoopForever+0x2>)
 800020a:	4685      	mov	sp, r0
 800020c:	f3af 8000 	nop.w
 8000210:	480c      	ldr	r0, [pc, #48]	; (8000244 <LoopForever+0x6>)
 8000212:	490d      	ldr	r1, [pc, #52]	; (8000248 <LoopForever+0xa>)
 8000214:	4a0d      	ldr	r2, [pc, #52]	; (800024c <LoopForever+0xe>)
 8000216:	2300      	movs	r3, #0
 8000218:	e002      	b.n	8000220 <LoopCopyDataInit>

0800021a <CopyDataInit>:
 800021a:	58d4      	ldr	r4, [r2, r3]
 800021c:	50c4      	str	r4, [r0, r3]
 800021e:	3304      	adds	r3, #4

08000220 <LoopCopyDataInit>:
 8000220:	18c4      	adds	r4, r0, r3
 8000222:	428c      	cmp	r4, r1
 8000224:	d3f9      	bcc.n	800021a <CopyDataInit>
 8000226:	4a0a      	ldr	r2, [pc, #40]	; (8000250 <LoopForever+0x12>)
 8000228:	4c0a      	ldr	r4, [pc, #40]	; (8000254 <LoopForever+0x16>)
 800022a:	2300      	movs	r3, #0
 800022c:	e001      	b.n	8000232 <LoopFillZerobss>

0800022e <FillZerobss>:
 800022e:	6013      	str	r3, [r2, #0]
 8000230:	3204      	adds	r2, #4

08000232 <LoopFillZerobss>:
 8000232:	42a2      	cmp	r2, r4
 8000234:	d3fb      	bcc.n	800022e <FillZerobss>
 8000236:	f000 fc11 	bl	8000a5c <__libc_init_array>
 800023a:	f7ff ffab 	bl	8000194 <main>

0800023e <LoopForever>:
 800023e:	e7fe      	b.n	800023e <LoopForever>
 8000240:	20002800 	andcs	r2, r0, r0, lsl #16
 8000244:	20000000 	andcs	r0, r0, r0
 8000248:	20000000 	andcs	r0, r0, r0
 800024c:	08000ad0 	stmdaeq	r0, {r4, r6, r7, r9, fp}
 8000250:	20000000 	andcs	r0, r0, r0
 8000254:	20000060 	andcs	r0, r0, r0, rrx

08000258 <ADC1_2_IRQHandler>:
 8000258:	e7fe      	b.n	8000258 <ADC1_2_IRQHandler>
	...

0800025c <Enable_NVIC>:
 800025c:	b480      	push	{r7}
 800025e:	b083      	sub	sp, #12
 8000260:	af00      	add	r7, sp, #0
 8000262:	4603      	mov	r3, r0
 8000264:	80fb      	strh	r3, [r7, #6]
 8000266:	88fb      	ldrh	r3, [r7, #6]
 8000268:	2b0e      	cmp	r3, #14
 800026a:	d852      	bhi.n	8000312 <Enable_NVIC+0xb6>
 800026c:	a201      	add	r2, pc, #4	; (adr r2, 8000274 <Enable_NVIC+0x18>)
 800026e:	f852 f023 	ldr.w	pc, [r2, r3, lsl #2]
 8000272:	bf00      	nop
 8000274:	080002b1 	stmdaeq	r0, {r0, r4, r5, r7, r9}
 8000278:	080002bf 	stmdaeq	r0, {r0, r1, r2, r3, r4, r5, r7, r9}
 800027c:	080002cd 	stmdaeq	r0, {r0, r2, r3, r6, r7, r9}
 8000280:	080002db 	stmdaeq	r0, {r0, r1, r3, r4, r6, r7, r9}
 8000284:	080002e9 	stmdaeq	r0, {r0, r3, r5, r6, r7, r9}
 8000288:	080002f7 	stmdaeq	r0, {r0, r1, r2, r4, r5, r6, r7, r9}
 800028c:	080002f7 	stmdaeq	r0, {r0, r1, r2, r4, r5, r6, r7, r9}
 8000290:	080002f7 	stmdaeq	r0, {r0, r1, r2, r4, r5, r6, r7, r9}
 8000294:	080002f7 	stmdaeq	r0, {r0, r1, r2, r4, r5, r6, r7, r9}
 8000298:	080002f7 	stmdaeq	r0, {r0, r1, r2, r4, r5, r6, r7, r9}
 800029c:	08000305 	stmdaeq	r0, {r0, r2, r8, r9}
 80002a0:	08000305 	stmdaeq	r0, {r0, r2, r8, r9}
 80002a4:	08000305 	stmdaeq	r0, {r0, r2, r8, r9}
 80002a8:	08000305 	stmdaeq	r0, {r0, r2, r8, r9}
 80002ac:	08000305 	stmdaeq	r0, {r0, r2, r8, r9}
 80002b0:	4b1a      	ldr	r3, [pc, #104]	; (800031c <Enable_NVIC+0xc0>)
 80002b2:	681b      	ldr	r3, [r3, #0]
 80002b4:	4a19      	ldr	r2, [pc, #100]	; (800031c <Enable_NVIC+0xc0>)
 80002b6:	f043 0340 	orr.w	r3, r3, #64	; 0x40
 80002ba:	6013      	str	r3, [r2, #0]
 80002bc:	e029      	b.n	8000312 <Enable_NVIC+0xb6>
 80002be:	4b17      	ldr	r3, [pc, #92]	; (800031c <Enable_NVIC+0xc0>)
 80002c0:	681b      	ldr	r3, [r3, #0]
 80002c2:	4a16      	ldr	r2, [pc, #88]	; (800031c <Enable_NVIC+0xc0>)
 80002c4:	f043 0380 	orr.w	r3, r3, #128	; 0x80
 80002c8:	6013      	str	r3, [r2, #0]
 80002ca:	e022      	b.n	8000312 <Enable_NVIC+0xb6>
 80002cc:	4b13      	ldr	r3, [pc, #76]	; (800031c <Enable_NVIC+0xc0>)
 80002ce:	681b      	ldr	r3, [r3, #0]
 80002d0:	4a12      	ldr	r2, [pc, #72]	; (800031c <Enable_NVIC+0xc0>)
 80002d2:	f443 7380 	orr.w	r3, r3, #256	; 0x100
 80002d6:	6013      	str	r3, [r2, #0]
 80002d8:	e01b      	b.n	8000312 <Enable_NVIC+0xb6>
 80002da:	4b10      	ldr	r3, [pc, #64]	; (800031c <Enable_NVIC+0xc0>)
 80002dc:	681b      	ldr	r3, [r3, #0]
 80002de:	4a0f      	ldr	r2, [pc, #60]	; (800031c <Enable_NVIC+0xc0>)
 80002e0:	f443 7300 	orr.w	r3, r3, #512	; 0x200
 80002e4:	6013      	str	r3, [r2, #0]
 80002e6:	e014      	b.n	8000312 <Enable_NVIC+0xb6>
 80002e8:	4b0c      	ldr	r3, [pc, #48]	; (800031c <Enable_NVIC+0xc0>)
 80002ea:	681b      	ldr	r3, [r3, #0]
 80002ec:	4a0b      	ldr	r2, [pc, #44]	; (800031c <Enable_NVIC+0xc0>)
 80002ee:	f443 7300 	orr.w	r3, r3, #512	; 0x200
 80002f2:	6013      	str	r3, [r2, #0]
 80002f4:	e00d      	b.n	8000312 <Enable_NVIC+0xb6>
 80002f6:	4b09      	ldr	r3, [pc, #36]	; (800031c <Enable_NVIC+0xc0>)
 80002f8:	681b      	ldr	r3, [r3, #0]
 80002fa:	4a08      	ldr	r2, [pc, #32]	; (800031c <Enable_NVIC+0xc0>)
 80002fc:	f443 0300 	orr.w	r3, r3, #8388608	; 0x800000
 8000300:	6013      	str	r3, [r2, #0]
 8000302:	e006      	b.n	8000312 <Enable_NVIC+0xb6>
 8000304:	4b06      	ldr	r3, [pc, #24]	; (8000320 <Enable_NVIC+0xc4>)
 8000306:	681b      	ldr	r3, [r3, #0]
 8000308:	4a05      	ldr	r2, [pc, #20]	; (8000320 <Enable_NVIC+0xc4>)
 800030a:	f443 7380 	orr.w	r3, r3, #256	; 0x100
 800030e:	6013      	str	r3, [r2, #0]
 8000310:	bf00      	nop
 8000312:	bf00      	nop
 8000314:	370c      	adds	r7, #12
 8000316:	46bd      	mov	sp, r7
 8000318:	bc80      	pop	{r7}
 800031a:	4770      	bx	lr
 800031c:	e000e100 	and	lr, r0, r0, lsl #2
 8000320:	e000e104 	and	lr, r0, r4, lsl #2

08000324 <Disable_NVIC>:
 8000324:	b480      	push	{r7}
 8000326:	b083      	sub	sp, #12
 8000328:	af00      	add	r7, sp, #0
 800032a:	4603      	mov	r3, r0
 800032c:	80fb      	strh	r3, [r7, #6]
 800032e:	88fb      	ldrh	r3, [r7, #6]
 8000330:	2b0e      	cmp	r3, #14
 8000332:	d852      	bhi.n	80003da <Disable_NVIC+0xb6>
 8000334:	a201      	add	r2, pc, #4	; (adr r2, 800033c <Disable_NVIC+0x18>)
 8000336:	f852 f023 	ldr.w	pc, [r2, r3, lsl #2]
 800033a:	bf00      	nop
 800033c:	08000379 	stmdaeq	r0, {r0, r3, r4, r5, r6, r8, r9}
 8000340:	08000387 	stmdaeq	r0, {r0, r1, r2, r7, r8, r9}
 8000344:	08000395 	stmdaeq	r0, {r0, r2, r4, r7, r8, r9}
 8000348:	080003a3 	stmdaeq	r0, {r0, r1, r5, r7, r8, r9}
 800034c:	080003b1 	stmdaeq	r0, {r0, r4, r5, r7, r8, r9}
 8000350:	080003bf 	stmdaeq	r0, {r0, r1, r2, r3, r4, r5, r7, r8, r9}
 8000354:	080003bf 	stmdaeq	r0, {r0, r1, r2, r3, r4, r5, r7, r8, r9}
 8000358:	080003bf 	stmdaeq	r0, {r0, r1, r2, r3, r4, r5, r7, r8, r9}
 800035c:	080003bf 	stmdaeq	r0, {r0, r1, r2, r3, r4, r5, r7, r8, r9}
 8000360:	080003bf 	stmdaeq	r0, {r0, r1, r2, r3, r4, r5, r7, r8, r9}
 8000364:	080003cd 	stmdaeq	r0, {r0, r2, r3, r6, r7, r8, r9}
 8000368:	080003cd 	stmdaeq	r0, {r0, r2, r3, r6, r7, r8, r9}
 800036c:	080003cd 	stmdaeq	r0, {r0, r2, r3, r6, r7, r8, r9}
 8000370:	080003cd 	stmdaeq	r0, {r0, r2, r3, r6, r7, r8, r9}
 8000374:	080003cd 	stmdaeq	r0, {r0, r2, r3, r6, r7, r8, r9}
 8000378:	4b1a      	ldr	r3, [pc, #104]	; (80003e4 <Disable_NVIC+0xc0>)
 800037a:	681b      	ldr	r3, [r3, #0]
 800037c:	4a19      	ldr	r2, [pc, #100]	; (80003e4 <Disable_NVIC+0xc0>)
 800037e:	f043 0340 	orr.w	r3, r3, #64	; 0x40
 8000382:	6013      	str	r3, [r2, #0]
 8000384:	e029      	b.n	80003da <Disable_NVIC+0xb6>
 8000386:	4b17      	ldr	r3, [pc, #92]	; (80003e4 <Disable_NVIC+0xc0>)
 8000388:	681b      	ldr	r3, [r3, #0]
 800038a:	4a16      	ldr	r2, [pc, #88]	; (80003e4 <Disable_NVIC+0xc0>)
 800038c:	f043 0380 	orr.w	r3, r3, #128	; 0x80
 8000390:	6013      	str	r3, [r2, #0]
 8000392:	e022      	b.n	80003da <Disable_NVIC+0xb6>
 8000394:	4b13      	ldr	r3, [pc, #76]	; (80003e4 <Disable_NVIC+0xc0>)
 8000396:	681b      	ldr	r3, [r3, #0]
 8000398:	4a12      	ldr	r2, [pc, #72]	; (80003e4 <Disable_NVIC+0xc0>)
 800039a:	f443 7380 	orr.w	r3, r3, #256	; 0x100
 800039e:	6013      	str	r3, [r2, #0]
 80003a0:	e01b      	b.n	80003da <Disable_NVIC+0xb6>
 80003a2:	4b10      	ldr	r3, [pc, #64]	; (80003e4 <Disable_NVIC+0xc0>)
 80003a4:	681b      	ldr	r3, [r3, #0]
 80003a6:	4a0f      	ldr	r2, [pc, #60]	; (80003e4 <Disable_NVIC+0xc0>)
 80003a8:	f443 7300 	orr.w	r3, r3, #512	; 0x200
 80003ac:	6013      	str	r3, [r2, #0]
 80003ae:	e014      	b.n	80003da <Disable_NVIC+0xb6>
 80003b0:	4b0c      	ldr	r3, [pc, #48]	; (80003e4 <Disable_NVIC+0xc0>)
 80003b2:	681b      	ldr	r3, [r3, #0]
 80003b4:	4a0b      	ldr	r2, [pc, #44]	; (80003e4 <Disable_NVIC+0xc0>)
 80003b6:	f443 7300 	orr.w	r3, r3, #512	; 0x200
 80003ba:	6013      	str	r3, [r2, #0]
 80003bc:	e00d      	b.n	80003da <Disable_NVIC+0xb6>
 80003be:	4b09      	ldr	r3, [pc, #36]	; (80003e4 <Disable_NVIC+0xc0>)
 80003c0:	681b      	ldr	r3, [r3, #0]
 80003c2:	4a08      	ldr	r2, [pc, #32]	; (80003e4 <Disable_NVIC+0xc0>)
 80003c4:	f443 0300 	orr.w	r3, r3, #8388608	; 0x800000
 80003c8:	6013      	str	r3, [r2, #0]
 80003ca:	e006      	b.n	80003da <Disable_NVIC+0xb6>
 80003cc:	4b06      	ldr	r3, [pc, #24]	; (80003e8 <Disable_NVIC+0xc4>)
 80003ce:	681b      	ldr	r3, [r3, #0]
 80003d0:	4a05      	ldr	r2, [pc, #20]	; (80003e8 <Disable_NVIC+0xc4>)
 80003d2:	f443 7380 	orr.w	r3, r3, #256	; 0x100
 80003d6:	6013      	str	r3, [r2, #0]
 80003d8:	bf00      	nop
 80003da:	bf00      	nop
 80003dc:	370c      	adds	r7, #12
 80003de:	46bd      	mov	sp, r7
 80003e0:	bc80      	pop	{r7}
 80003e2:	4770      	bx	lr
 80003e4:	e000e180 	and	lr, r0, r0, lsl #3
 80003e8:	e000e184 	and	lr, r0, r4, lsl #3

080003ec <update_EXTI>:
 80003ec:	b580      	push	{r7, lr}
 80003ee:	b084      	sub	sp, #16
 80003f0:	af00      	add	r7, sp, #0
 80003f2:	6078      	str	r0, [r7, #4]
 80003f4:	687b      	ldr	r3, [r7, #4]
 80003f6:	891b      	ldrh	r3, [r3, #8]
 80003f8:	813b      	strh	r3, [r7, #8]
 80003fa:	2301      	movs	r3, #1
 80003fc:	72bb      	strb	r3, [r7, #10]
 80003fe:	687b      	ldr	r3, [r7, #4]
 8000400:	685b      	ldr	r3, [r3, #4]
 8000402:	f107 0208 	add.w	r2, r7, #8
 8000406:	4611      	mov	r1, r2
 8000408:	4618      	mov	r0, r3
 800040a:	f000 faab 	bl	8000964 <MCAL_GPIO_Init>
 800040e:	687b      	ldr	r3, [r7, #4]
 8000410:	881b      	ldrh	r3, [r3, #0]
 8000412:	089b      	lsrs	r3, r3, #2
 8000414:	b29b      	uxth	r3, r3
 8000416:	73fb      	strb	r3, [r7, #15]
 8000418:	687b      	ldr	r3, [r7, #4]
 800041a:	881b      	ldrh	r3, [r3, #0]
 800041c:	b2db      	uxtb	r3, r3
 800041e:	f003 0303 	and.w	r3, r3, #3
 8000422:	b2db      	uxtb	r3, r3
 8000424:	009b      	lsls	r3, r3, #2
 8000426:	73bb      	strb	r3, [r7, #14]
 8000428:	4a5d      	ldr	r2, [pc, #372]	; (80005a0 <update_EXTI+0x1b4>)
 800042a:	7bfb      	ldrb	r3, [r7, #15]
 800042c:	3302      	adds	r3, #2
 800042e:	f852 2023 	ldr.w	r2, [r2, r3, lsl #2]
 8000432:	7bbb      	ldrb	r3, [r7, #14]
 8000434:	210f      	movs	r1, #15
 8000436:	fa01 f303 	lsl.w	r3, r1, r3
 800043a:	43db      	mvns	r3, r3
 800043c:	4618      	mov	r0, r3
 800043e:	4958      	ldr	r1, [pc, #352]	; (80005a0 <update_EXTI+0x1b4>)
 8000440:	7bfb      	ldrb	r3, [r7, #15]
 8000442:	4002      	ands	r2, r0
 8000444:	3302      	adds	r3, #2
 8000446:	f841 2023 	str.w	r2, [r1, r3, lsl #2]
 800044a:	4a55      	ldr	r2, [pc, #340]	; (80005a0 <update_EXTI+0x1b4>)
 800044c:	7bfb      	ldrb	r3, [r7, #15]
 800044e:	3302      	adds	r3, #2
 8000450:	f852 2023 	ldr.w	r2, [r2, r3, lsl #2]
 8000454:	687b      	ldr	r3, [r7, #4]
 8000456:	685b      	ldr	r3, [r3, #4]
 8000458:	4952      	ldr	r1, [pc, #328]	; (80005a4 <update_EXTI+0x1b8>)
 800045a:	428b      	cmp	r3, r1
 800045c:	d016      	beq.n	800048c <update_EXTI+0xa0>
 800045e:	687b      	ldr	r3, [r7, #4]
 8000460:	685b      	ldr	r3, [r3, #4]
 8000462:	4951      	ldr	r1, [pc, #324]	; (80005a8 <update_EXTI+0x1bc>)
 8000464:	428b      	cmp	r3, r1
 8000466:	d00f      	beq.n	8000488 <update_EXTI+0x9c>
 8000468:	687b      	ldr	r3, [r7, #4]
 800046a:	685b      	ldr	r3, [r3, #4]
 800046c:	494f      	ldr	r1, [pc, #316]	; (80005ac <update_EXTI+0x1c0>)
 800046e:	428b      	cmp	r3, r1
 8000470:	d008      	beq.n	8000484 <update_EXTI+0x98>
 8000472:	687b      	ldr	r3, [r7, #4]
 8000474:	685b      	ldr	r3, [r3, #4]
 8000476:	494e      	ldr	r1, [pc, #312]	; (80005b0 <update_EXTI+0x1c4>)
 8000478:	428b      	cmp	r3, r1
 800047a:	d101      	bne.n	8000480 <update_EXTI+0x94>
 800047c:	2303      	movs	r3, #3
 800047e:	e006      	b.n	800048e <update_EXTI+0xa2>
 8000480:	2300      	movs	r3, #0
 8000482:	e004      	b.n	800048e <update_EXTI+0xa2>
 8000484:	2302      	movs	r3, #2
 8000486:	e002      	b.n	800048e <update_EXTI+0xa2>
 8000488:	2301      	movs	r3, #1
 800048a:	e000      	b.n	800048e <update_EXTI+0xa2>
 800048c:	2300      	movs	r3, #0
 800048e:	7bb9      	ldrb	r1, [r7, #14]
 8000490:	408b      	lsls	r3, r1
 8000492:	4618      	mov	r0, r3
 8000494:	4942      	ldr	r1, [pc, #264]	; (80005a0 <update_EXTI+0x1b4>)
 8000496:	7bfb      	ldrb	r3, [r7, #15]
 8000498:	4302      	orrs	r2, r0
 800049a:	3302      	adds	r3, #2
 800049c:	f841 2023 	str.w	r2, [r1, r3, lsl #2]
 80004a0:	4b44      	ldr	r3, [pc, #272]	; (80005b4 <update_EXTI+0x1c8>)
 80004a2:	689b      	ldr	r3, [r3, #8]
 80004a4:	687a      	ldr	r2, [r7, #4]
 80004a6:	8812      	ldrh	r2, [r2, #0]
 80004a8:	4611      	mov	r1, r2
 80004aa:	2201      	movs	r2, #1
 80004ac:	408a      	lsls	r2, r1
 80004ae:	43d2      	mvns	r2, r2
 80004b0:	4611      	mov	r1, r2
 80004b2:	4a40      	ldr	r2, [pc, #256]	; (80005b4 <update_EXTI+0x1c8>)
 80004b4:	400b      	ands	r3, r1
 80004b6:	6093      	str	r3, [r2, #8]
 80004b8:	4b3e      	ldr	r3, [pc, #248]	; (80005b4 <update_EXTI+0x1c8>)
 80004ba:	68db      	ldr	r3, [r3, #12]
 80004bc:	687a      	ldr	r2, [r7, #4]
 80004be:	8812      	ldrh	r2, [r2, #0]
 80004c0:	4611      	mov	r1, r2
 80004c2:	2201      	movs	r2, #1
 80004c4:	408a      	lsls	r2, r1
 80004c6:	43d2      	mvns	r2, r2
 80004c8:	4611      	mov	r1, r2
 80004ca:	4a3a      	ldr	r2, [pc, #232]	; (80005b4 <update_EXTI+0x1c8>)
 80004cc:	400b      	ands	r3, r1
 80004ce:	60d3      	str	r3, [r2, #12]
 80004d0:	687b      	ldr	r3, [r7, #4]
 80004d2:	7b1b      	ldrb	r3, [r3, #12]
 80004d4:	2b00      	cmp	r3, #0
 80004d6:	d10b      	bne.n	80004f0 <update_EXTI+0x104>
 80004d8:	4b36      	ldr	r3, [pc, #216]	; (80005b4 <update_EXTI+0x1c8>)
 80004da:	689b      	ldr	r3, [r3, #8]
 80004dc:	687a      	ldr	r2, [r7, #4]
 80004de:	8812      	ldrh	r2, [r2, #0]
 80004e0:	4611      	mov	r1, r2
 80004e2:	2201      	movs	r2, #1
 80004e4:	408a      	lsls	r2, r1
 80004e6:	4611      	mov	r1, r2
 80004e8:	4a32      	ldr	r2, [pc, #200]	; (80005b4 <update_EXTI+0x1c8>)
 80004ea:	430b      	orrs	r3, r1
 80004ec:	6093      	str	r3, [r2, #8]
 80004ee:	e025      	b.n	800053c <update_EXTI+0x150>
 80004f0:	687b      	ldr	r3, [r7, #4]
 80004f2:	7b1b      	ldrb	r3, [r3, #12]
 80004f4:	2b01      	cmp	r3, #1
 80004f6:	d10b      	bne.n	8000510 <update_EXTI+0x124>
 80004f8:	4b2e      	ldr	r3, [pc, #184]	; (80005b4 <update_EXTI+0x1c8>)
 80004fa:	68db      	ldr	r3, [r3, #12]
 80004fc:	687a      	ldr	r2, [r7, #4]
 80004fe:	8812      	ldrh	r2, [r2, #0]
 8000500:	4611      	mov	r1, r2
 8000502:	2201      	movs	r2, #1
 8000504:	408a      	lsls	r2, r1
 8000506:	4611      	mov	r1, r2
 8000508:	4a2a      	ldr	r2, [pc, #168]	; (80005b4 <update_EXTI+0x1c8>)
 800050a:	430b      	orrs	r3, r1
 800050c:	60d3      	str	r3, [r2, #12]
 800050e:	e015      	b.n	800053c <update_EXTI+0x150>
 8000510:	4b28      	ldr	r3, [pc, #160]	; (80005b4 <update_EXTI+0x1c8>)
 8000512:	689b      	ldr	r3, [r3, #8]
 8000514:	687a      	ldr	r2, [r7, #4]
 8000516:	8812      	ldrh	r2, [r2, #0]
 8000518:	4611      	mov	r1, r2
 800051a:	2201      	movs	r2, #1
 800051c:	408a      	lsls	r2, r1
 800051e:	4611      	mov	r1, r2
 8000520:	4a24      	ldr	r2, [pc, #144]	; (80005b4 <update_EXTI+0x1c8>)
 8000522:	430b      	orrs	r3, r1
 8000524:	6093      	str	r3, [r2, #8]
 8000526:	4b23      	ldr	r3, [pc, #140]	; (80005b4 <update_EXTI+0x1c8>)
 8000528:	68db      	ldr	r3, [r3, #12]
 800052a:	687a      	ldr	r2, [r7, #4]
 800052c:	8812      	ldrh	r2, [r2, #0]
 800052e:	4611      	mov	r1, r2
 8000530:	2201      	movs	r2, #1
 8000532:	408a      	lsls	r2, r1
 8000534:	4611      	mov	r1, r2
 8000536:	4a1f      	ldr	r2, [pc, #124]	; (80005b4 <update_EXTI+0x1c8>)
 8000538:	430b      	orrs	r3, r1
 800053a:	60d3      	str	r3, [r2, #12]
 800053c:	687b      	ldr	r3, [r7, #4]
 800053e:	881b      	ldrh	r3, [r3, #0]
 8000540:	4619      	mov	r1, r3
 8000542:	687b      	ldr	r3, [r7, #4]
 8000544:	691b      	ldr	r3, [r3, #16]
 8000546:	4a1c      	ldr	r2, [pc, #112]	; (80005b8 <update_EXTI+0x1cc>)
 8000548:	f842 3021 	str.w	r3, [r2, r1, lsl #2]
 800054c:	687b      	ldr	r3, [r7, #4]
 800054e:	7b5b      	ldrb	r3, [r3, #13]
 8000550:	2b01      	cmp	r3, #1
 8000552:	d110      	bne.n	8000576 <update_EXTI+0x18a>
 8000554:	4b17      	ldr	r3, [pc, #92]	; (80005b4 <update_EXTI+0x1c8>)
 8000556:	681b      	ldr	r3, [r3, #0]
 8000558:	687a      	ldr	r2, [r7, #4]
 800055a:	8812      	ldrh	r2, [r2, #0]
 800055c:	4611      	mov	r1, r2
 800055e:	2201      	movs	r2, #1
 8000560:	408a      	lsls	r2, r1
 8000562:	4611      	mov	r1, r2
 8000564:	4a13      	ldr	r2, [pc, #76]	; (80005b4 <update_EXTI+0x1c8>)
 8000566:	430b      	orrs	r3, r1
 8000568:	6013      	str	r3, [r2, #0]
 800056a:	687b      	ldr	r3, [r7, #4]
 800056c:	881b      	ldrh	r3, [r3, #0]
 800056e:	4618      	mov	r0, r3
 8000570:	f7ff fe74 	bl	800025c <Enable_NVIC>
 8000574:	e010      	b.n	8000598 <update_EXTI+0x1ac>
 8000576:	4b0f      	ldr	r3, [pc, #60]	; (80005b4 <update_EXTI+0x1c8>)
 8000578:	681b      	ldr	r3, [r3, #0]
 800057a:	687a      	ldr	r2, [r7, #4]
 800057c:	8812      	ldrh	r2, [r2, #0]
 800057e:	4611      	mov	r1, r2
 8000580:	2201      	movs	r2, #1
 8000582:	408a      	lsls	r2, r1
 8000584:	43d2      	mvns	r2, r2
 8000586:	4611      	mov	r1, r2
 8000588:	4a0a      	ldr	r2, [pc, #40]	; (80005b4 <update_EXTI+0x1c8>)
 800058a:	400b      	ands	r3, r1
 800058c:	6013      	str	r3, [r2, #0]
 800058e:	687b      	ldr	r3, [r7, #4]
 8000590:	881b      	ldrh	r3, [r3, #0]
 8000592:	4618      	mov	r0, r3
 8000594:	f7ff fec6 	bl	8000324 <Disable_NVIC>
 8000598:	bf00      	nop
 800059a:	3710      	adds	r7, #16
 800059c:	46bd      	mov	sp, r7
 800059e:	bd80      	pop	{r7, pc}
 80005a0:	40010000 	andmi	r0, r1, r0
 80005a4:	40010800 	andmi	r0, r1, r0, lsl #16
 80005a8:	40010c00 	andmi	r0, r1, r0, lsl #24
 80005ac:	40011000 	andmi	r1, r1, r0
 80005b0:	40011400 	andmi	r1, r1, r0, lsl #8
 80005b4:	40010400 	andmi	r0, r1, r0, lsl #8
 80005b8:	20000024 	andcs	r0, r0, r4, lsr #32

080005bc <Mcal_EXTI_GPIO_init>:
 80005bc:	b580      	push	{r7, lr}
 80005be:	b082      	sub	sp, #8
 80005c0:	af00      	add	r7, sp, #0
 80005c2:	6078      	str	r0, [r7, #4]
 80005c4:	6878      	ldr	r0, [r7, #4]
 80005c6:	f7ff ff11 	bl	80003ec <update_EXTI>
 80005ca:	bf00      	nop
 80005cc:	3708      	adds	r7, #8
 80005ce:	46bd      	mov	sp, r7
 80005d0:	bd80      	pop	{r7, pc}
	...

080005d4 <EXTI0_IRQHandler>:
 80005d4:	b580      	push	{r7, lr}
 80005d6:	af00      	add	r7, sp, #0
 80005d8:	4b05      	ldr	r3, [pc, #20]	; (80005f0 <EXTI0_IRQHandler+0x1c>)
 80005da:	695b      	ldr	r3, [r3, #20]
 80005dc:	4a04      	ldr	r2, [pc, #16]	; (80005f0 <EXTI0_IRQHandler+0x1c>)
 80005de:	f043 0301 	orr.w	r3, r3, #1
 80005e2:	6153      	str	r3, [r2, #20]
 80005e4:	4b03      	ldr	r3, [pc, #12]	; (80005f4 <EXTI0_IRQHandler+0x20>)
 80005e6:	681b      	ldr	r3, [r3, #0]
 80005e8:	4798      	blx	r3
 80005ea:	bf00      	nop
 80005ec:	bd80      	pop	{r7, pc}
 80005ee:	bf00      	nop
 80005f0:	40010400 	andmi	r0, r1, r0, lsl #8
 80005f4:	20000024 	andcs	r0, r0, r4, lsr #32

080005f8 <EXTI1_IRQHandler>:
 80005f8:	b580      	push	{r7, lr}
 80005fa:	af00      	add	r7, sp, #0
 80005fc:	4b05      	ldr	r3, [pc, #20]	; (8000614 <EXTI1_IRQHandler+0x1c>)
 80005fe:	695b      	ldr	r3, [r3, #20]
 8000600:	4a04      	ldr	r2, [pc, #16]	; (8000614 <EXTI1_IRQHandler+0x1c>)
 8000602:	f043 0302 	orr.w	r3, r3, #2
 8000606:	6153      	str	r3, [r2, #20]
 8000608:	4b03      	ldr	r3, [pc, #12]	; (8000618 <EXTI1_IRQHandler+0x20>)
 800060a:	685b      	ldr	r3, [r3, #4]
 800060c:	4798      	blx	r3
 800060e:	bf00      	nop
 8000610:	bd80      	pop	{r7, pc}
 8000612:	bf00      	nop
 8000614:	40010400 	andmi	r0, r1, r0, lsl #8
 8000618:	20000024 	andcs	r0, r0, r4, lsr #32

0800061c <EXTI2_IRQHandler>:
 800061c:	b580      	push	{r7, lr}
 800061e:	af00      	add	r7, sp, #0
 8000620:	4b05      	ldr	r3, [pc, #20]	; (8000638 <EXTI2_IRQHandler+0x1c>)
 8000622:	695b      	ldr	r3, [r3, #20]
 8000624:	4a04      	ldr	r2, [pc, #16]	; (8000638 <EXTI2_IRQHandler+0x1c>)
 8000626:	f043 0304 	orr.w	r3, r3, #4
 800062a:	6153      	str	r3, [r2, #20]
 800062c:	4b03      	ldr	r3, [pc, #12]	; (800063c <EXTI2_IRQHandler+0x20>)
 800062e:	689b      	ldr	r3, [r3, #8]
 8000630:	4798      	blx	r3
 8000632:	bf00      	nop
 8000634:	bd80      	pop	{r7, pc}
 8000636:	bf00      	nop
 8000638:	40010400 	andmi	r0, r1, r0, lsl #8
 800063c:	20000024 	andcs	r0, r0, r4, lsr #32

08000640 <EXTI3_IRQHandler>:
 8000640:	b580      	push	{r7, lr}
 8000642:	af00      	add	r7, sp, #0
 8000644:	4b05      	ldr	r3, [pc, #20]	; (800065c <EXTI3_IRQHandler+0x1c>)
 8000646:	695b      	ldr	r3, [r3, #20]
 8000648:	4a04      	ldr	r2, [pc, #16]	; (800065c <EXTI3_IRQHandler+0x1c>)
 800064a:	f043 0308 	orr.w	r3, r3, #8
 800064e:	6153      	str	r3, [r2, #20]
 8000650:	4b03      	ldr	r3, [pc, #12]	; (8000660 <EXTI3_IRQHandler+0x20>)
 8000652:	68db      	ldr	r3, [r3, #12]
 8000654:	4798      	blx	r3
 8000656:	bf00      	nop
 8000658:	bd80      	pop	{r7, pc}
 800065a:	bf00      	nop
 800065c:	40010400 	andmi	r0, r1, r0, lsl #8
 8000660:	20000024 	andcs	r0, r0, r4, lsr #32

08000664 <EXTI4_IRQHandler>:
 8000664:	b580      	push	{r7, lr}
 8000666:	af00      	add	r7, sp, #0
 8000668:	4b05      	ldr	r3, [pc, #20]	; (8000680 <EXTI4_IRQHandler+0x1c>)
 800066a:	695b      	ldr	r3, [r3, #20]
 800066c:	4a04      	ldr	r2, [pc, #16]	; (8000680 <EXTI4_IRQHandler+0x1c>)
 800066e:	f043 0310 	orr.w	r3, r3, #16
 8000672:	6153      	str	r3, [r2, #20]
 8000674:	4b03      	ldr	r3, [pc, #12]	; (8000684 <EXTI4_IRQHandler+0x20>)
 8000676:	691b      	ldr	r3, [r3, #16]
 8000678:	4798      	blx	r3
 800067a:	bf00      	nop
 800067c:	bd80      	pop	{r7, pc}
 800067e:	bf00      	nop
 8000680:	40010400 	andmi	r0, r1, r0, lsl #8
 8000684:	20000024 	andcs	r0, r0, r4, lsr #32

08000688 <EXTI9_5_IRQHandler>:
 8000688:	b580      	push	{r7, lr}
 800068a:	af00      	add	r7, sp, #0
 800068c:	4b26      	ldr	r3, [pc, #152]	; (8000728 <EXTI9_5_IRQHandler+0xa0>)
 800068e:	695b      	ldr	r3, [r3, #20]
 8000690:	f003 0320 	and.w	r3, r3, #32
 8000694:	2b00      	cmp	r3, #0
 8000696:	d008      	beq.n	80006aa <EXTI9_5_IRQHandler+0x22>
 8000698:	4b23      	ldr	r3, [pc, #140]	; (8000728 <EXTI9_5_IRQHandler+0xa0>)
 800069a:	695b      	ldr	r3, [r3, #20]
 800069c:	4a22      	ldr	r2, [pc, #136]	; (8000728 <EXTI9_5_IRQHandler+0xa0>)
 800069e:	f043 0320 	orr.w	r3, r3, #32
 80006a2:	6153      	str	r3, [r2, #20]
 80006a4:	4b21      	ldr	r3, [pc, #132]	; (800072c <EXTI9_5_IRQHandler+0xa4>)
 80006a6:	695b      	ldr	r3, [r3, #20]
 80006a8:	4798      	blx	r3
 80006aa:	4b1f      	ldr	r3, [pc, #124]	; (8000728 <EXTI9_5_IRQHandler+0xa0>)
 80006ac:	695b      	ldr	r3, [r3, #20]
 80006ae:	f003 0340 	and.w	r3, r3, #64	; 0x40
 80006b2:	2b00      	cmp	r3, #0
 80006b4:	d008      	beq.n	80006c8 <EXTI9_5_IRQHandler+0x40>
 80006b6:	4b1c      	ldr	r3, [pc, #112]	; (8000728 <EXTI9_5_IRQHandler+0xa0>)
 80006b8:	695b      	ldr	r3, [r3, #20]
 80006ba:	4a1b      	ldr	r2, [pc, #108]	; (8000728 <EXTI9_5_IRQHandler+0xa0>)
 80006bc:	f043 0340 	orr.w	r3, r3, #64	; 0x40
 80006c0:	6153      	str	r3, [r2, #20]
 80006c2:	4b1a      	ldr	r3, [pc, #104]	; (800072c <EXTI9_5_IRQHandler+0xa4>)
 80006c4:	699b      	ldr	r3, [r3, #24]
 80006c6:	4798      	blx	r3
 80006c8:	4b17      	ldr	r3, [pc, #92]	; (8000728 <EXTI9_5_IRQHandler+0xa0>)
 80006ca:	695b      	ldr	r3, [r3, #20]
 80006cc:	f003 0380 	and.w	r3, r3, #128	; 0x80
 80006d0:	2b00      	cmp	r3, #0
 80006d2:	d008      	beq.n	80006e6 <EXTI9_5_IRQHandler+0x5e>
 80006d4:	4b14      	ldr	r3, [pc, #80]	; (8000728 <EXTI9_5_IRQHandler+0xa0>)
 80006d6:	695b      	ldr	r3, [r3, #20]
 80006d8:	4a13      	ldr	r2, [pc, #76]	; (8000728 <EXTI9_5_IRQHandler+0xa0>)
 80006da:	f043 0380 	orr.w	r3, r3, #128	; 0x80
 80006de:	6153      	str	r3, [r2, #20]
 80006e0:	4b12      	ldr	r3, [pc, #72]	; (800072c <EXTI9_5_IRQHandler+0xa4>)
 80006e2:	69db      	ldr	r3, [r3, #28]
 80006e4:	4798      	blx	r3
 80006e6:	4b10      	ldr	r3, [pc, #64]	; (8000728 <EXTI9_5_IRQHandler+0xa0>)
 80006e8:	695b      	ldr	r3, [r3, #20]
 80006ea:	f403 7380 	and.w	r3, r3, #256	; 0x100
 80006ee:	2b00      	cmp	r3, #0
 80006f0:	d008      	beq.n	8000704 <EXTI9_5_IRQHandler+0x7c>
 80006f2:	4b0d      	ldr	r3, [pc, #52]	; (8000728 <EXTI9_5_IRQHandler+0xa0>)
 80006f4:	695b      	ldr	r3, [r3, #20]
 80006f6:	4a0c      	ldr	r2, [pc, #48]	; (8000728 <EXTI9_5_IRQHandler+0xa0>)
 80006f8:	f443 7380 	orr.w	r3, r3, #256	; 0x100
 80006fc:	6153      	str	r3, [r2, #20]
 80006fe:	4b0b      	ldr	r3, [pc, #44]	; (800072c <EXTI9_5_IRQHandler+0xa4>)
 8000700:	6a1b      	ldr	r3, [r3, #32]
 8000702:	4798      	blx	r3
 8000704:	4b08      	ldr	r3, [pc, #32]	; (8000728 <EXTI9_5_IRQHandler+0xa0>)
 8000706:	695b      	ldr	r3, [r3, #20]
 8000708:	f403 7300 	and.w	r3, r3, #512	; 0x200
 800070c:	2b00      	cmp	r3, #0
 800070e:	d008      	beq.n	8000722 <EXTI9_5_IRQHandler+0x9a>
 8000710:	4b05      	ldr	r3, [pc, #20]	; (8000728 <EXTI9_5_IRQHandler+0xa0>)
 8000712:	695b      	ldr	r3, [r3, #20]
 8000714:	4a04      	ldr	r2, [pc, #16]	; (8000728 <EXTI9_5_IRQHandler+0xa0>)
 8000716:	f443 7300 	orr.w	r3, r3, #512	; 0x200
 800071a:	6153      	str	r3, [r2, #20]
 800071c:	4b03      	ldr	r3, [pc, #12]	; (800072c <EXTI9_5_IRQHandler+0xa4>)
 800071e:	6a5b      	ldr	r3, [r3, #36]	; 0x24
 8000720:	4798      	blx	r3
 8000722:	bf00      	nop
 8000724:	bd80      	pop	{r7, pc}
 8000726:	bf00      	nop
 8000728:	40010400 	andmi	r0, r1, r0, lsl #8
 800072c:	20000024 	andcs	r0, r0, r4, lsr #32

08000730 <EXTI15_10_IRQHandler>:
 8000730:	b580      	push	{r7, lr}
 8000732:	af00      	add	r7, sp, #0
 8000734:	4b2d      	ldr	r3, [pc, #180]	; (80007ec <EXTI15_10_IRQHandler+0xbc>)
 8000736:	695b      	ldr	r3, [r3, #20]
 8000738:	f403 6380 	and.w	r3, r3, #1024	; 0x400
 800073c:	2b00      	cmp	r3, #0
 800073e:	d008      	beq.n	8000752 <EXTI15_10_IRQHandler+0x22>
 8000740:	4b2a      	ldr	r3, [pc, #168]	; (80007ec <EXTI15_10_IRQHandler+0xbc>)
 8000742:	695b      	ldr	r3, [r3, #20]
 8000744:	4a29      	ldr	r2, [pc, #164]	; (80007ec <EXTI15_10_IRQHandler+0xbc>)
 8000746:	f443 6380 	orr.w	r3, r3, #1024	; 0x400
 800074a:	6153      	str	r3, [r2, #20]
 800074c:	4b28      	ldr	r3, [pc, #160]	; (80007f0 <EXTI15_10_IRQHandler+0xc0>)
 800074e:	6a9b      	ldr	r3, [r3, #40]	; 0x28
 8000750:	4798      	blx	r3
 8000752:	4b26      	ldr	r3, [pc, #152]	; (80007ec <EXTI15_10_IRQHandler+0xbc>)
 8000754:	695b      	ldr	r3, [r3, #20]
 8000756:	f403 6300 	and.w	r3, r3, #2048	; 0x800
 800075a:	2b00      	cmp	r3, #0
 800075c:	d008      	beq.n	8000770 <EXTI15_10_IRQHandler+0x40>
 800075e:	4b23      	ldr	r3, [pc, #140]	; (80007ec <EXTI15_10_IRQHandler+0xbc>)
 8000760:	695b      	ldr	r3, [r3, #20]
 8000762:	4a22      	ldr	r2, [pc, #136]	; (80007ec <EXTI15_10_IRQHandler+0xbc>)
 8000764:	f443 6300 	orr.w	r3, r3, #2048	; 0x800
 8000768:	6153      	str	r3, [r2, #20]
 800076a:	4b21      	ldr	r3, [pc, #132]	; (80007f0 <EXTI15_10_IRQHandler+0xc0>)
 800076c:	6adb      	ldr	r3, [r3, #44]	; 0x2c
 800076e:	4798      	blx	r3
 8000770:	4b1e      	ldr	r3, [pc, #120]	; (80007ec <EXTI15_10_IRQHandler+0xbc>)
 8000772:	695b      	ldr	r3, [r3, #20]
 8000774:	f403 5380 	and.w	r3, r3, #4096	; 0x1000
 8000778:	2b00      	cmp	r3, #0
 800077a:	d008      	beq.n	800078e <EXTI15_10_IRQHandler+0x5e>
 800077c:	4b1b      	ldr	r3, [pc, #108]	; (80007ec <EXTI15_10_IRQHandler+0xbc>)
 800077e:	695b      	ldr	r3, [r3, #20]
 8000780:	4a1a      	ldr	r2, [pc, #104]	; (80007ec <EXTI15_10_IRQHandler+0xbc>)
 8000782:	f443 5380 	orr.w	r3, r3, #4096	; 0x1000
 8000786:	6153      	str	r3, [r2, #20]
 8000788:	4b19      	ldr	r3, [pc, #100]	; (80007f0 <EXTI15_10_IRQHandler+0xc0>)
 800078a:	6b1b      	ldr	r3, [r3, #48]	; 0x30
 800078c:	4798      	blx	r3
 800078e:	4b17      	ldr	r3, [pc, #92]	; (80007ec <EXTI15_10_IRQHandler+0xbc>)
 8000790:	695b      	ldr	r3, [r3, #20]
 8000792:	f403 5300 	and.w	r3, r3, #8192	; 0x2000
 8000796:	2b00      	cmp	r3, #0
 8000798:	d008      	beq.n	80007ac <EXTI15_10_IRQHandler+0x7c>
 800079a:	4b14      	ldr	r3, [pc, #80]	; (80007ec <EXTI15_10_IRQHandler+0xbc>)
 800079c:	695b      	ldr	r3, [r3, #20]
 800079e:	4a13      	ldr	r2, [pc, #76]	; (80007ec <EXTI15_10_IRQHandler+0xbc>)
 80007a0:	f443 5300 	orr.w	r3, r3, #8192	; 0x2000
 80007a4:	6153      	str	r3, [r2, #20]
 80007a6:	4b12      	ldr	r3, [pc, #72]	; (80007f0 <EXTI15_10_IRQHandler+0xc0>)
 80007a8:	6b5b      	ldr	r3, [r3, #52]	; 0x34
 80007aa:	4798      	blx	r3
 80007ac:	4b0f      	ldr	r3, [pc, #60]	; (80007ec <EXTI15_10_IRQHandler+0xbc>)
 80007ae:	695b      	ldr	r3, [r3, #20]
 80007b0:	f403 4380 	and.w	r3, r3, #16384	; 0x4000
 80007b4:	2b00      	cmp	r3, #0
 80007b6:	d008      	beq.n	80007ca <EXTI15_10_IRQHandler+0x9a>
 80007b8:	4b0c      	ldr	r3, [pc, #48]	; (80007ec <EXTI15_10_IRQHandler+0xbc>)
 80007ba:	695b      	ldr	r3, [r3, #20]
 80007bc:	4a0b      	ldr	r2, [pc, #44]	; (80007ec <EXTI15_10_IRQHandler+0xbc>)
 80007be:	f443 4380 	orr.w	r3, r3, #16384	; 0x4000
 80007c2:	6153      	str	r3, [r2, #20]
 80007c4:	4b0a      	ldr	r3, [pc, #40]	; (80007f0 <EXTI15_10_IRQHandler+0xc0>)
 80007c6:	6b9b      	ldr	r3, [r3, #56]	; 0x38
 80007c8:	4798      	blx	r3
 80007ca:	4b08      	ldr	r3, [pc, #32]	; (80007ec <EXTI15_10_IRQHandler+0xbc>)
 80007cc:	695b      	ldr	r3, [r3, #20]
 80007ce:	f403 4300 	and.w	r3, r3, #32768	; 0x8000
 80007d2:	2b00      	cmp	r3, #0
 80007d4:	d008      	beq.n	80007e8 <EXTI15_10_IRQHandler+0xb8>
 80007d6:	4b05      	ldr	r3, [pc, #20]	; (80007ec <EXTI15_10_IRQHandler+0xbc>)
 80007d8:	695b      	ldr	r3, [r3, #20]
 80007da:	4a04      	ldr	r2, [pc, #16]	; (80007ec <EXTI15_10_IRQHandler+0xbc>)
 80007dc:	f443 4300 	orr.w	r3, r3, #32768	; 0x8000
 80007e0:	6153      	str	r3, [r2, #20]
 80007e2:	4b03      	ldr	r3, [pc, #12]	; (80007f0 <EXTI15_10_IRQHandler+0xc0>)
 80007e4:	6bdb      	ldr	r3, [r3, #60]	; 0x3c
 80007e6:	4798      	blx	r3
 80007e8:	bf00      	nop
 80007ea:	bd80      	pop	{r7, pc}
 80007ec:	40010400 	andmi	r0, r1, r0, lsl #8
 80007f0:	20000024 	andcs	r0, r0, r4, lsr #32

080007f4 <Get_CRLH_Position>:
 80007f4:	b480      	push	{r7}
 80007f6:	b083      	sub	sp, #12
 80007f8:	af00      	add	r7, sp, #0
 80007fa:	4603      	mov	r3, r0
 80007fc:	80fb      	strh	r3, [r7, #6]
 80007fe:	88fb      	ldrh	r3, [r7, #6]
 8000800:	f5b3 4f00 	cmp.w	r3, #32768	; 0x8000
 8000804:	f000 80a5 	beq.w	8000952 <Get_CRLH_Position+0x15e>
 8000808:	f5b3 4f00 	cmp.w	r3, #32768	; 0x8000
 800080c:	f300 80a3 	bgt.w	8000956 <Get_CRLH_Position+0x162>
 8000810:	f5b3 4f80 	cmp.w	r3, #16384	; 0x4000
 8000814:	f000 809b 	beq.w	800094e <Get_CRLH_Position+0x15a>
 8000818:	f5b3 4f80 	cmp.w	r3, #16384	; 0x4000
 800081c:	f300 809b 	bgt.w	8000956 <Get_CRLH_Position+0x162>
 8000820:	f5b3 5f00 	cmp.w	r3, #8192	; 0x2000
 8000824:	f000 8091 	beq.w	800094a <Get_CRLH_Position+0x156>
 8000828:	f5b3 5f00 	cmp.w	r3, #8192	; 0x2000
 800082c:	f300 8093 	bgt.w	8000956 <Get_CRLH_Position+0x162>
 8000830:	f5b3 5f80 	cmp.w	r3, #4096	; 0x1000
 8000834:	f000 8087 	beq.w	8000946 <Get_CRLH_Position+0x152>
 8000838:	f5b3 5f80 	cmp.w	r3, #4096	; 0x1000
 800083c:	f300 808b 	bgt.w	8000956 <Get_CRLH_Position+0x162>
 8000840:	f5b3 6f00 	cmp.w	r3, #2048	; 0x800
 8000844:	d07d      	beq.n	8000942 <Get_CRLH_Position+0x14e>
 8000846:	f5b3 6f00 	cmp.w	r3, #2048	; 0x800
 800084a:	f300 8084 	bgt.w	8000956 <Get_CRLH_Position+0x162>
 800084e:	f5b3 6f80 	cmp.w	r3, #1024	; 0x400
 8000852:	d074      	beq.n	800093e <Get_CRLH_Position+0x14a>
 8000854:	f5b3 6f80 	cmp.w	r3, #1024	; 0x400
 8000858:	dc7d      	bgt.n	8000956 <Get_CRLH_Position+0x162>
 800085a:	f5b3 7f00 	cmp.w	r3, #512	; 0x200
 800085e:	d06c      	beq.n	800093a <Get_CRLH_Position+0x146>
 8000860:	f5b3 7f00 	cmp.w	r3, #512	; 0x200
 8000864:	dc77      	bgt.n	8000956 <Get_CRLH_Position+0x162>
 8000866:	f5b3 7f80 	cmp.w	r3, #256	; 0x100
 800086a:	d064      	beq.n	8000936 <Get_CRLH_Position+0x142>
 800086c:	f5b3 7f80 	cmp.w	r3, #256	; 0x100
 8000870:	dc71      	bgt.n	8000956 <Get_CRLH_Position+0x162>
 8000872:	2b80      	cmp	r3, #128	; 0x80
 8000874:	d05d      	beq.n	8000932 <Get_CRLH_Position+0x13e>
 8000876:	2b80      	cmp	r3, #128	; 0x80
 8000878:	dc6d      	bgt.n	8000956 <Get_CRLH_Position+0x162>
 800087a:	2b20      	cmp	r3, #32
 800087c:	dc48      	bgt.n	8000910 <Get_CRLH_Position+0x11c>
 800087e:	2b00      	cmp	r3, #0
 8000880:	dd69      	ble.n	8000956 <Get_CRLH_Position+0x162>
 8000882:	3b01      	subs	r3, #1
 8000884:	2b1f      	cmp	r3, #31
 8000886:	d866      	bhi.n	8000956 <Get_CRLH_Position+0x162>
 8000888:	a201      	add	r2, pc, #4	; (adr r2, 8000890 <Get_CRLH_Position+0x9c>)
 800088a:	f852 f023 	ldr.w	pc, [r2, r3, lsl #2]
 800088e:	bf00      	nop
 8000890:	08000917 	stmdaeq	r0, {r0, r1, r2, r4, r8, fp}
 8000894:	0800091b 	stmdaeq	r0, {r0, r1, r3, r4, r8, fp}
 8000898:	08000957 	stmdaeq	r0, {r0, r1, r2, r4, r6, r8, fp}
 800089c:	0800091f 	stmdaeq	r0, {r0, r1, r2, r3, r4, r8, fp}
 80008a0:	08000957 	stmdaeq	r0, {r0, r1, r2, r4, r6, r8, fp}
 80008a4:	08000957 	stmdaeq	r0, {r0, r1, r2, r4, r6, r8, fp}
 80008a8:	08000957 	stmdaeq	r0, {r0, r1, r2, r4, r6, r8, fp}
 80008ac:	08000923 	stmdaeq	r0, {r0, r1, r5, r8, fp}
 80008b0:	08000957 	stmdaeq	r0, {r0, r1, r2, r4, r6, r8, fp}
 80008b4:	08000957 	stmdaeq	r0, {r0, r1, r2, r4, r6, r8, fp}
 80008b8:	08000957 	stmdaeq	r0, {r0, r1, r2, r4, r6, r8, fp}
 80008bc:	08000957 	stmdaeq	r0, {r0, r1, r2, r4, r6, r8, fp}
 80008c0:	08000957 	stmdaeq	r0, {r0, r1, r2, r4, r6, r8, fp}
 80008c4:	08000957 	stmdaeq	r0, {r0, r1, r2, r4, r6, r8, fp}
 80008c8:	08000957 	stmdaeq	r0, {r0, r1, r2, r4, r6, r8, fp}
 80008cc:	08000927 	stmdaeq	r0, {r0, r1, r2, r5, r8, fp}
 80008d0:	08000957 	stmdaeq	r0, {r0, r1, r2, r4, r6, r8, fp}
 80008d4:	08000957 	stmdaeq	r0, {r0, r1, r2, r4, r6, r8, fp}
 80008d8:	08000957 	stmdaeq	r0, {r0, r1, r2, r4, r6, r8, fp}
 80008dc:	08000957 	stmdaeq	r0, {r0, r1, r2, r4, r6, r8, fp}
 80008e0:	08000957 	stmdaeq	r0, {r0, r1, r2, r4, r6, r8, fp}
 80008e4:	08000957 	stmdaeq	r0, {r0, r1, r2, r4, r6, r8, fp}
 80008e8:	08000957 	stmdaeq	r0, {r0, r1, r2, r4, r6, r8, fp}
 80008ec:	08000957 	stmdaeq	r0, {r0, r1, r2, r4, r6, r8, fp}
 80008f0:	08000957 	stmdaeq	r0, {r0, r1, r2, r4, r6, r8, fp}
 80008f4:	08000957 	stmdaeq	r0, {r0, r1, r2, r4, r6, r8, fp}
 80008f8:	08000957 	stmdaeq	r0, {r0, r1, r2, r4, r6, r8, fp}
 80008fc:	08000957 	stmdaeq	r0, {r0, r1, r2, r4, r6, r8, fp}
 8000900:	08000957 	stmdaeq	r0, {r0, r1, r2, r4, r6, r8, fp}
 8000904:	08000957 	stmdaeq	r0, {r0, r1, r2, r4, r6, r8, fp}
 8000908:	08000957 	stmdaeq	r0, {r0, r1, r2, r4, r6, r8, fp}
 800090c:	0800092b 	stmdaeq	r0, {r0, r1, r3, r5, r8, fp}
 8000910:	2b40      	cmp	r3, #64	; 0x40
 8000912:	d00c      	beq.n	800092e <Get_CRLH_Position+0x13a>
 8000914:	e01f      	b.n	8000956 <Get_CRLH_Position+0x162>
 8000916:	2300      	movs	r3, #0
 8000918:	e01e      	b.n	8000958 <Get_CRLH_Position+0x164>
 800091a:	2304      	movs	r3, #4
 800091c:	e01c      	b.n	8000958 <Get_CRLH_Position+0x164>
 800091e:	2308      	movs	r3, #8
 8000920:	e01a      	b.n	8000958 <Get_CRLH_Position+0x164>
 8000922:	230c      	movs	r3, #12
 8000924:	e018      	b.n	8000958 <Get_CRLH_Position+0x164>
 8000926:	2310      	movs	r3, #16
 8000928:	e016      	b.n	8000958 <Get_CRLH_Position+0x164>
 800092a:	2314      	movs	r3, #20
 800092c:	e014      	b.n	8000958 <Get_CRLH_Position+0x164>
 800092e:	2318      	movs	r3, #24
 8000930:	e012      	b.n	8000958 <Get_CRLH_Position+0x164>
 8000932:	231c      	movs	r3, #28
 8000934:	e010      	b.n	8000958 <Get_CRLH_Position+0x164>
 8000936:	2300      	movs	r3, #0
 8000938:	e00e      	b.n	8000958 <Get_CRLH_Position+0x164>
 800093a:	2304      	movs	r3, #4
 800093c:	e00c      	b.n	8000958 <Get_CRLH_Position+0x164>
 800093e:	2308      	movs	r3, #8
 8000940:	e00a      	b.n	8000958 <Get_CRLH_Position+0x164>
 8000942:	230c      	movs	r3, #12
 8000944:	e008      	b.n	8000958 <Get_CRLH_Position+0x164>
 8000946:	2310      	movs	r3, #16
 8000948:	e006      	b.n	8000958 <Get_CRLH_Position+0x164>
 800094a:	2314      	movs	r3, #20
 800094c:	e004      	b.n	8000958 <Get_CRLH_Position+0x164>
 800094e:	2318      	movs	r3, #24
 8000950:	e002      	b.n	8000958 <Get_CRLH_Position+0x164>
 8000952:	231c      	movs	r3, #28
 8000954:	e000      	b.n	8000958 <Get_CRLH_Position+0x164>
 8000956:	2300      	movs	r3, #0
 8000958:	4618      	mov	r0, r3
 800095a:	370c      	adds	r7, #12
 800095c:	46bd      	mov	sp, r7
 800095e:	bc80      	pop	{r7}
 8000960:	4770      	bx	lr
 8000962:	bf00      	nop

08000964 <MCAL_GPIO_Init>:
 8000964:	b590      	push	{r4, r7, lr}
 8000966:	b085      	sub	sp, #20
 8000968:	af00      	add	r7, sp, #0
 800096a:	6078      	str	r0, [r7, #4]
 800096c:	6039      	str	r1, [r7, #0]
 800096e:	2300      	movs	r3, #0
 8000970:	60bb      	str	r3, [r7, #8]
 8000972:	2300      	movs	r3, #0
 8000974:	73fb      	strb	r3, [r7, #15]
 8000976:	683b      	ldr	r3, [r7, #0]
 8000978:	881b      	ldrh	r3, [r3, #0]
 800097a:	2bff      	cmp	r3, #255	; 0xff
 800097c:	d801      	bhi.n	8000982 <MCAL_GPIO_Init+0x1e>
 800097e:	687b      	ldr	r3, [r7, #4]
 8000980:	e001      	b.n	8000986 <MCAL_GPIO_Init+0x22>
 8000982:	687b      	ldr	r3, [r7, #4]
 8000984:	3304      	adds	r3, #4
 8000986:	60bb      	str	r3, [r7, #8]
 8000988:	683b      	ldr	r3, [r7, #0]
 800098a:	881b      	ldrh	r3, [r3, #0]
 800098c:	4618      	mov	r0, r3
 800098e:	f7ff ff31 	bl	80007f4 <Get_CRLH_Position>
 8000992:	4603      	mov	r3, r0
 8000994:	461a      	mov	r2, r3
 8000996:	230f      	movs	r3, #15
 8000998:	4093      	lsls	r3, r2
 800099a:	43da      	mvns	r2, r3
 800099c:	68bb      	ldr	r3, [r7, #8]
 800099e:	681b      	ldr	r3, [r3, #0]
 80009a0:	401a      	ands	r2, r3
 80009a2:	68bb      	ldr	r3, [r7, #8]
 80009a4:	601a      	str	r2, [r3, #0]
 80009a6:	683b      	ldr	r3, [r7, #0]
 80009a8:	789b      	ldrb	r3, [r3, #2]
 80009aa:	2b04      	cmp	r3, #4
 80009ac:	d00b      	beq.n	80009c6 <MCAL_GPIO_Init+0x62>
 80009ae:	683b      	ldr	r3, [r7, #0]
 80009b0:	789b      	ldrb	r3, [r3, #2]
 80009b2:	2b05      	cmp	r3, #5
 80009b4:	d007      	beq.n	80009c6 <MCAL_GPIO_Init+0x62>
 80009b6:	683b      	ldr	r3, [r7, #0]
 80009b8:	789b      	ldrb	r3, [r3, #2]
 80009ba:	2b06      	cmp	r3, #6
 80009bc:	d003      	beq.n	80009c6 <MCAL_GPIO_Init+0x62>
 80009be:	683b      	ldr	r3, [r7, #0]
 80009c0:	789b      	ldrb	r3, [r3, #2]
 80009c2:	2b07      	cmp	r3, #7
 80009c4:	d10e      	bne.n	80009e4 <MCAL_GPIO_Init+0x80>
 80009c6:	683b      	ldr	r3, [r7, #0]
 80009c8:	789b      	ldrb	r3, [r3, #2]
 80009ca:	3b04      	subs	r3, #4
 80009cc:	009b      	lsls	r3, r3, #2
 80009ce:	b25a      	sxtb	r2, r3
 80009d0:	683b      	ldr	r3, [r7, #0]
 80009d2:	78db      	ldrb	r3, [r3, #3]
 80009d4:	b25b      	sxtb	r3, r3
 80009d6:	f003 030f 	and.w	r3, r3, #15
 80009da:	b25b      	sxtb	r3, r3
 80009dc:	4313      	orrs	r3, r2
 80009de:	b25b      	sxtb	r3, r3
 80009e0:	73fb      	strb	r3, [r7, #15]
 80009e2:	e029      	b.n	8000a38 <MCAL_GPIO_Init+0xd4>
 80009e4:	683b      	ldr	r3, [r7, #0]
 80009e6:	789b      	ldrb	r3, [r3, #2]
 80009e8:	2b00      	cmp	r3, #0
 80009ea:	d003      	beq.n	80009f4 <MCAL_GPIO_Init+0x90>
 80009ec:	683b      	ldr	r3, [r7, #0]
 80009ee:	789b      	ldrb	r3, [r3, #2]
 80009f0:	2b01      	cmp	r3, #1
 80009f2:	d104      	bne.n	80009fe <MCAL_GPIO_Init+0x9a>
 80009f4:	683b      	ldr	r3, [r7, #0]
 80009f6:	789b      	ldrb	r3, [r3, #2]
 80009f8:	009b      	lsls	r3, r3, #2
 80009fa:	73fb      	strb	r3, [r7, #15]
 80009fc:	e01c      	b.n	8000a38 <MCAL_GPIO_Init+0xd4>
 80009fe:	683b      	ldr	r3, [r7, #0]
 8000a00:	789b      	ldrb	r3, [r3, #2]
 8000a02:	2b08      	cmp	r3, #8
 8000a04:	d102      	bne.n	8000a0c <MCAL_GPIO_Init+0xa8>
 8000a06:	2304      	movs	r3, #4
 8000a08:	73fb      	strb	r3, [r7, #15]
 8000a0a:	e015      	b.n	8000a38 <MCAL_GPIO_Init+0xd4>
 8000a0c:	2308      	movs	r3, #8
 8000a0e:	73fb      	strb	r3, [r7, #15]
 8000a10:	683b      	ldr	r3, [r7, #0]
 8000a12:	789b      	ldrb	r3, [r3, #2]
 8000a14:	2b02      	cmp	r3, #2
 8000a16:	d107      	bne.n	8000a28 <MCAL_GPIO_Init+0xc4>
 8000a18:	687b      	ldr	r3, [r7, #4]
 8000a1a:	68db      	ldr	r3, [r3, #12]
 8000a1c:	683a      	ldr	r2, [r7, #0]
 8000a1e:	8812      	ldrh	r2, [r2, #0]
 8000a20:	431a      	orrs	r2, r3
 8000a22:	687b      	ldr	r3, [r7, #4]
 8000a24:	60da      	str	r2, [r3, #12]
 8000a26:	e007      	b.n	8000a38 <MCAL_GPIO_Init+0xd4>
 8000a28:	687b      	ldr	r3, [r7, #4]
 8000a2a:	68db      	ldr	r3, [r3, #12]
 8000a2c:	683a      	ldr	r2, [r7, #0]
 8000a2e:	8812      	ldrh	r2, [r2, #0]
 8000a30:	43d2      	mvns	r2, r2
 8000a32:	401a      	ands	r2, r3
 8000a34:	687b      	ldr	r3, [r7, #4]
 8000a36:	60da      	str	r2, [r3, #12]
 8000a38:	7bfc      	ldrb	r4, [r7, #15]
 8000a3a:	683b      	ldr	r3, [r7, #0]
 8000a3c:	881b      	ldrh	r3, [r3, #0]
 8000a3e:	4618      	mov	r0, r3
 8000a40:	f7ff fed8 	bl	80007f4 <Get_CRLH_Position>
 8000a44:	4603      	mov	r3, r0
 8000a46:	fa04 f203 	lsl.w	r2, r4, r3
 8000a4a:	68bb      	ldr	r3, [r7, #8]
 8000a4c:	681b      	ldr	r3, [r3, #0]
 8000a4e:	431a      	orrs	r2, r3
 8000a50:	68bb      	ldr	r3, [r7, #8]
 8000a52:	601a      	str	r2, [r3, #0]
 8000a54:	bf00      	nop
 8000a56:	3714      	adds	r7, #20
 8000a58:	46bd      	mov	sp, r7
 8000a5a:	bd90      	pop	{r4, r7, pc}

08000a5c <__libc_init_array>:
 8000a5c:	b570      	push	{r4, r5, r6, lr}
 8000a5e:	2600      	movs	r6, #0
 8000a60:	4d0c      	ldr	r5, [pc, #48]	; (8000a94 <__libc_init_array+0x38>)
 8000a62:	4c0d      	ldr	r4, [pc, #52]	; (8000a98 <__libc_init_array+0x3c>)
 8000a64:	1b64      	subs	r4, r4, r5
 8000a66:	10a4      	asrs	r4, r4, #2
 8000a68:	42a6      	cmp	r6, r4
 8000a6a:	d109      	bne.n	8000a80 <__libc_init_array+0x24>
 8000a6c:	f000 f81a 	bl	8000aa4 <_init>
 8000a70:	2600      	movs	r6, #0
 8000a72:	4d0a      	ldr	r5, [pc, #40]	; (8000a9c <__libc_init_array+0x40>)
 8000a74:	4c0a      	ldr	r4, [pc, #40]	; (8000aa0 <__libc_init_array+0x44>)
 8000a76:	1b64      	subs	r4, r4, r5
 8000a78:	10a4      	asrs	r4, r4, #2
 8000a7a:	42a6      	cmp	r6, r4
 8000a7c:	d105      	bne.n	8000a8a <__libc_init_array+0x2e>
 8000a7e:	bd70      	pop	{r4, r5, r6, pc}
 8000a80:	f855 3b04 	ldr.w	r3, [r5], #4
 8000a84:	4798      	blx	r3
 8000a86:	3601      	adds	r6, #1
 8000a88:	e7ee      	b.n	8000a68 <__libc_init_array+0xc>
 8000a8a:	f855 3b04 	ldr.w	r3, [r5], #4
 8000a8e:	4798      	blx	r3
 8000a90:	3601      	adds	r6, #1
 8000a92:	e7f2      	b.n	8000a7a <__libc_init_array+0x1e>
 8000a94:	08000ac8 	stmdaeq	r0, {r3, r6, r7, r9, fp}
 8000a98:	08000ac8 	stmdaeq	r0, {r3, r6, r7, r9, fp}
 8000a9c:	08000ac8 	stmdaeq	r0, {r3, r6, r7, r9, fp}
 8000aa0:	08000acc 	stmdaeq	r0, {r2, r3, r6, r7, r9, fp}

08000aa4 <_init>:
 8000aa4:	b5f8      	push	{r3, r4, r5, r6, r7, lr}
 8000aa6:	bf00      	nop
 8000aa8:	bcf8      	pop	{r3, r4, r5, r6, r7}
 8000aaa:	bc08      	pop	{r3}
 8000aac:	469e      	mov	lr, r3
 8000aae:	4770      	bx	lr

08000ab0 <_fini>:
 8000ab0:	b5f8      	push	{r3, r4, r5, r6, r7, lr}
 8000ab2:	bf00      	nop
 8000ab4:	bcf8      	pop	{r3, r4, r5, r6, r7}
 8000ab6:	bc08      	pop	{r3}
 8000ab8:	469e      	mov	lr, r3
 8000aba:	4770      	bx	lr

Disassembly of section .rodata:

08000abc <.rodata>:
 8000abc:	00000009 	andeq	r0, r0, r9
 8000ac0:	40010c00 	andmi	r0, r1, r0, lsl #24
 8000ac4:	00170200 	andseq	r0, r7, r0, lsl #4

Disassembly of section .init_array:

08000ac8 <__frame_dummy_init_array_entry>:
 8000ac8:	08000155 	stmdaeq	r0, {r0, r2, r4, r6, r8}

Disassembly of section .fini_array:

08000acc <__do_global_dtors_aux_fini_array_entry>:
 8000acc:	08000131 	stmdaeq	r0, {r0, r4, r5, r8}

Disassembly of section .bss:

20000000 <__bss_start__>:
20000000:	00000000 	andeq	r0, r0, r0

20000004 <object.0>:
	...

2000001c <IRQ_Flag>:
2000001c:	00000000 	andeq	r0, r0, r0

20000020 <IPSR_out>:
20000020:	00000000 	andeq	r0, r0, r0

20000024 <GP_IRQ_CallBack>:
	...

Disassembly of section ._user_heap_stack:

20000060 <_end>:
	...

Disassembly of section .ARM.attributes:

00000000 <.ARM.attributes>:
   0:	00002841 	andeq	r2, r0, r1, asr #16
   4:	61656100 	cmnvs	r5, r0, lsl #2
   8:	01006962 	tsteq	r0, r2, ror #18
   c:	0000001e 	andeq	r0, r0, lr, lsl r0
  10:	4d2d3705 	stcmi	7, cr3, [sp, #-20]!	; 0xffffffec
  14:	070a0600 	streq	r0, [sl, -r0, lsl #12]
  18:	1202094d 	andne	r0, r2, #1261568	; 0x134000
  1c:	15011404 	strne	r1, [r1, #-1028]	; 0xfffffbfc
  20:	18031701 	stmdane	r3, {r0, r8, r9, sl, ip}
  24:	22011a01 	andcs	r1, r1, #4096	; 0x1000
  28:	Address 0x0000000000000028 is out of bounds.


Disassembly of section .debug_info:

00000000 <.debug_info>:
   0:	0000035a 	andeq	r0, r0, sl, asr r3
   4:	00000002 	andeq	r0, r0, r2
   8:	01040000 	mrseq	r0, (UNDEF: 4)
   c:	00002a56 	andeq	r2, r0, r6, asr sl
  10:	0031f30c 	eorseq	pc, r1, ip, lsl #6
  14:	00349700 	eorseq	r9, r4, r0, lsl #14
	...
  2c:	07040200 	streq	r0, [r4, -r0, lsl #4]
  30:	000021e8 	andeq	r2, r0, r8, ror #3
  34:	69050403 	stmdbvs	r5, {r0, r1, sl}
  38:	0200746e 	andeq	r7, r0, #1845493760	; 0x6e000000
  3c:	50b60508 	adcspl	r0, r6, r8, lsl #10
  40:	08020000 	stmdaeq	r2, {}	; <UNPREDICTABLE>
  44:	00030c04 	andeq	r0, r3, r4, lsl #24
  48:	06010200 	streq	r0, [r1], -r0, lsl #4
  4c:	000006fe 	strdeq	r0, [r0], -lr
  50:	00128704 	andseq	r8, r2, r4, lsl #14
  54:	182b0200 	stmdane	fp!, {r9}
  58:	0000005c 	andeq	r0, r0, ip, asr r0
  5c:	a3080102 	movwge	r0, #33026	; 0x8102
  60:	02000031 	andeq	r0, r0, #49	; 0x31
  64:	0a080502 	beq	201474 <_Min_Stack_Size+0x201074>
  68:	4c040000 	stcmi	0, cr0, [r4], {-0}
  6c:	0200002b 	andeq	r0, r0, #43	; 0x2b
  70:	00761939 	rsbseq	r1, r6, r9, lsr r9
  74:	02020000 	andeq	r0, r2, #0
  78:	0068eb07 	rsbeq	lr, r8, r7, lsl #22
  7c:	05040200 	streq	r0, [r4, #-512]	; 0xfffffe00
  80:	00006c5a 	andeq	r6, r0, sl, asr ip
  84:	003eb504 	eorseq	fp, lr, r4, lsl #10
  88:	194f0200 	stmdbne	pc, {r9}^	; <UNPREDICTABLE>
  8c:	00000090 	muleq	r0, r0, r0
  90:	34070402 	strcc	r0, [r7], #-1026	; 0xfffffbfe
  94:	0200001b 	andeq	r0, r0, #27
  98:	3b1b0708 	blcc	6c1cc0 <_Min_Stack_Size+0x6c18c0>
  9c:	04050000 	streq	r0, [r5], #-0
  a0:	000000a4 	andeq	r0, r0, r4, lsr #1
  a4:	01020106 	tsteq	r2, r6, lsl #2
  a8:	00070508 	andeq	r0, r7, r8, lsl #10
  ac:	12890400 	addne	r0, r9, #0, 8
  b0:	18030000 	stmdane	r3, {}	; <UNPREDICTABLE>
  b4:	00005013 	andeq	r5, r0, r3, lsl r0
  b8:	2b4e0400 	blcs	13810c0 <_Min_Stack_Size+0x1380cc0>
  bc:	24030000 	strcs	r0, [r3], #-0
  c0:	00006a14 	andeq	r6, r0, r4, lsl sl
  c4:	3eb70400 	cdpcc	4, 11, cr0, cr7, cr0, {0}
  c8:	30030000 	andcc	r0, r3, r0
  cc:	00008414 	andeq	r8, r0, r4, lsl r4
  d0:	00c50700 	sbceq	r0, r5, r0, lsl #14
  d4:	1c080000 	stcne	0, cr0, [r8], {-0}
  d8:	49096404 	stmdbmi	r9, {r2, sl, sp, lr}
  dc:	09000001 	stmdbeq	r0, {r0}
  e0:	004c5243 	subeq	r5, ip, r3, asr #4
  e4:	d1146604 	tstle	r4, r4, lsl #12
  e8:	02000000 	andeq	r0, r0, #0
  ec:	43090023 	movwmi	r0, #36899	; 0x9023
  f0:	04004852 	streq	r4, [r0], #-2130	; 0xfffff7ae
  f4:	00d11467 	sbcseq	r1, r1, r7, ror #8
  f8:	23020000 	movwcs	r0, #8192	; 0x2000
  fc:	44490904 	strbmi	r0, [r9], #-2308	; 0xfffff6fc
 100:	68040052 	stmdavs	r4, {r1, r4, r6}
 104:	0000d114 	andeq	sp, r0, r4, lsl r1
 108:	08230200 	stmdaeq	r3!, {r9}
 10c:	52444f09 	subpl	r4, r4, #9, 30	; 0x24
 110:	14690400 	strbtne	r0, [r9], #-1024	; 0xfffffc00
 114:	000000d1 	ldrdeq	r0, [r0], -r1
 118:	0a0c2302 	beq	308d28 <_Min_Stack_Size+0x308928>
 11c:	00007fc9 	andeq	r7, r0, r9, asr #31
 120:	d1146a04 	tstle	r4, r4, lsl #20
 124:	02000000 	andeq	r0, r0, #0
 128:	42091023 	andmi	r1, r9, #35	; 0x23
 12c:	04005252 	streq	r5, [r0], #-594	; 0xfffffdae
 130:	00d1146b 	sbcseq	r1, r1, fp, ror #8
 134:	23020000 	movwcs	r0, #8192	; 0x2000
 138:	43f00a14 	mvnsmi	r0, #20, 20	; 0x14000
 13c:	6c040000 	stcvs	0, cr0, [r4], {-0}
 140:	0000d114 	andeq	sp, r0, r4, lsl r1
 144:	18230200 	stmdane	r3!, {r9}
 148:	556c0400 	strbpl	r0, [ip, #-1024]!	; 0xfffffc00
 14c:	6d040000 	stcvs	0, cr0, [r4, #-0]
 150:	0000d602 	andeq	sp, r0, r2, lsl #12
 154:	04300800 	ldrteq	r0, [r0], #-2048	; 0xfffff800
 158:	0212097b 	andseq	r0, r2, #2015232	; 0x1ec000
 15c:	43090000 	movwmi	r0, #36864	; 0x9000
 160:	7d040052 	stcvc	0, cr0, [r4, #-328]	; 0xfffffeb8
 164:	0000d114 	andeq	sp, r0, r4, lsl r1
 168:	00230200 	eoreq	r0, r3, r0, lsl #4
 16c:	0037b50a 	eorseq	fp, r7, sl, lsl #10
 170:	147e0400 	ldrbtne	r0, [lr], #-1024	; 0xfffffc00
 174:	000000d1 	ldrdeq	r0, [r0], -r1
 178:	09042302 	stmdbeq	r4, {r1, r8, r9, sp}
 17c:	00524943 	subseq	r4, r2, r3, asr #18
 180:	d1147f04 	tstle	r4, r4, lsl #30
 184:	02000000 	andeq	r0, r0, #0
 188:	550a0823 	strpl	r0, [sl, #-2083]	; 0xfffff7dd
 18c:	04000050 	streq	r0, [r0], #-80	; 0xffffffb0
 190:	00d11480 	sbcseq	r1, r1, r0, lsl #9
 194:	23020000 	movwcs	r0, #8192	; 0x2000
 198:	64750a0c 	ldrbtvs	r0, [r5], #-2572	; 0xfffff5f4
 19c:	81040000 	mrshi	r0, (UNDEF: 4)
 1a0:	0000d114 	andeq	sp, r0, r4, lsl r1
 1a4:	10230200 	eorne	r0, r3, r0, lsl #4
 1a8:	007df30a 	rsbseq	pc, sp, sl, lsl #6
 1ac:	14820400 	strne	r0, [r2], #1024	; 0x400
 1b0:	000000d1 	ldrdeq	r0, [r0], -r1
 1b4:	0a142302 	beq	508dc4 <_Min_Stack_Size+0x5089c4>
 1b8:	00001c2b 	andeq	r1, r0, fp, lsr #24
 1bc:	d1148304 	tstle	r4, r4, lsl #6
 1c0:	02000000 	andeq	r0, r0, #0
 1c4:	e80a1823 	stmda	sl, {r0, r1, r5, fp, ip}
 1c8:	04000064 	streq	r0, [r0], #-100	; 0xffffff9c
 1cc:	00d11484 	sbcseq	r1, r1, r4, lsl #9
 1d0:	23020000 	movwcs	r0, #8192	; 0x2000
 1d4:	32bd0a1c 	adcscc	r0, sp, #28, 20	; 0x1c000
 1d8:	85040000 	strhi	r0, [r4, #-0]
 1dc:	0000d114 	andeq	sp, r0, r4, lsl r1
 1e0:	20230200 	eorcs	r0, r3, r0, lsl #4
 1e4:	52534309 	subspl	r4, r3, #603979776	; 0x24000000
 1e8:	14860400 	strne	r0, [r6], #1024	; 0x400
 1ec:	000000d1 	ldrdeq	r0, [r0], -r1
 1f0:	0a242302 	beq	908e00 <_Min_Stack_Size+0x908a00>
 1f4:	00002845 	andeq	r2, r0, r5, asr #16
 1f8:	d1148704 	tstle	r4, r4, lsl #14
 1fc:	02000000 	andeq	r0, r0, #0
 200:	a30a2823 	movwge	r2, #43043	; 0xa823
 204:	04000056 	streq	r0, [r0], #-86	; 0xffffffaa
 208:	00d11488 	sbcseq	r1, r1, r8, lsl #9
 20c:	23020000 	movwcs	r0, #8192	; 0x2000
 210:	e904002c 	stmdb	r4, {r2, r3, r5}
 214:	04000085 	streq	r0, [r0], #-133	; 0xffffff7b
 218:	01550289 	cmpeq	r5, r9, lsl #5
 21c:	0c080000 	stceq	0, cr0, [r8], {-0}
 220:	64091405 	strvs	r1, [r9], #-1029	; 0xfffffbfb
 224:	0a000002 	beq	234 <_Min_Heap_Size+0x34>
 228:	00004f45 	andeq	r4, r0, r5, asr #30
 22c:	b91e1505 	ldmdblt	lr, {r0, r2, r8, sl, ip}
 230:	02000000 	andeq	r0, r0, #0
 234:	470a0023 	strmi	r0, [sl, -r3, lsr #32]
 238:	05000069 	streq	r0, [r0, #-105]	; 0xffffff97
 23c:	02641e16 	rsbeq	r1, r4, #352	; 0x160
 240:	23020000 	movwcs	r0, #8192	; 0x2000
 244:	69ff0a04 	ldmibvs	pc!, {r2, r9, fp}^	; <UNPREDICTABLE>
 248:	17050000 	strne	r0, [r5, -r0]
 24c:	0000b91e 	andeq	fp, r0, lr, lsl r9
 250:	08230200 	stmdaeq	r3!, {r9}
 254:	008d250a 	addeq	r2, sp, sl, lsl #10
 258:	1e180500 	cfmul32ne	mvfx0, mvfx8, mvfx0
 25c:	000000ad 	andeq	r0, r0, sp, lsr #1
 260:	000a2302 	andeq	r2, sl, r2, lsl #6
 264:	01490405 	cmpeq	r9, r5, lsl #8
 268:	94040000 	strls	r0, [r4], #-0
 26c:	05000019 	streq	r0, [r0, #-25]	; 0xffffffe7
 270:	021e0219 	andseq	r0, lr, #-1879048191	; 0x90000001
 274:	14080000 	strne	r0, [r8], #-0
 278:	bc091c05 	stclt	12, cr1, [r9], {5}
 27c:	0a000002 	beq	28c <_Min_Heap_Size+0x8c>
 280:	000050e6 	andeq	r5, r0, r6, ror #1
 284:	6a191d05 	bvs	6476a0 <_Min_Stack_Size+0x6472a0>
 288:	02000002 	andeq	r0, r0, #2
 28c:	600a0023 	andvs	r0, sl, r3, lsr #32
 290:	05000085 	streq	r0, [r0, #-133]	; 0xffffff7b
 294:	00ad0b20 	adceq	r0, sp, r0, lsr #22
 298:	23020000 	movwcs	r0, #8192	; 0x2000
 29c:	70c00a0c 	sbcvc	r0, r0, ip, lsl #20
 2a0:	23050000 	movwcs	r0, #20480	; 0x5000
 2a4:	0000ad0b 	andeq	sl, r0, fp, lsl #26
 2a8:	0d230200 	sfmeq	f0, 4, [r3, #-0]
 2ac:	0094d00a 	addseq	sp, r4, sl
 2b0:	08260500 	stmdaeq	r6!, {r8, sl}
 2b4:	0000009e 	muleq	r0, lr, r0
 2b8:	00102302 	andseq	r2, r0, r2, lsl #6
 2bc:	002d0404 	eoreq	r0, sp, r4, lsl #8
 2c0:	02270500 	eoreq	r0, r7, #0, 10
 2c4:	00000276 	andeq	r0, r0, r6, ror r2
 2c8:	00314b0b 	eorseq	r4, r1, fp, lsl #22
 2cc:	0e1f0100 	mufeqe	f0, f7, f0
 2d0:	0000002d 	andeq	r0, r0, sp, lsr #32
 2d4:	1c030501 	cfstr32ne	mvfx0, [r3], {1}
 2d8:	0b200000 	bleq	8002e0 <_Min_Stack_Size+0x7ffee0>
 2dc:	000078c3 	andeq	r7, r0, r3, asr #17
 2e0:	34052001 	strcc	r2, [r5], #-1
 2e4:	01000000 	mrseq	r0, (UNDEF: 0)
 2e8:	00200305 	eoreq	r0, r0, r5, lsl #6
 2ec:	010c2000 	mrseq	r2, (UNDEF: 12)
 2f0:	00005461 	andeq	r5, r0, r1, ror #8
 2f4:	0106db05 	tsteq	r6, r5, lsl #22
 2f8:	00030301 	andeq	r0, r3, r1, lsl #6
 2fc:	03030d00 	movweq	r0, #15616	; 0x3d00
 300:	05000000 	streq	r0, [r0, #-0]
 304:	0002bc04 	andeq	fp, r2, r4, lsl #24
 308:	1d010e00 	stcne	14, cr0, [r1, #-0]
 30c:	0100001a 	tsteq	r0, sl, lsl r0
 310:	0034052a 	eorseq	r0, r4, sl, lsr #10
 314:	01940000 	orrseq	r0, r4, r0
 318:	02080800 	andeq	r0, r8, #0, 16
 31c:	00000800 	andeq	r0, r0, r0, lsl #16
 320:	46010000 	strmi	r0, [r1], -r0
 324:	0f000003 	svceq	0x00000003
 328:	0000272d 	andeq	r2, r0, sp, lsr #14
 32c:	34062c01 	strcc	r2, [r6], #-3073	; 0xfffff3ff
 330:	02000000 	andeq	r0, r0, #0
 334:	e90f7491 	stmdb	pc, {r0, r4, r7, sl, ip, sp, lr}	; <UNPREDICTABLE>
 338:	01000076 	tsteq	r0, r6, ror r0
 33c:	02bc1332 	adcseq	r1, ip, #-939524096	; 0xc8000000
 340:	91020000 	mrsls	r0, (UNDEF: 2)
 344:	01100060 	tsteq	r0, r0, rrx
 348:	00005a9c 	muleq	r0, ip, sl
 34c:	01062101 	tsteq	r6, r1, lsl #2
 350:	08000170 	stmdaeq	r0, {r4, r5, r6, r8}
 354:	08000194 	stmdaeq	r0, {r2, r4, r7, r8}
 358:	00000038 	andeq	r0, r0, r8, lsr r0
 35c:	001e0001 	andseq	r0, lr, r1
 360:	00020000 	andeq	r0, r2, r0
 364:	000000fc 	strdeq	r0, [r0], -ip
 368:	071b0104 	ldreq	r0, [fp, -r4, lsl #2]
 36c:	00180000 	andseq	r0, r8, r0
 370:	936b0000 	cmnls	fp, #0
 374:	34970000 	ldrcc	r0, [r7], #0
 378:	938e0000 	orrls	r0, lr, #0
 37c:	80010000 	andhi	r0, r1, r0
 380:	00000526 	andeq	r0, r0, r6, lsr #10
 384:	010e0002 	tsteq	lr, r2
 388:	01040000 	mrseq	r0, (UNDEF: 4)
 38c:	00002a56 	andeq	r2, r0, r6, asr sl
 390:	0094410c 	addseq	r4, r4, ip, lsl #2
 394:	00349700 	eorseq	r9, r4, r0, lsl #14
 398:	00003800 	andeq	r3, r0, r0, lsl #16
	...
 3a4:	00079f00 	andeq	r9, r7, r0, lsl #30
 3a8:	001f0900 	andseq	r0, pc, r0, lsl #18
 3ac:	07040200 	streq	r0, [r4, -r0, lsl #4]
 3b0:	000021e8 	andeq	r2, r0, r8, ror #3
 3b4:	69050403 	stmdbvs	r5, {r0, r1, sl}
 3b8:	0200746e 	andeq	r7, r0, #1845493760	; 0x6e000000
 3bc:	50b60508 	adcspl	r0, r6, r8, lsl #10
 3c0:	08020000 	stmdaeq	r2, {}	; <UNPREDICTABLE>
 3c4:	00030c04 	andeq	r0, r3, r4, lsl #24
 3c8:	06010200 	streq	r0, [r1], -r0, lsl #4
 3cc:	000006fe 	strdeq	r0, [r0], -lr
 3d0:	00128704 	andseq	r8, r2, r4, lsl #14
 3d4:	182b0200 	stmdane	fp!, {r9}
 3d8:	0000005c 	andeq	r0, r0, ip, asr r0
 3dc:	a3080102 	movwge	r0, #33026	; 0x8102
 3e0:	02000031 	andeq	r0, r0, #49	; 0x31
 3e4:	0a080502 	beq	2017f4 <_Min_Stack_Size+0x2013f4>
 3e8:	4c040000 	stcmi	0, cr0, [r4], {-0}
 3ec:	0200002b 	andeq	r0, r0, #43	; 0x2b
 3f0:	00761939 	rsbseq	r1, r6, r9, lsr r9
 3f4:	02020000 	andeq	r0, r2, #0
 3f8:	0068eb07 	rsbeq	lr, r8, r7, lsl #22
 3fc:	05040200 	streq	r0, [r4, #-512]	; 0xfffffe00
 400:	00006c5a 	andeq	r6, r0, sl, asr ip
 404:	003eb504 	eorseq	fp, lr, r4, lsl #10
 408:	194f0200 	stmdbne	pc, {r9}^	; <UNPREDICTABLE>
 40c:	00000090 	muleq	r0, r0, r0
 410:	34070402 	strcc	r0, [r7], #-1026	; 0xfffffbfe
 414:	0200001b 	andeq	r0, r0, #27
 418:	3b1b0708 	blcc	6c2040 <_Min_Stack_Size+0x6c1c40>
 41c:	04050000 	streq	r0, [r5], #-0
 420:	000000a4 	andeq	r0, r0, r4, lsr #1
 424:	01020106 	tsteq	r2, r6, lsl #2
 428:	00070508 	andeq	r0, r7, r8, lsl #10
 42c:	12890400 	addne	r0, r9, #0, 8
 430:	18030000 	stmdane	r3, {}	; <UNPREDICTABLE>
 434:	00005013 	andeq	r5, r0, r3, lsl r0
 438:	2b4e0400 	blcs	1381440 <_Min_Stack_Size+0x1381040>
 43c:	24030000 	strcs	r0, [r3], #-0
 440:	00006a14 	andeq	r6, r0, r4, lsl sl
 444:	3eb70400 	cdpcc	4, 11, cr0, cr7, cr0, {0}
 448:	30030000 	andcc	r0, r3, r0
 44c:	00008414 	andeq	r8, r0, r4, lsl r4
 450:	00c50700 	sbceq	r0, r5, r0, lsl #14
 454:	1c080000 	stcne	0, cr0, [r8], {-0}
 458:	49096404 	stmdbmi	r9, {r2, sl, sp, lr}
 45c:	09000001 	stmdbeq	r0, {r0}
 460:	004c5243 	subeq	r5, ip, r3, asr #4
 464:	d1146604 	tstle	r4, r4, lsl #12
 468:	02000000 	andeq	r0, r0, #0
 46c:	43090023 	movwmi	r0, #36899	; 0x9023
 470:	04004852 	streq	r4, [r0], #-2130	; 0xfffff7ae
 474:	00d11467 	sbcseq	r1, r1, r7, ror #8
 478:	23020000 	movwcs	r0, #8192	; 0x2000
 47c:	44490904 	strbmi	r0, [r9], #-2308	; 0xfffff6fc
 480:	68040052 	stmdavs	r4, {r1, r4, r6}
 484:	0000d114 	andeq	sp, r0, r4, lsl r1
 488:	08230200 	stmdaeq	r3!, {r9}
 48c:	52444f09 	subpl	r4, r4, #9, 30	; 0x24
 490:	14690400 	strbtne	r0, [r9], #-1024	; 0xfffffc00
 494:	000000d1 	ldrdeq	r0, [r0], -r1
 498:	0a0c2302 	beq	3090a8 <_Min_Stack_Size+0x308ca8>
 49c:	00007fc9 	andeq	r7, r0, r9, asr #31
 4a0:	d1146a04 	tstle	r4, r4, lsl #20
 4a4:	02000000 	andeq	r0, r0, #0
 4a8:	42091023 	andmi	r1, r9, #35	; 0x23
 4ac:	04005252 	streq	r5, [r0], #-594	; 0xfffffdae
 4b0:	00d1146b 	sbcseq	r1, r1, fp, ror #8
 4b4:	23020000 	movwcs	r0, #8192	; 0x2000
 4b8:	43f00a14 	mvnsmi	r0, #20, 20	; 0x14000
 4bc:	6c040000 	stcvs	0, cr0, [r4], {-0}
 4c0:	0000d114 	andeq	sp, r0, r4, lsl r1
 4c4:	18230200 	stmdane	r3!, {r9}
 4c8:	556c0400 	strbpl	r0, [ip, #-1024]!	; 0xfffffc00
 4cc:	6d040000 	stcvs	0, cr0, [r4, #-0]
 4d0:	0000d602 	andeq	sp, r0, r2, lsl #12
 4d4:	04200800 	strteq	r0, [r0], #-2048	; 0xfffff800
 4d8:	01aa0970 			; <UNDEFINED> instruction: 0x01aa0970
 4dc:	940a0000 	strls	r0, [sl], #-0
 4e0:	04000095 	streq	r0, [r0], #-149	; 0xffffff6b
 4e4:	00d11472 	sbcseq	r1, r1, r2, ror r4
 4e8:	23020000 	movwcs	r0, #8192	; 0x2000
 4ec:	94fe0a00 	ldrbtls	r0, [lr], #2560	; 0xa00
 4f0:	73040000 	movwvc	r0, #16384	; 0x4000
 4f4:	0000d114 	andeq	sp, r0, r4, lsl r1
 4f8:	04230200 	strteq	r0, [r3], #-512	; 0xfffffe00
 4fc:	0093ab0a 	addseq	sl, r3, sl, lsl #22
 500:	14740400 	ldrbtne	r0, [r4], #-1024	; 0xfffffc00
 504:	000001ba 			; <UNDEFINED> instruction: 0x000001ba
 508:	0a082302 	beq	209118 <_Min_Stack_Size+0x208d18>
 50c:	000095ae 	andeq	r9, r0, lr, lsr #11
 510:	c50d7504 	strgt	r7, [sp, #-1284]	; 0xfffffafc
 514:	02000000 	andeq	r0, r0, #0
 518:	130a1823 	movwne	r1, #43043	; 0xa823
 51c:	04000094 	streq	r0, [r0], #-148	; 0xffffff6c
 520:	00d11476 	sbcseq	r1, r1, r6, ror r4
 524:	23020000 	movwcs	r0, #8192	; 0x2000
 528:	d10b001c 	tstle	fp, ip, lsl r0
 52c:	ba000000 	blt	534 <_Min_Stack_Size+0x134>
 530:	0c000001 	stceq	0, cr0, [r0], {1}
 534:	0000002d 	andeq	r0, r0, sp, lsr #32
 538:	aa070003 	bge	1c054c <_Min_Stack_Size+0x1c014c>
 53c:	04000001 	streq	r0, [r0], #-1
 540:	00009533 	andeq	r9, r0, r3, lsr r5
 544:	55027704 	strpl	r7, [r2, #-1796]	; 0xfffff8fc
 548:	08000001 	stmdaeq	r0, {r0}
 54c:	098c0418 	stmibeq	ip, {r3, r4, sl}
 550:	0000022e 	andeq	r0, r0, lr, lsr #4
 554:	524d4909 	subpl	r4, sp, #147456	; 0x24000
 558:	148e0400 	strne	r0, [lr], #1024	; 0x400
 55c:	000000d1 	ldrdeq	r0, [r0], -r1
 560:	09002302 	stmdbeq	r0, {r1, r8, r9, sp}
 564:	00524d45 	subseq	r4, r2, r5, asr #26
 568:	d1148f04 	tstle	r4, r4, lsl #30
 56c:	02000000 	andeq	r0, r0, #0
 570:	cd0a0423 	cfstrsgt	mvf0, [sl, #-140]	; 0xffffff74
 574:	04000093 	streq	r0, [r0], #-147	; 0xffffff6d
 578:	00d11490 	smullseq	r1, r1, r0, r4	; <UNPREDICTABLE>
 57c:	23020000 	movwcs	r0, #8192	; 0x2000
 580:	93b20a08 			; <UNDEFINED> instruction: 0x93b20a08
 584:	91040000 	mrsls	r0, (UNDEF: 4)
 588:	0000d114 	andeq	sp, r0, r4, lsl r1
 58c:	0c230200 	sfmeq	f0, 4, [r3], #-0
 590:	0094f80a 	addseq	pc, r4, sl, lsl #16
 594:	14920400 	ldrne	r0, [r2], #1024	; 0x400
 598:	000000d1 	ldrdeq	r0, [r0], -r1
 59c:	09102302 	ldmdbeq	r0, {r1, r8, r9, sp}
 5a0:	04005250 	streq	r5, [r0], #-592	; 0xfffffdb0
 5a4:	00d11493 	smullseq	r1, r1, r3, r4	; <UNPREDICTABLE>
 5a8:	23020000 	movwcs	r0, #8192	; 0x2000
 5ac:	df040014 	svcle	0x00040014
 5b0:	04000094 	streq	r0, [r0], #-148	; 0xffffff6c
 5b4:	01cb0294 			; <UNDEFINED> instruction: 0x01cb0294
 5b8:	04080000 	streq	r0, [r8], #-0
 5bc:	71091505 	tstvc	r9, r5, lsl #10
 5c0:	0a000002 	beq	5d0 <_Min_Stack_Size+0x1d0>
 5c4:	00009551 	andeq	r9, r0, r1, asr r5
 5c8:	b90c1605 	stmdblt	ip, {r0, r2, r9, sl, ip}
 5cc:	02000000 	andeq	r0, r0, #0
 5d0:	d20a0023 	andle	r0, sl, #35	; 0x23
 5d4:	05000093 	streq	r0, [r0, #-147]	; 0xffffff6d
 5d8:	00ad0c18 	adceq	r0, sp, r8, lsl ip
 5dc:	23020000 	movwcs	r0, #8192	; 0x2000
 5e0:	942f0a02 	strtls	r0, [pc], #-2562	; 5e8 <_Min_Stack_Size+0x1e8>
 5e4:	19050000 	stmdbne	r5, {}	; <UNPREDICTABLE>
 5e8:	0000ad0c 	andeq	sl, r0, ip, lsl #26
 5ec:	03230200 			; <UNDEFINED> instruction: 0x03230200
 5f0:	94020400 	strls	r0, [r2], #-1024	; 0xfffffc00
 5f4:	1b050000 	blne	1405fc <_Min_Stack_Size+0x1401fc>
 5f8:	00023a02 	andeq	r3, r2, r2, lsl #20
 5fc:	060c0800 	streq	r0, [ip], -r0, lsl #16
 600:	02c30914 	sbceq	r0, r3, #20, 18	; 0x50000
 604:	450a0000 	strmi	r0, [sl, #-0]
 608:	0600004f 	streq	r0, [r0], -pc, asr #32
 60c:	00b91e15 	adcseq	r1, r9, r5, lsl lr
 610:	23020000 	movwcs	r0, #8192	; 0x2000
 614:	69470a00 	stmdbvs	r7, {r9, fp}^
 618:	16060000 	strne	r0, [r6], -r0
 61c:	0002c31e 	andeq	ip, r2, lr, lsl r3
 620:	04230200 	strteq	r0, [r3], #-512	; 0xfffffe00
 624:	0069ff0a 	rsbeq	pc, r9, sl, lsl #30
 628:	1e170600 	cfmsub32ne	mvax0, mvfx0, mvfx7, mvfx0
 62c:	000000b9 	strheq	r0, [r0], -r9
 630:	0a082302 	beq	209240 <_Min_Stack_Size+0x208e40>
 634:	00008d25 	andeq	r8, r0, r5, lsr #26
 638:	ad1e1806 	ldcge	8, cr1, [lr, #-24]	; 0xffffffe8
 63c:	02000000 	andeq	r0, r0, #0
 640:	05000a23 	streq	r0, [r0, #-2595]	; 0xfffff5dd
 644:	00014904 	andeq	r4, r1, r4, lsl #18
 648:	19940400 	ldmibne	r4, {sl}
 64c:	19060000 	stmdbne	r6, {}	; <UNPREDICTABLE>
 650:	00027d02 	andeq	r7, r2, r2, lsl #26
 654:	06140800 	ldreq	r0, [r4], -r0, lsl #16
 658:	031b091c 	tsteq	fp, #28, 18	; 0x70000
 65c:	e60a0000 	str	r0, [sl], -r0
 660:	06000050 			; <UNDEFINED> instruction: 0x06000050
 664:	02c9191d 	sbceq	r1, r9, #475136	; 0x74000
 668:	23020000 	movwcs	r0, #8192	; 0x2000
 66c:	85600a00 	strbhi	r0, [r0, #-2560]!	; 0xfffff600
 670:	20060000 	andcs	r0, r6, r0
 674:	0000ad0b 	andeq	sl, r0, fp, lsl #26
 678:	0c230200 	sfmeq	f0, 4, [r3], #-0
 67c:	0070c00a 	rsbseq	ip, r0, sl
 680:	0b230600 	bleq	8c1e88 <_Min_Stack_Size+0x8c1a88>
 684:	000000ad 	andeq	r0, r0, sp, lsr #1
 688:	0a0d2302 	beq	349298 <_Min_Stack_Size+0x348e98>
 68c:	000094d0 	ldrdeq	r9, [r0], -r0
 690:	9e082606 	cfmadd32ls	mvax0, mvfx2, mvfx8, mvfx6
 694:	02000000 	andeq	r0, r0, #0
 698:	04001023 	streq	r1, [r0], #-35	; 0xffffffdd
 69c:	00002d04 	andeq	r2, r0, r4, lsl #26
 6a0:	d5022706 	strle	r2, [r2, #-1798]	; 0xfffff8fa
 6a4:	0b000002 	bleq	6b4 <_Min_Stack_Size+0x2b4>
 6a8:	0000009e 	muleq	r0, lr, r0
 6ac:	00000337 	andeq	r0, r0, r7, lsr r3
 6b0:	00002d0c 	andeq	r2, r0, ip, lsl #26
 6b4:	0d000e00 	stceq	14, cr0, [r0, #-0]
 6b8:	000094cf 	andeq	r9, r0, pc, asr #9
 6bc:	27090d01 	strcs	r0, [r9, -r1, lsl #26]
 6c0:	01000003 	tsteq	r0, r3
 6c4:	00240305 	eoreq	r0, r4, r5, lsl #6
 6c8:	010e2000 	mrseq	r2, (UNDEF: 14)
 6cc:	0000939c 	muleq	r0, ip, r3
 6d0:	01066205 	tsteq	r6, r5, lsl #4
 6d4:	00036401 	andeq	r6, r3, r1, lsl #8
 6d8:	02c30f00 	sbceq	r0, r3, #0, 30
 6dc:	640f0000 	strvs	r0, [pc], #-0	; 6e4 <_Min_Stack_Size+0x2e4>
 6e0:	00000003 	andeq	r0, r0, r3
 6e4:	02710405 	rsbseq	r0, r1, #83886080	; 0x5000000
 6e8:	01100000 	tsteq	r0, r0
 6ec:	00009599 	muleq	r0, r9, r5
 6f0:	06010201 	streq	r0, [r1], -r1, lsl #4
 6f4:	00073001 	andeq	r3, r7, r1
 6f8:	0007f408 	andeq	pc, r7, r8, lsl #8
 6fc:	00007c08 	andeq	r7, r0, r8, lsl #24
 700:	01110100 	tsteq	r1, r0, lsl #2
 704:	00009520 	andeq	r9, r0, r0, lsr #10
 708:	0106fa01 	tsteq	r6, r1, lsl #20	; <UNPREDICTABLE>
 70c:	08000688 	stmdaeq	r0, {r3, r7, r9, sl}
 710:	08000730 	stmdaeq	r0, {r4, r5, r8, r9, sl}
 714:	000000a8 	andeq	r0, r0, r8, lsr #1
 718:	dc011101 	stfles	f1, [r1], {1}
 71c:	01000093 	swpeq	r0, r3, [r0]	; <UNPREDICTABLE>
 720:	640106f4 	strvs	r0, [r1], #-1780	; 0xfffff90c
 724:	88080006 	stmdahi	r8, {r1, r2}
 728:	d4080006 	strle	r0, [r8], #-6
 72c:	01000000 	mrseq	r0, (UNDEF: 0)
 730:	95600111 	strbls	r0, [r0, #-273]!	; 0xfffffeef
 734:	ef010000 	svc	0x00010000
 738:	06400106 	strbeq	r0, [r0], -r6, lsl #2
 73c:	06640800 	strbteq	r0, [r4], -r0, lsl #16
 740:	01000800 	tsteq	r0, r0, lsl #16
 744:	11010000 	mrsne	r0, (UNDEF: 1)
 748:	00950301 	addseq	r0, r5, r1, lsl #6
 74c:	06ea0100 	strbteq	r0, [sl], r0, lsl #2
 750:	00061c01 	andeq	r1, r6, r1, lsl #24
 754:	00064008 	andeq	r4, r6, r8
 758:	00012c08 	andeq	r2, r1, r8, lsl #24
 75c:	01110100 	tsteq	r1, r0, lsl #2
 760:	000095c4 	andeq	r9, r0, r4, asr #11
 764:	0106e501 	tsteq	r6, r1, lsl #10
 768:	080005f8 	stmdaeq	r0, {r3, r4, r5, r6, r7, r8, sl}
 76c:	0800061c 	stmdaeq	r0, {r2, r3, r4, r9, sl}
 770:	00000158 	andeq	r0, r0, r8, asr r1
 774:	83011101 	movwhi	r1, #4353	; 0x1101
 778:	01000095 	swpeq	r0, r5, [r0]	; <UNPREDICTABLE>
 77c:	d40106e0 	strle	r0, [r1], #-1760	; 0xfffff920
 780:	f8080005 			; <UNDEFINED> instruction: 0xf8080005
 784:	84080005 	strhi	r0, [r8], #-5
 788:	01000001 	tsteq	r0, r1
 78c:	54610112 	strbtpl	r0, [r1], #-274	; 0xfffffeee
 790:	d8010000 	stmdale	r1, {}	; <UNPREDICTABLE>
 794:	05bc0106 	ldreq	r0, [ip, #262]!	; 0x106
 798:	05d20800 	ldrbeq	r0, [r2, #2048]	; 0x800
 79c:	01b00800 	lslseq	r0, r0, #16
 7a0:	37010000 	strcc	r0, [r1, -r0]
 7a4:	13000004 	movwne	r0, #4
 7a8:	00009542 	andeq	r9, r0, r2, asr #10
 7ac:	372dd801 	strcc	sp, [sp, -r1, lsl #16]!
 7b0:	02000004 	andeq	r0, r0, #4
 7b4:	05007491 	streq	r7, [r0, #-1169]	; 0xfffffb6f
 7b8:	00031b04 	andeq	r1, r3, r4, lsl #22
 7bc:	b7011200 	strlt	r1, [r1, -r0, lsl #4]
 7c0:	01000093 	swpeq	r0, r3, [r0]	; <UNPREDICTABLE>
 7c4:	000106c9 	andeq	r0, r1, r9, asr #13
	...
 7d0:	01000002 	tsteq	r0, r2
 7d4:	00000468 	andeq	r0, r0, r8, ror #8
 7d8:	00954213 	addseq	r4, r5, r3, lsl r2
 7dc:	2fc90100 	svccs	0x00c90100
 7e0:	00000437 	andeq	r0, r0, r7, lsr r4
 7e4:	00749102 	rsbseq	r9, r4, r2, lsl #2
 7e8:	94190114 	ldrls	r0, [r9], #-276	; 0xfffffeec
 7ec:	a7010000 	strge	r0, [r1, -r0]
 7f0:	00000106 	andeq	r0, r0, r6, lsl #2
 7f4:	00000000 	andeq	r0, r0, r0
 7f8:	02500000 	subseq	r0, r0, #0
 7fc:	12010000 	andne	r0, r1, #0
 800:	00951401 	addseq	r1, r5, r1, lsl #8
 804:	06650100 	strbteq	r0, [r5], -r0, lsl #2
 808:	0003ec01 	andeq	lr, r3, r1, lsl #24
 80c:	0005bc08 	andeq	fp, r5, r8, lsl #24
 810:	00029408 	andeq	r9, r2, r8, lsl #8
 814:	04d70100 	ldrbeq	r0, [r7], #256	; 0x100
 818:	42130000 	andsmi	r0, r3, #0
 81c:	01000095 	swpeq	r0, r5, [r0]	; <UNPREDICTABLE>
 820:	04372565 	ldrteq	r2, [r7], #-1381	; 0xfffffa9b
 824:	91020000 	mrsls	r0, (UNDEF: 2)
 828:	94ee156c 	strbtls	r1, [lr], #1388	; 0x56c
 82c:	67010000 	strvs	r0, [r1, -r0]
 830:	00027113 	andeq	r7, r2, r3, lsl r1
 834:	70910200 	addsvc	r0, r1, r0, lsl #4
 838:	00957115 	addseq	r7, r5, r5, lsl r1
 83c:	0a710100 	beq	1c40c44 <_Min_Stack_Size+0x1c40844>
 840:	000000ad 	andeq	r0, r0, sp, lsr #1
 844:	15779102 	ldrbne	r9, [r7, #-258]!	; 0xfffffefe
 848:	000093ed 	andeq	r9, r0, sp, ror #7
 84c:	ad0a7301 	stcge	3, cr7, [sl, #-4]
 850:	02000000 	andeq	r0, r0, #0
 854:	16007691 			; <UNDEFINED> instruction: 0x16007691
 858:	0095b701 	addseq	fp, r5, r1, lsl #14
 85c:	06350100 	ldrteq	r0, [r5], -r0, lsl #2
 860:	00032401 	andeq	r2, r3, r1, lsl #8
 864:	0003ec08 	andeq	lr, r3, r8, lsl #24
 868:	0002e408 	andeq	lr, r2, r8, lsl #8
 86c:	05020100 	streq	r0, [r2, #-256]	; 0xffffff00
 870:	75130000 	ldrvc	r0, [r3, #-0]
 874:	01000094 	swpeq	r0, r4, [r0]	; <UNPREDICTABLE>
 878:	00b91c35 	adcseq	r1, r9, r5, lsr ip
 87c:	91020000 	mrsls	r0, (UNDEF: 2)
 880:	01170076 	tsteq	r7, r6, ror r0
 884:	000095d5 	ldrdeq	r9, [r0], -r5
 888:	01061101 	tsteq	r6, r1, lsl #2
 88c:	0800025c 	stmdaeq	r0, {r2, r3, r4, r6, r9}
 890:	08000324 	stmdaeq	r0, {r2, r5, r8, r9}
 894:	00000340 	andeq	r0, r0, r0, asr #6
 898:	94751301 	ldrbtls	r1, [r5], #-769	; 0xfffffcff
 89c:	11010000 	mrsne	r0, (UNDEF: 1)
 8a0:	0000b91b 	andeq	fp, r0, fp, lsl r9
 8a4:	76910200 	ldrvc	r0, [r1], r0, lsl #4
 8a8:	04610000 	strbteq	r0, [r1], #-0
 8ac:	00020000 	andeq	r0, r2, r0
 8b0:	00000297 	muleq	r0, r7, r2
 8b4:	2a560104 	bcs	1580ccc <_Min_Stack_Size+0x15808cc>
 8b8:	e10c0000 	mrs	r0, (UNDEF: 12)
 8bc:	97000095 			; <UNDEFINED> instruction: 0x97000095
 8c0:	a8000034 	stmdage	r0, {r2, r4, r5}
	...
 8cc:	b7000000 	strlt	r0, [r0, -r0]
 8d0:	36000012 			; <UNDEFINED> instruction: 0x36000012
 8d4:	02000021 	andeq	r0, r0, #33	; 0x21
 8d8:	21e80704 	mvncs	r0, r4, lsl #14
 8dc:	04030000 	streq	r0, [r3], #-0
 8e0:	746e6905 	strbtvc	r6, [lr], #-2309	; 0xfffff6fb
 8e4:	05080200 	streq	r0, [r8, #-512]	; 0xfffffe00
 8e8:	000050b6 	strheq	r5, [r0], -r6
 8ec:	0c040802 	stceq	8, cr0, [r4], {2}
 8f0:	02000003 	andeq	r0, r0, #3
 8f4:	06fe0601 	ldrbteq	r0, [lr], r1, lsl #12
 8f8:	87040000 	strhi	r0, [r4, -r0]
 8fc:	02000012 	andeq	r0, r0, #18
 900:	005c182b 	subseq	r1, ip, fp, lsr #16
 904:	01020000 	mrseq	r0, (UNDEF: 2)
 908:	0031a308 	eorseq	sl, r1, r8, lsl #6
 90c:	05020200 	streq	r0, [r2, #-512]	; 0xfffffe00
 910:	00000a08 	andeq	r0, r0, r8, lsl #20
 914:	002b4c04 	eoreq	r4, fp, r4, lsl #24
 918:	19390200 	ldmdbne	r9!, {r9}
 91c:	00000076 	andeq	r0, r0, r6, ror r0
 920:	eb070202 	bl	1c1130 <_Min_Stack_Size+0x1c0d30>
 924:	02000068 	andeq	r0, r0, #104	; 0x68
 928:	6c5a0504 	cfldr64vs	mvdx0, [sl], {4}
 92c:	b5040000 	strlt	r0, [r4, #-0]
 930:	0200003e 	andeq	r0, r0, #62	; 0x3e
 934:	0090194f 	addseq	r1, r0, pc, asr #18
 938:	04020000 	streq	r0, [r2], #-0
 93c:	001b3407 	andseq	r3, fp, r7, lsl #8
 940:	07080200 	streq	r0, [r8, -r0, lsl #4]
 944:	00003b1b 	andeq	r3, r0, fp, lsl fp
 948:	05080102 	streq	r0, [r8, #-258]	; 0xfffffefe
 94c:	04000007 	streq	r0, [r0], #-7
 950:	00001289 	andeq	r1, r0, r9, lsl #5
 954:	50131803 	andspl	r1, r3, r3, lsl #16
 958:	04000000 	streq	r0, [r0], #-0
 95c:	00002b4e 	andeq	r2, r0, lr, asr #22
 960:	6a142403 	bvs	509974 <_Min_Stack_Size+0x509574>
 964:	04000000 	streq	r0, [r0], #-0
 968:	00003eb7 			; <UNDEFINED> instruction: 0x00003eb7
 96c:	84143003 	ldrhi	r3, [r4], #-3
 970:	05000000 	streq	r0, [r0, #-0]
 974:	000000bd 	strheq	r0, [r0], -sp
 978:	64041c06 	strvs	r1, [r4], #-3078	; 0xfffff3fa
 97c:	00014109 	andeq	r4, r1, r9, lsl #2
 980:	52430700 	subpl	r0, r3, #0, 14
 984:	6604004c 	strvs	r0, [r4], -ip, asr #32
 988:	0000c914 	andeq	ip, r0, r4, lsl r9
 98c:	00230200 	eoreq	r0, r3, r0, lsl #4
 990:	48524307 	ldmdami	r2, {r0, r1, r2, r8, r9, lr}^
 994:	14670400 	strbtne	r0, [r7], #-1024	; 0xfffffc00
 998:	000000c9 	andeq	r0, r0, r9, asr #1
 99c:	07042302 	streq	r2, [r4, -r2, lsl #6]
 9a0:	00524449 	subseq	r4, r2, r9, asr #8
 9a4:	c9146804 	ldmdbgt	r4, {r2, fp, sp, lr}
 9a8:	02000000 	andeq	r0, r0, #0
 9ac:	4f070823 	svcmi	0x00070823
 9b0:	04005244 	streq	r5, [r0], #-580	; 0xfffffdbc
 9b4:	00c91469 	sbceq	r1, r9, r9, ror #8
 9b8:	23020000 	movwcs	r0, #8192	; 0x2000
 9bc:	7fc9080c 	svcvc	0x00c9080c
 9c0:	6a040000 	bvs	1009c8 <_Min_Stack_Size+0x1005c8>
 9c4:	0000c914 	andeq	ip, r0, r4, lsl r9
 9c8:	10230200 	eorne	r0, r3, r0, lsl #4
 9cc:	52524207 	subspl	r4, r2, #1879048192	; 0x70000000
 9d0:	146b0400 	strbtne	r0, [fp], #-1024	; 0xfffffc00
 9d4:	000000c9 	andeq	r0, r0, r9, asr #1
 9d8:	08142302 	ldmdaeq	r4, {r1, r8, r9, sp}
 9dc:	000043f0 	strdeq	r4, [r0], -r0
 9e0:	c9146c04 	ldmdbgt	r4, {r2, sl, fp, sp, lr}
 9e4:	02000000 	andeq	r0, r0, #0
 9e8:	04001823 	streq	r1, [r0], #-2083	; 0xfffff7dd
 9ec:	0000556c 	andeq	r5, r0, ip, ror #10
 9f0:	ce026d04 	cdpgt	13, 0, cr6, cr2, cr4, {0}
 9f4:	06000000 	streq	r0, [r0], -r0
 9f8:	097b0430 	ldmdbeq	fp!, {r4, r5, sl}^
 9fc:	0000020a 	andeq	r0, r0, sl, lsl #4
 a00:	00524307 	subseq	r4, r2, r7, lsl #6
 a04:	c9147d04 	ldmdbgt	r4, {r2, r8, sl, fp, ip, sp, lr}
 a08:	02000000 	andeq	r0, r0, #0
 a0c:	b5080023 	strlt	r0, [r8, #-35]	; 0xffffffdd
 a10:	04000037 	streq	r0, [r0], #-55	; 0xffffffc9
 a14:	00c9147e 	sbceq	r1, r9, lr, ror r4
 a18:	23020000 	movwcs	r0, #8192	; 0x2000
 a1c:	49430704 	stmdbmi	r3, {r2, r8, r9, sl}^
 a20:	7f040052 	svcvc	0x00040052
 a24:	0000c914 	andeq	ip, r0, r4, lsl r9
 a28:	08230200 	stmdaeq	r3!, {r9}
 a2c:	00505508 	subseq	r5, r0, r8, lsl #10
 a30:	14800400 	strne	r0, [r0], #1024	; 0x400
 a34:	000000c9 	andeq	r0, r0, r9, asr #1
 a38:	080c2302 	stmdaeq	ip, {r1, r8, r9, sp}
 a3c:	00006475 	andeq	r6, r0, r5, ror r4
 a40:	c9148104 	ldmdbgt	r4, {r2, r8, pc}
 a44:	02000000 	andeq	r0, r0, #0
 a48:	f3081023 	vhadd.u8	d1, d8, d19
 a4c:	0400007d 	streq	r0, [r0], #-125	; 0xffffff83
 a50:	00c91482 	sbceq	r1, r9, r2, lsl #9
 a54:	23020000 	movwcs	r0, #8192	; 0x2000
 a58:	1c2b0814 	stcne	8, cr0, [fp], #-80	; 0xffffffb0
 a5c:	83040000 	movwhi	r0, #16384	; 0x4000
 a60:	0000c914 	andeq	ip, r0, r4, lsl r9
 a64:	18230200 	stmdane	r3!, {r9}
 a68:	0064e808 	rsbeq	lr, r4, r8, lsl #16
 a6c:	14840400 	strne	r0, [r4], #1024	; 0x400
 a70:	000000c9 	andeq	r0, r0, r9, asr #1
 a74:	081c2302 	ldmdaeq	ip, {r1, r8, r9, sp}
 a78:	000032bd 			; <UNDEFINED> instruction: 0x000032bd
 a7c:	c9148504 	ldmdbgt	r4, {r2, r8, sl, pc}
 a80:	02000000 	andeq	r0, r0, #0
 a84:	43072023 	movwmi	r2, #28707	; 0x7023
 a88:	04005253 	streq	r5, [r0], #-595	; 0xfffffdad
 a8c:	00c91486 	sbceq	r1, r9, r6, lsl #9
 a90:	23020000 	movwcs	r0, #8192	; 0x2000
 a94:	28450824 	stmdacs	r5, {r2, r5, fp}^
 a98:	87040000 	strhi	r0, [r4, -r0]
 a9c:	0000c914 	andeq	ip, r0, r4, lsl r9
 aa0:	28230200 	stmdacs	r3!, {r9}
 aa4:	0056a308 	subseq	sl, r6, r8, lsl #6
 aa8:	14880400 	strne	r0, [r8], #1024	; 0x400
 aac:	000000c9 	andeq	r0, r0, r9, asr #1
 ab0:	002c2302 	eoreq	r2, ip, r2, lsl #6
 ab4:	0085e904 	addeq	lr, r5, r4, lsl #18
 ab8:	02890400 	addeq	r0, r9, #0, 8
 abc:	0000014d 	andeq	r0, r0, sp, asr #2
 ac0:	15050406 	strne	r0, [r5, #-1030]	; 0xfffffbfa
 ac4:	00024d09 	andeq	r4, r2, r9, lsl #26
 ac8:	95510800 	ldrbls	r0, [r1, #-2048]	; 0xfffff800
 acc:	16050000 	strne	r0, [r5], -r0
 ad0:	0000b10c 	andeq	fp, r0, ip, lsl #2
 ad4:	00230200 	eoreq	r0, r3, r0, lsl #4
 ad8:	0093d208 	addseq	sp, r3, r8, lsl #4
 adc:	0c180500 	cfldr32eq	mvfx0, [r8], {-0}
 ae0:	000000a5 	andeq	r0, r0, r5, lsr #1
 ae4:	08022302 	stmdaeq	r2, {r1, r8, r9, sp}
 ae8:	0000942f 	andeq	r9, r0, pc, lsr #8
 aec:	a50c1905 	strge	r1, [ip, #-2309]	; 0xfffff6fb
 af0:	02000000 	andeq	r0, r0, #0
 af4:	04000323 	streq	r0, [r0], #-803	; 0xfffffcdd
 af8:	00009402 	andeq	r9, r0, r2, lsl #8
 afc:	16021b05 	strne	r1, [r2], -r5, lsl #22
 b00:	09000002 	stmdbeq	r0, {r1}
 b04:	00963701 	addseq	r3, r6, r1, lsl #14
 b08:	010a0100 	mrseq	r0, (UNDEF: 26)
 b0c:	00000106 	andeq	r0, r0, r6, lsl #2
 b10:	00000000 	andeq	r0, r0, r0
 b14:	039c0000 	orrseq	r0, ip, #0
 b18:	96010000 	strls	r0, [r1], -r0
 b1c:	0a000002 	beq	b2c <_Min_Stack_Size+0x72c>
 b20:	0000964b 	andeq	r9, r0, fp, asr #12
 b24:	2a010a01 	bcs	43330 <_Min_Stack_Size+0x42f30>
 b28:	00000296 	muleq	r0, r6, r2
 b2c:	0a749102 	beq	1d24f3c <_Min_Stack_Size+0x1d24b3c>
 b30:	00009556 	andeq	r9, r0, r6, asr r5
 b34:	3a010a01 	bcc	43340 <_Min_Stack_Size+0x42f40>
 b38:	000000b1 	strheq	r0, [r0], -r1
 b3c:	00729102 	rsbseq	r9, r2, r2, lsl #2
 b40:	0141040b 	cmpeq	r1, fp, lsl #8
 b44:	010c0000 	mrseq	r0, (UNDEF: 12)
 b48:	0000966e 	andeq	r9, r0, lr, ror #12
 b4c:	0106eb01 	tsteq	r6, r1, lsl #22
	...
 b58:	000003f8 	strdeq	r0, [r0], -r8
 b5c:	0002e501 	andeq	lr, r2, r1, lsl #10
 b60:	964b0d00 	strbls	r0, [fp], -r0, lsl #26
 b64:	eb010000 	bl	40b6c <_Min_Stack_Size+0x4076c>
 b68:	00029629 	andeq	r9, r2, r9, lsr #12
 b6c:	74910200 	ldrvc	r0, [r1], #512	; 0x200
 b70:	0095560d 	addseq	r5, r5, sp, lsl #12
 b74:	39eb0100 	stmibcc	fp!, {r8}^
 b78:	000000b1 	strheq	r0, [r0], -r1
 b7c:	0d729102 	ldfeqp	f1, [r2, #-8]!
 b80:	00009627 	andeq	r9, r0, r7, lsr #12
 b84:	a54ceb01 	strbge	lr, [ip, #-2817]	; 0xfffff4ff
 b88:	02000000 	andeq	r0, r0, #0
 b8c:	0c007191 	stfeqs	f7, [r0], {145}	; 0x91
 b90:	00968101 	addseq	r8, r6, r1, lsl #2
 b94:	06dc0100 	ldrbeq	r0, [ip], r0, lsl #2
 b98:	00000001 	andeq	r0, r0, r1
 b9c:	00000000 	andeq	r0, r0, r0
 ba0:	00045400 	andeq	r5, r4, r0, lsl #8
 ba4:	031f0100 	tsteq	pc, #0, 2
 ba8:	4b0d0000 	blmi	340bb0 <_Min_Stack_Size+0x3407b0>
 bac:	01000096 	swpeq	r0, r6, [r0]	; <UNPREDICTABLE>
 bb0:	02962adc 	addseq	r2, r6, #220, 20	; 0xdc000
 bb4:	91020000 	mrsls	r0, (UNDEF: 2)
 bb8:	96270d74 			; <UNDEFINED> instruction: 0x96270d74
 bbc:	dc010000 	stcle	0, cr0, [r1], {-0}
 bc0:	0000a539 	andeq	sl, r0, r9, lsr r5
 bc4:	73910200 	orrsvc	r0, r1, #0, 4
 bc8:	b0010e00 	andlt	r0, r1, r0, lsl #28
 bcc:	01000096 	swpeq	r0, r6, [r0]	; <UNPREDICTABLE>
 bd0:	b1010ac9 	smlabtlt	r1, r9, sl, r0
	...
 bdc:	b0000000 	andlt	r0, r0, r0
 be0:	01000004 	tsteq	r0, r4
 be4:	0000035d 	andeq	r0, r0, sp, asr r3
 be8:	00964b0d 	addseq	r4, r6, sp, lsl #22
 bec:	2dc90100 	stfcse	f0, [r9]
 bf0:	00000296 	muleq	r0, r6, r2
 bf4:	0f6c9102 	svceq	0x006c9102
 bf8:	00009695 	muleq	r0, r5, r6
 bfc:	b10bcb01 	tstlt	fp, r1, lsl #22
 c00:	02000000 	andeq	r0, r0, #0
 c04:	0e007691 	mcreq	6, 0, r7, cr0, cr1, {4}
 c08:	00965101 	addseq	r5, r6, r1, lsl #2
 c0c:	09b20100 	ldmibeq	r2!, {r8}
 c10:	0000a501 	andeq	sl, r0, r1, lsl #10
	...
 c1c:	00050c00 	andeq	r0, r5, r0, lsl #24
 c20:	03aa0100 			; <UNDEFINED> instruction: 0x03aa0100
 c24:	4b0d0000 	blmi	340c2c <_Min_Stack_Size+0x34082c>
 c28:	01000096 	swpeq	r0, r6, [r0]	; <UNPREDICTABLE>
 c2c:	02962bb2 	addseq	r2, r6, #182272	; 0x2c800
 c30:	91020000 	mrsls	r0, (UNDEF: 2)
 c34:	95560d6c 	ldrbls	r0, [r6, #-3436]	; 0xfffff294
 c38:	b2010000 	andlt	r0, r1, #0
 c3c:	0000b13b 	andeq	fp, r0, fp, lsr r1
 c40:	6a910200 	bvs	fe441448 <_estack+0xde43ec48>
 c44:	0096c30f 	addseq	ip, r6, pc, lsl #6
 c48:	0ab40100 	beq	fed01050 <_estack+0xdecfe850>
 c4c:	000000a5 	andeq	r0, r0, r5, lsr #1
 c50:	00779102 	rsbseq	r9, r7, r2, lsl #2
 c54:	969f010c 	ldrls	r0, [pc], ip, lsl #2
 c58:	8b010000 	blhi	40c60 <_Min_Stack_Size+0x40860>
 c5c:	00000106 	andeq	r0, r0, r6, lsl #2
 c60:	00000000 	andeq	r0, r0, r0
 c64:	05680000 	strbeq	r0, [r8, #-0]!
 c68:	d5010000 	strle	r0, [r1, #-0]
 c6c:	0d000003 	stceq	0, cr0, [r0, #-12]
 c70:	0000964b 	andeq	r9, r0, fp, asr #12
 c74:	96278b01 	strtls	r8, [r7], -r1, lsl #22
 c78:	02000002 	andeq	r0, r0, #2
 c7c:	10007491 	mulne	r0, r1, r4
 c80:	00939c01 	addseq	r9, r3, r1, lsl #24
 c84:	06510100 	ldrbeq	r0, [r1], -r0, lsl #2
 c88:	00096401 	andeq	r6, r9, r1, lsl #8
 c8c:	000a5c08 	andeq	r5, sl, r8, lsl #24
 c90:	0005c408 	andeq	ip, r5, r8, lsl #8
 c94:	042d0100 	strteq	r0, [sp], #-256	; 0xffffff00
 c98:	4b0d0000 	blmi	340ca0 <_Min_Stack_Size+0x3408a0>
 c9c:	01000096 	swpeq	r0, r6, [r0]	; <UNPREDICTABLE>
 ca0:	02962551 	addseq	r2, r6, #339738624	; 0x14400000
 ca4:	91020000 	mrsls	r0, (UNDEF: 2)
 ca8:	962d0d64 	strtls	r0, [sp], -r4, ror #26
 cac:	51010000 	mrspl	r0, (UNDEF: 1)
 cb0:	00042d3e 	andeq	r2, r4, lr, lsr sp
 cb4:	60910200 	addsvs	r0, r1, r0, lsl #4
 cb8:	0096cd0f 	addseq	ip, r6, pc, lsl #26
 cbc:	16530100 	ldrbne	r0, [r3], -r0, lsl #2
 cc0:	00000433 	andeq	r0, r0, r3, lsr r4
 cc4:	0f689102 	svceq	0x00689102
 cc8:	00009663 	andeq	r9, r0, r3, ror #12
 ccc:	a50a5401 	strge	r5, [sl, #-1025]	; 0xfffffbff
 cd0:	02000000 	andeq	r0, r0, #0
 cd4:	0b006f91 	bleq	1cb20 <_Min_Stack_Size+0x1c720>
 cd8:	00024d04 	andeq	r4, r2, r4, lsl #26
 cdc:	c9040b00 	stmdbgt	r4, {r8, r9, fp}
 ce0:	11000000 	mrsne	r0, (UNDEF: 0)
 ce4:	00961501 	addseq	r1, r6, r1, lsl #10
 ce8:	09170100 	ldmdbeq	r7, {r8}
 cec:	0000a501 	andeq	sl, r0, r1, lsl #10
 cf0:	0007f400 	andeq	pc, r7, r0, lsl #8
 cf4:	00096208 	andeq	r6, r9, r8, lsl #4
 cf8:	00061408 	andeq	r1, r6, r8, lsl #8
 cfc:	560d0100 	strpl	r0, [sp], -r0, lsl #2
 d00:	01000095 	swpeq	r0, r5, [r0]	; <UNPREDICTABLE>
 d04:	00b12417 	adcseq	r2, r1, r7, lsl r4
 d08:	91020000 	mrsls	r0, (UNDEF: 2)
 d0c:	Address 0x0000000000000d0c is out of bounds.


Disassembly of section .debug_abbrev:

00000000 <.debug_abbrev>:
   0:	25011101 	strcs	r1, [r1, #-257]	; 0xfffffeff
   4:	030b130e 	movweq	r1, #45838	; 0xb30e
   8:	550e1b0e 	strpl	r1, [lr, #-2830]	; 0xfffff4f2
   c:	52011106 	andpl	r1, r1, #-2147483647	; 0x80000001
  10:	99061001 	stmdbls	r6, {r0, ip}
  14:	00000642 	andeq	r0, r0, r2, asr #12
  18:	0b002402 	bleq	9028 <_Min_Stack_Size+0x8c28>
  1c:	030b3e0b 	movweq	r3, #48651	; 0xbe0b
  20:	0300000e 	movweq	r0, #14
  24:	0b0b0024 	bleq	2c00bc <_Min_Stack_Size+0x2bfcbc>
  28:	08030b3e 	stmdaeq	r3, {r1, r2, r3, r4, r5, r8, r9, fp}
  2c:	16040000 	strne	r0, [r4], -r0
  30:	3a0e0300 	bcc	380c38 <_Min_Stack_Size+0x380838>
  34:	390b3b0b 	stmdbcc	fp, {r0, r1, r3, r8, r9, fp, ip, sp}
  38:	0013490b 	andseq	r4, r3, fp, lsl #18
  3c:	000f0500 	andeq	r0, pc, r0, lsl #10
  40:	13490b0b 	movtne	r0, #39691	; 0x9b0b
  44:	15060000 	strne	r0, [r6, #-0]
  48:	000c2700 	andeq	r2, ip, r0, lsl #14
  4c:	00350700 	eorseq	r0, r5, r0, lsl #14
  50:	00001349 	andeq	r1, r0, r9, asr #6
  54:	0b011308 	bleq	44c7c <_Min_Stack_Size+0x4487c>
  58:	3b0b3a0b 	blcc	2ce88c <_Min_Stack_Size+0x2ce48c>
  5c:	010b390b 	tsteq	fp, fp, lsl #18
  60:	09000013 	stmdbeq	r0, {r0, r1, r4}
  64:	0803000d 	stmdaeq	r3, {r0, r2, r3}
  68:	0b3b0b3a 	bleq	ec2d58 <_Min_Stack_Size+0xec2958>
  6c:	13490b39 	movtne	r0, #39737	; 0x9b39
  70:	00000a38 	andeq	r0, r0, r8, lsr sl
  74:	03000d0a 	movweq	r0, #3338	; 0xd0a
  78:	3b0b3a0e 	blcc	2ce8b8 <_Min_Stack_Size+0x2ce4b8>
  7c:	490b390b 	stmdbmi	fp, {r0, r1, r3, r8, fp, ip, sp}
  80:	000a3813 	andeq	r3, sl, r3, lsl r8
  84:	00340b00 	eorseq	r0, r4, r0, lsl #22
  88:	0b3a0e03 	bleq	e8389c <_Min_Stack_Size+0xe8349c>
  8c:	0b390b3b 	bleq	e42d80 <_Min_Stack_Size+0xe42980>
  90:	0c3f1349 	ldceq	3, cr1, [pc], #-292	; ffffff74 <_estack+0xdfffd774>
  94:	00000a02 	andeq	r0, r0, r2, lsl #20
  98:	3f012e0c 	svccc	0x00012e0c
  9c:	3a0e030c 	bcc	380cd4 <_Min_Stack_Size+0x3808d4>
  a0:	390b3b0b 	stmdbcc	fp, {r0, r1, r3, r8, r9, fp, ip, sp}
  a4:	3c0c270b 	stccc	7, cr2, [ip], {11}
  a8:	0013010c 	andseq	r0, r3, ip, lsl #2
  ac:	00050d00 	andeq	r0, r5, r0, lsl #26
  b0:	00001349 	andeq	r1, r0, r9, asr #6
  b4:	3f012e0e 	svccc	0x00012e0e
  b8:	3a0e030c 	bcc	380cf0 <_Min_Stack_Size+0x3808f0>
  bc:	390b3b0b 	stmdbcc	fp, {r0, r1, r3, r8, r9, fp, ip, sp}
  c0:	1113490b 	tstne	r3, fp, lsl #18
  c4:	40011201 	andmi	r1, r1, r1, lsl #4
  c8:	0c429606 	mcrreq	6, 0, r9, r2, cr6
  cc:	00001301 	andeq	r1, r0, r1, lsl #6
  d0:	0300340f 	movweq	r3, #1039	; 0x40f
  d4:	3b0b3a0e 	blcc	2ce914 <_Min_Stack_Size+0x2ce514>
  d8:	490b390b 	stmdbmi	fp, {r0, r1, r3, r8, fp, ip, sp}
  dc:	000a0213 	andeq	r0, sl, r3, lsl r2
  e0:	002e1000 	eoreq	r1, lr, r0
  e4:	0e030c3f 	mcreq	12, 0, r0, cr3, cr15, {1}
  e8:	0b3b0b3a 	bleq	ec2dd8 <_Min_Stack_Size+0xec29d8>
  ec:	0c270b39 			; <UNDEFINED> instruction: 0x0c270b39
  f0:	01120111 	tsteq	r2, r1, lsl r1
  f4:	42970640 	addsmi	r0, r7, #64, 12	; 0x4000000
  f8:	0000000c 	andeq	r0, r0, ip
  fc:	10001101 	andne	r1, r0, r1, lsl #2
 100:	03065506 	movweq	r5, #25862	; 0x6506
 104:	250e1b0e 	strcs	r1, [lr, #-2830]	; 0xfffff4f2
 108:	0005130e 	andeq	r1, r5, lr, lsl #6
 10c:	11010000 	mrsne	r0, (UNDEF: 1)
 110:	130e2501 	movwne	r2, #58625	; 0xe501
 114:	1b0e030b 	blne	380d48 <_Min_Stack_Size+0x380948>
 118:	1106550e 	tstne	r6, lr, lsl #10
 11c:	10015201 	andne	r5, r1, r1, lsl #4
 120:	06429906 	strbeq	r9, [r2], -r6, lsl #18
 124:	24020000 	strcs	r0, [r2], #-0
 128:	3e0b0b00 	vmlacc.f64	d0, d11, d0
 12c:	000e030b 	andeq	r0, lr, fp, lsl #6
 130:	00240300 	eoreq	r0, r4, r0, lsl #6
 134:	0b3e0b0b 	bleq	f82d68 <_Min_Stack_Size+0xf82968>
 138:	00000803 	andeq	r0, r0, r3, lsl #16
 13c:	03001604 	movweq	r1, #1540	; 0x604
 140:	3b0b3a0e 	blcc	2ce980 <_Min_Stack_Size+0x2ce580>
 144:	490b390b 	stmdbmi	fp, {r0, r1, r3, r8, fp, ip, sp}
 148:	05000013 	streq	r0, [r0, #-19]	; 0xffffffed
 14c:	0b0b000f 	bleq	2c0190 <_Min_Stack_Size+0x2bfd90>
 150:	00001349 	andeq	r1, r0, r9, asr #6
 154:	27001506 	strcs	r1, [r0, -r6, lsl #10]
 158:	0700000c 	streq	r0, [r0, -ip]
 15c:	13490035 	movtne	r0, #36917	; 0x9035
 160:	13080000 	movwne	r0, #32768	; 0x8000
 164:	3a0b0b01 	bcc	2c2d70 <_Min_Stack_Size+0x2c2970>
 168:	390b3b0b 	stmdbcc	fp, {r0, r1, r3, r8, r9, fp, ip, sp}
 16c:	0013010b 	andseq	r0, r3, fp, lsl #2
 170:	000d0900 	andeq	r0, sp, r0, lsl #18
 174:	0b3a0803 	bleq	e82188 <_Min_Stack_Size+0xe81d88>
 178:	0b390b3b 	bleq	e42e6c <_Min_Stack_Size+0xe42a6c>
 17c:	0a381349 	beq	e04ea8 <_Min_Stack_Size+0xe04aa8>
 180:	0d0a0000 	stceq	0, cr0, [sl, #-0]
 184:	3a0e0300 	bcc	380d8c <_Min_Stack_Size+0x38098c>
 188:	390b3b0b 	stmdbcc	fp, {r0, r1, r3, r8, r9, fp, ip, sp}
 18c:	3813490b 	ldmdacc	r3, {r0, r1, r3, r8, fp, lr}
 190:	0b00000a 	bleq	1c0 <_Min_Heap_Size-0x40>
 194:	13490101 	movtne	r0, #37121	; 0x9101
 198:	00001301 	andeq	r1, r0, r1, lsl #6
 19c:	4900210c 	stmdbmi	r0, {r2, r3, r8, sp}
 1a0:	000b2f13 	andeq	r2, fp, r3, lsl pc
 1a4:	00340d00 	eorseq	r0, r4, r0, lsl #26
 1a8:	0b3a0e03 	bleq	e839bc <_Min_Stack_Size+0xe835bc>
 1ac:	0b390b3b 	bleq	e42ea0 <_Min_Stack_Size+0xe42aa0>
 1b0:	0c3f1349 	ldceq	3, cr1, [pc], #-292	; 94 <_Min_Heap_Size-0x16c>
 1b4:	00000a02 	andeq	r0, r0, r2, lsl #20
 1b8:	3f012e0e 	svccc	0x00012e0e
 1bc:	3a0e030c 	bcc	380df4 <_Min_Stack_Size+0x3809f4>
 1c0:	390b3b0b 	stmdbcc	fp, {r0, r1, r3, r8, r9, fp, ip, sp}
 1c4:	3c0c270b 	stccc	7, cr2, [ip], {11}
 1c8:	0013010c 	andseq	r0, r3, ip, lsl #2
 1cc:	00050f00 	andeq	r0, r5, r0, lsl #30
 1d0:	00001349 	andeq	r1, r0, r9, asr #6
 1d4:	3f002e10 	svccc	0x00002e10
 1d8:	3a0e030c 	bcc	380e10 <_Min_Stack_Size+0x380a10>
 1dc:	39053b0b 	stmdbcc	r5, {r0, r1, r3, r8, r9, fp, ip, sp}
 1e0:	110c270b 	tstne	ip, fp, lsl #14
 1e4:	40011201 	andmi	r1, r1, r1, lsl #4
 1e8:	0c429606 	mcrreq	6, 0, r9, r2, cr6
 1ec:	2e110000 	cdpcs	0, 1, cr0, cr1, cr0, {0}
 1f0:	030c3f00 	movweq	r3, #52992	; 0xcf00
 1f4:	3b0b3a0e 	blcc	2cea34 <_Min_Stack_Size+0x2ce634>
 1f8:	270b390b 	strcs	r3, [fp, -fp, lsl #18]
 1fc:	1201110c 	andne	r1, r1, #12, 2
 200:	96064001 	strls	r4, [r6], -r1
 204:	00000c42 	andeq	r0, r0, r2, asr #24
 208:	3f012e12 	svccc	0x00012e12
 20c:	3a0e030c 	bcc	380e44 <_Min_Stack_Size+0x380a44>
 210:	390b3b0b 	stmdbcc	fp, {r0, r1, r3, r8, r9, fp, ip, sp}
 214:	110c270b 	tstne	ip, fp, lsl #14
 218:	40011201 	andmi	r1, r1, r1, lsl #4
 21c:	0c429606 	mcrreq	6, 0, r9, r2, cr6
 220:	00001301 	andeq	r1, r0, r1, lsl #6
 224:	03000513 	movweq	r0, #1299	; 0x513
 228:	3b0b3a0e 	blcc	2cea68 <_Min_Stack_Size+0x2ce668>
 22c:	490b390b 	stmdbmi	fp, {r0, r1, r3, r8, fp, ip, sp}
 230:	000a0213 	andeq	r0, sl, r3, lsl r2
 234:	002e1400 	eoreq	r1, lr, r0, lsl #8
 238:	0e030c3f 	mcreq	12, 0, r0, cr3, cr15, {1}
 23c:	0b3b0b3a 	bleq	ec2f2c <_Min_Stack_Size+0xec2b2c>
 240:	0c270b39 			; <UNDEFINED> instruction: 0x0c270b39
 244:	01120111 	tsteq	r2, r1, lsl r1
 248:	42970640 	addsmi	r0, r7, #64, 12	; 0x4000000
 24c:	1500000c 	strne	r0, [r0, #-12]
 250:	0e030034 	mcreq	0, 0, r0, cr3, cr4, {1}
 254:	0b3b0b3a 	bleq	ec2f44 <_Min_Stack_Size+0xec2b44>
 258:	13490b39 	movtne	r0, #39737	; 0x9b39
 25c:	00000a02 	andeq	r0, r0, r2, lsl #20
 260:	3f012e16 	svccc	0x00012e16
 264:	3a0e030c 	bcc	380e9c <_Min_Stack_Size+0x380a9c>
 268:	390b3b0b 	stmdbcc	fp, {r0, r1, r3, r8, r9, fp, ip, sp}
 26c:	110c270b 	tstne	ip, fp, lsl #14
 270:	40011201 	andmi	r1, r1, r1, lsl #4
 274:	0c429706 	mcrreq	7, 0, r9, r2, cr6
 278:	00001301 	andeq	r1, r0, r1, lsl #6
 27c:	3f012e17 	svccc	0x00012e17
 280:	3a0e030c 	bcc	380eb8 <_Min_Stack_Size+0x380ab8>
 284:	390b3b0b 	stmdbcc	fp, {r0, r1, r3, r8, r9, fp, ip, sp}
 288:	110c270b 	tstne	ip, fp, lsl #14
 28c:	40011201 	andmi	r1, r1, r1, lsl #4
 290:	0c429706 	mcrreq	7, 0, r9, r2, cr6
 294:	01000000 	mrseq	r0, (UNDEF: 0)
 298:	0e250111 	mcreq	1, 1, r0, cr5, cr1, {0}
 29c:	0e030b13 	vmoveq.32	d3[0], r0
 2a0:	06550e1b 			; <UNDEFINED> instruction: 0x06550e1b
 2a4:	01520111 	cmpeq	r2, r1, lsl r1
 2a8:	42990610 	addsmi	r0, r9, #16, 12	; 0x1000000
 2ac:	02000006 	andeq	r0, r0, #6
 2b0:	0b0b0024 	bleq	2c0348 <_Min_Stack_Size+0x2bff48>
 2b4:	0e030b3e 	vmoveq.16	d3[0], r0
 2b8:	24030000 	strcs	r0, [r3], #-0
 2bc:	3e0b0b00 	vmlacc.f64	d0, d11, d0
 2c0:	0008030b 	andeq	r0, r8, fp, lsl #6
 2c4:	00160400 	andseq	r0, r6, r0, lsl #8
 2c8:	0b3a0e03 	bleq	e83adc <_Min_Stack_Size+0xe836dc>
 2cc:	0b390b3b 	bleq	e42fc0 <_Min_Stack_Size+0xe42bc0>
 2d0:	00001349 	andeq	r1, r0, r9, asr #6
 2d4:	49003505 	stmdbmi	r0, {r0, r2, r8, sl, ip, sp}
 2d8:	06000013 			; <UNDEFINED> instruction: 0x06000013
 2dc:	0b0b0113 	bleq	2c0730 <_Min_Stack_Size+0x2c0330>
 2e0:	0b3b0b3a 	bleq	ec2fd0 <_Min_Stack_Size+0xec2bd0>
 2e4:	13010b39 	movwne	r0, #6969	; 0x1b39
 2e8:	0d070000 	stceq	0, cr0, [r7, #-0]
 2ec:	3a080300 	bcc	200ef4 <_Min_Stack_Size+0x200af4>
 2f0:	390b3b0b 	stmdbcc	fp, {r0, r1, r3, r8, r9, fp, ip, sp}
 2f4:	3813490b 	ldmdacc	r3, {r0, r1, r3, r8, fp, lr}
 2f8:	0800000a 	stmdaeq	r0, {r1, r3}
 2fc:	0e03000d 	cdpeq	0, 0, cr0, cr3, cr13, {0}
 300:	0b3b0b3a 	bleq	ec2ff0 <_Min_Stack_Size+0xec2bf0>
 304:	13490b39 	movtne	r0, #39737	; 0x9b39
 308:	00000a38 	andeq	r0, r0, r8, lsr sl
 30c:	3f012e09 	svccc	0x00012e09
 310:	3a0e030c 	bcc	380f48 <_Min_Stack_Size+0x380b48>
 314:	39053b0b 	stmdbcc	r5, {r0, r1, r3, r8, r9, fp, ip, sp}
 318:	110c270b 	tstne	ip, fp, lsl #14
 31c:	40011201 	andmi	r1, r1, r1, lsl #4
 320:	0c429706 	mcrreq	7, 0, r9, r2, cr6
 324:	00001301 	andeq	r1, r0, r1, lsl #6
 328:	0300050a 	movweq	r0, #1290	; 0x50a
 32c:	3b0b3a0e 	blcc	2ceb6c <_Min_Stack_Size+0x2ce76c>
 330:	490b3905 	stmdbmi	fp, {r0, r2, r8, fp, ip, sp}
 334:	000a0213 	andeq	r0, sl, r3, lsl r2
 338:	000f0b00 	andeq	r0, pc, r0, lsl #22
 33c:	13490b0b 	movtne	r0, #39691	; 0x9b0b
 340:	2e0c0000 	cdpcs	0, 0, cr0, cr12, cr0, {0}
 344:	030c3f01 	movweq	r3, #52993	; 0xcf01
 348:	3b0b3a0e 	blcc	2ceb88 <_Min_Stack_Size+0x2ce788>
 34c:	270b390b 	strcs	r3, [fp, -fp, lsl #18]
 350:	1201110c 	andne	r1, r1, #12, 2
 354:	97064001 	strls	r4, [r6, -r1]
 358:	13010c42 	movwne	r0, #7234	; 0x1c42
 35c:	050d0000 	streq	r0, [sp, #-0]
 360:	3a0e0300 	bcc	380f68 <_Min_Stack_Size+0x380b68>
 364:	390b3b0b 	stmdbcc	fp, {r0, r1, r3, r8, r9, fp, ip, sp}
 368:	0213490b 	andseq	r4, r3, #180224	; 0x2c000
 36c:	0e00000a 	cdpeq	0, 0, cr0, cr0, cr10, {0}
 370:	0c3f012e 	ldfeqs	f0, [pc], #-184	; 2c0 <_Min_Heap_Size+0xc0>
 374:	0b3a0e03 	bleq	e83b88 <_Min_Stack_Size+0xe83788>
 378:	0b390b3b 	bleq	e4306c <_Min_Stack_Size+0xe42c6c>
 37c:	13490c27 	movtne	r0, #39975	; 0x9c27
 380:	01120111 	tsteq	r2, r1, lsl r1
 384:	42970640 	addsmi	r0, r7, #64, 12	; 0x4000000
 388:	0013010c 	andseq	r0, r3, ip, lsl #2
 38c:	00340f00 	eorseq	r0, r4, r0, lsl #30
 390:	0b3a0e03 	bleq	e83ba4 <_Min_Stack_Size+0xe837a4>
 394:	0b390b3b 	bleq	e43088 <_Min_Stack_Size+0xe42c88>
 398:	0a021349 	beq	850c4 <_Min_Stack_Size+0x84cc4>
 39c:	2e100000 	cdpcs	0, 1, cr0, cr0, cr0, {0}
 3a0:	030c3f01 	movweq	r3, #52993	; 0xcf01
 3a4:	3b0b3a0e 	blcc	2cebe4 <_Min_Stack_Size+0x2ce7e4>
 3a8:	270b390b 	strcs	r3, [fp, -fp, lsl #18]
 3ac:	1201110c 	andne	r1, r1, #12, 2
 3b0:	96064001 	strls	r4, [r6], -r1
 3b4:	13010c42 	movwne	r0, #7234	; 0x1c42
 3b8:	2e110000 	cdpcs	0, 1, cr0, cr1, cr0, {0}
 3bc:	030c3f01 	movweq	r3, #52993	; 0xcf01
 3c0:	3b0b3a0e 	blcc	2cec00 <_Min_Stack_Size+0x2ce800>
 3c4:	270b390b 	strcs	r3, [fp, -fp, lsl #18]
 3c8:	1113490c 	tstne	r3, ip, lsl #18
 3cc:	40011201 	andmi	r1, r1, r1, lsl #4
 3d0:	0c429706 	mcrreq	7, 0, r9, r2, cr6
 3d4:	Address 0x00000000000003d4 is out of bounds.


Disassembly of section .debug_loc:

00000000 <.debug_loc>:
   0:	08000194 	stmdaeq	r0, {r2, r4, r7, r8}
   4:	08000196 	stmdaeq	r0, {r1, r2, r4, r7, r8}
   8:	007d0002 	rsbseq	r0, sp, r2
   c:	08000196 	stmdaeq	r0, {r1, r2, r4, r7, r8}
  10:	08000198 	stmdaeq	r0, {r3, r4, r7, r8}
  14:	087d0002 	ldmdaeq	sp!, {r1}^
  18:	08000198 	stmdaeq	r0, {r3, r4, r7, r8}
  1c:	0800019a 	stmdaeq	r0, {r1, r3, r4, r7, r8}
  20:	307d0002 	rsbscc	r0, sp, r2
  24:	0800019a 	stmdaeq	r0, {r1, r3, r4, r7, r8}
  28:	08000208 	stmdaeq	r0, {r3, r9}
  2c:	30770002 	rsbscc	r0, r7, r2
	...
  38:	08000170 	stmdaeq	r0, {r4, r5, r6, r8}
  3c:	08000172 	stmdaeq	r0, {r1, r4, r5, r6, r8}
  40:	007d0002 	rsbseq	r0, sp, r2
  44:	08000172 	stmdaeq	r0, {r1, r4, r5, r6, r8}
  48:	08000174 	stmdaeq	r0, {r2, r4, r5, r6, r8}
  4c:	047d0002 	ldrbteq	r0, [sp], #-2
  50:	08000174 	stmdaeq	r0, {r2, r4, r5, r6, r8}
  54:	08000188 	stmdaeq	r0, {r3, r7, r8}
  58:	04770002 	ldrbteq	r0, [r7], #-2
  5c:	08000188 	stmdaeq	r0, {r3, r7, r8}
  60:	0800018a 	stmdaeq	r0, {r1, r3, r7, r8}
  64:	047d0002 	ldrbteq	r0, [sp], #-2
  68:	0800018a 	stmdaeq	r0, {r1, r3, r7, r8}
  6c:	08000194 	stmdaeq	r0, {r2, r4, r7, r8}
  70:	007d0002 	rsbseq	r0, sp, r2
	...
  7c:	08000730 	stmdaeq	r0, {r4, r5, r8, r9, sl}
  80:	08000732 	stmdaeq	r0, {r1, r4, r5, r8, r9, sl}
  84:	007d0002 	rsbseq	r0, sp, r2
  88:	08000732 	stmdaeq	r0, {r1, r4, r5, r8, r9, sl}
  8c:	08000734 	stmdaeq	r0, {r2, r4, r5, r8, r9, sl}
  90:	087d0002 	ldmdaeq	sp!, {r1}^
  94:	08000734 	stmdaeq	r0, {r2, r4, r5, r8, r9, sl}
  98:	080007f4 	stmdaeq	r0, {r2, r4, r5, r6, r7, r8, r9, sl}
  9c:	08770002 	ldmdaeq	r7!, {r1}^
	...
  a8:	08000688 	stmdaeq	r0, {r3, r7, r9, sl}
  ac:	0800068a 	stmdaeq	r0, {r1, r3, r7, r9, sl}
  b0:	007d0002 	rsbseq	r0, sp, r2
  b4:	0800068a 	stmdaeq	r0, {r1, r3, r7, r9, sl}
  b8:	0800068c 	stmdaeq	r0, {r2, r3, r7, r9, sl}
  bc:	087d0002 	ldmdaeq	sp!, {r1}^
  c0:	0800068c 	stmdaeq	r0, {r2, r3, r7, r9, sl}
  c4:	08000730 	stmdaeq	r0, {r4, r5, r8, r9, sl}
  c8:	08770002 	ldmdaeq	r7!, {r1}^
	...
  d4:	08000664 	stmdaeq	r0, {r2, r5, r6, r9, sl}
  d8:	08000666 	stmdaeq	r0, {r1, r2, r5, r6, r9, sl}
  dc:	007d0002 	rsbseq	r0, sp, r2
  e0:	08000666 	stmdaeq	r0, {r1, r2, r5, r6, r9, sl}
  e4:	08000668 	stmdaeq	r0, {r3, r5, r6, r9, sl}
  e8:	087d0002 	ldmdaeq	sp!, {r1}^
  ec:	08000668 	stmdaeq	r0, {r3, r5, r6, r9, sl}
  f0:	08000688 	stmdaeq	r0, {r3, r7, r9, sl}
  f4:	08770002 	ldmdaeq	r7!, {r1}^
	...
 100:	08000640 	stmdaeq	r0, {r6, r9, sl}
 104:	08000642 	stmdaeq	r0, {r1, r6, r9, sl}
 108:	007d0002 	rsbseq	r0, sp, r2
 10c:	08000642 	stmdaeq	r0, {r1, r6, r9, sl}
 110:	08000644 	stmdaeq	r0, {r2, r6, r9, sl}
 114:	087d0002 	ldmdaeq	sp!, {r1}^
 118:	08000644 	stmdaeq	r0, {r2, r6, r9, sl}
 11c:	08000664 	stmdaeq	r0, {r2, r5, r6, r9, sl}
 120:	08770002 	ldmdaeq	r7!, {r1}^
	...
 12c:	0800061c 	stmdaeq	r0, {r2, r3, r4, r9, sl}
 130:	0800061e 	stmdaeq	r0, {r1, r2, r3, r4, r9, sl}
 134:	007d0002 	rsbseq	r0, sp, r2
 138:	0800061e 	stmdaeq	r0, {r1, r2, r3, r4, r9, sl}
 13c:	08000620 	stmdaeq	r0, {r5, r9, sl}
 140:	087d0002 	ldmdaeq	sp!, {r1}^
 144:	08000620 	stmdaeq	r0, {r5, r9, sl}
 148:	08000640 	stmdaeq	r0, {r6, r9, sl}
 14c:	08770002 	ldmdaeq	r7!, {r1}^
	...
 158:	080005f8 	stmdaeq	r0, {r3, r4, r5, r6, r7, r8, sl}
 15c:	080005fa 	stmdaeq	r0, {r1, r3, r4, r5, r6, r7, r8, sl}
 160:	007d0002 	rsbseq	r0, sp, r2
 164:	080005fa 	stmdaeq	r0, {r1, r3, r4, r5, r6, r7, r8, sl}
 168:	080005fc 	stmdaeq	r0, {r2, r3, r4, r5, r6, r7, r8, sl}
 16c:	087d0002 	ldmdaeq	sp!, {r1}^
 170:	080005fc 	stmdaeq	r0, {r2, r3, r4, r5, r6, r7, r8, sl}
 174:	0800061c 	stmdaeq	r0, {r2, r3, r4, r9, sl}
 178:	08770002 	ldmdaeq	r7!, {r1}^
	...
 184:	080005d4 	stmdaeq	r0, {r2, r4, r6, r7, r8, sl}
 188:	080005d6 	stmdaeq	r0, {r1, r2, r4, r6, r7, r8, sl}
 18c:	007d0002 	rsbseq	r0, sp, r2
 190:	080005d6 	stmdaeq	r0, {r1, r2, r4, r6, r7, r8, sl}
 194:	080005d8 	stmdaeq	r0, {r3, r4, r6, r7, r8, sl}
 198:	087d0002 	ldmdaeq	sp!, {r1}^
 19c:	080005d8 	stmdaeq	r0, {r3, r4, r6, r7, r8, sl}
 1a0:	080005f8 	stmdaeq	r0, {r3, r4, r5, r6, r7, r8, sl}
 1a4:	08770002 	ldmdaeq	r7!, {r1}^
	...
 1b0:	080005bc 	stmdaeq	r0, {r2, r3, r4, r5, r7, r8, sl}
 1b4:	080005be 	stmdaeq	r0, {r1, r2, r3, r4, r5, r7, r8, sl}
 1b8:	007d0002 	rsbseq	r0, sp, r2
 1bc:	080005be 	stmdaeq	r0, {r1, r2, r3, r4, r5, r7, r8, sl}
 1c0:	080005c0 	stmdaeq	r0, {r6, r7, r8, sl}
 1c4:	087d0002 	ldmdaeq	sp!, {r1}^
 1c8:	080005c0 	stmdaeq	r0, {r6, r7, r8, sl}
 1cc:	080005c2 	stmdaeq	r0, {r1, r6, r7, r8, sl}
 1d0:	107d0002 	rsbsne	r0, sp, r2
 1d4:	080005c2 	stmdaeq	r0, {r1, r6, r7, r8, sl}
 1d8:	080005ce 	stmdaeq	r0, {r1, r2, r3, r6, r7, r8, sl}
 1dc:	10770002 	rsbsne	r0, r7, r2
 1e0:	080005ce 	stmdaeq	r0, {r1, r2, r3, r6, r7, r8, sl}
 1e4:	080005d0 	stmdaeq	r0, {r4, r6, r7, r8, sl}
 1e8:	08770002 	ldmdaeq	r7!, {r1}^
 1ec:	080005d0 	stmdaeq	r0, {r4, r6, r7, r8, sl}
 1f0:	080005d2 	stmdaeq	r0, {r1, r4, r6, r7, r8, sl}
 1f4:	087d0002 	ldmdaeq	sp!, {r1}^
	...
 208:	007d0002 	rsbseq	r0, sp, r2
	...
 214:	087d0002 	ldmdaeq	sp!, {r1}^
	...
 220:	107d0002 	rsbsne	r0, sp, r2
	...
 22c:	10770002 	rsbsne	r0, r7, r2
	...
 238:	08770002 	ldmdaeq	r7!, {r1}^
	...
 244:	087d0002 	ldmdaeq	sp!, {r1}^
	...
 258:	007d0002 	rsbseq	r0, sp, r2
	...
 264:	047d0002 	ldrbteq	r0, [sp], #-2
	...
 270:	04770002 	ldrbteq	r0, [r7], #-2
	...
 27c:	047d0002 	ldrbteq	r0, [sp], #-2
	...
 288:	007d0002 	rsbseq	r0, sp, r2
	...
 294:	080003ec 	stmdaeq	r0, {r2, r3, r5, r6, r7, r8, r9}
 298:	080003ee 	stmdaeq	r0, {r1, r2, r3, r5, r6, r7, r8, r9}
 29c:	007d0002 	rsbseq	r0, sp, r2
 2a0:	080003ee 	stmdaeq	r0, {r1, r2, r3, r5, r6, r7, r8, r9}
 2a4:	080003f0 	stmdaeq	r0, {r4, r5, r6, r7, r8, r9}
 2a8:	087d0002 	ldmdaeq	sp!, {r1}^
 2ac:	080003f0 	stmdaeq	r0, {r4, r5, r6, r7, r8, r9}
 2b0:	080003f2 	stmdaeq	r0, {r1, r4, r5, r6, r7, r8, r9}
 2b4:	187d0002 	ldmdane	sp!, {r1}^
 2b8:	080003f2 	stmdaeq	r0, {r1, r4, r5, r6, r7, r8, r9}
 2bc:	0800059c 	stmdaeq	r0, {r2, r3, r4, r7, r8, sl}
 2c0:	18770002 	ldmdane	r7!, {r1}^
 2c4:	0800059c 	stmdaeq	r0, {r2, r3, r4, r7, r8, sl}
 2c8:	0800059e 	stmdaeq	r0, {r1, r2, r3, r4, r7, r8, sl}
 2cc:	08770002 	ldmdaeq	r7!, {r1}^
 2d0:	0800059e 	stmdaeq	r0, {r1, r2, r3, r4, r7, r8, sl}
 2d4:	080005bc 	stmdaeq	r0, {r2, r3, r4, r5, r7, r8, sl}
 2d8:	087d0002 	ldmdaeq	sp!, {r1}^
	...
 2e4:	08000324 	stmdaeq	r0, {r2, r5, r8, r9}
 2e8:	08000326 	stmdaeq	r0, {r1, r2, r5, r8, r9}
 2ec:	007d0002 	rsbseq	r0, sp, r2
 2f0:	08000326 	stmdaeq	r0, {r1, r2, r5, r8, r9}
 2f4:	08000328 	stmdaeq	r0, {r3, r5, r8, r9}
 2f8:	047d0002 	ldrbteq	r0, [sp], #-2
 2fc:	08000328 	stmdaeq	r0, {r3, r5, r8, r9}
 300:	0800032a 	stmdaeq	r0, {r1, r3, r5, r8, r9}
 304:	107d0002 	rsbsne	r0, sp, r2
 308:	0800032a 	stmdaeq	r0, {r1, r3, r5, r8, r9}
 30c:	080003de 	stmdaeq	r0, {r1, r2, r3, r4, r6, r7, r8, r9}
 310:	10770002 	rsbsne	r0, r7, r2
 314:	080003de 	stmdaeq	r0, {r1, r2, r3, r4, r6, r7, r8, r9}
 318:	080003e0 	stmdaeq	r0, {r5, r6, r7, r8, r9}
 31c:	04770002 	ldrbteq	r0, [r7], #-2
 320:	080003e0 	stmdaeq	r0, {r5, r6, r7, r8, r9}
 324:	080003e2 	stmdaeq	r0, {r1, r5, r6, r7, r8, r9}
 328:	047d0002 	ldrbteq	r0, [sp], #-2
 32c:	080003e2 	stmdaeq	r0, {r1, r5, r6, r7, r8, r9}
 330:	080003ec 	stmdaeq	r0, {r2, r3, r5, r6, r7, r8, r9}
 334:	007d0002 	rsbseq	r0, sp, r2
	...
 340:	0800025c 	stmdaeq	r0, {r2, r3, r4, r6, r9}
 344:	0800025e 	stmdaeq	r0, {r1, r2, r3, r4, r6, r9}
 348:	007d0002 	rsbseq	r0, sp, r2
 34c:	0800025e 	stmdaeq	r0, {r1, r2, r3, r4, r6, r9}
 350:	08000260 	stmdaeq	r0, {r5, r6, r9}
 354:	047d0002 	ldrbteq	r0, [sp], #-2
 358:	08000260 	stmdaeq	r0, {r5, r6, r9}
 35c:	08000262 	stmdaeq	r0, {r1, r5, r6, r9}
 360:	107d0002 	rsbsne	r0, sp, r2
 364:	08000262 	stmdaeq	r0, {r1, r5, r6, r9}
 368:	08000316 	stmdaeq	r0, {r1, r2, r4, r8, r9}
 36c:	10770002 	rsbsne	r0, r7, r2
 370:	08000316 	stmdaeq	r0, {r1, r2, r4, r8, r9}
 374:	08000318 	stmdaeq	r0, {r3, r4, r8, r9}
 378:	04770002 	ldrbteq	r0, [r7], #-2
 37c:	08000318 	stmdaeq	r0, {r3, r4, r8, r9}
 380:	0800031a 	stmdaeq	r0, {r1, r3, r4, r8, r9}
 384:	047d0002 	ldrbteq	r0, [sp], #-2
 388:	0800031a 	stmdaeq	r0, {r1, r3, r4, r8, r9}
 38c:	08000324 	stmdaeq	r0, {r2, r5, r8, r9}
 390:	007d0002 	rsbseq	r0, sp, r2
	...
 3a4:	007d0002 	rsbseq	r0, sp, r2
	...
 3b0:	047d0002 	ldrbteq	r0, [sp], #-2
	...
 3bc:	107d0002 	rsbsne	r0, sp, r2
	...
 3c8:	10770002 	rsbsne	r0, r7, r2
	...
 3d4:	04770002 	ldrbteq	r0, [r7], #-2
	...
 3e0:	047d0002 	ldrbteq	r0, [sp], #-2
	...
 3ec:	007d0002 	rsbseq	r0, sp, r2
	...
 400:	007d0002 	rsbseq	r0, sp, r2
	...
 40c:	047d0002 	ldrbteq	r0, [sp], #-2
	...
 418:	107d0002 	rsbsne	r0, sp, r2
	...
 424:	10770002 	rsbsne	r0, r7, r2
	...
 430:	04770002 	ldrbteq	r0, [r7], #-2
	...
 43c:	047d0002 	ldrbteq	r0, [sp], #-2
	...
 448:	007d0002 	rsbseq	r0, sp, r2
	...
 45c:	007d0002 	rsbseq	r0, sp, r2
	...
 468:	047d0002 	ldrbteq	r0, [sp], #-2
	...
 474:	107d0002 	rsbsne	r0, sp, r2
	...
 480:	10770002 	rsbsne	r0, r7, r2
	...
 48c:	04770002 	ldrbteq	r0, [r7], #-2
	...
 498:	047d0002 	ldrbteq	r0, [sp], #-2
	...
 4a4:	007d0002 	rsbseq	r0, sp, r2
	...
 4b8:	007d0002 	rsbseq	r0, sp, r2
	...
 4c4:	047d0002 	ldrbteq	r0, [sp], #-2
	...
 4d0:	187d0002 	ldmdane	sp!, {r1}^
	...
 4dc:	18770002 	ldmdane	r7!, {r1}^
	...
 4e8:	04770002 	ldrbteq	r0, [r7], #-2
	...
 4f4:	047d0002 	ldrbteq	r0, [sp], #-2
	...
 500:	007d0002 	rsbseq	r0, sp, r2
	...
 514:	007d0002 	rsbseq	r0, sp, r2
	...
 520:	047d0002 	ldrbteq	r0, [sp], #-2
	...
 52c:	187d0002 	ldmdane	sp!, {r1}^
	...
 538:	18770002 	ldmdane	r7!, {r1}^
	...
 544:	04770002 	ldrbteq	r0, [r7], #-2
	...
 550:	047d0002 	ldrbteq	r0, [sp], #-2
	...
 55c:	007d0002 	rsbseq	r0, sp, r2
	...
 570:	007d0002 	rsbseq	r0, sp, r2
	...
 57c:	047d0002 	ldrbteq	r0, [sp], #-2
	...
 588:	107d0002 	rsbsne	r0, sp, r2
	...
 594:	10770002 	rsbsne	r0, r7, r2
	...
 5a0:	04770002 	ldrbteq	r0, [r7], #-2
	...
 5ac:	047d0002 	ldrbteq	r0, [sp], #-2
	...
 5b8:	007d0002 	rsbseq	r0, sp, r2
	...
 5c4:	08000964 	stmdaeq	r0, {r2, r5, r6, r8, fp}
 5c8:	08000966 	stmdaeq	r0, {r1, r2, r5, r6, r8, fp}
 5cc:	007d0002 	rsbseq	r0, sp, r2
 5d0:	08000966 	stmdaeq	r0, {r1, r2, r5, r6, r8, fp}
 5d4:	08000968 	stmdaeq	r0, {r3, r5, r6, r8, fp}
 5d8:	0c7d0002 	ldcleq	0, cr0, [sp], #-8
 5dc:	08000968 	stmdaeq	r0, {r3, r5, r6, r8, fp}
 5e0:	0800096a 	stmdaeq	r0, {r1, r3, r5, r6, r8, fp}
 5e4:	207d0002 	rsbscs	r0, sp, r2
 5e8:	0800096a 	stmdaeq	r0, {r1, r3, r5, r6, r8, fp}
 5ec:	08000a58 	stmdaeq	r0, {r3, r4, r6, r9, fp}
 5f0:	20770002 	rsbscs	r0, r7, r2
 5f4:	08000a58 	stmdaeq	r0, {r3, r4, r6, r9, fp}
 5f8:	08000a5a 	stmdaeq	r0, {r1, r3, r4, r6, r9, fp}
 5fc:	0c770002 	ldcleq	0, cr0, [r7], #-8
 600:	08000a5a 	stmdaeq	r0, {r1, r3, r4, r6, r9, fp}
 604:	08000a5c 	stmdaeq	r0, {r2, r3, r4, r6, r9, fp}
 608:	0c7d0002 	ldcleq	0, cr0, [sp], #-8
	...
 614:	080007f4 	stmdaeq	r0, {r2, r4, r5, r6, r7, r8, r9, sl}
 618:	080007f6 	stmdaeq	r0, {r1, r2, r4, r5, r6, r7, r8, r9, sl}
 61c:	007d0002 	rsbseq	r0, sp, r2
 620:	080007f6 	stmdaeq	r0, {r1, r2, r4, r5, r6, r7, r8, r9, sl}
 624:	080007f8 	stmdaeq	r0, {r3, r4, r5, r6, r7, r8, r9, sl}
 628:	047d0002 	ldrbteq	r0, [sp], #-2
 62c:	080007f8 	stmdaeq	r0, {r3, r4, r5, r6, r7, r8, r9, sl}
 630:	080007fa 	stmdaeq	r0, {r1, r3, r4, r5, r6, r7, r8, r9, sl}
 634:	107d0002 	rsbsne	r0, sp, r2
 638:	080007fa 	stmdaeq	r0, {r1, r3, r4, r5, r6, r7, r8, r9, sl}
 63c:	0800095c 	stmdaeq	r0, {r2, r3, r4, r6, r8, fp}
 640:	10770002 	rsbsne	r0, r7, r2
 644:	0800095c 	stmdaeq	r0, {r2, r3, r4, r6, r8, fp}
 648:	0800095e 	stmdaeq	r0, {r1, r2, r3, r4, r6, r8, fp}
 64c:	04770002 	ldrbteq	r0, [r7], #-2
 650:	0800095e 	stmdaeq	r0, {r1, r2, r3, r4, r6, r8, fp}
 654:	08000960 	stmdaeq	r0, {r5, r6, r8, fp}
 658:	047d0002 	ldrbteq	r0, [sp], #-2
 65c:	08000960 	stmdaeq	r0, {r5, r6, r8, fp}
 660:	08000962 	stmdaeq	r0, {r1, r5, r6, r8, fp}
 664:	007d0002 	rsbseq	r0, sp, r2
	...

Disassembly of section .debug_aranges:

00000000 <.debug_aranges>:
   0:	00000024 	andeq	r0, r0, r4, lsr #32
   4:	00000002 	andeq	r0, r0, r2
   8:	00040000 	andeq	r0, r4, r0
   c:	00000000 	andeq	r0, r0, r0
  10:	08000170 	stmdaeq	r0, {r4, r5, r6, r8}
  14:	00000024 	andeq	r0, r0, r4, lsr #32
  18:	08000194 	stmdaeq	r0, {r2, r4, r7, r8}
  1c:	00000074 	andeq	r0, r0, r4, ror r0
	...
  28:	00000024 	andeq	r0, r0, r4, lsr #32
  2c:	035e0002 	cmpeq	lr, #2
  30:	00040000 	andeq	r0, r4, r0
  34:	00000000 	andeq	r0, r0, r0
  38:	08000208 	stmdaeq	r0, {r3, r9}
  3c:	00000050 	andeq	r0, r0, r0, asr r0
  40:	08000258 	stmdaeq	r0, {r3, r4, r6, r9}
  44:	00000002 	andeq	r0, r0, r2
	...
  50:	0000007c 	andeq	r0, r0, ip, ror r0
  54:	03800002 	orreq	r0, r0, #2
  58:	00040000 	andeq	r0, r4, r0
  5c:	00000000 	andeq	r0, r0, r0
  60:	0800025c 	stmdaeq	r0, {r2, r3, r4, r6, r9}
  64:	000000c8 	andeq	r0, r0, r8, asr #1
  68:	08000324 	stmdaeq	r0, {r2, r5, r8, r9}
  6c:	000000c8 	andeq	r0, r0, r8, asr #1
  70:	080003ec 	stmdaeq	r0, {r2, r3, r5, r6, r7, r8, r9}
  74:	000001d0 	ldrdeq	r0, [r0], -r0	; <UNPREDICTABLE>
  78:	00000000 	andeq	r0, r0, r0
  7c:	00000094 	muleq	r0, r4, r0
  80:	00000000 	andeq	r0, r0, r0
  84:	00000016 	andeq	r0, r0, r6, lsl r0
  88:	080005bc 	stmdaeq	r0, {r2, r3, r4, r5, r7, r8, sl}
  8c:	00000016 	andeq	r0, r0, r6, lsl r0
  90:	080005d4 	stmdaeq	r0, {r2, r4, r6, r7, r8, sl}
  94:	00000024 	andeq	r0, r0, r4, lsr #32
  98:	080005f8 	stmdaeq	r0, {r3, r4, r5, r6, r7, r8, sl}
  9c:	00000024 	andeq	r0, r0, r4, lsr #32
  a0:	0800061c 	stmdaeq	r0, {r2, r3, r4, r9, sl}
  a4:	00000024 	andeq	r0, r0, r4, lsr #32
  a8:	08000640 	stmdaeq	r0, {r6, r9, sl}
  ac:	00000024 	andeq	r0, r0, r4, lsr #32
  b0:	08000664 	stmdaeq	r0, {r2, r5, r6, r9, sl}
  b4:	00000024 	andeq	r0, r0, r4, lsr #32
  b8:	08000688 	stmdaeq	r0, {r3, r7, r9, sl}
  bc:	000000a8 	andeq	r0, r0, r8, lsr #1
  c0:	08000730 	stmdaeq	r0, {r4, r5, r8, r9, sl}
  c4:	000000c4 	andeq	r0, r0, r4, asr #1
	...
  d0:	00000054 	andeq	r0, r0, r4, asr r0
  d4:	08aa0002 	stmiaeq	sl!, {r1}
  d8:	00040000 	andeq	r0, r4, r0
  dc:	00000000 	andeq	r0, r0, r0
  e0:	080007f4 	stmdaeq	r0, {r2, r4, r5, r6, r7, r8, r9, sl}
  e4:	0000016e 	andeq	r0, r0, lr, ror #2
  e8:	08000964 	stmdaeq	r0, {r2, r5, r6, r8, fp}
  ec:	000000f8 	strdeq	r0, [r0], -r8
  f0:	00000000 	andeq	r0, r0, r0
  f4:	000000cc 	andeq	r0, r0, ip, asr #1
  f8:	00000000 	andeq	r0, r0, r0
  fc:	0000002e 	andeq	r0, r0, lr, lsr #32
 100:	00000000 	andeq	r0, r0, r0
 104:	0000001a 	andeq	r0, r0, sl, lsl r0
 108:	00000000 	andeq	r0, r0, r0
 10c:	0000001c 	andeq	r0, r0, ip, lsl r0
 110:	00000000 	andeq	r0, r0, r0
 114:	0000002e 	andeq	r0, r0, lr, lsr #32
 118:	00000000 	andeq	r0, r0, r0
 11c:	00000022 	andeq	r0, r0, r2, lsr #32
	...

Disassembly of section .debug_ranges:

00000000 <.debug_ranges>:
   0:	08000170 	stmdaeq	r0, {r4, r5, r6, r8}
   4:	08000194 	stmdaeq	r0, {r2, r4, r7, r8}
   8:	08000194 	stmdaeq	r0, {r2, r4, r7, r8}
   c:	08000208 	stmdaeq	r0, {r3, r9}
	...
  18:	ffffffff 			; <UNDEFINED> instruction: 0xffffffff
  1c:	00000000 	andeq	r0, r0, r0
  20:	08000208 	stmdaeq	r0, {r3, r9}
  24:	08000258 	stmdaeq	r0, {r3, r4, r6, r9}
  28:	08000258 	stmdaeq	r0, {r3, r4, r6, r9}
  2c:	0800025a 	stmdaeq	r0, {r1, r3, r4, r6, r9}
	...
  38:	0800025c 	stmdaeq	r0, {r2, r3, r4, r6, r9}
  3c:	08000324 	stmdaeq	r0, {r2, r5, r8, r9}
  40:	08000324 	stmdaeq	r0, {r2, r5, r8, r9}
  44:	080003ec 	stmdaeq	r0, {r2, r3, r5, r6, r7, r8, r9}
  48:	080003ec 	stmdaeq	r0, {r2, r3, r5, r6, r7, r8, r9}
  4c:	080005bc 	stmdaeq	r0, {r2, r3, r4, r5, r7, r8, sl}
  50:	00000001 	andeq	r0, r0, r1
  54:	00000001 	andeq	r0, r0, r1
  58:	00000001 	andeq	r0, r0, r1
  5c:	00000001 	andeq	r0, r0, r1
  60:	080005bc 	stmdaeq	r0, {r2, r3, r4, r5, r7, r8, sl}
  64:	080005d2 	stmdaeq	r0, {r1, r4, r6, r7, r8, sl}
  68:	080005d4 	stmdaeq	r0, {r2, r4, r6, r7, r8, sl}
  6c:	080005f8 	stmdaeq	r0, {r3, r4, r5, r6, r7, r8, sl}
  70:	080005f8 	stmdaeq	r0, {r3, r4, r5, r6, r7, r8, sl}
  74:	0800061c 	stmdaeq	r0, {r2, r3, r4, r9, sl}
  78:	0800061c 	stmdaeq	r0, {r2, r3, r4, r9, sl}
  7c:	08000640 	stmdaeq	r0, {r6, r9, sl}
  80:	08000640 	stmdaeq	r0, {r6, r9, sl}
  84:	08000664 	stmdaeq	r0, {r2, r5, r6, r9, sl}
  88:	08000664 	stmdaeq	r0, {r2, r5, r6, r9, sl}
  8c:	08000688 	stmdaeq	r0, {r3, r7, r9, sl}
  90:	08000688 	stmdaeq	r0, {r3, r7, r9, sl}
  94:	08000730 	stmdaeq	r0, {r4, r5, r8, r9, sl}
  98:	08000730 	stmdaeq	r0, {r4, r5, r8, r9, sl}
  9c:	080007f4 	stmdaeq	r0, {r2, r4, r5, r6, r7, r8, r9, sl}
	...
  a8:	080007f4 	stmdaeq	r0, {r2, r4, r5, r6, r7, r8, r9, sl}
  ac:	08000962 	stmdaeq	r0, {r1, r5, r6, r8, fp}
  b0:	08000964 	stmdaeq	r0, {r2, r5, r6, r8, fp}
  b4:	08000a5c 	stmdaeq	r0, {r2, r3, r4, r6, r9, fp}
  b8:	00000001 	andeq	r0, r0, r1
  bc:	00000001 	andeq	r0, r0, r1
  c0:	00000001 	andeq	r0, r0, r1
  c4:	00000001 	andeq	r0, r0, r1
  c8:	00000001 	andeq	r0, r0, r1
  cc:	00000001 	andeq	r0, r0, r1
  d0:	00000001 	andeq	r0, r0, r1
  d4:	00000001 	andeq	r0, r0, r1
  d8:	00000001 	andeq	r0, r0, r1
  dc:	00000001 	andeq	r0, r0, r1
  e0:	00000001 	andeq	r0, r0, r1
  e4:	00000001 	andeq	r0, r0, r1
	...

Disassembly of section .debug_macro:

00000000 <.debug_macro>:
       0:	00020004 	andeq	r0, r2, r4
       4:	07000000 	streq	r0, [r0, -r0]
       8:	00000162 	andeq	r0, r0, r2, ror #2
       c:	03010003 	movweq	r0, #4099	; 0x1003
      10:	d4070618 	strle	r0, [r7], #-1560	; 0xfffff9e8
      14:	0300000b 	movweq	r0, #11
      18:	09050410 	stmdbeq	r5, {r4, sl}
      1c:	000088ad 	andeq	r8, r0, sp, lsr #17
      20:	05070d03 	streq	r0, [r7, #-3331]	; 0xfffff2fd
      24:	007fb508 	rsbseq	fp, pc, r8, lsl #10
      28:	080a0300 	stmdaeq	sl, {r8, r9}
      2c:	000bea07 	andeq	lr, fp, r7, lsl #20
      30:	0b030400 	bleq	c1038 <_Min_Stack_Size+0xc0c38>
      34:	63080509 	movwvs	r0, #34057	; 0x8509
      38:	03000053 	movweq	r0, #83	; 0x53
      3c:	08050a0a 	stmdaeq	r5, {r1, r3, r9, fp}
      40:	0000129f 	muleq	r0, pc, r2	; <UNPREDICTABLE>
      44:	070b0e03 	streq	r0, [fp, -r3, lsl #28]
      48:	00000c02 	andeq	r0, r0, r2, lsl #24
      4c:	0c240704 	stceq	7, cr0, [r4], #-16
      50:	03040000 	movweq	r0, #16384	; 0x4000
      54:	02050c0b 	andeq	r0, r5, #2816	; 0xb00
      58:	00007ed1 	ldrdeq	r7, [r0], -r1
      5c:	04080403 	streq	r0, [r8], #-1027	; 0xfffffbfd
      60:	070d0503 	streq	r0, [sp, -r3, lsl #10]
      64:	00000c70 	andeq	r0, r0, r0, ror ip
      68:	0d040704 	stceq	7, cr0, [r4, #-16]
      6c:	07040000 	streq	r0, [r4, -r0]
      70:	00000d40 	andeq	r0, r0, r0, asr #26
      74:	0d740704 	ldcleq	7, cr0, [r4, #-16]!
      78:	10030000 	andne	r0, r3, r0
      7c:	0d8a070e 	stceq	7, cr0, [sl, #56]	; 0x38
      80:	03040000 	movweq	r0, #16384	; 0x4000
      84:	0b050f12 	bleq	143cd4 <_Min_Stack_Size+0x1438d4>
      88:	000056e0 	andeq	r5, r0, r0, ror #13
      8c:	04090d03 	streq	r0, [r9], #-3331	; 0xfffff2fd
      90:	070e0e03 	streq	r0, [lr, -r3, lsl #28]
      94:	00000e98 	muleq	r0, r8, lr
      98:	100f0304 	andne	r0, pc, r4, lsl #6
      9c:	000f2507 	andeq	r2, pc, r7, lsl #10
      a0:	0e180300 	cdpeq	3, 1, cr0, cr8, cr0, {0}
      a4:	000f3b07 	andeq	r3, pc, r7, lsl #22
      a8:	1b030400 	blne	c10b0 <_Min_Stack_Size+0xc0cb0>
      ac:	29060511 	stmdbcs	r6, {r0, r4, r8, sl}
      b0:	0300005b 	movweq	r0, #91	; 0x5b
      b4:	7e070207 	cdpvc	2, 0, cr0, cr7, cr7, {0}
      b8:	0400000f 	streq	r0, [r0], #-15
      bc:	0fd50704 	svceq	0x00d50704
      c0:	07040000 	streq	r0, [r4, -r0]
      c4:	00001009 	andeq	r1, r0, r9
      c8:	07122203 	ldreq	r2, [r2, -r3, lsl #4]
      cc:	00001019 	andeq	r1, r0, r9, lsl r0
      d0:	10710704 	rsbsne	r0, r1, r4, lsl #14
      d4:	f7030000 			; <UNDEFINED> instruction: 0xf7030000
      d8:	e2071303 	and	r1, r7, #201326592	; 0xc000000
      dc:	04000010 	streq	r0, [r0], #-16
      e0:	0010fe07 	andseq	pc, r0, r7, lsl #28
      e4:	13030400 	movwne	r0, #13312	; 0x3400
      e8:	0f2b0514 	svceq	0x002b0514
      ec:	03000083 	movweq	r0, #131	; 0x83
      f0:	07040e2f 	streq	r0, [r4, -pc, lsr #28]
      f4:	00001228 	andeq	r1, r0, r8, lsr #4
      f8:	15140304 	ldrne	r0, [r4, #-772]	; 0xfffffcfc
      fc:	26e50205 	strbtcs	r0, [r5], r5, lsl #4
     100:	03040000 	movweq	r0, #16384	; 0x4000
     104:	69071616 	stmdbvs	r7, {r1, r2, r4, r9, sl, ip}
     108:	04000015 	streq	r0, [r0], #-21	; 0xffffffeb
     10c:	00157f07 	andseq	r7, r5, r7, lsl #30
     110:	0e030400 	cfcpyseq	mvf0, mvf3
     114:	18090317 	stmdane	r9, {r0, r1, r2, r4, r8, r9}
     118:	06d00a05 	ldrbeq	r0, [r0], r5, lsl #20
     11c:	0d030000 	stceq	0, cr0, [r3, #-0]
     120:	15a80719 	strne	r0, [r8, #1817]!	; 0x719
     124:	03040000 	movweq	r0, #16384	; 0x4000
     128:	ab07030e 	blge	1c0d68 <_Min_Stack_Size+0x1c0968>
     12c:	04000016 	streq	r0, [r0], #-22	; 0xffffffea
     130:	00171507 	andseq	r1, r7, r7, lsl #10
     134:	0d050400 	cfstrseq	mvf0, [r5, #-0]
     138:	000006c7 	andeq	r0, r0, r7, asr #13
     13c:	18f40704 	ldmne	r4!, {r2, r8, r9, sl}^
     140:	07040000 	streq	r0, [r4, -r0]
     144:	00001b9d 	muleq	r0, sp, fp
     148:	04190304 	ldreq	r0, [r9], #-772	; 0xfffffcfc
     14c:	051a0304 	ldreq	r0, [sl, #-772]	; 0xfffffcfc
     150:	786c0905 	stmdavc	ip!, {r0, r2, r8, fp}^
     154:	0f030000 	svceq	0x00030000
     158:	55070406 	strpl	r0, [r7, #-1030]	; 0xfffffbfa
     15c:	0400001c 	streq	r0, [r0], #-28	; 0xffffffe4
     160:	00040004 	andeq	r0, r4, r4
     164:	c8000500 	stmdagt	r0, {r8, sl}
     168:	05000081 	streq	r0, [r0, #-129]	; 0xffffff7f
     16c:	0039a000 	eorseq	sl, r9, r0
     170:	48000500 	stmdami	r0, {r8, sl}
     174:	05000057 	streq	r0, [r0, #-87]	; 0xffffffa9
     178:	00220600 	eoreq	r0, r2, r0, lsl #12
     17c:	2c000500 	cfstr32cs	mvfx0, [r0], {-0}
     180:	0500000c 	streq	r0, [r0, #-12]
     184:	00472800 	subeq	r2, r7, r0, lsl #16
     188:	a1000500 	tstge	r0, r0, lsl #10
     18c:	05000071 	streq	r0, [r0, #-113]	; 0xffffff8f
     190:	001fc800 	andseq	ip, pc, r0, lsl #16
     194:	43000500 	movwmi	r0, #1280	; 0x500
     198:	05000093 	streq	r0, [r0, #-147]	; 0xffffff6d
     19c:	007ab100 	rsbseq	fp, sl, r0, lsl #2
     1a0:	07000500 	streq	r0, [r0, -r0, lsl #10]
     1a4:	05000023 	streq	r0, [r0, #-35]	; 0xffffffdd
     1a8:	003a6800 	eorseq	r6, sl, r0, lsl #16
     1ac:	18000500 	stmdane	r0, {r8, sl}
     1b0:	05000044 	streq	r0, [r0, #-68]	; 0xffffffbc
     1b4:	008e3000 	addeq	r3, lr, r0
     1b8:	b4000500 	strlt	r0, [r0], #-1280	; 0xfffffb00
     1bc:	0500003c 	streq	r0, [r0, #-60]	; 0xffffffc4
     1c0:	0069a300 	rsbeq	sl, r9, r0, lsl #6
     1c4:	fc000500 	stc2	5, cr0, [r0], {-0}
     1c8:	05000084 	streq	r0, [r0, #-132]	; 0xffffff7c
     1cc:	001bda00 	andseq	sp, fp, r0, lsl #20
     1d0:	11000500 	tstne	r0, r0, lsl #10
     1d4:	05000005 	streq	r0, [r0, #-5]
     1d8:	0025b400 	eoreq	fp, r5, r0, lsl #8
     1dc:	18000500 	stmdane	r0, {r8, sl}
     1e0:	05000022 	streq	r0, [r0, #-34]	; 0xffffffde
     1e4:	001d0100 	andseq	r0, sp, r0, lsl #2
     1e8:	f5000500 			; <UNDEFINED> instruction: 0xf5000500
     1ec:	05000026 	streq	r0, [r0, #-38]	; 0xffffffda
     1f0:	0076d500 	rsbseq	sp, r6, r0, lsl #10
     1f4:	d7000500 	strle	r0, [r0, -r0, lsl #10]
     1f8:	05000050 	streq	r0, [r0, #-80]	; 0xffffffb0
     1fc:	005efa00 	subseq	pc, lr, r0, lsl #20
     200:	06000500 	streq	r0, [r0], -r0, lsl #10
     204:	05000066 	streq	r0, [r0, #-102]	; 0xffffff9a
     208:	00106400 	andseq	r6, r0, r0, lsl #8
     20c:	92000500 	andls	r0, r0, #0, 10
     210:	05000006 	streq	r0, [r0, #-6]
     214:	0052f900 	subseq	pc, r2, r0, lsl #18
     218:	7b000500 	blvc	1620 <_Min_Stack_Size+0x1220>
     21c:	05000059 	streq	r0, [r0, #-89]	; 0xffffffa7
     220:	00191000 	andseq	r1, r9, r0
     224:	ac000500 	cfstr32ge	mvfx0, [r0], {-0}
     228:	05000006 	streq	r0, [r0, #-6]
     22c:	00673800 	rsbeq	r3, r7, r0, lsl #16
     230:	34000500 	strcc	r0, [r0], #-1280	; 0xfffffb00
     234:	05000027 	streq	r0, [r0, #-39]	; 0xffffffd9
     238:	00584f00 	subseq	r4, r8, r0, lsl #30
     23c:	4e000500 	cfsh32mi	mvfx0, mvfx0, #0
     240:	05000072 	streq	r0, [r0, #-114]	; 0xffffff8e
     244:	001a2200 	andseq	r2, sl, r0, lsl #4
     248:	db000500 	blle	1650 <_Min_Stack_Size+0x1250>
     24c:	05000068 	streq	r0, [r0, #-104]	; 0xffffff98
     250:	001b2400 	andseq	r2, fp, r0, lsl #8
     254:	1c000500 	cfstr32ne	mvfx0, [r0], {-0}
     258:	05000068 	streq	r0, [r0, #-104]	; 0xffffff98
     25c:	0006f000 	andeq	pc, r6, r0
     260:	f9000500 			; <UNDEFINED> instruction: 0xf9000500
     264:	05000009 	streq	r0, [r0, #-9]
     268:	006c4b00 	rsbeq	r4, ip, r0, lsl #22
     26c:	a7000500 	strge	r0, [r0, -r0, lsl #10]
     270:	05000050 	streq	r0, [r0, #-80]	; 0xffffffb0
     274:	00319400 	eorseq	r9, r1, r0, lsl #8
     278:	63000500 	movwvs	r0, #1280	; 0x500
     27c:	0500000d 	streq	r0, [r0, #-13]
     280:	0083c800 	addeq	ip, r3, r0, lsl #16
     284:	0b000500 	bleq	168c <_Min_Stack_Size+0x128c>
     288:	0500003b 	streq	r0, [r0, #-59]	; 0xffffffc5
     28c:	00192500 	andseq	r2, r9, r0, lsl #10
     290:	80000500 	andhi	r0, r0, r0, lsl #10
     294:	05000088 	streq	r0, [r0, #-136]	; 0xffffff78
     298:	0044b600 	subeq	fp, r4, r0, lsl #12
     29c:	be000500 	cfsh32lt	mvfx0, mvfx0, #0
     2a0:	05000092 	streq	r0, [r0, #-146]	; 0xffffff6e
     2a4:	0059fd00 	subseq	pc, r9, r0, lsl #26
     2a8:	78000500 	stmdavc	r0, {r8, sl}
     2ac:	05000068 	streq	r0, [r0, #-104]	; 0xffffff98
     2b0:	0071cd00 	rsbseq	ip, r1, r0, lsl #26
     2b4:	57000500 	strpl	r0, [r0, -r0, lsl #10]
     2b8:	05000042 	streq	r0, [r0, #-66]	; 0xffffffbe
     2bc:	00188300 	andseq	r8, r8, r0, lsl #6
     2c0:	ef000500 	svc	0x00000500
     2c4:	05000067 	streq	r0, [r0, #-103]	; 0xffffff99
     2c8:	00555400 	subseq	r5, r5, r0, lsl #8
     2cc:	a3000500 	movwge	r0, #1280	; 0x500
     2d0:	0500000c 	streq	r0, [r0, #-12]
     2d4:	003fde00 	eorseq	sp, pc, r0, lsl #28
     2d8:	33000500 	movwcc	r0, #1280	; 0x500
     2dc:	05000086 	streq	r0, [r0, #-134]	; 0xffffff7a
     2e0:	0021d300 	eoreq	sp, r1, r0, lsl #6
     2e4:	cf000500 	svcgt	0x00000500
     2e8:	05000028 	streq	r0, [r0, #-40]	; 0xffffffd8
     2ec:	00758900 	rsbseq	r8, r5, r0, lsl #18
     2f0:	aa000500 	bge	16f8 <_Min_Stack_Size+0x12f8>
     2f4:	05000075 	streq	r0, [r0, #-117]	; 0xffffff8b
     2f8:	002e4400 	eoreq	r4, lr, r0, lsl #8
     2fc:	1e000500 	cfsh32ne	mvfx0, mvfx0, #0
     300:	05000057 	streq	r0, [r0, #-87]	; 0xffffffa9
     304:	00670000 	rsbeq	r0, r7, r0
     308:	a7000500 	strge	r0, [r0, -r0, lsl #10]
     30c:	05000092 	streq	r0, [r0, #-146]	; 0xffffff6e
     310:	008bb100 	addeq	fp, fp, r0, lsl #2
     314:	b1000500 	tstlt	r0, r0, lsl #10
     318:	05000060 	streq	r0, [r0, #-96]	; 0xffffffa0
     31c:	00048e00 	andeq	r8, r4, r0, lsl #28
     320:	b8000500 	stmdalt	r0, {r8, sl}
     324:	05000048 	streq	r0, [r0, #-72]	; 0xffffffb8
     328:	00881500 	addeq	r1, r8, r0, lsl #10
     32c:	c5000500 	strgt	r0, [r0, #-1280]	; 0xfffffb00
     330:	05000087 	streq	r0, [r0, #-135]	; 0xffffff79
     334:	0002e400 	andeq	lr, r2, r0, lsl #8
     338:	ac000500 	cfstr32ge	mvfx0, [r0], {-0}
     33c:	0500008a 	streq	r0, [r0, #-138]	; 0xffffff76
     340:	003f9c00 	eorseq	r9, pc, r0, lsl #24
     344:	3a000500 	bcc	174c <_Min_Stack_Size+0x134c>
     348:	0500005a 	streq	r0, [r0, #-90]	; 0xffffffa6
     34c:	0065aa00 	rsbeq	sl, r5, r0, lsl #20
     350:	a0000500 	andge	r0, r0, r0, lsl #10
     354:	05000047 	streq	r0, [r0, #-71]	; 0xffffffb9
     358:	004d9300 	subeq	r9, sp, r0, lsl #6
     35c:	03000500 	movweq	r0, #1280	; 0x500
     360:	0500008d 	streq	r0, [r0, #-141]	; 0xffffff73
     364:	00845800 	addeq	r5, r4, r0, lsl #16
     368:	86000500 	strhi	r0, [r0], -r0, lsl #10
     36c:	05000011 	streq	r0, [r0, #-17]	; 0xffffffef
     370:	00873e00 	addeq	r3, r7, r0, lsl #28
     374:	4f000500 	svcmi	0x00000500
     378:	05000003 	streq	r0, [r0, #-3]
     37c:	00032500 	andeq	r2, r3, r0, lsl #10
     380:	5c000500 	cfstr32pl	mvfx0, [r0], {-0}
     384:	05000091 	streq	r0, [r0, #-145]	; 0xffffff6f
     388:	0018f800 	andseq	pc, r8, r0, lsl #16
     38c:	4b000500 	blmi	1794 <_Min_Stack_Size+0x1394>
     390:	05000006 	streq	r0, [r0, #-6]
     394:	007b3b00 	rsbseq	r3, fp, r0, lsl #22
     398:	6a000500 	bvs	17a0 <_Min_Stack_Size+0x13a0>
     39c:	05000034 	streq	r0, [r0, #-52]	; 0xffffffcc
     3a0:	00801c00 	addeq	r1, r0, r0, lsl #24
     3a4:	2c000500 	cfstr32cs	mvfx0, [r0], {-0}
     3a8:	0500003d 	streq	r0, [r0, #-61]	; 0xffffffc3
     3ac:	007ebc00 	rsbseq	fp, lr, r0, lsl #24
     3b0:	9a000500 	bls	17b8 <_Min_Stack_Size+0x13b8>
     3b4:	05000040 	streq	r0, [r0, #-64]	; 0xffffffc0
     3b8:	00463600 	subeq	r3, r6, r0, lsl #12
     3bc:	84000500 	strhi	r0, [r0], #-1280	; 0xfffffb00
     3c0:	0500002c 	streq	r0, [r0, #-44]	; 0xffffffd4
     3c4:	00245b00 	eoreq	r5, r4, r0, lsl #22
     3c8:	40000500 	andmi	r0, r0, r0, lsl #10
     3cc:	05000039 	streq	r0, [r0, #-57]	; 0xffffffc7
     3d0:	0038d700 	eorseq	sp, r8, r0, lsl #14
     3d4:	06000500 	streq	r0, [r0], -r0, lsl #10
     3d8:	0500003a 	streq	r0, [r0, #-58]	; 0xffffffc6
     3dc:	0061ef00 	rsbeq	lr, r1, r0, lsl #30
     3e0:	2e000500 	cfsh32cs	mvfx0, mvfx0, #0
     3e4:	05000088 	streq	r0, [r0, #-136]	; 0xffffff78
     3e8:	002e5b00 	eoreq	r5, lr, r0, lsl #22
     3ec:	16000500 	strne	r0, [r0], -r0, lsl #10
     3f0:	0500008d 	streq	r0, [r0, #-141]	; 0xffffff73
     3f4:	0036a200 	eorseq	sl, r6, r0, lsl #4
     3f8:	c6000500 	strgt	r0, [r0], -r0, lsl #10
     3fc:	0500001e 	streq	r0, [r0, #-30]	; 0xffffffe2
     400:	002b3800 	eoreq	r3, fp, r0, lsl #16
     404:	15000500 	strne	r0, [r0, #-1280]	; 0xfffffb00
     408:	0500001d 	streq	r0, [r0, #-29]	; 0xffffffe3
     40c:	0040f400 	subeq	pc, r0, r0, lsl #8
     410:	f2000500 	vrshl.s8	d0, d0, d0
     414:	05000076 	streq	r0, [r0, #-118]	; 0xffffff8a
     418:	003cc700 	eorseq	ip, ip, r0, lsl #14
     41c:	63000500 	movwvs	r0, #1280	; 0x500
     420:	0500006c 	streq	r0, [r0, #-108]	; 0xffffff94
     424:	0009a600 	andeq	sl, r9, r0, lsl #12
     428:	10000500 	andne	r0, r0, r0, lsl #10
     42c:	0500000c 	streq	r0, [r0, #-12]
     430:	0078f200 	rsbseq	pc, r8, r0, lsl #4
     434:	01000500 	tsteq	r0, r0, lsl #10
     438:	0500003c 	streq	r0, [r0, #-60]	; 0xffffffc4
     43c:	00300900 	eorseq	r0, r0, r0, lsl #18
     440:	60000500 	andvs	r0, r0, r0, lsl #10
     444:	05000065 	streq	r0, [r0, #-101]	; 0xffffff9b
     448:	00424000 	subeq	r4, r2, r0
     44c:	20000500 	andcs	r0, r0, r0, lsl #10
     450:	05000082 	streq	r0, [r0, #-130]	; 0xffffff7e
     454:	00573100 	subseq	r3, r7, r0, lsl #2
     458:	ba000500 	blt	1860 <_Min_Stack_Size+0x1460>
     45c:	05000069 	streq	r0, [r0, #-105]	; 0xffffff97
     460:	0012ae00 	andseq	sl, r2, r0, lsl #28
     464:	e9000500 	stmdb	r0, {r8, sl}
     468:	05000022 	streq	r0, [r0, #-34]	; 0xffffffde
     46c:	00218200 	eoreq	r8, r1, r0, lsl #4
     470:	50000500 	andpl	r0, r0, r0, lsl #10
     474:	05000017 	streq	r0, [r0, #-23]	; 0xffffffe9
     478:	000fad00 	andeq	sl, pc, r0, lsl #26
     47c:	f3000500 	vrshl.u8	d0, d0, d0
     480:	05000011 	streq	r0, [r0, #-17]	; 0xffffffef
     484:	00137500 	andseq	r7, r3, r0, lsl #10
     488:	a6000500 	strge	r0, [r0], -r0, lsl #10
     48c:	0500001b 	streq	r0, [r0, #-27]	; 0xffffffe5
     490:	004df300 	subeq	pc, sp, r0, lsl #6
     494:	45000500 	strmi	r0, [r0, #-1280]	; 0xfffffb00
     498:	05000013 	streq	r0, [r0, #-19]	; 0xffffffed
     49c:	004e9300 	subeq	r9, lr, r0, lsl #6
     4a0:	33000500 	movwcc	r0, #1280	; 0x500
     4a4:	0500000e 	streq	r0, [r0, #-14]
     4a8:	00588100 	subseq	r8, r8, r0, lsl #2
     4ac:	ea000500 	b	18b4 <_Min_Stack_Size+0x14b4>
     4b0:	0500003d 	streq	r0, [r0, #-61]	; 0xffffffc3
     4b4:	0056ef00 	subseq	lr, r6, r0, lsl #30
     4b8:	1c000500 	cfstr32ne	mvfx0, [r0], {-0}
     4bc:	0500003f 	streq	r0, [r0, #-63]	; 0xffffffc1
     4c0:	0036e900 	eorseq	lr, r6, r0, lsl #18
     4c4:	7c000500 	cfstr32vc	mvfx0, [r0], {-0}
     4c8:	05000049 	streq	r0, [r0, #-73]	; 0xffffffb7
     4cc:	00444f00 	subeq	r4, r4, r0, lsl #30
     4d0:	30000500 	andcc	r0, r0, r0, lsl #10
     4d4:	05000021 	streq	r0, [r0, #-33]	; 0xffffffdf
     4d8:	00507d00 	subseq	r7, r0, r0, lsl #26
     4dc:	d3000500 	movwle	r0, #1280	; 0x500
     4e0:	05000066 	streq	r0, [r0, #-102]	; 0xffffff9a
     4e4:	001bc600 	andseq	ip, fp, r0, lsl #12
     4e8:	7d000500 	cfstr32vc	mvfx0, [r0, #-0]
     4ec:	05000022 	streq	r0, [r0, #-34]	; 0xffffffde
     4f0:	001eb000 	andseq	fp, lr, r0
     4f4:	d6000500 	strle	r0, [r0], -r0, lsl #10
     4f8:	05000047 	streq	r0, [r0, #-71]	; 0xffffffb9
     4fc:	0073b300 	rsbseq	fp, r3, r0, lsl #6
     500:	54000500 	strpl	r0, [r0], #-1280	; 0xfffffb00
     504:	05000029 	streq	r0, [r0, #-41]	; 0xffffffd7
     508:	00307e00 	eorseq	r7, r0, r0, lsl #28
     50c:	76000500 	strvc	r0, [r0], -r0, lsl #10
     510:	0500002e 	streq	r0, [r0, #-46]	; 0xffffffd2
     514:	0006db00 	andeq	sp, r6, r0, lsl #22
     518:	e0000500 	and	r0, r0, r0, lsl #10
     51c:	0500003c 	streq	r0, [r0, #-60]	; 0xffffffc4
     520:	001f6c00 	andseq	r6, pc, r0, lsl #24
     524:	be000500 	cfsh32lt	mvfx0, mvfx0, #0
     528:	05000091 	streq	r0, [r0, #-145]	; 0xffffff6f
     52c:	00764800 	rsbseq	r4, r6, r0, lsl #16
     530:	5b000500 	blpl	1938 <_Min_Stack_Size+0x1538>
     534:	05000062 	streq	r0, [r0, #-98]	; 0xffffff9e
     538:	00103a00 	andseq	r3, r0, r0, lsl #20
     53c:	f5000500 			; <UNDEFINED> instruction: 0xf5000500
     540:	05000043 	streq	r0, [r0, #-67]	; 0xffffffbd
     544:	00053e00 	andeq	r3, r5, r0, lsl #28
     548:	36000500 	strcc	r0, [r0], -r0, lsl #10
     54c:	0500007d 	streq	r0, [r0, #-125]	; 0xffffff83
     550:	0088c200 	addeq	ip, r8, r0, lsl #4
     554:	11000500 	tstne	r0, r0, lsl #10
     558:	05000054 	streq	r0, [r0, #-84]	; 0xffffffac
     55c:	00179200 	andseq	r9, r7, r0, lsl #4
     560:	67000500 	strvs	r0, [r0, -r0, lsl #10]
     564:	0500003c 	streq	r0, [r0, #-60]	; 0xffffffc4
     568:	00550800 	subseq	r0, r5, r0, lsl #16
     56c:	8d000500 	cfstr32hi	mvfx0, [r0, #-0]
     570:	0500002d 	streq	r0, [r0, #-45]	; 0xffffffd3
     574:	007b2400 	rsbseq	r2, fp, r0, lsl #8
     578:	fa000500 	blx	1980 <_Min_Stack_Size+0x1580>
     57c:	05000073 	streq	r0, [r0, #-115]	; 0xffffff8d
     580:	00092400 	andeq	r2, r9, r0, lsl #8
     584:	2e000500 	cfsh32cs	mvfx0, mvfx0, #0
     588:	05000087 	streq	r0, [r0, #-135]	; 0xffffff79
     58c:	0007b100 	andeq	fp, r7, r0, lsl #2
     590:	52000500 	andpl	r0, r0, #0, 10
     594:	0500005b 	streq	r0, [r0, #-91]	; 0xffffffa5
     598:	0024c300 	eoreq	ip, r4, r0, lsl #6
     59c:	75000500 	strvc	r0, [r0, #-1280]	; 0xfffffb00
     5a0:	05000054 	streq	r0, [r0, #-84]	; 0xffffffac
     5a4:	00005000 	andeq	r5, r0, r0
     5a8:	d3000500 	movwle	r0, #1280	; 0x500
     5ac:	05000081 	streq	r0, [r0, #-129]	; 0xffffff7f
     5b0:	00494900 	subeq	r4, r9, r0, lsl #18
     5b4:	8b000500 	blhi	19bc <_Min_Stack_Size+0x15bc>
     5b8:	0500005e 	streq	r0, [r0, #-94]	; 0xffffffa2
     5bc:	00779800 	rsbseq	r9, r7, r0, lsl #16
     5c0:	b6000500 	strlt	r0, [r0], -r0, lsl #10
     5c4:	05000042 	streq	r0, [r0, #-66]	; 0xffffffbe
     5c8:	00460900 	subeq	r0, r6, r0, lsl #18
     5cc:	dc000500 	cfstr32le	mvfx0, [r0], {-0}
     5d0:	05000063 	streq	r0, [r0, #-99]	; 0xffffff9d
     5d4:	00332f00 	eorseq	r2, r3, r0, lsl #30
     5d8:	78000500 	stmdavc	r0, {r8, sl}
     5dc:	05000015 	streq	r0, [r0, #-21]	; 0xffffffeb
     5e0:	00419600 	subeq	r9, r1, r0, lsl #12
     5e4:	03000500 	movweq	r0, #1280	; 0x500
     5e8:	05000063 	streq	r0, [r0, #-99]	; 0xffffff9d
     5ec:	000e5e00 	andeq	r5, lr, r0, lsl #28
     5f0:	82000500 	andhi	r0, r0, #0, 10
     5f4:	0500005d 	streq	r0, [r0, #-93]	; 0xffffffa3
     5f8:	001a0700 	andseq	r0, sl, r0, lsl #14
     5fc:	4b000500 	blmi	1a04 <_Min_Stack_Size+0x1604>
     600:	0500000d 	streq	r0, [r0, #-13]
     604:	00079900 	andeq	r9, r7, r0, lsl #18
     608:	20000500 	andcs	r0, r0, r0, lsl #10
     60c:	05000076 	streq	r0, [r0, #-118]	; 0xffffff8a
     610:	00906000 	addseq	r6, r0, r0
     614:	0a000500 	beq	1a1c <_Min_Stack_Size+0x161c>
     618:	05000007 	streq	r0, [r0, #-7]
     61c:	00532000 	subseq	r2, r3, r0
     620:	ac000500 	cfstr32ge	mvfx0, [r0], {-0}
     624:	05000041 	streq	r0, [r0, #-65]	; 0xffffffbf
     628:	00823d00 	addeq	r3, r2, r0, lsl #26
     62c:	05000500 	streq	r0, [r0, #-1280]	; 0xfffffb00
     630:	05000089 	streq	r0, [r0, #-137]	; 0xffffff77
     634:	0032d300 	eorseq	sp, r2, r0, lsl #6
     638:	ad000500 	cfstr32ge	mvfx0, [r0, #-0]
     63c:	05000089 	streq	r0, [r0, #-137]	; 0xffffff77
     640:	0087d500 	addeq	sp, r7, r0, lsl #10
     644:	02000500 	andeq	r0, r0, #0, 10
     648:	05000079 	streq	r0, [r0, #-121]	; 0xffffff87
     64c:	000f6300 	andeq	r6, pc, r0, lsl #6
     650:	d4000500 	strle	r0, [r0], #-1280	; 0xfffffb00
     654:	0500004f 	streq	r0, [r0, #-79]	; 0xffffffb1
     658:	0018df00 	andseq	sp, r8, r0, lsl #30
     65c:	81000500 	tsthi	r0, r0, lsl #10
     660:	05000003 	streq	r0, [r0, #-3]
     664:	000a8300 	andeq	r8, sl, r0, lsl #6
     668:	7d000500 	cfstr32vc	mvfx0, [r0, #-0]
     66c:	05000045 	streq	r0, [r0, #-69]	; 0xffffffbb
     670:	00501700 	subseq	r1, r0, r0, lsl #14
     674:	4b000500 	blmi	1a7c <_Min_Stack_Size+0x167c>
     678:	05000080 	streq	r0, [r0, #-128]	; 0xffffff80
     67c:	00008e00 	andeq	r8, r0, r0, lsl #28
     680:	5a000500 	bpl	1a88 <_Min_Stack_Size+0x1688>
     684:	05000056 	streq	r0, [r0, #-86]	; 0xffffffaa
     688:	00015d00 	andeq	r5, r1, r0, lsl #26
     68c:	bc000500 	cfstr32lt	mvfx0, [r0], {-0}
     690:	05000055 	streq	r0, [r0, #-85]	; 0xffffffab
     694:	008ccc00 	addeq	ip, ip, r0, lsl #24
     698:	51000500 	tstpl	r0, r0, lsl #10
     69c:	05000069 	streq	r0, [r0, #-105]	; 0xffffff97
     6a0:	0071b200 	rsbseq	fp, r1, r0, lsl #4
     6a4:	4f000500 	svcmi	0x00000500
     6a8:	05000071 	streq	r0, [r0, #-113]	; 0xffffff8f
     6ac:	003b5900 	eorseq	r5, fp, r0, lsl #18
     6b0:	0b000500 	bleq	1ab8 <_Min_Stack_Size+0x16b8>
     6b4:	05000034 	streq	r0, [r0, #-52]	; 0xffffffcc
     6b8:	00177800 	andseq	r7, r7, r0, lsl #16
     6bc:	2d000500 	cfstr32cs	mvfx0, [r0, #-0]
     6c0:	0500006f 	streq	r0, [r0, #-111]	; 0xffffff91
     6c4:	005d2300 	subseq	r2, sp, r0, lsl #6
     6c8:	7c000500 	cfstr32vc	mvfx0, [r0], {-0}
     6cc:	0500004f 	streq	r0, [r0, #-79]	; 0xffffffb1
     6d0:	00181d00 	andseq	r1, r8, r0, lsl #26
     6d4:	2b000500 	blcs	1adc <_Min_Stack_Size+0x16dc>
     6d8:	05000022 	streq	r0, [r0, #-34]	; 0xffffffde
     6dc:	00443700 	subeq	r3, r4, r0, lsl #14
     6e0:	c5000500 	strgt	r0, [r0, #-1280]	; 0xfffffb00
     6e4:	05000015 	streq	r0, [r0, #-21]	; 0xffffffeb
     6e8:	0017c100 	andseq	ip, r7, r0, lsl #2
     6ec:	39000500 	stmdbcc	r0, {r8, sl}
     6f0:	05000006 	streq	r0, [r0, #-6]
     6f4:	00527900 	subseq	r7, r2, r0, lsl #18
     6f8:	90000500 	andls	r0, r0, r0, lsl #10
     6fc:	0500003d 	streq	r0, [r0, #-61]	; 0xffffffc3
     700:	0028b600 	eoreq	fp, r8, r0, lsl #12
     704:	ef000500 	svc	0x00000500
     708:	0500000f 	streq	r0, [r0, #-15]
     70c:	0042a300 	subeq	sl, r2, r0, lsl #6
     710:	25000500 	strcs	r0, [r0, #-1280]	; 0xfffffb00
     714:	0500002b 	streq	r0, [r0, #-43]	; 0xffffffd5
     718:	002bb700 	eoreq	fp, fp, r0, lsl #14
     71c:	0e000500 	cfsh32eq	mvfx0, mvfx0, #0
     720:	0500000e 	streq	r0, [r0, #-14]
     724:	00373900 	eorseq	r3, r7, r0, lsl #18
     728:	5a000500 	bpl	1b30 <_Min_Stack_Size+0x1730>
     72c:	0500001f 	streq	r0, [r0, #-31]	; 0xffffffe1
     730:	00658b00 	rsbeq	r8, r5, r0, lsl #22
     734:	75000500 	strvc	r0, [r0, #-1280]	; 0xfffffb00
     738:	05000005 	streq	r0, [r0, #-5]
     73c:	0022a400 	eoreq	sl, r2, r0, lsl #8
     740:	67000500 	strvs	r0, [r0, -r0, lsl #10]
     744:	0500005d 	streq	r0, [r0, #-93]	; 0xffffffa3
     748:	0053ee00 	subseq	lr, r3, r0, lsl #28
     74c:	c9000500 	stmdbgt	r0, {r8, sl}
     750:	05000061 	streq	r0, [r0, #-97]	; 0xffffff9f
     754:	00299f00 	eoreq	r9, r9, r0, lsl #30
     758:	74000500 	strvc	r0, [r0], #-1280	; 0xfffffb00
     75c:	05000051 	streq	r0, [r0, #-81]	; 0xffffffaf
     760:	00489b00 	subeq	r9, r8, r0, lsl #22
     764:	c4000500 	strgt	r0, [r0], #-1280	; 0xfffffb00
     768:	05000050 	streq	r0, [r0, #-80]	; 0xffffffb0
     76c:	0061fd00 	rsbeq	pc, r1, r0, lsl #26
     770:	70000500 	andvc	r0, r0, r0, lsl #10
     774:	05000004 	streq	r0, [r0, #-4]
     778:	0058e600 	subseq	lr, r8, r0, lsl #12
     77c:	aa000500 	bge	1b84 <_Min_Stack_Size+0x1784>
     780:	0500005b 	streq	r0, [r0, #-91]	; 0xffffffa5
     784:	000f2600 	andeq	r2, pc, r0, lsl #12
     788:	16000500 	strne	r0, [r0], -r0, lsl #10
     78c:	05000092 	streq	r0, [r0, #-146]	; 0xffffff6e
     790:	006bf000 	rsbeq	pc, fp, r0
     794:	56000500 	strpl	r0, [r0], -r0, lsl #10
     798:	05000068 	streq	r0, [r0, #-104]	; 0xffffff98
     79c:	00765700 	rsbseq	r5, r6, r0, lsl #14
     7a0:	f1000500 			; <UNDEFINED> instruction: 0xf1000500
     7a4:	05000088 	streq	r0, [r0, #-136]	; 0xffffff78
     7a8:	00853100 	addeq	r3, r5, r0, lsl #2
     7ac:	24000500 	strcs	r0, [r0], #-1280	; 0xfffffb00
     7b0:	05000013 	streq	r0, [r0, #-19]	; 0xffffffed
     7b4:	00745800 	rsbseq	r5, r4, r0, lsl #16
     7b8:	98000500 	stmdals	r0, {r8, sl}
     7bc:	0500008c 	streq	r0, [r0, #-140]	; 0xffffff74
     7c0:	000c3e00 	andeq	r3, ip, r0, lsl #28
     7c4:	b1000500 	tstlt	r0, r0, lsl #10
     7c8:	05000046 	streq	r0, [r0, #-70]	; 0xffffffba
     7cc:	00846a00 	addeq	r6, r4, r0, lsl #20
     7d0:	4a000500 	bmi	1bd8 <_Min_Stack_Size+0x17d8>
     7d4:	0500001a 	streq	r0, [r0, #-26]	; 0xffffffe6
     7d8:	00815100 	addeq	r5, r1, r0, lsl #2
     7dc:	12000500 	andne	r0, r0, #0, 10
     7e0:	05000064 	streq	r0, [r0, #-100]	; 0xffffff9c
     7e4:	0067c100 	rsbeq	ip, r7, r0, lsl #2
     7e8:	34000500 	strcc	r0, [r0], #-1280	; 0xfffffb00
     7ec:	05000068 	streq	r0, [r0, #-104]	; 0xffffff98
     7f0:	00756e00 	rsbseq	r6, r5, r0, lsl #28
     7f4:	93000500 	movwls	r0, #1280	; 0x500
     7f8:	05000085 	streq	r0, [r0, #-133]	; 0xffffff7b
     7fc:	00326600 	eorseq	r6, r2, r0, lsl #12
     800:	f0000500 			; <UNDEFINED> instruction: 0xf0000500
     804:	05000055 	streq	r0, [r0, #-85]	; 0xffffffab
     808:	00075700 	andeq	r5, r7, r0, lsl #14
     80c:	1c000500 	cfstr32ne	mvfx0, [r0], {-0}
     810:	05000006 	streq	r0, [r0, #-6]
     814:	0073dc00 	rsbseq	sp, r3, r0, lsl #24
     818:	ca000500 	bgt	1c20 <_Min_Stack_Size+0x1820>
     81c:	05000016 	streq	r0, [r0, #-22]	; 0xffffffea
     820:	00780800 	rsbseq	r0, r8, r0, lsl #16
     824:	7e000500 	cfsh32vc	mvfx0, mvfx0, #0
     828:	05000064 	streq	r0, [r0, #-100]	; 0xffffff9c
     82c:	003d0e00 	eorseq	r0, sp, r0, lsl #28
     830:	f4000500 	vst3.8	{d0,d2,d4}, [r0], r0
     834:	05000086 	streq	r0, [r0, #-134]	; 0xffffff7a
     838:	00481100 	subeq	r1, r8, r0, lsl #2
     83c:	0f000500 	svceq	0x00000500
     840:	05000017 	streq	r0, [r0, #-23]	; 0xffffffe9
     844:	00301f00 	eorseq	r1, r0, r0, lsl #30
     848:	44000500 	strmi	r0, [r0], #-1280	; 0xfffffb00
     84c:	05000045 	streq	r0, [r0, #-69]	; 0xffffffbb
     850:	00568600 	subseq	r8, r6, r0, lsl #12
     854:	63000500 	movwvs	r0, #1280	; 0x500
     858:	05000020 	streq	r0, [r0, #-32]	; 0xffffffe0
     85c:	00123000 	andseq	r3, r2, r0
     860:	fc000500 	stc2	5, cr0, [r0], {-0}
     864:	05000081 	streq	r0, [r0, #-129]	; 0xffffff7f
     868:	0068b300 	rsbeq	fp, r8, r0, lsl #6
     86c:	0d000500 	cfstr32eq	mvfx0, [r0, #-0]
     870:	0500004a 	streq	r0, [r0, #-74]	; 0xffffffb6
     874:	007dbb00 	rsbseq	fp, sp, r0, lsl #22
     878:	ec000500 	cfstr32	mvfx0, [r0], {-0}
     87c:	05000066 	streq	r0, [r0, #-102]	; 0xffffff9a
     880:	00490c00 	subeq	r0, r9, r0, lsl #24
     884:	17000500 	strne	r0, [r0, -r0, lsl #10]
     888:	0500006b 	streq	r0, [r0, #-107]	; 0xffffff95
     88c:	00870f00 	addeq	r0, r7, r0, lsl #30
     890:	1f000500 	svcne	0x00000500
     894:	05000071 	streq	r0, [r0, #-113]	; 0xffffff8f
     898:	003fff00 	eorseq	pc, pc, r0, lsl #30
     89c:	29000500 	stmdbcs	r0, {r8, sl}
     8a0:	05000002 	streq	r0, [r0, #-2]
     8a4:	00381200 	eorseq	r1, r8, r0, lsl #4
     8a8:	84000500 	strhi	r0, [r0], #-1280	; 0xfffffb00
     8ac:	05000069 	streq	r0, [r0, #-105]	; 0xffffff97
     8b0:	0025c700 	eoreq	ip, r5, r0, lsl #14
     8b4:	71000500 	tstvc	r0, r0, lsl #10
     8b8:	05000056 	streq	r0, [r0, #-86]	; 0xffffffaa
     8bc:	0082bf00 	addeq	fp, r2, r0, lsl #30
     8c0:	90000500 	andls	r0, r0, r0, lsl #10
     8c4:	05000005 	streq	r0, [r0, #-5]
     8c8:	002f2400 	eoreq	r2, pc, r0, lsl #8
     8cc:	9f000500 	svcls	0x00000500
     8d0:	05000088 	streq	r0, [r0, #-136]	; 0xffffff78
     8d4:	00707a00 	rsbseq	r7, r0, r0, lsl #20
     8d8:	7d000500 	cfstr32vc	mvfx0, [r0, #-0]
     8dc:	0500008a 	streq	r0, [r0, #-138]	; 0xffffff76
     8e0:	008e7000 	addeq	r7, lr, r0
     8e4:	9e000500 	cfsh32ls	mvfx0, mvfx0, #0
     8e8:	05000010 	streq	r0, [r0, #-16]
     8ec:	00068400 	andeq	r8, r6, r0, lsl #8
     8f0:	5e000500 	cfsh32pl	mvfx0, mvfx0, #0
     8f4:	05000067 	streq	r0, [r0, #-103]	; 0xffffff99
     8f8:	006c1f00 	rsbeq	r1, ip, r0, lsl #30
     8fc:	9d000500 	cfstr32ls	mvfx0, [r0, #-0]
     900:	05000024 	streq	r0, [r0, #-36]	; 0xffffffdc
     904:	00037300 	andeq	r7, r3, r0, lsl #6
     908:	07000500 	streq	r0, [r0, -r0, lsl #10]
     90c:	05000058 	streq	r0, [r0, #-88]	; 0xffffffa8
     910:	0048c900 	subeq	ip, r8, r0, lsl #18
     914:	21000500 	tstcs	r0, r0, lsl #10
     918:	05000011 	streq	r0, [r0, #-17]	; 0xffffffef
     91c:	0067e000 	rsbeq	lr, r7, r0
     920:	54000500 	strpl	r0, [r0], #-1280	; 0xfffffb00
     924:	05000010 	streq	r0, [r0, #-16]
     928:	00719200 	rsbseq	r9, r1, r0, lsl #4
     92c:	01000500 	tsteq	r0, r0, lsl #10
     930:	05000054 	streq	r0, [r0, #-84]	; 0xffffffac
     934:	00448900 	subeq	r8, r4, r0, lsl #18
     938:	73000500 	movwvc	r0, #1280	; 0x500
     93c:	05000069 	streq	r0, [r0, #-105]	; 0xffffff97
     940:	006ef600 	rsbeq	pc, lr, r0, lsl #12
     944:	87000500 	strhi	r0, [r0, -r0, lsl #10]
     948:	05000029 	streq	r0, [r0, #-41]	; 0xffffffd7
     94c:	00129100 	andseq	r9, r2, r0, lsl #2
     950:	0d000500 	cfstr32eq	mvfx0, [r0, #-0]
     954:	0500006f 	streq	r0, [r0, #-111]	; 0xffffff91
     958:	003dae00 	eorseq	sl, sp, r0, lsl #28
     95c:	35000500 	strcc	r0, [r0, #-1280]	; 0xfffffb00
     960:	0500002e 	streq	r0, [r0, #-46]	; 0xffffffd2
     964:	008d3400 	addeq	r3, sp, r0, lsl #8
     968:	b1000500 	tstlt	r0, r0, lsl #10
     96c:	05000033 	streq	r0, [r0, #-51]	; 0xffffffcd
     970:	005f5f00 	subseq	r5, pc, r0, lsl #30
     974:	63000500 	movwvs	r0, #1280	; 0x500
     978:	05000000 	streq	r0, [r0, #-0]
     97c:	00371600 	eorseq	r1, r7, r0, lsl #12
     980:	05000500 	streq	r0, [r0, #-1280]	; 0xfffffb00
     984:	0500005b 	streq	r0, [r0, #-91]	; 0xffffffa5
     988:	00280400 	eoreq	r0, r8, r0, lsl #8
     98c:	c3000500 	movwgt	r0, #1280	; 0x500
     990:	05000018 	streq	r0, [r0, #-24]	; 0xffffffe8
     994:	00798300 	rsbseq	r8, r9, r0, lsl #6
     998:	7a000500 	bvc	1da0 <_Min_Stack_Size+0x19a0>
     99c:	0500001e 	streq	r0, [r0, #-30]	; 0xffffffe2
     9a0:	0080b800 	addeq	fp, r0, r0, lsl #16
     9a4:	0b000500 	bleq	1dac <_Min_Stack_Size+0x19ac>
     9a8:	05000076 	streq	r0, [r0, #-118]	; 0xffffff8a
     9ac:	0038c000 	eorseq	ip, r8, r0
     9b0:	ce000500 	cfsh32gt	mvfx0, mvfx0, #0
     9b4:	05000086 	streq	r0, [r0, #-134]	; 0xffffff7a
     9b8:	007a0000 	rsbseq	r0, sl, r0
     9bc:	f9000500 			; <UNDEFINED> instruction: 0xf9000500
     9c0:	05000000 	streq	r0, [r0, #-0]
     9c4:	000bc500 	andeq	ip, fp, r0, lsl #10
     9c8:	20000500 	andcs	r0, r0, r0, lsl #10
     9cc:	05000028 	streq	r0, [r0, #-40]	; 0xffffffd8
     9d0:	00642400 	rsbeq	r2, r4, r0, lsl #8
     9d4:	2a000500 	bcs	1ddc <_Min_Stack_Size+0x19dc>
     9d8:	0500004a 	streq	r0, [r0, #-74]	; 0xffffffb6
     9dc:	007ee300 	rsbseq	lr, lr, r0, lsl #6
     9e0:	6f000500 	svcvs	0x00000500
     9e4:	05000043 	streq	r0, [r0, #-67]	; 0xffffffbd
     9e8:	001fde00 	andseq	sp, pc, r0, lsl #28
     9ec:	d8000500 	stmdale	r0, {r8, sl}
     9f0:	05000000 	streq	r0, [r0, #-0]
     9f4:	0030d200 	eorseq	sp, r0, r0, lsl #4
     9f8:	d6000500 	strle	r0, [r0], -r0, lsl #10
     9fc:	05000072 	streq	r0, [r0, #-114]	; 0xffffff8e
     a00:	0048ee00 	subeq	lr, r8, r0, lsl #28
     a04:	b4000500 	strlt	r0, [r0], #-1280	; 0xfffffb00
     a08:	05000029 	streq	r0, [r0, #-41]	; 0xffffffd7
     a0c:	00328f00 	eorseq	r8, r2, r0, lsl #30
     a10:	1e000500 	cfsh32ne	mvfx0, mvfx0, #0
     a14:	0500003a 	streq	r0, [r0, #-58]	; 0xffffffc6
     a18:	0063f200 	rsbeq	pc, r3, r0, lsl #4
     a1c:	60000500 	andvs	r0, r0, r0, lsl #10
     a20:	0500003d 	streq	r0, [r0, #-61]	; 0xffffffc3
     a24:	0035ed00 	eorseq	lr, r5, r0, lsl #26
     a28:	d3000500 	movwle	r0, #1280	; 0x500
     a2c:	05000064 	streq	r0, [r0, #-100]	; 0xffffff9c
     a30:	00819a00 	addeq	r9, r1, r0, lsl #20
     a34:	06000500 	streq	r0, [r0], -r0, lsl #10
     a38:	06000059 			; <UNDEFINED> instruction: 0x06000059
     a3c:	004e8100 	subeq	r8, lr, r0, lsl #2
     a40:	3f000500 	svccc	0x00000500
     a44:	0500003a 	streq	r0, [r0, #-58]	; 0xffffffc6
     a48:	007d4d00 	rsbseq	r4, sp, r0, lsl #26
     a4c:	be000600 	cfmadd32lt	mvax0, mvfx0, mvfx0, mvfx0
     a50:	05000064 	streq	r0, [r0, #-100]	; 0xffffff9c
     a54:	0081ae00 	addeq	sl, r1, r0, lsl #28
     a58:	3c000600 	stccc	6, cr0, [r0], {-0}
     a5c:	06000060 	streq	r0, [r0], -r0, rrx
     a60:	0080c800 	addeq	ip, r0, r0, lsl #16
     a64:	ea000600 	b	226c <_Min_Stack_Size+0x1e6c>
     a68:	06000083 	streq	r0, [r0], -r3, lsl #1
     a6c:	003a7b00 	eorseq	r7, sl, r0, lsl #22
     a70:	db000500 	blle	1e78 <_Min_Stack_Size+0x1a78>
     a74:	06000061 	streq	r0, [r0], -r1, rrx
     a78:	003e0200 	eorseq	r0, lr, r0, lsl #4
     a7c:	bd000600 	stclt	6, cr0, [r0, #-0]
     a80:	06000049 	streq	r0, [r0], -r9, asr #32
     a84:	00577200 	subseq	r7, r7, r0, lsl #4
     a88:	4e000500 	cfsh32mi	mvfx0, mvfx0, #0
     a8c:	0500008c 	streq	r0, [r0, #-140]	; 0xffffff74
     a90:	003a5400 	eorseq	r5, sl, r0, lsl #8
     a94:	19000600 	stmdbne	r0, {r9, sl}
     a98:	06000072 			; <UNDEFINED> instruction: 0x06000072
     a9c:	008cb700 	addeq	fp, ip, r0, lsl #14
     aa0:	f5000500 			; <UNDEFINED> instruction: 0xf5000500
     aa4:	0500005c 	streq	r0, [r0, #-92]	; 0xffffffa4
     aa8:	003b4200 	eorseq	r4, fp, r0, lsl #4
     aac:	94000600 	strls	r0, [r0], #-1536	; 0xfffffa00
     ab0:	05000050 	streq	r0, [r0, #-80]	; 0xffffffb0
     ab4:	00204d00 	eoreq	r4, r0, r0, lsl #26
     ab8:	5d000500 	cfstr32pl	mvfx0, [r0, #-0]
     abc:	0600005d 			; <UNDEFINED> instruction: 0x0600005d
     ac0:	008b8c00 	addeq	r8, fp, r0, lsl #24
     ac4:	6f000500 	svcvs	0x00000500
     ac8:	05000049 	streq	r0, [r0, #-73]	; 0xffffffb7
     acc:	00411d00 	subeq	r1, r1, r0, lsl #26
     ad0:	ce000500 	cfsh32gt	mvfx0, mvfx0, #0
     ad4:	05000085 	streq	r0, [r0, #-133]	; 0xffffff7b
     ad8:	00891e00 	addeq	r1, r9, r0, lsl #28
     adc:	00000500 	andeq	r0, r0, r0, lsl #10
     ae0:	05000084 	streq	r0, [r0, #-132]	; 0xffffff7c
     ae4:	00703700 	rsbseq	r3, r0, r0, lsl #14
     ae8:	13000600 	movwne	r0, #1536	; 0x600
     aec:	05000031 	streq	r0, [r0, #-49]	; 0xffffffcf
     af0:	00607300 	rsbeq	r7, r0, r0, lsl #6
     af4:	88000500 	stmdahi	r0, {r8, sl}
     af8:	05000070 	streq	r0, [r0, #-112]	; 0xffffff90
     afc:	003ede00 	eorseq	sp, lr, r0, lsl #28
     b00:	87000500 	strhi	r0, [r0, -r0, lsl #10]
     b04:	06000031 			; <UNDEFINED> instruction: 0x06000031
     b08:	004e1d00 	subeq	r1, lr, r0, lsl #26
     b0c:	3f000600 	svccc	0x00000600
     b10:	0600003e 			; <UNDEFINED> instruction: 0x0600003e
     b14:	005e0f00 	subseq	r0, lr, r0, lsl #30
     b18:	71000600 	tstvc	r0, r0, lsl #12
     b1c:	06000058 			; <UNDEFINED> instruction: 0x06000058
     b20:	00738e00 	rsbseq	r8, r3, r0, lsl #28
     b24:	46000600 	strmi	r0, [r0], -r0, lsl #12
     b28:	0600001b 			; <UNDEFINED> instruction: 0x0600001b
     b2c:	0036ff00 	eorseq	pc, r6, r0, lsl #30
     b30:	a1000600 	tstge	r0, r0, lsl #12
     b34:	06000068 	streq	r0, [r0], -r8, rrx
     b38:	0019dc00 	andseq	sp, r9, r0, lsl #24
     b3c:	2c000600 	stccs	6, cr0, [r0], {-0}
     b40:	0600002c 	streq	r0, [r0], -ip, lsr #32
     b44:	00534b00 	subseq	r4, r3, r0, lsl #22
     b48:	88000500 	stmdahi	r0, {r8, sl}
     b4c:	05000010 	streq	r0, [r0, #-16]
     b50:	00186600 	andseq	r6, r8, r0, lsl #12
     b54:	3d000500 	cfstr32cc	mvfx0, [r0, #-0]
     b58:	05000034 	streq	r0, [r0, #-52]	; 0xffffffcc
     b5c:	006fd000 	rsbeq	sp, pc, r0
     b60:	95000600 	strls	r0, [r0, #-1536]	; 0xfffffa00
     b64:	05000029 	streq	r0, [r0, #-41]	; 0xffffffd7
     b68:	00342500 	eorseq	r2, r4, r0, lsl #10
     b6c:	4e000500 	cfsh32mi	mvfx0, mvfx0, #0
     b70:	05000059 	streq	r0, [r0, #-89]	; 0xffffffa7
     b74:	00839c00 	addeq	r9, r3, r0, lsl #24
     b78:	ec000600 	stc	6, cr0, [r0], {-0}
     b7c:	0500007a 	streq	r0, [r0, #-122]	; 0xffffff86
     b80:	000cc500 	andeq	ip, ip, r0, lsl #10
     b84:	f6000600 			; <UNDEFINED> instruction: 0xf6000600
     b88:	06000077 			; <UNDEFINED> instruction: 0x06000077
     b8c:	00932a00 	addseq	r2, r3, r0, lsl #20
     b90:	ed000600 	stc	6, cr0, [r0, #-0]
     b94:	06000032 			; <UNDEFINED> instruction: 0x06000032
     b98:	00065f00 	andeq	r5, r6, r0, lsl #30
     b9c:	2b000600 	blcs	23a4 <_Min_Stack_Size+0x1fa4>
     ba0:	06000041 	streq	r0, [r0], -r1, asr #32
     ba4:	006c2d00 	rsbeq	r2, ip, r0, lsl #26
     ba8:	17000500 	strne	r0, [r0, -r0, lsl #10]
     bac:	05000000 	streq	r0, [r0, #-0]
     bb0:	0032b300 	eorseq	fp, r2, r0, lsl #6
     bb4:	f9000500 			; <UNDEFINED> instruction: 0xf9000500
     bb8:	0500007c 	streq	r0, [r0, #-124]	; 0xffffff84
     bbc:	005fb200 	subseq	fp, pc, r0, lsl #4
     bc0:	b6000500 	strlt	r0, [r0], -r0, lsl #10
     bc4:	0500008e 	streq	r0, [r0, #-142]	; 0xffffff72
     bc8:	00557b00 	subseq	r7, r5, r0, lsl #22
     bcc:	46000500 	strmi	r0, [r0], -r0, lsl #10
     bd0:	00000016 	andeq	r0, r0, r6, lsl r0
     bd4:	05000004 	streq	r0, [r0, #-4]
     bd8:	003d3e09 	eorseq	r3, sp, r9, lsl #28
     bdc:	130c0500 	movwne	r0, #50432	; 0xc500
     be0:	05000024 	streq	r0, [r0, #-36]	; 0xffffffdc
     be4:	0032c20d 	eorseq	ip, r2, sp, lsl #4
     be8:	00040000 	andeq	r0, r4, r0
     bec:	3c4d0500 	cfstr64cc	mvdx0, [sp], {-0}
     bf0:	0500005b 	streq	r0, [r0, #-91]	; 0xffffffa5
     bf4:	5a2003f0 	bpl	801bbc <_Min_Stack_Size+0x8017bc>
     bf8:	f3050000 	vhadd.u8	d0, d5, d0
     bfc:	00330703 	eorseq	r0, r3, r3, lsl #14
     c00:	00040000 	andeq	r0, r4, r0
     c04:	d8040500 	stmdale	r4, {r8, sl}
     c08:	05000048 	streq	r0, [r0, #-72]	; 0xffffffb8
     c0c:	008ceb06 	addeq	lr, ip, r6, lsl #22
     c10:	51070500 	tstpl	r7, r0, lsl #10
     c14:	0500001e 	streq	r0, [r0, #-30]	; 0xffffffe2
     c18:	00559308 	subseq	r9, r5, r8, lsl #6
     c1c:	bb090500 	bllt	242024 <_Min_Stack_Size+0x241c24>
     c20:	00000065 	andeq	r0, r0, r5, rrx
     c24:	05000004 	streq	r0, [r0, #-4]
     c28:	0051f422 	subseq	pc, r1, r2, lsr #8
     c2c:	f7250500 			; <UNDEFINED> instruction: 0xf7250500
     c30:	05000085 	streq	r0, [r0, #-133]	; 0xffffff7b
     c34:	002df12b 	eoreq	pc, sp, fp, lsr #2
     c38:	07350500 	ldreq	r0, [r5, -r0, lsl #10]!
     c3c:	05000077 	streq	r0, [r0, #-119]	; 0xffffff89
     c40:	00492339 	subeq	r2, r9, r9, lsr r3
     c44:	2c3c0500 	cfldr32cs	mvfx0, [ip], #-0
     c48:	0500001f 	streq	r0, [r0, #-31]	; 0xffffffe1
     c4c:	0060503f 	rsbeq	r5, r0, pc, lsr r0
     c50:	75420500 	strbvc	r0, [r2, #-1280]	; 0xfffffb00
     c54:	0500000c 	streq	r0, [r0, #-12]
     c58:	007aa451 	rsbseq	sl, sl, r1, asr r4
     c5c:	f7540500 			; <UNDEFINED> instruction: 0xf7540500
     c60:	0500003c 	streq	r0, [r0, #-60]	; 0xffffffc4
     c64:	0090275c 	addseq	r2, r0, ip, asr r7
     c68:	045f0500 	ldrbeq	r0, [pc], #-1280	; c70 <_Min_Stack_Size+0x870>
     c6c:	0000007c 	andeq	r0, r0, ip, ror r0
     c70:	05000004 	streq	r0, [r0, #-4]
     c74:	00266216 	eoreq	r6, r6, r6, lsl r2
     c78:	f6210500 			; <UNDEFINED> instruction: 0xf6210500
     c7c:	05000014 	streq	r0, [r0, #-20]	; 0xffffffec
     c80:	00808b28 	addeq	r8, r0, r8, lsr #22
     c84:	01830600 	orreq	r0, r3, r0, lsl #12
     c88:	0000841a 	andeq	r8, r0, sl, lsl r4
     c8c:	84018405 	strhi	r8, [r1], #-1029	; 0xfffffbfb
     c90:	06000041 	streq	r0, [r0], -r1, asr #32
     c94:	3e930188 	fmlccd	f0, f3, #0.0
     c98:	89050000 	stmdbhi	r5, {}	; <UNPREDICTABLE>
     c9c:	00862301 	addeq	r2, r6, r1, lsl #6
     ca0:	018a0600 	orreq	r0, sl, r0, lsl #12
     ca4:	0000914c 	andeq	r9, r0, ip, asr #2
     ca8:	6b018b05 	blvs	638c4 <_Min_Stack_Size+0x634c4>
     cac:	0600001b 			; <UNDEFINED> instruction: 0x0600001b
     cb0:	3974019e 	ldmdbcc	r4!, {r1, r2, r3, r4, r7, r8}^
     cb4:	9f050000 	svcls	0x00050000
     cb8:	0052b701 	subseq	fp, r2, r1, lsl #14
     cbc:	01f70500 	mvnseq	r0, r0, lsl #10
     cc0:	00005b6d 	andeq	r5, r0, sp, ror #22
     cc4:	ef01fd05 	svc	0x0001fd05
     cc8:	05000050 	streq	r0, [r0, #-80]	; 0xffffffb0
     ccc:	676d0285 	strbvs	r0, [sp, -r5, lsl #5]!
     cd0:	8a050000 	bhi	140cd8 <_Min_Stack_Size+0x1408d8>
     cd4:	005dd402 	subseq	sp, sp, r2, lsl #8
     cd8:	02950500 	addseq	r0, r5, #0, 10
     cdc:	00001e23 	andeq	r1, r0, r3, lsr #28
     ce0:	b0029905 	andlt	r9, r2, r5, lsl #18
     ce4:	05000063 	streq	r0, [r0, #-99]	; 0xffffff9d
     ce8:	53c1029f 	bicpl	r0, r1, #-268435447	; 0xf0000009
     cec:	af050000 	svcge	0x00050000
     cf0:	00007202 	andeq	r7, r0, r2, lsl #4
     cf4:	02bf0500 	adcseq	r0, pc, #0, 10
     cf8:	00007fa5 	andeq	r7, r0, r5, lsr #31
     cfc:	7302ca05 	movwvc	ip, #10757	; 0x2a05
     d00:	0000007f 	andeq	r0, r0, pc, ror r0
     d04:	05000004 	streq	r0, [r0, #-4]
     d08:	5d1101e0 	ldfpls	f0, [r1, #-896]	; 0xfffffc80
     d0c:	e6060000 	str	r0, [r6], -r0
     d10:	003eaa01 	eorseq	sl, lr, r1, lsl #20
     d14:	01ea0500 	mvneq	r0, r0, lsl #10
     d18:	0000135f 	andeq	r1, r0, pc, asr r3
     d1c:	f301fa05 	vpmax.u8	d15, d1, d5
     d20:	05000059 	streq	r0, [r0, #-89]	; 0xffffffa7
     d24:	5ac701fe 	bpl	ff1c1524 <_estack+0xdf1bed24>
     d28:	85050000 	strhi	r0, [r5, #-0]
     d2c:	00231a02 	eoreq	r1, r3, r2, lsl #20
     d30:	028b0500 	addeq	r0, fp, #0, 10
     d34:	00005a4c 	andeq	r5, r0, ip, asr #20
     d38:	b1029805 	tstlt	r2, r5, lsl #16
     d3c:	00000082 	andeq	r0, r0, r2, lsl #1
     d40:	05000004 	streq	r0, [r0, #-4]
     d44:	005bc71f 	subseq	ip, fp, pc, lsl r7
     d48:	90200500 	eorls	r0, r0, r0, lsl #10
     d4c:	0500002f 	streq	r0, [r0, #-47]	; 0xffffffd1
     d50:	00535921 	subseq	r5, r3, r1, lsr #18
     d54:	ff250500 			; <UNDEFINED> instruction: 0xff250500
     d58:	05000002 	streq	r0, [r0, #-2]
     d5c:	007ac42b 	rsbseq	ip, sl, fp, lsr #8
     d60:	ea450500 	b	1142168 <_Min_Stack_Size+0x1141d68>
     d64:	05000010 	streq	r0, [r0, #-16]
     d68:	00189a49 	andseq	r9, r8, r9, asr #20
     d6c:	364a0500 	strbcc	r0, [sl], -r0, lsl #10
     d70:	00000074 	andeq	r0, r0, r4, ror r0
     d74:	05000004 	streq	r0, [r0, #-4]
     d78:	0029780d 	eoreq	r7, r9, sp, lsl #16
     d7c:	4d0e0500 	cfstr32mi	mvfx0, [lr, #-0]
     d80:	05000028 	streq	r0, [r0, #-40]	; 0xffffffd8
     d84:	0041600f 	subeq	r6, r1, pc
     d88:	00040000 	andeq	r0, r4, r0
     d8c:	01b50500 			; <UNDEFINED> instruction: 0x01b50500
     d90:	000018d3 	ldrdeq	r1, [r0], -r3
     d94:	2101b605 	tstcs	r1, r5, lsl #12
     d98:	0500000d 	streq	r0, [r0, #-13]
     d9c:	843701b7 	ldrthi	r0, [r7], #-439	; 0xfffffe49
     da0:	b8050000 	stmdalt	r5, {}	; <UNPREDICTABLE>
     da4:	00160801 	andseq	r0, r6, r1, lsl #16
     da8:	01b90500 			; <UNDEFINED> instruction: 0x01b90500
     dac:	00003f12 	andeq	r3, r0, r2, lsl pc
     db0:	9c01ba05 			; <UNDEFINED> instruction: 0x9c01ba05
     db4:	0500002f 	streq	r0, [r0, #-47]	; 0xffffffd1
     db8:	627301bb 	rsbsvs	r0, r3, #-1073741778	; 0xc000002e
     dbc:	bc050000 	stclt	0, cr0, [r5], {-0}
     dc0:	006d5501 	rsbeq	r5, sp, r1, lsl #10
     dc4:	01bd0500 			; <UNDEFINED> instruction: 0x01bd0500
     dc8:	00006d51 	andeq	r6, r0, r1, asr sp
     dcc:	c101be05 	tstgt	r1, r5, lsl #28
     dd0:	05000021 	streq	r0, [r0, #-33]	; 0xffffffdf
     dd4:	674d01bf 			; <UNDEFINED> instruction: 0x674d01bf
     dd8:	c0050000 	andgt	r0, r5, r0
     ddc:	0021bd01 	eoreq	fp, r1, r1, lsl #26
     de0:	01c10500 	biceq	r0, r1, r0, lsl #10
     de4:	00001b12 	andeq	r1, r0, r2, lsl fp
     de8:	f501c205 			; <UNDEFINED> instruction: 0xf501c205
     dec:	05000021 	streq	r0, [r0, #-33]	; 0xffffffdf
     df0:	843301c3 	ldrthi	r0, [r3], #-451	; 0xfffffe3d
     df4:	c4050000 	strgt	r0, [r5], #-0
     df8:	0055b301 	subseq	fp, r5, r1, lsl #6
     dfc:	01cb0500 	biceq	r0, fp, r0, lsl #10
     e00:	00000f7f 	andeq	r0, r0, pc, ror pc
     e04:	3b01e706 	blcc	7aa24 <_Min_Stack_Size+0x7a624>
     e08:	05000049 	streq	r0, [r0, #-73]	; 0xffffffb7
     e0c:	4a480284 	bmi	1201824 <_Min_Stack_Size+0x1201424>
     e10:	85050000 	strhi	r0, [r5, #-0]
     e14:	00592702 	subseq	r2, r9, r2, lsl #14
     e18:	02860500 	addeq	r0, r6, #0, 10
     e1c:	000059ac 	andeq	r5, r0, ip, lsr #19
     e20:	83028705 	movwhi	r8, #9989	; 0x2705
     e24:	05000084 	streq	r0, [r0, #-132]	; 0xffffff7c
     e28:	154a0288 	strbne	r0, [sl, #-648]	; 0xfffffd78
     e2c:	89050000 	stmdbhi	r5, {}	; <UNPREDICTABLE>
     e30:	004feb02 	subeq	lr, pc, r2, lsl #22
     e34:	028a0500 	addeq	r0, sl, #0, 10
     e38:	00003588 	andeq	r3, r0, r8, lsl #11
     e3c:	84028b05 	strhi	r8, [r2], #-2821	; 0xfffff4fb
     e40:	05000035 	streq	r0, [r0, #-53]	; 0xffffffcb
     e44:	8ea3028c 	cdphi	2, 10, cr0, cr3, cr12, {4}
     e48:	8d050000 	stchi	0, cr0, [r5, #-0]
     e4c:	006b0502 	rsbeq	r0, fp, r2, lsl #10
     e50:	028e0500 	addeq	r0, lr, #0, 10
     e54:	00006f21 	andeq	r6, r0, r1, lsr #30
     e58:	c5028f05 	strgt	r8, [r2, #-3845]	; 0xfffff0fb
     e5c:	0500000f 	streq	r0, [r0, #-15]
     e60:	6f1c0290 	svcvs	0x001c0290
     e64:	91050000 	mrsls	r0, (UNDEF: 5)
     e68:	0059a802 	subseq	sl, r9, r2, lsl #16
     e6c:	02920500 	addseq	r0, r2, #0, 10
     e70:	000056a9 	andeq	r5, r0, r9, lsr #13
     e74:	0d029f06 	stceq	15, cr9, [r2, #-24]	; 0xffffffe8
     e78:	06000085 	streq	r0, [r0], -r5, lsl #1
     e7c:	0e4f02d4 	mcreq	2, 2, r0, cr15, cr4, {6}
     e80:	86060000 	strhi	r0, [r6], -r0
     e84:	00384303 	eorseq	r4, r8, r3, lsl #6
     e88:	038b0500 	orreq	r0, fp, #0, 10
     e8c:	00003757 	andeq	r3, r0, r7, asr r7
     e90:	3c039106 	stfccd	f1, [r3], {6}
     e94:	00000038 	andeq	r0, r0, r8, lsr r0
     e98:	05000004 	streq	r0, [r0, #-4]
     e9c:	0046ca27 	subeq	ip, r6, r7, lsr #20
     ea0:	0f280500 	svceq	0x00280500
     ea4:	05000062 	streq	r0, [r0, #-98]	; 0xffffff9e
     ea8:	0046c52a 	subeq	ip, r6, sl, lsr #10
     eac:	01830500 	orreq	r0, r3, r0, lsl #10
     eb0:	00005f16 	andeq	r5, r0, r6, lsl pc
     eb4:	fc018405 	stc2	4, cr8, [r1], {5}
     eb8:	05000045 	streq	r0, [r0, #-69]	; 0xffffffbb
     ebc:	57fb0185 	ldrbpl	r0, [fp, r5, lsl #3]!
     ec0:	86050000 	strhi	r0, [r5], -r0
     ec4:	0067d301 	rsbeq	sp, r7, r1, lsl #6
     ec8:	01870500 	orreq	r0, r7, r0, lsl #10
     ecc:	00000eff 	strdeq	r0, [r0], -pc	; <UNPREDICTABLE>
     ed0:	fb018805 	blx	62eee <_Min_Stack_Size+0x62aee>
     ed4:	0500000e 	streq	r0, [r0, #-14]
     ed8:	1afe0189 	bne	fff81504 <_estack+0xdff7ed04>
     edc:	8a050000 	bhi	140ee4 <_Min_Stack_Size+0x140ae4>
     ee0:	005f1201 	subseq	r1, pc, r1, lsl #4
     ee4:	018b0500 	orreq	r0, fp, r0, lsl #10
     ee8:	00005af0 	strdeq	r5, [r0], -r0
     eec:	25019b06 	strcs	r9, [r1, #-2822]	; 0xfffff4fa
     ef0:	0600007d 			; <UNDEFINED> instruction: 0x0600007d
     ef4:	493b01e7 	ldmdbmi	fp!, {r0, r1, r2, r5, r6, r7, r8}
     ef8:	d4060000 	strle	r0, [r6], #-0
     efc:	000e4f02 	andeq	r4, lr, r2, lsl #30
     f00:	03860600 	orreq	r0, r6, #0, 12
     f04:	00003843 	andeq	r3, r0, r3, asr #16
     f08:	57038b05 	strpl	r8, [r3, -r5, lsl #22]
     f0c:	06000037 			; <UNDEFINED> instruction: 0x06000037
     f10:	383c0391 	ldmdacc	ip!, {r0, r4, r7, r8, r9}
     f14:	96050000 	strls	r0, [r5], -r0
     f18:	00420803 	subeq	r0, r2, r3, lsl #16
     f1c:	039b0500 	orrseq	r0, fp, #0, 10
     f20:	00007370 	andeq	r7, r0, r0, ror r3
     f24:	00000400 	andeq	r0, r0, r0, lsl #8
     f28:	82d81405 	sbcshi	r1, r8, #83886080	; 0x5000000
     f2c:	16050000 	strne	r0, [r5], -r0
     f30:	00002978 	andeq	r2, r0, r8, ror r9
     f34:	86e51705 	strbthi	r1, [r5], r5, lsl #14
     f38:	04000000 	streq	r0, [r0], #-0
     f3c:	9b060000 	blls	180f44 <_Min_Stack_Size+0x180b44>
     f40:	007d2501 	rsbseq	r2, sp, r1, lsl #10
     f44:	01e70600 	mvneq	r0, r0, lsl #12
     f48:	0000493b 	andeq	r4, r0, fp, lsr r9
     f4c:	4f02d406 	svcmi	0x0002d406
     f50:	0500000e 	streq	r0, [r0, #-14]
     f54:	28fb02d9 	ldmcs	fp!, {r0, r3, r4, r6, r7, r9}^
     f58:	e0060000 	and	r0, r6, r0
     f5c:	00237f02 	eoreq	r7, r3, r2, lsl #30
     f60:	03860600 	orreq	r0, r6, #0, 12
     f64:	00003843 	andeq	r3, r0, r3, asr #16
     f68:	57038b05 	strpl	r8, [r3, -r5, lsl #22]
     f6c:	06000037 			; <UNDEFINED> instruction: 0x06000037
     f70:	383c0391 	ldmdacc	ip!, {r0, r4, r7, r8, r9}
     f74:	96050000 	strls	r0, [r5], -r0
     f78:	00420803 	subeq	r0, r2, r3, lsl #16
     f7c:	00040000 	andeq	r0, r4, r0
     f80:	df060500 	svcle	0x00060500
     f84:	0500005e 	streq	r0, [r0, #-94]	; 0xffffffa2
     f88:	0052e40f 	subseq	lr, r2, pc, lsl #8
     f8c:	d81a0500 	ldmdale	sl, {r8, sl}
     f90:	05000069 	streq	r0, [r0, #-105]	; 0xffffff97
     f94:	007d6121 	rsbseq	r6, sp, r1, lsr #2
     f98:	7c2f0500 	cfstr32vc	mvfx0, [pc], #-0	; fa0 <_Min_Stack_Size+0xba0>
     f9c:	0500003d 	streq	r0, [r0, #-61]	; 0xffffffc3
     fa0:	006fa13d 	rsbeq	sl, pc, sp, lsr r1	; <UNPREDICTABLE>
     fa4:	40530500 	subsmi	r0, r3, r0, lsl #10
     fa8:	05000050 	streq	r0, [r0, #-80]	; 0xffffffb0
     fac:	0063c76d 	rsbeq	ip, r3, sp, ror #14
     fb0:	018c0500 	orreq	r0, ip, r0, lsl #10
     fb4:	00005934 	andeq	r5, r0, r4, lsr r9
     fb8:	4b01a605 	blmi	6a7d4 <_Min_Stack_Size+0x6a3d4>
     fbc:	05000018 	streq	r0, [r0, #-24]	; 0xffffffe8
     fc0:	37f701bc 			; <UNDEFINED> instruction: 0x37f701bc
     fc4:	ce050000 	cdpgt	0, 0, cr0, cr5, cr0, {0}
     fc8:	00519001 	subseq	r9, r1, r1
     fcc:	01f40600 	mvnseq	r0, r0, lsl #12
     fd0:	000063c1 	andeq	r6, r0, r1, asr #7
     fd4:	00000400 	andeq	r0, r0, r0, lsl #8
     fd8:	66237f06 	strtvs	r7, [r3], -r6, lsl #30
     fdc:	92050000 	andls	r0, r5, #0
     fe0:	003ae401 	eorseq	lr, sl, r1, lsl #8
     fe4:	01940600 	orrseq	r0, r4, r0, lsl #12
     fe8:	00007863 	andeq	r7, r0, r3, ror #16
     fec:	2e01b305 	cdpcs	3, 0, cr11, cr1, cr5, {0}
     ff0:	0500001d 	streq	r0, [r0, #-29]	; 0xffffffe3
     ff4:	1d4601bb 	stfnee	f0, [r6, #-748]	; 0xfffffd14
     ff8:	c0050000 	andgt	r0, r5, r0
     ffc:	006edc01 	rsbeq	sp, lr, r1, lsl #24
    1000:	01c50500 	biceq	r0, r5, r0, lsl #10
    1004:	000040cd 	andeq	r4, r0, sp, asr #1
    1008:	00000400 	andeq	r0, r0, r0, lsl #8
    100c:	7cb91105 	ldfvcs	f1, [r9], #20
    1010:	15050000 	strne	r0, [r5, #-0]
    1014:	00007382 	andeq	r7, r0, r2, lsl #7
    1018:	00000400 	andeq	r0, r0, r0, lsl #8
    101c:	92830205 	addls	r0, r3, #1342177280	; 0x50000000
    1020:	23050000 	movwcs	r0, #20480	; 0x5000
    1024:	00001ee6 	andeq	r1, r0, r6, ror #29
    1028:	02802505 	addeq	r2, r0, #20971520	; 0x1400000
    102c:	27050000 	strcs	r0, [r5, -r0]
    1030:	000070e5 	andeq	r7, r0, r5, ror #1
    1034:	17222a05 	strne	r2, [r2, -r5, lsl #20]!
    1038:	2c050000 	stccs	0, cr0, [r5], {-0}
    103c:	00008dee 	andeq	r8, r0, lr, ror #27
    1040:	8a4e2e05 	bhi	138c85c <_Min_Stack_Size+0x138c45c>
    1044:	30050000 	andcc	r0, r5, r0
    1048:	00004013 	andeq	r4, r0, r3, lsl r0
    104c:	65d33205 	ldrbvs	r3, [r3, #517]	; 0x205
    1050:	34050000 	strcc	r0, [r5], #-0
    1054:	00002c97 	muleq	r0, r7, ip
    1058:	6a383605 	bvs	e0e874 <_Min_Stack_Size+0xe0e474>
    105c:	38050000 	stmdacc	r5, {}	; <UNPREDICTABLE>
    1060:	00002da2 	andeq	r2, r0, r2, lsr #27
    1064:	16dc3b05 	ldrbne	r3, [ip], r5, lsl #22
    1068:	3d050000 	stccc	0, cr0, [r5, #-0]
    106c:	000020e9 	andeq	r2, r0, r9, ror #1
    1070:	00000400 	andeq	r0, r0, r0, lsl #8
    1074:	6c7c4d05 	ldclvs	13, cr4, [ip], #-20	; 0xffffffec
    1078:	60050000 	andvs	r0, r5, r0
    107c:	000082e7 	andeq	r8, r0, r7, ror #5
    1080:	80776d05 	rsbshi	r6, r7, r5, lsl #26
    1084:	af050000 	svcge	0x00050000
    1088:	008fab01 	addeq	sl, pc, r1, lsl #22
    108c:	02bd0500 	adcseq	r0, sp, #0, 10
    1090:	00007314 	andeq	r7, r0, r4, lsl r3
    1094:	7102be05 	tstvc	r2, r5, lsl #28
    1098:	05000044 	streq	r0, [r0, #-68]	; 0xffffffbc
    109c:	203502bf 	ldrhtcs	r0, [r5], -pc
    10a0:	c0050000 	andgt	r0, r5, r0
    10a4:	007b5902 	rsbseq	r5, fp, r2, lsl #18
    10a8:	02c10500 	sbceq	r0, r1, #0, 10
    10ac:	00007236 	andeq	r7, r0, r6, lsr r2
    10b0:	5a02c205 	bpl	b18cc <_Min_Stack_Size+0xb14cc>
    10b4:	05000057 	streq	r0, [r0, #-87]	; 0xffffffa9
    10b8:	8c2002c3 	sfmhi	f0, 4, [r0], #-780	; 0xfffffcf4
    10bc:	cf050000 	svcgt	0x00050000
    10c0:	00115702 	andseq	r5, r1, r2, lsl #14
    10c4:	02d00500 	sbcseq	r0, r0, #0, 10
    10c8:	000090c9 	andeq	r9, r0, r9, asr #1
    10cc:	e302d105 	movw	sp, #8453	; 0x2105
    10d0:	05000003 	streq	r0, [r0, #-3]
    10d4:	5bff03d3 	blpl	fffc2028 <_estack+0xdffbf828>
    10d8:	ed050000 	stc	0, cr0, [r5, #-0]
    10dc:	007e1403 	rsbseq	r1, lr, r3, lsl #8
    10e0:	00040000 	andeq	r0, r4, r0
    10e4:	de0b0600 	cfmadd32le	mvax0, mvfx0, mvfx11, mvfx0
    10e8:	05000070 	streq	r0, [r0, #-112]	; 0xffffff90
    10ec:	00465910 	subeq	r5, r6, r0, lsl r9
    10f0:	4f1a0500 	svcmi	0x001a0500
    10f4:	05000051 	streq	r0, [r0, #-81]	; 0xffffffaf
    10f8:	0070c82d 	rsbseq	ip, r0, sp, lsr #16
    10fc:	00040000 	andeq	r0, r4, r0
    1100:	03f80500 	mvnseq	r0, #0, 10
    1104:	00005fd1 	ldrdeq	r5, [r0], -r1
    1108:	41048205 	tstmi	r4, r5, lsl #4
    110c:	05000014 	streq	r0, [r0, #-20]	; 0xffffffec
    1110:	0da5048b 	cfstrseq	mvf0, [r5, #556]!	; 0x22c
    1114:	8f050000 	svchi	0x00050000
    1118:	0034b004 	eorseq	fp, r4, r4
    111c:	04940500 	ldreq	r0, [r4], #1280	; 0x500
    1120:	000007ca 	andeq	r0, r0, sl, asr #15
    1124:	8f049f05 	svchi	0x00049f05
    1128:	0500007b 	streq	r0, [r0, #-123]	; 0xffffff85
    112c:	4ea704a2 	cdpmi	4, 10, cr0, cr7, cr2, {5}
    1130:	a8050000 	stmdage	r5, {}	; <UNPREDICTABLE>
    1134:	00521104 	subseq	r1, r2, r4, lsl #2
    1138:	04ab0500 	strteq	r0, [fp], #1280	; 0x500
    113c:	00004e26 	andeq	r4, r0, r6, lsr #28
    1140:	5504ae05 	strpl	sl, [r4, #-3589]	; 0xfffff1fb
    1144:	0500004a 	streq	r0, [r0, #-74]	; 0xffffffb6
    1148:	578604c4 	strpl	r0, [r6, r4, asr #9]
    114c:	c7050000 	strgt	r0, [r5, -r0]
    1150:	00041604 	andeq	r1, r4, r4, lsl #12
    1154:	04ca0500 	strbeq	r0, [sl], #1280	; 0x500
    1158:	00002750 	andeq	r2, r0, r0, asr r7
    115c:	b404cb05 	strlt	ip, [r4], #-2821	; 0xfffff4fb
    1160:	0500006b 	streq	r0, [r0, #-107]	; 0xffffff95
    1164:	1df604cc 	cfldrdne	mvd0, [r6, #816]!	; 0x330
    1168:	cd050000 	stcgt	0, cr0, [r5, #-0]
    116c:	004fa704 	subeq	sl, pc, r4, lsl #14
    1170:	04ce0500 	strbeq	r0, [lr], #1280	; 0x500
    1174:	000001df 	ldrdeq	r0, [r0], -pc	; <UNPREDICTABLE>
    1178:	9904cf05 	stmdbls	r4, {r0, r2, r8, r9, sl, fp, lr, pc}
    117c:	05000087 	streq	r0, [r0, #-135]	; 0xffffff79
    1180:	1cd104d0 	cfldrdne	mvd0, [r1], {208}	; 0xd0
    1184:	d1050000 	mrsle	r0, (UNDEF: 5)
    1188:	0035c704 	eorseq	ip, r5, r4, lsl #14
    118c:	04d20500 	ldrbeq	r0, [r2], #1280	; 0x500
    1190:	00006e88 	andeq	r6, r0, r8, lsl #29
    1194:	ce04d305 	cdpgt	3, 0, cr13, cr4, cr5, {0}
    1198:	05000045 	streq	r0, [r0, #-69]	; 0xffffffbb
    119c:	3eeb04d4 	mcrcc	4, 7, r0, cr11, cr4, {6}
    11a0:	d5050000 	strle	r0, [r5, #-0]
    11a4:	002c3704 	eoreq	r3, ip, r4, lsl #14
    11a8:	04d60500 	ldrbeq	r0, [r6], #1280	; 0x500
    11ac:	0000195f 	andeq	r1, r0, pc, asr r9
    11b0:	9904d705 	stmdbls	r4, {r0, r2, r8, r9, sl, ip, lr, pc}
    11b4:	05000086 	streq	r0, [r0, #-134]	; 0xffffff7a
    11b8:	303404d8 	ldrsbtcc	r0, [r4], -r8
    11bc:	d9050000 	stmdble	r5, {}	; <UNPREDICTABLE>
    11c0:	005d9d04 	subseq	r9, sp, r4, lsl #26
    11c4:	04da0500 	ldrbeq	r0, [sl], #1280	; 0x500
    11c8:	0000548d 	andeq	r5, r0, sp, lsl #9
    11cc:	dd04db05 	vstrle	d13, [r4, #-20]	; 0xffffffec
    11d0:	05000012 	streq	r0, [r0, #-18]	; 0xffffffee
    11d4:	3e5604dc 	mrccc	4, 2, r0, cr6, cr12, {6}
    11d8:	dd050000 	stcle	0, cr0, [r5, #-0]
    11dc:	00473404 	subeq	r3, r7, r4, lsl #8
    11e0:	04de0500 	ldrbeq	r0, [lr], #1280	; 0x500
    11e4:	00000ad7 	ldrdeq	r0, [r0], -r7
    11e8:	a604df05 	strge	sp, [r4], -r5, lsl #30
    11ec:	05000076 	streq	r0, [r0, #-118]	; 0xffffff8a
    11f0:	669904e0 	ldrvs	r0, [r9], r0, ror #9
    11f4:	e1050000 	mrs	r0, (UNDEF: 5)
    11f8:	002b5704 	eoreq	r5, fp, r4, lsl #14
    11fc:	06a00500 	strteq	r0, [r0], r0, lsl #10
    1200:	00006154 	andeq	r6, r0, r4, asr r1
    1204:	f906a805 			; <UNDEFINED> instruction: 0xf906a805
    1208:	05000003 	streq	r0, [r0, #-3]
    120c:	7b0a06b0 	blvc	282cd4 <_Min_Stack_Size+0x2828d4>
    1210:	c0050000 	andgt	r0, r5, r0
    1214:	002cde06 	eoreq	sp, ip, r6, lsl #28
    1218:	06c30500 	strbeq	r0, [r3], r0, lsl #10
    121c:	00007d9a 	muleq	r0, sl, sp
    1220:	9806c705 	stmdals	r6, {r0, r2, r8, r9, sl, lr, pc}
    1224:	00000044 	andeq	r0, r0, r4, asr #32
    1228:	05000004 	streq	r0, [r0, #-4]
    122c:	00229331 	eoreq	r9, r2, r1, lsr r3
    1230:	8c320500 	cfldr32hi	mvfx0, [r2], #-0
    1234:	05000066 	streq	r0, [r0, #-102]	; 0xffffff9a
    1238:	00520833 	subseq	r0, r2, r3, lsr r8
    123c:	df360500 	svcle	0x00360500
    1240:	0500006f 	streq	r0, [r0, #-111]	; 0xffffff91
    1244:	001f1d39 	andseq	r1, pc, r9, lsr sp	; <UNPREDICTABLE>
    1248:	643a0500 	ldrtvs	r0, [sl], #-1280	; 0xfffffb00
    124c:	05000088 	streq	r0, [r0, #-136]	; 0xffffff78
    1250:	003f3d3c 	eorseq	r3, pc, ip, lsr sp	; <UNPREDICTABLE>
    1254:	be3d0500 	cfabs32lt	mvfx0, mvfx13
    1258:	05000030 	streq	r0, [r0, #-48]	; 0xffffffd0
    125c:	00219a3e 	eoreq	r9, r1, lr, lsr sl
    1260:	cf3f0500 	svcgt	0x003f0500
    1264:	0500007d 	streq	r0, [r0, #-125]	; 0xffffff83
    1268:	000f8942 	andeq	r8, pc, r2, asr #18
    126c:	36430500 	strbcc	r0, [r3], -r0, lsl #10
    1270:	0500000b 	streq	r0, [r0, #-11]
    1274:	00742a44 	rsbseq	r2, r4, r4, asr #20
    1278:	124e0500 	subne	r0, lr, #0, 10
    127c:	05000012 	streq	r0, [r0, #-18]	; 0xffffffee
    1280:	002cf151 	eoreq	pc, ip, r1, asr r1	; <UNPREDICTABLE>
    1284:	e55e0500 	ldrb	r0, [lr, #-1280]	; 0xfffffb00
    1288:	05000040 	streq	r0, [r0, #-64]	; 0xffffffc0
    128c:	00778b5f 	rsbseq	r8, r7, pc, asr fp
    1290:	eb6b0500 	bl	1ac2698 <_Min_Stack_Size+0x1ac2298>
    1294:	05000081 	streq	r0, [r0, #-129]	; 0xffffff7f
    1298:	0045ab6c 	subeq	sl, r5, ip, ror #22
    129c:	f1700500 			; <UNDEFINED> instruction: 0xf1700500
    12a0:	05000004 	streq	r0, [r0, #-4]
    12a4:	0078da71 	rsbseq	sp, r8, r1, ror sl
    12a8:	00720500 	rsbseq	r0, r2, r0, lsl #10
    12ac:	05000000 	streq	r0, [r0, #-0]
    12b0:	002c6175 	eoreq	r6, ip, r5, ror r1
    12b4:	21780500 	cmncs	r8, r0, lsl #10
    12b8:	05000014 	streq	r0, [r0, #-20]	; 0xffffffec
    12bc:	0031547f 	eorseq	r5, r1, pc, ror r4
    12c0:	01800500 	orreq	r0, r0, r0, lsl #10
    12c4:	00007f89 	andeq	r7, r0, r9, lsl #31
    12c8:	61018105 	tstvs	r1, r5, lsl #2
    12cc:	05000083 	streq	r0, [r0, #-131]	; 0xffffff7d
    12d0:	649f0185 	ldrvs	r0, [pc], #389	; 12d8 <_Min_Stack_Size+0xed8>
    12d4:	8c050000 	stchi	0, cr0, [r5], {-0}
    12d8:	008a1501 	addeq	r1, sl, r1, lsl #10
    12dc:	01900500 	orrseq	r0, r0, r0, lsl #10
    12e0:	00005f22 	andeq	r5, r0, r2, lsr #30
    12e4:	5d019105 	stfpld	f1, [r1, #-20]	; 0xffffffec
    12e8:	05000022 	streq	r0, [r0, #-34]	; 0xffffffde
    12ec:	54450194 	strbpl	r0, [r5], #-404	; 0xfffffe6c
    12f0:	97050000 	strls	r0, [r5, -r0]
    12f4:	00667501 	rsbeq	r7, r6, r1, lsl #10
    12f8:	01980500 	orrseq	r0, r8, r0, lsl #10
    12fc:	00001021 	andeq	r1, r0, r1, lsr #32
    1300:	68019905 	stmdavs	r1, {r0, r2, r8, fp, ip, pc}
    1304:	05000079 	streq	r0, [r0, #-121]	; 0xffffff87
    1308:	4564019b 	strbmi	r0, [r4, #-411]!	; 0xfffffe65
    130c:	9c050000 	stcls	0, cr0, [r5], {-0}
    1310:	00844001 	addeq	r4, r4, r1
    1314:	019e0500 	orrseq	r0, lr, r0, lsl #10
    1318:	00008544 	andeq	r8, r0, r4, asr #10
    131c:	8301a005 	movwhi	sl, #4101	; 0x1005
    1320:	0500001b 	streq	r0, [r0, #-27]	; 0xffffffe5
    1324:	1bec01b1 	blne	ffb019f0 <_estack+0xdfaff1f0>
    1328:	b2050000 	andlt	r0, r5, #0
    132c:	00100b01 	andseq	r0, r0, r1, lsl #22
    1330:	01b30500 			; <UNDEFINED> instruction: 0x01b30500
    1334:	000004d4 	ldrdeq	r0, [r0], -r4
    1338:	3f01b405 	svccc	0x0001b405
    133c:	05000061 	streq	r0, [r0, #-97]	; 0xffffff9f
    1340:	30a501b5 	strhtcc	r0, [r5], r5
    1344:	b7050000 	strlt	r0, [r5, -r0]
    1348:	00748201 	rsbseq	r8, r4, r1, lsl #4
    134c:	01b80500 			; <UNDEFINED> instruction: 0x01b80500
    1350:	00006963 	andeq	r6, r0, r3, ror #18
    1354:	1501b905 	strne	fp, [r1, #-2309]	; 0xfffff6fb
    1358:	0500005b 	streq	r0, [r0, #-91]	; 0xffffffa5
    135c:	010d01e6 	smlatteq	sp, r6, r1, r0
    1360:	f3050000 	vhadd.u8	d0, d5, d0
    1364:	00635701 	rsbeq	r5, r3, r1, lsl #14
    1368:	01f40500 	mvnseq	r0, r0, lsl #10
    136c:	0000434c 	andeq	r4, r0, ip, asr #6
    1370:	2a01f505 	bcs	7e78c <_Min_Stack_Size+0x7e38c>
    1374:	05000051 	streq	r0, [r0, #-81]	; 0xffffffaf
    1378:	2bce01f6 	blcs	ff381b58 <_estack+0xdf37f358>
    137c:	f7050000 			; <UNDEFINED> instruction: 0xf7050000
    1380:	008e7e01 	addeq	r7, lr, r1, lsl #28
    1384:	01f80500 	mvnseq	r0, r0, lsl #10
    1388:	00000a12 	andeq	r0, r0, r2, lsl sl
    138c:	db01f905 	blle	7f7a8 <_Min_Stack_Size+0x7f3a8>
    1390:	05000041 	streq	r0, [r0, #-65]	; 0xffffffbf
    1394:	476d01fc 			; <UNDEFINED> instruction: 0x476d01fc
    1398:	fd050000 	stc2	0, cr0, [r5, #-0]
    139c:	00242201 	eoreq	r2, r4, r1, lsl #4
    13a0:	02830500 	addeq	r0, r3, #0, 10
    13a4:	00002000 	andeq	r2, r0, r0
    13a8:	ef02dc05 	svc	0x0002dc05
    13ac:	0500002b 	streq	r0, [r0, #-43]	; 0xffffffd5
    13b0:	40b402ee 	adcsmi	r0, r4, lr, ror #5
    13b4:	f4050000 	vst4.8	{d0-d3}, [r5], r0
    13b8:	005bd502 	subseq	sp, fp, r2, lsl #10
    13bc:	02f50500 	rscseq	r0, r5, #0, 10
    13c0:	00003449 	andeq	r3, r0, r9, asr #8
    13c4:	2e02fc05 	cdpcs	12, 0, cr15, cr2, cr5, {0}
    13c8:	0500008b 	streq	r0, [r0, #-139]	; 0xffffff75
    13cc:	269b0382 	ldrcs	r0, [fp], r2, lsl #7
    13d0:	88050000 	stmdahi	r5, {}	; <UNPREDICTABLE>
    13d4:	008bf403 	addeq	pc, fp, r3, lsl #8
    13d8:	03890500 	orreq	r0, r9, #0, 10
    13dc:	00003e14 	andeq	r3, r0, r4, lsl lr
    13e0:	48039005 	stmdami	r3, {r0, r2, ip, pc}
    13e4:	0500007a 	streq	r0, [r0, #-122]	; 0xffffff86
    13e8:	0e770391 	mrceq	3, 3, r0, cr7, cr1, {4}
    13ec:	98050000 	stmdals	r5, {}	; <UNPREDICTABLE>
    13f0:	002ef103 	eoreq	pc, lr, r3, lsl #2
    13f4:	039e0500 	orrseq	r0, lr, #0, 10
    13f8:	00008172 	andeq	r8, r0, r2, ror r1
    13fc:	2503b205 	strcs	fp, [r3, #-517]	; 0xfffffdfb
    1400:	05000037 	streq	r0, [r0, #-55]	; 0xffffffc9
    1404:	207603d3 	ldrsbtcs	r0, [r6], #-51	; 0xffffffcd
    1408:	d4050000 	strle	r0, [r5], #-0
    140c:	00562a03 	subseq	r2, r6, r3, lsl #20
    1410:	03db0500 	bicseq	r0, fp, #0, 10
    1414:	000017ef 	andeq	r1, r0, pc, ror #15
    1418:	3d03dc05 	stccc	12, cr13, [r3, #-20]	; 0xffffffec
    141c:	0500002d 	streq	r0, [r0, #-45]	; 0xffffffd3
    1420:	285d03df 	ldmdacs	sp, {r0, r1, r2, r3, r4, r6, r7, r8, r9}^
    1424:	e9050000 	stmdb	r5, {}	; <UNPREDICTABLE>
    1428:	003dbd03 	eorseq	fp, sp, r3, lsl #26
    142c:	03ea0500 	mvneq	r0, #0, 10
    1430:	00007c6d 	andeq	r7, r0, sp, ror #24
    1434:	8c03f405 	cfstrshi	mvf15, [r3], {5}
    1438:	0500006c 	streq	r0, [r0, #-108]	; 0xffffff94
    143c:	79a1048a 	stmibvc	r1!, {r1, r3, r7, sl}
    1440:	8c050000 	stchi	0, cr0, [r5], {-0}
    1444:	00825404 	addeq	r5, r2, r4, lsl #8
    1448:	048e0500 	streq	r0, [lr], #1280	; 0x500
    144c:	000089d7 	ldrdeq	r8, [r0], -r7
    1450:	33048f05 	movwcc	r8, #20229	; 0x4f05
    1454:	0500001c 	streq	r0, [r0, #-28]	; 0xffffffe4
    1458:	8d430491 	cfstrdhi	mvd0, [r3, #-580]	; 0xfffffdbc
    145c:	9b050000 	blls	141464 <_Min_Stack_Size+0x141064>
    1460:	0062c104 	rsbeq	ip, r2, r4, lsl #2
    1464:	04a00500 	strteq	r0, [r0], #1280	; 0x500
    1468:	000080dc 	ldrdeq	r8, [r0], -ip
    146c:	9b04a505 	blls	12a888 <_Min_Stack_Size+0x12a488>
    1470:	05000011 	streq	r0, [r0, #-17]	; 0xffffffef
    1474:	482404a8 	stmdami	r4!, {r3, r5, r7, sl}
    1478:	ac050000 	stcge	0, cr0, [r5], {-0}
    147c:	00791c04 	rsbseq	r1, r9, r4, lsl #24
    1480:	04ae0500 	strteq	r0, [lr], #1280	; 0x500
    1484:	0000238d 	andeq	r2, r0, sp, lsl #7
    1488:	7104d105 	tstvc	r4, r5, lsl #2
    148c:	0500005e 	streq	r0, [r0, #-94]	; 0xffffffa2
    1490:	767604d5 			; <UNDEFINED> instruction: 0x767604d5
    1494:	d9050000 	stmdble	r5, {}	; <UNPREDICTABLE>
    1498:	00055504 	andeq	r5, r5, r4, lsl #10
    149c:	04dd0500 	ldrbeq	r0, [sp], #1280	; 0x500
    14a0:	00002d73 	andeq	r2, r0, r3, ror sp
    14a4:	ac04e105 	stfged	f6, [r4], {5}
    14a8:	05000061 	streq	r0, [r0, #-97]	; 0xffffff9f
    14ac:	262504e5 	strtcs	r0, [r5], -r5, ror #9
    14b0:	e9050000 	stmdb	r5, {}	; <UNPREDICTABLE>
    14b4:	007f3004 	rsbseq	r3, pc, r4
    14b8:	04ed0500 	strbteq	r0, [sp], #1280	; 0x500
    14bc:	00008da6 	andeq	r8, r0, r6, lsr #27
    14c0:	ec04f405 	cfstrs	mvf15, [r4], {5}
    14c4:	05000014 	streq	r0, [r0, #-20]	; 0xffffffec
    14c8:	187804f5 	ldmdane	r8!, {r0, r2, r4, r5, r6, r7, sl}^
    14cc:	f6050000 			; <UNDEFINED> instruction: 0xf6050000
    14d0:	00306b04 	eorseq	r6, r0, r4, lsl #22
    14d4:	04f70500 	ldrbteq	r0, [r7], #1280	; 0x500
    14d8:	00004391 	muleq	r0, r1, r3
    14dc:	c404f805 	strgt	pc, [r4], #-2053	; 0xfffff7fb
    14e0:	0500003f 	streq	r0, [r0, #-63]	; 0xffffffc1
    14e4:	6104058d 	smlabbvs	r4, sp, r5, r0
    14e8:	8e050000 	cdphi	0, 0, cr0, cr5, cr0, {0}
    14ec:	008a8c05 	addeq	r8, sl, r5, lsl #24
    14f0:	05a00500 	streq	r0, [r0, #1280]!	; 0x500
    14f4:	00007a90 	muleq	r0, r0, sl
    14f8:	1d05a605 	stcne	6, cr10, [r5, #-20]	; 0xffffffec
    14fc:	05000077 	streq	r0, [r0, #-119]	; 0xffffff89
    1500:	167d05a9 	ldrbtne	r0, [sp], -r9, lsr #11
    1504:	ab050000 	blge	14150c <_Min_Stack_Size+0x14110c>
    1508:	003a9105 	eorseq	r9, sl, r5, lsl #2
    150c:	05af0500 	streq	r0, [pc, #1280]!	; 1a14 <_Min_Stack_Size+0x1614>
    1510:	00006b41 	andeq	r6, r0, r1, asr #22
    1514:	b905b105 	stmdblt	r5, {r0, r2, r8, ip, sp, pc}
    1518:	05000039 	streq	r0, [r0, #-57]	; 0xffffffc7
    151c:	59b605b5 	ldmibpl	r6!, {r0, r2, r4, r5, r7, r8, sl}
    1520:	b8050000 	stmdalt	r5, {}	; <UNPREDICTABLE>
    1524:	00376805 	eorseq	r6, r7, r5, lsl #16
    1528:	05ba0500 	ldreq	r0, [sl, #1280]!	; 0x500
    152c:	00008f64 	andeq	r8, r0, r4, ror #30
    1530:	8e05be05 	cdphi	14, 0, cr11, cr5, cr5, {0}
    1534:	05000001 	streq	r0, [r0, #-1]
    1538:	2f4505c0 	svccs	0x004505c0
    153c:	c2050000 	andgt	r0, r5, #0
    1540:	00589105 	subseq	r9, r8, r5, lsl #2
    1544:	05c60500 	strbeq	r0, [r6, #1280]	; 0x500
    1548:	00006db5 			; <UNDEFINED> instruction: 0x00006db5
    154c:	b205d105 	andlt	sp, r5, #1073741825	; 0x40000001
    1550:	05000035 	streq	r0, [r0, #-53]	; 0xffffffcb
    1554:	929305d2 	addsls	r0, r3, #880803840	; 0x34800000
    1558:	d6050000 	strle	r0, [r5], -r0
    155c:	00161705 	andseq	r1, r6, r5, lsl #14
    1560:	05d70500 	ldrbeq	r0, [r7, #1280]	; 0x500
    1564:	0000788e 	andeq	r7, r0, lr, lsl #17
    1568:	00000400 	andeq	r0, r0, r0, lsl #8
    156c:	837e0805 	cmnhi	lr, #327680	; 0x50000
    1570:	0d060000 	stceq	0, cr0, [r6, #-0]
    1574:	000058df 	ldrdeq	r5, [r0], -pc	; <UNPREDICTABLE>
    1578:	6eb81005 	cdpvs	0, 11, cr1, cr8, cr5, {0}
    157c:	04000000 	streq	r0, [r0], #-0
    1580:	38050000 	stmdacc	r5, {}	; <UNPREDICTABLE>
    1584:	0000637d 	andeq	r6, r0, sp, ror r3
    1588:	8c353c05 	ldchi	12, cr3, [r5], #-20	; 0xffffffec
    158c:	3d050000 	stccc	0, cr0, [r5, #-0]
    1590:	00001e5e 	andeq	r1, r0, lr, asr lr
    1594:	3ea13f05 	cdpcc	15, 10, cr3, cr1, cr5, {0}
    1598:	43050000 	movwmi	r0, #20480	; 0x5000
    159c:	00004ff6 	strdeq	r4, [r0], -r6
    15a0:	b901a805 	stmdblt	r1, {r0, r2, fp, sp, pc}
    15a4:	00000083 	andeq	r0, r0, r3, lsl #1
    15a8:	05000004 	streq	r0, [r0, #-4]
    15ac:	0085830a 	addeq	r8, r5, sl, lsl #6
    15b0:	c8100500 	ldmdagt	r0, {r8, sl}
    15b4:	06000052 			; <UNDEFINED> instruction: 0x06000052
    15b8:	00696c2b 	rsbeq	r6, r9, fp, lsr #24
    15bc:	632c0600 			; <UNDEFINED> instruction: 0x632c0600
    15c0:	06000078 			; <UNDEFINED> instruction: 0x06000078
    15c4:	0007052d 	andeq	r0, r7, sp, lsr #10
    15c8:	4e2e0600 	cfmadda32mi	mvax0, mvax0, mvfx14, mvfx0
    15cc:	02000061 	andeq	r0, r0, #97	; 0x61
    15d0:	746e692f 	strbtvc	r6, [lr], #-2351	; 0xfffff6d1
    15d4:	09300600 	ldmdbeq	r0!, {r9, sl}
    15d8:	06000090 			; <UNDEFINED> instruction: 0x06000090
    15dc:	00050731 	andeq	r0, r5, r1, lsr r7
    15e0:	1e320600 	cfmsuba32ne	mvax0, mvax0, mvfx2, mvfx0
    15e4:	0500005d 	streq	r0, [r0, #-93]	; 0xffffffa3
    15e8:	00442d33 	subeq	r2, r4, r3, lsr sp
    15ec:	2b340500 	blcs	d029f4 <_Min_Stack_Size+0xd025f4>
    15f0:	05000044 	streq	r0, [r0, #-68]	; 0xffffffbc
    15f4:	0058d735 	subseq	sp, r8, r5, lsr r7
    15f8:	2a360500 	bcs	d82a00 <_Min_Stack_Size+0xd82600>
    15fc:	05000084 	streq	r0, [r0, #-132]	; 0xffffff7c
    1600:	00008337 	andeq	r8, r0, r7, lsr r3
    1604:	5f380500 	svcpl	0x00380500
    1608:	0500006d 	streq	r0, [r0, #-109]	; 0xffffff93
    160c:	00586a39 	subseq	r6, r8, r9, lsr sl
    1610:	e43a0500 	ldrt	r0, [sl], #-1280	; 0xfffffb00
    1614:	0500008b 	streq	r0, [r0, #-139]	; 0xffffff75
    1618:	003b3243 	eorseq	r3, fp, r3, asr #4
    161c:	e64a0500 	strb	r0, [sl], -r0, lsl #10
    1620:	05000087 	streq	r0, [r0, #-135]	; 0xffffff79
    1624:	000b8c52 	andeq	r8, fp, r2, asr ip
    1628:	d85d0500 	ldmdale	sp, {r8, sl}^
    162c:	0500003a 	streq	r0, [r0, #-58]	; 0xffffffc6
    1630:	00839068 	addeq	r9, r3, r8, rrx
    1634:	21710500 	cmncs	r1, r0, lsl #10
    1638:	0500008b 	streq	r0, [r0, #-139]	; 0xffffff75
    163c:	007b0178 	rsbseq	r0, fp, r8, ror r1
    1640:	01810500 	orreq	r0, r1, r0, lsl #10
    1644:	00001da8 	andeq	r1, r0, r8, lsr #27
    1648:	12018805 	andne	r8, r1, #327680	; 0x50000
    164c:	05000080 	streq	r0, [r0, #-128]	; 0xffffff80
    1650:	440a0193 	strmi	r0, [sl], #-403	; 0xfffffe6d
    1654:	97050000 	strls	r0, [r5, -r0]
    1658:	002ea101 	eoreq	sl, lr, r1, lsl #2
    165c:	01a20500 			; <UNDEFINED> instruction: 0x01a20500
    1660:	00007993 	muleq	r0, r3, r9
    1664:	1601ad05 	strne	sl, [r1], -r5, lsl #26
    1668:	05000013 	streq	r0, [r0, #-19]	; 0xffffffed
    166c:	5fba01b6 	svcpl	0x00ba01b6
    1670:	b8060000 	stmdalt	r6, {}	; <UNPREDICTABLE>
    1674:	00696c01 	rsbeq	r6, r9, r1, lsl #24
    1678:	01b90600 			; <UNDEFINED> instruction: 0x01b90600
    167c:	00007863 	andeq	r7, r0, r3, ror #16
    1680:	0501ba06 	streq	fp, [r1, #-2566]	; 0xfffff5fa
    1684:	06000007 	streq	r0, [r0], -r7
    1688:	614e01bb 	strhvs	r0, [lr, #-27]	; 0xffffffe5
    168c:	bc020000 	stclt	0, cr0, [r2], {-0}
    1690:	746e6901 	strbtvc	r6, [lr], #-2305	; 0xfffff6ff
    1694:	01bd0600 			; <UNDEFINED> instruction: 0x01bd0600
    1698:	00005d1e 	andeq	r5, r0, lr, lsl sp
    169c:	0901c206 	stmdbeq	r1, {r1, r2, r9, lr, pc}
    16a0:	06000090 			; <UNDEFINED> instruction: 0x06000090
    16a4:	050701c3 	streq	r0, [r7, #-451]	; 0xfffffe3d
    16a8:	04000000 	streq	r0, [r0], #-0
    16ac:	0a050000 	beq	1416b4 <_Min_Stack_Size+0x1412b4>
    16b0:	00004150 	andeq	r4, r0, r0, asr r1
    16b4:	84d71505 	ldrbhi	r1, [r7], #1285	; 0x505
    16b8:	19050000 	stmdbne	r5, {}	; <UNPREDICTABLE>
    16bc:	000069ec 	andeq	r6, r0, ip, ror #19
    16c0:	3d7d1b05 	fldmdbxcc	sp!, {d17-d18}	;@ Deprecated
    16c4:	21050000 	mrscs	r0, (UNDEF: 5)
    16c8:	00003623 	andeq	r3, r0, r3, lsr #12
    16cc:	110d2505 	tstne	sp, r5, lsl #10
    16d0:	27050000 	strcs	r0, [r5, -r0]
    16d4:	00006fa2 	andeq	r6, r0, r2, lsr #31
    16d8:	84e92d05 	strbthi	r2, [r9], #3333	; 0xd05
    16dc:	31050000 	mrscc	r0, (UNDEF: 5)
    16e0:	0000033b 	andeq	r0, r0, fp, lsr r3
    16e4:	50413305 	subpl	r3, r1, r5, lsl #6
    16e8:	39050000 	stmdbcc	r5, {}	; <UNPREDICTABLE>
    16ec:	00006e13 	andeq	r6, r0, r3, lsl lr
    16f0:	251d3d05 	ldrcs	r3, [sp, #-3333]	; 0xfffff2fb
    16f4:	3f050000 	svccc	0x00050000
    16f8:	000063c8 	andeq	r6, r0, r8, asr #7
    16fc:	89c34405 	stmibhi	r3, {r0, r2, sl, lr}^
    1700:	49050000 	stmdbmi	r5, {}	; <UNPREDICTABLE>
    1704:	00006807 	andeq	r6, r0, r7, lsl #16
    1708:	15914e05 	ldrne	r4, [r1, #3589]	; 0xe05
    170c:	53050000 	movwpl	r0, #20480	; 0x5000
    1710:	00006a73 	andeq	r6, r0, r3, ror sl
    1714:	00000400 	andeq	r0, r0, r0, lsl #8
    1718:	59351705 	ldmdbpl	r5!, {r0, r2, r8, r9, sl, ip}
    171c:	1d050000 	stcne	0, cr0, [r5, #-0]
    1720:	0000184c 	andeq	r1, r0, ip, asr #16
    1724:	37f82305 	ldrbcc	r2, [r8, r5, lsl #6]!
    1728:	29050000 	stmdbcs	r5, {}	; <UNPREDICTABLE>
    172c:	00005191 	muleq	r0, r1, r1
    1730:	1e393505 	cdpne	5, 3, cr3, cr9, cr5, {0}
    1734:	3f050000 	svccc	0x00050000
    1738:	00005705 	andeq	r5, r0, r5, lsl #14
    173c:	0f944905 	svceq	0x00944905
    1740:	53050000 	movwpl	r0, #20480	; 0x5000
    1744:	00002531 	andeq	r2, r0, r1, lsr r5
    1748:	0c018005 	stceq	0, cr8, [r1], {5}
    174c:	05000091 	streq	r0, [r0, #-145]	; 0xffffff6f
    1750:	5aab0181 	bpl	feac1d5c <_estack+0xdeabf55c>
    1754:	82050000 	andhi	r0, r5, #0
    1758:	0019e901 	andseq	lr, r9, r1, lsl #18
    175c:	01980500 	orrseq	r0, r8, r0, lsl #10
    1760:	00003983 	andeq	r3, r0, r3, lsl #19
    1764:	09019905 	stmdbeq	r1, {r0, r2, r8, fp, ip, pc}
    1768:	0500000d 	streq	r0, [r0, #-13]
    176c:	8b97019a 	blhi	fe5c1ddc <_estack+0xde5bf5dc>
    1770:	a2050000 	andge	r0, r5, #0
    1774:	007d7101 	rsbseq	r7, sp, r1, lsl #2
    1778:	01a30500 			; <UNDEFINED> instruction: 0x01a30500
    177c:	00002904 	andeq	r2, r0, r4, lsl #18
    1780:	6c01a405 	cfstrsvs	mvf10, [r1], {5}
    1784:	05000071 	streq	r0, [r0, #-113]	; 0xffffff8f
    1788:	020a01ae 	andeq	r0, sl, #-2147483605	; 0x8000002b
    178c:	af050000 	svcge	0x00050000
    1790:	000f0c01 	andeq	r0, pc, r1, lsl #24
    1794:	01b00500 	lslseq	r0, r0, #10
    1798:	00007133 	andeq	r7, r0, r3, lsr r1
    179c:	ff01b805 			; <UNDEFINED> instruction: 0xff01b805
    17a0:	05000050 	streq	r0, [r0, #-80]	; 0xffffffb0
    17a4:	0bea01b9 	bleq	ffa81e90 <_estack+0xdfa7f690>
    17a8:	ba050000 	blt	1417b0 <_Min_Stack_Size+0x1413b0>
    17ac:	002fe101 	eoreq	lr, pc, r1, lsl #2
    17b0:	01c40500 	biceq	r0, r4, r0, lsl #10
    17b4:	00007018 	andeq	r7, r0, r8, lsl r0
    17b8:	1b01c505 	blne	72bd4 <_Min_Stack_Size+0x727d4>
    17bc:	0500002e 	streq	r0, [r0, #-46]	; 0xffffffd2
    17c0:	320101c6 	andcc	r0, r1, #-2147483599	; 0x80000031
    17c4:	d4050000 	strle	r0, [r5], #-0
    17c8:	0031c801 	eorseq	ip, r1, r1, lsl #16
    17cc:	01d50500 	bicseq	r0, r5, r0, lsl #10
    17d0:	00002890 	muleq	r0, r0, r8
    17d4:	d401d605 	strle	sp, [r1], #-1541	; 0xfffff9fb
    17d8:	05000074 	streq	r0, [r0, #-116]	; 0xffffff8c
    17dc:	7a7101e6 	bvc	1c41f7c <_Min_Stack_Size+0x1c41b7c>
    17e0:	e7050000 	str	r0, [r5, -r0]
    17e4:	0049a301 	subeq	sl, r9, r1, lsl #6
    17e8:	01e80500 	mvneq	r0, r0, lsl #10
    17ec:	00002a2e 	andeq	r2, r0, lr, lsr #20
    17f0:	9501f605 	strls	pc, [r1, #-1541]	; 0xfffff9fb
    17f4:	05000013 	streq	r0, [r0, #-19]	; 0xffffffed
    17f8:	113101f7 	teqne	r1, r7	; <illegal shifter operand>
    17fc:	f8050000 			; <UNDEFINED> instruction: 0xf8050000
    1800:	00267301 	eoreq	r7, r6, r1, lsl #6
    1804:	02860500 	addeq	r0, r6, #0, 10
    1808:	00005603 	andeq	r5, r0, r3, lsl #12
    180c:	f1028705 			; <UNDEFINED> instruction: 0xf1028705
    1810:	05000023 	streq	r0, [r0, #-35]	; 0xffffffdd
    1814:	67140288 	ldrvs	r0, [r4, -r8, lsl #5]
    1818:	96050000 	strls	r0, [r5], -r0
    181c:	00093902 	andeq	r3, r9, r2, lsl #18
    1820:	02970500 	addseq	r0, r7, #0, 10
    1824:	000056bc 			; <UNDEFINED> instruction: 0x000056bc
    1828:	af029805 	svcge	0x00029805
    182c:	0500002e 	streq	r0, [r0, #-46]	; 0xffffffd2
    1830:	15df02a6 	ldrbne	r0, [pc, #678]	; 1ade <_Min_Stack_Size+0x16de>
    1834:	a7050000 	strge	r0, [r5, -r0]
    1838:	00903c02 	addseq	r3, r0, r2, lsl #24
    183c:	02a80500 	adceq	r0, r8, #0, 10
    1840:	000072b0 			; <UNDEFINED> instruction: 0x000072b0
    1844:	b602b605 	strlt	fp, [r2], -r5, lsl #12
    1848:	0500005e 	streq	r0, [r0, #-94]	; 0xffffffa2
    184c:	432802b7 			; <UNDEFINED> instruction: 0x432802b7
    1850:	b8050000 	stmdalt	r5, {}	; <UNPREDICTABLE>
    1854:	00338b02 	eorseq	r8, r3, r2, lsl #22
    1858:	02c60500 	sbceq	r0, r6, #0, 10
    185c:	00002dff 	strdeq	r2, [r0], -pc	; <UNPREDICTABLE>
    1860:	0002c705 	andeq	ip, r2, r5, lsl #14
    1864:	0500001f 	streq	r0, [r0, #-31]	; 0xffffffe1
    1868:	44d402cf 	ldrbmi	r0, [r4], #719	; 0x2cf
    186c:	d7050000 	strle	r0, [r5, -r0]
    1870:	006c0702 	rsbeq	r0, ip, r2, lsl #14
    1874:	02dd0500 	sbcseq	r0, sp, #0, 10
    1878:	0000831e 	andeq	r8, r0, lr, lsl r3
    187c:	d302de05 	movwle	sp, #11781	; 0x2e05
    1880:	05000029 	streq	r0, [r0, #-41]	; 0xffffffd7
    1884:	0d2d02e2 	sfmeq	f0, 4, [sp, #-904]!	; 0xfffffc78
    1888:	e6050000 	str	r0, [r5], -r0
    188c:	00912d02 	addseq	r2, r1, r2, lsl #26
    1890:	02eb0500 	rsceq	r0, fp, #0, 10
    1894:	00001f40 	andeq	r1, r0, r0, asr #30
    1898:	b602f605 	strlt	pc, [r2], -r5, lsl #12
    189c:	0500006f 	streq	r0, [r0, #-111]	; 0xffffff91
    18a0:	4db60380 	ldcmi	3, cr0, [r6, #512]!	; 0x200
    18a4:	85050000 	strhi	r0, [r5, #-0]
    18a8:	00003803 	andeq	r3, r0, r3, lsl #16
    18ac:	038c0500 	orreq	r0, ip, #0, 10
    18b0:	00003fae 	andeq	r3, r0, lr, lsr #31
    18b4:	0d038d05 	stceq	13, cr8, [r3, #-20]	; 0xffffffec
    18b8:	0500007d 	streq	r0, [r0, #-125]	; 0xffffff83
    18bc:	0fd70398 	svceq	0x00d70398
    18c0:	99050000 	stmdbls	r5, {}	; <UNPREDICTABLE>
    18c4:	00360903 	eorseq	r0, r6, r3, lsl #18
    18c8:	03a40500 			; <UNDEFINED> instruction: 0x03a40500
    18cc:	00007412 	andeq	r7, r0, r2, lsl r4
    18d0:	d603a505 	strle	sl, [r3], -r5, lsl #10
    18d4:	05000055 	streq	r0, [r0, #-85]	; 0xffffffab
    18d8:	395c03b1 	ldmdbcc	ip, {r0, r4, r5, r7, r8, r9}^
    18dc:	b2050000 	andlt	r0, r5, #0
    18e0:	007dfa03 	rsbseq	pc, sp, r3, lsl #20
    18e4:	03c10500 	biceq	r0, r1, #0, 10
    18e8:	00001945 	andeq	r1, r0, r5, asr #18
    18ec:	9403c205 	strls	ip, [r3], #-517	; 0xfffffdfb
    18f0:	00000063 	andeq	r0, r0, r3, rrx
    18f4:	05000004 	streq	r0, [r0, #-4]
    18f8:	00327911 	eorseq	r7, r2, r1, lsl r9
    18fc:	6d120500 	cfldr32vs	mvfx0, [r2, #-0]
    1900:	05000041 	streq	r0, [r0, #-65]	; 0xffffffbf
    1904:	00359313 	eorseq	r9, r5, r3, lsl r3
    1908:	3a150500 	bcc	542d10 <_Min_Stack_Size+0x542910>
    190c:	0500000f 	streq	r0, [r0, #-15]
    1910:	00025016 	andeq	r5, r2, r6, lsl r0
    1914:	aa1c0500 	bge	702d1c <_Min_Stack_Size+0x70291c>
    1918:	05000070 	streq	r0, [r0, #-112]	; 0xffffff90
    191c:	0080341f 	addeq	r3, r0, pc, lsl r4
    1920:	05200500 	streq	r0, [r0, #-1280]!	; 0xfffffb00
    1924:	05000006 	streq	r0, [r0, #-6]
    1928:	00834a21 	addeq	r4, r3, r1, lsr #20
    192c:	c6220500 	strtgt	r0, [r2], -r0, lsl #10
    1930:	05000012 	streq	r0, [r0, #-18]	; 0xffffffee
    1934:	00498c23 	subeq	r8, r9, r3, lsr #24
    1938:	fa240500 	blx	902d40 <_Min_Stack_Size+0x902940>
    193c:	05000047 	streq	r0, [r0, #-71]	; 0xffffffb9
    1940:	00768f25 	rsbseq	r8, r6, r5, lsr #30
    1944:	0d270500 	cfstr32eq	mvfx0, [r7, #-0]
    1948:	05000086 	streq	r0, [r0, #-134]	; 0xffffff7a
    194c:	00052828 	andeq	r2, r5, r8, lsr #16
    1950:	63290500 			; <UNDEFINED> instruction: 0x63290500
    1954:	05000059 	streq	r0, [r0, #-89]	; 0xffffffa7
    1958:	007ddd2c 	rsbseq	sp, sp, ip, lsr #26
    195c:	f42d0500 	vld3.8	{d0,d2,d4}, [sp], r0
    1960:	05000046 	streq	r0, [r0, #-70]	; 0xffffffba
    1964:	006e542e 	rsbeq	r5, lr, lr, lsr #8
    1968:	692f0500 	stmdbvs	pc!, {r8, sl}	; <UNPREDICTABLE>
    196c:	0500005a 	streq	r0, [r0, #-90]	; 0xffffffa6
    1970:	002b8330 	eoreq	r8, fp, r0, lsr r3
    1974:	fa310500 	blx	c42d7c <_Min_Stack_Size+0xc4297c>
    1978:	05000029 	streq	r0, [r0, #-41]	; 0xffffffd7
    197c:	008c6432 	addeq	r6, ip, r2, lsr r4
    1980:	29340500 	ldmdbcs	r4!, {r8, sl}
    1984:	05000092 	streq	r0, [r0, #-146]	; 0xffffff6e
    1988:	00901135 	addseq	r1, r0, r5, lsr r1
    198c:	71360500 	teqvc	r6, r0, lsl #10
    1990:	05000031 	streq	r0, [r0, #-49]	; 0xffffffcf
    1994:	00553e37 	subseq	r3, r5, r7, lsr lr
    1998:	af380500 	svcge	0x00380500
    199c:	0500000b 	streq	r0, [r0, #-11]
    19a0:	00851b39 	addeq	r1, r5, r9, lsr fp
    19a4:	db3a0500 	blle	e82dac <_Min_Stack_Size+0xe829ac>
    19a8:	05000023 	streq	r0, [r0, #-35]	; 0xffffffdd
    19ac:	0070943b 	rsbseq	r9, r0, fp, lsr r4
    19b0:	703c0500 	eorsvc	r0, ip, r0, lsl #10
    19b4:	05000011 	streq	r0, [r0, #-17]	; 0xffffffef
    19b8:	003af43e 	eorseq	pc, sl, lr, lsr r4	; <UNPREDICTABLE>
    19bc:	f43f0500 			; <UNDEFINED> instruction: 0xf43f0500
    19c0:	05000033 	streq	r0, [r0, #-51]	; 0xffffffcd
    19c4:	008f4d40 	addeq	r4, pc, r0, asr #26
    19c8:	fe410500 	cdp2	5, 4, cr0, cr1, cr0, {0}
    19cc:	0500008a 	streq	r0, [r0, #-138]	; 0xffffff76
    19d0:	00897342 	addeq	r7, r9, r2, asr #6
    19d4:	6d440500 	cfstr64vs	mvdx0, [r4, #-0]
    19d8:	05000085 	streq	r0, [r0, #-133]	; 0xffffff7b
    19dc:	00704545 	rsbseq	r4, r0, r5, asr #10
    19e0:	c04a0500 	subgt	r0, sl, r0, lsl #10
    19e4:	05000013 	streq	r0, [r0, #-19]	; 0xffffffed
    19e8:	0001764b 	andeq	r7, r1, fp, asr #12
    19ec:	b14c0500 	cmplt	ip, r0, lsl #10
    19f0:	05000031 	streq	r0, [r0, #-49]	; 0xffffffcf
    19f4:	001cba4d 	andseq	fp, ip, sp, asr #20
    19f8:	ab4f0500 	blge	13c2e00 <_Min_Stack_Size+0x13c2a00>
    19fc:	05000053 	streq	r0, [r0, #-83]	; 0xffffffad
    1a00:	256c0287 	strbcs	r0, [ip, #-647]!	; 0xfffffd79
    1a04:	88050000 	stmdahi	r5, {}	; <UNPREDICTABLE>
    1a08:	0075e602 	rsbseq	lr, r5, r2, lsl #12
    1a0c:	02890500 	addeq	r0, r9, #0, 10
    1a10:	00006236 	andeq	r6, r0, r6, lsr r2
    1a14:	ce028a05 	vmlagt.f32	s16, s4, s10
    1a18:	0500004d 	streq	r0, [r0, #-77]	; 0xffffffb3
    1a1c:	0732028b 	ldreq	r0, [r2, -fp, lsl #5]!
    1a20:	8e050000 	cdphi	0, 0, cr0, cr5, cr0, {0}
    1a24:	001e8a02 	andseq	r8, lr, r2, lsl #20
    1a28:	028f0500 	addeq	r0, pc, #0, 10
    1a2c:	000071f5 	strdeq	r7, [r0], -r5
    1a30:	90029005 	andls	r9, r2, r5
    1a34:	05000025 	streq	r0, [r0, #-37]	; 0xffffffdb
    1a38:	47b20291 			; <UNDEFINED> instruction: 0x47b20291
    1a3c:	92050000 	andls	r0, r5, #0
    1a40:	00155402 	andseq	r5, r5, r2, lsl #8
    1a44:	02980500 	addseq	r0, r8, #0, 10
    1a48:	0000898a 	andeq	r8, r0, sl, lsl #19
    1a4c:	28029a05 	stmdacs	r2, {r0, r2, r9, fp, ip, pc}
    1a50:	05000031 	streq	r0, [r0, #-49]	; 0xffffffcf
    1a54:	3bb5029c 	blcc	fed424cc <_estack+0xded3fccc>
    1a58:	9f050000 	svcls	0x00050000
    1a5c:	00367a02 	eorseq	r7, r6, r2, lsl #20
    1a60:	02a00500 	adceq	r0, r0, #0, 10
    1a64:	00000135 	andeq	r0, r0, r5, lsr r1
    1a68:	1502a105 	strne	sl, [r2, #-261]	; 0xfffffefb
    1a6c:	0500002d 	streq	r0, [r0, #-45]	; 0xffffffd3
    1a70:	1c9402a2 	lfmne	f0, 4, [r4], {162}	; 0xa2
    1a74:	a3050000 	movwge	r0, #20480	; 0x5000
    1a78:	005de902 	subseq	lr, sp, r2, lsl #18
    1a7c:	02a60500 	adceq	r0, r6, #0, 10
    1a80:	000030f1 	strdeq	r3, [r0], -r1
    1a84:	5302a705 	movwpl	sl, #9989	; 0x2705
    1a88:	0500000c 	streq	r0, [r0, #-12]
    1a8c:	0b1402a8 	bleq	502534 <_Min_Stack_Size+0x502134>
    1a90:	ac050000 	stcge	0, cr0, [r5], {-0}
    1a94:	0090e002 	addseq	lr, r0, r2
    1a98:	02ad0500 	adceq	r0, sp, #0, 10
    1a9c:	000004a8 	andeq	r0, r0, r8, lsr #9
    1aa0:	dd02ae05 	stcle	14, cr10, [r2, #-20]	; 0xffffffec
    1aa4:	0500000c 	streq	r0, [r0, #-12]
    1aa8:	60d802af 	sbcsvs	r0, r8, pc, lsr #5
    1aac:	b0050000 	andlt	r0, r5, r0
    1ab0:	0019b002 	andseq	fp, r9, r2
    1ab4:	02b20500 	adcseq	r0, r2, #0, 10
    1ab8:	0000608a 	andeq	r6, r0, sl, lsl #1
    1abc:	bb02b405 	bllt	aead8 <_Min_Stack_Size+0xae6d8>
    1ac0:	05000036 	streq	r0, [r0, #-54]	; 0xffffffca
    1ac4:	6e2602b5 	mcrvs	2, 1, r0, cr6, cr5, {5}
    1ac8:	b6050000 	strlt	r0, [r5], -r0
    1acc:	00754002 	rsbseq	r4, r5, r2
    1ad0:	02b80500 	adcseq	r0, r8, #0, 10
    1ad4:	0000537f 	andeq	r5, r0, pc, ror r3
    1ad8:	7102b905 	tstvc	r2, r5, lsl #18
    1adc:	05000024 	streq	r0, [r0, #-36]	; 0xffffffdc
    1ae0:	1bff02ba 	blne	fffc25d0 <_estack+0xdffbfdd0>
    1ae4:	c0050000 	andgt	r0, r5, r0
    1ae8:	006a8802 	rsbeq	r8, sl, r2, lsl #16
    1aec:	02c10500 	sbceq	r0, r1, #0, 10
    1af0:	000022be 			; <UNDEFINED> instruction: 0x000022be
    1af4:	ac02c205 	sfmge	f4, 1, [r2], {5}
    1af8:	0500000a 	streq	r0, [r0, #-10]
    1afc:	076e02c3 	strbeq	r0, [lr, -r3, asr #5]!
    1b00:	c4050000 	strgt	r0, [r5], #-0
    1b04:	003bd502 	eorseq	sp, fp, r2, lsl #10
    1b08:	02c50500 	sbceq	r0, r5, #0, 10
    1b0c:	0000164e 	andeq	r1, r0, lr, asr #12
    1b10:	9102c605 	tstls	r2, r5, lsl #12
    1b14:	05000038 	streq	r0, [r0, #-56]	; 0xffffffc8
    1b18:	292802c8 	stmdbcs	r8!, {r3, r6, r7, r9}
    1b1c:	c9050000 	stmdbgt	r5, {}	; <UNPREDICTABLE>
    1b20:	0064f002 	rsbeq	pc, r4, r2
    1b24:	02ca0500 	sbceq	r0, sl, #0, 10
    1b28:	00006449 	andeq	r6, r0, r9, asr #8
    1b2c:	8b02cb05 	blhi	b4748 <_Min_Stack_Size+0xb4348>
    1b30:	05000052 	streq	r0, [r0, #-82]	; 0xffffffae
    1b34:	8e4302cc 	cdphi	2, 4, cr0, cr3, cr12, {6}
    1b38:	cd050000 	stcgt	0, cr0, [r5, #-0]
    1b3c:	007f0102 	rsbseq	r0, pc, r2, lsl #2
    1b40:	02ce0500 	sbceq	r0, lr, #0, 10
    1b44:	00006a08 	andeq	r6, r0, r8, lsl #20
    1b48:	8d02d205 	sfmhi	f5, 1, [r2, #-20]	; 0xffffffec
    1b4c:	05000090 	streq	r0, [r0, #-144]	; 0xffffff70
    1b50:	918202d3 	ldrdls	r0, [r2, r3]
    1b54:	d4050000 	strle	r0, [r5], #-0
    1b58:	002fa502 	eoreq	sl, pc, r2, lsl #10
    1b5c:	02d70500 	sbcseq	r0, r7, #0, 10
    1b60:	000037ba 			; <UNDEFINED> instruction: 0x000037ba
    1b64:	ad02d805 	stcge	8, cr13, [r2, #-20]	; 0xffffffec
    1b68:	05000010 	streq	r0, [r0, #-16]
    1b6c:	49d002d9 	ldmibmi	r0, {r0, r3, r4, r6, r7, r9}^
    1b70:	dd050000 	stcle	0, cr0, [r5, #-0]
    1b74:	007cc102 	rsbseq	ip, ip, r2, lsl #2
    1b78:	02de0500 	sbcseq	r0, lr, #0, 10
    1b7c:	00007a10 	andeq	r7, r0, r0, lsl sl
    1b80:	be02df05 	cdplt	15, 0, cr13, cr2, cr5, {0}
    1b84:	05000077 	streq	r0, [r0, #-119]	; 0xffffff89
    1b88:	6d1802e2 	lfmvs	f0, 4, [r8, #-904]	; 0xfffffc78
    1b8c:	e3050000 	movw	r0, #20480	; 0x5000
    1b90:	00581602 	subseq	r1, r8, r2, lsl #12
    1b94:	02e40500 	rsceq	r0, r4, #0, 10
    1b98:	00008ac5 	andeq	r8, r0, r5, asr #21
    1b9c:	00000400 	andeq	r0, r0, r0, lsl #8
    1ba0:	5ad12005 	bpl	ff449bbc <_estack+0xdf4473bc>
    1ba4:	21050000 	mrscs	r0, (UNDEF: 5)
    1ba8:	00005f40 	andeq	r5, r0, r0, asr #30
    1bac:	85af2205 	strhi	r2, [pc, #517]!	; 1db9 <_Min_Stack_Size+0x19b9>
    1bb0:	23050000 	movwcs	r0, #20480	; 0x5000
    1bb4:	00008845 	andeq	r8, r0, r5, asr #16
    1bb8:	0c842405 	cfstrseq	mvf2, [r4], {5}
    1bbc:	25050000 	strcs	r0, [r5, #-0]
    1bc0:	0000270e 	andeq	r2, r0, lr, lsl #14
    1bc4:	46d52605 	ldrbmi	r2, [r5], r5, lsl #12
    1bc8:	27050000 	strcs	r0, [r5, -r0]
    1bcc:	00000d86 	andeq	r0, r0, r6, lsl #27
    1bd0:	505e2805 	subspl	r2, lr, r5, lsl #16
    1bd4:	29050000 	stmdbcs	r5, {}	; <UNPREDICTABLE>
    1bd8:	000087f6 	strdeq	r8, [r0], -r6
    1bdc:	8b6c2a05 	blhi	1b0c3f8 <_Min_Stack_Size+0x1b0bff8>
    1be0:	2b050000 	blcs	141be8 <_Min_Stack_Size+0x1417e8>
    1be4:	00006df3 	strdeq	r6, [r0], -r3
    1be8:	26c52c05 	strbcs	r2, [r5], r5, lsl #24
    1bec:	2d050000 	stccs	0, cr0, [r5, #-0]
    1bf0:	000033c8 	andeq	r3, r0, r8, asr #7
    1bf4:	15a52e05 	strne	r2, [r5, #3589]!	; 0xe05
    1bf8:	2f050000 	svccs	0x00050000
    1bfc:	00006b94 	muleq	r0, r4, fp
    1c00:	72f33005 	rscsvc	r3, r3, #5
    1c04:	32050000 	andcc	r0, r5, #0
    1c08:	000000be 	strheq	r0, [r0], -lr
    1c0c:	2ed54405 	cdpcs	4, 13, cr4, cr5, cr5, {0}
    1c10:	45050000 	strmi	r0, [r5, #-0]
    1c14:	00004284 	andeq	r4, r0, r4, lsl #5
    1c18:	75c84605 	strbvc	r4, [r8, #1541]	; 0x605
    1c1c:	47050000 	strmi	r0, [r5, -r0]
    1c20:	00003ec0 	andeq	r3, r0, r0, asr #29
    1c24:	62e44805 	rscvs	r4, r4, #327680	; 0x50000
    1c28:	49050000 	stmdbmi	r5, {}	; <UNPREDICTABLE>
    1c2c:	0000705b 	andeq	r7, r0, fp, asr r0
    1c30:	4f5a4a05 	svcmi	0x005a4a05
    1c34:	4b050000 	blmi	141c3c <_Min_Stack_Size+0x14183c>
    1c38:	0000254a 	andeq	r2, r0, sl, asr #10
    1c3c:	7b714c05 	blvc	1c54c58 <_Min_Stack_Size+0x1c54858>
    1c40:	57050000 	strpl	r0, [r5, -r0]
    1c44:	0000621b 	andeq	r6, r0, fp, lsl r2
    1c48:	8bca5805 	blhi	ff297c64 <_estack+0xdf295464>
    1c4c:	59050000 	stmdbpl	r5, {}	; <UNPREDICTABLE>
    1c50:	00003c99 	muleq	r0, r9, ip
    1c54:	00000400 	andeq	r0, r0, r0, lsl #8
    1c58:	6be42c05 	blvs	ff90cc74 <_estack+0xdf90a474>
    1c5c:	2d050000 	stccs	0, cr0, [r5, #-0]
    1c60:	00002814 	andeq	r2, r0, r4, lsl r8
    1c64:	4daa2e05 	stcmi	14, cr2, [sl, #20]!
    1c68:	2f050000 	svccs	0x00050000
    1c6c:	000033e8 	andeq	r3, r0, r8, ror #7
    1c70:	840d3005 	strhi	r3, [sp], #-5
    1c74:	31050000 	mrscc	r0, (UNDEF: 5)
    1c78:	000055a6 	andeq	r5, r0, r6, lsr #11
    1c7c:	1e6d3205 	cdpne	2, 6, cr3, cr13, cr5, {0}
    1c80:	33050000 	movwcc	r0, #20480	; 0x5000
    1c84:	00007c60 	andeq	r7, r0, r0, ror #24
    1c88:	759d3405 	ldrvc	r3, [sp, #1029]	; 0x405
    1c8c:	35050000 	strcc	r0, [r5, #-0]
    1c90:	00000318 	andeq	r0, r0, r8, lsl r3
    1c94:	53713605 	cmnpl	r1, #5242880	; 0x500000
    1c98:	37050000 	strcc	r0, [r5, -r0]
    1c9c:	0000659c 	muleq	r0, ip, r5
    1ca0:	78cc3805 	stmiavc	ip, {r0, r2, fp, ip, sp}^
    1ca4:	39050000 	stmdbcc	r5, {}	; <UNPREDICTABLE>
    1ca8:	00002b17 	andeq	r2, r0, r7, lsl fp
    1cac:	53d83a05 	bicspl	r3, r8, #20480	; 0x5000
    1cb0:	3b050000 	blcc	141cb8 <_Min_Stack_Size+0x1418b8>
    1cb4:	00006ab3 			; <UNDEFINED> instruction: 0x00006ab3
    1cb8:	44633c05 	strbtmi	r3, [r3], #-3077	; 0xfffff3fb
    1cbc:	3d050000 	stccc	0, cr0, [r5, #-0]
    1cc0:	00005166 	andeq	r5, r0, r6, ror #2
    1cc4:	44f23e05 	ldrbtmi	r3, [r2], #3589	; 0xe05
    1cc8:	3f050000 	svccc	0x00050000
    1ccc:	00006133 	andeq	r6, r0, r3, lsr r1
    1cd0:	2a4a4005 	bcs	1291cec <_Min_Stack_Size+0x12918ec>
    1cd4:	41050000 	mrsmi	r0, (UNDEF: 5)
    1cd8:	00000f57 	andeq	r0, r0, r7, asr pc
    1cdc:	33c04505 	biccc	r4, r0, #20971520	; 0x1400000
    1ce0:	46050000 	strmi	r0, [r5], -r0
    1ce4:	000053e6 	andeq	r5, r0, r6, ror #7
    1ce8:	6f054705 	svcvs	0x00054705
    1cec:	48050000 	stmdami	r5, {}	; <UNPREDICTABLE>
    1cf0:	00008bec 	andeq	r8, r0, ip, ror #23
    1cf4:	5fc94905 	svcpl	0x00c94905
    1cf8:	4a050000 	bmi	141d00 <_Min_Stack_Size+0x141900>
    1cfc:	000034a8 	andeq	r3, r0, r8, lsr #9
    1d00:	558b4b05 	strpl	r4, [fp, #2821]	; 0xb05
    1d04:	4c050000 	stcmi	0, cr0, [r5], {-0}
    1d08:	00007fc1 	andeq	r7, r0, r1, asr #31
    1d0c:	8ce34d05 	stclhi	13, cr4, [r3], #20
    1d10:	4e050000 	cdpmi	0, 0, cr0, cr5, cr0, {0}
    1d14:	000019a8 	andeq	r1, r0, r8, lsr #19
    1d18:	0e294f05 	cdpeq	15, 2, cr4, cr9, cr5, {0}
    1d1c:	50050000 	andpl	r0, r5, r0
    1d20:	0000591d 	andeq	r5, r0, sp, lsl r9
    1d24:	5d535105 	ldfple	f5, [r3, #-20]	; 0xffffffec
    1d28:	52050000 	andpl	r0, r5, #0
    1d2c:	00008c44 	andeq	r8, r0, r4, asr #24
    1d30:	107e5305 	rsbsne	r5, lr, r5, lsl #6
    1d34:	54050000 	strpl	r0, [r5], #-0
    1d38:	00005ba0 	andeq	r5, r0, r0, lsr #23
    1d3c:	6ac15a05 	bvs	ff058558 <_estack+0xdf055d58>
    1d40:	5b050000 	blpl	141d48 <_Min_Stack_Size+0x141948>
    1d44:	00003540 	andeq	r3, r0, r0, asr #10
    1d48:	74905c05 	ldrvc	r5, [r0], #3077	; 0xc05
    1d4c:	5d050000 	stcpl	0, cr0, [r5, #-0]
    1d50:	00004056 	andeq	r4, r0, r6, asr r0
    1d54:	24d96105 	ldrbcs	r6, [r9], #261	; 0x105
    1d58:	62050000 	andvs	r0, r5, #0
    1d5c:	0000627d 	andeq	r6, r0, sp, ror r2
    1d60:	74fc6305 	ldrbtvc	r6, [ip], #773	; 0x305
    1d64:	64050000 	strvs	r0, [r5], #-0
    1d68:	000091d2 	ldrdeq	r9, [r0], -r2
    1d6c:	43ac6805 			; <UNDEFINED> instruction: 0x43ac6805
    1d70:	69050000 	stmdbvs	r5, {}	; <UNPREDICTABLE>
    1d74:	0000923f 	andeq	r9, r0, pc, lsr r2
    1d78:	33476a05 	movtcc	r6, #31237	; 0x7a05
    1d7c:	6b050000 	blvs	141d84 <_Min_Stack_Size+0x141984>
    1d80:	000009b5 			; <UNDEFINED> instruction: 0x000009b5
    1d84:	1db26f05 	ldcne	15, cr6, [r2, #20]!
    1d88:	70050000 	andvc	r0, r5, r0
    1d8c:	00001aba 			; <UNDEFINED> instruction: 0x00001aba
    1d90:	3b717105 	blcc	1c5e1ac <_Min_Stack_Size+0x1c5ddac>
    1d94:	72050000 	andvc	r0, r5, #0
    1d98:	00000962 	andeq	r0, r0, r2, ror #18
    1d9c:	5f6e7605 	svcpl	0x006e7605
    1da0:	77050000 	strvc	r0, [r5, -r0]
    1da4:	000038fc 	strdeq	r3, [r0], -ip
    1da8:	7fce7805 	svcvc	0x00ce7805
    1dac:	79050000 	stmdbvc	r5, {}	; <UNPREDICTABLE>
    1db0:	00001f84 	andeq	r1, r0, r4, lsl #31
    1db4:	3c237d05 	stccc	13, cr7, [r3], #-20	; 0xffffffec
    1db8:	7e050000 	cdpvc	0, 0, cr0, cr5, cr0, {0}
    1dbc:	00004500 	andeq	r4, r0, r0, lsl #10
    1dc0:	86557f05 	ldrbhi	r7, [r5], -r5, lsl #30
    1dc4:	80050000 	andhi	r0, r5, r0
    1dc8:	005e2d01 	subseq	r2, lr, r1, lsl #26
    1dcc:	01840500 	orreq	r0, r4, r0, lsl #10
    1dd0:	00006313 	andeq	r6, r0, r3, lsl r3
    1dd4:	3f018505 	svccc	0x00018505
    1dd8:	0500000a 	streq	r0, [r0, #-10]
    1ddc:	1a760186 	bne	1d823fc <_Min_Stack_Size+0x1d81ffc>
    1de0:	87050000 	strhi	r0, [r5, -r0]
    1de4:	00277c01 	eoreq	r7, r7, r1, lsl #24
    1de8:	018b0500 	orreq	r0, fp, r0, lsl #10
    1dec:	0000677d 	andeq	r6, r0, sp, ror r7
    1df0:	6c018c05 	stcvs	12, cr8, [r1], {5}
    1df4:	05000072 	streq	r0, [r0, #-114]	; 0xffffff8e
    1df8:	213e018d 	teqcs	lr, sp, lsl #3
    1dfc:	8e050000 	cdphi	0, 0, cr0, cr5, cr0, {0}
    1e00:	00651c01 	rsbeq	r1, r5, r1, lsl #24
    1e04:	01920500 	orrseq	r0, r2, r0, lsl #10
    1e08:	000054c4 	andeq	r5, r0, r4, asr #9
    1e0c:	c0019305 	andgt	r9, r1, r5, lsl #6
    1e10:	05000027 	streq	r0, [r0, #-39]	; 0xffffffd9
    1e14:	8ec00194 	mcrhi	1, 6, r0, cr0, cr4, {4}
    1e18:	95050000 	strls	r0, [r5, #-0]
    1e1c:	0020a501 	eoreq	sl, r0, r1, lsl #10
    1e20:	01990500 	orrseq	r0, r9, r0, lsl #10
    1e24:	00003636 	andeq	r3, r0, r6, lsr r6
    1e28:	43019a05 	movwmi	r9, #6661	; 0x1a05
    1e2c:	05000012 	streq	r0, [r0, #-18]	; 0xffffffee
    1e30:	7c1c019b 	ldfvcs	f0, [ip], {155}	; 0x9b
    1e34:	9c050000 	stcls	0, cr0, [r5], {-0}
    1e38:	00732c01 	rsbseq	r2, r3, r1, lsl #24
    1e3c:	01a00500 	lsleq	r0, r0, #10
    1e40:	0000039a 	muleq	r0, sl, r3
    1e44:	6c01a105 	stfvsd	f2, [r1], {5}
    1e48:	0500006d 	streq	r0, [r0, #-109]	; 0xffffff93
    1e4c:	51ab01a2 			; <UNDEFINED> instruction: 0x51ab01a2
    1e50:	a3050000 	movwge	r0, #20480	; 0x5000
    1e54:	001d5f01 	andseq	r5, sp, r1, lsl #30
    1e58:	01a70500 			; <UNDEFINED> instruction: 0x01a70500
    1e5c:	000068fe 	strdeq	r6, [r0], -lr
    1e60:	5001a805 	andpl	sl, r1, r5, lsl #16
    1e64:	05000087 	streq	r0, [r0, #-135]	; 0xffffff79
    1e68:	42df01a9 	sbcsmi	r0, pc, #1073741866	; 0x4000002a
    1e6c:	aa050000 	bge	141e74 <_Min_Stack_Size+0x141a74>
    1e70:	008f0401 	addeq	r0, pc, r1, lsl #8
    1e74:	01ae0500 			; <UNDEFINED> instruction: 0x01ae0500
    1e78:	00003848 	andeq	r3, r0, r8, asr #16
    1e7c:	b201af05 	andlt	sl, r1, #5, 30
    1e80:	0500000e 	streq	r0, [r0, #-14]
    1e84:	13d801b0 	bicsne	r0, r8, #176, 2	; 0x2c
    1e88:	b1050000 	mrslt	r0, (UNDEF: 5)
    1e8c:	0025dc01 	eoreq	sp, r5, r1, lsl #24
    1e90:	01b50500 			; <UNDEFINED> instruction: 0x01b50500
    1e94:	0000662c 	andeq	r6, r0, ip, lsr #12
    1e98:	1a01b605 	bne	6f6b4 <_Min_Stack_Size+0x6f2b4>
    1e9c:	05000078 	streq	r0, [r0, #-120]	; 0xffffff88
    1ea0:	892a01b7 	stmdbhi	sl!, {r0, r1, r2, r4, r5, r7, r8}
    1ea4:	b8050000 	stmdalt	r5, {}	; <UNPREDICTABLE>
    1ea8:	0092e101 	addseq	lr, r2, r1, lsl #2
    1eac:	01bc0500 			; <UNDEFINED> instruction: 0x01bc0500
    1eb0:	0000848e 	andeq	r8, r0, lr, lsl #9
    1eb4:	5301bd05 	movwpl	fp, #7429	; 0x1d05
    1eb8:	0500003f 	streq	r0, [r0, #-63]	; 0xffffffc1
    1ebc:	233601be 	teqcs	r6, #-2147483601	; 0x8000002f
    1ec0:	bf050000 	svclt	0x00050000
    1ec4:	006f5801 	rsbeq	r5, pc, r1, lsl #16
    1ec8:	01c30500 	biceq	r0, r3, r0, lsl #10
    1ecc:	00000b43 	andeq	r0, r0, r3, asr #22
    1ed0:	bc01c405 	cfstrslt	mvf12, [r1], {5}
    1ed4:	05000005 	streq	r0, [r0, #-5]
    1ed8:	774201c5 	strbvc	r0, [r2, -r5, asr #3]
    1edc:	c6050000 	strgt	r0, [r5], -r0
    1ee0:	00321d01 	eorseq	r1, r2, r1, lsl #26
    1ee4:	01cb0500 	biceq	r0, fp, r0, lsl #10
    1ee8:	000024ad 	andeq	r2, r0, sp, lsr #9
    1eec:	9801cc05 	stmdals	r1, {r0, r2, sl, fp, lr, pc}
    1ef0:	0500000b 	streq	r0, [r0, #-11]
    1ef4:	5b8001cd 	blpl	fe002630 <_estack+0xddfffe30>
    1ef8:	d1050000 	mrsle	r0, (UNDEF: 5)
    1efc:	00813f01 	addeq	r3, r1, r1, lsl #30
    1f00:	01d20500 	bicseq	r0, r2, r0, lsl #10
    1f04:	000017dc 	ldrdeq	r1, [r0], -ip
    1f08:	02000400 	andeq	r0, r0, #0, 8
    1f0c:	0000079f 	muleq	r0, pc, r7	; <UNPREDICTABLE>
    1f10:	00016207 	andeq	r6, r1, r7, lsl #4
    1f14:	01000300 	mrseq	r0, LR_irq
    1f18:	05040903 	streq	r0, [r4, #-2307]	; 0xfffff6fd
    1f1c:	0088ad09 	addeq	sl, r8, r9, lsl #26
    1f20:	070d0300 	streq	r0, [sp, -r0, lsl #6]
    1f24:	7fb50805 	svcvc	0x00b50805
    1f28:	0a030000 	beq	c1f30 <_Min_Stack_Size+0xc1b30>
    1f2c:	0bea0708 	bleq	ffa83b54 <_estack+0xdfa81354>
    1f30:	03040000 	movweq	r0, #16384	; 0x4000
    1f34:	0805090b 	stmdaeq	r5, {r0, r1, r3, r8, fp}
    1f38:	00005363 	andeq	r5, r0, r3, ror #6
    1f3c:	050a0a03 	streq	r0, [sl, #-2563]	; 0xfffff5fd
    1f40:	00129f08 	andseq	r9, r2, r8, lsl #30
    1f44:	0b0e0300 	bleq	382b4c <_Min_Stack_Size+0x38274c>
    1f48:	000c0207 	andeq	r0, ip, r7, lsl #4
    1f4c:	24070400 	strcs	r0, [r7], #-1024	; 0xfffffc00
    1f50:	0400000c 	streq	r0, [r0], #-12
    1f54:	050c0b03 	streq	r0, [ip, #-2819]	; 0xfffff4fd
    1f58:	007ed102 	rsbseq	sp, lr, r2, lsl #2
    1f5c:	08040300 	stmdaeq	r4, {r8, r9}
    1f60:	0d050304 	stceq	3, cr0, [r5, #-16]
    1f64:	000c7007 	andeq	r7, ip, r7
    1f68:	04070400 	streq	r0, [r7], #-1024	; 0xfffffc00
    1f6c:	0400000d 	streq	r0, [r0], #-13
    1f70:	000d4007 	andeq	r4, sp, r7
    1f74:	74070400 	strvc	r0, [r7], #-1024	; 0xfffffc00
    1f78:	0300000d 	movweq	r0, #13
    1f7c:	8a070e10 	bhi	1c57c4 <_Min_Stack_Size+0x1c53c4>
    1f80:	0400000d 	streq	r0, [r0], #-13
    1f84:	050f1203 	streq	r1, [pc, #-515]	; 1d89 <_Min_Stack_Size+0x1989>
    1f88:	0056e00b 	subseq	lr, r6, fp
    1f8c:	090d0300 	stmdbeq	sp, {r8, r9}
    1f90:	0e0e0304 	cdpeq	3, 0, cr0, cr14, cr4, {0}
    1f94:	000e9807 	andeq	r9, lr, r7, lsl #16
    1f98:	0f030400 	svceq	0x00030400
    1f9c:	0f250710 	svceq	0x00250710
    1fa0:	18030000 	stmdane	r3, {}	; <UNPREDICTABLE>
    1fa4:	0f3b070e 	svceq	0x003b070e
    1fa8:	03040000 	movweq	r0, #16384	; 0x4000
    1fac:	0605111b 			; <UNDEFINED> instruction: 0x0605111b
    1fb0:	00005b29 	andeq	r5, r0, r9, lsr #22
    1fb4:	07020703 	streq	r0, [r2, -r3, lsl #14]
    1fb8:	00000f7e 	andeq	r0, r0, lr, ror pc
    1fbc:	d5070404 	strle	r0, [r7, #-1028]	; 0xfffffbfc
    1fc0:	0400000f 	streq	r0, [r0], #-15
    1fc4:	00100907 	andseq	r0, r0, r7, lsl #18
    1fc8:	12220300 	eorne	r0, r2, #0, 6
    1fcc:	00101907 	andseq	r1, r0, r7, lsl #18
    1fd0:	71070400 	tstvc	r7, r0, lsl #8
    1fd4:	03000010 	movweq	r0, #16
    1fd8:	071303f7 			; <UNDEFINED> instruction: 0x071303f7
    1fdc:	000010e2 	andeq	r1, r0, r2, ror #1
    1fe0:	10fe0704 	rscsne	r0, lr, r4, lsl #14
    1fe4:	03040000 	movweq	r0, #16384	; 0x4000
    1fe8:	2b051413 	blcs	14703c <_Min_Stack_Size+0x146c3c>
    1fec:	0000830f 	andeq	r8, r0, pc, lsl #6
    1ff0:	040e2f03 	streq	r2, [lr], #-3843	; 0xfffff0fd
    1ff4:	00122807 	andseq	r2, r2, r7, lsl #16
    1ff8:	14030400 	strne	r0, [r3], #-1024	; 0xfffffc00
    1ffc:	e5020515 	str	r0, [r2, #-1301]	; 0xfffffaeb
    2000:	04000026 	streq	r0, [r0], #-38	; 0xffffffda
    2004:	07161603 	ldreq	r1, [r6, -r3, lsl #12]
    2008:	00001569 	andeq	r1, r0, r9, ror #10
    200c:	157f0704 	ldrbne	r0, [pc, #-1796]!	; 1910 <_Min_Stack_Size+0x1510>
    2010:	03040000 	movweq	r0, #16384	; 0x4000
    2014:	0903170e 	stmdbeq	r3, {r1, r2, r3, r8, r9, sl, ip}
    2018:	d00a0518 	andle	r0, sl, r8, lsl r5
    201c:	03000006 	movweq	r0, #6
    2020:	a807190d 	stmdage	r7, {r0, r2, r3, r8, fp, ip}
    2024:	04000015 	streq	r0, [r0], #-21	; 0xffffffeb
    2028:	07030e03 	streq	r0, [r3, -r3, lsl #28]
    202c:	000016ab 	andeq	r1, r0, fp, lsr #13
    2030:	17150704 	ldrne	r0, [r5, -r4, lsl #14]
    2034:	05040000 	streq	r0, [r4, #-0]
    2038:	0006c70d 	andeq	ip, r6, sp, lsl #14
    203c:	f4070400 	vst3.8	{d0-d2}, [r7], r0
    2040:	04000018 	streq	r0, [r0], #-24	; 0xffffffe8
    2044:	05060a03 	streq	r0, [r6, #-2563]	; 0xfffff5fd
    2048:	00786c09 	rsbseq	r6, r8, r9, lsl #24
    204c:	040e0300 	streq	r0, [lr], #-768	; 0xfffffd00
    2050:	050f0304 	streq	r0, [pc, #-772]	; 1d54 <_Min_Stack_Size+0x1954>
    2054:	00206c07 	eoreq	r6, r0, r7, lsl #24
    2058:	55070400 	strpl	r0, [r7, #-1024]	; 0xfffffc00
    205c:	0400001c 	streq	r0, [r0], #-28	; 0xffffffe4
    2060:	04050b03 	streq	r0, [r5], #-2819	; 0xfffff4fd
    2064:	947d5b05 	ldrbtls	r5, [sp], #-2821	; 0xfffff4fb
    2068:	00040000 	andeq	r0, r4, r0
    206c:	05000004 	streq	r0, [r0, #-4]
    2070:	003d3e09 	eorseq	r3, sp, r9, lsl #28
    2074:	130c0500 	movwne	r0, #50432	; 0xc500
    2078:	05000024 	streq	r0, [r0, #-36]	; 0xffffffdc
    207c:	0032c20d 	eorseq	ip, r2, sp, lsl #4
    2080:	d1200500 			; <UNDEFINED> instruction: 0xd1200500
    2084:	0500005a 	streq	r0, [r0, #-90]	; 0xffffffa6
    2088:	005f4021 	subseq	r4, pc, r1, lsr #32
    208c:	af220500 	svcge	0x00220500
    2090:	05000085 	streq	r0, [r0, #-133]	; 0xffffff7b
    2094:	00884523 	addeq	r4, r8, r3, lsr #10
    2098:	84240500 	strthi	r0, [r4], #-1280	; 0xfffffb00
    209c:	0500000c 	streq	r0, [r0, #-12]
    20a0:	00270e25 	eoreq	r0, r7, r5, lsr #28
    20a4:	d5260500 	strle	r0, [r6, #-1280]!	; 0xfffffb00
    20a8:	05000046 	streq	r0, [r0, #-70]	; 0xffffffba
    20ac:	000d8627 	andeq	r8, sp, r7, lsr #12
    20b0:	5e280500 	cfsh64pl	mvdx0, mvdx8, #0
    20b4:	05000050 	streq	r0, [r0, #-80]	; 0xffffffb0
    20b8:	0087f629 	addeq	pc, r7, r9, lsr #12
    20bc:	6c2a0500 	cfstr32vs	mvfx0, [sl], #-0
    20c0:	0500008b 	streq	r0, [r0, #-139]	; 0xffffff75
    20c4:	006df32b 	rsbeq	pc, sp, fp, lsr #6
    20c8:	c52c0500 	strgt	r0, [ip, #-1280]!	; 0xfffffb00
    20cc:	05000026 	streq	r0, [r0, #-38]	; 0xffffffda
    20d0:	0033c82d 	eorseq	ip, r3, sp, lsr #16
    20d4:	a52e0500 	strge	r0, [lr, #-1280]!	; 0xfffffb00
    20d8:	05000015 	streq	r0, [r0, #-21]	; 0xffffffeb
    20dc:	006b942f 	rsbeq	r9, fp, pc, lsr #8
    20e0:	f3300500 	vrshl.u64	d0, d0, d0
    20e4:	05000072 	streq	r0, [r0, #-114]	; 0xffffff8e
    20e8:	0000be32 	andeq	fp, r0, r2, lsr lr
    20ec:	d5440500 	strble	r0, [r4, #-1280]	; 0xfffffb00
    20f0:	0500002e 	streq	r0, [r0, #-46]	; 0xffffffd2
    20f4:	00428445 	subeq	r8, r2, r5, asr #8
    20f8:	c8460500 	stmdagt	r6, {r8, sl}^
    20fc:	05000075 	streq	r0, [r0, #-117]	; 0xffffff8b
    2100:	003ec047 	eorseq	ip, lr, r7, asr #32
    2104:	e4480500 	strb	r0, [r8], #-1280	; 0xfffffb00
    2108:	05000062 	streq	r0, [r0, #-98]	; 0xffffff9e
    210c:	00705b49 	rsbseq	r5, r0, r9, asr #22
    2110:	5a4a0500 	bpl	1283518 <_Min_Stack_Size+0x1283118>
    2114:	0500004f 	streq	r0, [r0, #-79]	; 0xffffffb1
    2118:	00254a4b 	eoreq	r4, r5, fp, asr #20
    211c:	714c0500 	cmpvc	ip, r0, lsl #10
    2120:	0500007b 	streq	r0, [r0, #-123]	; 0xffffff85
    2124:	00621b57 	rsbeq	r1, r2, r7, asr fp
    2128:	ca580500 	bgt	1603530 <_Min_Stack_Size+0x1603130>
    212c:	0500008b 	streq	r0, [r0, #-139]	; 0xffffff75
    2130:	003c9959 	eorseq	r9, ip, r9, asr r9
    2134:	00040000 	andeq	r0, r4, r0
    2138:	0012b702 	andseq	fp, r2, r2, lsl #14
    213c:	01620700 	cmneq	r2, r0, lsl #14
    2140:	00030000 	andeq	r0, r3, r0
    2144:	05120301 	ldreq	r0, [r2, #-769]	; 0xfffffcff
    2148:	000bd407 	andeq	sp, fp, r7, lsl #8
    214c:	04100300 	ldreq	r0, [r0], #-768	; 0xfffffd00
    2150:	88ad0905 	stmiahi	sp!, {r0, r2, r8, fp}
    2154:	0d030000 	stceq	0, cr0, [r3, #-0]
    2158:	b5080506 	strlt	r0, [r8, #-1286]	; 0xfffffafa
    215c:	0300007f 	movweq	r0, #127	; 0x7f
    2160:	ea07070a 	b	1c3d90 <_Min_Stack_Size+0x1c3990>
    2164:	0400000b 	streq	r0, [r0], #-11
    2168:	05080b03 	streq	r0, [r8, #-2819]	; 0xfffff4fd
    216c:	00536308 	subseq	r6, r3, r8, lsl #6
    2170:	090a0300 	stmdbeq	sl, {r8, r9}
    2174:	129f0805 	addsne	r0, pc, #327680	; 0x50000
    2178:	0e030000 	cdpeq	0, 0, cr0, cr3, cr0, {0}
    217c:	0c02070a 	stceq	7, cr0, [r2], {10}
    2180:	07040000 	streq	r0, [r4, -r0]
    2184:	00000c24 	andeq	r0, r0, r4, lsr #24
    2188:	0b0b0304 	bleq	2c2da0 <_Min_Stack_Size+0x2c29a0>
    218c:	7ed10205 	cdpvc	2, 13, cr0, cr1, cr5, {0}
    2190:	04030000 	streq	r0, [r3], #-0
    2194:	05030407 	streq	r0, [r3, #-1031]	; 0xfffffbf9
    2198:	0c70070c 	ldcleq	7, cr0, [r0], #-48	; 0xffffffd0
    219c:	07040000 	streq	r0, [r4, -r0]
    21a0:	00000d04 	andeq	r0, r0, r4, lsl #26
    21a4:	0d400704 	stcleq	7, cr0, [r0, #-16]
    21a8:	07040000 	streq	r0, [r4, -r0]
    21ac:	00000d74 	andeq	r0, r0, r4, ror sp
    21b0:	070d1003 	streq	r1, [sp, -r3]
    21b4:	00000d8a 	andeq	r0, r0, sl, lsl #27
    21b8:	0e120304 	cdpeq	3, 1, cr0, cr2, cr4, {0}
    21bc:	56e00b05 	strbtpl	r0, [r0], r5, lsl #22
    21c0:	0d030000 	stceq	0, cr0, [r3, #-0]
    21c4:	0e030408 	cdpeq	4, 0, cr0, cr3, cr8, {0}
    21c8:	0e98070d 	cdpeq	7, 9, cr0, cr8, cr13, {0}
    21cc:	03040000 	movweq	r0, #16384	; 0x4000
    21d0:	25070f0f 	strcs	r0, [r7, #-3855]	; 0xfffff0f1
    21d4:	0300000f 	movweq	r0, #15
    21d8:	3b070d18 	blcc	1c5640 <_Min_Stack_Size+0x1c5240>
    21dc:	0400000f 	streq	r0, [r0], #-15
    21e0:	05101b03 	ldreq	r1, [r0, #-2819]	; 0xfffff4fd
    21e4:	005b2906 	subseq	r2, fp, r6, lsl #18
    21e8:	02070300 	andeq	r0, r7, #0, 6
    21ec:	000f7e07 	andeq	r7, pc, r7, lsl #28
    21f0:	07040400 	streq	r0, [r4, -r0, lsl #8]
    21f4:	00000fd5 	ldrdeq	r0, [r0], -r5
    21f8:	10090704 	andne	r0, r9, r4, lsl #14
    21fc:	22030000 	andcs	r0, r3, #0
    2200:	10190711 	andsne	r0, r9, r1, lsl r7
    2204:	07040000 	streq	r0, [r4, -r0]
    2208:	00001071 	andeq	r1, r0, r1, ror r0
    220c:	1203f703 	andne	pc, r3, #786432	; 0xc0000
    2210:	0010e207 	andseq	lr, r0, r7, lsl #4
    2214:	fe070400 	cdp2	4, 0, cr0, cr7, cr0, {0}
    2218:	04000010 	streq	r0, [r0], #-16
    221c:	05131303 	ldreq	r1, [r3, #-771]	; 0xfffffcfd
    2220:	00830f2b 	addeq	r0, r3, fp, lsr #30
    2224:	0d2f0300 	stceq	3, cr0, [pc, #-0]	; 222c <_Min_Stack_Size+0x1e2c>
    2228:	12280704 	eorne	r0, r8, #4, 14	; 0x100000
    222c:	03040000 	movweq	r0, #16384	; 0x4000
    2230:	02051414 	andeq	r1, r5, #20, 8	; 0x14000000
    2234:	000026e5 	andeq	r2, r0, r5, ror #13
    2238:	15160304 	ldrne	r0, [r6, #-772]	; 0xfffffcfc
    223c:	00156907 	andseq	r6, r5, r7, lsl #18
    2240:	7f070400 	svcvc	0x00070400
    2244:	04000015 	streq	r0, [r0], #-21	; 0xffffffeb
    2248:	03160e03 	tsteq	r6, #3, 28	; 0x30
    224c:	0a051709 	beq	147e78 <_Min_Stack_Size+0x147a78>
    2250:	000006d0 	ldrdeq	r0, [r0], -r0	; <UNPREDICTABLE>
    2254:	07180d03 	ldreq	r0, [r8, -r3, lsl #26]
    2258:	000015a8 	andeq	r1, r0, r8, lsr #11
    225c:	030e0304 	movweq	r0, #58116	; 0xe304
    2260:	0016ab07 	andseq	sl, r6, r7, lsl #22
    2264:	15070400 	strne	r0, [r7, #-1024]	; 0xfffffc00
    2268:	04000017 	streq	r0, [r0], #-23	; 0xffffffe9
    226c:	06c70d05 	strbeq	r0, [r7], r5, lsl #26
    2270:	07040000 	streq	r0, [r4, -r0]
    2274:	000018f4 	strdeq	r1, [r0], -r4
    2278:	1b9d0704 	blne	fe743e90 <_estack+0xde741690>
    227c:	03040000 	movweq	r0, #16384	; 0x4000
    2280:	04040413 	streq	r0, [r4], #-1043	; 0xfffffbed
	...

Disassembly of section .debug_line:

00000000 <.debug_line>:
       0:	00000717 	andeq	r0, r0, r7, lsl r7
       4:	06c00003 	strbeq	r0, [r0], r3
       8:	01020000 	mrseq	r0, (UNDEF: 2)
       c:	000d0efb 	strdeq	r0, [sp], -fp
      10:	01010101 	tsteq	r1, r1, lsl #2
      14:	01000000 	mrseq	r0, (UNDEF: 0)
      18:	2e010000 	cdpcs	0, 0, cr0, cr1, cr0, {0}
      1c:	72532f2e 	subsvc	r2, r3, #46, 30	; 0xb8
      20:	3a670063 	bcc	19c01b4 <_Min_Stack_Size+0x19bfdb4>
      24:	2e6e655c 	mcrcs	5, 3, r6, cr14, cr12, {2}
      28:	732d7473 			; <UNDEFINED> instruction: 0x732d7473
      2c:	32336d74 	eorscc	r6, r3, #116, 26	; 0x1d00
      30:	65627563 	strbvs	r7, [r2, #-1379]!	; 0xfffffa9d
      34:	5f656469 	svcpl	0x00656469
      38:	2e342e31 	mrccs	14, 1, r2, cr4, cr1, {1}
      3c:	35375f30 	ldrcc	r5, [r7, #-3888]!	; 0xfffff0d0
      40:	325f3131 	subscc	r3, pc, #1073741836	; 0x4000000c
      44:	30303230 	eorscc	r3, r0, r0, lsr r2
      48:	5f303237 	svcpl	0x00303237
      4c:	38323930 	ldmdacc	r2!, {r4, r5, r8, fp, ip, sp}
      50:	3638785f 			; <UNDEFINED> instruction: 0x3638785f
      54:	5f34365f 	svcpl	0x0034365f
      58:	5c657865 	stclpl	8, cr7, [r5], #-404	; 0xfffffe6c
      5c:	336d7473 	cmncc	sp, #1929379840	; 0x73000000
      60:	62756332 	rsbsvs	r6, r5, #-939524096	; 0xc8000000
      64:	65646965 	strbvs	r6, [r4, #-2405]!	; 0xfffff69b
      68:	342e315f 	strtcc	r3, [lr], #-351	; 0xfffffea1
      6c:	735c302e 	cmpvc	ip, #46	; 0x2e
      70:	32336d74 	eorscc	r6, r3, #116, 26	; 0x1d00
      74:	65627563 	strbvs	r7, [r2, #-1379]!	; 0xfffffa9d
      78:	5c656469 	cfstrdpl	mvd6, [r5], #-420	; 0xfffffe5c
      7c:	67756c70 			; <UNDEFINED> instruction: 0x67756c70
      80:	5c736e69 	ldclpl	14, cr6, [r3], #-420	; 0xfffffe5c
      84:	2e6d6f63 	cdpcs	15, 6, cr6, cr13, cr3, {3}
      88:	732e7473 			; <UNDEFINED> instruction: 0x732e7473
      8c:	32336d74 	eorscc	r6, r3, #116, 26	; 0x1d00
      90:	65627563 	strbvs	r7, [r2, #-1379]!	; 0xfffffa9d
      94:	6564692e 	strbvs	r6, [r4, #-2350]!	; 0xfffff6d2
      98:	75636d2e 	strbvc	r6, [r3, #-3374]!	; 0xfffff2d2
      9c:	7478652e 	ldrbtvc	r6, [r8], #-1326	; 0xfffffad2
      a0:	616e7265 	cmnvs	lr, r5, ror #4
      a4:	6f6f746c 	svcvs	0x006f746c
      a8:	672e736c 	strvs	r7, [lr, -ip, ror #6]!
      ac:	742d756e 	strtvc	r7, [sp], #-1390	; 0xfffffa92
      b0:	736c6f6f 	cmnvc	ip, #444	; 0x1bc
      b4:	726f662d 	rsbvc	r6, pc, #47185920	; 0x2d00000
      b8:	6d74732d 	ldclvs	3, cr7, [r4, #-180]!	; 0xffffff4c
      bc:	312e3233 			; <UNDEFINED> instruction: 0x312e3233
      c0:	2d332e30 	ldccs	14, cr2, [r3, #-192]!	; 0xffffff40
      c4:	31323032 	teqcc	r2, r2, lsr r0
      c8:	2e30312e 	rsfcssp	f3, f0, #0.5
      cc:	336e6977 	cmncc	lr, #1949696	; 0x1dc000
      d0:	2e315f32 	mrccs	15, 1, r5, cr1, cr2, {1}
      d4:	30322e30 	eorscc	r2, r2, r0, lsr lr
      d8:	30322e30 	eorscc	r2, r2, r0, lsr lr
      dc:	31303332 	teqcc	r0, r2, lsr r3
      e0:	30313631 	eorscc	r3, r1, r1, lsr r6
      e4:	745c3330 	ldrbvc	r3, [ip], #-816	; 0xfffffcd0
      e8:	736c6f6f 	cmnvc	ip, #444	; 0x1bc
      ec:	6e69625c 	mcrvs	2, 3, r6, cr9, cr12, {2}
      f0:	2f2e2e5c 	svccs	0x002e2e5c
      f4:	2f62696c 	svccs	0x0062696c
      f8:	2f636367 	svccs	0x00636367
      fc:	2d6d7261 	sfmcs	f7, 2, [sp, #-388]!	; 0xfffffe7c
     100:	656e6f6e 	strbvs	r6, [lr, #-3950]!	; 0xfffff092
     104:	6261652d 	rsbvs	r6, r1, #188743680	; 0xb400000
     108:	30312f69 	eorscc	r2, r1, r9, ror #30
     10c:	312e332e 			; <UNDEFINED> instruction: 0x312e332e
     110:	2f2e2e2f 	svccs	0x002e2e2f
     114:	2e2f2e2e 	cdpcs	14, 2, cr2, cr15, cr14, {1}
     118:	2e2e2f2e 	cdpcs	15, 2, cr2, cr14, cr14, {1}
     11c:	6d72612f 	ldfvse	f6, [r2, #-188]!	; 0xffffff44
     120:	6e6f6e2d 	cdpvs	14, 6, cr6, cr15, cr13, {1}
     124:	61652d65 	cmnvs	r5, r5, ror #26
     128:	692f6962 	stmdbvs	pc!, {r1, r5, r6, r8, fp, sp, lr}	; <UNPREDICTABLE>
     12c:	756c636e 	strbvc	r6, [ip, #-878]!	; 0xfffffc92
     130:	6d2f6564 	cfstr32vs	mvfx6, [pc, #-400]!	; ffffffa8 <_estack+0xdfffd7a8>
     134:	69686361 	stmdbvs	r8!, {r0, r5, r6, r8, r9, sp, lr}^
     138:	6700656e 	strvs	r6, [r0, -lr, ror #10]
     13c:	6e655c3a 	mcrvs	12, 3, r5, cr5, cr10, {1}
     140:	2d74732e 	ldclcs	3, cr7, [r4, #-184]!	; 0xffffff48
     144:	336d7473 	cmncc	sp, #1929379840	; 0x73000000
     148:	62756332 	rsbsvs	r6, r5, #-939524096	; 0xc8000000
     14c:	65646965 	strbvs	r6, [r4, #-2405]!	; 0xfffff69b
     150:	342e315f 	strtcc	r3, [lr], #-351	; 0xfffffea1
     154:	375f302e 	ldrbcc	r3, [pc, -lr, lsr #32]
     158:	5f313135 	svcpl	0x00313135
     15c:	30323032 	eorscc	r3, r2, r2, lsr r0
     160:	30323730 	eorscc	r3, r2, r0, lsr r7
     164:	3239305f 	eorscc	r3, r9, #95	; 0x5f
     168:	38785f38 	ldmdacc	r8!, {r3, r4, r5, r8, r9, sl, fp, ip, lr}^
     16c:	34365f36 	ldrtcc	r5, [r6], #-3894	; 0xfffff0ca
     170:	6578655f 	ldrbvs	r6, [r8, #-1375]!	; 0xfffffaa1
     174:	6d74735c 	ldclvs	3, cr7, [r4, #-368]!	; 0xfffffe90
     178:	75633233 	strbvc	r3, [r3, #-563]!	; 0xfffffdcd
     17c:	64696562 	strbtvs	r6, [r9], #-1378	; 0xfffffa9e
     180:	2e315f65 	cdpcs	15, 3, cr5, cr1, cr5, {3}
     184:	5c302e34 	ldcpl	14, cr2, [r0], #-208	; 0xffffff30
     188:	336d7473 	cmncc	sp, #1929379840	; 0x73000000
     18c:	62756332 	rsbsvs	r6, r5, #-939524096	; 0xc8000000
     190:	65646965 	strbvs	r6, [r4, #-2405]!	; 0xfffff69b
     194:	756c705c 	strbvc	r7, [ip, #-92]!	; 0xffffffa4
     198:	736e6967 	cmnvc	lr, #1687552	; 0x19c000
     19c:	6d6f635c 	stclvs	3, cr6, [pc, #-368]!	; 34 <_Min_Heap_Size-0x1cc>
     1a0:	2e74732e 	cdpcs	3, 7, cr7, cr4, cr14, {1}
     1a4:	336d7473 	cmncc	sp, #1929379840	; 0x73000000
     1a8:	62756332 	rsbsvs	r6, r5, #-939524096	; 0xc8000000
     1ac:	64692e65 	strbtvs	r2, [r9], #-3685	; 0xfffff19b
     1b0:	636d2e65 	cmnvs	sp, #1616	; 0x650
     1b4:	78652e75 	stmdavc	r5!, {r0, r2, r4, r5, r6, r9, sl, fp, sp}^
     1b8:	6e726574 	mrcvs	5, 3, r6, cr2, cr4, {3}
     1bc:	6f746c61 	svcvs	0x00746c61
     1c0:	2e736c6f 	cdpcs	12, 7, cr6, cr3, cr15, {3}
     1c4:	2d756e67 	ldclcs	14, cr6, [r5, #-412]!	; 0xfffffe64
     1c8:	6c6f6f74 	stclvs	15, cr6, [pc], #-464	; 0 <_Min_Heap_Size-0x200>
     1cc:	6f662d73 	svcvs	0x00662d73
     1d0:	74732d72 	ldrbtvc	r2, [r3], #-3442	; 0xfffff28e
     1d4:	2e32336d 	cdpcs	3, 3, cr3, cr2, cr13, {3}
     1d8:	332e3031 			; <UNDEFINED> instruction: 0x332e3031
     1dc:	3230322d 	eorscc	r3, r0, #-805306366	; 0xd0000002
     1e0:	30312e31 	eorscc	r2, r1, r1, lsr lr
     1e4:	6e69772e 	cdpvs	7, 6, cr7, cr9, cr14, {1}
     1e8:	315f3233 	cmpcc	pc, r3, lsr r2	; <UNPREDICTABLE>
     1ec:	322e302e 	eorcc	r3, lr, #46	; 0x2e
     1f0:	322e3030 	eorcc	r3, lr, #48	; 0x30
     1f4:	30333230 	eorscc	r3, r3, r0, lsr r2
     1f8:	31363131 	teqcc	r6, r1, lsr r1
     1fc:	5c333030 	ldcpl	0, cr3, [r3], #-192	; 0xffffff40
     200:	6c6f6f74 	stclvs	15, cr6, [pc], #-464	; 38 <_Min_Heap_Size-0x1c8>
     204:	69625c73 	stmdbvs	r2!, {r0, r1, r4, r5, r6, sl, fp, ip, lr}^
     208:	2e2e5c6e 	cdpcs	12, 2, cr5, cr14, cr14, {3}
     20c:	62696c2f 	rsbvs	r6, r9, #12032	; 0x2f00
     210:	6363672f 	cmnvs	r3, #12320768	; 0xbc0000
     214:	6d72612f 	ldfvse	f6, [r2, #-188]!	; 0xffffff44
     218:	6e6f6e2d 	cdpvs	14, 6, cr6, cr15, cr13, {1}
     21c:	61652d65 	cmnvs	r5, r5, ror #26
     220:	312f6962 			; <UNDEFINED> instruction: 0x312f6962
     224:	2e332e30 	mrccs	14, 1, r2, cr3, cr0, {1}
     228:	2e2e2f31 	mcrcs	15, 1, r2, cr14, cr1, {1}
     22c:	2f2e2e2f 	svccs	0x002e2e2f
     230:	2e2f2e2e 	cdpcs	14, 2, cr2, cr15, cr14, {1}
     234:	72612f2e 	rsbvc	r2, r1, #46, 30	; 0xb8
     238:	6f6e2d6d 	svcvs	0x006e2d6d
     23c:	652d656e 	strvs	r6, [sp, #-1390]!	; 0xfffffa92
     240:	2f696261 	svccs	0x00696261
     244:	6c636e69 	stclvs	14, cr6, [r3], #-420	; 0xfffffe5c
     248:	2f656475 	svccs	0x00656475
     24c:	00737973 	rsbseq	r7, r3, r3, ror r9
     250:	442f3a44 	strtmi	r3, [pc], #-2628	; 258 <_Min_Heap_Size+0x58>
     254:	65766972 	ldrbvs	r6, [r6, #-2418]!	; 0xfffff68e
     258:	732f7372 			; <UNDEFINED> instruction: 0x732f7372
     25c:	32336d74 	eorscc	r6, r3, #116, 26	; 0x1d00
     260:	3031665f 	eorscc	r6, r1, pc, asr r6
     264:	5f366333 	svcpl	0x00366333
     268:	76697264 	strbtvc	r7, [r9], -r4, ror #4
     26c:	2f737265 	svccs	0x00737265
     270:	00636e49 	rsbeq	r6, r3, r9, asr #28
     274:	655c3a67 	ldrbvs	r3, [ip, #-2663]	; 0xfffff599
     278:	74732e6e 	ldrbtvc	r2, [r3], #-3694	; 0xfffff192
     27c:	6d74732d 	ldclvs	3, cr7, [r4, #-180]!	; 0xffffff4c
     280:	75633233 	strbvc	r3, [r3, #-563]!	; 0xfffffdcd
     284:	64696562 	strbtvs	r6, [r9], #-1378	; 0xfffffa9e
     288:	2e315f65 	cdpcs	15, 3, cr5, cr1, cr5, {3}
     28c:	5f302e34 	svcpl	0x00302e34
     290:	31313537 	teqcc	r1, r7, lsr r5
     294:	3230325f 	eorscc	r3, r0, #-268435451	; 0xf0000005
     298:	32373030 	eorscc	r3, r7, #48	; 0x30
     29c:	39305f30 	ldmdbcc	r0!, {r4, r5, r8, r9, sl, fp, ip, lr}
     2a0:	785f3832 	ldmdavc	pc, {r1, r4, r5, fp, ip, sp}^	; <UNPREDICTABLE>
     2a4:	365f3638 			; <UNDEFINED> instruction: 0x365f3638
     2a8:	78655f34 	stmdavc	r5!, {r2, r4, r5, r8, r9, sl, fp, ip, lr}^
     2ac:	74735c65 	ldrbtvc	r5, [r3], #-3173	; 0xfffff39b
     2b0:	6332336d 	teqvs	r2, #-1275068415	; 0xb4000001
     2b4:	69656275 	stmdbvs	r5!, {r0, r2, r4, r5, r6, r9, sp, lr}^
     2b8:	315f6564 	cmpcc	pc, r4, ror #10
     2bc:	302e342e 	eorcc	r3, lr, lr, lsr #8
     2c0:	6d74735c 	ldclvs	3, cr7, [r4, #-368]!	; 0xfffffe90
     2c4:	75633233 	strbvc	r3, [r3, #-563]!	; 0xfffffdcd
     2c8:	64696562 	strbtvs	r6, [r9], #-1378	; 0xfffffa9e
     2cc:	6c705c65 	ldclvs	12, cr5, [r0], #-404	; 0xfffffe6c
     2d0:	6e696775 	mcrvs	7, 3, r6, cr9, cr5, {3}
     2d4:	6f635c73 	svcvs	0x00635c73
     2d8:	74732e6d 	ldrbtvc	r2, [r3], #-3693	; 0xfffff193
     2dc:	6d74732e 	ldclvs	3, cr7, [r4, #-184]!	; 0xffffff48
     2e0:	75633233 	strbvc	r3, [r3, #-563]!	; 0xfffffdcd
     2e4:	692e6562 	stmdbvs	lr!, {r1, r5, r6, r8, sl, sp, lr}
     2e8:	6d2e6564 	cfstr32vs	mvfx6, [lr, #-400]!	; 0xfffffe70
     2ec:	652e7563 	strvs	r7, [lr, #-1379]!	; 0xfffffa9d
     2f0:	72657478 	rsbvc	r7, r5, #120, 8	; 0x78000000
     2f4:	746c616e 	strbtvc	r6, [ip], #-366	; 0xfffffe92
     2f8:	736c6f6f 	cmnvc	ip, #444	; 0x1bc
     2fc:	756e672e 	strbvc	r6, [lr, #-1838]!	; 0xfffff8d2
     300:	6f6f742d 	svcvs	0x006f742d
     304:	662d736c 	strtvs	r7, [sp], -ip, ror #6
     308:	732d726f 			; <UNDEFINED> instruction: 0x732d726f
     30c:	32336d74 	eorscc	r6, r3, #116, 26	; 0x1d00
     310:	2e30312e 	rsfcssp	f3, f0, #0.5
     314:	30322d33 	eorscc	r2, r2, r3, lsr sp
     318:	312e3132 			; <UNDEFINED> instruction: 0x312e3132
     31c:	69772e30 	ldmdbvs	r7!, {r4, r5, r9, sl, fp, sp}^
     320:	5f32336e 	svcpl	0x0032336e
     324:	2e302e31 	mrccs	14, 1, r2, cr0, cr1, {1}
     328:	2e303032 	mrccs	0, 1, r3, cr0, cr2, {1}
     32c:	33323032 	teqcc	r2, #50	; 0x32
     330:	36313130 			; <UNDEFINED> instruction: 0x36313130
     334:	33303031 	teqcc	r0, #49	; 0x31
     338:	6f6f745c 	svcvs	0x006f745c
     33c:	625c736c 	subsvs	r7, ip, #108, 6	; 0xb0000001
     340:	2e5c6e69 	cdpcs	14, 5, cr6, cr12, cr9, {3}
     344:	696c2f2e 	stmdbvs	ip!, {r1, r2, r3, r5, r8, r9, sl, fp, sp}^
     348:	63672f62 	cmnvs	r7, #392	; 0x188
     34c:	72612f63 	rsbvc	r2, r1, #396	; 0x18c
     350:	6f6e2d6d 	svcvs	0x006e2d6d
     354:	652d656e 	strvs	r6, [sp, #-1390]!	; 0xfffffa92
     358:	2f696261 	svccs	0x00696261
     35c:	332e3031 			; <UNDEFINED> instruction: 0x332e3031
     360:	2e2f312e 	sufcsep	f3, f7, #0.5
     364:	2e2e2f2e 	cdpcs	15, 2, cr2, cr14, cr14, {1}
     368:	2f2e2e2f 	svccs	0x002e2e2f
     36c:	612f2e2e 			; <UNDEFINED> instruction: 0x612f2e2e
     370:	6e2d6d72 	mcrvs	13, 1, r6, cr13, cr2, {3}
     374:	2d656e6f 	stclcs	14, cr6, [r5, #-444]!	; 0xfffffe44
     378:	69626165 	stmdbvs	r2!, {r0, r2, r5, r6, r8, sp, lr}^
     37c:	636e692f 	cmnvs	lr, #770048	; 0xbc000
     380:	6564756c 	strbvs	r7, [r4, #-1388]!	; 0xfffffa94
     384:	5c3a6700 	ldcpl	7, cr6, [sl], #-0
     388:	732e6e65 			; <UNDEFINED> instruction: 0x732e6e65
     38c:	74732d74 	ldrbtvc	r2, [r3], #-3444	; 0xfffff28c
     390:	6332336d 	teqvs	r2, #-1275068415	; 0xb4000001
     394:	69656275 	stmdbvs	r5!, {r0, r2, r4, r5, r6, r9, sp, lr}^
     398:	315f6564 	cmpcc	pc, r4, ror #10
     39c:	302e342e 	eorcc	r3, lr, lr, lsr #8
     3a0:	3135375f 	teqcc	r5, pc, asr r7
     3a4:	30325f31 	eorscc	r5, r2, r1, lsr pc
     3a8:	37303032 			; <UNDEFINED> instruction: 0x37303032
     3ac:	305f3032 	subscc	r3, pc, r2, lsr r0	; <UNPREDICTABLE>
     3b0:	5f383239 	svcpl	0x00383239
     3b4:	5f363878 	svcpl	0x00363878
     3b8:	655f3436 	ldrbvs	r3, [pc, #-1078]	; ffffff8a <_estack+0xdfffd78a>
     3bc:	735c6578 	cmpvc	ip, #120, 10	; 0x1e000000
     3c0:	32336d74 	eorscc	r6, r3, #116, 26	; 0x1d00
     3c4:	65627563 	strbvs	r7, [r2, #-1379]!	; 0xfffffa9d
     3c8:	5f656469 	svcpl	0x00656469
     3cc:	2e342e31 	mrccs	14, 1, r2, cr4, cr1, {1}
     3d0:	74735c30 	ldrbtvc	r5, [r3], #-3120	; 0xfffff3d0
     3d4:	6332336d 	teqvs	r2, #-1275068415	; 0xb4000001
     3d8:	69656275 	stmdbvs	r5!, {r0, r2, r4, r5, r6, r9, sp, lr}^
     3dc:	705c6564 	subsvc	r6, ip, r4, ror #10
     3e0:	6967756c 	stmdbvs	r7!, {r2, r3, r5, r6, r8, sl, ip, sp, lr}^
     3e4:	635c736e 	cmpvs	ip, #-1207959551	; 0xb8000001
     3e8:	732e6d6f 			; <UNDEFINED> instruction: 0x732e6d6f
     3ec:	74732e74 	ldrbtvc	r2, [r3], #-3700	; 0xfffff18c
     3f0:	6332336d 	teqvs	r2, #-1275068415	; 0xb4000001
     3f4:	2e656275 	mcrcs	2, 3, r6, cr5, cr5, {3}
     3f8:	2e656469 	cdpcs	4, 6, cr6, cr5, cr9, {3}
     3fc:	2e75636d 	cdpcs	3, 7, cr6, cr5, cr13, {3}
     400:	65747865 	ldrbvs	r7, [r4, #-2149]!	; 0xfffff79b
     404:	6c616e72 	stclvs	14, cr6, [r1], #-456	; 0xfffffe38
     408:	6c6f6f74 	stclvs	15, cr6, [pc], #-464	; 240 <_Min_Heap_Size+0x40>
     40c:	6e672e73 	mcrvs	14, 3, r2, cr7, cr3, {3}
     410:	6f742d75 	svcvs	0x00742d75
     414:	2d736c6f 	ldclcs	12, cr6, [r3, #-444]!	; 0xfffffe44
     418:	2d726f66 	ldclcs	15, cr6, [r2, #-408]!	; 0xfffffe68
     41c:	336d7473 	cmncc	sp, #1929379840	; 0x73000000
     420:	30312e32 	eorscc	r2, r1, r2, lsr lr
     424:	322d332e 	eorcc	r3, sp, #-1207959552	; 0xb8000000
     428:	2e313230 	mrccs	2, 1, r3, cr1, cr0, {1}
     42c:	772e3031 			; <UNDEFINED> instruction: 0x772e3031
     430:	32336e69 	eorscc	r6, r3, #1680	; 0x690
     434:	302e315f 	eorcc	r3, lr, pc, asr r1
     438:	3030322e 	eorscc	r3, r0, lr, lsr #4
     43c:	3230322e 	eorscc	r3, r0, #-536870910	; 0xe0000002
     440:	31313033 	teqcc	r1, r3, lsr r0
     444:	30303136 	eorscc	r3, r0, r6, lsr r1
     448:	6f745c33 	svcvs	0x00745c33
     44c:	5c736c6f 	ldclpl	12, cr6, [r3], #-444	; 0xfffffe44
     450:	2d6d7261 	sfmcs	f7, 2, [sp, #-388]!	; 0xfffffe7c
     454:	656e6f6e 	strbvs	r6, [lr, #-3950]!	; 0xfffff092
     458:	6261652d 	rsbvs	r6, r1, #188743680	; 0xb400000
     45c:	6e695c69 	cdpvs	12, 6, cr5, cr9, cr9, {3}
     460:	64756c63 	ldrbtvs	r6, [r5], #-3171	; 0xfffff39d
     464:	656e5c65 	strbvs	r5, [lr, #-3173]!	; 0xfffff39b
     468:	62696c77 	rsbvs	r6, r9, #30464	; 0x7700
     46c:	6e616e2d 	cdpvs	14, 6, cr6, cr1, cr13, {1}
     470:	3a67006f 	bcc	19c0634 <_Min_Stack_Size+0x19c0234>
     474:	2e6e655c 	mcrcs	5, 3, r6, cr14, cr12, {2}
     478:	732d7473 			; <UNDEFINED> instruction: 0x732d7473
     47c:	32336d74 	eorscc	r6, r3, #116, 26	; 0x1d00
     480:	65627563 	strbvs	r7, [r2, #-1379]!	; 0xfffffa9d
     484:	5f656469 	svcpl	0x00656469
     488:	2e342e31 	mrccs	14, 1, r2, cr4, cr1, {1}
     48c:	35375f30 	ldrcc	r5, [r7, #-3888]!	; 0xfffff0d0
     490:	325f3131 	subscc	r3, pc, #1073741836	; 0x4000000c
     494:	30303230 	eorscc	r3, r0, r0, lsr r2
     498:	5f303237 	svcpl	0x00303237
     49c:	38323930 	ldmdacc	r2!, {r4, r5, r8, fp, ip, sp}
     4a0:	3638785f 			; <UNDEFINED> instruction: 0x3638785f
     4a4:	5f34365f 	svcpl	0x0034365f
     4a8:	5c657865 	stclpl	8, cr7, [r5], #-404	; 0xfffffe6c
     4ac:	336d7473 	cmncc	sp, #1929379840	; 0x73000000
     4b0:	62756332 	rsbsvs	r6, r5, #-939524096	; 0xc8000000
     4b4:	65646965 	strbvs	r6, [r4, #-2405]!	; 0xfffff69b
     4b8:	342e315f 	strtcc	r3, [lr], #-351	; 0xfffffea1
     4bc:	735c302e 	cmpvc	ip, #46	; 0x2e
     4c0:	32336d74 	eorscc	r6, r3, #116, 26	; 0x1d00
     4c4:	65627563 	strbvs	r7, [r2, #-1379]!	; 0xfffffa9d
     4c8:	5c656469 	cfstrdpl	mvd6, [r5], #-420	; 0xfffffe5c
     4cc:	67756c70 			; <UNDEFINED> instruction: 0x67756c70
     4d0:	5c736e69 	ldclpl	14, cr6, [r3], #-420	; 0xfffffe5c
     4d4:	2e6d6f63 	cdpcs	15, 6, cr6, cr13, cr3, {3}
     4d8:	732e7473 			; <UNDEFINED> instruction: 0x732e7473
     4dc:	32336d74 	eorscc	r6, r3, #116, 26	; 0x1d00
     4e0:	65627563 	strbvs	r7, [r2, #-1379]!	; 0xfffffa9d
     4e4:	6564692e 	strbvs	r6, [r4, #-2350]!	; 0xfffff6d2
     4e8:	75636d2e 	strbvc	r6, [r3, #-3374]!	; 0xfffff2d2
     4ec:	7478652e 	ldrbtvc	r6, [r8], #-1326	; 0xfffffad2
     4f0:	616e7265 	cmnvs	lr, r5, ror #4
     4f4:	6f6f746c 	svcvs	0x006f746c
     4f8:	672e736c 	strvs	r7, [lr, -ip, ror #6]!
     4fc:	742d756e 	strtvc	r7, [sp], #-1390	; 0xfffffa92
     500:	736c6f6f 	cmnvc	ip, #444	; 0x1bc
     504:	726f662d 	rsbvc	r6, pc, #47185920	; 0x2d00000
     508:	6d74732d 	ldclvs	3, cr7, [r4, #-180]!	; 0xffffff4c
     50c:	312e3233 			; <UNDEFINED> instruction: 0x312e3233
     510:	2d332e30 	ldccs	14, cr2, [r3, #-192]!	; 0xffffff40
     514:	31323032 	teqcc	r2, r2, lsr r0
     518:	2e30312e 	rsfcssp	f3, f0, #0.5
     51c:	336e6977 	cmncc	lr, #1949696	; 0x1dc000
     520:	2e315f32 	mrccs	15, 1, r5, cr1, cr2, {1}
     524:	30322e30 	eorscc	r2, r2, r0, lsr lr
     528:	30322e30 	eorscc	r2, r2, r0, lsr lr
     52c:	31303332 	teqcc	r0, r2, lsr r3
     530:	30313631 	eorscc	r3, r1, r1, lsr r6
     534:	745c3330 	ldrbvc	r3, [ip], #-816	; 0xfffffcd0
     538:	736c6f6f 	cmnvc	ip, #444	; 0x1bc
     53c:	62696c5c 	rsbvs	r6, r9, #92, 24	; 0x5c00
     540:	6363675c 	cmnvs	r3, #92, 14	; 0x1700000
     544:	6d72615c 	ldfvse	f6, [r2, #-368]!	; 0xfffffe90
     548:	6e6f6e2d 	cdpvs	14, 6, cr6, cr15, cr13, {1}
     54c:	61652d65 	cmnvs	r5, r5, ror #26
     550:	315c6962 	cmpcc	ip, r2, ror #18
     554:	2e332e30 	mrccs	14, 1, r2, cr3, cr0, {1}
     558:	6e695c31 	mcrvs	12, 3, r5, cr9, cr1, {1}
     55c:	64756c63 	ldrbtvs	r6, [r5], #-3171	; 0xfffff39d
     560:	6d000065 	stcvs	0, cr0, [r0, #-404]	; 0xfffffe6c
     564:	2e6e6961 	vnmulcs.f16	s13, s28, s3	; <UNPREDICTABLE>
     568:	00010063 	andeq	r0, r1, r3, rrx
     56c:	65645f00 	strbvs	r5, [r4, #-3840]!	; 0xfffff100
     570:	6c756166 	ldfvse	f6, [r5], #-408	; 0xfffffe68
     574:	79745f74 	ldmdbvc	r4!, {r2, r4, r5, r6, r8, r9, sl, fp, ip, lr}^
     578:	2e736570 	mrccs	5, 3, r6, cr3, cr0, {3}
     57c:	00020068 	andeq	r0, r2, r8, rrx
     580:	74735f00 	ldrbtvc	r5, [r3], #-3840	; 0xfffff100
     584:	746e6964 	strbtvc	r6, [lr], #-2404	; 0xfffff69c
     588:	0300682e 	movweq	r6, #2094	; 0x82e
     58c:	74730000 	ldrbtvc	r0, [r3], #-0
     590:	5f32336d 	svcpl	0x0032336d
     594:	33303166 	teqcc	r0, #-2147483623	; 0x80000019
     598:	682e3678 	stmdavs	lr!, {r3, r4, r5, r6, r9, sl, ip, sp}
     59c:	00000400 	andeq	r0, r0, r0, lsl #8
     5a0:	336d7473 	cmncc	sp, #1929379840	; 0x73000000
     5a4:	31665f32 	cmncc	r6, r2, lsr pc
     5a8:	36633330 			; <UNDEFINED> instruction: 0x36633330
     5ac:	6972645f 	ldmdbvs	r2!, {r0, r1, r2, r3, r4, r6, sl, sp, lr}^
     5b0:	73726576 	cmnvc	r2, #494927872	; 0x1d800000
     5b4:	5458455f 	ldrbpl	r4, [r8], #-1375	; 0xfffffaa1
     5b8:	00682e49 	rsbeq	r2, r8, r9, asr #28
     5bc:	73000004 	movwvc	r0, #4
     5c0:	32336d74 	eorscc	r6, r3, #116, 26	; 0x1d00
     5c4:	3031665f 	eorscc	r6, r1, pc, asr r6
     5c8:	5f366333 	svcpl	0x00366333
     5cc:	76697264 	strbtvc	r7, [r9], -r4, ror #4
     5d0:	5f737265 	svcpl	0x00737265
     5d4:	4f495047 	svcmi	0x00495047
     5d8:	0400682e 	streq	r6, [r0], #-2094	; 0xfffff7d2
     5dc:	74730000 	ldrbtvc	r0, [r3], #-0
     5e0:	62696c64 	rsbvs	r6, r9, #100, 24	; 0x6400
     5e4:	0500682e 	streq	r6, [r0, #-2094]	; 0xfffff7d2
     5e8:	65690000 	strbvs	r0, [r9, #-0]!
     5ec:	70666565 	rsbvc	r6, r6, r5, ror #10
     5f0:	0200682e 	andeq	r6, r0, #3014656	; 0x2e0000
     5f4:	615f0000 	cmpvs	pc, r0
     5f8:	2e69736e 	cdpcs	3, 6, cr7, cr9, cr14, {3}
     5fc:	00050068 	andeq	r0, r5, r8, rrx
     600:	77656e00 	strbvc	r6, [r5, -r0, lsl #28]!
     604:	2e62696c 	vnmulcs.f16	s13, s4, s25	; <UNPREDICTABLE>
     608:	00060068 	andeq	r0, r6, r8, rrx
     60c:	656e5f00 	strbvs	r5, [lr, #-3840]!	; 0xfffff100
     610:	62696c77 	rsbvs	r6, r9, #30464	; 0x7700
     614:	7265765f 	rsbvc	r7, r5, #99614720	; 0x5f00000
     618:	6e6f6973 			; <UNDEFINED> instruction: 0x6e6f6973
     61c:	0500682e 	streq	r6, [r0, #-2094]	; 0xfffff7d2
     620:	6f630000 	svcvs	0x00630000
     624:	6769666e 	strbvs	r6, [r9, -lr, ror #12]!
     628:	0300682e 	movweq	r6, #2094	; 0x82e
     62c:	65660000 	strbvs	r0, [r6, #-0]!
     630:	72757461 	rsbsvc	r7, r5, #1627389952	; 0x61000000
     634:	682e7365 	stmdavs	lr!, {r0, r2, r5, r6, r8, r9, ip, sp, lr}
     638:	00000300 	andeq	r0, r0, r0, lsl #6
     63c:	64647473 	strbtvs	r7, [r4], #-1139	; 0xfffffb8d
     640:	682e6665 	stmdavs	lr!, {r0, r2, r5, r6, r9, sl, sp, lr}
     644:	00000700 	andeq	r0, r0, r0, lsl #14
     648:	6e656572 	mcrvs	5, 3, r6, cr5, cr2, {3}
     64c:	00682e74 	rsbeq	r2, r8, r4, ror lr
     650:	5f000003 	svcpl	0x00000003
     654:	65707974 	ldrbvs	r7, [r0, #-2420]!	; 0xfffff68c
     658:	00682e73 	rsbeq	r2, r8, r3, ror lr
     65c:	5f000003 	svcpl	0x00000003
     660:	65707974 	ldrbvs	r7, [r0, #-2420]!	; 0xfffff68c
     664:	00682e73 	rsbeq	r2, r8, r3, ror lr
     668:	6c000002 	stcvs	0, cr0, [r0], {2}
     66c:	2e6b636f 	cdpcs	3, 6, cr6, cr11, cr15, {3}
     670:	00030068 	andeq	r0, r3, r8, rrx
     674:	73736100 	cmnvc	r3, #0, 2
     678:	2e747265 	cdpcs	2, 7, cr7, cr4, cr5, {3}
     67c:	00050068 	andeq	r0, r5, r8, rrx
     680:	65646300 	strbvs	r6, [r4, #-768]!	; 0xfffffd00
     684:	682e7366 	stmdavs	lr!, {r1, r2, r5, r6, r8, r9, ip, sp, lr}
     688:	00000300 	andeq	r0, r0, r0, lsl #6
     68c:	6c647473 	cfstrdvs	mvd7, [r4], #-460	; 0xfffffe34
     690:	682e6269 	stmdavs	lr!, {r0, r3, r5, r6, r9, sp, lr}
     694:	00000200 	andeq	r0, r0, r0, lsl #4
     698:	6f6c6c61 	svcvs	0x006c6c61
     69c:	682e6163 	stmdavs	lr!, {r0, r1, r5, r6, r8, sp, lr}
     6a0:	00000500 	andeq	r0, r0, r0, lsl #10
     6a4:	69647473 	stmdbvs	r4!, {r0, r1, r4, r5, r6, sl, ip, sp, lr}^
     6a8:	682e746e 	stmdavs	lr!, {r1, r2, r3, r5, r6, sl, ip, sp, lr}
     6ac:	00000700 	andeq	r0, r0, r0, lsl #14
     6b0:	69647473 	stmdbvs	r4!, {r0, r1, r4, r5, r6, sl, ip, sp, lr}^
     6b4:	682e746e 	stmdavs	lr!, {r1, r2, r3, r5, r6, sl, ip, sp, lr}
     6b8:	00000500 	andeq	r0, r0, r0, lsl #10
     6bc:	746e695f 	strbtvc	r6, [lr], #-2399	; 0xfffff6a1
     6c0:	2e707573 	mrccs	5, 3, r7, cr0, cr3, {3}
     6c4:	00030068 	andeq	r0, r3, r8, rrx
     6c8:	01050000 	mrseq	r0, (UNDEF: 5)
     6cc:	70020500 	andvc	r0, r2, r0, lsl #10
     6d0:	03080001 	movweq	r0, #32769	; 0x8001
     6d4:	02050121 	andeq	r0, r5, #1073741832	; 0x40000008
     6d8:	0b05302f 	bleq	14c79c <_Min_Stack_Size+0x14c39c>
     6dc:	3d01053e 	cfstr32cc	mvfx0, [r1, #-248]	; 0xffffff08
     6e0:	01000802 	tsteq	r0, r2, lsl #16
     6e4:	00010501 	andeq	r0, r1, r1, lsl #10
     6e8:	01940205 	orrseq	r0, r4, r5, lsl #4
     6ec:	2a030800 	bcs	c26f4 <_Min_Stack_Size+0xc22f4>
     6f0:	3f020501 	svccc	0x00020501
     6f4:	6a140567 	bvs	501c98 <_Min_Stack_Size+0x501898>
     6f8:	05671805 	strbeq	r1, [r7, #-2053]!	; 0xfffff7fb
     6fc:	13052f1a 	movwne	r2, #24346	; 0x5f1a
     700:	2f05052f 	svccs	0x0005052f
     704:	05302f5a 	ldreq	r2, [r0, #-3930]!	; 0xfffff0a6
     708:	0605320e 	streq	r3, [r5], -lr, lsl #4
     70c:	2e05053f 	mcrcs	5, 0, r0, cr5, cr15, {1}
     710:	05310c05 	ldreq	r0, [r1, #-3077]!	; 0xfffff3fb
     714:	0a023905 	beq	8eb30 <_Min_Stack_Size+0x8e730>
     718:	80010100 	andhi	r0, r1, r0, lsl #2
     71c:	03000000 	movweq	r0, #0
     720:	00003900 	andeq	r3, r0, r0, lsl #18
     724:	fb010200 	blx	40f2e <_Min_Stack_Size+0x40b2e>
     728:	01000d0e 	tsteq	r0, lr, lsl #26
     72c:	00010101 	andeq	r0, r1, r1, lsl #2
     730:	00010000 	andeq	r0, r1, r0
     734:	2e2e0100 	sufcse	f0, f6, f0
     738:	6174532f 	cmnvs	r4, pc, lsr #6
     73c:	70757472 	rsbsvc	r7, r5, r2, ror r4
     740:	74730000 	ldrbtvc	r0, [r3], #-0
     744:	75747261 	ldrbvc	r7, [r4, #-609]!	; 0xfffffd9f
     748:	74735f70 	ldrbtvc	r5, [r3], #-3952	; 0xfffff090
     74c:	6632336d 	ldrtvs	r3, [r2], -sp, ror #6
     750:	63333031 	teqvs	r3, #49	; 0x31
     754:	2e787436 	mrccs	4, 3, r7, cr8, cr6, {1}
     758:	00010073 	andeq	r0, r1, r3, ror r0
     75c:	05000000 	streq	r0, [r0, #-0]
     760:	00020802 	andeq	r0, r2, r2, lsl #16
     764:	013a0308 	teqeq	sl, r8, lsl #6
     768:	21312221 	teqcs	r1, r1, lsr #4
     76c:	23212121 			; <UNDEFINED> instruction: 0x23212121
     770:	21232121 			; <UNDEFINED> instruction: 0x21232121
     774:	21212321 			; <UNDEFINED> instruction: 0x21212321
     778:	23212321 			; <UNDEFINED> instruction: 0x23212321
     77c:	31302321 	teqcc	r0, r1, lsr #6
     780:	34205603 	strtcc	r5, [r0], #-1539	; 0xfffff9fd
     784:	0f032f2f 	svceq	0x00032f2f
     788:	02022f2e 	andeq	r2, r2, #46, 30	; 0xb8
     78c:	00010100 	andeq	r0, r1, r0, lsl #2
     790:	02580205 	subseq	r0, r8, #1342177280	; 0x50000000
     794:	f3030800 	vsub.i8	d0, d3, d0
     798:	01020100 	mrseq	r0, (UNDEF: 18)
     79c:	14010100 	strne	r0, [r1], #-256	; 0xffffff00
     7a0:	0300000b 	movweq	r0, #11
     7a4:	0006e600 	andeq	lr, r6, r0, lsl #12
     7a8:	fb010200 	blx	40fb2 <_Min_Stack_Size+0x40bb2>
     7ac:	01000d0e 	tsteq	r0, lr, lsl #26
     7b0:	00010101 	andeq	r0, r1, r1, lsl #2
     7b4:	00010000 	andeq	r0, r1, r0
     7b8:	2e2e0100 	sufcse	f0, f6, f0
     7bc:	6d74732f 	ldclvs	3, cr7, [r4, #-188]!	; 0xffffff44
     7c0:	665f3233 			; <UNDEFINED> instruction: 0x665f3233
     7c4:	63333031 	teqvs	r3, #49	; 0x31
     7c8:	72645f36 	rsbvc	r5, r4, #54, 30	; 0xd8
     7cc:	72657669 	rsbvc	r7, r5, #110100480	; 0x6900000
     7d0:	3a670073 	bcc	19c09a4 <_Min_Stack_Size+0x19c05a4>
     7d4:	2e6e655c 	mcrcs	5, 3, r6, cr14, cr12, {2}
     7d8:	732d7473 			; <UNDEFINED> instruction: 0x732d7473
     7dc:	32336d74 	eorscc	r6, r3, #116, 26	; 0x1d00
     7e0:	65627563 	strbvs	r7, [r2, #-1379]!	; 0xfffffa9d
     7e4:	5f656469 	svcpl	0x00656469
     7e8:	2e342e31 	mrccs	14, 1, r2, cr4, cr1, {1}
     7ec:	35375f30 	ldrcc	r5, [r7, #-3888]!	; 0xfffff0d0
     7f0:	325f3131 	subscc	r3, pc, #1073741836	; 0x4000000c
     7f4:	30303230 	eorscc	r3, r0, r0, lsr r2
     7f8:	5f303237 	svcpl	0x00303237
     7fc:	38323930 	ldmdacc	r2!, {r4, r5, r8, fp, ip, sp}
     800:	3638785f 			; <UNDEFINED> instruction: 0x3638785f
     804:	5f34365f 	svcpl	0x0034365f
     808:	5c657865 	stclpl	8, cr7, [r5], #-404	; 0xfffffe6c
     80c:	336d7473 	cmncc	sp, #1929379840	; 0x73000000
     810:	62756332 	rsbsvs	r6, r5, #-939524096	; 0xc8000000
     814:	65646965 	strbvs	r6, [r4, #-2405]!	; 0xfffff69b
     818:	342e315f 	strtcc	r3, [lr], #-351	; 0xfffffea1
     81c:	735c302e 	cmpvc	ip, #46	; 0x2e
     820:	32336d74 	eorscc	r6, r3, #116, 26	; 0x1d00
     824:	65627563 	strbvs	r7, [r2, #-1379]!	; 0xfffffa9d
     828:	5c656469 	cfstrdpl	mvd6, [r5], #-420	; 0xfffffe5c
     82c:	67756c70 			; <UNDEFINED> instruction: 0x67756c70
     830:	5c736e69 	ldclpl	14, cr6, [r3], #-420	; 0xfffffe5c
     834:	2e6d6f63 	cdpcs	15, 6, cr6, cr13, cr3, {3}
     838:	732e7473 			; <UNDEFINED> instruction: 0x732e7473
     83c:	32336d74 	eorscc	r6, r3, #116, 26	; 0x1d00
     840:	65627563 	strbvs	r7, [r2, #-1379]!	; 0xfffffa9d
     844:	6564692e 	strbvs	r6, [r4, #-2350]!	; 0xfffff6d2
     848:	75636d2e 	strbvc	r6, [r3, #-3374]!	; 0xfffff2d2
     84c:	7478652e 	ldrbtvc	r6, [r8], #-1326	; 0xfffffad2
     850:	616e7265 	cmnvs	lr, r5, ror #4
     854:	6f6f746c 	svcvs	0x006f746c
     858:	672e736c 	strvs	r7, [lr, -ip, ror #6]!
     85c:	742d756e 	strtvc	r7, [sp], #-1390	; 0xfffffa92
     860:	736c6f6f 	cmnvc	ip, #444	; 0x1bc
     864:	726f662d 	rsbvc	r6, pc, #47185920	; 0x2d00000
     868:	6d74732d 	ldclvs	3, cr7, [r4, #-180]!	; 0xffffff4c
     86c:	312e3233 			; <UNDEFINED> instruction: 0x312e3233
     870:	2d332e30 	ldccs	14, cr2, [r3, #-192]!	; 0xffffff40
     874:	31323032 	teqcc	r2, r2, lsr r0
     878:	2e30312e 	rsfcssp	f3, f0, #0.5
     87c:	336e6977 	cmncc	lr, #1949696	; 0x1dc000
     880:	2e315f32 	mrccs	15, 1, r5, cr1, cr2, {1}
     884:	30322e30 	eorscc	r2, r2, r0, lsr lr
     888:	30322e30 	eorscc	r2, r2, r0, lsr lr
     88c:	31303332 	teqcc	r0, r2, lsr r3
     890:	30313631 	eorscc	r3, r1, r1, lsr r6
     894:	745c3330 	ldrbvc	r3, [ip], #-816	; 0xfffffcd0
     898:	736c6f6f 	cmnvc	ip, #444	; 0x1bc
     89c:	6e69625c 	mcrvs	2, 3, r6, cr9, cr12, {2}
     8a0:	2f2e2e5c 	svccs	0x002e2e5c
     8a4:	2f62696c 	svccs	0x0062696c
     8a8:	2f636367 	svccs	0x00636367
     8ac:	2d6d7261 	sfmcs	f7, 2, [sp, #-388]!	; 0xfffffe7c
     8b0:	656e6f6e 	strbvs	r6, [lr, #-3950]!	; 0xfffff092
     8b4:	6261652d 	rsbvs	r6, r1, #188743680	; 0xb400000
     8b8:	30312f69 	eorscc	r2, r1, r9, ror #30
     8bc:	312e332e 			; <UNDEFINED> instruction: 0x312e332e
     8c0:	2f2e2e2f 	svccs	0x002e2e2f
     8c4:	2e2f2e2e 	cdpcs	14, 2, cr2, cr15, cr14, {1}
     8c8:	2e2e2f2e 	cdpcs	15, 2, cr2, cr14, cr14, {1}
     8cc:	6d72612f 	ldfvse	f6, [r2, #-188]!	; 0xffffff44
     8d0:	6e6f6e2d 	cdpvs	14, 6, cr6, cr15, cr13, {1}
     8d4:	61652d65 	cmnvs	r5, r5, ror #26
     8d8:	692f6962 	stmdbvs	pc!, {r1, r5, r6, r8, fp, sp, lr}	; <UNPREDICTABLE>
     8dc:	756c636e 	strbvc	r6, [ip, #-878]!	; 0xfffffc92
     8e0:	6d2f6564 	cfstr32vs	mvfx6, [pc, #-400]!	; 758 <_Min_Stack_Size+0x358>
     8e4:	69686361 	stmdbvs	r8!, {r0, r5, r6, r8, r9, sp, lr}^
     8e8:	6700656e 	strvs	r6, [r0, -lr, ror #10]
     8ec:	6e655c3a 	mcrvs	12, 3, r5, cr5, cr10, {1}
     8f0:	2d74732e 	ldclcs	3, cr7, [r4, #-184]!	; 0xffffff48
     8f4:	336d7473 	cmncc	sp, #1929379840	; 0x73000000
     8f8:	62756332 	rsbsvs	r6, r5, #-939524096	; 0xc8000000
     8fc:	65646965 	strbvs	r6, [r4, #-2405]!	; 0xfffff69b
     900:	342e315f 	strtcc	r3, [lr], #-351	; 0xfffffea1
     904:	375f302e 	ldrbcc	r3, [pc, -lr, lsr #32]
     908:	5f313135 	svcpl	0x00313135
     90c:	30323032 	eorscc	r3, r2, r2, lsr r0
     910:	30323730 	eorscc	r3, r2, r0, lsr r7
     914:	3239305f 	eorscc	r3, r9, #95	; 0x5f
     918:	38785f38 	ldmdacc	r8!, {r3, r4, r5, r8, r9, sl, fp, ip, lr}^
     91c:	34365f36 	ldrtcc	r5, [r6], #-3894	; 0xfffff0ca
     920:	6578655f 	ldrbvs	r6, [r8, #-1375]!	; 0xfffffaa1
     924:	6d74735c 	ldclvs	3, cr7, [r4, #-368]!	; 0xfffffe90
     928:	75633233 	strbvc	r3, [r3, #-563]!	; 0xfffffdcd
     92c:	64696562 	strbtvs	r6, [r9], #-1378	; 0xfffffa9e
     930:	2e315f65 	cdpcs	15, 3, cr5, cr1, cr5, {3}
     934:	5c302e34 	ldcpl	14, cr2, [r0], #-208	; 0xffffff30
     938:	336d7473 	cmncc	sp, #1929379840	; 0x73000000
     93c:	62756332 	rsbsvs	r6, r5, #-939524096	; 0xc8000000
     940:	65646965 	strbvs	r6, [r4, #-2405]!	; 0xfffff69b
     944:	756c705c 	strbvc	r7, [ip, #-92]!	; 0xffffffa4
     948:	736e6967 	cmnvc	lr, #1687552	; 0x19c000
     94c:	6d6f635c 	stclvs	3, cr6, [pc, #-368]!	; 7e4 <_Min_Stack_Size+0x3e4>
     950:	2e74732e 	cdpcs	3, 7, cr7, cr4, cr14, {1}
     954:	336d7473 	cmncc	sp, #1929379840	; 0x73000000
     958:	62756332 	rsbsvs	r6, r5, #-939524096	; 0xc8000000
     95c:	64692e65 	strbtvs	r2, [r9], #-3685	; 0xfffff19b
     960:	636d2e65 	cmnvs	sp, #1616	; 0x650
     964:	78652e75 	stmdavc	r5!, {r0, r2, r4, r5, r6, r9, sl, fp, sp}^
     968:	6e726574 	mrcvs	5, 3, r6, cr2, cr4, {3}
     96c:	6f746c61 	svcvs	0x00746c61
     970:	2e736c6f 	cdpcs	12, 7, cr6, cr3, cr15, {3}
     974:	2d756e67 	ldclcs	14, cr6, [r5, #-412]!	; 0xfffffe64
     978:	6c6f6f74 	stclvs	15, cr6, [pc], #-464	; 7b0 <_Min_Stack_Size+0x3b0>
     97c:	6f662d73 	svcvs	0x00662d73
     980:	74732d72 	ldrbtvc	r2, [r3], #-3442	; 0xfffff28e
     984:	2e32336d 	cdpcs	3, 3, cr3, cr2, cr13, {3}
     988:	332e3031 			; <UNDEFINED> instruction: 0x332e3031
     98c:	3230322d 	eorscc	r3, r0, #-805306366	; 0xd0000002
     990:	30312e31 	eorscc	r2, r1, r1, lsr lr
     994:	6e69772e 	cdpvs	7, 6, cr7, cr9, cr14, {1}
     998:	315f3233 	cmpcc	pc, r3, lsr r2	; <UNPREDICTABLE>
     99c:	322e302e 	eorcc	r3, lr, #46	; 0x2e
     9a0:	322e3030 	eorcc	r3, lr, #48	; 0x30
     9a4:	30333230 	eorscc	r3, r3, r0, lsr r2
     9a8:	31363131 	teqcc	r6, r1, lsr r1
     9ac:	5c333030 	ldcpl	0, cr3, [r3], #-192	; 0xffffff40
     9b0:	6c6f6f74 	stclvs	15, cr6, [pc], #-464	; 7e8 <_Min_Stack_Size+0x3e8>
     9b4:	69625c73 	stmdbvs	r2!, {r0, r1, r4, r5, r6, sl, fp, ip, lr}^
     9b8:	2e2e5c6e 	cdpcs	12, 2, cr5, cr14, cr14, {3}
     9bc:	62696c2f 	rsbvs	r6, r9, #12032	; 0x2f00
     9c0:	6363672f 	cmnvs	r3, #12320768	; 0xbc0000
     9c4:	6d72612f 	ldfvse	f6, [r2, #-188]!	; 0xffffff44
     9c8:	6e6f6e2d 	cdpvs	14, 6, cr6, cr15, cr13, {1}
     9cc:	61652d65 	cmnvs	r5, r5, ror #26
     9d0:	312f6962 			; <UNDEFINED> instruction: 0x312f6962
     9d4:	2e332e30 	mrccs	14, 1, r2, cr3, cr0, {1}
     9d8:	2e2e2f31 	mcrcs	15, 1, r2, cr14, cr1, {1}
     9dc:	2f2e2e2f 	svccs	0x002e2e2f
     9e0:	2e2f2e2e 	cdpcs	14, 2, cr2, cr15, cr14, {1}
     9e4:	72612f2e 	rsbvc	r2, r1, #46, 30	; 0xb8
     9e8:	6f6e2d6d 	svcvs	0x006e2d6d
     9ec:	652d656e 	strvs	r6, [sp, #-1390]!	; 0xfffffa92
     9f0:	2f696261 	svccs	0x00696261
     9f4:	6c636e69 	stclvs	14, cr6, [r3], #-420	; 0xfffffe5c
     9f8:	2f656475 	svccs	0x00656475
     9fc:	00737973 	rsbseq	r7, r3, r3, ror r9
     a00:	442f3a44 	strtmi	r3, [pc], #-2628	; a08 <_Min_Stack_Size+0x608>
     a04:	65766972 	ldrbvs	r6, [r6, #-2418]!	; 0xfffff68e
     a08:	732f7372 			; <UNDEFINED> instruction: 0x732f7372
     a0c:	32336d74 	eorscc	r6, r3, #116, 26	; 0x1d00
     a10:	3031665f 	eorscc	r6, r1, pc, asr r6
     a14:	5f366333 	svcpl	0x00366333
     a18:	76697264 	strbtvc	r7, [r9], -r4, ror #4
     a1c:	2f737265 	svccs	0x00737265
     a20:	00636e49 	rsbeq	r6, r3, r9, asr #28
     a24:	655c3a67 	ldrbvs	r3, [ip, #-2663]	; 0xfffff599
     a28:	74732e6e 	ldrbtvc	r2, [r3], #-3694	; 0xfffff192
     a2c:	6d74732d 	ldclvs	3, cr7, [r4, #-180]!	; 0xffffff4c
     a30:	75633233 	strbvc	r3, [r3, #-563]!	; 0xfffffdcd
     a34:	64696562 	strbtvs	r6, [r9], #-1378	; 0xfffffa9e
     a38:	2e315f65 	cdpcs	15, 3, cr5, cr1, cr5, {3}
     a3c:	5f302e34 	svcpl	0x00302e34
     a40:	31313537 	teqcc	r1, r7, lsr r5
     a44:	3230325f 	eorscc	r3, r0, #-268435451	; 0xf0000005
     a48:	32373030 	eorscc	r3, r7, #48	; 0x30
     a4c:	39305f30 	ldmdbcc	r0!, {r4, r5, r8, r9, sl, fp, ip, lr}
     a50:	785f3832 	ldmdavc	pc, {r1, r4, r5, fp, ip, sp}^	; <UNPREDICTABLE>
     a54:	365f3638 			; <UNDEFINED> instruction: 0x365f3638
     a58:	78655f34 	stmdavc	r5!, {r2, r4, r5, r8, r9, sl, fp, ip, lr}^
     a5c:	74735c65 	ldrbtvc	r5, [r3], #-3173	; 0xfffff39b
     a60:	6332336d 	teqvs	r2, #-1275068415	; 0xb4000001
     a64:	69656275 	stmdbvs	r5!, {r0, r2, r4, r5, r6, r9, sp, lr}^
     a68:	315f6564 	cmpcc	pc, r4, ror #10
     a6c:	302e342e 	eorcc	r3, lr, lr, lsr #8
     a70:	6d74735c 	ldclvs	3, cr7, [r4, #-368]!	; 0xfffffe90
     a74:	75633233 	strbvc	r3, [r3, #-563]!	; 0xfffffdcd
     a78:	64696562 	strbtvs	r6, [r9], #-1378	; 0xfffffa9e
     a7c:	6c705c65 	ldclvs	12, cr5, [r0], #-404	; 0xfffffe6c
     a80:	6e696775 	mcrvs	7, 3, r6, cr9, cr5, {3}
     a84:	6f635c73 	svcvs	0x00635c73
     a88:	74732e6d 	ldrbtvc	r2, [r3], #-3693	; 0xfffff193
     a8c:	6d74732e 	ldclvs	3, cr7, [r4, #-184]!	; 0xffffff48
     a90:	75633233 	strbvc	r3, [r3, #-563]!	; 0xfffffdcd
     a94:	692e6562 	stmdbvs	lr!, {r1, r5, r6, r8, sl, sp, lr}
     a98:	6d2e6564 	cfstr32vs	mvfx6, [lr, #-400]!	; 0xfffffe70
     a9c:	652e7563 	strvs	r7, [lr, #-1379]!	; 0xfffffa9d
     aa0:	72657478 	rsbvc	r7, r5, #120, 8	; 0x78000000
     aa4:	746c616e 	strbtvc	r6, [ip], #-366	; 0xfffffe92
     aa8:	736c6f6f 	cmnvc	ip, #444	; 0x1bc
     aac:	756e672e 	strbvc	r6, [lr, #-1838]!	; 0xfffff8d2
     ab0:	6f6f742d 	svcvs	0x006f742d
     ab4:	662d736c 	strtvs	r7, [sp], -ip, ror #6
     ab8:	732d726f 			; <UNDEFINED> instruction: 0x732d726f
     abc:	32336d74 	eorscc	r6, r3, #116, 26	; 0x1d00
     ac0:	2e30312e 	rsfcssp	f3, f0, #0.5
     ac4:	30322d33 	eorscc	r2, r2, r3, lsr sp
     ac8:	312e3132 			; <UNDEFINED> instruction: 0x312e3132
     acc:	69772e30 	ldmdbvs	r7!, {r4, r5, r9, sl, fp, sp}^
     ad0:	5f32336e 	svcpl	0x0032336e
     ad4:	2e302e31 	mrccs	14, 1, r2, cr0, cr1, {1}
     ad8:	2e303032 	mrccs	0, 1, r3, cr0, cr2, {1}
     adc:	33323032 	teqcc	r2, #50	; 0x32
     ae0:	36313130 			; <UNDEFINED> instruction: 0x36313130
     ae4:	33303031 	teqcc	r0, #49	; 0x31
     ae8:	6f6f745c 	svcvs	0x006f745c
     aec:	625c736c 	subsvs	r7, ip, #108, 6	; 0xb0000001
     af0:	2e5c6e69 	cdpcs	14, 5, cr6, cr12, cr9, {3}
     af4:	696c2f2e 	stmdbvs	ip!, {r1, r2, r3, r5, r8, r9, sl, fp, sp}^
     af8:	63672f62 	cmnvs	r7, #392	; 0x188
     afc:	72612f63 	rsbvc	r2, r1, #396	; 0x18c
     b00:	6f6e2d6d 	svcvs	0x006e2d6d
     b04:	652d656e 	strvs	r6, [sp, #-1390]!	; 0xfffffa92
     b08:	2f696261 	svccs	0x00696261
     b0c:	332e3031 			; <UNDEFINED> instruction: 0x332e3031
     b10:	2e2f312e 	sufcsep	f3, f7, #0.5
     b14:	2e2e2f2e 	cdpcs	15, 2, cr2, cr14, cr14, {1}
     b18:	2f2e2e2f 	svccs	0x002e2e2f
     b1c:	612f2e2e 			; <UNDEFINED> instruction: 0x612f2e2e
     b20:	6e2d6d72 	mcrvs	13, 1, r6, cr13, cr2, {3}
     b24:	2d656e6f 	stclcs	14, cr6, [r5, #-444]!	; 0xfffffe44
     b28:	69626165 	stmdbvs	r2!, {r0, r2, r5, r6, r8, sp, lr}^
     b2c:	636e692f 	cmnvs	lr, #770048	; 0xbc000
     b30:	6564756c 	strbvs	r7, [r4, #-1388]!	; 0xfffffa94
     b34:	5c3a6700 	ldcpl	7, cr6, [sl], #-0
     b38:	732e6e65 			; <UNDEFINED> instruction: 0x732e6e65
     b3c:	74732d74 	ldrbtvc	r2, [r3], #-3444	; 0xfffff28c
     b40:	6332336d 	teqvs	r2, #-1275068415	; 0xb4000001
     b44:	69656275 	stmdbvs	r5!, {r0, r2, r4, r5, r6, r9, sp, lr}^
     b48:	315f6564 	cmpcc	pc, r4, ror #10
     b4c:	302e342e 	eorcc	r3, lr, lr, lsr #8
     b50:	3135375f 	teqcc	r5, pc, asr r7
     b54:	30325f31 	eorscc	r5, r2, r1, lsr pc
     b58:	37303032 			; <UNDEFINED> instruction: 0x37303032
     b5c:	305f3032 	subscc	r3, pc, r2, lsr r0	; <UNPREDICTABLE>
     b60:	5f383239 	svcpl	0x00383239
     b64:	5f363878 	svcpl	0x00363878
     b68:	655f3436 	ldrbvs	r3, [pc, #-1078]	; 73a <_Min_Stack_Size+0x33a>
     b6c:	735c6578 	cmpvc	ip, #120, 10	; 0x1e000000
     b70:	32336d74 	eorscc	r6, r3, #116, 26	; 0x1d00
     b74:	65627563 	strbvs	r7, [r2, #-1379]!	; 0xfffffa9d
     b78:	5f656469 	svcpl	0x00656469
     b7c:	2e342e31 	mrccs	14, 1, r2, cr4, cr1, {1}
     b80:	74735c30 	ldrbtvc	r5, [r3], #-3120	; 0xfffff3d0
     b84:	6332336d 	teqvs	r2, #-1275068415	; 0xb4000001
     b88:	69656275 	stmdbvs	r5!, {r0, r2, r4, r5, r6, r9, sp, lr}^
     b8c:	705c6564 	subsvc	r6, ip, r4, ror #10
     b90:	6967756c 	stmdbvs	r7!, {r2, r3, r5, r6, r8, sl, ip, sp, lr}^
     b94:	635c736e 	cmpvs	ip, #-1207959551	; 0xb8000001
     b98:	732e6d6f 			; <UNDEFINED> instruction: 0x732e6d6f
     b9c:	74732e74 	ldrbtvc	r2, [r3], #-3700	; 0xfffff18c
     ba0:	6332336d 	teqvs	r2, #-1275068415	; 0xb4000001
     ba4:	2e656275 	mcrcs	2, 3, r6, cr5, cr5, {3}
     ba8:	2e656469 	cdpcs	4, 6, cr6, cr5, cr9, {3}
     bac:	2e75636d 	cdpcs	3, 7, cr6, cr5, cr13, {3}
     bb0:	65747865 	ldrbvs	r7, [r4, #-2149]!	; 0xfffff79b
     bb4:	6c616e72 	stclvs	14, cr6, [r1], #-456	; 0xfffffe38
     bb8:	6c6f6f74 	stclvs	15, cr6, [pc], #-464	; 9f0 <_Min_Stack_Size+0x5f0>
     bbc:	6e672e73 	mcrvs	14, 3, r2, cr7, cr3, {3}
     bc0:	6f742d75 	svcvs	0x00742d75
     bc4:	2d736c6f 	ldclcs	12, cr6, [r3, #-444]!	; 0xfffffe44
     bc8:	2d726f66 	ldclcs	15, cr6, [r2, #-408]!	; 0xfffffe68
     bcc:	336d7473 	cmncc	sp, #1929379840	; 0x73000000
     bd0:	30312e32 	eorscc	r2, r1, r2, lsr lr
     bd4:	322d332e 	eorcc	r3, sp, #-1207959552	; 0xb8000000
     bd8:	2e313230 	mrccs	2, 1, r3, cr1, cr0, {1}
     bdc:	772e3031 			; <UNDEFINED> instruction: 0x772e3031
     be0:	32336e69 	eorscc	r6, r3, #1680	; 0x690
     be4:	302e315f 	eorcc	r3, lr, pc, asr r1
     be8:	3030322e 	eorscc	r3, r0, lr, lsr #4
     bec:	3230322e 	eorscc	r3, r0, #-536870910	; 0xe0000002
     bf0:	31313033 	teqcc	r1, r3, lsr r0
     bf4:	30303136 	eorscc	r3, r0, r6, lsr r1
     bf8:	6f745c33 	svcvs	0x00745c33
     bfc:	5c736c6f 	ldclpl	12, cr6, [r3], #-444	; 0xfffffe44
     c00:	2d6d7261 	sfmcs	f7, 2, [sp, #-388]!	; 0xfffffe7c
     c04:	656e6f6e 	strbvs	r6, [lr, #-3950]!	; 0xfffff092
     c08:	6261652d 	rsbvs	r6, r1, #188743680	; 0xb400000
     c0c:	6e695c69 	cdpvs	12, 6, cr5, cr9, cr9, {3}
     c10:	64756c63 	ldrbtvs	r6, [r5], #-3171	; 0xfffff39d
     c14:	656e5c65 	strbvs	r5, [lr, #-3173]!	; 0xfffff39b
     c18:	62696c77 	rsbvs	r6, r9, #30464	; 0x7700
     c1c:	6e616e2d 	cdpvs	14, 6, cr6, cr1, cr13, {1}
     c20:	3a67006f 	bcc	19c0de4 <_Min_Stack_Size+0x19c09e4>
     c24:	2e6e655c 	mcrcs	5, 3, r6, cr14, cr12, {2}
     c28:	732d7473 			; <UNDEFINED> instruction: 0x732d7473
     c2c:	32336d74 	eorscc	r6, r3, #116, 26	; 0x1d00
     c30:	65627563 	strbvs	r7, [r2, #-1379]!	; 0xfffffa9d
     c34:	5f656469 	svcpl	0x00656469
     c38:	2e342e31 	mrccs	14, 1, r2, cr4, cr1, {1}
     c3c:	35375f30 	ldrcc	r5, [r7, #-3888]!	; 0xfffff0d0
     c40:	325f3131 	subscc	r3, pc, #1073741836	; 0x4000000c
     c44:	30303230 	eorscc	r3, r0, r0, lsr r2
     c48:	5f303237 	svcpl	0x00303237
     c4c:	38323930 	ldmdacc	r2!, {r4, r5, r8, fp, ip, sp}
     c50:	3638785f 			; <UNDEFINED> instruction: 0x3638785f
     c54:	5f34365f 	svcpl	0x0034365f
     c58:	5c657865 	stclpl	8, cr7, [r5], #-404	; 0xfffffe6c
     c5c:	336d7473 	cmncc	sp, #1929379840	; 0x73000000
     c60:	62756332 	rsbsvs	r6, r5, #-939524096	; 0xc8000000
     c64:	65646965 	strbvs	r6, [r4, #-2405]!	; 0xfffff69b
     c68:	342e315f 	strtcc	r3, [lr], #-351	; 0xfffffea1
     c6c:	735c302e 	cmpvc	ip, #46	; 0x2e
     c70:	32336d74 	eorscc	r6, r3, #116, 26	; 0x1d00
     c74:	65627563 	strbvs	r7, [r2, #-1379]!	; 0xfffffa9d
     c78:	5c656469 	cfstrdpl	mvd6, [r5], #-420	; 0xfffffe5c
     c7c:	67756c70 			; <UNDEFINED> instruction: 0x67756c70
     c80:	5c736e69 	ldclpl	14, cr6, [r3], #-420	; 0xfffffe5c
     c84:	2e6d6f63 	cdpcs	15, 6, cr6, cr13, cr3, {3}
     c88:	732e7473 			; <UNDEFINED> instruction: 0x732e7473
     c8c:	32336d74 	eorscc	r6, r3, #116, 26	; 0x1d00
     c90:	65627563 	strbvs	r7, [r2, #-1379]!	; 0xfffffa9d
     c94:	6564692e 	strbvs	r6, [r4, #-2350]!	; 0xfffff6d2
     c98:	75636d2e 	strbvc	r6, [r3, #-3374]!	; 0xfffff2d2
     c9c:	7478652e 	ldrbtvc	r6, [r8], #-1326	; 0xfffffad2
     ca0:	616e7265 	cmnvs	lr, r5, ror #4
     ca4:	6f6f746c 	svcvs	0x006f746c
     ca8:	672e736c 	strvs	r7, [lr, -ip, ror #6]!
     cac:	742d756e 	strtvc	r7, [sp], #-1390	; 0xfffffa92
     cb0:	736c6f6f 	cmnvc	ip, #444	; 0x1bc
     cb4:	726f662d 	rsbvc	r6, pc, #47185920	; 0x2d00000
     cb8:	6d74732d 	ldclvs	3, cr7, [r4, #-180]!	; 0xffffff4c
     cbc:	312e3233 			; <UNDEFINED> instruction: 0x312e3233
     cc0:	2d332e30 	ldccs	14, cr2, [r3, #-192]!	; 0xffffff40
     cc4:	31323032 	teqcc	r2, r2, lsr r0
     cc8:	2e30312e 	rsfcssp	f3, f0, #0.5
     ccc:	336e6977 	cmncc	lr, #1949696	; 0x1dc000
     cd0:	2e315f32 	mrccs	15, 1, r5, cr1, cr2, {1}
     cd4:	30322e30 	eorscc	r2, r2, r0, lsr lr
     cd8:	30322e30 	eorscc	r2, r2, r0, lsr lr
     cdc:	31303332 	teqcc	r0, r2, lsr r3
     ce0:	30313631 	eorscc	r3, r1, r1, lsr r6
     ce4:	745c3330 	ldrbvc	r3, [ip], #-816	; 0xfffffcd0
     ce8:	736c6f6f 	cmnvc	ip, #444	; 0x1bc
     cec:	62696c5c 	rsbvs	r6, r9, #92, 24	; 0x5c00
     cf0:	6363675c 	cmnvs	r3, #92, 14	; 0x1700000
     cf4:	6d72615c 	ldfvse	f6, [r2, #-368]!	; 0xfffffe90
     cf8:	6e6f6e2d 	cdpvs	14, 6, cr6, cr15, cr13, {1}
     cfc:	61652d65 	cmnvs	r5, r5, ror #26
     d00:	315c6962 	cmpcc	ip, r2, ror #18
     d04:	2e332e30 	mrccs	14, 1, r2, cr3, cr0, {1}
     d08:	6e695c31 	mcrvs	12, 3, r5, cr9, cr1, {1}
     d0c:	64756c63 	ldrbtvs	r6, [r5], #-3171	; 0xfffff39d
     d10:	73000065 	movwvc	r0, #101	; 0x65
     d14:	32336d74 	eorscc	r6, r3, #116, 26	; 0x1d00
     d18:	3031665f 	eorscc	r6, r1, pc, asr r6
     d1c:	5f366333 	svcpl	0x00366333
     d20:	76697264 	strbtvc	r7, [r9], -r4, ror #4
     d24:	5f737265 	svcpl	0x00737265
     d28:	49545845 	ldmdbmi	r4, {r0, r2, r6, fp, ip, lr}^
     d2c:	0100632e 	tsteq	r0, lr, lsr #6
     d30:	645f0000 	ldrbvs	r0, [pc], #-0	; d38 <_Min_Stack_Size+0x938>
     d34:	75616665 	strbvc	r6, [r1, #-1637]!	; 0xfffff99b
     d38:	745f746c 	ldrbvc	r7, [pc], #-1132	; d40 <_Min_Stack_Size+0x940>
     d3c:	73657079 	cmnvc	r5, #121	; 0x79
     d40:	0200682e 	andeq	r6, r0, #3014656	; 0x2e0000
     d44:	735f0000 	cmpvc	pc, #0
     d48:	6e696474 	mcrvs	4, 3, r6, cr9, cr4, {3}
     d4c:	00682e74 	rsbeq	r2, r8, r4, ror lr
     d50:	73000003 	movwvc	r0, #3
     d54:	32336d74 	eorscc	r6, r3, #116, 26	; 0x1d00
     d58:	3031665f 	eorscc	r6, r1, pc, asr r6
     d5c:	2e367833 	mrccs	8, 1, r7, cr6, cr3, {1}
     d60:	00040068 	andeq	r0, r4, r8, rrx
     d64:	6d747300 	ldclvs	3, cr7, [r4, #-0]
     d68:	665f3233 			; <UNDEFINED> instruction: 0x665f3233
     d6c:	63333031 	teqvs	r3, #49	; 0x31
     d70:	72645f36 	rsbvc	r5, r4, #54, 30	; 0xd8
     d74:	72657669 	rsbvc	r7, r5, #110100480	; 0x6900000
     d78:	50475f73 	subpl	r5, r7, r3, ror pc
     d7c:	682e4f49 	stmdavs	lr!, {r0, r3, r6, r8, r9, sl, fp, lr}
     d80:	00000400 	andeq	r0, r0, r0, lsl #8
     d84:	336d7473 	cmncc	sp, #1929379840	; 0x73000000
     d88:	31665f32 	cmncc	r6, r2, lsr pc
     d8c:	36633330 			; <UNDEFINED> instruction: 0x36633330
     d90:	6972645f 	ldmdbvs	r2!, {r0, r1, r2, r3, r4, r6, sl, sp, lr}^
     d94:	73726576 	cmnvc	r2, #494927872	; 0x1d800000
     d98:	5458455f 	ldrbpl	r4, [r8], #-1375	; 0xfffffaa1
     d9c:	00682e49 	rsbeq	r2, r8, r9, asr #28
     da0:	73000004 	movwvc	r0, #4
     da4:	696c6474 	stmdbvs	ip!, {r2, r4, r5, r6, sl, sp, lr}^
     da8:	00682e62 	rsbeq	r2, r8, r2, ror #28
     dac:	69000005 	stmdbvs	r0, {r0, r2}
     db0:	66656565 	strbtvs	r6, [r5], -r5, ror #10
     db4:	00682e70 	rsbeq	r2, r8, r0, ror lr
     db8:	5f000002 	svcpl	0x00000002
     dbc:	69736e61 	ldmdbvs	r3!, {r0, r5, r6, r9, sl, fp, sp, lr}^
     dc0:	0500682e 	streq	r6, [r0, #-2094]	; 0xfffff7d2
     dc4:	656e0000 	strbvs	r0, [lr, #-0]!
     dc8:	62696c77 	rsbvs	r6, r9, #30464	; 0x7700
     dcc:	0600682e 	streq	r6, [r0], -lr, lsr #16
     dd0:	6e5f0000 	cdpvs	0, 5, cr0, cr15, cr0, {0}
     dd4:	696c7765 	stmdbvs	ip!, {r0, r2, r5, r6, r8, r9, sl, ip, sp, lr}^
     dd8:	65765f62 	ldrbvs	r5, [r6, #-3938]!	; 0xfffff09e
     ddc:	6f697372 	svcvs	0x00697372
     de0:	00682e6e 	rsbeq	r2, r8, lr, ror #28
     de4:	63000005 	movwvs	r0, #5
     de8:	69666e6f 	stmdbvs	r6!, {r0, r1, r2, r3, r5, r6, r9, sl, fp, sp, lr}^
     dec:	00682e67 	rsbeq	r2, r8, r7, ror #28
     df0:	66000003 	strvs	r0, [r0], -r3
     df4:	75746165 	ldrbvc	r6, [r4, #-357]!	; 0xfffffe9b
     df8:	2e736572 	mrccs	5, 3, r6, cr3, cr2, {3}
     dfc:	00030068 	andeq	r0, r3, r8, rrx
     e00:	64747300 	ldrbtvs	r7, [r4], #-768	; 0xfffffd00
     e04:	2e666564 	cdpcs	5, 6, cr6, cr6, cr4, {3}
     e08:	00070068 	andeq	r0, r7, r8, rrx
     e0c:	65657200 	strbvs	r7, [r5, #-512]!	; 0xfffffe00
     e10:	682e746e 	stmdavs	lr!, {r1, r2, r3, r5, r6, sl, ip, sp, lr}
     e14:	00000300 	andeq	r0, r0, r0, lsl #6
     e18:	7079745f 	rsbsvc	r7, r9, pc, asr r4
     e1c:	682e7365 	stmdavs	lr!, {r0, r2, r5, r6, r8, r9, ip, sp, lr}
     e20:	00000300 	andeq	r0, r0, r0, lsl #6
     e24:	7079745f 	rsbsvc	r7, r9, pc, asr r4
     e28:	682e7365 	stmdavs	lr!, {r0, r2, r5, r6, r8, r9, ip, sp, lr}
     e2c:	00000200 	andeq	r0, r0, r0, lsl #4
     e30:	6b636f6c 	blvs	18dcbe8 <_Min_Stack_Size+0x18dc7e8>
     e34:	0300682e 	movweq	r6, #2094	; 0x82e
     e38:	73610000 	cmnvc	r1, #0
     e3c:	74726573 	ldrbtvc	r6, [r2], #-1395	; 0xfffffa8d
     e40:	0500682e 	streq	r6, [r0, #-2094]	; 0xfffff7d2
     e44:	64630000 	strbtvs	r0, [r3], #-0
     e48:	2e736665 	cdpcs	6, 7, cr6, cr3, cr5, {3}
     e4c:	00030068 	andeq	r0, r3, r8, rrx
     e50:	64747300 	ldrbtvs	r7, [r4], #-768	; 0xfffffd00
     e54:	2e62696c 	vnmulcs.f16	s13, s4, s25	; <UNPREDICTABLE>
     e58:	00020068 	andeq	r0, r2, r8, rrx
     e5c:	6c6c6100 	stfvse	f6, [ip], #-0
     e60:	2e61636f 	cdpcs	3, 6, cr6, cr1, cr15, {3}
     e64:	00050068 	andeq	r0, r5, r8, rrx
     e68:	64747300 	ldrbtvs	r7, [r4], #-768	; 0xfffffd00
     e6c:	2e746e69 	cdpcs	14, 7, cr6, cr4, cr9, {3}
     e70:	00070068 	andeq	r0, r7, r8, rrx
     e74:	64747300 	ldrbtvs	r7, [r4], #-768	; 0xfffffd00
     e78:	2e746e69 	cdpcs	14, 7, cr6, cr4, cr9, {3}
     e7c:	00050068 	andeq	r0, r5, r8, rrx
     e80:	6e695f00 	cdpvs	15, 6, cr5, cr9, cr0, {0}
     e84:	70757374 	rsbsvc	r7, r5, r4, ror r3
     e88:	0300682e 	movweq	r6, #2094	; 0x82e
     e8c:	05000000 	streq	r0, [r0, #-0]
     e90:	02050002 	andeq	r0, r5, #2
     e94:	0800025c 	stmdaeq	r0, {r2, r3, r4, r6, r9}
     e98:	05011103 	streq	r1, [r1, #-259]	; 0xfffffefd
     e9c:	04055903 	streq	r5, [r5], #-2307	; 0xfffff6fd
     ea0:	67152502 	ldrvs	r2, [r5, -r2, lsl #10]
     ea4:	67220605 	strvs	r0, [r2, -r5, lsl #12]!
     ea8:	67226722 	strvs	r6, [r2, -r2, lsr #14]!
     eac:	67220505 	strvs	r0, [r2, -r5, lsl #10]!
     eb0:	67260705 	strvs	r0, [r6, -r5, lsl #14]!
     eb4:	02056726 	andeq	r6, r5, #9961472	; 0x980000
     eb8:	00090222 	andeq	r0, r9, r2, lsr #4
     ebc:	02050101 	andeq	r0, r5, #1073741824	; 0x40000000
     ec0:	24020500 	strcs	r0, [r2], #-1280	; 0xfffffb00
     ec4:	03080003 	movweq	r0, #32771	; 0x8003
     ec8:	03050135 	movweq	r0, #20789	; 0x5135
     ecc:	02040559 	andeq	r0, r4, #373293056	; 0x16400000
     ed0:	05671525 	strbeq	r1, [r7, #-1317]!	; 0xfffffadb
     ed4:	22672206 	rsbcs	r2, r7, #1610612736	; 0x60000000
     ed8:	05672267 	strbeq	r2, [r7, #-615]!	; 0xfffffd99
     edc:	05672205 	strbeq	r2, [r7, #-517]!	; 0xfffffdfb
     ee0:	05672608 	strbeq	r2, [r7, #-1544]!	; 0xfffff9f8
     ee4:	08052606 	stmdaeq	r5, {r1, r2, r9, sl, sp}
     ee8:	22020567 	andcs	r0, r2, #432013312	; 0x19c00000
     eec:	01000902 	tsteq	r0, r2, lsl #18
     ef0:	00010501 	andeq	r0, r1, r1, lsl #10
     ef4:	03ec0205 	mvneq	r0, #1342177280	; 0x50000000
     ef8:	e5030800 	str	r0, [r3, #-2048]	; 0xfffff800
     efc:	35050100 	strcc	r0, [r5, #-256]	; 0xffffff00
     f00:	2e1b054f 	cfmac32cs	mvfx0, mvfx11, mvfx15
     f04:	05211605 	streq	r1, [r1, #-1541]!	; 0xfffff9fb
     f08:	36052f02 	strcc	r2, [r5], -r2, lsl #30
     f0c:	2e0a0586 	cfsh32cs	mvfx0, mvfx10, #-58
     f10:	053e3a05 	ldreq	r3, [lr, #-2565]!	; 0xfffff5fb
     f14:	22052e0a 	andcs	r2, r5, #10, 28	; 0xa0
     f18:	582b0568 	stmdapl	fp!, {r3, r5, r6, r8, sl}
     f1c:	054a2505 	strbeq	r2, [sl, #-1285]	; 0xfffffafb
     f20:	05682e22 	strbeq	r2, [r8, #-3618]!	; 0xfffff1de
     f24:	5f055829 	svcpl	0x00055829
     f28:	0029052e 	eoreq	r0, r9, lr, lsr #10
     f2c:	3c010402 	cfstrscc	mvf0, [r1], {2}
     f30:	02005f05 	andeq	r5, r0, #5, 30
     f34:	052e0104 	streq	r0, [lr, #-260]!	; 0xfffffefc
     f38:	04020029 	streq	r0, [r2], #-41	; 0xffffffd7
     f3c:	5f053c03 	svcpl	0x00053c03
     f40:	03040200 	movweq	r0, #16896	; 0x4200
     f44:	0029052e 	eoreq	r0, r9, lr, lsr #10
     f48:	3c050402 	cfstrscc	mvf0, [r5], {2}
     f4c:	02005f05 	andeq	r5, r0, #5, 30
     f50:	002e0504 	eoreq	r0, lr, r4, lsl #10
     f54:	06070402 	streq	r0, [r7], -r2, lsl #8
     f58:	0402003c 	streq	r0, [r2], #-60	; 0xffffffc4
     f5c:	02002e08 	andeq	r2, r0, #8, 28	; 0x80
     f60:	002e0604 	eoreq	r0, lr, r4, lsl #12
     f64:	2e040402 	cdpcs	4, 0, cr0, cr4, cr2, {0}
     f68:	02040200 	andeq	r0, r4, #0, 4
     f6c:	0066052e 	rsbeq	r0, r6, lr, lsr #10
     f70:	06100402 	ldreq	r0, [r0], -r2, lsl #8
     f74:	00220520 	eoreq	r0, r2, r0, lsr #10
     f78:	3c100402 	cfldrscc	mvf0, [r0], {2}
     f7c:	02000d05 	andeq	r0, r0, #320	; 0x140
     f80:	056a1004 	strbeq	r1, [sl, #-4]!
     f84:	0402002c 	streq	r0, [r2], #-44	; 0xffffffd4
     f88:	12052e10 	andne	r2, r5, #16, 28	; 0x100
     f8c:	10040200 	andne	r0, r4, r0, lsl #4
     f90:	000f053c 	andeq	r0, pc, ip, lsr r5	; <UNPREDICTABLE>
     f94:	2e100402 	cfmulscs	mvf0, mvf0, mvf2
     f98:	02000d05 	andeq	r0, r0, #320	; 0x140
     f9c:	002e1004 	eoreq	r1, lr, r4
     fa0:	3d100402 	cfldrscc	mvf0, [r0, #-8]
     fa4:	02002c05 	andeq	r2, r0, #1280	; 0x500
     fa8:	052e1004 	streq	r1, [lr, #-4]!
     fac:	04020012 	streq	r0, [r2], #-18	; 0xffffffee
     fb0:	0f053c10 	svceq	0x00053c10
     fb4:	10040200 	andne	r0, r4, r0, lsl #4
     fb8:	000d052e 	andeq	r0, sp, lr, lsr #10
     fbc:	2e100402 	cfmulscs	mvf0, mvf0, mvf2
     fc0:	02001305 	andeq	r1, r0, #335544320	; 0x14000000
     fc4:	053e1004 	ldreq	r1, [lr, #-4]!
     fc8:	04020004 	streq	r0, [r2], #-4
     fcc:	0e052e10 	mcreq	14, 0, r2, cr5, cr0, {0}
     fd0:	2e2d0530 	mcrcs	5, 1, r0, cr13, cr0, {1}
     fd4:	053c1305 	ldreq	r1, [ip, #-773]!	; 0xfffffcfb
     fd8:	19053c0e 	stmdbne	r5, {r1, r2, r3, sl, fp, ip, sp}
     fdc:	2e0a054b 	cfsh32cs	mvfx0, mvfx10, #43
     fe0:	05300e05 	ldreq	r0, [r0, #-3589]!	; 0xfffff1fb
     fe4:	13052e2d 	movwne	r2, #24109	; 0x5e2d
     fe8:	3c0e053c 	cfstr32cc	mvfx0, [lr], {60}	; 0x3c
     fec:	2e2d054d 	cfsh64cs	mvdx0, mvdx13, #45
     ff0:	053c1305 	ldreq	r1, [ip, #-773]!	; 0xfffffcfb
     ff4:	053d3c0e 	ldreq	r3, [sp, #-3086]!	; 0xfffff3f2
     ff8:	13052e2d 	movwne	r2, #24109	; 0x5e2d
     ffc:	3c0e053c 	cfstr32cc	mvfx0, [lr], {60}	; 0x3c
    1000:	05402a05 	strbeq	r2, [r0, #-2565]	; 0xfffff5fb
    1004:	41053c51 	tstmi	r5, r1, asr ip
    1008:	4113052e 	tstmi	r3, lr, lsr #10
    100c:	052e0405 	streq	r0, [lr, #-1029]!	; 0xfffffbfb
    1010:	2b05300d 	blcs	14d04c <_Min_Stack_Size+0x14cc4c>
    1014:	3c11052e 	cfldr32cc	mvfx0, [r1], {46}	; 0x2e
    1018:	053c0d05 	ldreq	r0, [ip, #-3333]!	; 0xfffff2fb
    101c:	01053d03 	tsteq	r5, r3, lsl #26
    1020:	1b0d0560 	blne	3425a8 <_Min_Stack_Size+0x3421a8>
    1024:	052e2c05 	streq	r2, [lr, #-3077]!	; 0xfffff3fb
    1028:	0f053c12 	svceq	0x00053c12
    102c:	2e0d052e 	cfsh32cs	mvfx0, mvfx13, #30
    1030:	053d0305 	ldreq	r0, [sp, #-773]!	; 0xfffffcfb
    1034:	12025c01 	andne	r5, r2, #256	; 0x100
    1038:	05010100 	streq	r0, [r1, #-256]	; 0xffffff00
    103c:	02050001 	andeq	r0, r5, #1
    1040:	00000000 	andeq	r0, r0, r0
    1044:	0101a703 	tsteq	r1, r3, lsl #14
    1048:	05300605 	ldreq	r0, [r0, #-1541]!	; 0xfffff9fb
    104c:	0605200c 	streq	r2, [r5], -ip
    1050:	200c052f 	andcs	r0, ip, pc, lsr #10
    1054:	052f0605 	streq	r0, [pc, #-1541]!	; a57 <_Min_Stack_Size+0x657>
    1058:	0605200d 	streq	r2, [r5], -sp
    105c:	200d052f 	andcs	r0, sp, pc, lsr #10
    1060:	052f0605 	streq	r0, [pc, #-1541]!	; a63 <_Min_Stack_Size+0x663>
    1064:	0605200d 	streq	r2, [r5], -sp
    1068:	200b0532 	andcs	r0, fp, r2, lsr r5
    106c:	673f0205 	ldrvs	r0, [pc, -r5, lsl #4]!
    1070:	67676767 	strbvs	r6, [r7, -r7, ror #14]!
    1074:	67010567 	strvs	r0, [r1, -r7, ror #10]
    1078:	01000b02 	tsteq	r0, r2, lsl #22
    107c:	00010501 	andeq	r0, r1, r1, lsl #10
    1080:	00000205 	andeq	r0, r0, r5, lsl #4
    1084:	c9030000 	stmdbgt	r3, {}	; <UNPREDICTABLE>
    1088:	02050101 	andeq	r0, r5, #1073741824	; 0x40000000
    108c:	3d01054b 	cfstr32cc	mvfx0, [r1, #-300]	; 0xfffffed4
    1090:	01000402 	tsteq	r0, r2, lsl #8
    1094:	00010501 	andeq	r0, r1, r1, lsl #10
    1098:	05bc0205 	ldreq	r0, [ip, #517]!	; 0x205
    109c:	d8030800 	stmdale	r3, {fp}
    10a0:	02050101 	andeq	r0, r5, #1073741824	; 0x40000000
    10a4:	3d01054b 	cfstr32cc	mvfx0, [r1, #-300]	; 0xfffffed4
    10a8:	01000402 	tsteq	r0, r2, lsl #8
    10ac:	00010501 	andeq	r0, r1, r1, lsl #10
    10b0:	05d40205 	ldrbeq	r0, [r4, #517]	; 0x205
    10b4:	e0030800 	and	r0, r3, r0, lsl #16
    10b8:	0b050101 	bleq	1414c4 <_Min_Stack_Size+0x1410c4>
    10bc:	6711052f 	ldrvs	r0, [r1, -pc, lsr #10]
    10c0:	052e0205 	streq	r0, [lr, #-517]!	; 0xfffffdfb
    10c4:	07022101 	streq	r2, [r2, -r1, lsl #2]
    10c8:	05010100 	streq	r0, [r1, #-256]	; 0xffffff00
    10cc:	02050001 	andeq	r0, r5, #1
    10d0:	080005f8 	stmdaeq	r0, {r3, r4, r5, r6, r7, r8, sl}
    10d4:	0101e503 	tsteq	r1, r3, lsl #10
    10d8:	052f0b05 	streq	r0, [pc, #-2821]!	; 5db <_Min_Stack_Size+0x1db>
    10dc:	02056711 	andeq	r6, r5, #4456448	; 0x440000
    10e0:	2101052e 	tstcs	r1, lr, lsr #10
    10e4:	01000702 	tsteq	r0, r2, lsl #14
    10e8:	00010501 	andeq	r0, r1, r1, lsl #10
    10ec:	061c0205 	ldreq	r0, [ip], -r5, lsl #4
    10f0:	ea030800 	b	c30f8 <_Min_Stack_Size+0xc2cf8>
    10f4:	0b050101 	bleq	141500 <_Min_Stack_Size+0x141100>
    10f8:	6711052f 	ldrvs	r0, [r1, -pc, lsr #10]
    10fc:	052e0205 	streq	r0, [lr, #-517]!	; 0xfffffdfb
    1100:	07022101 	streq	r2, [r2, -r1, lsl #2]
    1104:	05010100 	streq	r0, [r1, #-256]	; 0xffffff00
    1108:	02050001 	andeq	r0, r5, #1
    110c:	08000640 	stmdaeq	r0, {r6, r9, sl}
    1110:	0101ef03 	tsteq	r1, r3, lsl #30
    1114:	052f0b05 	streq	r0, [pc, #-2821]!	; 617 <_Min_Stack_Size+0x217>
    1118:	02056711 	andeq	r6, r5, #4456448	; 0x440000
    111c:	2101052e 	tstcs	r1, lr, lsr #10
    1120:	01000702 	tsteq	r0, r2, lsl #14
    1124:	00010501 	andeq	r0, r1, r1, lsl #10
    1128:	06640205 	strbteq	r0, [r4], -r5, lsl #4
    112c:	f4030800 	vst2.8	{d0-d1}, [r3], r0
    1130:	0b050101 	bleq	14153c <_Min_Stack_Size+0x14113c>
    1134:	6711052f 	ldrvs	r0, [r1, -pc, lsr #10]
    1138:	052e0205 	streq	r0, [lr, #-517]!	; 0xfffffdfb
    113c:	07022101 	streq	r2, [r2, -r1, lsl #2]
    1140:	05010100 	streq	r0, [r1, #-256]	; 0xffffff00
    1144:	02050001 	andeq	r0, r5, #1
    1148:	08000688 	stmdaeq	r0, {r3, r7, r9, sl}
    114c:	0101fa03 	tsteq	r1, r3, lsl #20	; <UNPREDICTABLE>
    1150:	052f0905 	streq	r0, [pc, #-2309]!	; 853 <_Min_Stack_Size+0x453>
    1154:	04052e0e 	streq	r2, [r5], #-3598	; 0xfffff1f2
    1158:	0021052e 	eoreq	r0, r1, lr, lsr #10
    115c:	2e010402 	cdpcs	4, 0, cr0, cr1, cr2, {0}
    1160:	02003c05 	andeq	r3, r0, #1280	; 0x500
    1164:	05660104 	strbeq	r0, [r6, #-260]!	; 0xfffffefc
    1168:	0402002d 	streq	r0, [r2], #-45	; 0xffffffd3
    116c:	09052e01 	stmdbeq	r5, {r0, r9, sl, fp, sp}
    1170:	2e0e0521 	cfsh32cs	mvfx0, mvfx14, #17
    1174:	052e0405 	streq	r0, [lr, #-1029]!	; 0xfffffbfb
    1178:	04020021 	streq	r0, [r2], #-33	; 0xffffffdf
    117c:	3c052e01 	stccc	14, cr2, [r5], {1}
    1180:	01040200 	mrseq	r0, R12_usr
    1184:	002d0566 	eoreq	r0, sp, r6, ror #10
    1188:	2e010402 	cdpcs	4, 0, cr0, cr1, cr2, {0}
    118c:	05210905 	streq	r0, [r1, #-2309]!	; 0xfffff6fb
    1190:	04052e0e 	streq	r2, [r5], #-3598	; 0xfffff1f2
    1194:	0021052e 	eoreq	r0, r1, lr, lsr #10
    1198:	2e010402 	cdpcs	4, 0, cr0, cr1, cr2, {0}
    119c:	02003c05 	andeq	r3, r0, #1280	; 0x500
    11a0:	05660104 	strbeq	r0, [r6, #-260]!	; 0xfffffefc
    11a4:	0402002d 	streq	r0, [r2], #-45	; 0xffffffd3
    11a8:	09052e01 	stmdbeq	r5, {r0, r9, sl, fp, sp}
    11ac:	2e0e0521 	cfsh32cs	mvfx0, mvfx14, #17
    11b0:	052e0405 	streq	r0, [lr, #-1029]!	; 0xfffffbfb
    11b4:	04020021 	streq	r0, [r2], #-33	; 0xffffffdf
    11b8:	3c052e01 	stccc	14, cr2, [r5], {1}
    11bc:	01040200 	mrseq	r0, R12_usr
    11c0:	002d0566 	eoreq	r0, sp, r6, ror #10
    11c4:	2e010402 	cdpcs	4, 0, cr0, cr1, cr2, {0}
    11c8:	05210905 	streq	r0, [r1, #-2309]!	; 0xfffff6fb
    11cc:	04052e0e 	streq	r2, [r5], #-3598	; 0xfffff1f2
    11d0:	0021052e 	eoreq	r0, r1, lr, lsr #10
    11d4:	2e010402 	cdpcs	4, 0, cr0, cr1, cr2, {0}
    11d8:	02003c05 	andeq	r3, r0, #1280	; 0x500
    11dc:	05660104 	strbeq	r0, [r6, #-260]!	; 0xfffffefc
    11e0:	0402002d 	streq	r0, [r2], #-45	; 0xffffffd3
    11e4:	01052e01 	tsteq	r5, r1, lsl #28
    11e8:	00070221 	andeq	r0, r7, r1, lsr #4
    11ec:	01050101 	tsteq	r5, r1, lsl #2
    11f0:	30020500 	andcc	r0, r2, r0, lsl #10
    11f4:	03080007 	movweq	r0, #32775	; 0x8007
    11f8:	05010282 	streq	r0, [r1, #-642]	; 0xfffffd7e
    11fc:	0e052f09 	cdpeq	15, 0, cr2, cr5, cr9, {0}
    1200:	2e04052e 	cfsh32cs	mvfx0, mvfx4, #30
    1204:	02002205 	andeq	r2, r0, #1342177280	; 0x50000000
    1208:	052e0104 	streq	r0, [lr, #-260]!	; 0xfffffefc
    120c:	0402003e 	streq	r0, [r2], #-62	; 0xffffffc2
    1210:	2f056601 	svccs	0x00056601
    1214:	01040200 	mrseq	r0, R12_usr
    1218:	2109052e 	tstcs	r9, lr, lsr #10
    121c:	052e0e05 	streq	r0, [lr, #-3589]!	; 0xfffff1fb
    1220:	22052e04 	andcs	r2, r5, #4, 28	; 0x40
    1224:	01040200 	mrseq	r0, R12_usr
    1228:	003e052e 	eorseq	r0, lr, lr, lsr #10
    122c:	66010402 	strvs	r0, [r1], -r2, lsl #8
    1230:	02002f05 	andeq	r2, r0, #5, 30
    1234:	052e0104 	streq	r0, [lr, #-260]!	; 0xfffffefc
    1238:	0e052109 	adfeqs	f2, f5, #1.0
    123c:	2e04052e 	cfsh32cs	mvfx0, mvfx4, #30
    1240:	02002205 	andeq	r2, r0, #1342177280	; 0x50000000
    1244:	052e0104 	streq	r0, [lr, #-260]!	; 0xfffffefc
    1248:	0402003e 	streq	r0, [r2], #-62	; 0xffffffc2
    124c:	2f056601 	svccs	0x00056601
    1250:	01040200 	mrseq	r0, R12_usr
    1254:	2109052e 	tstcs	r9, lr, lsr #10
    1258:	052e0e05 	streq	r0, [lr, #-3589]!	; 0xfffff1fb
    125c:	22052e04 	andcs	r2, r5, #4, 28	; 0x40
    1260:	01040200 	mrseq	r0, R12_usr
    1264:	003e052e 	eorseq	r0, lr, lr, lsr #10
    1268:	66010402 	strvs	r0, [r1], -r2, lsl #8
    126c:	02002f05 	andeq	r2, r0, #5, 30
    1270:	052e0104 	streq	r0, [lr, #-260]!	; 0xfffffefc
    1274:	0e052109 	adfeqs	f2, f5, #1.0
    1278:	2e04052e 	cfsh32cs	mvfx0, mvfx4, #30
    127c:	02002205 	andeq	r2, r0, #1342177280	; 0x50000000
    1280:	052e0104 	streq	r0, [lr, #-260]!	; 0xfffffefc
    1284:	0402003e 	streq	r0, [r2], #-62	; 0xffffffc2
    1288:	2f056601 	svccs	0x00056601
    128c:	01040200 	mrseq	r0, R12_usr
    1290:	2109052e 	tstcs	r9, lr, lsr #10
    1294:	052e0e05 	streq	r0, [lr, #-3589]!	; 0xfffff1fb
    1298:	22052e04 	andcs	r2, r5, #4, 28	; 0x40
    129c:	01040200 	mrseq	r0, R12_usr
    12a0:	003e052e 	eorseq	r0, lr, lr, lsr #10
    12a4:	66010402 	strvs	r0, [r1], -r2, lsl #8
    12a8:	02002f05 	andeq	r2, r0, #5, 30
    12ac:	052e0104 	streq	r0, [lr, #-260]!	; 0xfffffefc
    12b0:	06022101 	streq	r2, [r2], -r1, lsl #2
    12b4:	be010100 	adflts	f0, f1, f0
    12b8:	03000008 	movweq	r0, #8
    12bc:	0006c700 	andeq	ip, r6, r0, lsl #14
    12c0:	fb010200 	blx	41aca <_Min_Stack_Size+0x416ca>
    12c4:	01000d0e 	tsteq	r0, lr, lsl #26
    12c8:	00010101 	andeq	r0, r1, r1, lsl #2
    12cc:	00010000 	andeq	r0, r1, r0
    12d0:	2e2e0100 	sufcse	f0, f6, f0
    12d4:	6d74732f 	ldclvs	3, cr7, [r4, #-188]!	; 0xffffff44
    12d8:	665f3233 			; <UNDEFINED> instruction: 0x665f3233
    12dc:	63333031 	teqvs	r3, #49	; 0x31
    12e0:	72645f36 	rsbvc	r5, r4, #54, 30	; 0xd8
    12e4:	72657669 	rsbvc	r7, r5, #110100480	; 0x6900000
    12e8:	3a670073 	bcc	19c14bc <_Min_Stack_Size+0x19c10bc>
    12ec:	2e6e655c 	mcrcs	5, 3, r6, cr14, cr12, {2}
    12f0:	732d7473 			; <UNDEFINED> instruction: 0x732d7473
    12f4:	32336d74 	eorscc	r6, r3, #116, 26	; 0x1d00
    12f8:	65627563 	strbvs	r7, [r2, #-1379]!	; 0xfffffa9d
    12fc:	5f656469 	svcpl	0x00656469
    1300:	2e342e31 	mrccs	14, 1, r2, cr4, cr1, {1}
    1304:	35375f30 	ldrcc	r5, [r7, #-3888]!	; 0xfffff0d0
    1308:	325f3131 	subscc	r3, pc, #1073741836	; 0x4000000c
    130c:	30303230 	eorscc	r3, r0, r0, lsr r2
    1310:	5f303237 	svcpl	0x00303237
    1314:	38323930 	ldmdacc	r2!, {r4, r5, r8, fp, ip, sp}
    1318:	3638785f 			; <UNDEFINED> instruction: 0x3638785f
    131c:	5f34365f 	svcpl	0x0034365f
    1320:	5c657865 	stclpl	8, cr7, [r5], #-404	; 0xfffffe6c
    1324:	336d7473 	cmncc	sp, #1929379840	; 0x73000000
    1328:	62756332 	rsbsvs	r6, r5, #-939524096	; 0xc8000000
    132c:	65646965 	strbvs	r6, [r4, #-2405]!	; 0xfffff69b
    1330:	342e315f 	strtcc	r3, [lr], #-351	; 0xfffffea1
    1334:	735c302e 	cmpvc	ip, #46	; 0x2e
    1338:	32336d74 	eorscc	r6, r3, #116, 26	; 0x1d00
    133c:	65627563 	strbvs	r7, [r2, #-1379]!	; 0xfffffa9d
    1340:	5c656469 	cfstrdpl	mvd6, [r5], #-420	; 0xfffffe5c
    1344:	67756c70 			; <UNDEFINED> instruction: 0x67756c70
    1348:	5c736e69 	ldclpl	14, cr6, [r3], #-420	; 0xfffffe5c
    134c:	2e6d6f63 	cdpcs	15, 6, cr6, cr13, cr3, {3}
    1350:	732e7473 			; <UNDEFINED> instruction: 0x732e7473
    1354:	32336d74 	eorscc	r6, r3, #116, 26	; 0x1d00
    1358:	65627563 	strbvs	r7, [r2, #-1379]!	; 0xfffffa9d
    135c:	6564692e 	strbvs	r6, [r4, #-2350]!	; 0xfffff6d2
    1360:	75636d2e 	strbvc	r6, [r3, #-3374]!	; 0xfffff2d2
    1364:	7478652e 	ldrbtvc	r6, [r8], #-1326	; 0xfffffad2
    1368:	616e7265 	cmnvs	lr, r5, ror #4
    136c:	6f6f746c 	svcvs	0x006f746c
    1370:	672e736c 	strvs	r7, [lr, -ip, ror #6]!
    1374:	742d756e 	strtvc	r7, [sp], #-1390	; 0xfffffa92
    1378:	736c6f6f 	cmnvc	ip, #444	; 0x1bc
    137c:	726f662d 	rsbvc	r6, pc, #47185920	; 0x2d00000
    1380:	6d74732d 	ldclvs	3, cr7, [r4, #-180]!	; 0xffffff4c
    1384:	312e3233 			; <UNDEFINED> instruction: 0x312e3233
    1388:	2d332e30 	ldccs	14, cr2, [r3, #-192]!	; 0xffffff40
    138c:	31323032 	teqcc	r2, r2, lsr r0
    1390:	2e30312e 	rsfcssp	f3, f0, #0.5
    1394:	336e6977 	cmncc	lr, #1949696	; 0x1dc000
    1398:	2e315f32 	mrccs	15, 1, r5, cr1, cr2, {1}
    139c:	30322e30 	eorscc	r2, r2, r0, lsr lr
    13a0:	30322e30 	eorscc	r2, r2, r0, lsr lr
    13a4:	31303332 	teqcc	r0, r2, lsr r3
    13a8:	30313631 	eorscc	r3, r1, r1, lsr r6
    13ac:	745c3330 	ldrbvc	r3, [ip], #-816	; 0xfffffcd0
    13b0:	736c6f6f 	cmnvc	ip, #444	; 0x1bc
    13b4:	6e69625c 	mcrvs	2, 3, r6, cr9, cr12, {2}
    13b8:	2f2e2e5c 	svccs	0x002e2e5c
    13bc:	2f62696c 	svccs	0x0062696c
    13c0:	2f636367 	svccs	0x00636367
    13c4:	2d6d7261 	sfmcs	f7, 2, [sp, #-388]!	; 0xfffffe7c
    13c8:	656e6f6e 	strbvs	r6, [lr, #-3950]!	; 0xfffff092
    13cc:	6261652d 	rsbvs	r6, r1, #188743680	; 0xb400000
    13d0:	30312f69 	eorscc	r2, r1, r9, ror #30
    13d4:	312e332e 			; <UNDEFINED> instruction: 0x312e332e
    13d8:	2f2e2e2f 	svccs	0x002e2e2f
    13dc:	2e2f2e2e 	cdpcs	14, 2, cr2, cr15, cr14, {1}
    13e0:	2e2e2f2e 	cdpcs	15, 2, cr2, cr14, cr14, {1}
    13e4:	6d72612f 	ldfvse	f6, [r2, #-188]!	; 0xffffff44
    13e8:	6e6f6e2d 	cdpvs	14, 6, cr6, cr15, cr13, {1}
    13ec:	61652d65 	cmnvs	r5, r5, ror #26
    13f0:	692f6962 	stmdbvs	pc!, {r1, r5, r6, r8, fp, sp, lr}	; <UNPREDICTABLE>
    13f4:	756c636e 	strbvc	r6, [ip, #-878]!	; 0xfffffc92
    13f8:	6d2f6564 	cfstr32vs	mvfx6, [pc, #-400]!	; 1270 <_Min_Stack_Size+0xe70>
    13fc:	69686361 	stmdbvs	r8!, {r0, r5, r6, r8, r9, sp, lr}^
    1400:	6700656e 	strvs	r6, [r0, -lr, ror #10]
    1404:	6e655c3a 	mcrvs	12, 3, r5, cr5, cr10, {1}
    1408:	2d74732e 	ldclcs	3, cr7, [r4, #-184]!	; 0xffffff48
    140c:	336d7473 	cmncc	sp, #1929379840	; 0x73000000
    1410:	62756332 	rsbsvs	r6, r5, #-939524096	; 0xc8000000
    1414:	65646965 	strbvs	r6, [r4, #-2405]!	; 0xfffff69b
    1418:	342e315f 	strtcc	r3, [lr], #-351	; 0xfffffea1
    141c:	375f302e 	ldrbcc	r3, [pc, -lr, lsr #32]
    1420:	5f313135 	svcpl	0x00313135
    1424:	30323032 	eorscc	r3, r2, r2, lsr r0
    1428:	30323730 	eorscc	r3, r2, r0, lsr r7
    142c:	3239305f 	eorscc	r3, r9, #95	; 0x5f
    1430:	38785f38 	ldmdacc	r8!, {r3, r4, r5, r8, r9, sl, fp, ip, lr}^
    1434:	34365f36 	ldrtcc	r5, [r6], #-3894	; 0xfffff0ca
    1438:	6578655f 	ldrbvs	r6, [r8, #-1375]!	; 0xfffffaa1
    143c:	6d74735c 	ldclvs	3, cr7, [r4, #-368]!	; 0xfffffe90
    1440:	75633233 	strbvc	r3, [r3, #-563]!	; 0xfffffdcd
    1444:	64696562 	strbtvs	r6, [r9], #-1378	; 0xfffffa9e
    1448:	2e315f65 	cdpcs	15, 3, cr5, cr1, cr5, {3}
    144c:	5c302e34 	ldcpl	14, cr2, [r0], #-208	; 0xffffff30
    1450:	336d7473 	cmncc	sp, #1929379840	; 0x73000000
    1454:	62756332 	rsbsvs	r6, r5, #-939524096	; 0xc8000000
    1458:	65646965 	strbvs	r6, [r4, #-2405]!	; 0xfffff69b
    145c:	756c705c 	strbvc	r7, [ip, #-92]!	; 0xffffffa4
    1460:	736e6967 	cmnvc	lr, #1687552	; 0x19c000
    1464:	6d6f635c 	stclvs	3, cr6, [pc, #-368]!	; 12fc <_Min_Stack_Size+0xefc>
    1468:	2e74732e 	cdpcs	3, 7, cr7, cr4, cr14, {1}
    146c:	336d7473 	cmncc	sp, #1929379840	; 0x73000000
    1470:	62756332 	rsbsvs	r6, r5, #-939524096	; 0xc8000000
    1474:	64692e65 	strbtvs	r2, [r9], #-3685	; 0xfffff19b
    1478:	636d2e65 	cmnvs	sp, #1616	; 0x650
    147c:	78652e75 	stmdavc	r5!, {r0, r2, r4, r5, r6, r9, sl, fp, sp}^
    1480:	6e726574 	mrcvs	5, 3, r6, cr2, cr4, {3}
    1484:	6f746c61 	svcvs	0x00746c61
    1488:	2e736c6f 	cdpcs	12, 7, cr6, cr3, cr15, {3}
    148c:	2d756e67 	ldclcs	14, cr6, [r5, #-412]!	; 0xfffffe64
    1490:	6c6f6f74 	stclvs	15, cr6, [pc], #-464	; 12c8 <_Min_Stack_Size+0xec8>
    1494:	6f662d73 	svcvs	0x00662d73
    1498:	74732d72 	ldrbtvc	r2, [r3], #-3442	; 0xfffff28e
    149c:	2e32336d 	cdpcs	3, 3, cr3, cr2, cr13, {3}
    14a0:	332e3031 			; <UNDEFINED> instruction: 0x332e3031
    14a4:	3230322d 	eorscc	r3, r0, #-805306366	; 0xd0000002
    14a8:	30312e31 	eorscc	r2, r1, r1, lsr lr
    14ac:	6e69772e 	cdpvs	7, 6, cr7, cr9, cr14, {1}
    14b0:	315f3233 	cmpcc	pc, r3, lsr r2	; <UNPREDICTABLE>
    14b4:	322e302e 	eorcc	r3, lr, #46	; 0x2e
    14b8:	322e3030 	eorcc	r3, lr, #48	; 0x30
    14bc:	30333230 	eorscc	r3, r3, r0, lsr r2
    14c0:	31363131 	teqcc	r6, r1, lsr r1
    14c4:	5c333030 	ldcpl	0, cr3, [r3], #-192	; 0xffffff40
    14c8:	6c6f6f74 	stclvs	15, cr6, [pc], #-464	; 1300 <_Min_Stack_Size+0xf00>
    14cc:	69625c73 	stmdbvs	r2!, {r0, r1, r4, r5, r6, sl, fp, ip, lr}^
    14d0:	2e2e5c6e 	cdpcs	12, 2, cr5, cr14, cr14, {3}
    14d4:	62696c2f 	rsbvs	r6, r9, #12032	; 0x2f00
    14d8:	6363672f 	cmnvs	r3, #12320768	; 0xbc0000
    14dc:	6d72612f 	ldfvse	f6, [r2, #-188]!	; 0xffffff44
    14e0:	6e6f6e2d 	cdpvs	14, 6, cr6, cr15, cr13, {1}
    14e4:	61652d65 	cmnvs	r5, r5, ror #26
    14e8:	312f6962 			; <UNDEFINED> instruction: 0x312f6962
    14ec:	2e332e30 	mrccs	14, 1, r2, cr3, cr0, {1}
    14f0:	2e2e2f31 	mcrcs	15, 1, r2, cr14, cr1, {1}
    14f4:	2f2e2e2f 	svccs	0x002e2e2f
    14f8:	2e2f2e2e 	cdpcs	14, 2, cr2, cr15, cr14, {1}
    14fc:	72612f2e 	rsbvc	r2, r1, #46, 30	; 0xb8
    1500:	6f6e2d6d 	svcvs	0x006e2d6d
    1504:	652d656e 	strvs	r6, [sp, #-1390]!	; 0xfffffa92
    1508:	2f696261 	svccs	0x00696261
    150c:	6c636e69 	stclvs	14, cr6, [r3], #-420	; 0xfffffe5c
    1510:	2f656475 	svccs	0x00656475
    1514:	00737973 	rsbseq	r7, r3, r3, ror r9
    1518:	442f3a44 	strtmi	r3, [pc], #-2628	; 1520 <_Min_Stack_Size+0x1120>
    151c:	65766972 	ldrbvs	r6, [r6, #-2418]!	; 0xfffff68e
    1520:	732f7372 			; <UNDEFINED> instruction: 0x732f7372
    1524:	32336d74 	eorscc	r6, r3, #116, 26	; 0x1d00
    1528:	3031665f 	eorscc	r6, r1, pc, asr r6
    152c:	5f366333 	svcpl	0x00366333
    1530:	76697264 	strbtvc	r7, [r9], -r4, ror #4
    1534:	2f737265 	svccs	0x00737265
    1538:	00636e49 	rsbeq	r6, r3, r9, asr #28
    153c:	655c3a67 	ldrbvs	r3, [ip, #-2663]	; 0xfffff599
    1540:	74732e6e 	ldrbtvc	r2, [r3], #-3694	; 0xfffff192
    1544:	6d74732d 	ldclvs	3, cr7, [r4, #-180]!	; 0xffffff4c
    1548:	75633233 	strbvc	r3, [r3, #-563]!	; 0xfffffdcd
    154c:	64696562 	strbtvs	r6, [r9], #-1378	; 0xfffffa9e
    1550:	2e315f65 	cdpcs	15, 3, cr5, cr1, cr5, {3}
    1554:	5f302e34 	svcpl	0x00302e34
    1558:	31313537 	teqcc	r1, r7, lsr r5
    155c:	3230325f 	eorscc	r3, r0, #-268435451	; 0xf0000005
    1560:	32373030 	eorscc	r3, r7, #48	; 0x30
    1564:	39305f30 	ldmdbcc	r0!, {r4, r5, r8, r9, sl, fp, ip, lr}
    1568:	785f3832 	ldmdavc	pc, {r1, r4, r5, fp, ip, sp}^	; <UNPREDICTABLE>
    156c:	365f3638 			; <UNDEFINED> instruction: 0x365f3638
    1570:	78655f34 	stmdavc	r5!, {r2, r4, r5, r8, r9, sl, fp, ip, lr}^
    1574:	74735c65 	ldrbtvc	r5, [r3], #-3173	; 0xfffff39b
    1578:	6332336d 	teqvs	r2, #-1275068415	; 0xb4000001
    157c:	69656275 	stmdbvs	r5!, {r0, r2, r4, r5, r6, r9, sp, lr}^
    1580:	315f6564 	cmpcc	pc, r4, ror #10
    1584:	302e342e 	eorcc	r3, lr, lr, lsr #8
    1588:	6d74735c 	ldclvs	3, cr7, [r4, #-368]!	; 0xfffffe90
    158c:	75633233 	strbvc	r3, [r3, #-563]!	; 0xfffffdcd
    1590:	64696562 	strbtvs	r6, [r9], #-1378	; 0xfffffa9e
    1594:	6c705c65 	ldclvs	12, cr5, [r0], #-404	; 0xfffffe6c
    1598:	6e696775 	mcrvs	7, 3, r6, cr9, cr5, {3}
    159c:	6f635c73 	svcvs	0x00635c73
    15a0:	74732e6d 	ldrbtvc	r2, [r3], #-3693	; 0xfffff193
    15a4:	6d74732e 	ldclvs	3, cr7, [r4, #-184]!	; 0xffffff48
    15a8:	75633233 	strbvc	r3, [r3, #-563]!	; 0xfffffdcd
    15ac:	692e6562 	stmdbvs	lr!, {r1, r5, r6, r8, sl, sp, lr}
    15b0:	6d2e6564 	cfstr32vs	mvfx6, [lr, #-400]!	; 0xfffffe70
    15b4:	652e7563 	strvs	r7, [lr, #-1379]!	; 0xfffffa9d
    15b8:	72657478 	rsbvc	r7, r5, #120, 8	; 0x78000000
    15bc:	746c616e 	strbtvc	r6, [ip], #-366	; 0xfffffe92
    15c0:	736c6f6f 	cmnvc	ip, #444	; 0x1bc
    15c4:	756e672e 	strbvc	r6, [lr, #-1838]!	; 0xfffff8d2
    15c8:	6f6f742d 	svcvs	0x006f742d
    15cc:	662d736c 	strtvs	r7, [sp], -ip, ror #6
    15d0:	732d726f 			; <UNDEFINED> instruction: 0x732d726f
    15d4:	32336d74 	eorscc	r6, r3, #116, 26	; 0x1d00
    15d8:	2e30312e 	rsfcssp	f3, f0, #0.5
    15dc:	30322d33 	eorscc	r2, r2, r3, lsr sp
    15e0:	312e3132 			; <UNDEFINED> instruction: 0x312e3132
    15e4:	69772e30 	ldmdbvs	r7!, {r4, r5, r9, sl, fp, sp}^
    15e8:	5f32336e 	svcpl	0x0032336e
    15ec:	2e302e31 	mrccs	14, 1, r2, cr0, cr1, {1}
    15f0:	2e303032 	mrccs	0, 1, r3, cr0, cr2, {1}
    15f4:	33323032 	teqcc	r2, #50	; 0x32
    15f8:	36313130 			; <UNDEFINED> instruction: 0x36313130
    15fc:	33303031 	teqcc	r0, #49	; 0x31
    1600:	6f6f745c 	svcvs	0x006f745c
    1604:	625c736c 	subsvs	r7, ip, #108, 6	; 0xb0000001
    1608:	2e5c6e69 	cdpcs	14, 5, cr6, cr12, cr9, {3}
    160c:	696c2f2e 	stmdbvs	ip!, {r1, r2, r3, r5, r8, r9, sl, fp, sp}^
    1610:	63672f62 	cmnvs	r7, #392	; 0x188
    1614:	72612f63 	rsbvc	r2, r1, #396	; 0x18c
    1618:	6f6e2d6d 	svcvs	0x006e2d6d
    161c:	652d656e 	strvs	r6, [sp, #-1390]!	; 0xfffffa92
    1620:	2f696261 	svccs	0x00696261
    1624:	332e3031 			; <UNDEFINED> instruction: 0x332e3031
    1628:	2e2f312e 	sufcsep	f3, f7, #0.5
    162c:	2e2e2f2e 	cdpcs	15, 2, cr2, cr14, cr14, {1}
    1630:	2f2e2e2f 	svccs	0x002e2e2f
    1634:	612f2e2e 			; <UNDEFINED> instruction: 0x612f2e2e
    1638:	6e2d6d72 	mcrvs	13, 1, r6, cr13, cr2, {3}
    163c:	2d656e6f 	stclcs	14, cr6, [r5, #-444]!	; 0xfffffe44
    1640:	69626165 	stmdbvs	r2!, {r0, r2, r5, r6, r8, sp, lr}^
    1644:	636e692f 	cmnvs	lr, #770048	; 0xbc000
    1648:	6564756c 	strbvs	r7, [r4, #-1388]!	; 0xfffffa94
    164c:	5c3a6700 	ldcpl	7, cr6, [sl], #-0
    1650:	732e6e65 			; <UNDEFINED> instruction: 0x732e6e65
    1654:	74732d74 	ldrbtvc	r2, [r3], #-3444	; 0xfffff28c
    1658:	6332336d 	teqvs	r2, #-1275068415	; 0xb4000001
    165c:	69656275 	stmdbvs	r5!, {r0, r2, r4, r5, r6, r9, sp, lr}^
    1660:	315f6564 	cmpcc	pc, r4, ror #10
    1664:	302e342e 	eorcc	r3, lr, lr, lsr #8
    1668:	3135375f 	teqcc	r5, pc, asr r7
    166c:	30325f31 	eorscc	r5, r2, r1, lsr pc
    1670:	37303032 			; <UNDEFINED> instruction: 0x37303032
    1674:	305f3032 	subscc	r3, pc, r2, lsr r0	; <UNPREDICTABLE>
    1678:	5f383239 	svcpl	0x00383239
    167c:	5f363878 	svcpl	0x00363878
    1680:	655f3436 	ldrbvs	r3, [pc, #-1078]	; 1252 <_Min_Stack_Size+0xe52>
    1684:	735c6578 	cmpvc	ip, #120, 10	; 0x1e000000
    1688:	32336d74 	eorscc	r6, r3, #116, 26	; 0x1d00
    168c:	65627563 	strbvs	r7, [r2, #-1379]!	; 0xfffffa9d
    1690:	5f656469 	svcpl	0x00656469
    1694:	2e342e31 	mrccs	14, 1, r2, cr4, cr1, {1}
    1698:	74735c30 	ldrbtvc	r5, [r3], #-3120	; 0xfffff3d0
    169c:	6332336d 	teqvs	r2, #-1275068415	; 0xb4000001
    16a0:	69656275 	stmdbvs	r5!, {r0, r2, r4, r5, r6, r9, sp, lr}^
    16a4:	705c6564 	subsvc	r6, ip, r4, ror #10
    16a8:	6967756c 	stmdbvs	r7!, {r2, r3, r5, r6, r8, sl, ip, sp, lr}^
    16ac:	635c736e 	cmpvs	ip, #-1207959551	; 0xb8000001
    16b0:	732e6d6f 			; <UNDEFINED> instruction: 0x732e6d6f
    16b4:	74732e74 	ldrbtvc	r2, [r3], #-3700	; 0xfffff18c
    16b8:	6332336d 	teqvs	r2, #-1275068415	; 0xb4000001
    16bc:	2e656275 	mcrcs	2, 3, r6, cr5, cr5, {3}
    16c0:	2e656469 	cdpcs	4, 6, cr6, cr5, cr9, {3}
    16c4:	2e75636d 	cdpcs	3, 7, cr6, cr5, cr13, {3}
    16c8:	65747865 	ldrbvs	r7, [r4, #-2149]!	; 0xfffff79b
    16cc:	6c616e72 	stclvs	14, cr6, [r1], #-456	; 0xfffffe38
    16d0:	6c6f6f74 	stclvs	15, cr6, [pc], #-464	; 1508 <_Min_Stack_Size+0x1108>
    16d4:	6e672e73 	mcrvs	14, 3, r2, cr7, cr3, {3}
    16d8:	6f742d75 	svcvs	0x00742d75
    16dc:	2d736c6f 	ldclcs	12, cr6, [r3, #-444]!	; 0xfffffe44
    16e0:	2d726f66 	ldclcs	15, cr6, [r2, #-408]!	; 0xfffffe68
    16e4:	336d7473 	cmncc	sp, #1929379840	; 0x73000000
    16e8:	30312e32 	eorscc	r2, r1, r2, lsr lr
    16ec:	322d332e 	eorcc	r3, sp, #-1207959552	; 0xb8000000
    16f0:	2e313230 	mrccs	2, 1, r3, cr1, cr0, {1}
    16f4:	772e3031 			; <UNDEFINED> instruction: 0x772e3031
    16f8:	32336e69 	eorscc	r6, r3, #1680	; 0x690
    16fc:	302e315f 	eorcc	r3, lr, pc, asr r1
    1700:	3030322e 	eorscc	r3, r0, lr, lsr #4
    1704:	3230322e 	eorscc	r3, r0, #-536870910	; 0xe0000002
    1708:	31313033 	teqcc	r1, r3, lsr r0
    170c:	30303136 	eorscc	r3, r0, r6, lsr r1
    1710:	6f745c33 	svcvs	0x00745c33
    1714:	5c736c6f 	ldclpl	12, cr6, [r3], #-444	; 0xfffffe44
    1718:	2d6d7261 	sfmcs	f7, 2, [sp, #-388]!	; 0xfffffe7c
    171c:	656e6f6e 	strbvs	r6, [lr, #-3950]!	; 0xfffff092
    1720:	6261652d 	rsbvs	r6, r1, #188743680	; 0xb400000
    1724:	6e695c69 	cdpvs	12, 6, cr5, cr9, cr9, {3}
    1728:	64756c63 	ldrbtvs	r6, [r5], #-3171	; 0xfffff39d
    172c:	656e5c65 	strbvs	r5, [lr, #-3173]!	; 0xfffff39b
    1730:	62696c77 	rsbvs	r6, r9, #30464	; 0x7700
    1734:	6e616e2d 	cdpvs	14, 6, cr6, cr1, cr13, {1}
    1738:	3a67006f 	bcc	19c18fc <_Min_Stack_Size+0x19c14fc>
    173c:	2e6e655c 	mcrcs	5, 3, r6, cr14, cr12, {2}
    1740:	732d7473 			; <UNDEFINED> instruction: 0x732d7473
    1744:	32336d74 	eorscc	r6, r3, #116, 26	; 0x1d00
    1748:	65627563 	strbvs	r7, [r2, #-1379]!	; 0xfffffa9d
    174c:	5f656469 	svcpl	0x00656469
    1750:	2e342e31 	mrccs	14, 1, r2, cr4, cr1, {1}
    1754:	35375f30 	ldrcc	r5, [r7, #-3888]!	; 0xfffff0d0
    1758:	325f3131 	subscc	r3, pc, #1073741836	; 0x4000000c
    175c:	30303230 	eorscc	r3, r0, r0, lsr r2
    1760:	5f303237 	svcpl	0x00303237
    1764:	38323930 	ldmdacc	r2!, {r4, r5, r8, fp, ip, sp}
    1768:	3638785f 			; <UNDEFINED> instruction: 0x3638785f
    176c:	5f34365f 	svcpl	0x0034365f
    1770:	5c657865 	stclpl	8, cr7, [r5], #-404	; 0xfffffe6c
    1774:	336d7473 	cmncc	sp, #1929379840	; 0x73000000
    1778:	62756332 	rsbsvs	r6, r5, #-939524096	; 0xc8000000
    177c:	65646965 	strbvs	r6, [r4, #-2405]!	; 0xfffff69b
    1780:	342e315f 	strtcc	r3, [lr], #-351	; 0xfffffea1
    1784:	735c302e 	cmpvc	ip, #46	; 0x2e
    1788:	32336d74 	eorscc	r6, r3, #116, 26	; 0x1d00
    178c:	65627563 	strbvs	r7, [r2, #-1379]!	; 0xfffffa9d
    1790:	5c656469 	cfstrdpl	mvd6, [r5], #-420	; 0xfffffe5c
    1794:	67756c70 			; <UNDEFINED> instruction: 0x67756c70
    1798:	5c736e69 	ldclpl	14, cr6, [r3], #-420	; 0xfffffe5c
    179c:	2e6d6f63 	cdpcs	15, 6, cr6, cr13, cr3, {3}
    17a0:	732e7473 			; <UNDEFINED> instruction: 0x732e7473
    17a4:	32336d74 	eorscc	r6, r3, #116, 26	; 0x1d00
    17a8:	65627563 	strbvs	r7, [r2, #-1379]!	; 0xfffffa9d
    17ac:	6564692e 	strbvs	r6, [r4, #-2350]!	; 0xfffff6d2
    17b0:	75636d2e 	strbvc	r6, [r3, #-3374]!	; 0xfffff2d2
    17b4:	7478652e 	ldrbtvc	r6, [r8], #-1326	; 0xfffffad2
    17b8:	616e7265 	cmnvs	lr, r5, ror #4
    17bc:	6f6f746c 	svcvs	0x006f746c
    17c0:	672e736c 	strvs	r7, [lr, -ip, ror #6]!
    17c4:	742d756e 	strtvc	r7, [sp], #-1390	; 0xfffffa92
    17c8:	736c6f6f 	cmnvc	ip, #444	; 0x1bc
    17cc:	726f662d 	rsbvc	r6, pc, #47185920	; 0x2d00000
    17d0:	6d74732d 	ldclvs	3, cr7, [r4, #-180]!	; 0xffffff4c
    17d4:	312e3233 			; <UNDEFINED> instruction: 0x312e3233
    17d8:	2d332e30 	ldccs	14, cr2, [r3, #-192]!	; 0xffffff40
    17dc:	31323032 	teqcc	r2, r2, lsr r0
    17e0:	2e30312e 	rsfcssp	f3, f0, #0.5
    17e4:	336e6977 	cmncc	lr, #1949696	; 0x1dc000
    17e8:	2e315f32 	mrccs	15, 1, r5, cr1, cr2, {1}
    17ec:	30322e30 	eorscc	r2, r2, r0, lsr lr
    17f0:	30322e30 	eorscc	r2, r2, r0, lsr lr
    17f4:	31303332 	teqcc	r0, r2, lsr r3
    17f8:	30313631 	eorscc	r3, r1, r1, lsr r6
    17fc:	745c3330 	ldrbvc	r3, [ip], #-816	; 0xfffffcd0
    1800:	736c6f6f 	cmnvc	ip, #444	; 0x1bc
    1804:	62696c5c 	rsbvs	r6, r9, #92, 24	; 0x5c00
    1808:	6363675c 	cmnvs	r3, #92, 14	; 0x1700000
    180c:	6d72615c 	ldfvse	f6, [r2, #-368]!	; 0xfffffe90
    1810:	6e6f6e2d 	cdpvs	14, 6, cr6, cr15, cr13, {1}
    1814:	61652d65 	cmnvs	r5, r5, ror #26
    1818:	315c6962 	cmpcc	ip, r2, ror #18
    181c:	2e332e30 	mrccs	14, 1, r2, cr3, cr0, {1}
    1820:	6e695c31 	mcrvs	12, 3, r5, cr9, cr1, {1}
    1824:	64756c63 	ldrbtvs	r6, [r5], #-3171	; 0xfffff39d
    1828:	73000065 	movwvc	r0, #101	; 0x65
    182c:	32336d74 	eorscc	r6, r3, #116, 26	; 0x1d00
    1830:	3031665f 	eorscc	r6, r1, pc, asr r6
    1834:	5f366333 	svcpl	0x00366333
    1838:	76697264 	strbtvc	r7, [r9], -r4, ror #4
    183c:	5f737265 	svcpl	0x00737265
    1840:	6f697067 	svcvs	0x00697067
    1844:	0100632e 	tsteq	r0, lr, lsr #6
    1848:	645f0000 	ldrbvs	r0, [pc], #-0	; 1850 <_Min_Stack_Size+0x1450>
    184c:	75616665 	strbvc	r6, [r1, #-1637]!	; 0xfffff99b
    1850:	745f746c 	ldrbvc	r7, [pc], #-1132	; 1858 <_Min_Stack_Size+0x1458>
    1854:	73657079 	cmnvc	r5, #121	; 0x79
    1858:	0200682e 	andeq	r6, r0, #3014656	; 0x2e0000
    185c:	735f0000 	cmpvc	pc, #0
    1860:	6e696474 	mcrvs	4, 3, r6, cr9, cr4, {3}
    1864:	00682e74 	rsbeq	r2, r8, r4, ror lr
    1868:	73000003 	movwvc	r0, #3
    186c:	32336d74 	eorscc	r6, r3, #116, 26	; 0x1d00
    1870:	3031665f 	eorscc	r6, r1, pc, asr r6
    1874:	2e367833 	mrccs	8, 1, r7, cr6, cr3, {1}
    1878:	00040068 	andeq	r0, r4, r8, rrx
    187c:	6d747300 	ldclvs	3, cr7, [r4, #-0]
    1880:	665f3233 			; <UNDEFINED> instruction: 0x665f3233
    1884:	63333031 	teqvs	r3, #49	; 0x31
    1888:	72645f36 	rsbvc	r5, r4, #54, 30	; 0xd8
    188c:	72657669 	rsbvc	r7, r5, #110100480	; 0x6900000
    1890:	50475f73 	subpl	r5, r7, r3, ror pc
    1894:	682e4f49 	stmdavs	lr!, {r0, r3, r6, r8, r9, sl, fp, lr}
    1898:	00000400 	andeq	r0, r0, r0, lsl #8
    189c:	6c647473 	cfstrdvs	mvd7, [r4], #-460	; 0xfffffe34
    18a0:	682e6269 	stmdavs	lr!, {r0, r3, r5, r6, r9, sp, lr}
    18a4:	00000500 	andeq	r0, r0, r0, lsl #10
    18a8:	65656569 	strbvs	r6, [r5, #-1385]!	; 0xfffffa97
    18ac:	682e7066 	stmdavs	lr!, {r1, r2, r5, r6, ip, sp, lr}
    18b0:	00000200 	andeq	r0, r0, r0, lsl #4
    18b4:	736e615f 	cmnvc	lr, #-1073741801	; 0xc0000017
    18b8:	00682e69 	rsbeq	r2, r8, r9, ror #28
    18bc:	6e000005 	cdpvs	0, 0, cr0, cr0, cr5, {0}
    18c0:	696c7765 	stmdbvs	ip!, {r0, r2, r5, r6, r8, r9, sl, ip, sp, lr}^
    18c4:	00682e62 	rsbeq	r2, r8, r2, ror #28
    18c8:	5f000006 	svcpl	0x00000006
    18cc:	6c77656e 	cfldr64vs	mvdx6, [r7], #-440	; 0xfffffe48
    18d0:	765f6269 	ldrbvc	r6, [pc], -r9, ror #4
    18d4:	69737265 	ldmdbvs	r3!, {r0, r2, r5, r6, r9, ip, sp, lr}^
    18d8:	682e6e6f 	stmdavs	lr!, {r0, r1, r2, r3, r5, r6, r9, sl, fp, sp, lr}
    18dc:	00000500 	andeq	r0, r0, r0, lsl #10
    18e0:	666e6f63 	strbtvs	r6, [lr], -r3, ror #30
    18e4:	682e6769 	stmdavs	lr!, {r0, r3, r5, r6, r8, r9, sl, sp, lr}
    18e8:	00000300 	andeq	r0, r0, r0, lsl #6
    18ec:	74616566 	strbtvc	r6, [r1], #-1382	; 0xfffffa9a
    18f0:	73657275 	cmnvc	r5, #1342177287	; 0x50000007
    18f4:	0300682e 	movweq	r6, #2094	; 0x82e
    18f8:	74730000 	ldrbtvc	r0, [r3], #-0
    18fc:	66656464 	strbtvs	r6, [r5], -r4, ror #8
    1900:	0700682e 	streq	r6, [r0, -lr, lsr #16]
    1904:	65720000 	ldrbvs	r0, [r2, #-0]!
    1908:	2e746e65 	cdpcs	14, 7, cr6, cr4, cr5, {3}
    190c:	00030068 	andeq	r0, r3, r8, rrx
    1910:	79745f00 	ldmdbvc	r4!, {r8, r9, sl, fp, ip, lr}^
    1914:	2e736570 	mrccs	5, 3, r6, cr3, cr0, {3}
    1918:	00030068 	andeq	r0, r3, r8, rrx
    191c:	79745f00 	ldmdbvc	r4!, {r8, r9, sl, fp, ip, lr}^
    1920:	2e736570 	mrccs	5, 3, r6, cr3, cr0, {3}
    1924:	00020068 	andeq	r0, r2, r8, rrx
    1928:	636f6c00 	cmnvs	pc, #0, 24
    192c:	00682e6b 	rsbeq	r2, r8, fp, ror #28
    1930:	61000003 	tstvs	r0, r3
    1934:	72657373 	rsbvc	r7, r5, #-872415231	; 0xcc000001
    1938:	00682e74 	rsbeq	r2, r8, r4, ror lr
    193c:	63000005 	movwvs	r0, #5
    1940:	73666564 	cmnvc	r6, #100, 10	; 0x19000000
    1944:	0300682e 	movweq	r6, #2094	; 0x82e
    1948:	74730000 	ldrbtvc	r0, [r3], #-0
    194c:	62696c64 	rsbvs	r6, r9, #100, 24	; 0x6400
    1950:	0200682e 	andeq	r6, r0, #3014656	; 0x2e0000
    1954:	6c610000 	stclvs	0, cr0, [r1], #-0
    1958:	61636f6c 	cmnvs	r3, ip, ror #30
    195c:	0500682e 	streq	r6, [r0, #-2094]	; 0xfffff7d2
    1960:	74730000 	ldrbtvc	r0, [r3], #-0
    1964:	746e6964 	strbtvc	r6, [lr], #-2404	; 0xfffff69c
    1968:	0700682e 	streq	r6, [r0, -lr, lsr #16]
    196c:	74730000 	ldrbtvc	r0, [r3], #-0
    1970:	746e6964 	strbtvc	r6, [lr], #-2404	; 0xfffff69c
    1974:	0500682e 	streq	r6, [r0, #-2094]	; 0xfffff7d2
    1978:	695f0000 	ldmdbvs	pc, {}^	; <UNPREDICTABLE>
    197c:	7573746e 	ldrbvc	r7, [r3, #-1134]!	; 0xfffffb92
    1980:	00682e70 	rsbeq	r2, r8, r0, ror lr
    1984:	00000003 	andeq	r0, r0, r3
    1988:	05000105 	streq	r0, [r0, #-261]	; 0xfffffefb
    198c:	0007f402 	andeq	pc, r7, r2, lsl #8
    1990:	01170308 	tsteq	r7, r8, lsl #6
    1994:	05590205 	ldrbeq	r0, [r9, #-517]	; 0xfffffdfb
    1998:	018c020a 	orreq	r0, ip, sl, lsl #4
    199c:	31313115 	teqcc	r1, r5, lsl r1
    19a0:	31313131 	teqcc	r1, r1, lsr r1
    19a4:	31313131 	teqcc	r1, r1, lsr r1
    19a8:	31313131 	teqcc	r1, r1, lsr r1
    19ac:	05310905 	ldreq	r0, [r1, #-2309]!	; 0xfffff6fb
    19b0:	05022101 	streq	r2, [r2, #-257]	; 0xfffffeff
    19b4:	05010100 	streq	r0, [r1, #-256]	; 0xffffff00
    19b8:	02050001 	andeq	r0, r5, #1
    19bc:	08000964 	stmdaeq	r0, {r2, r5, r6, r8, fp}
    19c0:	0100d103 	tsteq	r0, r3, lsl #2
    19c4:	05591605 	ldrbeq	r1, [r9, #-1541]	; 0xfffff9fb
    19c8:	1e052f0a 	cdpne	15, 0, cr2, cr5, cr10, {0}
    19cc:	2e4d052f 	cdpcs	5, 4, cr0, cr13, cr15, {1}
    19d0:	01040200 	mrseq	r0, R12_usr
    19d4:	02002e06 	andeq	r2, r0, #6, 28	; 0x60
    19d8:	052e0204 	streq	r0, [lr, #-516]!	; 0xfffffdfc
    19dc:	04020011 	streq	r0, [r2], #-17	; 0xffffffef
    19e0:	052e0604 	streq	r0, [lr, #-1540]!	; 0xfffff9fc
    19e4:	04020020 	streq	r0, [r2], #-32	; 0xffffffe0
    19e8:	1c052304 	stcne	3, cr2, [r5], {4}
    19ec:	04040200 	streq	r0, [r4], #-512	; 0xfffffe00
    19f0:	00160574 	andseq	r0, r6, r4, ror r5
    19f4:	2e040402 	cdpcs	4, 0, cr0, cr4, cr2, {0}
    19f8:	02001305 	andeq	r1, r0, #335544320	; 0x14000000
    19fc:	05200404 	streq	r0, [r0, #-1028]!	; 0xfffffbfc
    1a00:	0402000f 	streq	r0, [r2], #-15
    1a04:	04055b04 	streq	r5, [r5], #-2820	; 0xfffff4fc
    1a08:	04040200 	streq	r0, [r4], #-512	; 0xfffffe00
    1a0c:	003f052e 	eorseq	r0, pc, lr, lsr #10
    1a10:	2e010402 	cdpcs	4, 0, cr0, cr1, cr2, {0}
    1a14:	02003305 	andeq	r3, r0, #335544320	; 0x14000000
    1a18:	052e0104 	streq	r0, [lr, #-260]!	; 0xfffffefc
    1a1c:	0402006e 	streq	r0, [r2], #-110	; 0xffffff92
    1a20:	62052e02 	andvs	r2, r5, #2, 28
    1a24:	02040200 	andeq	r0, r4, #0, 4
    1a28:	01a0052e 	lsreq	r0, lr, #10
    1a2c:	03040200 	movweq	r0, #16896	; 0x4200
    1a30:	0194052e 	orrseq	r0, r4, lr, lsr #10
    1a34:	03040200 	movweq	r0, #16896	; 0x4200
    1a38:	311d052e 	tstcc	sp, lr, lsr #10
    1a3c:	052e2905 	streq	r2, [lr, #-2309]!	; 0xfffff6fb
    1a40:	3305202e 	movwcc	r2, #20526	; 0x502e
    1a44:	20400520 	subcs	r0, r0, r0, lsr #10
    1a48:	053c5605 	ldreq	r5, [ip, #-1541]!	; 0xfffff9fb
    1a4c:	0e053c33 	mcreq	12, 0, r3, cr5, cr3, {1}
    1a50:	3611052e 	ldrcc	r0, [r1], -lr, lsr #10
    1a54:	052e0505 	streq	r0, [lr, #-1285]!	; 0xfffffafb
    1a58:	0402003f 	streq	r0, [r2], #-63	; 0xffffffc1
    1a5c:	32052e01 	andcc	r2, r5, #1, 28
    1a60:	01040200 	mrseq	r0, R12_usr
    1a64:	301d052e 	andscc	r0, sp, lr, lsr #10
    1a68:	052e0f05 	streq	r0, [lr, #-3845]!	; 0xfffff0fb
    1a6c:	0a053f15 	beq	1516c8 <_Min_Stack_Size+0x1512c8>
    1a70:	300f052e 	andcc	r0, pc, lr, lsr #10
    1a74:	2f100541 	svccs	0x00100541
    1a78:	052e0605 	streq	r0, [lr, #-1541]!	; 0xfffff9fb
    1a7c:	1c053110 	stfnes	f3, [r5], {16}
    1a80:	2e10052e 	cfmul64cs	mvdx0, mvdx0, mvdx14
    1a84:	2e1e054d 	cfmac32cs	mvfx0, mvfx14, mvfx13
    1a88:	052e1305 	streq	r1, [lr, #-773]!	; 0xfffffcfb
    1a8c:	26052010 			; <UNDEFINED> instruction: 0x26052010
    1a90:	20290541 	eorcs	r0, r9, r1, asr #10
    1a94:	05662605 	strbeq	r2, [r6, #-1541]!	; 0xfffff9fb
    1a98:	01052e14 	tsteq	r5, r4, lsl lr
    1a9c:	0004025a 	andeq	r0, r4, sl, asr r2
    1aa0:	01050101 	tsteq	r5, r1, lsl #2
    1aa4:	00020500 	andeq	r0, r2, r0, lsl #10
    1aa8:	03000000 	movweq	r0, #0
    1aac:	0501018b 	streq	r0, [r1, #-395]	; 0xfffffe75
    1ab0:	11054b04 	tstne	r5, r4, lsl #22
    1ab4:	0405674b 	streq	r6, [r5], #-1867	; 0xfffff8b5
    1ab8:	4b110569 	blmi	443064 <_Min_Stack_Size+0x442c64>
    1abc:	69040567 	stmdbvs	r4, {r0, r1, r2, r5, r6, r8, sl}
    1ac0:	674b1105 	strbvs	r1, [fp, -r5, lsl #2]
    1ac4:	05690405 	strbeq	r0, [r9, #-1029]!	; 0xfffffbfb
    1ac8:	05674b11 	strbeq	r4, [r7, #-2833]!	; 0xfffff4ef
    1acc:	11056904 	tstne	r5, r4, lsl #18
    1ad0:	0105674b 	tsteq	r5, fp, asr #14
    1ad4:	00120268 	andseq	r0, r2, r8, ror #4
    1ad8:	01050101 	tsteq	r5, r1, lsl #2
    1adc:	00020500 	andeq	r0, r2, r0, lsl #10
    1ae0:	03000000 	movweq	r0, #0
    1ae4:	050101b2 	streq	r0, [r1, #-434]	; 0xfffffe4e
    1ae8:	1205680c 	andne	r6, r5, #12, 16	; 0xc0000
    1aec:	2e04052e 	cfsh32cs	mvfx0, mvfx4, #30
    1af0:	3e2f0d05 	cdpcc	13, 2, cr0, cr15, cr5, {0}
    1af4:	05310905 	ldreq	r0, [r1, #-2309]!	; 0xfffff6fb
    1af8:	05022101 	streq	r2, [r2, #-257]	; 0xfffffeff
    1afc:	05010100 	streq	r0, [r1, #-256]	; 0xffffff00
    1b00:	02050001 	andeq	r0, r5, #1
    1b04:	00000000 	andeq	r0, r0, r0
    1b08:	0101c903 	tsteq	r1, r3, lsl #18
    1b0c:	054c1e05 	strbeq	r1, [ip, #-3589]	; 0xfffff1fb
    1b10:	09052e0c 	stmdbeq	r5, {r2, r3, r9, sl, fp, sp}
    1b14:	21010521 	tstcs	r1, r1, lsr #10
    1b18:	01000502 	tsteq	r0, r2, lsl #10
    1b1c:	00010501 	andeq	r0, r1, r1, lsl #10
    1b20:	00000205 	andeq	r0, r0, r5, lsl #4
    1b24:	dc030000 	stcle	0, cr0, [r3], {-0}
    1b28:	0f050101 	svceq	0x00050101
    1b2c:	200d0567 	andcs	r0, sp, r7, ror #10
    1b30:	022f0105 	eoreq	r0, pc, #1073741825	; 0x40000001
    1b34:	01010005 	tsteq	r1, r5
    1b38:	05000105 	streq	r0, [r0, #-261]	; 0xfffffefb
    1b3c:	00000002 	andeq	r0, r0, r2
    1b40:	01eb0300 	mvneq	r0, r0, lsl #6
    1b44:	83040501 	movwhi	r0, #17665	; 0x4501
    1b48:	05441005 	strbeq	r1, [r4, #-5]
    1b4c:	0105200f 	tsteq	r5, pc
    1b50:	052e0903 	streq	r0, [lr, #-2307]!	; 0xfffff6fd
    1b54:	0e051e0f 	cdpeq	14, 0, cr1, cr5, cr15, {0}
    1b58:	30010520 	andcc	r0, r1, r0, lsr #10
    1b5c:	01000502 	tsteq	r0, r2, lsl #10
    1b60:	00010501 	andeq	r0, r1, r1, lsl #10
    1b64:	00000205 	andeq	r0, r0, r5, lsl #4
    1b68:	8a030000 	bhi	c1b70 <_Min_Stack_Size+0xc1770>
    1b6c:	0d050102 	stfeqs	f0, [r5, #-8]
    1b70:	67010567 	strvs	r0, [r1, -r7, ror #10]
    1b74:	01000502 	tsteq	r0, r2, lsl #10
    1b78:	Address 0x0000000000001b78 is out of bounds.


Disassembly of section .debug_str:

00000000 <.debug_str>:
       0:	4e475f5f 	mcrmi	15, 2, r5, cr7, cr15, {2}
       4:	494c4355 	stmdbmi	ip, {r0, r2, r4, r6, r8, r9, lr}^
       8:	5f5f454b 	svcpl	0x005f454b
       c:	4345535f 	movtmi	r5, #21343	; 0x535f
      10:	4e4f4954 			; <UNDEFINED> instruction: 0x4e4f4954
      14:	5f003120 	svcpl	0x00003120
      18:	5858475f 	ldmdapl	r8, {r0, r1, r2, r3, r4, r6, r8, r9, sl, lr}^
      1c:	5059545f 	subspl	r5, r9, pc, asr r4
      20:	464e4945 	strbmi	r4, [lr], -r5, asr #18
      24:	51455f4f 	cmppl	r5, pc, asr #30
      28:	494c4155 	stmdbmi	ip, {r0, r2, r4, r6, r8, lr}^
      2c:	495f5954 	ldmdbmi	pc, {r2, r4, r6, r8, fp, ip, lr}^	; <UNPREDICTABLE>
      30:	4e494c4e 	cdpmi	12, 4, cr4, cr9, cr14, {2}
      34:	00302045 	eorseq	r2, r0, r5, asr #32
      38:	544e4957 	strbpl	r4, [lr], #-2391	; 0xfffff6a9
      3c:	4e494d5f 	mcrmi	13, 2, r4, cr9, cr15, {2}
      40:	5f5f2820 	svcpl	0x005f2820
      44:	544e4957 	strbpl	r4, [lr], #-2391	; 0xfffff6a9
      48:	4e494d5f 	mcrmi	13, 2, r4, cr9, cr15, {2}
      4c:	00295f5f 	eoreq	r5, r9, pc, asr pc
      50:	45445f5f 	strbmi	r5, [r4, #-3935]	; 0xfffff0a1
      54:	414d4943 	cmpmi	sp, r3, asr #18
      58:	49445f4c 	stmdbmi	r4, {r2, r3, r6, r8, r9, sl, fp, ip, lr}^
      5c:	205f5f47 	subscs	r5, pc, r7, asr #30
      60:	5f003731 	svcpl	0x00003731
      64:	4148555f 	cmpmi	r8, pc, asr r5
      68:	4942465f 	stmdbmi	r2, {r0, r1, r2, r3, r4, r6, r9, sl, lr}^
      6c:	205f5f54 	subscs	r5, pc, r4, asr pc	; <UNPREDICTABLE>
      70:	5f5f0038 	svcpl	0x005f0038
      74:	44495653 	strbmi	r5, [r9], #-1619	; 0xfffff9ad
      78:	5349565f 	movtpl	r5, #38495	; 0x965f
      7c:	454c4249 	strbmi	r4, [ip, #-585]	; 0xfffffdb7
      80:	5f003120 	svcpl	0x00003120
      84:	746e695f 	strbtvc	r6, [lr], #-2399	; 0xfffff6a1
      88:	2b203032 	blcs	80c158 <_Min_Stack_Size+0x80bd58>
      8c:	5f5f0032 	svcpl	0x005f0032
      90:	36544c46 	ldrbcc	r4, [r4], -r6, asr #24
      94:	45445f34 	strbmi	r5, [r4, #-3892]	; 0xfffff0cc
      98:	4d524f4e 	ldclmi	15, cr4, [r2, #-312]	; 0xfffffec8
      9c:	4e494d5f 	mcrmi	13, 2, r4, cr9, cr15, {2}
      a0:	34205f5f 	strtcc	r5, [r0], #-3935	; 0xfffff0a1
      a4:	3034392e 	eorscc	r3, r4, lr, lsr #18
      a8:	34363536 	ldrtcc	r3, [r6], #-1334	; 0xfffffaca
      ac:	31343835 	teqcc	r4, r5, lsr r8
      b0:	35363432 	ldrcc	r3, [r6, #-1074]!	; 0xfffffbce
      b4:	332d6534 			; <UNDEFINED> instruction: 0x332d6534
      b8:	36463432 			; <UNDEFINED> instruction: 0x36463432
      bc:	50470034 	subpl	r0, r7, r4, lsr r0
      c0:	505f4f49 	subspl	r4, pc, r9, asr #30
      c4:	6d5f4e49 	ldclvs	14, cr4, [pc, #-292]	; ffffffa8 <_estack+0xdfffd7a8>
      c8:	206b7361 	rsbcs	r7, fp, r1, ror #6
      cc:	30307830 	eorscc	r7, r0, r0, lsr r8
      d0:	46463030 			; <UNDEFINED> instruction: 0x46463030
      d4:	00754646 	rsbseq	r4, r5, r6, asr #12
      d8:	43475f5f 	movtmi	r5, #32607	; 0x7f5f
      dc:	54415f43 	strbpl	r5, [r1], #-3907	; 0xfffff0bd
      e0:	43494d4f 	movtmi	r4, #40271	; 0x9d4f
      e4:	4843575f 	stmdami	r3, {r0, r1, r2, r3, r4, r6, r8, r9, sl, ip, lr}^
      e8:	545f5241 	ldrbpl	r5, [pc], #-577	; f0 <_Min_Heap_Size-0x110>
      ec:	434f4c5f 	movtmi	r4, #64607	; 0xfc5f
      f0:	52465f4b 	subpl	r5, r6, #300	; 0x12c
      f4:	32204545 	eorcc	r4, r0, #289406976	; 0x11400000
      f8:	435f5f00 	cmpmi	pc, #0, 30
      fc:	5f524148 	svcpl	0x00524148
     100:	49534e55 	ldmdbmi	r3, {r0, r2, r4, r6, r9, sl, fp, lr}^
     104:	44454e47 	strbmi	r4, [r5], #-3655	; 0xfffff1b9
     108:	31205f5f 			; <UNDEFINED> instruction: 0x31205f5f
     10c:	775f5f00 	ldrbvc	r5, [pc, -r0, lsl #30]
     110:	5f6b6165 	svcpl	0x006b6165
     114:	626d7973 	rsbvs	r7, sp, #1884160	; 0x1cc000
     118:	5f206c6f 	svcpl	0x00206c6f
     11c:	7474615f 	ldrbtvc	r6, [r4], #-351	; 0xfffffea1
     120:	75626972 	strbvc	r6, [r2, #-2418]!	; 0xfffff68e
     124:	5f5f6574 	svcpl	0x005f6574
     128:	5f5f2828 	svcpl	0x005f2828
     12c:	6b616577 	blvs	1859710 <_Min_Stack_Size+0x1859310>
     130:	29295f5f 	stmdbcs	r9!, {r0, r1, r2, r3, r4, r6, r8, r9, sl, fp, ip, lr}
     134:	41535500 	cmpmi	r3, r0, lsl #10
     138:	20325452 	eorscs	r5, r2, r2, asr r4
     13c:	53552828 	cmppl	r5, #40, 16	; 0x280000
     140:	5f545241 	svcpl	0x00545241
     144:	65707954 	ldrbvs	r7, [r0, #-2388]!	; 0xfffff6ac
     148:	5f666564 	svcpl	0x00666564
     14c:	292a2074 	stmdbcs	sl!, {r2, r4, r5, r6, sp}
     150:	52415355 	subpl	r5, r1, #1409286145	; 0x54000001
     154:	425f3254 	subsmi	r3, pc, #84, 4	; 0x40000005
     158:	29455341 	stmdbcs	r5, {r0, r6, r8, r9, ip, lr}^
     15c:	465f5f00 	ldrbmi	r5, [pc], -r0, lsl #30
     160:	3436544c 	ldrtcc	r5, [r6], #-1100	; 0xfffffbb4
     164:	5341485f 	movtpl	r4, #6239	; 0x185f
     168:	464e495f 			; <UNDEFINED> instruction: 0x464e495f
     16c:	54494e49 	strbpl	r4, [r9], #-3657	; 0xfffff1b7
     170:	205f5f59 	subscs	r5, pc, r9, asr pc	; <UNPREDICTABLE>
     174:	53550031 	cmppl	r5, #49	; 0x31
     178:	33545241 	cmpcc	r4, #268435460	; 0x10000004
     17c:	5341425f 	movtpl	r4, #4703	; 0x125f
     180:	78302045 	ldmdavc	r0!, {r0, r2, r6, sp}
     184:	30303034 	eorscc	r3, r0, r4, lsr r0
     188:	30303434 	eorscc	r3, r0, r4, lsr r4
     18c:	5f5f0075 	svcpl	0x005f0075
     190:	75716572 	ldrbvc	r6, [r1, #-1394]!	; 0xfffffa8e
     194:	73657269 	cmnvc	r5, #-1879048186	; 0x90000006
     198:	6378655f 	cmnvs	r8, #398458880	; 0x17c00000
     19c:	6973756c 	ldmdbvs	r3!, {r2, r3, r5, r6, r8, sl, ip, sp, lr}^
     1a0:	2e286576 	mcrcs	5, 1, r6, cr8, cr6, {3}
     1a4:	20292e2e 	eorcs	r2, r9, lr, lsr #28
     1a8:	6f6c5f5f 	svcvs	0x006c5f5f
     1ac:	615f6b63 	cmpvs	pc, r3, ror #22
     1b0:	746f6e6e 	strbtvc	r6, [pc], #-3694	; 1b8 <_Min_Heap_Size-0x48>
     1b4:	28657461 	stmdacs	r5!, {r0, r5, r6, sl, ip, sp, lr}^
     1b8:	6c637865 	stclvs	8, cr7, [r3], #-404	; 0xfffffe6c
     1bc:	76697375 			; <UNDEFINED> instruction: 0x76697375
     1c0:	6f6c5f65 	svcvs	0x006c5f65
     1c4:	5f736b63 	svcpl	0x00736b63
     1c8:	75716572 	ldrbvc	r6, [r1, #-1394]!	; 0xfffffa8e
     1cc:	64657269 	strbtvs	r7, [r5], #-617	; 0xfffffd97
     1d0:	565f5f28 	ldrbpl	r5, [pc], -r8, lsr #30
     1d4:	52415f41 	subpl	r5, r1, #260	; 0x104
     1d8:	5f5f5347 	svcpl	0x005f5347
     1dc:	5f002929 	svcpl	0x00002929
     1e0:	4e454552 	mcrmi	5, 2, r4, cr5, cr2, {2}
     1e4:	41525f54 	cmpmi	r2, r4, asr pc
     1e8:	3834444e 	ldmdacc	r4!, {r1, r2, r3, r6, sl, lr}
     1ec:	4444415f 	strbmi	r4, [r4], #-351	; 0xfffffea1
     1f0:	72747028 	rsbsvc	r7, r4, #40	; 0x28
     1f4:	28282029 	stmdacs	r8!, {r0, r3, r5, sp}
     1f8:	29727470 	ldmdbcs	r2!, {r4, r5, r6, sl, ip, sp, lr}^
     1fc:	725f3e2d 	subsvc	r3, pc, #720	; 0x2d0
     200:	3e2d3834 	mcrcc	8, 1, r3, cr13, cr4, {1}
     204:	6464615f 	strbtvs	r6, [r4], #-351	; 0xfffffea1
     208:	4e490029 	cdpmi	0, 4, cr0, cr9, cr9, {1}
     20c:	5f363154 	svcpl	0x00363154
     210:	204e494d 	subcs	r4, lr, sp, asr #18
     214:	5f5f2d28 	svcpl	0x005f2d28
     218:	31544e49 	cmpcc	r4, r9, asr #28
     21c:	414d5f36 	cmpmi	sp, r6, lsr pc
     220:	205f5f58 	subscs	r5, pc, r8, asr pc	; <UNPREDICTABLE>
     224:	2931202d 	ldmdbcs	r1!, {r0, r2, r3, r5, sp}
     228:	4c5f5f00 	mrrcmi	15, 0, r5, pc, cr0	; <UNPREDICTABLE>
     22c:	4343414c 	movtmi	r4, #12620	; 0x314c
     230:	4d5f4d55 	ldclmi	13, cr4, [pc, #-340]	; e4 <_Min_Heap_Size-0x11c>
     234:	5f5f4e49 	svcpl	0x005f4e49
     238:	302d2820 	eorcc	r2, sp, r0, lsr #16
     23c:	33503158 	cmpcc	r0, #88, 2
     240:	4b4c4c31 	blmi	131330c <_Min_Stack_Size+0x1312f0c>
     244:	3158302d 	cmpcc	r8, sp, lsr #32
     248:	4c313350 	ldcmi	3, cr3, [r1], #-320	; 0xfffffec0
     24c:	00294b4c 	eoreq	r4, r9, ip, asr #22
     250:	54524f43 	ldrbpl	r4, [r2], #-3907	; 0xfffff0bd
     254:	4d5f5845 	ldclmi	8, cr5, [pc, #-276]	; 148 <_Min_Heap_Size-0xb8>
     258:	4e495f33 	mcrmi	15, 2, r5, cr9, cr3, {1}
     25c:	4e524554 	mrcmi	5, 2, r4, cr2, cr4, {2}
     260:	505f4c41 	subspl	r4, pc, r1, asr #24
     264:	50495245 	subpl	r5, r9, r5, asr #4
     268:	41524548 	cmpmi	r2, r8, asr #10
     26c:	425f534c 	subsmi	r5, pc, #76, 6	; 0x30000001
     270:	20455341 	subcs	r5, r5, r1, asr #6
     274:	30457830 	subcc	r7, r5, r0, lsr r8
     278:	30303030 	eorscc	r3, r0, r0, lsr r0
     27c:	00753030 	rsbseq	r3, r5, r0, lsr r0
     280:	4f4c5f5f 	svcmi	0x004c5f5f
     284:	495f4b43 	ldmdbmi	pc, {r0, r1, r6, r8, r9, fp, lr}^	; <UNPREDICTABLE>
     288:	2854494e 	ldmdacs	r4, {r1, r2, r3, r6, r8, fp, lr}^
     28c:	73616c63 	cmnvc	r1, #25344	; 0x6300
     290:	6f6c2c73 	svcvs	0x006c2c73
     294:	20296b63 	eorcs	r6, r9, r3, ror #22
     298:	65747865 	ldrbvs	r7, [r4, #-2149]!	; 0xfffff79b
     29c:	73206e72 			; <UNDEFINED> instruction: 0x73206e72
     2a0:	63757274 	cmnvs	r5, #116, 4	; 0x40000007
     2a4:	5f5f2074 	svcpl	0x005f2074
     2a8:	6b636f6c 	blvs	18dc060 <_Min_Stack_Size+0x18dbc60>
     2ac:	6c5f5f20 	mrrcvs	15, 2, r5, pc, cr0	; <UNPREDICTABLE>
     2b0:	5f6b636f 	svcpl	0x006b636f
     2b4:	20232320 	eorcs	r2, r3, r0, lsr #6
     2b8:	6b636f6c 	blvs	18dc070 <_Min_Stack_Size+0x18dbc70>
     2bc:	6c63203b 	stclvs	0, cr2, [r3], #-236	; 0xffffff14
     2c0:	20737361 	rsbscs	r7, r3, r1, ror #6
     2c4:	434f4c5f 	movtmi	r4, #64607	; 0xfc5f
     2c8:	20545f4b 	subscs	r5, r4, fp, asr #30
     2cc:	6b636f6c 	blvs	18dc084 <_Min_Stack_Size+0x18dbc84>
     2d0:	26203d20 	strtcs	r3, [r0], -r0, lsr #26
     2d4:	6f6c5f5f 	svcvs	0x006c5f5f
     2d8:	205f6b63 	subscs	r6, pc, r3, ror #22
     2dc:	6c202323 	stcvs	3, cr2, [r0], #-140	; 0xffffff74
     2e0:	006b636f 	rsbeq	r6, fp, pc, ror #6
     2e4:	54505f5f 	ldrbpl	r5, [r0], #-3935	; 0xfffff0a1
     2e8:	46494452 			; <UNDEFINED> instruction: 0x46494452
     2ec:	414d5f46 	cmpmi	sp, r6, asr #30
     2f0:	205f5f58 	subscs	r5, pc, r8, asr pc	; <UNPREDICTABLE>
     2f4:	66377830 			; <UNDEFINED> instruction: 0x66377830
     2f8:	66666666 	strbtvs	r6, [r6], -r6, ror #12
     2fc:	5f006666 	svcpl	0x00006666
     300:	474e4f4c 	strbmi	r4, [lr, -ip, asr #30]
     304:	554f445f 	strbpl	r4, [pc, #-1119]	; fffffead <_estack+0xdfffd6ad>
     308:	20454c42 	subcs	r4, r5, r2, asr #24
     30c:	676e6f6c 	strbvs	r6, [lr, -ip, ror #30]!
     310:	756f6420 	strbvc	r6, [pc, #-1056]!	; fffffef8 <_estack+0xdfffd6f8>
     314:	00656c62 	rsbeq	r6, r5, r2, ror #24
     318:	49545845 	ldmdbmi	r4, {r0, r2, r6, fp, ip, lr}^
     31c:	52495f39 	subpl	r5, r9, #57, 30	; 0xe4
     320:	33322051 	teqcc	r2, #81	; 0x51
     324:	495f5f00 	ldmdbmi	pc, {r8, r9, sl, fp, ip, lr}^	; <UNPREDICTABLE>
     328:	414d544e 	cmpmi	sp, lr, asr #8
     32c:	28435f58 	stmdacs	r3, {r3, r4, r6, r8, r9, sl, fp, ip, lr}^
     330:	63202963 			; <UNDEFINED> instruction: 0x63202963
     334:	20232320 	eorcs	r2, r3, r0, lsr #6
     338:	5f004c4c 	svcpl	0x00004c4c
     33c:	544e4955 	strbpl	r4, [lr], #-2389	; 0xfffff6ab
     340:	545f3233 	ldrbpl	r3, [pc], #-563	; 348 <_Min_Heap_Size+0x148>
     344:	4345445f 	movtmi	r4, #21599	; 0x545f
     348:	4552414c 	ldrbmi	r4, [r2, #-332]	; 0xfffffeb4
     34c:	5f002044 	svcpl	0x00002044
     350:	544e495f 	strbpl	r4, [lr], #-2399	; 0xfffff6a1
     354:	5f58414d 	svcpl	0x0058414d
     358:	5f58414d 	svcpl	0x0058414d
     35c:	7830205f 	ldmdavc	r0!, {r0, r1, r2, r3, r4, r6, sp}
     360:	66666637 			; <UNDEFINED> instruction: 0x66666637
     364:	66666666 	strbtvs	r6, [r6], -r6, ror #12
     368:	66666666 	strbtvs	r6, [r6], -r6, ror #12
     36c:	66666666 	strbtvs	r6, [r6], -r6, ror #12
     370:	5f004c4c 	svcpl	0x00004c4c
     374:	5f51545f 	svcpl	0x0051545f
     378:	54494249 	strbpl	r4, [r9], #-585	; 0xfffffdb7
     37c:	30205f5f 	eorcc	r5, r0, pc, asr pc
     380:	465f5f00 	ldrbmi	r5, [pc], -r0, lsl #30
     384:	3436544c 	ldrtcc	r5, [r6], #-1100	; 0xfffffbb4
     388:	4345445f 	movtmi	r4, #21599	; 0x545f
     38c:	4c414d49 	mcrrmi	13, 4, r4, r1, cr9
     390:	4749445f 	smlsldmi	r4, r9, pc, r4	; <UNPREDICTABLE>
     394:	31205f5f 			; <UNDEFINED> instruction: 0x31205f5f
     398:	58450037 	stmdapl	r5, {r0, r1, r2, r4, r5}^
     39c:	30314954 	eorscc	r4, r1, r4, asr r9
     3a0:	30314150 	eorscc	r4, r1, r0, asr r1
     3a4:	58452820 	stmdapl	r5, {r5, fp, sp}^
     3a8:	475f4954 			; <UNDEFINED> instruction: 0x475f4954
     3ac:	5f4f4950 	svcpl	0x004f4950
     3b0:	7070614d 	rsbsvc	r6, r0, sp, asr #2
     3b4:	5f676e69 	svcpl	0x00676e69
     3b8:	457b2974 	ldrbmi	r2, [fp, #-2420]!	; 0xfffff68c
     3bc:	31495458 	cmpcc	r9, r8, asr r4
     3c0:	47202c30 			; <UNDEFINED> instruction: 0x47202c30
     3c4:	414f4950 	cmpmi	pc, r0, asr r9	; <UNPREDICTABLE>
     3c8:	5047202c 	subpl	r2, r7, ip, lsr #32
     3cc:	505f4f49 	subspl	r4, pc, r9, asr #30
     3d0:	315f4e49 	cmpcc	pc, r9, asr #28
     3d4:	45202c30 	strmi	r2, [r0, #-3120]!	; 0xfffff3d0
     3d8:	31495458 	cmpcc	r9, r8, asr r4
     3dc:	52495f30 	subpl	r5, r9, #48, 30	; 0xc0
     3e0:	5f007d51 	svcpl	0x00007d51
     3e4:	4e454552 	mcrmi	5, 2, r4, cr5, cr2, {2}
     3e8:	49535f54 	ldmdbmi	r3, {r2, r4, r6, r8, r9, sl, fp, ip, lr}^
     3ec:	4c414e47 	mcrrmi	14, 4, r4, r1, cr7
     3f0:	5a49535f 	bpl	1255174 <_Min_Stack_Size+0x1254d74>
     3f4:	34322045 	ldrtcc	r2, [r2], #-69	; 0xffffffbb
     3f8:	6d4b5f00 	stclvs	15, cr5, [fp, #-0]
     3fc:	28207861 	stmdacs	r0!, {r0, r5, r6, fp, ip, sp, lr}
     400:	657a6973 	ldrbvs	r6, [sl, #-2419]!	; 0xfffff68d
     404:	2820666f 	stmdacs	r0!, {r0, r1, r2, r3, r5, r6, r9, sl, sp, lr}
     408:	657a6973 	ldrbvs	r6, [sl, #-2419]!	; 0xfffff68d
     40c:	2029745f 	eorcs	r7, r9, pc, asr r4
     410:	33203c3c 			; <UNDEFINED> instruction: 0x33203c3c
     414:	525f0029 	subspl	r0, pc, #41	; 0x29
     418:	544e4545 	strbpl	r4, [lr], #-1349	; 0xfffffabb
     41c:	4548435f 	strbmi	r4, [r8, #-863]	; 0xfffffca1
     420:	535f4b43 	cmppl	pc, #68608	; 0x10c00
     424:	414e4749 	cmpmi	lr, r9, asr #14
     428:	55425f4c 	strbpl	r5, [r2, #-3916]	; 0xfffff0b4
     42c:	61762846 	cmnvs	r6, r6, asr #16
     430:	5f202972 	svcpl	0x00202972
     434:	4e454552 	mcrmi	5, 2, r4, cr5, cr2, {2}
     438:	48435f54 	stmdami	r3, {r2, r4, r6, r8, r9, sl, fp, ip, lr}^
     43c:	284b4345 	stmdacs	fp, {r0, r2, r6, r8, r9, lr}^
     440:	2c726176 	ldfcse	f6, [r2], #-472	; 0xfffffe28
     444:	69735f20 	ldmdbvs	r3!, {r5, r8, r9, sl, fp, ip, lr}^
     448:	6c616e67 	stclvs	14, cr6, [r1], #-412	; 0xfffffe64
     44c:	6675625f 			; <UNDEFINED> instruction: 0x6675625f
     450:	6863202c 	stmdavs	r3!, {r2, r3, r5, sp}^
     454:	2a207261 	bcs	81cde0 <_Min_Stack_Size+0x81c9e0>
     458:	525f202c 	subspl	r2, pc, #44	; 0x2c
     45c:	544e4545 	strbpl	r4, [lr], #-1349	; 0xfffffabb
     460:	4749535f 	smlsldmi	r5, r9, pc, r3	; <UNPREDICTABLE>
     464:	5f4c414e 	svcpl	0x004c414e
     468:	455a4953 	ldrbmi	r4, [sl, #-2387]	; 0xfffff6ad
     46c:	0029202c 	eoreq	r2, r9, ip, lsr #32
     470:	464c5f5f 			; <UNDEFINED> instruction: 0x464c5f5f
     474:	54434152 	strbpl	r4, [r3], #-338	; 0xfffffeae
     478:	4e494d5f 	mcrmi	13, 2, r4, cr9, cr15, {2}
     47c:	28205f5f 	stmdacs	r0!, {r0, r1, r2, r3, r4, r6, r8, r9, sl, fp, ip, lr}
     480:	352e302d 	strcc	r3, [lr, #-45]!	; 0xffffffd3
     484:	302d524c 	eorcc	r5, sp, ip, asr #4
     488:	524c352e 	subpl	r3, ip, #192937984	; 0xb800000
     48c:	5f5f0029 	svcpl	0x005f0029
     490:	41484357 	cmpmi	r8, r7, asr r3
     494:	414d5f52 	cmpmi	sp, r2, asr pc
     498:	205f5f58 	subscs	r5, pc, r8, asr pc	; <UNPREDICTABLE>
     49c:	66667830 			; <UNDEFINED> instruction: 0x66667830
     4a0:	66666666 	strbtvs	r6, [r6], -r6, ror #12
     4a4:	00556666 	subseq	r6, r5, r6, ror #12
     4a8:	5f434352 	svcpl	0x00434352
     4ac:	4f495047 	svcmi	0x00495047
     4b0:	4c435f42 	mcrrmi	15, 4, r5, r3, cr2
     4b4:	4e455f4b 	cdpmi	15, 4, cr5, cr5, cr11, {2}
     4b8:	28202928 	stmdacs	r0!, {r3, r5, r8, fp, sp}
     4bc:	2d434352 	stclcs	3, cr4, [r3, #-328]	; 0xfffffeb8
     4c0:	4250413e 	subsmi	r4, r0, #-2147483633	; 0x8000000f
     4c4:	524e4532 	subpl	r4, lr, #209715200	; 0xc800000
     4c8:	203d7c20 	eorscs	r7, sp, r0, lsr #24
     4cc:	3c3c3128 	ldfccs	f3, [ip], #-160	; 0xffffff60
     4d0:	00292933 	eoreq	r2, r9, r3, lsr r9
     4d4:	4f435f5f 	svcmi	0x00435f5f
     4d8:	5441434e 	strbpl	r4, [r1], #-846	; 0xfffffcb2
     4dc:	792c7828 	stmdbvc	ip!, {r3, r5, fp, ip, sp, lr}
     4e0:	5f5f2029 	svcpl	0x005f2029
     4e4:	434e4f43 	movtmi	r4, #61251	; 0xef43
     4e8:	28315441 	ldmdacs	r1!, {r0, r6, sl, ip, lr}
     4ec:	29792c78 	ldmdbcs	r9!, {r3, r4, r5, r6, sl, fp, sp}^
     4f0:	475f5f00 	ldrbmi	r5, [pc, -r0, lsl #30]
     4f4:	4c43554e 	cfstr64mi	mvdx5, [r3], {78}	; 0x4e
     4f8:	5f454b49 	svcpl	0x00454b49
     4fc:	59545f5f 	ldmdbpl	r4, {r0, r1, r2, r3, r4, r6, r8, r9, sl, fp, ip, lr}^
     500:	464f4550 			; <UNDEFINED> instruction: 0x464f4550
     504:	5f003120 	svcpl	0x00003120
     508:	746e695f 	strbtvc	r6, [lr], #-2399	; 0xfffff6a1
     50c:	5f5f3032 	svcpl	0x005f3032
     510:	535f5f00 	cmppl	pc, #0, 30
     514:	4f455a49 	svcmi	0x00455a49
     518:	4f4c5f46 	svcmi	0x004c5f46
     51c:	4c5f474e 	mrrcmi	7, 4, r4, pc, cr14	; <UNPREDICTABLE>
     520:	5f474e4f 	svcpl	0x00474e4f
     524:	0038205f 	eorseq	r2, r8, pc, asr r0
     528:	49545845 	ldmdbmi	r4, {r0, r2, r6, fp, ip, lr}^
     52c:	5341425f 	movtpl	r4, #4703	; 0x125f
     530:	78302045 	ldmdavc	r0!, {r0, r2, r6, sp}
     534:	31303034 	teqcc	r0, r4, lsr r0
     538:	30303430 	eorscc	r3, r0, r0, lsr r4
     53c:	5f5f0075 	svcpl	0x005f0075
     540:	5f4c4244 	svcpl	0x004c4244
     544:	5f58414d 	svcpl	0x0058414d
     548:	455f3031 	ldrbmi	r3, [pc, #-49]	; 51f <_Min_Stack_Size+0x11f>
     54c:	5f5f5058 	svcpl	0x005f5058
     550:	38303320 	ldmdacc	r0!, {r5, r8, r9, ip, sp}
     554:	525f5f00 	subspl	r5, pc, #0, 30
     558:	44495343 	strbmi	r5, [r9], #-835	; 0xfffffcbd
     55c:	554f535f 	strbpl	r5, [pc, #-863]	; 205 <_Min_Heap_Size+0x5>
     560:	28454352 	stmdacs	r5, {r1, r4, r6, r8, r9, lr}^
     564:	73202973 			; <UNDEFINED> instruction: 0x73202973
     568:	63757274 	cmnvs	r5, #116, 4	; 0x40000007
     56c:	5f5f2074 	svcpl	0x005f2074
     570:	6b636168 	blvs	18d8b18 <_Min_Stack_Size+0x18d8718>
     574:	465f5f00 	ldrbmi	r5, [pc], -r0, lsl #30
     578:	54434152 	strbpl	r4, [r3], #-338	; 0xfffffeae
     57c:	4e494d5f 	mcrmi	13, 2, r4, cr9, cr15, {2}
     580:	28205f5f 	stmdacs	r0!, {r0, r1, r2, r3, r4, r6, r8, r9, sl, fp, ip, lr}
     584:	352e302d 	strcc	r3, [lr, #-45]!	; 0xffffffd3
     588:	2e302d52 	mrccs	13, 1, r2, cr0, cr2, {2}
     58c:	00295235 	eoreq	r5, r9, r5, lsr r2
     590:	4c555f5f 	mrrcmi	15, 5, r5, r5, cr15	; <UNPREDICTABLE>
     594:	4343414c 	movtmi	r4, #12620	; 0x314c
     598:	4d5f4d55 	ldclmi	13, cr4, [pc, #-340]	; 44c <_Min_Stack_Size+0x4c>
     59c:	5f5f5841 	svcpl	0x005f5841
     5a0:	46583020 	ldrbmi	r3, [r8], -r0, lsr #32
     5a4:	46464646 	strbmi	r4, [r6], -r6, asr #12
     5a8:	46464646 	strbmi	r4, [r6], -r6, asr #12
     5ac:	46464646 	strbmi	r4, [r6], -r6, asr #12
     5b0:	50464646 	subpl	r4, r6, r6, asr #12
     5b4:	5532332d 	ldrpl	r3, [r2, #-813]!	; 0xfffffcd3
     5b8:	004b4c4c 	subeq	r4, fp, ip, asr #24
     5bc:	49545845 	ldmdbmi	r4, {r0, r2, r6, fp, ip, lr}^
     5c0:	42503531 	subsmi	r3, r0, #205520896	; 0xc400000
     5c4:	28203531 	stmdacs	r0!, {r0, r4, r5, r8, sl, ip, sp}
     5c8:	49545845 	ldmdbmi	r4, {r0, r2, r6, fp, ip, lr}^
     5cc:	4950475f 	ldmdbmi	r0, {r0, r1, r2, r3, r4, r6, r8, r9, sl, lr}^
     5d0:	614d5f4f 	cmpvs	sp, pc, asr #30
     5d4:	6e697070 	mcrvs	0, 3, r7, cr9, cr0, {3}
     5d8:	29745f67 	ldmdbcs	r4!, {r0, r1, r2, r5, r6, r8, r9, sl, fp, ip, lr}^
     5dc:	5458457b 	ldrbpl	r4, [r8], #-1403	; 0xfffffa85
     5e0:	2c353149 	ldfcss	f3, [r5], #-292	; 0xfffffedc
     5e4:	49504720 	ldmdbmi	r0, {r5, r8, r9, sl, lr}^
     5e8:	202c424f 	eorcs	r4, ip, pc, asr #4
     5ec:	4f495047 	svcmi	0x00495047
     5f0:	4e49505f 	mcrmi	0, 2, r5, cr9, cr15, {2}
     5f4:	2c35315f 	ldfcss	f3, [r5], #-380	; 0xfffffe84
     5f8:	54584520 	ldrbpl	r4, [r8], #-1312	; 0xfffffae0
     5fc:	5f353149 	svcpl	0x00353149
     600:	7d515249 	lfmvc	f5, 2, [r1, #-292]	; 0xfffffedc
     604:	49504700 	ldmdbmi	r0, {r8, r9, sl, lr}^
     608:	425f424f 	subsmi	r4, pc, #-268435452	; 0xf0000004
     60c:	20455341 	subcs	r5, r5, r1, asr #6
     610:	30347830 	eorscc	r7, r4, r0, lsr r8
     614:	43303130 	teqmi	r0, #48, 2
     618:	00753030 	rsbseq	r3, r5, r0, lsr r0
     61c:	53555f5f 	cmppl	r5, #380	; 0x17c
     620:	55434341 	strbpl	r4, [r3, #-833]	; 0xfffffcbf
     624:	414d5f4d 	cmpmi	sp, sp, asr #30
     628:	205f5f58 	subscs	r5, pc, r8, asr pc	; <UNPREDICTABLE>
     62c:	46465830 			; <UNDEFINED> instruction: 0x46465830
     630:	2d504646 	ldclcs	6, cr4, [r0, #-280]	; 0xfffffee8
     634:	4b485538 	blmi	1215b1c <_Min_Stack_Size+0x121571c>
     638:	535f5f00 	cmppl	pc, #0, 30
     63c:	43415246 	movtmi	r5, #4678	; 0x1246
     640:	42465f54 	submi	r5, r6, #84, 30	; 0x150
     644:	5f5f5449 	svcpl	0x005f5449
     648:	5f003720 	svcpl	0x00003720
     64c:	544e495f 	strbpl	r4, [lr], #-2399	; 0xfffff6a1
     650:	5f58414d 	svcpl	0x0058414d
     654:	54444957 	strbpl	r4, [r4], #-2391	; 0xfffff6a9
     658:	205f5f48 	subscs	r5, pc, r8, asr #30
     65c:	5f003436 	svcpl	0x00003436
     660:	4d52415f 	ldfmie	f4, [r2, #-380]	; 0xfffffe84
     664:	4145465f 	cmpmi	r5, pc, asr r6
     668:	45525554 	ldrbmi	r5, [r2, #-1364]	; 0xfffffaac
     66c:	3146425f 	cmpcc	r6, pc, asr r2
     670:	43535f36 	cmpmi	r3, #54, 30	; 0xd8
     674:	52414c41 	subpl	r4, r1, #16640	; 0x4100
     678:	4952415f 	ldmdbmi	r2, {r0, r1, r2, r3, r4, r6, r8, lr}^
     67c:	454d4854 	strbmi	r4, [sp, #-2132]	; 0xfffff7ac
     680:	00434954 	subeq	r4, r3, r4, asr r9
     684:	51535f5f 	cmppl	r3, pc, asr pc
     688:	4942495f 	stmdbmi	r2, {r0, r1, r2, r3, r4, r6, r8, fp, lr}^
     68c:	205f5f54 	subscs	r5, pc, r4, asr pc	; <UNPREDICTABLE>
     690:	5f5f0030 	svcpl	0x005f0030
     694:	4544524f 	strbmi	r5, [r4, #-591]	; 0xfffffdb1
     698:	44505f52 	ldrbmi	r5, [r0], #-3922	; 0xfffff0ae
     69c:	4e455f50 	mcrmi	15, 2, r5, cr5, cr0, {2}
     6a0:	4e414944 	vmlsmi.f16	s9, s2, s8	; <UNPREDICTABLE>
     6a4:	33205f5f 			; <UNDEFINED> instruction: 0x33205f5f
     6a8:	00323134 	eorseq	r3, r2, r4, lsr r1
     6ac:	49535f5f 	ldmdbmi	r3, {r0, r1, r2, r3, r4, r6, r8, r9, sl, fp, ip, lr}^
     6b0:	545f455a 	ldrbpl	r4, [pc], #-1370	; 6b8 <_Min_Stack_Size+0x2b8>
     6b4:	5f455059 	svcpl	0x00455059
     6b8:	6e75205f 	mrcvs	0, 3, r2, cr5, cr15, {2}
     6bc:	6e676973 			; <UNDEFINED> instruction: 0x6e676973
     6c0:	69206465 	stmdbvs	r0!, {r0, r2, r5, r6, sl, sp, lr}
     6c4:	5f00746e 	svcpl	0x0000746e
     6c8:	5f434347 	svcpl	0x00434347
     6cc:	50415257 	subpl	r5, r1, r7, asr r2
     6d0:	4454535f 	ldrbmi	r5, [r4], #-863	; 0xfffffca1
     6d4:	5f544e49 	svcpl	0x00544e49
     6d8:	5f002048 	svcpl	0x00002048
     6dc:	544c465f 	strbpl	r4, [ip], #-1631	; 0xfffff9a1
     6e0:	5341485f 	movtpl	r4, #6239	; 0x185f
     6e4:	4e45445f 	mcrmi	4, 2, r4, cr5, cr15, {2}
     6e8:	5f4d524f 	svcpl	0x004d524f
     6ec:	0031205f 	eorseq	r2, r1, pc, asr r0
     6f0:	4e495f5f 	mcrmi	15, 2, r5, cr9, cr15, {2}
     6f4:	545f3854 	ldrbpl	r3, [pc], #-2132	; 6fc <_Min_Stack_Size+0x2fc>
     6f8:	5f455059 	svcpl	0x00455059
     6fc:	6973205f 	ldmdbvs	r3!, {r0, r1, r2, r3, r4, r6, sp}^
     700:	64656e67 	strbtvs	r6, [r5], #-3687	; 0xfffff199
     704:	61686320 	cmnvs	r8, r0, lsr #6
     708:	5f5f0072 	svcpl	0x005f0072
     70c:	33544c46 	cmpcc	r4, #17920	; 0x4600
     710:	494d5f32 	stmdbmi	sp, {r1, r4, r5, r8, r9, sl, fp, ip, lr}^
     714:	205f5f4e 	subscs	r5, pc, lr, asr #30
     718:	37312e31 			; <UNDEFINED> instruction: 0x37312e31
     71c:	34393435 	ldrtcc	r3, [r9], #-1077	; 0xfffffbcb
     720:	38303533 	ldmdacc	r0!, {r0, r1, r4, r5, r8, sl, ip, sp}
     724:	38323232 	ldmdacc	r2!, {r1, r4, r5, r9, ip, sp}
     728:	2d653537 	cfstr64cs	mvdx3, [r5, #-220]!	; 0xffffff24
     72c:	33463833 	movtcc	r3, #26675	; 0x6833
     730:	50470032 	subpl	r0, r7, r2, lsr r0
     734:	20454f49 	subcs	r4, r5, r9, asr #30
     738:	50472828 	subpl	r2, r7, r8, lsr #16
     73c:	545f4f49 	ldrbpl	r4, [pc], #-3913	; 744 <_Min_Stack_Size+0x344>
     740:	64657079 	strbtvs	r7, [r5], #-121	; 0xffffff87
     744:	745f6665 	ldrbvc	r6, [pc], #-1637	; 74c <_Min_Stack_Size+0x34c>
     748:	47292a20 	strmi	r2, [r9, -r0, lsr #20]!
     74c:	454f4950 	strbmi	r4, [pc, #-2384]	; fffffe04 <_estack+0xdfffd604>
     750:	5341425f 	movtpl	r4, #4703	; 0x125f
     754:	5f002945 	svcpl	0x00002945
     758:	4153555f 	cmpmi	r3, pc, asr r5
     75c:	4d554343 	ldclmi	3, cr4, [r5, #-268]	; 0xfffffef4
     760:	4e494d5f 	mcrmi	13, 2, r4, cr9, cr15, {2}
     764:	30205f5f 	eorcc	r5, r0, pc, asr pc
     768:	4855302e 	ldmdami	r5, {r1, r2, r3, r5, ip, sp}^
     76c:	564e004b 	strbpl	r0, [lr], -fp, asr #32
     770:	455f4349 	ldrbmi	r4, [pc, #-841]	; 42f <_Min_Stack_Size+0x2f>
     774:	33495458 	movtcc	r5, #37976	; 0x9458
     778:	5152495f 	cmppl	r2, pc, asr r9
     77c:	616e455f 	cmnvs	lr, pc, asr r5
     780:	20656c62 	rsbcs	r6, r5, r2, ror #24
     784:	49564e28 	ldmdbmi	r6, {r3, r5, r9, sl, fp, lr}^
     788:	53495f43 	movtpl	r5, #40771	; 0x9f43
     78c:	20305245 	eorscs	r5, r0, r5, asr #4
     790:	31203d7c 			; <UNDEFINED> instruction: 0x31203d7c
     794:	29393c3c 	ldmdbcs	r9!, {r2, r3, r4, r5, sl, fp, ip, sp}
     798:	465f5f00 	ldrbmi	r5, [pc], -r0, lsl #30
     79c:	3233544c 	eorscc	r5, r3, #76, 8	; 0x4c000000
     7a0:	4345445f 	movtmi	r4, #21599	; 0x545f
     7a4:	4c414d49 	mcrrmi	13, 4, r4, r1, cr9
     7a8:	4749445f 	smlsldmi	r4, r9, pc, r4	; <UNPREDICTABLE>
     7ac:	39205f5f 	stmdbcc	r0!, {r0, r1, r2, r3, r4, r6, r8, r9, sl, fp, ip, lr}
     7b0:	4c5f5f00 	mrrcmi	15, 0, r5, pc, cr0	; <UNPREDICTABLE>
     7b4:	5f4c4244 	svcpl	0x004c4244
     7b8:	5f4e494d 	svcpl	0x004e494d
     7bc:	5f505845 	svcpl	0x00505845
     7c0:	2d28205f 	stccs	0, cr2, [r8, #-380]!	; 0xfffffe84
     7c4:	31323031 	teqcc	r2, r1, lsr r0
     7c8:	525f0029 	subspl	r0, pc, #41	; 0x29
     7cc:	544e4545 	strbpl	r4, [lr], #-1349	; 0xfffffabb
     7d0:	494e495f 	stmdbmi	lr, {r0, r1, r2, r3, r4, r6, r8, fp, lr}^
     7d4:	41525f54 	cmpmi	r2, r4, asr pc
     7d8:	3834444e 	ldmdacc	r4!, {r1, r2, r3, r6, sl, lr}
     7dc:	72617628 	rsbvc	r7, r1, #40, 12	; 0x2800000
     7e0:	6f642029 	svcvs	0x00642029
     7e4:	73207b20 			; <UNDEFINED> instruction: 0x73207b20
     7e8:	63757274 	cmnvs	r5, #116, 4	; 0x40000007
     7ec:	725f2074 	subsvc	r2, pc, #116	; 0x74
     7f0:	746e6565 	strbtvc	r6, [lr], #-1381	; 0xfffffa9b
     7f4:	725f2a20 	subsvc	r2, pc, #32, 20	; 0x20000
     7f8:	28203d20 	stmdacs	r0!, {r5, r8, sl, fp, ip, sp}
     7fc:	29726176 	ldmdbcs	r2!, {r1, r2, r4, r5, r6, r8, sp, lr}^
     800:	725f203b 	subsvc	r2, pc, #59	; 0x3b
     804:	725f3e2d 	subsvc	r3, pc, #720	; 0x2d0
     808:	3e2d3834 	mcrcc	8, 1, r3, cr13, cr4, {1}
     80c:	6565735f 	strbvs	r7, [r5, #-863]!	; 0xfffffca1
     810:	5d305b64 	vldmdbpl	r0!, {d5-<overflow reg d54>}
     814:	5f203d20 	svcpl	0x00203d20
     818:	444e4152 	strbmi	r4, [lr], #-338	; 0xfffffeae
     81c:	535f3834 	cmppl	pc, #52, 16	; 0x340000
     820:	5f444545 	svcpl	0x00444545
     824:	5f203b30 	svcpl	0x00203b30
     828:	5f3e2d72 	svcpl	0x003e2d72
     82c:	2d383472 	cfldrscs	mvf3, [r8, #-456]!	; 0xfffffe38
     830:	65735f3e 	ldrbvs	r5, [r3, #-3902]!	; 0xfffff0c2
     834:	315b6465 	cmpcc	fp, r5, ror #8
     838:	203d205d 	eorscs	r2, sp, sp, asr r0
     83c:	4e41525f 	mcrmi	2, 2, r5, cr1, cr15, {2}
     840:	5f383444 	svcpl	0x00383444
     844:	44454553 	strbmi	r4, [r5], #-1363	; 0xfffffaad
     848:	203b315f 	eorscs	r3, fp, pc, asr r1
     84c:	3e2d725f 	mcrcc	2, 1, r7, cr13, cr15, {2}
     850:	3834725f 	ldmdacc	r4!, {r0, r1, r2, r3, r4, r6, r9, ip, sp, lr}
     854:	735f3e2d 	cmpvc	pc, #720	; 0x2d0
     858:	5b646565 	blpl	1919df4 <_Min_Stack_Size+0x19199f4>
     85c:	3d205d32 	stccc	13, cr5, [r0, #-200]!	; 0xffffff38
     860:	41525f20 	cmpmi	r2, r0, lsr #30
     864:	3834444e 	ldmdacc	r4!, {r1, r2, r3, r6, sl, lr}
     868:	4545535f 	strbmi	r5, [r5, #-863]	; 0xfffffca1
     86c:	3b325f44 	blcc	c98584 <_Min_Stack_Size+0xc98184>
     870:	2d725f20 	ldclcs	15, cr5, [r2, #-128]!	; 0xffffff80
     874:	34725f3e 	ldrbtcc	r5, [r2], #-3902	; 0xfffff0c2
     878:	5f3e2d38 	svcpl	0x003e2d38
     87c:	746c756d 	strbtvc	r7, [ip], #-1389	; 0xfffffa93
     880:	205d305b 	subscs	r3, sp, fp, asr r0
     884:	525f203d 	subspl	r2, pc, #61	; 0x3d
     888:	34444e41 	strbcc	r4, [r4], #-3649	; 0xfffff1bf
     88c:	554d5f38 	strbpl	r5, [sp, #-3896]	; 0xfffff0c8
     890:	305f544c 	subscc	r5, pc, ip, asr #8
     894:	725f203b 	subsvc	r2, pc, #59	; 0x3b
     898:	725f3e2d 	subsvc	r3, pc, #720	; 0x2d0
     89c:	3e2d3834 	mcrcc	8, 1, r3, cr13, cr4, {1}
     8a0:	6c756d5f 	ldclvs	13, cr6, [r5], #-380	; 0xfffffe84
     8a4:	5d315b74 	vldmdbpl	r1!, {d5-<overflow reg d62>}
     8a8:	5f203d20 	svcpl	0x00203d20
     8ac:	444e4152 	strbmi	r4, [lr], #-338	; 0xfffffeae
     8b0:	4d5f3834 	ldclmi	8, cr3, [pc, #-208]	; 7e8 <_Min_Stack_Size+0x3e8>
     8b4:	5f544c55 	svcpl	0x00544c55
     8b8:	5f203b31 	svcpl	0x00203b31
     8bc:	5f3e2d72 	svcpl	0x003e2d72
     8c0:	2d383472 	cfldrscs	mvf3, [r8, #-456]!	; 0xfffffe38
     8c4:	756d5f3e 	strbvc	r5, [sp, #-3902]!	; 0xfffff0c2
     8c8:	325b746c 	subscc	r7, fp, #108, 8	; 0x6c000000
     8cc:	203d205d 	eorscs	r2, sp, sp, asr r0
     8d0:	4e41525f 	mcrmi	2, 2, r5, cr1, cr15, {2}
     8d4:	5f383444 	svcpl	0x00383444
     8d8:	544c554d 	strbpl	r5, [ip], #-1357	; 0xfffffab3
     8dc:	203b325f 	eorscs	r3, fp, pc, asr r2
     8e0:	3e2d725f 	mcrcc	2, 1, r7, cr13, cr15, {2}
     8e4:	3834725f 	ldmdacc	r4!, {r0, r1, r2, r3, r4, r6, r9, ip, sp, lr}
     8e8:	615f3e2d 	cmpvs	pc, sp, lsr #28
     8ec:	3d206464 	cfstrscc	mvf6, [r0, #-400]!	; 0xfffffe70
     8f0:	41525f20 	cmpmi	r2, r0, lsr #30
     8f4:	3834444e 	ldmdacc	r4!, {r1, r2, r3, r6, sl, lr}
     8f8:	4444415f 	strbmi	r4, [r4], #-351	; 0xfffffea1
     8fc:	725f203b 	subsvc	r2, pc, #59	; 0x3b
     900:	725f3e2d 	subsvc	r3, pc, #720	; 0x2d0
     904:	3e2d3834 	mcrcc	8, 1, r3, cr13, cr4, {1}
     908:	6e61725f 	mcrvs	2, 3, r7, cr1, cr15, {2}
     90c:	656e5f64 	strbvs	r5, [lr, #-3940]!	; 0xfffff09c
     910:	3d207478 	cfstrscc	mvf7, [r0, #-480]!	; 0xfffffe20
     914:	203b3120 	eorscs	r3, fp, r0, lsr #2
     918:	6877207d 	ldmdavs	r7!, {r0, r2, r3, r4, r5, r6, sp}^
     91c:	20656c69 	rsbcs	r6, r5, r9, ror #24
     920:	00293028 	eoreq	r3, r9, r8, lsr #32
     924:	444c5f5f 	strbmi	r5, [ip], #-3935	; 0xfffff0a1
     928:	4d5f4c42 	ldclmi	12, cr4, [pc, #-264]	; 828 <_Min_Stack_Size+0x428>
     92c:	5f544e41 	svcpl	0x00544e41
     930:	5f474944 	svcpl	0x00474944
     934:	3335205f 	teqcc	r5, #95	; 0x5f
     938:	544e4900 	strbpl	r4, [lr], #-2304	; 0xfffff700
     93c:	5341465f 	movtpl	r4, #5727	; 0x165f
     940:	5f363154 	svcpl	0x00363154
     944:	204e494d 	subcs	r4, lr, sp, asr #18
     948:	5f5f2d28 	svcpl	0x005f2d28
     94c:	5f544e49 	svcpl	0x00544e49
     950:	54534146 	ldrbpl	r4, [r3], #-326	; 0xfffffeba
     954:	4d5f3631 	ldclmi	6, cr3, [pc, #-196]	; 898 <_Min_Stack_Size+0x498>
     958:	5f5f5841 	svcpl	0x005f5841
     95c:	31202d20 			; <UNDEFINED> instruction: 0x31202d20
     960:	58450029 	stmdapl	r5, {r0, r3, r5}^
     964:	50334954 	eorspl	r4, r3, r4, asr r9
     968:	28203344 	stmdacs	r0!, {r2, r6, r8, r9, ip, sp}
     96c:	49545845 	ldmdbmi	r4, {r0, r2, r6, fp, ip, lr}^
     970:	4950475f 	ldmdbmi	r0, {r0, r1, r2, r3, r4, r6, r8, r9, sl, lr}^
     974:	614d5f4f 	cmpvs	sp, pc, asr #30
     978:	6e697070 	mcrvs	0, 3, r7, cr9, cr0, {3}
     97c:	29745f67 	ldmdbcs	r4!, {r0, r1, r2, r5, r6, r8, r9, sl, fp, ip, lr}^
     980:	5458457b 	ldrbpl	r4, [r8], #-1403	; 0xfffffa85
     984:	202c3349 	eorcs	r3, ip, r9, asr #6
     988:	4f495047 	svcmi	0x00495047
     98c:	47202c44 	strmi	r2, [r0, -r4, asr #24]!
     990:	5f4f4950 	svcpl	0x004f4950
     994:	5f4e4950 	svcpl	0x004e4950
     998:	45202c33 	strmi	r2, [r0, #-3123]!	; 0xfffff3cd
     99c:	33495458 	movtcc	r5, #37976	; 0x9458
     9a0:	5152495f 	cmppl	r2, pc, asr r9
     9a4:	5f5f007d 	svcpl	0x005f007d
     9a8:	544e4955 	strbpl	r4, [lr], #-2389	; 0xfffff6ab
     9ac:	28435f38 	stmdacs	r3, {r3, r4, r5, r8, r9, sl, fp, ip, lr}^
     9b0:	63202963 			; <UNDEFINED> instruction: 0x63202963
     9b4:	54584500 	ldrbpl	r4, [r8], #-1280	; 0xfffffb00
     9b8:	44503249 	ldrbmi	r3, [r0], #-585	; 0xfffffdb7
     9bc:	45282032 	strmi	r2, [r8, #-50]!	; 0xffffffce
     9c0:	5f495458 	svcpl	0x00495458
     9c4:	4f495047 	svcmi	0x00495047
     9c8:	70614d5f 	rsbvc	r4, r1, pc, asr sp
     9cc:	676e6970 			; <UNDEFINED> instruction: 0x676e6970
     9d0:	7b29745f 	blvc	a5db54 <_Min_Stack_Size+0xa5d754>
     9d4:	49545845 	ldmdbmi	r4, {r0, r2, r6, fp, ip, lr}^
     9d8:	47202c32 			; <UNDEFINED> instruction: 0x47202c32
     9dc:	444f4950 	strbmi	r4, [pc], #-2384	; 9e4 <_Min_Stack_Size+0x5e4>
     9e0:	5047202c 	subpl	r2, r7, ip, lsr #32
     9e4:	505f4f49 	subspl	r4, pc, r9, asr #30
     9e8:	325f4e49 	subscc	r4, pc, #1168	; 0x490
     9ec:	5845202c 	stmdapl	r5, {r2, r3, r5, sp}^
     9f0:	5f324954 	svcpl	0x00324954
     9f4:	7d515249 	lfmvc	f5, 2, [r1, #-292]	; 0xfffffedc
     9f8:	495f5f00 	ldmdbmi	pc, {r8, r9, sl, fp, ip, lr}^	; <UNPREDICTABLE>
     9fc:	3631544e 	ldrtcc	r5, [r1], -lr, asr #8
     a00:	5059545f 	subspl	r5, r9, pc, asr r4
     a04:	205f5f45 	subscs	r5, pc, r5, asr #30
     a08:	726f6873 	rsbvc	r6, pc, #7536640	; 0x730000
     a0c:	6e692074 	mcrvs	0, 3, r2, cr9, cr4, {3}
     a10:	5f5f0074 	svcpl	0x005f0074
     a14:	67696c61 	strbvs	r6, [r9, -r1, ror #24]!
     a18:	2864656e 	stmdacs	r4!, {r1, r2, r3, r5, r6, r8, sl, sp, lr}^
     a1c:	5f202978 	svcpl	0x00202978
     a20:	7474615f 	ldrbtvc	r6, [r4], #-351	; 0xfffffea1
     a24:	75626972 	strbvc	r6, [r2, #-2418]!	; 0xfffff68e
     a28:	5f5f6574 	svcpl	0x005f6574
     a2c:	5f5f2828 	svcpl	0x005f2828
     a30:	67696c61 	strbvs	r6, [r9, -r1, ror #24]!
     a34:	5f64656e 	svcpl	0x0064656e
     a38:	2978285f 	ldmdbcs	r8!, {r0, r1, r2, r3, r4, r6, fp, sp}^
     a3c:	45002929 	strmi	r2, [r0, #-2345]	; 0xfffff6d7
     a40:	36495458 			; <UNDEFINED> instruction: 0x36495458
     a44:	20364250 	eorscs	r4, r6, r0, asr r2
     a48:	54584528 	ldrbpl	r4, [r8], #-1320	; 0xfffffad8
     a4c:	50475f49 	subpl	r5, r7, r9, asr #30
     a50:	4d5f4f49 	ldclmi	15, cr4, [pc, #-292]	; 934 <_Min_Stack_Size+0x534>
     a54:	69707061 	ldmdbvs	r0!, {r0, r5, r6, ip, sp, lr}^
     a58:	745f676e 	ldrbvc	r6, [pc], #-1902	; a60 <_Min_Stack_Size+0x660>
     a5c:	58457b29 	stmdapl	r5, {r0, r3, r5, r8, r9, fp, ip, sp, lr}^
     a60:	2c364954 			; <UNDEFINED> instruction: 0x2c364954
     a64:	49504720 	ldmdbmi	r0, {r5, r8, r9, sl, lr}^
     a68:	202c424f 	eorcs	r4, ip, pc, asr #4
     a6c:	4f495047 	svcmi	0x00495047
     a70:	4e49505f 	mcrmi	0, 2, r5, cr9, cr15, {2}
     a74:	202c365f 	eorcs	r3, ip, pc, asr r6
     a78:	49545845 	ldmdbmi	r4, {r0, r2, r6, fp, ip, lr}^
     a7c:	52495f36 	subpl	r5, r9, #54, 30	; 0xd8
     a80:	5f007d51 	svcpl	0x00007d51
     a84:	544c465f 	strbpl	r4, [ip], #-1631	; 0xfffff9a1
     a88:	4d5f3436 	cfldrdmi	mvd3, [pc, #-216]	; 9b8 <_Min_Stack_Size+0x5b8>
     a8c:	5f5f5841 	svcpl	0x005f5841
     a90:	372e3120 	strcc	r3, [lr, -r0, lsr #2]!
     a94:	39363739 	ldmdbcc	r6!, {r0, r3, r4, r5, r8, r9, sl, ip, sp}
     a98:	34333133 	ldrtcc	r3, [r3], #-307	; 0xfffffecd
     a9c:	33323638 	teqcc	r2, #56, 12	; 0x3800000
     aa0:	65373531 	ldrvs	r3, [r7, #-1329]!	; 0xfffffacf
     aa4:	3830332b 	ldmdacc	r0!, {r0, r1, r3, r5, r8, r9, ip, sp}
     aa8:	00343646 	eorseq	r3, r4, r6, asr #12
     aac:	4349564e 	movtmi	r5, #38478	; 0x964e
     ab0:	5458455f 	ldrbpl	r4, [r8], #-1375	; 0xfffffaa1
     ab4:	495f3249 	ldmdbmi	pc, {r0, r3, r6, r9, ip, sp}^	; <UNPREDICTABLE>
     ab8:	455f5152 	ldrbmi	r5, [pc, #-338]	; 96e <_Min_Stack_Size+0x56e>
     abc:	6c62616e 	stfvse	f6, [r2], #-440	; 0xfffffe48
     ac0:	4e282065 	cdpmi	0, 2, cr2, cr8, cr5, {3}
     ac4:	5f434956 	svcpl	0x00434956
     ac8:	52455349 	subpl	r5, r5, #603979777	; 0x24000001
     acc:	3d7c2030 	ldclcc	0, cr2, [ip, #-192]!	; 0xffffff40
     ad0:	3c3c3120 	ldfccs	f3, [ip], #-128	; 0xffffff80
     ad4:	5f002938 	svcpl	0x00002938
     ad8:	4e454552 	mcrmi	5, 2, r4, cr5, cr2, {2}
     adc:	43575f54 	cmpmi	r7, #84, 30	; 0x150
     ae0:	4f545253 	svcmi	0x00545253
     ae4:	5f53424d 	svcpl	0x0053424d
     ae8:	54415453 	strbpl	r5, [r1], #-1107	; 0xfffffbad
     aec:	74702845 	ldrbtvc	r2, [r0], #-2117	; 0xfffff7bb
     af0:	28202972 	stmdacs	r0!, {r1, r4, r5, r6, r8, fp, sp}
     af4:	72747028 	rsbsvc	r7, r4, #40	; 0x28
     af8:	5f3e2d29 	svcpl	0x003e2d29
     afc:	6373696d 	cmnvs	r3, #1785856	; 0x1b4000
     b00:	775f3e2d 	ldrbvc	r3, [pc, -sp, lsr #28]
     b04:	74727363 	ldrbtvc	r7, [r2], #-867	; 0xfffffc9d
     b08:	73626d6f 	cmnvc	r2, #7104	; 0x1bc0
     b0c:	6174735f 	cmnvs	r4, pc, asr r3
     b10:	00296574 	eoreq	r6, r9, r4, ror r5
     b14:	33495053 	movtcc	r5, #36947	; 0x9053
     b18:	53282820 			; <UNDEFINED> instruction: 0x53282820
     b1c:	545f4950 	ldrbpl	r4, [pc], #-2384	; b24 <_Min_Stack_Size+0x724>
     b20:	64657079 	strbtvs	r7, [r5], #-121	; 0xffffff87
     b24:	745f6665 	ldrbvc	r6, [pc], #-1637	; b2c <_Min_Stack_Size+0x72c>
     b28:	53292a20 			; <UNDEFINED> instruction: 0x53292a20
     b2c:	5f334950 	svcpl	0x00334950
     b30:	45534142 	ldrbmi	r4, [r3, #-322]	; 0xfffffebe
     b34:	5f5f0029 	svcpl	0x005f0029
     b38:	6f626e75 	svcvs	0x00626e75
     b3c:	65646e75 	strbvs	r6, [r4, #-3701]!	; 0xfffff18b
     b40:	45002064 	strmi	r2, [r0, #-100]	; 0xffffff9c
     b44:	31495458 	cmpcc	r9, r8, asr r4
     b48:	31415035 	cmpcc	r1, r5, lsr r0
     b4c:	45282035 	strmi	r2, [r8, #-53]!	; 0xffffffcb
     b50:	5f495458 	svcpl	0x00495458
     b54:	4f495047 	svcmi	0x00495047
     b58:	70614d5f 	rsbvc	r4, r1, pc, asr sp
     b5c:	676e6970 			; <UNDEFINED> instruction: 0x676e6970
     b60:	7b29745f 	blvc	a5dce4 <_Min_Stack_Size+0xa5d8e4>
     b64:	49545845 	ldmdbmi	r4, {r0, r2, r6, fp, ip, lr}^
     b68:	202c3531 	eorcs	r3, ip, r1, lsr r5
     b6c:	4f495047 	svcmi	0x00495047
     b70:	47202c41 	strmi	r2, [r0, -r1, asr #24]!
     b74:	5f4f4950 	svcpl	0x004f4950
     b78:	5f4e4950 	svcpl	0x004e4950
     b7c:	202c3531 	eorcs	r3, ip, r1, lsr r5
     b80:	49545845 	ldmdbmi	r4, {r0, r2, r6, fp, ip, lr}^
     b84:	495f3531 	ldmdbmi	pc, {r0, r4, r5, r8, sl, ip, sp}^	; <UNPREDICTABLE>
     b88:	007d5152 	rsbseq	r5, sp, r2, asr r1
     b8c:	4e495f5f 	mcrmi	15, 2, r5, cr9, cr15, {2}
     b90:	22203854 	eorcs	r3, r0, #84, 16	; 0x540000
     b94:	00226868 	eoreq	r6, r2, r8, ror #16
     b98:	49545845 	ldmdbmi	r4, {r0, r2, r6, fp, ip, lr}^
     b9c:	6972745f 	ldmdbvs	r2!, {r0, r1, r2, r3, r4, r6, sl, ip, sp, lr}^
     ba0:	72656767 	rsbvc	r6, r5, #27000832	; 0x19c0000
     ba4:	6c61665f 	stclvs	6, cr6, [r1], #-380	; 0xfffffe84
     ba8:	676e696c 	strbvs	r6, [lr, -ip, ror #18]!
     bac:	54003120 	strpl	r3, [r0], #-288	; 0xfffffee0
     bb0:	5f354d49 	svcpl	0x00354d49
     bb4:	45534142 	ldrbmi	r4, [r3, #-322]	; 0xfffffebe
     bb8:	34783020 	ldrbtcc	r3, [r8], #-32	; 0xffffffe0
     bbc:	30303030 	eorscc	r3, r0, r0, lsr r0
     bc0:	75303043 	ldrvc	r3, [r0, #-67]!	; 0xffffffbd
     bc4:	475f5f00 	ldrbmi	r5, [pc, -r0, lsl #30]
     bc8:	485f4343 	ldmdami	pc, {r0, r1, r6, r8, r9, lr}^	; <UNPREDICTABLE>
     bcc:	5f455641 	svcpl	0x00455641
     bd0:	434e5953 	movtmi	r5, #59731	; 0xe953
     bd4:	4d4f435f 	stclmi	3, cr4, [pc, #-380]	; a60 <_Min_Stack_Size+0x660>
     bd8:	45524150 	ldrbmi	r4, [r2, #-336]	; 0xfffffeb0
     bdc:	444e415f 	strbmi	r4, [lr], #-351	; 0xfffffea1
     be0:	4157535f 	cmpmi	r7, pc, asr r3
     be4:	20315f50 	eorscs	r5, r1, r0, asr pc
     be8:	4e490031 	mcrmi	0, 2, r0, cr9, cr1, {1}
     bec:	454c5f54 	strbmi	r5, [ip, #-3924]	; 0xfffff0ac
     bf0:	31545341 	cmpcc	r4, r1, asr #6
     bf4:	414d5f36 	cmpmi	sp, r6, lsr pc
     bf8:	5f282058 	svcpl	0x00282058
     bfc:	544e495f 	strbpl	r4, [lr], #-2399	; 0xfffff6a1
     c00:	41454c5f 	cmpmi	r5, pc, asr ip
     c04:	36315453 			; <UNDEFINED> instruction: 0x36315453
     c08:	58414d5f 	stmdapl	r1, {r0, r1, r2, r3, r4, r6, r8, sl, fp, lr}^
     c0c:	00295f5f 	eoreq	r5, r9, pc, asr pc
     c10:	49555f5f 	ldmdbmi	r5, {r0, r1, r2, r3, r4, r6, r8, r9, sl, fp, ip, lr}^
     c14:	4c5f544e 	cfldrdmi	mvd5, [pc], {78}	; 0x4e
     c18:	54534145 	ldrbpl	r4, [r3], #-325	; 0xfffffebb
     c1c:	4d5f3631 	ldclmi	6, cr3, [pc, #-196]	; b60 <_Min_Stack_Size+0x760>
     c20:	5f5f5841 	svcpl	0x005f5841
     c24:	66783020 	ldrbtvs	r3, [r8], -r0, lsr #32
     c28:	00666666 	rsbeq	r6, r6, r6, ror #12
     c2c:	54535f5f 	ldrbpl	r5, [r3], #-3935	; 0xfffff0a1
     c30:	485f4344 	ldmdami	pc, {r2, r6, r8, r9, lr}^	; <UNPREDICTABLE>
     c34:	4554534f 	ldrbmi	r5, [r4, #-847]	; 0xfffffcb1
     c38:	205f5f44 	subscs	r5, pc, r4, asr #30
     c3c:	5f5f0031 	svcpl	0x005f0031
     c40:	464c4c55 			; <UNDEFINED> instruction: 0x464c4c55
     c44:	54434152 	strbpl	r4, [r3], #-338	; 0xfffffeae
     c48:	4942465f 	stmdbmi	r2, {r0, r1, r2, r3, r4, r6, r9, sl, lr}^
     c4c:	205f5f54 	subscs	r5, pc, r4, asr pc	; <UNPREDICTABLE>
     c50:	53003436 	movwpl	r3, #1078	; 0x436
     c54:	20324950 	eorscs	r4, r2, r0, asr r9
     c58:	50532828 	subspl	r2, r3, r8, lsr #16
     c5c:	79545f49 	ldmdbvc	r4, {r0, r3, r6, r8, r9, sl, fp, ip, lr}^
     c60:	65646570 	strbvs	r6, [r4, #-1392]!	; 0xfffffa90
     c64:	20745f66 	rsbscs	r5, r4, r6, ror #30
     c68:	5053292a 	subspl	r2, r3, sl, lsr #18
     c6c:	425f3249 	subsmi	r3, pc, #-1879048188	; 0x90000004
     c70:	29455341 	stmdbcs	r5, {r0, r6, r8, r9, ip, lr}^
     c74:	444c5f00 	strbmi	r5, [ip], #-3840	; 0xfffff100
     c78:	455f4c42 	ldrbmi	r4, [pc, #-3138]	; 3e <_Min_Heap_Size-0x1c2>
     c7c:	42445f51 	submi	r5, r4, #324	; 0x144
     c80:	0031204c 	eorseq	r2, r1, ip, asr #32
     c84:	4f495047 	svcmi	0x00495047
     c88:	4e49505f 	mcrmi	0, 2, r5, cr9, cr15, {2}
     c8c:	2820345f 	stmdacs	r0!, {r0, r1, r2, r3, r4, r6, sl, ip, sp}
     c90:	6e697528 	cdpvs	5, 6, cr7, cr9, cr8, {1}
     c94:	5f363174 	svcpl	0x00363174
     c98:	30202974 	eorcc	r2, r0, r4, ror r9
     c9c:	31303078 	teqcc	r0, r8, ror r0
     ca0:	5f002930 	svcpl	0x00002930
     ca4:	544e495f 	strbpl	r4, [lr], #-2399	; 0xfffff6a1
     ca8:	5341465f 	movtpl	r4, #5727	; 0x165f
     cac:	5f343654 	svcpl	0x00343654
     cb0:	45505954 	ldrbmi	r5, [r0, #-2388]	; 0xfffff6ac
     cb4:	6c205f5f 	stcvs	15, cr5, [r0], #-380	; 0xfffffe84
     cb8:	20676e6f 	rsbcs	r6, r7, pc, ror #28
     cbc:	676e6f6c 	strbvs	r6, [lr, -ip, ror #30]!
     cc0:	746e6920 	strbtvc	r6, [lr], #-2336	; 0xfffff6e0
     cc4:	415f5f00 	cmpmi	pc, r0, lsl #30
     cc8:	465f4d52 			; <UNDEFINED> instruction: 0x465f4d52
     ccc:	55544145 	ldrbpl	r4, [r4, #-325]	; 0xfffffebb
     cd0:	435f4552 	cmpmi	pc, #343932928	; 0x14800000
     cd4:	4f52504f 	svcmi	0x0052504f
     cd8:	35312043 	ldrcc	r2, [r1, #-67]!	; 0xffffffbd
     cdc:	43435200 	movtmi	r5, #12800	; 0x3200
     ce0:	4950475f 	ldmdbmi	r0, {r0, r1, r2, r3, r4, r6, r8, r9, sl, lr}^
     ce4:	435f434f 	cmpmi	pc, #1006632961	; 0x3c000001
     ce8:	455f4b4c 	ldrbmi	r4, [pc, #-2892]	; 1a4 <_Min_Heap_Size-0x5c>
     cec:	2029284e 	eorcs	r2, r9, lr, asr #16
     cf0:	43435228 	movtmi	r5, #12840	; 0x3228
     cf4:	50413e2d 	subpl	r3, r1, sp, lsr #28
     cf8:	4e453242 	cdpmi	2, 4, cr3, cr5, cr2, {2}
     cfc:	3d7c2052 	ldclcc	0, cr2, [ip, #-328]!	; 0xfffffeb8
     d00:	3c312820 	ldccc	8, cr2, [r1], #-128	; 0xffffff80
     d04:	2929343c 	stmdbcs	r9!, {r2, r3, r4, r5, sl, ip, sp}
     d08:	544e4900 	strbpl	r4, [lr], #-2304	; 0xfffff700
     d0c:	414d5f38 	cmpmi	sp, r8, lsr pc
     d10:	5f282058 	svcpl	0x00282058
     d14:	544e495f 	strbpl	r4, [lr], #-2399	; 0xfffff6a1
     d18:	414d5f38 	cmpmi	sp, r8, lsr pc
     d1c:	295f5f58 	ldmdbcs	pc, {r3, r4, r6, r8, r9, sl, fp, ip, lr}^	; <UNPREDICTABLE>
     d20:	535f5f00 	cmppl	pc, #0, 30
     d24:	5f455a49 	svcpl	0x00455a49
     d28:	205f5f54 	subscs	r5, pc, r4, asr pc	; <UNPREDICTABLE>
     d2c:	52545000 	subspl	r5, r4, #0
     d30:	46464944 	strbmi	r4, [r6], -r4, asr #18
     d34:	58414d5f 	stmdapl	r1, {r0, r1, r2, r3, r4, r6, r8, sl, fp, lr}^
     d38:	5f5f2820 	svcpl	0x005f2820
     d3c:	44525450 	ldrbmi	r5, [r2], #-1104	; 0xfffffbb0
     d40:	5f464649 	svcpl	0x00464649
     d44:	5f58414d 	svcpl	0x0058414d
     d48:	5f00295f 	svcpl	0x0000295f
     d4c:	544c465f 	strbpl	r4, [ip], #-1631	; 0xfffff9a1
     d50:	4d5f3233 	lfmmi	f3, 2, [pc, #-204]	; c8c <_Min_Stack_Size+0x88c>
     d54:	315f5841 	cmpcc	pc, r1, asr #16
     d58:	58455f30 	stmdapl	r5, {r4, r5, r8, r9, sl, fp, ip, lr}^
     d5c:	205f5f50 	subscs	r5, pc, r0, asr pc	; <UNPREDICTABLE>
     d60:	5f003833 	svcpl	0x00003833
     d64:	4e49555f 	mcrmi	5, 2, r5, cr9, cr15, {2}
     d68:	5f363154 	svcpl	0x00363154
     d6c:	45505954 	ldrbmi	r5, [r0, #-2388]	; 0xfffff6ac
     d70:	73205f5f 			; <UNDEFINED> instruction: 0x73205f5f
     d74:	74726f68 	ldrbtvc	r6, [r2], #-3944	; 0xfffff098
     d78:	736e7520 	cmnvc	lr, #32, 10	; 0x8000000
     d7c:	656e6769 	strbvs	r6, [lr, #-1897]!	; 0xfffff897
     d80:	6e692064 	cdpvs	0, 6, cr2, cr9, cr4, {3}
     d84:	50470074 	subpl	r0, r7, r4, ror r0
     d88:	505f4f49 	subspl	r4, pc, r9, asr #30
     d8c:	375f4e49 	ldrbcc	r4, [pc, -r9, asr #28]
     d90:	75282820 	strvc	r2, [r8, #-2080]!	; 0xfffff7e0
     d94:	31746e69 	cmncc	r4, r9, ror #28
     d98:	29745f36 	ldmdbcs	r4!, {r1, r2, r4, r5, r8, r9, sl, fp, ip, lr}^
     d9c:	30783020 	rsbscc	r3, r8, r0, lsr #32
     da0:	29303830 	ldmdbcs	r0!, {r4, r5, fp, ip, sp}
     da4:	45525f00 	ldrbmi	r5, [r2, #-3840]	; 0xfffff100
     da8:	5f544e45 	svcpl	0x00544e45
     dac:	43454843 	movtmi	r4, #22595	; 0x5843
     db0:	4d545f4b 	ldclmi	15, cr5, [r4, #-300]	; 0xfffffed4
     db4:	72617628 	rsbvc	r7, r1, #40, 12	; 0x2800000
     db8:	525f2029 	subspl	r2, pc, #41	; 0x29
     dbc:	544e4545 	strbpl	r4, [lr], #-1349	; 0xfffffabb
     dc0:	4548435f 	strbmi	r4, [r8, #-863]	; 0xfffffca1
     dc4:	76284b43 	strtvc	r4, [r8], -r3, asr #22
     dc8:	202c7261 	eorcs	r7, ip, r1, ror #4
     dcc:	636f6c5f 	cmnvs	pc, #24320	; 0x5f00
     dd0:	69746c61 	ldmdbvs	r4!, {r0, r5, r6, sl, fp, sp, lr}^
     dd4:	625f656d 	subsvs	r6, pc, #457179136	; 0x1b400000
     dd8:	202c6675 	eorcs	r6, ip, r5, ror r6
     ddc:	75727473 	ldrbvc	r7, [r2, #-1139]!	; 0xfffffb8d
     de0:	5f207463 	svcpl	0x00207463
     de4:	206d745f 	rsbcs	r7, sp, pc, asr r4
     de8:	73202c2a 			; <UNDEFINED> instruction: 0x73202c2a
     dec:	6f657a69 	svcvs	0x00657a69
     df0:	282a2066 	stmdacs	sl!, {r1, r2, r5, r6, sp}
     df4:	72617628 	rsbvc	r7, r1, #40, 12	; 0x2800000
     df8:	5f3e2d29 	svcpl	0x003e2d29
     dfc:	61636f6c 	cmnvs	r3, ip, ror #30
     e00:	6d69746c 	cfstrdvs	mvd7, [r9, #-432]!	; 0xfffffe50
     e04:	75625f65 	strbvc	r5, [r2, #-3941]!	; 0xfffff09b
     e08:	202c2966 	eorcs	r2, ip, r6, ror #18
     e0c:	5f5f0029 	svcpl	0x005f0029
     e10:	52465355 	subpl	r5, r6, #1409286145	; 0x54000001
     e14:	5f544341 	svcpl	0x00544341
     e18:	5f58414d 	svcpl	0x0058414d
     e1c:	5830205f 	ldmdapl	r0!, {r0, r1, r2, r3, r4, r6, sp}
     e20:	2d504646 	ldclcs	6, cr4, [r0, #-280]	; 0xfffffee8
     e24:	52485538 	subpl	r5, r8, #56, 10	; 0xe000000
     e28:	54584500 	ldrbpl	r4, [r8], #-1280	; 0xfffffb00
     e2c:	20303149 	eorscs	r3, r0, r9, asr #2
     e30:	5f003031 	svcpl	0x00003031
     e34:	4e49555f 	mcrmi	5, 2, r5, cr9, cr15, {2}
     e38:	52545054 	subspl	r5, r4, #84	; 0x54
     e3c:	58414d5f 	stmdapl	r1, {r0, r1, r2, r3, r4, r6, r8, sl, fp, lr}^
     e40:	30205f5f 	eorcc	r5, r0, pc, asr pc
     e44:	66666678 			; <UNDEFINED> instruction: 0x66666678
     e48:	66666666 	strbtvs	r6, [r6], -r6, ror #12
     e4c:	5f005566 	svcpl	0x00005566
     e50:	65656e5f 	strbvs	r6, [r5, #-3679]!	; 0xfffff1a1
     e54:	63775f64 	cmnvs	r7, #100, 30	; 0x190
     e58:	5f726168 	svcpl	0x00726168
     e5c:	5f5f0074 	svcpl	0x005f0074
     e60:	33544c46 	cmpcc	r4, #17920	; 0x4600
     e64:	494d5f32 	stmdbmi	sp, {r1, r4, r5, r8, r9, sl, fp, ip, lr}^
     e68:	58455f4e 	stmdapl	r5, {r1, r2, r3, r6, r8, r9, sl, fp, ip, lr}^
     e6c:	205f5f50 	subscs	r5, pc, r0, asr pc	; <UNPREDICTABLE>
     e70:	32312d28 	eorscc	r2, r1, #40, 26	; 0xa00
     e74:	5f002935 	svcpl	0x00002935
     e78:	7365725f 	cmnvc	r5, #-268435451	; 0xf0000005
     e7c:	5f746c75 	svcpl	0x00746c75
     e80:	5f657375 	svcpl	0x00657375
     e84:	63656863 	cmnvs	r5, #6488064	; 0x630000
     e88:	5f5f206b 	svcpl	0x005f206b
     e8c:	72747461 	rsbsvc	r7, r4, #1627389952	; 0x61000000
     e90:	74756269 	ldrbtvc	r6, [r5], #-617	; 0xfffffd97
     e94:	285f5f65 	ldmdacs	pc, {r0, r2, r5, r6, r8, r9, sl, fp, ip, lr}^	; <UNPREDICTABLE>
     e98:	775f5f28 	ldrbvc	r5, [pc, -r8, lsr #30]
     e9c:	5f6e7261 	svcpl	0x006e7261
     ea0:	73756e75 	cmnvc	r5, #1872	; 0x750
     ea4:	725f6465 	subsvc	r6, pc, #1694498816	; 0x65000000
     ea8:	6c757365 	ldclvs	3, cr7, [r5], #-404	; 0xfffffe6c
     eac:	295f5f74 	ldmdbcs	pc, {r2, r4, r5, r6, r8, r9, sl, fp, ip, lr}^	; <UNPREDICTABLE>
     eb0:	58450029 	stmdapl	r5, {r0, r3, r5}^
     eb4:	32314954 	eorscc	r4, r1, #84, 18	; 0x150000
     eb8:	32314250 	eorscc	r4, r1, #80, 4
     ebc:	58452820 	stmdapl	r5, {r5, fp, sp}^
     ec0:	475f4954 			; <UNDEFINED> instruction: 0x475f4954
     ec4:	5f4f4950 	svcpl	0x004f4950
     ec8:	7070614d 	rsbsvc	r6, r0, sp, asr #2
     ecc:	5f676e69 	svcpl	0x00676e69
     ed0:	457b2974 	ldrbmi	r2, [fp, #-2420]!	; 0xfffff68c
     ed4:	31495458 	cmpcc	r9, r8, asr r4
     ed8:	47202c32 			; <UNDEFINED> instruction: 0x47202c32
     edc:	424f4950 	submi	r4, pc, #80, 18	; 0x140000
     ee0:	5047202c 	subpl	r2, r7, ip, lsr #32
     ee4:	505f4f49 	subspl	r4, pc, r9, asr #30
     ee8:	315f4e49 	cmpcc	pc, r9, asr #28
     eec:	45202c32 	strmi	r2, [r0, #-3122]!	; 0xfffff3ce
     ef0:	31495458 	cmpcc	r9, r8, asr r4
     ef4:	52495f32 	subpl	r5, r9, #50, 30	; 0xc8
     ef8:	5f007d51 	svcpl	0x00007d51
     efc:	5f445342 	svcpl	0x00445342
     f00:	44525450 	ldrbmi	r5, [r2], #-1104	; 0xfffffbb0
     f04:	5f464649 	svcpl	0x00464649
     f08:	00205f54 	eoreq	r5, r0, r4, asr pc
     f0c:	31544e49 	cmpcc	r4, r9, asr #28
     f10:	414d5f36 	cmpmi	sp, r6, lsr pc
     f14:	5f282058 	svcpl	0x00282058
     f18:	544e495f 	strbpl	r4, [lr], #-2399	; 0xfffff6a1
     f1c:	4d5f3631 	ldclmi	6, cr3, [pc, #-196]	; e60 <_Min_Stack_Size+0xa60>
     f20:	5f5f5841 	svcpl	0x005f5841
     f24:	5f5f0029 	svcpl	0x005f0029
     f28:	52464c55 	subpl	r4, r6, #21760	; 0x5500
     f2c:	5f544341 	svcpl	0x00544341
     f30:	54494246 	strbpl	r4, [r9], #-582	; 0xfffffdba
     f34:	33205f5f 			; <UNDEFINED> instruction: 0x33205f5f
     f38:	45500032 	ldrbmi	r0, [r0, #-50]	; 0xffffffce
     f3c:	48504952 	ldmdami	r0, {r1, r4, r6, r8, fp, lr}^
     f40:	4c415245 	sfmmi	f5, 2, [r1], {69}	; 0x45
     f44:	41425f53 	cmpmi	r2, r3, asr pc
     f48:	30204553 	eorcc	r4, r0, r3, asr r5
     f4c:	30303478 	eorscc	r3, r0, r8, ror r4
     f50:	30303030 	eorscc	r3, r0, r0, lsr r0
     f54:	53007530 	movwpl	r7, #1328	; 0x530
     f58:	5f334950 	svcpl	0x00334950
     f5c:	20515249 	subscs	r5, r1, r9, asr #4
     f60:	5f003135 	svcpl	0x00003135
     f64:	544c465f 	strbpl	r4, [ip], #-1631	; 0xfffff9a1
     f68:	4d5f3436 	cfldrdmi	mvd3, [pc, #-216]	; e98 <_Min_Stack_Size+0xa98>
     f6c:	315f4e49 	cmpcc	pc, r9, asr #28
     f70:	58455f30 	stmdapl	r5, {r4, r5, r8, r9, sl, fp, ip, lr}^
     f74:	205f5f50 	subscs	r5, pc, r0, asr pc	; <UNPREDICTABLE>
     f78:	30332d28 	eorscc	r2, r3, r8, lsr #26
     f7c:	5f002937 	svcpl	0x00002937
     f80:	7a69735f 	bvc	1a5dd04 <_Min_Stack_Size+0x1a5d904>
     f84:	20745f65 	rsbscs	r5, r4, r5, ror #30
     f88:	625f5f00 	subsvs	r5, pc, #0, 30
     f8c:	646e756f 	strbtvs	r7, [lr], #-1391	; 0xfffffa91
     f90:	00206465 	eoreq	r6, r0, r5, ror #8
     f94:	6e695f5f 	mcrvs	15, 3, r5, cr9, cr15, {2}
     f98:	61665f74 	smcvs	26100	; 0x65f4
     f9c:	32337473 	eorscc	r7, r3, #1929379840	; 0x73000000
     fa0:	645f745f 	ldrbvs	r7, [pc], #-1119	; fa8 <_Min_Stack_Size+0xba8>
     fa4:	6e696665 	cdpvs	6, 6, cr6, cr9, cr5, {3}
     fa8:	31206465 			; <UNDEFINED> instruction: 0x31206465
     fac:	495f5f00 	ldmdbmi	pc, {r8, r9, sl, fp, ip, lr}^	; <UNPREDICTABLE>
     fb0:	465f544e 	ldrbmi	r5, [pc], -lr, asr #8
     fb4:	36545341 	ldrbcc	r5, [r4], -r1, asr #6
     fb8:	49575f34 	ldmdbmi	r7, {r2, r4, r5, r8, r9, sl, fp, ip, lr}^
     fbc:	5f485444 	svcpl	0x00485444
     fc0:	3436205f 	ldrtcc	r2, [r6], #-95	; 0xffffffa1
     fc4:	5f5f5f00 	svcpl	0x005f5f00
     fc8:	5f746e69 	svcpl	0x00746e69
     fcc:	61686377 	smcvs	34359	; 0x8637
     fd0:	5f745f72 	svcpl	0x00745f72
     fd4:	49002068 	stmdbmi	r0, {r3, r5, r6, sp}
     fd8:	3631544e 	ldrtcc	r5, [r1], -lr, asr #8
     fdc:	7828435f 	stmdavc	r8!, {r0, r1, r2, r3, r4, r6, r8, r9, lr}
     fe0:	5f5f2029 	svcpl	0x005f2029
     fe4:	31544e49 	cmpcc	r4, r9, asr #28
     fe8:	28435f36 	stmdacs	r3, {r1, r2, r4, r5, r8, r9, sl, fp, ip, lr}^
     fec:	5f002978 	svcpl	0x00002978
     ff0:	5246535f 	subpl	r5, r6, #2080374785	; 0x7c000001
     ff4:	5f544341 	svcpl	0x00544341
     ff8:	49535045 	ldmdbmi	r3, {r0, r2, r6, ip, lr}^
     ffc:	5f4e4f4c 	svcpl	0x004e4f4c
    1000:	7830205f 	ldmdavc	r0!, {r0, r1, r2, r3, r4, r6, sp}
    1004:	372d5031 			; <UNDEFINED> instruction: 0x372d5031
    1008:	5f005248 	svcpl	0x00005248
    100c:	4e4f435f 	mcrmi	3, 2, r4, cr15, cr15, {2}
    1010:	31544143 	cmpcc	r4, r3, asr #2
    1014:	792c7828 	stmdbvc	ip!, {r3, r5, fp, ip, sp, lr}
    1018:	20782029 	rsbscs	r2, r8, r9, lsr #32
    101c:	79202323 	stmdbvc	r0!, {r0, r1, r5, r8, r9, sp}
    1020:	435f5f00 	cmpmi	pc, #0, 30
    1024:	55535f43 	ldrbpl	r5, [r3, #-3907]	; 0xfffff0bd
    1028:	524f5050 	subpl	r5, pc, #80	; 0x50
    102c:	5f5f5354 	svcpl	0x005f5354
    1030:	4c4e495f 	mcrrmi	9, 5, r4, lr, cr15	; <UNPREDICTABLE>
    1034:	20454e49 	subcs	r4, r5, r9, asr #28
    1038:	5f5f0031 	svcpl	0x005f0031
    103c:	5f4c4244 	svcpl	0x004c4244
    1040:	5f4e494d 	svcpl	0x004e494d
    1044:	455f3031 	ldrbmi	r3, [pc, #-49]	; 101b <_Min_Stack_Size+0xc1b>
    1048:	5f5f5058 	svcpl	0x005f5058
    104c:	332d2820 			; <UNDEFINED> instruction: 0x332d2820
    1050:	00293730 	eoreq	r3, r9, r0, lsr r7
    1054:	53555f5f 	cmppl	r5, #380	; 0x17c
    1058:	42465f51 	submi	r5, r6, #324	; 0x144
    105c:	5f5f5449 	svcpl	0x005f5449
    1060:	00323320 	eorseq	r3, r2, r0, lsr #6
    1064:	524f5f5f 	subpl	r5, pc, #380	; 0x17c
    1068:	5f524544 	svcpl	0x00524544
    106c:	5f474942 	svcpl	0x00474942
    1070:	49444e45 	stmdbmi	r4, {r0, r2, r6, r9, sl, fp, lr}^
    1074:	5f5f4e41 	svcpl	0x005f4e41
    1078:	32333420 	eorscc	r3, r3, #32, 8	; 0x20000000
    107c:	58450031 	stmdapl	r5, {r0, r4, r5}^
    1080:	34314954 	ldrtcc	r4, [r1], #-2388	; 0xfffff6ac
    1084:	00343120 	eorseq	r3, r4, r0, lsr #2
    1088:	48545f5f 	ldmdami	r4, {r0, r1, r2, r3, r4, r6, r8, r9, sl, fp, ip, lr}^
    108c:	5f424d55 	svcpl	0x00424d55
    1090:	45544e49 	ldrbmi	r4, [r4, #-3657]	; 0xfffff1b7
    1094:	524f5752 	subpl	r5, pc, #21495808	; 0x1480000
    1098:	205f5f4b 	subscs	r5, pc, fp, asr #30
    109c:	5f5f0031 	svcpl	0x005f0031
    10a0:	465f5153 			; <UNDEFINED> instruction: 0x465f5153
    10a4:	5f544942 	svcpl	0x00544942
    10a8:	3133205f 	teqcc	r3, pc, asr r0
    10ac:	49564e00 	ldmdbmi	r6, {r9, sl, fp, lr}^
    10b0:	53555f43 	cmppl	r5, #268	; 0x10c
    10b4:	32545241 	subscc	r5, r4, #268435460	; 0x10000004
    10b8:	5152495f 	cmppl	r2, pc, asr r9
    10bc:	7369445f 	cmnvc	r9, #1593835520	; 0x5f000000
    10c0:	656c6261 	strbvs	r6, [ip, #-609]!	; 0xfffffd9f
    10c4:	564e2820 	strbpl	r2, [lr], -r0, lsr #16
    10c8:	495f4349 	ldmdbmi	pc, {r0, r3, r6, r8, r9, lr}^	; <UNPREDICTABLE>
    10cc:	31524543 	cmpcc	r2, r3, asr #10
    10d0:	203d7c20 	eorscs	r7, sp, r0, lsr #24
    10d4:	283c3c31 	ldmdacs	ip!, {r0, r4, r5, sl, fp, ip, sp}
    10d8:	52415355 	subpl	r5, r1, #1409286145	; 0x54000001
    10dc:	495f3254 	ldmdbmi	pc, {r2, r4, r6, r9, ip, sp}^	; <UNPREDICTABLE>
    10e0:	2d205152 	stfcss	f5, [r0, #-328]!	; 0xfffffeb8
    10e4:	29323320 	ldmdbcs	r2!, {r5, r8, r9, ip, sp}
    10e8:	455f0029 	ldrbmi	r0, [pc, #-41]	; 10c7 <_Min_Stack_Size+0xcc7>
    10ec:	4144494c 	cmpmi	r4, ip, asr #18
    10f0:	5f454c42 	svcpl	0x00454c42
    10f4:	494c4e49 	stmdbmi	ip, {r0, r3, r6, r9, sl, fp, lr}^
    10f8:	7320454e 			; <UNDEFINED> instruction: 0x7320454e
    10fc:	69746174 	ldmdbvs	r4!, {r2, r4, r5, r6, r8, sp, lr}^
    1100:	5f5f2063 	svcpl	0x005f2063
    1104:	696c6e69 	stmdbvs	ip!, {r0, r3, r5, r6, r9, sl, fp, sp, lr}^
    1108:	5f5f656e 	svcpl	0x005f656e
    110c:	49555f00 	ldmdbmi	r5, {r8, r9, sl, fp, ip, lr}^
    1110:	3631544e 	ldrtcc	r5, [r1], -lr, asr #8
    1114:	445f545f 	ldrbmi	r5, [pc], #-1119	; 111c <_Min_Stack_Size+0xd1c>
    1118:	414c4345 	cmpmi	ip, r5, asr #6
    111c:	20444552 	subcs	r4, r4, r2, asr r5
    1120:	555f5f00 	ldrbpl	r5, [pc, #-3840]	; 228 <_Min_Heap_Size+0x28>
    1124:	465f5148 	ldrbmi	r5, [pc], -r8, asr #2
    1128:	5f544942 	svcpl	0x00544942
    112c:	3631205f 			; <UNDEFINED> instruction: 0x3631205f
    1130:	544e4900 	strbpl	r4, [lr], #-2304	; 0xfffff700
    1134:	41454c5f 	cmpmi	r5, pc, asr ip
    1138:	34365453 	ldrtcc	r5, [r6], #-1107	; 0xfffffbad
    113c:	58414d5f 	stmdapl	r1, {r0, r1, r2, r3, r4, r6, r8, sl, fp, lr}^
    1140:	5f5f2820 	svcpl	0x005f2820
    1144:	5f544e49 	svcpl	0x00544e49
    1148:	5341454c 	movtpl	r4, #5452	; 0x154c
    114c:	5f343654 	svcpl	0x00343654
    1150:	5f58414d 	svcpl	0x0058414d
    1154:	5f00295f 	svcpl	0x0000295f
    1158:	4e454552 	mcrmi	5, 2, r4, cr5, cr2, {2}
    115c:	4d455f54 	stclmi	15, cr5, [r5, #-336]	; 0xfffffeb0
    1160:	45475245 	strbmi	r5, [r7, #-581]	; 0xfffffdbb
    1164:	5f59434e 	svcpl	0x0059434e
    1168:	455a4953 	ldrbmi	r4, [sl, #-2387]	; 0xfffff6ad
    116c:	00353220 	eorseq	r3, r5, r0, lsr #4
    1170:	394d4954 	stmdbcc	sp, {r2, r4, r6, r8, fp, lr}^
    1174:	5341425f 	movtpl	r4, #4703	; 0x125f
    1178:	78302045 	ldmdavc	r0!, {r0, r2, r6, sp}
    117c:	31303034 	teqcc	r0, r4, lsr r0
    1180:	30304334 	eorscc	r4, r0, r4, lsr r3
    1184:	5f5f0075 	svcpl	0x005f0075
    1188:	44525450 	ldrbmi	r5, [r2], #-1104	; 0xfffffbb0
    118c:	5f464649 	svcpl	0x00464649
    1190:	54444957 	strbpl	r4, [r4], #-2391	; 0xfffff6a9
    1194:	205f5f48 	subscs	r5, pc, r8, asr #30
    1198:	5f003233 	svcpl	0x00003233
    119c:	6165775f 	cmnvs	r5, pc, asr r7
    11a0:	65725f6b 	ldrbvs	r5, [r2, #-3947]!	; 0xfffff095
    11a4:	65726566 	ldrbvs	r6, [r2, #-1382]!	; 0xfffffa9a
    11a8:	2865636e 	stmdacs	r5!, {r1, r2, r3, r5, r6, r8, r9, sp, lr}^
    11ac:	2c6d7973 			; <UNDEFINED> instruction: 0x2c6d7973
    11b0:	61696c61 	cmnvs	r9, r1, ror #24
    11b4:	5f202973 	svcpl	0x00202973
    11b8:	6d73615f 	ldfvse	f6, [r3, #-380]!	; 0xfffffe84
    11bc:	22285f5f 	eorcs	r5, r8, #380	; 0x17c
    11c0:	6165772e 	cmnvs	r5, lr, lsr #14
    11c4:	2022206b 	eorcs	r2, r2, fp, rrx
    11c8:	696c6123 	stmdbvs	ip!, {r0, r1, r5, r8, sp, lr}^
    11cc:	3b297361 	blcc	a5df58 <_Min_Stack_Size+0xa5db58>
    11d0:	615f5f20 	cmpvs	pc, r0, lsr #30
    11d4:	5f5f6d73 	svcpl	0x005f6d73
    11d8:	652e2228 	strvs	r2, [lr, #-552]!	; 0xfffffdd8
    11dc:	22207571 	eorcs	r7, r0, #473956352	; 0x1c400000
    11e0:	6c612320 	stclvs	3, cr2, [r1], #-128	; 0xffffff80
    11e4:	20736169 	rsbscs	r6, r3, r9, ror #2
    11e8:	22202c22 	eorcs	r2, r0, #8704	; 0x2200
    11ec:	79732320 	ldmdbvc	r3!, {r5, r8, r9, sp}^
    11f0:	5f00296d 	svcpl	0x0000296d
    11f4:	4e49555f 	mcrmi	5, 2, r5, cr9, cr15, {2}
    11f8:	41465f54 	cmpmi	r6, r4, asr pc
    11fc:	5f385453 	svcpl	0x00385453
    1200:	5f58414d 	svcpl	0x0058414d
    1204:	7830205f 	ldmdavc	r0!, {r0, r1, r2, r3, r4, r6, sp}
    1208:	66666666 	strbtvs	r6, [r6], -r6, ror #12
    120c:	66666666 	strbtvs	r6, [r6], -r6, ror #12
    1210:	5f5f0055 	svcpl	0x005f0055
    1214:	5f736168 	svcpl	0x00736168
    1218:	65747865 	ldrbvs	r7, [r4, #-2149]!	; 0xfffff79b
    121c:	6f69736e 	svcvs	0x0069736e
    1220:	5f5f206e 	svcpl	0x005f206e
    1224:	5f736168 	svcpl	0x00736168
    1228:	74616566 	strbtvc	r6, [r1], #-1382	; 0xfffffa9a
    122c:	00657275 	rsbeq	r7, r5, r5, ror r2
    1230:	414c5f5f 	cmpmi	ip, pc, asr pc
    1234:	4d554343 	ldclmi	3, cr4, [r5, #-268]	; 0xfffffef4
    1238:	4942495f 	stmdbmi	r2, {r0, r1, r2, r3, r4, r6, r8, fp, lr}^
    123c:	205f5f54 	subscs	r5, pc, r4, asr pc	; <UNPREDICTABLE>
    1240:	45003233 	strmi	r3, [r0, #-563]	; 0xfffffdcd
    1244:	39495458 	stmdbcc	r9, {r3, r4, r6, sl, ip, lr}^
    1248:	20394250 	eorscs	r4, r9, r0, asr r2
    124c:	54584528 	ldrbpl	r4, [r8], #-1320	; 0xfffffad8
    1250:	50475f49 	subpl	r5, r7, r9, asr #30
    1254:	4d5f4f49 	ldclmi	15, cr4, [pc, #-292]	; 1138 <_Min_Stack_Size+0xd38>
    1258:	69707061 	ldmdbvs	r0!, {r0, r5, r6, ip, sp, lr}^
    125c:	745f676e 	ldrbvc	r6, [pc], #-1902	; 1264 <_Min_Stack_Size+0xe64>
    1260:	58457b29 	stmdapl	r5, {r0, r3, r5, r8, r9, fp, ip, sp, lr}^
    1264:	2c394954 			; <UNDEFINED> instruction: 0x2c394954
    1268:	49504720 	ldmdbmi	r0, {r5, r8, r9, sl, lr}^
    126c:	202c424f 	eorcs	r4, ip, pc, asr #4
    1270:	4f495047 	svcmi	0x00495047
    1274:	4e49505f 	mcrmi	0, 2, r5, cr9, cr15, {2}
    1278:	202c395f 	eorcs	r3, ip, pc, asr r9
    127c:	49545845 	ldmdbmi	r4, {r0, r2, r6, fp, ip, lr}^
    1280:	52495f39 	subpl	r5, r9, #57, 30	; 0xe4
    1284:	5f007d51 	svcpl	0x00007d51
    1288:	6e69755f 	mcrvs	5, 3, r7, cr9, cr15, {2}
    128c:	745f3874 	ldrbvc	r3, [pc], #-2164	; 1294 <_Min_Stack_Size+0xe94>
    1290:	485f5f00 	ldmdami	pc, {r8, r9, sl, fp, ip, lr}^	; <UNPREDICTABLE>
    1294:	42495f41 	submi	r5, r9, #260	; 0x104
    1298:	5f5f5449 	svcpl	0x005f5449
    129c:	5f003820 	svcpl	0x00003820
    12a0:	57454e5f 	smlsldpl	r4, r5, pc, lr	; <UNPREDICTABLE>
    12a4:	5f42494c 	svcpl	0x0042494c
    12a8:	205f5f48 	subscs	r5, pc, r8, asr #30
    12ac:	5f5f0031 	svcpl	0x005f0031
    12b0:	5f544e49 	svcpl	0x00544e49
    12b4:	54534146 	ldrbpl	r4, [r3], #-326	; 0xfffffeba
    12b8:	575f3631 	smmlarpl	pc, r1, r6, r3	; <UNPREDICTABLE>
    12bc:	48544449 	ldmdami	r4, {r0, r3, r6, sl, lr}^
    12c0:	33205f5f 			; <UNDEFINED> instruction: 0x33205f5f
    12c4:	50470032 	subpl	r0, r7, r2, lsr r0
    12c8:	5f444f49 	svcpl	0x00444f49
    12cc:	45534142 	ldrbmi	r4, [r3, #-322]	; 0xfffffebe
    12d0:	34783020 	ldrbtcc	r3, [r8], #-32	; 0xffffffe0
    12d4:	31313030 	teqcc	r1, r0, lsr r0
    12d8:	75303034 	ldrvc	r3, [r0, #-52]!	; 0xffffffcc
    12dc:	45525f00 	ldrbmi	r5, [r2, #-3840]	; 0xfffff100
    12e0:	5f544e45 	svcpl	0x00544e45
    12e4:	5452424d 	ldrbpl	r4, [r2], #-589	; 0xfffffdb3
    12e8:	5f43574f 	svcpl	0x0043574f
    12ec:	54415453 	strbpl	r5, [r1], #-1107	; 0xfffffbad
    12f0:	74702845 	ldrbtvc	r2, [r0], #-2117	; 0xfffff7bb
    12f4:	28202972 	stmdacs	r0!, {r1, r4, r5, r6, r8, fp, sp}
    12f8:	72747028 	rsbsvc	r7, r4, #40	; 0x28
    12fc:	5f3e2d29 	svcpl	0x003e2d29
    1300:	6373696d 	cmnvs	r3, #1785856	; 0x1b4000
    1304:	6d5f3e2d 	ldclvs	14, cr3, [pc, #-180]	; 1258 <_Min_Stack_Size+0xe58>
    1308:	6f747262 	svcvs	0x00747262
    130c:	735f6377 	cmpvc	pc, #-603979775	; 0xdc000001
    1310:	65746174 	ldrbvs	r6, [r4, #-372]!	; 0xfffffe8c
    1314:	5f5f0029 	svcpl	0x005f0029
    1318:	5341454c 	movtpl	r4, #5452	; 0x154c
    131c:	20323354 	eorscs	r3, r2, r4, asr r3
    1320:	00226c22 	eoreq	r6, r2, r2, lsr #24
    1324:	4c4c5f5f 	mcrrmi	15, 5, r5, ip, cr15
    1328:	43415246 	movtmi	r5, #4678	; 0x1246
    132c:	494d5f54 	stmdbmi	sp, {r2, r4, r6, r8, r9, sl, fp, ip, lr}^
    1330:	205f5f4e 	subscs	r5, pc, lr, asr #30
    1334:	2e302d28 	cdpcs	13, 3, cr2, cr0, cr8, {1}
    1338:	524c4c35 	subpl	r4, ip, #13568	; 0x3500
    133c:	352e302d 	strcc	r3, [lr, #-45]!	; 0xffffffd3
    1340:	29524c4c 	ldmdbcs	r2, {r2, r3, r6, sl, fp, lr}^
    1344:	495f5f00 	ldmdbmi	pc, {r8, r9, sl, fp, ip, lr}^	; <UNPREDICTABLE>
    1348:	5450544e 	ldrbpl	r5, [r0], #-1102	; 0xfffffbb2
    134c:	414d5f52 	cmpmi	sp, r2, asr pc
    1350:	205f5f58 	subscs	r5, pc, r8, asr pc	; <UNPREDICTABLE>
    1354:	66377830 			; <UNDEFINED> instruction: 0x66377830
    1358:	66666666 	strbtvs	r6, [r6], -r6, ror #12
    135c:	5f006666 	svcpl	0x00006666
    1360:	4e41525f 	mcrmi	2, 2, r5, cr1, cr15, {2}
    1364:	414d5f44 	cmpmi	sp, r4, asr #30
    1368:	78302058 	ldmdavc	r0!, {r3, r4, r6, sp}
    136c:	66666637 			; <UNDEFINED> instruction: 0x66666637
    1370:	66666666 	strbtvs	r6, [r6], -r6, ror #12
    1374:	555f5f00 	ldrbpl	r5, [pc, #-3840]	; 47c <_Min_Stack_Size+0x7c>
    1378:	5f544e49 	svcpl	0x00544e49
    137c:	54534146 	ldrbpl	r4, [r3], #-326	; 0xfffffeba
    1380:	4d5f3631 	ldclmi	6, cr3, [pc, #-196]	; 12c4 <_Min_Stack_Size+0xec4>
    1384:	5f5f5841 	svcpl	0x005f5841
    1388:	66783020 	ldrbtvs	r3, [r8], -r0, lsr #32
    138c:	66666666 	strbtvs	r6, [r6], -r6, ror #12
    1390:	55666666 	strbpl	r6, [r6, #-1638]!	; 0xfffff99a
    1394:	544e4900 	strbpl	r4, [lr], #-2304	; 0xfffff700
    1398:	41454c5f 	cmpmi	r5, pc, asr ip
    139c:	34365453 	ldrtcc	r5, [r6], #-1107	; 0xfffffbad
    13a0:	4e494d5f 	mcrmi	13, 2, r4, cr9, cr15, {2}
    13a4:	5f2d2820 	svcpl	0x002d2820
    13a8:	544e495f 	strbpl	r4, [lr], #-2399	; 0xfffff6a1
    13ac:	41454c5f 	cmpmi	r5, pc, asr ip
    13b0:	34365453 	ldrtcc	r5, [r6], #-1107	; 0xfffffbad
    13b4:	58414d5f 	stmdapl	r1, {r0, r1, r2, r3, r4, r6, r8, sl, fp, lr}^
    13b8:	2d205f5f 	stccs	15, cr5, [r0, #-380]!	; 0xfffffe84
    13bc:	00293120 	eoreq	r3, r9, r0, lsr #2
    13c0:	52415355 	subpl	r5, r1, #1409286145	; 0x54000001
    13c4:	425f3254 	subsmi	r3, pc, #84, 4	; 0x40000005
    13c8:	20455341 	subcs	r5, r5, r1, asr #6
    13cc:	30347830 	eorscc	r7, r4, r0, lsr r8
    13d0:	34343030 	ldrtcc	r3, [r4], #-48	; 0xffffffd0
    13d4:	00753030 	rsbseq	r3, r5, r0, lsr r0
    13d8:	49545845 	ldmdbmi	r4, {r0, r2, r6, fp, ip, lr}^
    13dc:	43503231 	cmpmi	r0, #268435459	; 0x10000003
    13e0:	28203231 	stmdacs	r0!, {r0, r4, r5, r9, ip, sp}
    13e4:	49545845 	ldmdbmi	r4, {r0, r2, r6, fp, ip, lr}^
    13e8:	4950475f 	ldmdbmi	r0, {r0, r1, r2, r3, r4, r6, r8, r9, sl, lr}^
    13ec:	614d5f4f 	cmpvs	sp, pc, asr #30
    13f0:	6e697070 	mcrvs	0, 3, r7, cr9, cr0, {3}
    13f4:	29745f67 	ldmdbcs	r4!, {r0, r1, r2, r5, r6, r8, r9, sl, fp, ip, lr}^
    13f8:	5458457b 	ldrbpl	r4, [r8], #-1403	; 0xfffffa85
    13fc:	2c323149 	ldfcss	f3, [r2], #-292	; 0xfffffedc
    1400:	49504720 	ldmdbmi	r0, {r5, r8, r9, sl, lr}^
    1404:	202c434f 	eorcs	r4, ip, pc, asr #6
    1408:	4f495047 	svcmi	0x00495047
    140c:	4e49505f 	mcrmi	0, 2, r5, cr9, cr15, {2}
    1410:	2c32315f 	ldfcss	f3, [r2], #-380	; 0xfffffe84
    1414:	54584520 	ldrbpl	r4, [r8], #-1312	; 0xfffffae0
    1418:	5f323149 	svcpl	0x00323149
    141c:	7d515249 	lfmvc	f5, 2, [r1, #-292]	; 0xfffffedc
    1420:	475f5f00 	ldrbmi	r5, [pc, -r0, lsl #30]
    1424:	4c43554e 	cfstr64mi	mvdx5, [r3], {78}	; 0x4e
    1428:	5f454b49 	svcpl	0x00454b49
    142c:	4c495542 	cfstr64mi	mvdx5, [r9], {66}	; 0x42
    1430:	5f4e4954 	svcpl	0x004e4954
    1434:	534e4f43 	movtpl	r4, #61251	; 0xef43
    1438:	544e4154 	strbpl	r4, [lr], #-340	; 0xfffffeac
    143c:	3120505f 	qsubcc	r5, pc, r0	; <UNPREDICTABLE>
    1440:	45525f00 	ldrbmi	r5, [r2, #-3840]	; 0xfffff100
    1444:	5f544e45 	svcpl	0x00544e45
    1448:	43454843 	movtmi	r4, #22595	; 0x5843
    144c:	6176284b 	cmnvs	r6, fp, asr #16
    1450:	68772c72 	ldmdavs	r7!, {r1, r4, r5, r6, sl, fp, sp}^
    1454:	742c7461 	strtvc	r7, [ip], #-1121	; 0xfffffb9f
    1458:	2c657079 	stclcs	0, cr7, [r5], #-484	; 0xfffffe1c
    145c:	657a6973 	ldrbvs	r6, [sl, #-2419]!	; 0xfffff68d
    1460:	696e692c 	stmdbvs	lr!, {r2, r3, r5, r8, fp, sp, lr}^
    1464:	64202974 	strtvs	r2, [r0], #-2420	; 0xfffff68c
    1468:	207b206f 	rsbscs	r2, fp, pc, rrx
    146c:	75727473 	ldrbvc	r7, [r2, #-1139]!	; 0xfffffb8d
    1470:	5f207463 	svcpl	0x00207463
    1474:	6e656572 	mcrvs	5, 3, r6, cr5, cr2, {3}
    1478:	5f2a2074 	svcpl	0x002a2074
    147c:	203d2072 	eorscs	r2, sp, r2, ror r0
    1480:	72617628 	rsbvc	r7, r1, #40, 12	; 0x2800000
    1484:	69203b29 	stmdbvs	r0!, {r0, r3, r5, r8, r9, fp, ip, sp}
    1488:	5f282066 	svcpl	0x00282066
    148c:	773e2d72 			; <UNDEFINED> instruction: 0x773e2d72
    1490:	20746168 	rsbscs	r6, r4, r8, ror #2
    1494:	4e203d3d 	mcrmi	13, 1, r3, cr0, cr13, {1}
    1498:	294c4c55 	stmdbcs	ip, {r0, r2, r4, r6, sl, fp, lr}^
    149c:	5f207b20 	svcpl	0x00207b20
    14a0:	773e2d72 			; <UNDEFINED> instruction: 0x773e2d72
    14a4:	20746168 	rsbscs	r6, r4, r8, ror #2
    14a8:	7428203d 	strtvc	r2, [r8], #-61	; 0xffffffc3
    14ac:	29657079 	stmdbcs	r5!, {r0, r3, r4, r5, r6, ip, sp, lr}^
    14b0:	6c6c616d 	stfvse	f6, [ip], #-436	; 0xfffffe4c
    14b4:	7328636f 			; <UNDEFINED> instruction: 0x7328636f
    14b8:	29657a69 	stmdbcs	r5!, {r0, r3, r5, r6, r9, fp, ip, sp, lr}^
    14bc:	5f5f203b 	svcpl	0x005f203b
    14c0:	6e656572 	mcrvs	5, 3, r6, cr5, cr2, {3}
    14c4:	73615f74 	cmnvc	r1, #116, 30	; 0x1d0
    14c8:	74726573 	ldrbtvc	r6, [r2], #-1395	; 0xfffffa8d
    14cc:	2d725f28 	ldclcs	15, cr5, [r2, #-160]!	; 0xffffff60
    14d0:	6168773e 	cmnvs	r8, lr, lsr r7
    14d4:	203b2974 	eorscs	r2, fp, r4, ror r9
    14d8:	74696e69 	strbtvc	r6, [r9], #-3689	; 0xfffff197
    14dc:	207d203b 	rsbscs	r2, sp, fp, lsr r0
    14e0:	6877207d 	ldmdavs	r7!, {r0, r2, r3, r4, r5, r6, sp}^
    14e4:	20656c69 	rsbcs	r6, r5, r9, ror #24
    14e8:	00293028 	eoreq	r3, r9, r8, lsr #32
    14ec:	6e6f4e5f 	mcrvs	14, 3, r4, cr15, cr15, {2}
    14f0:	6c6c756e 	cfstr64vs	mvdx7, [ip], #-440	; 0xfffffe48
    14f4:	5f5f0020 	svcpl	0x005f0020
    14f8:	43554e47 	cmpmi	r5, #1136	; 0x470
    14fc:	4552505f 	ldrbmi	r5, [r2, #-95]	; 0xffffffa1
    1500:	28514552 	ldmdacs	r1, {r1, r4, r6, r8, sl, lr}^
    1504:	2c6a616d 	stfcse	f6, [sl], #-436	; 0xfffffe4c
    1508:	296e696d 	stmdbcs	lr!, {r0, r2, r3, r5, r6, r8, fp, sp, lr}^
    150c:	5f282820 	svcpl	0x00282820
    1510:	554e475f 	strbpl	r4, [lr, #-1887]	; 0xfffff8a1
    1514:	205f5f43 	subscs	r5, pc, r3, asr #30
    1518:	31203c3c 			; <UNDEFINED> instruction: 0x31203c3c
    151c:	2b202936 	blcs	80b9fc <_Min_Stack_Size+0x80b5fc>
    1520:	475f5f20 	ldrbmi	r5, [pc, -r0, lsr #30]
    1524:	5f43554e 	svcpl	0x0043554e
    1528:	4f4e494d 	svcmi	0x004e494d
    152c:	205f5f52 	subscs	r5, pc, r2, asr pc	; <UNPREDICTABLE>
    1530:	28203d3e 	stmdacs	r0!, {r1, r2, r3, r4, r5, r8, sl, fp, ip, sp}
    1534:	6a616d28 	bvs	185c9dc <_Min_Stack_Size+0x185c5dc>
    1538:	3c3c2029 	ldccc	0, cr2, [ip], #-164	; 0xffffff5c
    153c:	29363120 	ldmdbcs	r6!, {r5, r8, ip, sp}
    1540:	28202b20 	stmdacs	r0!, {r5, r8, r9, fp, sp}
    1544:	296e696d 	stmdbcs	lr!, {r0, r2, r3, r5, r6, r8, fp, sp, lr}^
    1548:	545f0029 	ldrbpl	r0, [pc], #-41	; 1550 <_Min_Stack_Size+0x1150>
    154c:	4843575f 	stmdami	r3, {r0, r1, r2, r3, r4, r6, r8, r9, sl, ip, lr}^
    1550:	00205241 	eoreq	r5, r0, r1, asr #4
    1554:	356d6954 	strbcc	r6, [sp, #-2388]!	; 0xfffff6ac
    1558:	54282820 	strtpl	r2, [r8], #-2080	; 0xfffff7e0
    155c:	74324d49 	ldrtvc	r4, [r2], #-3401	; 0xfffff2b7
    1560:	79545f35 	ldmdbvc	r4, {r0, r2, r4, r5, r8, r9, sl, fp, ip, lr}^
    1564:	65446570 	strbvs	r6, [r4, #-1392]	; 0xfffffa90
    1568:	2a745f66 	bcs	1d19308 <_Min_Stack_Size+0x1d18f08>
    156c:	4d495429 	cfstrdmi	mvd5, [r9, #-164]	; 0xffffff5c
    1570:	41425f35 	cmpmi	r2, r5, lsr pc
    1574:	00294553 	eoreq	r4, r9, r3, asr r5
    1578:	444c5f5f 	strbmi	r5, [ip], #-3935	; 0xfffff0a1
    157c:	485f4c42 	ldmdami	pc, {r1, r6, sl, fp, lr}^	; <UNPREDICTABLE>
    1580:	515f5341 	cmppl	pc, r1, asr #6
    1584:	54454955 	strbpl	r4, [r5], #-2389	; 0xfffff6ab
    1588:	4e414e5f 	mcrmi	14, 2, r4, cr1, cr15, {2}
    158c:	31205f5f 			; <UNDEFINED> instruction: 0x31205f5f
    1590:	4e495f00 	cdpmi	15, 4, cr5, cr9, cr0, {0}
    1594:	52545054 	subspl	r5, r4, #84	; 0x54
    1598:	445f545f 	ldrbmi	r5, [pc], #-1119	; 15a0 <_Min_Stack_Size+0x11a0>
    159c:	414c4345 	cmpmi	ip, r5, asr #6
    15a0:	20444552 	subcs	r4, r4, r2, asr r5
    15a4:	49504700 	ldmdbmi	r0, {r8, r9, sl, lr}^
    15a8:	49505f4f 	ldmdbmi	r0, {r0, r1, r2, r3, r6, r8, r9, sl, fp, ip, lr}^
    15ac:	34315f4e 	ldrtcc	r5, [r1], #-3918	; 0xfffff0b2
    15b0:	75282820 	strvc	r2, [r8, #-2080]!	; 0xfffff7e0
    15b4:	31746e69 	cmncc	r4, r9, ror #28
    15b8:	29745f36 	ldmdbcs	r4!, {r1, r2, r4, r5, r8, r9, sl, fp, ip, lr}^
    15bc:	34783020 	ldrbtcc	r3, [r8], #-32	; 0xffffffe0
    15c0:	29303030 	ldmdbcs	r0!, {r4, r5, ip, sp}
    15c4:	465f5f00 	ldrbmi	r5, [pc], -r0, lsl #30
    15c8:	3233544c 	eorscc	r5, r3, #76, 8	; 0x4c000000
    15cc:	41485f58 	cmpmi	r8, r8, asr pc
    15d0:	4e495f53 	mcrmi	15, 2, r5, cr9, cr3, {2}
    15d4:	494e4946 	stmdbmi	lr, {r1, r2, r6, r8, fp, lr}^
    15d8:	5f5f5954 	svcpl	0x005f5954
    15dc:	49003120 	stmdbmi	r0, {r5, r8, ip, sp}
    15e0:	465f544e 	ldrbmi	r5, [pc], -lr, asr #8
    15e4:	33545341 	cmpcc	r4, #67108865	; 0x4000001
    15e8:	494d5f32 	stmdbmi	sp, {r1, r4, r5, r8, r9, sl, fp, ip, lr}^
    15ec:	2d28204e 	stccs	0, cr2, [r8, #-312]!	; 0xfffffec8
    15f0:	4e495f5f 	mcrmi	15, 2, r5, cr9, cr15, {2}
    15f4:	41465f54 	cmpmi	r6, r4, asr pc
    15f8:	32335453 	eorscc	r5, r3, #1392508928	; 0x53000000
    15fc:	58414d5f 	stmdapl	r1, {r0, r1, r2, r3, r4, r6, r8, sl, fp, lr}^
    1600:	2d205f5f 	stccs	15, cr5, [r0, #-380]!	; 0xfffffe84
    1604:	00293120 	eoreq	r3, r9, r0, lsr #2
    1608:	5359535f 	cmppl	r9, #2080374785	; 0x7c000001
    160c:	5a49535f 	bpl	1256390 <_Min_Stack_Size+0x1255f90>
    1610:	5f545f45 	svcpl	0x00545f45
    1614:	5f002048 	svcpl	0x00002048
    1618:	6175675f 	cmnvs	r5, pc, asr r7
    161c:	64656472 	strbtvs	r6, [r5], #-1138	; 0xfffffb8e
    1620:	2879625f 	ldmdacs	r9!, {r0, r1, r2, r3, r4, r6, r9, sp, lr}^
    1624:	5f202978 	svcpl	0x00202978
    1628:	636f6c5f 	cmnvs	pc, #24320	; 0x5f00
    162c:	6e615f6b 	cdpvs	15, 6, cr5, cr1, cr11, {3}
    1630:	61746f6e 	cmnvs	r4, lr, ror #30
    1634:	67286574 			; <UNDEFINED> instruction: 0x67286574
    1638:	64726175 	ldrbtvs	r6, [r2], #-373	; 0xfffffe8b
    163c:	625f6465 	subsvs	r6, pc, #1694498816	; 0x65000000
    1640:	29782879 	ldmdbcs	r8!, {r0, r3, r4, r5, r6, fp, sp}^
    1644:	45440029 	strbmi	r0, [r4, #-41]	; 0xffffffd7
    1648:	20475542 	subcs	r5, r7, r2, asr #10
    164c:	564e0031 			; <UNDEFINED> instruction: 0x564e0031
    1650:	455f4349 	ldrbmi	r4, [pc, #-841]	; 130f <_Min_Stack_Size+0xf0f>
    1654:	31495458 	cmpcc	r9, r8, asr r4
    1658:	5f355f30 	svcpl	0x00355f30
    165c:	5f515249 	svcpl	0x00515249
    1660:	62616e45 	rsbvs	r6, r1, #1104	; 0x450
    1664:	2820656c 	stmdacs	r0!, {r2, r3, r5, r6, r8, sl, sp, lr}
    1668:	4349564e 	movtmi	r5, #38478	; 0x964e
    166c:	4553495f 	ldrbmi	r4, [r3, #-2399]	; 0xfffff6a1
    1670:	7c203052 	stcvc	0, cr3, [r0], #-328	; 0xfffffeb8
    1674:	3c31203d 	ldccc	0, cr2, [r1], #-244	; 0xffffff0c
    1678:	2933323c 	ldmdbcs	r3!, {r2, r3, r4, r5, r9, ip, sp}
    167c:	6c5f5f00 	mrrcvs	15, 0, r5, pc, cr0	; <UNPREDICTABLE>
    1680:	736b636f 	cmnvc	fp, #-1140850687	; 0xbc000001
    1684:	6378655f 	cmnvs	r8, #398458880	; 0x17c00000
    1688:	6973756c 	ldmdbvs	r3!, {r2, r3, r5, r6, r8, sl, ip, sp, lr}^
    168c:	2e286576 	mcrcs	5, 1, r6, cr8, cr6, {3}
    1690:	20292e2e 	eorcs	r2, r9, lr, lsr #28
    1694:	6f6c5f5f 	svcvs	0x006c5f5f
    1698:	615f6b63 	cmpvs	pc, r3, ror #22
    169c:	746f6e6e 	strbtvc	r6, [pc], #-3694	; 16a4 <_Min_Stack_Size+0x12a4>
    16a0:	28657461 	stmdacs	r5!, {r0, r5, r6, sl, ip, sp, lr}^
    16a4:	6c637865 	stclvs	8, cr7, [r3], #-404	; 0xfffffe6c
    16a8:	76697375 			; <UNDEFINED> instruction: 0x76697375
    16ac:	6f6c5f65 	svcvs	0x006c5f65
    16b0:	665f6b63 	ldrbvs	r6, [pc], -r3, ror #22
    16b4:	74636e75 	strbtvc	r6, [r3], #-3701	; 0xfffff18b
    16b8:	286e6f69 	stmdacs	lr!, {r0, r3, r5, r6, r8, r9, sl, fp, sp, lr}^
    16bc:	41565f5f 	cmpmi	r6, pc, asr pc
    16c0:	4752415f 			; <UNDEFINED> instruction: 0x4752415f
    16c4:	295f5f53 	ldmdbcs	pc, {r0, r1, r4, r6, r8, r9, sl, fp, ip, lr}^	; <UNPREDICTABLE>
    16c8:	5f5f0029 	svcpl	0x005f0029
    16cc:	55434341 	strbpl	r4, [r3, #-833]	; 0xfffffcbf
    16d0:	42465f4d 	submi	r5, r6, #308	; 0x134
    16d4:	5f5f5449 	svcpl	0x005f5449
    16d8:	00353120 	eorseq	r3, r5, r0, lsr #2
    16dc:	6f6c5f5f 	svcvs	0x006c5f5f
    16e0:	725f6b63 	subsvc	r6, pc, #101376	; 0x18c00
    16e4:	61656c65 	cmnvs	r5, r5, ror #24
    16e8:	6c286573 	cfstr32vs	mvfx6, [r8], #-460	; 0xfffffe34
    16ec:	296b636f 	stmdbcs	fp!, {r0, r1, r2, r3, r5, r6, r8, r9, sp, lr}^
    16f0:	725f5f20 	subsvc	r5, pc, #32, 30	; 0x80
    16f4:	72617465 	rsbvc	r7, r1, #1694498816	; 0x65000000
    16f8:	5f746567 	svcpl	0x00746567
    16fc:	6b636f6c 	blvs	18dd4b4 <_Min_Stack_Size+0x18dd0b4>
    1700:	6c65725f 	sfmvs	f7, 2, [r5], #-380	; 0xfffffe84
    1704:	65736165 	ldrbvs	r6, [r3, #-357]!	; 0xfffffe9b
    1708:	636f6c28 	cmnvs	pc, #40, 24	; 0x2800
    170c:	5f00296b 	svcpl	0x0000296b
    1710:	4341555f 	movtmi	r5, #5471	; 0x155f
    1714:	5f4d5543 	svcpl	0x004d5543
    1718:	54494249 	strbpl	r4, [r9], #-585	; 0xfffffdb7
    171c:	31205f5f 			; <UNDEFINED> instruction: 0x31205f5f
    1720:	5f5f0036 	svcpl	0x005f0036
    1724:	6b636f6c 	blvs	18dd4dc <_Min_Stack_Size+0x18dd0dc>
    1728:	696e695f 	stmdbvs	lr!, {r0, r1, r2, r3, r4, r6, r8, fp, sp, lr}^
    172c:	6f6c2874 	svcvs	0x006c2874
    1730:	20296b63 	eorcs	r6, r9, r3, ror #22
    1734:	65725f5f 	ldrbvs	r5, [r2, #-3935]!	; 0xfffff0a1
    1738:	67726174 			; <UNDEFINED> instruction: 0x67726174
    173c:	6c5f7465 	cfldrdvs	mvd7, [pc], {101}	; 0x65
    1740:	5f6b636f 	svcpl	0x006b636f
    1744:	74696e69 	strbtvc	r6, [r9], #-3689	; 0xfffff197
    1748:	6f6c2628 	svcvs	0x006c2628
    174c:	00296b63 	eoreq	r6, r9, r3, ror #22
    1750:	4e495f5f 	mcrmi	15, 2, r5, cr9, cr15, {2}
    1754:	41465f54 	cmpmi	r6, r4, asr pc
    1758:	34365453 	ldrtcc	r5, [r6], #-1107	; 0xfffffbad
    175c:	58414d5f 	stmdapl	r1, {r0, r1, r2, r3, r4, r6, r8, sl, fp, lr}^
    1760:	30205f5f 	eorcc	r5, r0, pc, asr pc
    1764:	66663778 			; <UNDEFINED> instruction: 0x66663778
    1768:	66666666 	strbtvs	r6, [r6], -r6, ror #12
    176c:	66666666 	strbtvs	r6, [r6], -r6, ror #12
    1770:	66666666 	strbtvs	r6, [r6], -r6, ror #12
    1774:	004c4c66 	subeq	r4, ip, r6, ror #24
    1778:	4c465f5f 	mcrrmi	15, 5, r5, r6, cr15
    177c:	58323354 	ldmdapl	r2!, {r2, r4, r6, r8, r9, ip, sp}
    1780:	4345445f 	movtmi	r4, #21599	; 0x545f
    1784:	4c414d49 	mcrrmi	13, 4, r4, r1, cr9
    1788:	4749445f 	smlsldmi	r4, r9, pc, r4	; <UNPREDICTABLE>
    178c:	31205f5f 			; <UNDEFINED> instruction: 0x31205f5f
    1790:	5f5f0037 	svcpl	0x005f0037
    1794:	5f4c4244 	svcpl	0x004c4244
    1798:	5f4e494d 	svcpl	0x004e494d
    179c:	2828205f 	stmdacs	r8!, {r0, r1, r2, r3, r4, r6, sp}
    17a0:	62756f64 	rsbsvs	r6, r5, #100, 30	; 0x190
    17a4:	3229656c 	eorcc	r6, r9, #108, 10	; 0x1b000000
    17a8:	3532322e 	ldrcc	r3, [r2, #-558]!	; 0xfffffdd2
    17ac:	38333730 	ldmdacc	r3!, {r4, r5, r8, r9, sl, ip, sp}
    17b0:	30353835 	eorscc	r3, r5, r5, lsr r8
    17b4:	31303237 	teqcc	r0, r7, lsr r2
    17b8:	332d6534 			; <UNDEFINED> instruction: 0x332d6534
    17bc:	294c3830 	stmdbcs	ip, {r4, r5, fp, ip, sp}^
    17c0:	465f5f00 	ldrbmi	r5, [pc], -r0, lsl #30
    17c4:	3233544c 	eorscc	r5, r3, #76, 8	; 0x4c000000
    17c8:	41485f58 	cmpmi	r8, r8, asr pc
    17cc:	55515f53 	ldrbpl	r5, [r1, #-3923]	; 0xfffff0ad
    17d0:	5f544549 	svcpl	0x00544549
    17d4:	5f4e414e 	svcpl	0x004e414e
    17d8:	0031205f 	eorseq	r2, r1, pc, asr r0
    17dc:	49545845 	ldmdbmi	r4, {r0, r2, r6, fp, ip, lr}^
    17e0:	5152495f 	cmppl	r2, pc, asr r9
    17e4:	7369645f 	cmnvc	r9, #1593835520	; 0x5f000000
    17e8:	656c6261 	strbvs	r6, [ip, #-609]!	; 0xfffffd9f
    17ec:	5f003020 	svcpl	0x00003020
    17f0:	6c756e5f 	ldclvs	14, cr6, [r5], #-380	; 0xfffffe84
    17f4:	65735f6c 	ldrbvs	r5, [r3, #-3948]!	; 0xfffff094
    17f8:	6e69746e 	cdpvs	4, 6, cr7, cr9, cr14, {3}
    17fc:	5f206c65 	svcpl	0x00206c65
    1800:	7474615f 	ldrbtvc	r6, [r4], #-351	; 0xfffffea1
    1804:	75626972 	strbvc	r6, [r2, #-2418]!	; 0xfffff68e
    1808:	5f5f6574 	svcpl	0x005f6574
    180c:	5f5f2828 	svcpl	0x005f2828
    1810:	746e6573 	strbtvc	r6, [lr], #-1395	; 0xfffffa8d
    1814:	6c656e69 	stclvs	14, cr6, [r5], #-420	; 0xfffffe5c
    1818:	29295f5f 	stmdbcs	r9!, {r0, r1, r2, r3, r4, r6, r8, r9, sl, fp, ip, lr}
    181c:	465f5f00 	ldrbmi	r5, [pc], -r0, lsl #30
    1820:	3233544c 	eorscc	r5, r3, #76, 8	; 0x4c000000
    1824:	50455f58 	subpl	r5, r5, r8, asr pc
    1828:	4f4c4953 	svcmi	0x004c4953
    182c:	205f5f4e 	subscs	r5, pc, lr, asr #30
    1830:	32322e32 	eorscc	r2, r2, #800	; 0x320
    1834:	36343430 			; <UNDEFINED> instruction: 0x36343430
    1838:	32393430 	eorscc	r3, r9, #48, 8	; 0x30000000
    183c:	31333035 	teqcc	r3, r5, lsr r0
    1840:	2d653133 	stfcse	f3, [r5, #-204]!	; 0xffffff34
    1844:	33463631 	movtcc	r3, #26161	; 0x6631
    1848:	5f007832 	svcpl	0x00007832
    184c:	6e695f5f 	mcrvs	15, 3, r5, cr9, cr15, {2}
    1850:	656c5f74 	strbvs	r5, [ip, #-3956]!	; 0xfffff08c
    1854:	31747361 	cmncc	r4, r1, ror #6
    1858:	5f745f36 	svcpl	0x00745f36
    185c:	69666564 	stmdbvs	r6!, {r2, r5, r6, r8, sl, sp, lr}^
    1860:	2064656e 	rsbcs	r6, r4, lr, ror #10
    1864:	5f5f0031 	svcpl	0x005f0031
    1868:	5f4d5241 	svcpl	0x004d5241
    186c:	48435241 	stmdami	r3, {r0, r6, r9, ip, lr}^
    1870:	5f4d375f 	svcpl	0x004d375f
    1874:	0031205f 	eorseq	r2, r1, pc, asr r0
    1878:	6c754e5f 	ldclvs	14, cr4, [r5], #-380	; 0xfffffe84
    187c:	6c62616c 	stfvse	f6, [r2], #-432	; 0xfffffe50
    1880:	5f002065 	svcpl	0x00002065
    1884:	544e495f 	strbpl	r4, [lr], #-2399	; 0xfffff6a1
    1888:	5341465f 	movtpl	r4, #5727	; 0x165f
    188c:	545f3854 	ldrbpl	r3, [pc], #-2132	; 1894 <_Min_Stack_Size+0x1494>
    1890:	5f455059 	svcpl	0x00455059
    1894:	6e69205f 	mcrvs	0, 3, r2, cr9, cr15, {2}
    1898:	4e5f0074 	mrcmi	0, 2, r0, cr15, cr4, {3}
    189c:	4c4e494f 	mcrrmi	9, 4, r4, lr, cr15	; <UNPREDICTABLE>
    18a0:	20454e49 	subcs	r4, r5, r9, asr #28
    18a4:	74615f5f 	strbtvc	r5, [r1], #-3935	; 0xfffff0a1
    18a8:	62697274 	rsbvs	r7, r9, #116, 4	; 0x40000007
    18ac:	5f657475 	svcpl	0x00657475
    18b0:	2828205f 	stmdacs	r8!, {r0, r1, r2, r3, r4, r6, sp}
    18b4:	6f6e5f5f 	svcvs	0x006e5f5f
    18b8:	696c6e69 	stmdbvs	ip!, {r0, r3, r5, r6, r9, sl, fp, sp, lr}^
    18bc:	5f5f656e 	svcpl	0x005f656e
    18c0:	5f002929 	svcpl	0x00002929
    18c4:	4144555f 	cmpmi	r4, pc, asr r5
    18c8:	4942465f 	stmdbmi	r2, {r0, r1, r2, r3, r4, r6, r9, sl, lr}^
    18cc:	205f5f54 	subscs	r5, pc, r4, asr pc	; <UNPREDICTABLE>
    18d0:	5f003233 	svcpl	0x00003233
    18d4:	7a69735f 	bvc	1a5e658 <_Min_Stack_Size+0x1a5e258>
    18d8:	5f745f65 	svcpl	0x00745f65
    18dc:	5f00205f 	svcpl	0x0000205f
    18e0:	544c465f 	strbpl	r4, [ip], #-1631	; 0xfffff9a1
    18e4:	4d5f3436 	cfldrdmi	mvd3, [pc, #-216]	; 1814 <_Min_Stack_Size+0x1414>
    18e8:	315f5841 	cmpcc	pc, r1, asr #16
    18ec:	58455f30 	stmdapl	r5, {r4, r5, r8, r9, sl, fp, ip, lr}^
    18f0:	205f5f50 	subscs	r5, pc, r0, asr pc	; <UNPREDICTABLE>
    18f4:	00383033 	eorseq	r3, r8, r3, lsr r0
    18f8:	49555f5f 	ldmdbmi	r5, {r0, r1, r2, r3, r4, r6, r8, r9, sl, fp, ip, lr}^
    18fc:	414d544e 	cmpmi	sp, lr, asr #8
    1900:	28435f58 	stmdacs	r3, {r3, r4, r6, r8, r9, sl, fp, ip, lr}^
    1904:	63202963 			; <UNDEFINED> instruction: 0x63202963
    1908:	20232320 	eorcs	r2, r3, r0, lsr #6
    190c:	004c4c55 	subeq	r4, ip, r5, asr ip
    1910:	49535f5f 	ldmdbmi	r3, {r0, r1, r2, r3, r4, r6, r8, r9, sl, fp, ip, lr}^
    1914:	464f455a 			; <UNDEFINED> instruction: 0x464f455a
    1918:	494f505f 	stmdbmi	pc, {r0, r1, r2, r3, r4, r6, ip, lr}^	; <UNPREDICTABLE>
    191c:	5245544e 	subpl	r5, r5, #1308622848	; 0x4e000000
    1920:	34205f5f 	strtcc	r5, [r0], #-3935	; 0xfffff0a1
    1924:	495f5f00 	ldmdbmi	pc, {r8, r9, sl, fp, ip, lr}^	; <UNPREDICTABLE>
    1928:	4c5f544e 	cfldrdmi	mvd5, [pc], {78}	; 0x4e
    192c:	54534145 	ldrbpl	r4, [r3], #-325	; 0xfffffebb
    1930:	59545f38 	ldmdbpl	r4, {r3, r4, r5, r8, r9, sl, fp, ip, lr}^
    1934:	5f5f4550 	svcpl	0x005f4550
    1938:	67697320 	strbvs	r7, [r9, -r0, lsr #6]!
    193c:	2064656e 	rsbcs	r6, r4, lr, ror #10
    1940:	72616863 	rsbvc	r6, r1, #6488064	; 0x630000
    1944:	544e4900 	strbpl	r4, [lr], #-2304	; 0xfffff700
    1948:	5f58414d 	svcpl	0x0058414d
    194c:	29782843 	ldmdbcs	r8!, {r0, r1, r6, fp, sp}^
    1950:	495f5f20 	ldmdbmi	pc, {r5, r8, r9, sl, fp, ip, lr}^	; <UNPREDICTABLE>
    1954:	414d544e 	cmpmi	sp, lr, asr #8
    1958:	28435f58 	stmdacs	r3, {r3, r4, r6, r8, r9, sl, fp, ip, lr}^
    195c:	5f002978 	svcpl	0x00002978
    1960:	4e454552 	mcrmi	5, 2, r4, cr5, cr2, {2}
    1964:	54535f54 	ldrbpl	r5, [r3], #-3924	; 0xfffff0ac
    1968:	4b4f5452 	blmi	13d6ab8 <_Min_Stack_Size+0x13d66b8>
    196c:	53414c5f 	movtpl	r4, #7263	; 0x1c5f
    1970:	74702854 	ldrbtvc	r2, [r0], #-2132	; 0xfffff7ac
    1974:	28202972 	stmdacs	r0!, {r1, r4, r5, r6, r8, fp, sp}
    1978:	72747028 	rsbsvc	r7, r4, #40	; 0x28
    197c:	5f3e2d29 	svcpl	0x003e2d29
    1980:	6373696d 	cmnvs	r3, #1785856	; 0x1b4000
    1984:	735f3e2d 	cmpvc	pc, #720	; 0x2d0
    1988:	6f747274 	svcvs	0x00747274
    198c:	616c5f6b 	cmnvs	ip, fp, ror #30
    1990:	00297473 	eoreq	r7, r9, r3, ror r4
    1994:	49545845 	ldmdbmi	r4, {r0, r2, r6, fp, ip, lr}^
    1998:	4950475f 	ldmdbmi	r0, {r0, r1, r2, r3, r4, r6, r8, r9, sl, lr}^
    199c:	614d5f4f 	cmpvs	sp, pc, asr #30
    19a0:	6e697070 	mcrvs	0, 3, r7, cr9, cr0, {3}
    19a4:	00745f67 	rsbseq	r5, r4, r7, ror #30
    19a8:	49545845 	ldmdbmi	r4, {r0, r2, r6, fp, ip, lr}^
    19ac:	00392039 	eorseq	r2, r9, r9, lsr r0
    19b0:	5f434352 	svcpl	0x00434352
    19b4:	4f495047 	svcmi	0x00495047
    19b8:	4c435f45 	mcrrmi	15, 4, r5, r3, cr5
    19bc:	4e455f4b 	cdpmi	15, 4, cr5, cr5, cr11, {2}
    19c0:	28202928 	stmdacs	r0!, {r3, r5, r8, fp, sp}
    19c4:	2d434352 	stclcs	3, cr4, [r3, #-328]	; 0xfffffeb8
    19c8:	4250413e 	subsmi	r4, r0, #-2147483633	; 0x8000000f
    19cc:	524e4532 	subpl	r4, lr, #209715200	; 0xc800000
    19d0:	203d7c20 	eorscs	r7, sp, r0, lsr #24
    19d4:	3c3c3128 	ldfccs	f3, [ip], #-160	; 0xffffff60
    19d8:	00292936 	eoreq	r2, r9, r6, lsr r9
    19dc:	52415f5f 	subpl	r5, r1, #380	; 0x17c
    19e0:	454e5f4d 	strbmi	r5, [lr, #-3917]	; 0xfffff0b3
    19e4:	5f5f4e4f 	svcpl	0x005f4e4f
    19e8:	4e495500 	cdpmi	5, 4, cr5, cr9, cr0, {0}
    19ec:	52545054 	subspl	r5, r4, #84	; 0x54
    19f0:	58414d5f 	stmdapl	r1, {r0, r1, r2, r3, r4, r6, r8, sl, fp, lr}^
    19f4:	5f5f2820 	svcpl	0x005f2820
    19f8:	544e4955 	strbpl	r4, [lr], #-2389	; 0xfffff6ab
    19fc:	5f525450 	svcpl	0x00525450
    1a00:	5f58414d 	svcpl	0x0058414d
    1a04:	5f00295f 	svcpl	0x0000295f
    1a08:	544c465f 	strbpl	r4, [ip], #-1631	; 0xfffff9a1
    1a0c:	4d5f3233 	lfmmi	f3, 2, [pc, #-204]	; 1948 <_Min_Stack_Size+0x1548>
    1a10:	455f5841 	ldrbmi	r5, [pc, #-2113]	; 11d7 <_Min_Stack_Size+0xdd7>
    1a14:	5f5f5058 	svcpl	0x005f5058
    1a18:	38323120 	ldmdacc	r2!, {r5, r8, ip, sp}
    1a1c:	69616d00 	stmdbvs	r1!, {r8, sl, fp, sp, lr}^
    1a20:	5f5f006e 	svcpl	0x005f006e
    1a24:	544e4955 	strbpl	r4, [lr], #-2389	; 0xfffff6ab
    1a28:	5f58414d 	svcpl	0x0058414d
    1a2c:	45505954 	ldrbmi	r5, [r0, #-2388]	; 0xfffff6ac
    1a30:	6c205f5f 	stcvs	15, cr5, [r0], #-380	; 0xfffffe84
    1a34:	20676e6f 	rsbcs	r6, r7, pc, ror #28
    1a38:	676e6f6c 	strbvs	r6, [lr, -ip, ror #30]!
    1a3c:	736e7520 	cmnvc	lr, #32, 10	; 0x8000000
    1a40:	656e6769 	strbvs	r6, [lr, #-1897]!	; 0xfffff897
    1a44:	6e692064 	cdpvs	0, 6, cr2, cr9, cr4, {3}
    1a48:	5f5f0074 	svcpl	0x005f0074
    1a4c:	464c4c55 			; <UNDEFINED> instruction: 0x464c4c55
    1a50:	54434152 	strbpl	r4, [r3], #-338	; 0xfffffeae
    1a54:	58414d5f 	stmdapl	r1, {r0, r1, r2, r3, r4, r6, r8, sl, fp, lr}^
    1a58:	30205f5f 	eorcc	r5, r0, pc, asr pc
    1a5c:	46464658 			; <UNDEFINED> instruction: 0x46464658
    1a60:	46464646 	strbmi	r4, [r6], -r6, asr #12
    1a64:	46464646 	strbmi	r4, [r6], -r6, asr #12
    1a68:	46464646 	strbmi	r4, [r6], -r6, asr #12
    1a6c:	362d5046 	strtcc	r5, [sp], -r6, asr #32
    1a70:	4c4c5534 	cfstr64mi	mvdx5, [ip], {52}	; 0x34
    1a74:	58450052 	stmdapl	r5, {r1, r4, r6}^
    1a78:	50364954 	eorspl	r4, r6, r4, asr r9
    1a7c:	28203643 	stmdacs	r0!, {r0, r1, r6, r9, sl, ip, sp}
    1a80:	49545845 	ldmdbmi	r4, {r0, r2, r6, fp, ip, lr}^
    1a84:	4950475f 	ldmdbmi	r0, {r0, r1, r2, r3, r4, r6, r8, r9, sl, lr}^
    1a88:	614d5f4f 	cmpvs	sp, pc, asr #30
    1a8c:	6e697070 	mcrvs	0, 3, r7, cr9, cr0, {3}
    1a90:	29745f67 	ldmdbcs	r4!, {r0, r1, r2, r5, r6, r8, r9, sl, fp, ip, lr}^
    1a94:	5458457b 	ldrbpl	r4, [r8], #-1403	; 0xfffffa85
    1a98:	202c3649 	eorcs	r3, ip, r9, asr #12
    1a9c:	4f495047 	svcmi	0x00495047
    1aa0:	47202c43 	strmi	r2, [r0, -r3, asr #24]!
    1aa4:	5f4f4950 	svcpl	0x004f4950
    1aa8:	5f4e4950 	svcpl	0x004e4950
    1aac:	45202c36 	strmi	r2, [r0, #-3126]!	; 0xfffff3ca
    1ab0:	36495458 			; <UNDEFINED> instruction: 0x36495458
    1ab4:	5152495f 	cmppl	r2, pc, asr r9
    1ab8:	5845007d 	stmdapl	r5, {r0, r2, r3, r4, r5, r6}^
    1abc:	50334954 	eorspl	r4, r3, r4, asr r9
    1ac0:	28203342 	stmdacs	r0!, {r1, r6, r8, r9, ip, sp}
    1ac4:	49545845 	ldmdbmi	r4, {r0, r2, r6, fp, ip, lr}^
    1ac8:	4950475f 	ldmdbmi	r0, {r0, r1, r2, r3, r4, r6, r8, r9, sl, lr}^
    1acc:	614d5f4f 	cmpvs	sp, pc, asr #30
    1ad0:	6e697070 	mcrvs	0, 3, r7, cr9, cr0, {3}
    1ad4:	29745f67 	ldmdbcs	r4!, {r0, r1, r2, r5, r6, r8, r9, sl, fp, ip, lr}^
    1ad8:	5458457b 	ldrbpl	r4, [r8], #-1403	; 0xfffffa85
    1adc:	202c3349 	eorcs	r3, ip, r9, asr #6
    1ae0:	4f495047 	svcmi	0x00495047
    1ae4:	47202c42 	strmi	r2, [r0, -r2, asr #24]!
    1ae8:	5f4f4950 	svcpl	0x004f4950
    1aec:	5f4e4950 	svcpl	0x004e4950
    1af0:	45202c33 	strmi	r2, [r0, #-3123]!	; 0xfffff3cd
    1af4:	33495458 	movtcc	r5, #37976	; 0x9458
    1af8:	5152495f 	cmppl	r2, pc, asr r9
    1afc:	5f5f007d 	svcpl	0x005f007d
    1b00:	746e695f 	strbtvc	r6, [lr], #-2399	; 0xfffff6a1
    1b04:	7274705f 	rsbsvc	r7, r4, #95	; 0x5f
    1b08:	66666964 	strbtvs	r6, [r6], -r4, ror #18
    1b0c:	685f745f 	ldmdavs	pc, {r0, r1, r2, r3, r4, r6, sl, ip, sp, lr}^	; <UNPREDICTABLE>
    1b10:	535f0020 	cmppl	pc, #32
    1b14:	5f455a49 	svcpl	0x00455a49
    1b18:	45445f54 	strbmi	r5, [r4, #-3924]	; 0xfffff0ac
    1b1c:	52414c43 	subpl	r4, r1, #17152	; 0x4300
    1b20:	00204445 	eoreq	r4, r0, r5, asr #8
    1b24:	48435f5f 	stmdami	r3, {r0, r1, r2, r3, r4, r6, r8, r9, sl, fp, ip, lr}^
    1b28:	32335241 	eorscc	r5, r3, #268435460	; 0x10000004
    1b2c:	5059545f 	subspl	r5, r9, pc, asr r4
    1b30:	205f5f45 	subscs	r5, pc, r5, asr #30
    1b34:	676e6f6c 	strbvs	r6, [lr, -ip, ror #30]!
    1b38:	736e7520 	cmnvc	lr, #32, 10	; 0x8000000
    1b3c:	656e6769 	strbvs	r6, [lr, #-1897]!	; 0xfffff897
    1b40:	6e692064 	cdpvs	0, 6, cr2, cr9, cr4, {3}
    1b44:	5f5f0074 	svcpl	0x005f0074
    1b48:	5f4d5241 	svcpl	0x004d5241
    1b4c:	54414546 	strbpl	r4, [r1], #-1350	; 0xfffffaba
    1b50:	5f455255 	svcpl	0x00455255
    1b54:	36315046 	ldrtcc	r5, [r1], -r6, asr #32
    1b58:	4345565f 	movtmi	r5, #22111	; 0x565f
    1b5c:	5f524f54 	svcpl	0x00524f54
    1b60:	54495241 	strbpl	r5, [r9], #-577	; 0xfffffdbf
    1b64:	54454d48 	strbpl	r4, [r5], #-3400	; 0xfffff2b8
    1b68:	5f004349 	svcpl	0x00004349
    1b6c:	49534f50 	ldmdbmi	r3, {r4, r6, r8, r9, sl, fp, lr}^
    1b70:	5f435f58 	svcpl	0x00435f58
    1b74:	52554f53 	subspl	r4, r5, #332	; 0x14c
    1b78:	32204543 	eorcc	r4, r0, #281018368	; 0x10c00000
    1b7c:	30383030 	eorscc	r3, r8, r0, lsr r0
    1b80:	5f004c39 	svcpl	0x00004c39
    1b84:	5f43435f 	svcpl	0x0043435f
    1b88:	50505553 	subspl	r5, r0, r3, asr r5
    1b8c:	5354524f 	cmppl	r4, #-268435452	; 0xf0000004
    1b90:	4e59445f 	mrcmi	4, 2, r4, cr9, cr15, {2}
    1b94:	43494d41 	movtmi	r4, #40257	; 0x9d41
    1b98:	5252415f 	subspl	r4, r2, #-1073741801	; 0xc0000017
    1b9c:	495f5941 	ldmdbmi	pc, {r0, r6, r8, fp, ip, lr}^	; <UNPREDICTABLE>
    1ba0:	2054494e 	subscs	r4, r4, lr, asr #18
    1ba4:	5f5f0031 	svcpl	0x005f0031
    1ba8:	544e4955 	strbpl	r4, [lr], #-2389	; 0xfffff6ab
    1bac:	5341465f 	movtpl	r4, #5727	; 0x165f
    1bb0:	5f323354 	svcpl	0x00323354
    1bb4:	5f58414d 	svcpl	0x0058414d
    1bb8:	7830205f 	ldmdavc	r0!, {r0, r1, r2, r3, r4, r6, sp}
    1bbc:	66666666 	strbtvs	r6, [r6], -r6, ror #12
    1bc0:	66666666 	strbtvs	r6, [r6], -r6, ror #12
    1bc4:	5f5f0055 	svcpl	0x005f0055
    1bc8:	5f544c46 	svcpl	0x00544c46
    1bcc:	5f58414d 	svcpl	0x0058414d
    1bd0:	5f505845 	svcpl	0x00505845
    1bd4:	3231205f 	eorscc	r2, r1, #95	; 0x5f
    1bd8:	5f5f0038 	svcpl	0x005f0038
    1bdc:	455a4953 	ldrbmi	r4, [sl, #-2387]	; 0xfffff6ad
    1be0:	4c5f464f 	mrrcmi	6, 4, r4, pc, cr15	; <UNPREDICTABLE>
    1be4:	5f474e4f 	svcpl	0x00474e4f
    1be8:	0034205f 	eorseq	r2, r4, pc, asr r0
    1bec:	28505f5f 	ldmdacs	r0, {r0, r1, r2, r3, r4, r6, r8, r9, sl, fp, ip, lr}^
    1bf0:	746f7270 	strbtvc	r7, [pc], #-624	; 1bf8 <_Min_Stack_Size+0x17f8>
    1bf4:	2029736f 	eorcs	r7, r9, pc, ror #6
    1bf8:	746f7270 	strbtvc	r7, [pc], #-624	; 1c00 <_Min_Stack_Size+0x1800>
    1bfc:	5200736f 	andpl	r7, r0, #-1140850687	; 0xbc000001
    1c00:	535f4343 	cmppl	pc, #201326593	; 0xc000001
    1c04:	5f334950 	svcpl	0x00334950
    1c08:	5f4b4c43 	svcpl	0x004b4c43
    1c0c:	29284e45 	stmdbcs	r8!, {r0, r2, r6, r9, sl, fp, lr}
    1c10:	43522820 	cmpmi	r2, #32, 16	; 0x200000
    1c14:	413e2d43 	teqmi	lr, r3, asr #26
    1c18:	45314250 	ldrmi	r4, [r1, #-592]!	; 0xfffffdb0
    1c1c:	7c20524e 	sfmvc	f5, 4, [r0], #-312	; 0xfffffec8
    1c20:	3128203d 			; <UNDEFINED> instruction: 0x3128203d
    1c24:	35313c3c 	ldrcc	r3, [r1, #-3132]!	; 0xfffff3c4
    1c28:	41002929 	tstmi	r0, r9, lsr #18
    1c2c:	45324250 	ldrmi	r4, [r2, #-592]!	; 0xfffffdb0
    1c30:	5f00524e 	svcpl	0x0000524e
    1c34:	7274735f 	rsbsvc	r7, r4, #2080374785	; 0x7c000001
    1c38:	6e6f6d66 	cdpvs	13, 6, cr6, cr15, cr6, {3}
    1c3c:	656b696c 	strbvs	r6, [fp, #-2412]!	; 0xfffff694
    1c40:	746d6628 	strbtvc	r6, [sp], #-1576	; 0xfffff9d8
    1c44:	2c677261 	sfmcs	f7, 2, [r7], #-388	; 0xfffffe7c
    1c48:	73726966 	cmnvc	r2, #1671168	; 0x198000
    1c4c:	72617674 	rsbvc	r7, r1, #116, 12	; 0x7400000
    1c50:	29677261 	stmdbcs	r7!, {r0, r5, r6, r9, ip, sp, lr}^
    1c54:	615f5f20 	cmpvs	pc, r0, lsr #30
    1c58:	69727474 	ldmdbvs	r2!, {r2, r4, r5, r6, sl, ip, sp, lr}^
    1c5c:	65747562 	ldrbvs	r7, [r4, #-1378]!	; 0xfffffa9e
    1c60:	28285f5f 	stmdacs	r8!, {r0, r1, r2, r3, r4, r6, r8, r9, sl, fp, ip, lr}
    1c64:	6f665f5f 	svcvs	0x00665f5f
    1c68:	74616d72 	strbtvc	r6, [r1], #-3442	; 0xfffff28e
    1c6c:	28205f5f 	stmdacs	r0!, {r0, r1, r2, r3, r4, r6, r8, r9, sl, fp, ip, lr}
    1c70:	74735f5f 	ldrbtvc	r5, [r3], #-3935	; 0xfffff0a1
    1c74:	6f6d6672 	svcvs	0x006d6672
    1c78:	2c5f5f6e 	mrrccs	15, 6, r5, pc, cr14	; <UNPREDICTABLE>
    1c7c:	746d6620 	strbtvc	r6, [sp], #-1568	; 0xfffff9e0
    1c80:	2c677261 	sfmcs	f7, 2, [r7], #-388	; 0xfffffe7c
    1c84:	72696620 	rsbvc	r6, r9, #32, 12	; 0x2000000
    1c88:	61767473 	cmnvs	r6, r3, ror r4
    1c8c:	67726172 			; <UNDEFINED> instruction: 0x67726172
    1c90:	00292929 	eoreq	r2, r9, r9, lsr #18
    1c94:	54524155 	ldrbpl	r4, [r2], #-341	; 0xfffffeab
    1c98:	28282034 	stmdacs	r8!, {r2, r4, r5, sp}
    1c9c:	52415355 	subpl	r5, r1, #1409286145	; 0x54000001
    1ca0:	79545f54 	ldmdbvc	r4, {r2, r4, r6, r8, r9, sl, fp, ip, lr}^
    1ca4:	65646570 	strbvs	r6, [r4, #-1392]!	; 0xfffffa90
    1ca8:	20745f66 	rsbscs	r5, r4, r6, ror #30
    1cac:	4155292a 	cmpmi	r5, sl, lsr #18
    1cb0:	5f345452 	svcpl	0x00345452
    1cb4:	45534142 	ldrbmi	r4, [r3, #-322]	; 0xfffffebe
    1cb8:	41550029 	cmpmi	r5, r9, lsr #32
    1cbc:	5f355452 	svcpl	0x00355452
    1cc0:	45534142 	ldrbmi	r4, [r3, #-322]	; 0xfffffebe
    1cc4:	34783020 	ldrbtcc	r3, [r8], #-32	; 0xffffffe0
    1cc8:	35303030 	ldrcc	r3, [r0, #-48]!	; 0xffffffd0
    1ccc:	75303030 	ldrvc	r3, [r0, #-48]!	; 0xffffffd0
    1cd0:	45525f00 	ldrbmi	r5, [r2, #-3840]	; 0xfffff100
    1cd4:	5f544e45 	svcpl	0x00544e45
    1cd8:	525f504d 	subspl	r5, pc, #77	; 0x4d
    1cdc:	4c555345 	mrrcmi	3, 4, r5, r5, cr5	; <UNPREDICTABLE>
    1ce0:	284b5f54 	stmdacs	fp, {r2, r4, r6, r8, r9, sl, fp, ip, lr}^
    1ce4:	29727470 	ldmdbcs	r2!, {r4, r5, r6, sl, ip, sp, lr}^
    1ce8:	70282820 	eorvc	r2, r8, r0, lsr #16
    1cec:	2d297274 	sfmcs	f7, 4, [r9, #-464]!	; 0xfffffe30
    1cf0:	706d5f3e 	rsbvc	r5, sp, lr, lsr pc
    1cf4:	725f3e2d 	subsvc	r3, pc, #720	; 0x2d0
    1cf8:	6c757365 	ldclvs	3, cr7, [r5], #-404	; 0xfffffe6c
    1cfc:	296b5f74 	stmdbcs	fp!, {r2, r4, r5, r6, r8, r9, sl, fp, ip, lr}^
    1d00:	535f5f00 	cmppl	pc, #0, 30
    1d04:	4f455a49 	svcmi	0x00455a49
    1d08:	4f445f46 	svcmi	0x00445f46
    1d0c:	454c4255 	strbmi	r4, [ip, #-597]	; 0xfffffdab
    1d10:	38205f5f 	stmdacc	r0!, {r0, r1, r2, r3, r4, r6, r8, r9, sl, fp, ip, lr}
    1d14:	495f5f00 	ldmdbmi	pc, {r8, r9, sl, fp, ip, lr}^	; <UNPREDICTABLE>
    1d18:	4c5f544e 	cfldrdmi	mvd5, [pc], {78}	; 0x4e
    1d1c:	54534145 	ldrbpl	r4, [r3], #-325	; 0xfffffebb
    1d20:	575f3233 	smmlarpl	pc, r3, r2, r3	; <UNPREDICTABLE>
    1d24:	48544449 	ldmdami	r4, {r0, r3, r6, sl, lr}^
    1d28:	33205f5f 			; <UNDEFINED> instruction: 0x33205f5f
    1d2c:	435f0032 	cmpmi	pc, #50	; 0x32
    1d30:	4b434f4c 	blmi	10d5a68 <_Min_Stack_Size+0x10d5668>
    1d34:	205f545f 	subscs	r5, pc, pc, asr r4	; <UNPREDICTABLE>
    1d38:	69736e75 	ldmdbvs	r3!, {r0, r2, r4, r5, r6, r9, sl, fp, sp, lr}^
    1d3c:	64656e67 	strbtvs	r6, [r5], #-3687	; 0xfffff199
    1d40:	6e6f6c20 	cdpvs	12, 6, cr6, cr15, cr0, {1}
    1d44:	545f0067 	ldrbpl	r0, [pc], #-103	; 1d4c <_Min_Stack_Size+0x194c>
    1d48:	5f454d49 	svcpl	0x00454d49
    1d4c:	5f205f54 	svcpl	0x00205f54
    1d50:	746e695f 	strbtvc	r6, [lr], #-2399	; 0xfffff6a1
    1d54:	61656c5f 	cmnvs	r5, pc, asr ip
    1d58:	34367473 	ldrtcc	r7, [r6], #-1139	; 0xfffffb8d
    1d5c:	4500745f 	strmi	r7, [r0, #-1119]	; 0xfffffba1
    1d60:	31495458 	cmpcc	r9, r8, asr r4
    1d64:	31445030 	cmpcc	r4, r0, lsr r0
    1d68:	45282030 	strmi	r2, [r8, #-48]!	; 0xffffffd0
    1d6c:	5f495458 	svcpl	0x00495458
    1d70:	4f495047 	svcmi	0x00495047
    1d74:	70614d5f 	rsbvc	r4, r1, pc, asr sp
    1d78:	676e6970 			; <UNDEFINED> instruction: 0x676e6970
    1d7c:	7b29745f 	blvc	a5ef00 <_Min_Stack_Size+0xa5eb00>
    1d80:	49545845 	ldmdbmi	r4, {r0, r2, r6, fp, ip, lr}^
    1d84:	202c3031 	eorcs	r3, ip, r1, lsr r0
    1d88:	4f495047 	svcmi	0x00495047
    1d8c:	47202c44 	strmi	r2, [r0, -r4, asr #24]!
    1d90:	5f4f4950 	svcpl	0x004f4950
    1d94:	5f4e4950 	svcpl	0x004e4950
    1d98:	202c3031 	eorcs	r3, ip, r1, lsr r0
    1d9c:	49545845 	ldmdbmi	r4, {r0, r2, r6, fp, ip, lr}^
    1da0:	495f3031 	ldmdbmi	pc, {r0, r4, r5, ip, sp}^	; <UNPREDICTABLE>
    1da4:	007d5152 	rsbseq	r5, sp, r2, asr r1
    1da8:	41465f5f 	cmpmi	r6, pc, asr pc
    1dac:	36315453 			; <UNDEFINED> instruction: 0x36315453
    1db0:	58450020 	stmdapl	r5, {r5}^
    1db4:	50334954 	eorspl	r4, r3, r4, asr r9
    1db8:	28203341 	stmdacs	r0!, {r0, r6, r8, r9, ip, sp}
    1dbc:	49545845 	ldmdbmi	r4, {r0, r2, r6, fp, ip, lr}^
    1dc0:	4950475f 	ldmdbmi	r0, {r0, r1, r2, r3, r4, r6, r8, r9, sl, lr}^
    1dc4:	614d5f4f 	cmpvs	sp, pc, asr #30
    1dc8:	6e697070 	mcrvs	0, 3, r7, cr9, cr0, {3}
    1dcc:	29745f67 	ldmdbcs	r4!, {r0, r1, r2, r5, r6, r8, r9, sl, fp, ip, lr}^
    1dd0:	5458457b 	ldrbpl	r4, [r8], #-1403	; 0xfffffa85
    1dd4:	202c3349 	eorcs	r3, ip, r9, asr #6
    1dd8:	4f495047 	svcmi	0x00495047
    1ddc:	47202c41 	strmi	r2, [r0, -r1, asr #24]!
    1de0:	5f4f4950 	svcpl	0x004f4950
    1de4:	5f4e4950 	svcpl	0x004e4950
    1de8:	45202c33 	strmi	r2, [r0, #-3123]!	; 0xfffff3cd
    1dec:	33495458 	movtcc	r5, #37976	; 0x9458
    1df0:	5152495f 	cmppl	r2, pc, asr r9
    1df4:	525f007d 	subspl	r0, pc, #125	; 0x7d
    1df8:	544e4545 	strbpl	r4, [lr], #-1349	; 0xfffffabb
    1dfc:	4e41525f 	mcrmi	2, 2, r5, cr1, cr15, {2}
    1e00:	5f383444 	svcpl	0x00383444
    1e04:	44454553 	strbmi	r4, [r5], #-1363	; 0xfffffaad
    1e08:	72747028 	rsbsvc	r7, r4, #40	; 0x28
    1e0c:	28282029 	stmdacs	r8!, {r0, r3, r5, sp}
    1e10:	29727470 	ldmdbcs	r2!, {r4, r5, r6, sl, ip, sp, lr}^
    1e14:	725f3e2d 	subsvc	r3, pc, #720	; 0x2d0
    1e18:	3e2d3834 	mcrcc	8, 1, r3, cr13, cr4, {1}
    1e1c:	6565735f 	strbvs	r7, [r5, #-863]!	; 0xfffffca1
    1e20:	5f002964 	svcpl	0x00002964
    1e24:	52414c5f 	subpl	r4, r1, #24320	; 0x5f00
    1e28:	49464547 	stmdbmi	r6, {r0, r1, r2, r6, r8, sl, lr}^
    1e2c:	565f454c 	ldrbpl	r4, [pc], -ip, asr #10
    1e30:	42495349 	submi	r5, r9, #603979777	; 0x24000001
    1e34:	3020454c 	eorcc	r4, r0, ip, asr #10
    1e38:	695f5f00 	ldmdbvs	pc, {r8, r9, sl, fp, ip, lr}^	; <UNPREDICTABLE>
    1e3c:	665f746e 	ldrbvs	r7, [pc], -lr, ror #8
    1e40:	38747361 	ldmdacc	r4!, {r0, r5, r6, r8, r9, ip, sp, lr}^
    1e44:	645f745f 	ldrbvs	r7, [pc], #-1119	; 1e4c <_Min_Stack_Size+0x1a4c>
    1e48:	6e696665 	cdpvs	6, 6, cr6, cr9, cr5, {3}
    1e4c:	31206465 			; <UNDEFINED> instruction: 0x31206465
    1e50:	4e5f5f00 	cdpmi	15, 5, cr5, cr15, cr0, {0}
    1e54:	494c5745 	stmdbmi	ip, {r0, r2, r6, r8, r9, sl, ip, lr}^
    1e58:	205f5f42 	subscs	r5, pc, r2, asr #30
    1e5c:	58450034 	stmdapl	r5, {r2, r4, r5}^
    1e60:	535f5449 	cmppl	pc, #1224736768	; 0x49000000
    1e64:	45434355 	strbmi	r4, [r3, #-853]	; 0xfffffcab
    1e68:	30205353 	eorcc	r5, r0, r3, asr r3
    1e6c:	54584500 	ldrbpl	r4, [r8], #-1280	; 0xfffffb00
    1e70:	495f3649 	ldmdbmi	pc, {r0, r3, r6, r9, sl, ip, sp}^	; <UNPREDICTABLE>
    1e74:	32205152 	eorcc	r5, r0, #-2147483628	; 0x80000014
    1e78:	5f5f0033 	svcpl	0x005f0033
    1e7c:	5f415455 	svcpl	0x00415455
    1e80:	54494246 	strbpl	r4, [r9], #-582	; 0xfffffdba
    1e84:	36205f5f 	qsaxcc	r5, r0, pc	; <UNPREDICTABLE>
    1e88:	69540034 	ldmdbvs	r4, {r2, r4, r5}^
    1e8c:	2820316d 	stmdacs	r0!, {r0, r2, r3, r5, r6, r8, ip, sp}
    1e90:	4d495428 	cfstrdmi	mvd5, [r9, #-160]	; 0xffffff60
    1e94:	5f315245 	svcpl	0x00315245
    1e98:	79545f38 	ldmdbvc	r4, {r3, r4, r5, r8, r9, sl, fp, ip, lr}^
    1e9c:	65646570 	strbvs	r6, [r4, #-1392]!	; 0xfffffa90
    1ea0:	2a745f66 	bcs	1d19c40 <_Min_Stack_Size+0x1d19840>
    1ea4:	4d495429 	cfstrdmi	mvd5, [r9, #-164]	; 0xffffff5c
    1ea8:	41425f31 	cmpmi	r2, r1, lsr pc
    1eac:	00294553 	eoreq	r4, r9, r3, asr r5
    1eb0:	4c465f5f 	mcrrmi	15, 5, r5, r6, cr15
    1eb4:	45445f54 	strbmi	r5, [r4, #-3924]	; 0xfffff0ac
    1eb8:	414d4943 	cmpmi	sp, r3, asr #18
    1ebc:	49445f4c 	stmdbmi	r4, {r2, r3, r6, r8, r9, sl, fp, ip, lr}^
    1ec0:	205f5f47 	subscs	r5, pc, r7, asr #30
    1ec4:	5f5f0039 	svcpl	0x005f0039
    1ec8:	5f544e49 	svcpl	0x00544e49
    1ecc:	5341454c 	movtpl	r4, #5452	; 0x154c
    1ed0:	5f323354 	svcpl	0x00323354
    1ed4:	5f58414d 	svcpl	0x0058414d
    1ed8:	7830205f 	ldmdavc	r0!, {r0, r1, r2, r3, r4, r6, sp}
    1edc:	66666637 			; <UNDEFINED> instruction: 0x66666637
    1ee0:	66666666 	strbtvs	r6, [r6], -r6, ror #12
    1ee4:	4c5f004c 	mrrcmi	0, 4, r0, pc, cr12	; <UNPREDICTABLE>
    1ee8:	5f4b434f 	svcpl	0x004b434f
    1eec:	55434552 	strbpl	r4, [r3, #-1362]	; 0xfffffaae
    1ef0:	56495352 			; <UNDEFINED> instruction: 0x56495352
    1ef4:	20545f45 	subscs	r5, r4, r5, asr #30
    1ef8:	434f4c5f 	movtmi	r4, #64607	; 0xfc5f
    1efc:	00545f4b 	subseq	r5, r4, fp, asr #30
    1f00:	4d544e49 	ldclmi	14, cr4, [r4, #-292]	; 0xfffffedc
    1f04:	4d5f5841 	ldclmi	8, cr5, [pc, #-260]	; 1e08 <_Min_Stack_Size+0x1a08>
    1f08:	28204e49 	stmdacs	r0!, {r0, r3, r6, r9, sl, fp, lr}
    1f0c:	544e492d 	strbpl	r4, [lr], #-2349	; 0xfffff6d3
    1f10:	5f58414d 	svcpl	0x0058414d
    1f14:	2058414d 	subscs	r4, r8, sp, asr #2
    1f18:	2931202d 	ldmdbcs	r1!, {r0, r2, r3, r5, sp}
    1f1c:	705f5f00 	subsvc	r5, pc, r0, lsl #30
    1f20:	745f7274 	ldrbvc	r7, [pc], #-628	; 1f28 <_Min_Stack_Size+0x1b28>
    1f24:	696f7620 	stmdbvs	pc!, {r5, r9, sl, ip, sp, lr}^	; <UNPREDICTABLE>
    1f28:	002a2064 	eoreq	r2, sl, r4, rrx
    1f2c:	5641485f 			; <UNDEFINED> instruction: 0x5641485f
    1f30:	4f4c5f45 	svcmi	0x004c5f45
    1f34:	445f474e 	ldrbmi	r4, [pc], #-1870	; 1f3c <_Min_Stack_Size+0x1b3c>
    1f38:	4c42554f 	cfstr64mi	mvdx5, [r2], {79}	; 0x4f
    1f3c:	00312045 	eorseq	r2, r1, r5, asr #32
    1f40:	41484357 	cmpmi	r8, r7, asr r3
    1f44:	494d5f52 	stmdbmi	sp, {r1, r4, r6, r8, r9, sl, fp, ip, lr}^
    1f48:	5f28204e 	svcpl	0x0028204e
    1f4c:	4843575f 	stmdami	r3, {r0, r1, r2, r3, r4, r6, r8, r9, sl, ip, lr}^
    1f50:	4d5f5241 	lfmmi	f5, 2, [pc, #-260]	; 1e54 <_Min_Stack_Size+0x1a54>
    1f54:	5f5f4e49 	svcpl	0x005f4e49
    1f58:	5f5f0029 	svcpl	0x005f0029
    1f5c:	43415246 	movtmi	r5, #4678	; 0x1246
    1f60:	42465f54 	submi	r5, r6, #84, 30	; 0x150
    1f64:	5f5f5449 	svcpl	0x005f5449
    1f68:	00353120 	eorseq	r3, r5, r0, lsr #2
    1f6c:	4c465f5f 	mcrrmi	15, 5, r5, r6, cr15
    1f70:	41485f54 	cmpmi	r8, r4, asr pc
    1f74:	55515f53 	ldrbpl	r5, [r1, #-3923]	; 0xfffff0ad
    1f78:	5f544549 	svcpl	0x00544549
    1f7c:	5f4e414e 	svcpl	0x004e414e
    1f80:	0031205f 	eorseq	r2, r1, pc, asr r0
    1f84:	49545845 	ldmdbmi	r4, {r0, r2, r6, fp, ip, lr}^
    1f88:	34445034 	strbcc	r5, [r4], #-52	; 0xffffffcc
    1f8c:	58452820 	stmdapl	r5, {r5, fp, sp}^
    1f90:	475f4954 			; <UNDEFINED> instruction: 0x475f4954
    1f94:	5f4f4950 	svcpl	0x004f4950
    1f98:	7070614d 	rsbsvc	r6, r0, sp, asr #2
    1f9c:	5f676e69 	svcpl	0x00676e69
    1fa0:	457b2974 	ldrbmi	r2, [fp, #-2420]!	; 0xfffff68c
    1fa4:	34495458 	strbcc	r5, [r9], #-1112	; 0xfffffba8
    1fa8:	5047202c 	subpl	r2, r7, ip, lsr #32
    1fac:	2c444f49 	mcrrcs	15, 4, r4, r4, cr9
    1fb0:	49504720 	ldmdbmi	r0, {r5, r8, r9, sl, lr}^
    1fb4:	49505f4f 	ldmdbmi	r0, {r0, r1, r2, r3, r6, r8, r9, sl, fp, ip, lr}^
    1fb8:	2c345f4e 	ldccs	15, cr5, [r4], #-312	; 0xfffffec8
    1fbc:	54584520 	ldrbpl	r4, [r8], #-1312	; 0xfffffae0
    1fc0:	495f3449 	ldmdbmi	pc, {r0, r3, r6, sl, ip, sp}^	; <UNPREDICTABLE>
    1fc4:	007d5152 	rsbseq	r5, sp, r2, asr r1
    1fc8:	4e475f5f 	mcrmi	15, 2, r5, cr7, cr15, {2}
    1fcc:	505f4355 	subspl	r4, pc, r5, asr r3	; <UNPREDICTABLE>
    1fd0:	48435441 	stmdami	r3, {r0, r6, sl, ip, lr}^
    1fd4:	4556454c 	ldrbmi	r4, [r6, #-1356]	; 0xfffffab4
    1fd8:	205f5f4c 	subscs	r5, pc, ip, asr #30
    1fdc:	5f5f0031 	svcpl	0x005f0031
    1fe0:	5f434347 	svcpl	0x00434347
    1fe4:	4d4f5441 	cfstrdmi	mvd5, [pc, #-260]	; 1ee8 <_Min_Stack_Size+0x1ae8>
    1fe8:	435f4349 	cmpmi	pc, #603979777	; 0x24000001
    1fec:	33524148 	cmpcc	r2, #72, 2
    1ff0:	5f545f32 	svcpl	0x00545f32
    1ff4:	4b434f4c 	blmi	10d5d2c <_Min_Stack_Size+0x10d592c>
    1ff8:	4552465f 	ldrbmi	r4, [r2, #-1631]	; 0xfffff9a1
    1ffc:	00322045 	eorseq	r2, r2, r5, asr #32
    2000:	6c615f5f 	stclvs	15, cr5, [r1], #-380	; 0xfffffe84
    2004:	5f636f6c 	svcpl	0x00636f6c
    2008:	67696c61 	strbvs	r6, [r9, -r1, ror #24]!
    200c:	2978286e 	ldmdbcs	r8!, {r1, r2, r3, r5, r6, fp, sp}^
    2010:	615f5f20 	cmpvs	pc, r0, lsr #30
    2014:	69727474 	ldmdbvs	r2!, {r2, r4, r5, r6, sl, ip, sp, lr}^
    2018:	65747562 	ldrbvs	r7, [r4, #-1378]!	; 0xfffffa9e
    201c:	28285f5f 	stmdacs	r8!, {r0, r1, r2, r3, r4, r6, r8, r9, sl, fp, ip, lr}
    2020:	6c615f5f 	stclvs	15, cr5, [r1], #-380	; 0xfffffe84
    2024:	5f636f6c 	svcpl	0x00636f6c
    2028:	67696c61 	strbvs	r6, [r9, -r1, ror #24]!
    202c:	285f5f6e 	ldmdacs	pc, {r1, r2, r3, r5, r6, r8, r9, sl, fp, ip, lr}^	; <UNPREDICTABLE>
    2030:	29292978 	stmdbcs	r9!, {r3, r4, r5, r6, r8, fp, sp}
    2034:	41525f00 	cmpmi	r2, r0, lsl #30
    2038:	3834444e 	ldmdacc	r4!, {r1, r2, r3, r6, sl, lr}
    203c:	4545535f 	strbmi	r5, [r5, #-863]	; 0xfffffca1
    2040:	20325f44 	eorscs	r5, r2, r4, asr #30
    2044:	31783028 	cmncc	r8, r8, lsr #32
    2048:	29343332 	ldmdbcs	r4!, {r1, r4, r5, r8, r9, ip, sp}
    204c:	415f5f00 	cmpmi	pc, r0, lsl #30
    2050:	415f4d52 	cmpmi	pc, r2, asr sp	; <UNPREDICTABLE>
    2054:	5f484352 	svcpl	0x00484352
    2058:	464f5250 			; <UNDEFINED> instruction: 0x464f5250
    205c:	20454c49 	subcs	r4, r5, r9, asr #24
    2060:	5f003737 	svcpl	0x00003737
    2064:	43414c5f 	movtmi	r4, #7263	; 0x1c5f
    2068:	5f4d5543 	svcpl	0x004d5543
    206c:	54494246 	strbpl	r4, [r9], #-582	; 0xfffffdba
    2070:	33205f5f 			; <UNDEFINED> instruction: 0x33205f5f
    2074:	5f5f0031 	svcpl	0x005f0031
    2078:	64657270 	strbtvs	r7, [r5], #-624	; 0xfffffd90
    207c:	5f746369 	svcpl	0x00746369
    2080:	65757274 	ldrbvs	r7, [r5, #-628]!	; 0xfffffd8c
    2084:	70786528 	rsbsvc	r6, r8, r8, lsr #10
    2088:	5f5f2029 	svcpl	0x005f2029
    208c:	6c697562 	cfstr64vs	mvdx7, [r9], #-392	; 0xfffffe78
    2090:	5f6e6974 	svcpl	0x006e6974
    2094:	65707865 	ldrbvs	r7, [r0, #-2149]!	; 0xfffff79b
    2098:	28287463 	stmdacs	r8!, {r0, r1, r5, r6, sl, ip, sp, lr}
    209c:	29707865 	ldmdbcs	r0!, {r0, r2, r5, r6, fp, ip, sp, lr}^
    20a0:	2931202c 	ldmdbcs	r1!, {r2, r3, r5, sp}
    20a4:	54584500 	ldrbpl	r4, [r8], #-1280	; 0xfffffb00
    20a8:	44503849 	ldrbmi	r3, [r0], #-2121	; 0xfffff7b7
    20ac:	45282038 	strmi	r2, [r8, #-56]!	; 0xffffffc8
    20b0:	5f495458 	svcpl	0x00495458
    20b4:	4f495047 	svcmi	0x00495047
    20b8:	70614d5f 	rsbvc	r4, r1, pc, asr sp
    20bc:	676e6970 			; <UNDEFINED> instruction: 0x676e6970
    20c0:	7b29745f 	blvc	a5f244 <_Min_Stack_Size+0xa5ee44>
    20c4:	49545845 	ldmdbmi	r4, {r0, r2, r6, fp, ip, lr}^
    20c8:	47202c38 			; <UNDEFINED> instruction: 0x47202c38
    20cc:	444f4950 	strbmi	r4, [pc], #-2384	; 20d4 <_Min_Stack_Size+0x1cd4>
    20d0:	5047202c 	subpl	r2, r7, ip, lsr #32
    20d4:	505f4f49 	subspl	r4, pc, r9, asr #30
    20d8:	385f4e49 	ldmdacc	pc, {r0, r3, r6, r9, sl, fp, lr}^	; <UNPREDICTABLE>
    20dc:	5845202c 	stmdapl	r5, {r2, r3, r5, sp}^
    20e0:	5f384954 	svcpl	0x00384954
    20e4:	7d515249 	lfmvc	f5, 2, [r1, #-292]	; 0xfffffedc
    20e8:	6c5f5f00 	mrrcvs	15, 0, r5, pc, cr0	; <UNPREDICTABLE>
    20ec:	5f6b636f 	svcpl	0x006b636f
    20f0:	656c6572 	strbvs	r6, [ip, #-1394]!	; 0xfffffa8e
    20f4:	5f657361 	svcpl	0x00657361
    20f8:	75636572 	strbvc	r6, [r3, #-1394]!	; 0xfffffa8e
    20fc:	76697372 			; <UNDEFINED> instruction: 0x76697372
    2100:	6f6c2865 	svcvs	0x006c2865
    2104:	20296b63 	eorcs	r6, r9, r3, ror #22
    2108:	65725f5f 	ldrbvs	r5, [r2, #-3935]!	; 0xfffff0a1
    210c:	67726174 			; <UNDEFINED> instruction: 0x67726174
    2110:	6c5f7465 	cfldrdvs	mvd7, [pc], {101}	; 0x65
    2114:	5f6b636f 	svcpl	0x006b636f
    2118:	656c6572 	strbvs	r6, [ip, #-1394]!	; 0xfffffa8e
    211c:	5f657361 	svcpl	0x00657361
    2120:	75636572 	strbvc	r6, [r3, #-1394]!	; 0xfffffa8e
    2124:	76697372 			; <UNDEFINED> instruction: 0x76697372
    2128:	6f6c2865 	svcvs	0x006c2865
    212c:	00296b63 	eoreq	r6, r9, r3, ror #22
    2130:	4c465f5f 	mcrrmi	15, 5, r5, r6, cr15
    2134:	49445f54 	stmdbmi	r4, {r2, r4, r6, r8, r9, sl, fp, ip, lr}^
    2138:	205f5f47 	subscs	r5, pc, r7, asr #30
    213c:	58450036 	stmdapl	r5, {r1, r2, r4, r5}^
    2140:	50374954 	eorspl	r4, r7, r4, asr r9
    2144:	28203743 	stmdacs	r0!, {r0, r1, r6, r8, r9, sl, ip, sp}
    2148:	49545845 	ldmdbmi	r4, {r0, r2, r6, fp, ip, lr}^
    214c:	4950475f 	ldmdbmi	r0, {r0, r1, r2, r3, r4, r6, r8, r9, sl, lr}^
    2150:	614d5f4f 	cmpvs	sp, pc, asr #30
    2154:	6e697070 	mcrvs	0, 3, r7, cr9, cr0, {3}
    2158:	29745f67 	ldmdbcs	r4!, {r0, r1, r2, r5, r6, r8, r9, sl, fp, ip, lr}^
    215c:	5458457b 	ldrbpl	r4, [r8], #-1403	; 0xfffffa85
    2160:	202c3749 	eorcs	r3, ip, r9, asr #14
    2164:	4f495047 	svcmi	0x00495047
    2168:	47202c43 	strmi	r2, [r0, -r3, asr #24]!
    216c:	5f4f4950 	svcpl	0x004f4950
    2170:	5f4e4950 	svcpl	0x004e4950
    2174:	45202c37 	strmi	r2, [r0, #-3127]!	; 0xfffff3c9
    2178:	37495458 	smlsldcc	r5, r9, r8, r4
    217c:	5152495f 	cmppl	r2, pc, asr r9
    2180:	5f5f007d 	svcpl	0x005f007d
    2184:	5f544e49 	svcpl	0x00544e49
    2188:	54534146 	ldrbpl	r4, [r3], #-326	; 0xfffffeba
    218c:	575f3233 	smmlarpl	pc, r3, r2, r3	; <UNPREDICTABLE>
    2190:	48544449 	ldmdami	r4, {r0, r3, r6, sl, lr}^
    2194:	33205f5f 			; <UNDEFINED> instruction: 0x33205f5f
    2198:	5f5f0032 	svcpl	0x005f0032
    219c:	72747461 	rsbsvc	r7, r4, #1627389952	; 0x61000000
    21a0:	74756269 	ldrbtvc	r6, [r5], #-617	; 0xfffffd97
    21a4:	6f665f65 	svcvs	0x00665f65
    21a8:	74616d72 	strbtvc	r6, [r1], #-3442	; 0xfffff28e
    21ac:	7274735f 	rsbsvc	r7, r4, #2080374785	; 0x7c000001
    21b0:	6e6f6d66 	cdpvs	13, 6, cr6, cr15, cr6, {3}
    21b4:	61285f5f 			; <UNDEFINED> instruction: 0x61285f5f
    21b8:	2029622c 	eorcs	r6, r9, ip, lsr #4
    21bc:	53425f00 	movtpl	r5, #12032	; 0x2f00
    21c0:	49535f44 	ldmdbmi	r3, {r2, r6, r8, r9, sl, fp, ip, lr}^
    21c4:	545f455a 	ldrbpl	r4, [pc], #-1370	; 21cc <_Min_Stack_Size+0x1dcc>
    21c8:	4645445f 			; <UNDEFINED> instruction: 0x4645445f
    21cc:	44454e49 	strbmi	r4, [r5], #-3657	; 0xfffff1b7
    21d0:	5f00205f 	svcpl	0x0000205f
    21d4:	4e49555f 	mcrmi	5, 2, r5, cr9, cr15, {2}
    21d8:	41465f54 	cmpmi	r6, r4, asr pc
    21dc:	32335453 	eorscc	r5, r3, #1392508928	; 0x53000000
    21e0:	5059545f 	subspl	r5, r9, pc, asr r4
    21e4:	205f5f45 	subscs	r5, pc, r5, asr #30
    21e8:	69736e75 	ldmdbvs	r3!, {r0, r2, r4, r5, r6, r9, sl, fp, sp, lr}^
    21ec:	64656e67 	strbtvs	r6, [r5], #-3687	; 0xfffff199
    21f0:	746e6920 	strbtvc	r6, [lr], #-2336	; 0xfffff6e0
    21f4:	5f5f5f00 	svcpl	0x005f5f00
    21f8:	5f746e69 	svcpl	0x00746e69
    21fc:	657a6973 	ldrbvs	r6, [sl, #-2419]!	; 0xfffff68d
    2200:	685f745f 	ldmdavs	pc, {r0, r1, r2, r3, r4, r6, sl, ip, sp, lr}^	; <UNPREDICTABLE>
    2204:	5f5f0020 	svcpl	0x005f0020
    2208:	43445453 	movtmi	r5, #17491	; 0x4453
    220c:	4654555f 			; <UNDEFINED> instruction: 0x4654555f
    2210:	5f32335f 	svcpl	0x0032335f
    2214:	0031205f 	eorseq	r2, r1, pc, asr r0
    2218:	49535f5f 	ldmdbmi	r3, {r0, r1, r2, r3, r4, r6, r8, r9, sl, fp, ip, lr}^
    221c:	464f455a 			; <UNDEFINED> instruction: 0x464f455a
    2220:	4f4c465f 	svcmi	0x004c465f
    2224:	5f5f5441 	svcpl	0x005f5441
    2228:	5f003420 	svcpl	0x00003420
    222c:	544c465f 	strbpl	r4, [ip], #-1631	; 0xfffff9a1
    2230:	5f583233 	svcpl	0x00583233
    2234:	4f4e4544 	svcmi	0x004e4544
    2238:	4d5f4d52 	ldclmi	13, cr4, [pc, #-328]	; 20f8 <_Min_Stack_Size+0x1cf8>
    223c:	5f5f4e49 	svcpl	0x005f4e49
    2240:	392e3420 	stmdbcc	lr!, {r5, sl, ip, sp}
    2244:	35363034 	ldrcc	r3, [r6, #-52]!	; 0xffffffcc
    2248:	38353436 	ldmdacc	r5!, {r1, r2, r4, r5, sl, ip, sp}
    224c:	34323134 	ldrtcc	r3, [r2], #-308	; 0xfffffecc
    2250:	65343536 	ldrvs	r3, [r4, #-1334]!	; 0xfffffaca
    2254:	3432332d 	ldrtcc	r3, [r2], #-813	; 0xfffffcd3
    2258:	78323346 	ldmdavc	r2!, {r1, r2, r6, r8, r9, ip, sp}
    225c:	475f5f00 	ldrbmi	r5, [pc, -r0, lsl #30]
    2260:	4c43554e 	cfstr64mi	mvdx5, [r3], {78}	; 0x4e
    2264:	5f454b49 	svcpl	0x00454b49
    2268:	4854414d 	ldmdami	r4, {r0, r2, r3, r6, r8, lr}^
    226c:	4955425f 	ldmdbmi	r5, {r0, r1, r2, r3, r4, r6, r9, lr}^
    2270:	4e49544c 	cdpmi	4, 4, cr5, cr9, cr12, {2}
    2274:	4c45525f 	sfmmi	f5, 2, [r5], {95}	; 0x5f
    2278:	2053504f 	subscs	r5, r3, pc, asr #32
    227c:	465f5f00 	ldrbmi	r5, [pc], -r0, lsl #30
    2280:	4d5f544c 	cfldrdmi	mvd5, [pc, #-304]	; 2158 <_Min_Stack_Size+0x1d58>
    2284:	315f5841 	cmpcc	pc, r1, asr #16
    2288:	58455f30 	stmdapl	r5, {r4, r5, r8, r9, sl, fp, ip, lr}^
    228c:	205f5f50 	subscs	r5, pc, r0, asr pc	; <UNPREDICTABLE>
    2290:	5f003833 	svcpl	0x00003833
    2294:	544d505f 	strbpl	r5, [sp], #-95	; 0xffffffa1
    2298:	67726128 	ldrbvs	r6, [r2, -r8, lsr #2]!
    229c:	61202973 			; <UNDEFINED> instruction: 0x61202973
    22a0:	00736772 	rsbseq	r6, r3, r2, ror r7
    22a4:	52465f5f 	subpl	r5, r6, #380	; 0x17c
    22a8:	5f544341 	svcpl	0x00544341
    22ac:	5f58414d 	svcpl	0x0058414d
    22b0:	5830205f 	ldmdapl	r0!, {r0, r1, r2, r3, r4, r6, sp}
    22b4:	46464637 			; <UNDEFINED> instruction: 0x46464637
    22b8:	35312d50 	ldrcc	r2, [r1, #-3408]!	; 0xfffff2b0
    22bc:	564e0052 			; <UNDEFINED> instruction: 0x564e0052
    22c0:	455f4349 	ldrbmi	r4, [pc, #-841]	; 1f7f <_Min_Stack_Size+0x1b7f>
    22c4:	31495458 	cmpcc	r9, r8, asr r4
    22c8:	5152495f 	cmppl	r2, pc, asr r9
    22cc:	616e455f 	cmnvs	lr, pc, asr r5
    22d0:	20656c62 	rsbcs	r6, r5, r2, ror #24
    22d4:	49564e28 	ldmdbmi	r6, {r3, r5, r9, sl, fp, lr}^
    22d8:	53495f43 	movtpl	r5, #40771	; 0x9f43
    22dc:	20305245 	eorscs	r5, r0, r5, asr #4
    22e0:	31203d7c 			; <UNDEFINED> instruction: 0x31203d7c
    22e4:	29373c3c 	ldmdbcs	r7!, {r2, r3, r4, r5, sl, fp, ip, sp}
    22e8:	495f5f00 	ldmdbmi	pc, {r8, r9, sl, fp, ip, lr}^	; <UNPREDICTABLE>
    22ec:	465f544e 	ldrbmi	r5, [pc], -lr, asr #8
    22f0:	33545341 	cmpcc	r4, #67108865	; 0x4000001
    22f4:	414d5f32 	cmpmi	sp, r2, lsr pc
    22f8:	205f5f58 	subscs	r5, pc, r8, asr pc	; <UNPREDICTABLE>
    22fc:	66377830 			; <UNDEFINED> instruction: 0x66377830
    2300:	66666666 	strbtvs	r6, [r6], -r6, ror #12
    2304:	5f006666 	svcpl	0x00006666
    2308:	4f54415f 	svcmi	0x0054415f
    230c:	5f43494d 	svcpl	0x0043494d
    2310:	5f514553 	svcpl	0x00514553
    2314:	20545343 	subscs	r5, r4, r3, asr #6
    2318:	525f0035 	subspl	r0, pc, #53	; 0x35
    231c:	5f444145 	svcpl	0x00444145
    2320:	54495257 	strbpl	r5, [r9], #-599	; 0xfffffda9
    2324:	45525f45 	ldrbmi	r5, [r2, #-3909]	; 0xfffff0bb
    2328:	4e525554 	mrcmi	5, 2, r5, cr2, cr4, {2}
    232c:	5059545f 	subspl	r5, r9, pc, asr r4
    2330:	6e692045 	cdpvs	0, 6, cr2, cr9, cr5, {2}
    2334:	58450074 	stmdapl	r5, {r2, r4, r5, r6}^
    2338:	34314954 	ldrtcc	r4, [r1], #-2388	; 0xfffff6ac
    233c:	34314350 	ldrtcc	r4, [r1], #-848	; 0xfffffcb0
    2340:	58452820 	stmdapl	r5, {r5, fp, sp}^
    2344:	475f4954 			; <UNDEFINED> instruction: 0x475f4954
    2348:	5f4f4950 	svcpl	0x004f4950
    234c:	7070614d 	rsbsvc	r6, r0, sp, asr #2
    2350:	5f676e69 	svcpl	0x00676e69
    2354:	457b2974 	ldrbmi	r2, [fp, #-2420]!	; 0xfffff68c
    2358:	31495458 	cmpcc	r9, r8, asr r4
    235c:	47202c34 			; <UNDEFINED> instruction: 0x47202c34
    2360:	434f4950 	movtmi	r4, #63824	; 0xf950
    2364:	5047202c 	subpl	r2, r7, ip, lsr #32
    2368:	505f4f49 	subspl	r4, pc, r9, asr #30
    236c:	315f4e49 	cmpcc	pc, r9, asr #28
    2370:	45202c34 	strmi	r2, [r0, #-3124]!	; 0xfffff3cc
    2374:	31495458 	cmpcc	r9, r8, asr r4
    2378:	52495f34 	subpl	r5, r9, #52, 30	; 0xd0
    237c:	5f007d51 	svcpl	0x00007d51
    2380:	65656e5f 	strbvs	r6, [r5, #-3679]!	; 0xfffff1a1
    2384:	69775f64 	ldmdbvs	r7!, {r2, r5, r6, r8, r9, sl, fp, ip, lr}^
    2388:	745f746e 	ldrbvc	r7, [pc], #-1134	; 2390 <_Min_Stack_Size+0x1f90>
    238c:	735f5f00 	cmpvc	pc, #0, 30
    2390:	645f6d79 	ldrbvs	r6, [pc], #-3449	; 2398 <_Min_Stack_Size+0x1f98>
    2394:	75616665 	strbvc	r6, [r1, #-1637]!	; 0xfffff99b
    2398:	7328746c 			; <UNDEFINED> instruction: 0x7328746c
    239c:	692c6d79 	stmdbvs	ip!, {r0, r3, r4, r5, r6, r8, sl, fp, sp, lr}
    23a0:	2c6c706d 	stclcs	0, cr7, [ip], #-436	; 0xfffffe4c
    23a4:	69726576 	ldmdbvs	r2!, {r1, r2, r4, r5, r6, r8, sl, sp, lr}^
    23a8:	5f202964 	svcpl	0x00202964
    23ac:	6d73615f 	ldfvse	f6, [r3, #-380]!	; 0xfffffe84
    23b0:	22285f5f 	eorcs	r5, r8, #380	; 0x17c
    23b4:	6d79732e 	ldclvs	3, cr7, [r9, #-184]!	; 0xffffff48
    23b8:	20726576 	rsbscs	r6, r2, r6, ror r5
    23bc:	69232022 	stmdbvs	r3!, {r1, r5, sp}
    23c0:	206c706d 	rsbcs	r7, ip, sp, rrx
    23c4:	22202c22 	eorcs	r2, r0, #8704	; 0x2200
    23c8:	79732320 	ldmdbvc	r3!, {r5, r8, r9, sp}^
    23cc:	4022206d 	eormi	r2, r2, sp, rrx
    23d0:	23202240 			; <UNDEFINED> instruction: 0x23202240
    23d4:	69726576 	ldmdbvs	r2!, {r1, r2, r4, r5, r6, r8, sl, sp, lr}^
    23d8:	54002964 	strpl	r2, [r0], #-2404	; 0xfffff69c
    23dc:	5f374d49 	svcpl	0x00374d49
    23e0:	45534142 	ldrbmi	r4, [r3, #-322]	; 0xfffffebe
    23e4:	34783020 	ldrbtcc	r3, [r8], #-32	; 0xffffffe0
    23e8:	31303030 	teqcc	r0, r0, lsr r0
    23ec:	75303034 	ldrvc	r3, [r0, #-52]!	; 0xffffffcc
    23f0:	544e4900 	strbpl	r4, [lr], #-2304	; 0xfffff700
    23f4:	5341465f 	movtpl	r4, #5727	; 0x165f
    23f8:	4d5f3854 	ldclmi	8, cr3, [pc, #-336]	; 22b0 <_Min_Stack_Size+0x1eb0>
    23fc:	28205841 	stmdacs	r0!, {r0, r6, fp, ip, lr}
    2400:	4e495f5f 	mcrmi	15, 2, r5, cr9, cr15, {2}
    2404:	41465f54 	cmpmi	r6, r4, asr pc
    2408:	5f385453 	svcpl	0x00385453
    240c:	5f58414d 	svcpl	0x0058414d
    2410:	4700295f 	smlsdmi	r0, pc, r9, r2	; <UNPREDICTABLE>
    2414:	5f4f4950 	svcpl	0x004f4950
    2418:	5f4e4950 	svcpl	0x004e4950
    241c:	20544553 	subscs	r4, r4, r3, asr r5
    2420:	5f5f0031 	svcpl	0x005f0031
    2424:	6f6c6c61 	svcvs	0x006c6c61
    2428:	69735f63 	ldmdbvs	r3!, {r0, r1, r5, r6, r8, r9, sl, fp, ip, lr}^
    242c:	2832657a 	ldmdacs	r2!, {r1, r3, r4, r5, r6, r8, sl, sp, lr}
    2430:	29782c6e 	ldmdbcs	r8!, {r1, r2, r3, r5, r6, sl, fp, sp}^
    2434:	615f5f20 	cmpvs	pc, r0, lsr #30
    2438:	69727474 	ldmdbvs	r2!, {r2, r4, r5, r6, sl, ip, sp, lr}^
    243c:	65747562 	ldrbvs	r7, [r4, #-1378]!	; 0xfffffa9e
    2440:	28285f5f 	stmdacs	r8!, {r0, r1, r2, r3, r4, r6, r8, r9, sl, fp, ip, lr}
    2444:	6c615f5f 	stclvs	15, cr5, [r1], #-380	; 0xfffffe84
    2448:	5f636f6c 	svcpl	0x00636f6c
    244c:	657a6973 	ldrbvs	r6, [sl, #-2419]!	; 0xfffff68d
    2450:	6e285f5f 	mcrvs	15, 1, r5, cr8, cr15, {2}
    2454:	2978202c 	ldmdbcs	r8!, {r2, r3, r5, sp}^
    2458:	5f002929 	svcpl	0x00002929
    245c:	4e49555f 	mcrmi	5, 2, r5, cr9, cr15, {2}
    2460:	5f363154 	svcpl	0x00363154
    2464:	5f58414d 	svcpl	0x0058414d
    2468:	7830205f 	ldmdavc	r0!, {r0, r1, r2, r3, r4, r6, sp}
    246c:	66666666 	strbtvs	r6, [r6], -r6, ror #12
    2470:	43435200 	movtmi	r5, #12800	; 0x3200
    2474:	4950535f 	ldmdbmi	r0, {r0, r1, r2, r3, r4, r6, r8, r9, ip, lr}^
    2478:	4c435f32 	mcrrmi	15, 3, r5, r3, cr2
    247c:	4e455f4b 	cdpmi	15, 4, cr5, cr5, cr11, {2}
    2480:	28202928 	stmdacs	r0!, {r3, r5, r8, fp, sp}
    2484:	2d434352 	stclcs	3, cr4, [r3, #-328]	; 0xfffffeb8
    2488:	4250413e 	subsmi	r4, r0, #-2147483633	; 0x8000000f
    248c:	524e4531 	subpl	r4, lr, #205520896	; 0xc400000
    2490:	203d7c20 	eorscs	r7, sp, r0, lsr #24
    2494:	3c3c3128 	ldfccs	f3, [ip], #-160	; 0xffffff60
    2498:	29293431 	stmdbcs	r9!, {r0, r4, r5, sl, ip, sp}
    249c:	545f5f00 	ldrbpl	r5, [pc], #-3840	; 24a4 <_Min_Stack_Size+0x20a4>
    24a0:	42465f51 	submi	r5, r6, #324	; 0x144
    24a4:	5f5f5449 	svcpl	0x005f5449
    24a8:	37323120 	ldrcc	r3, [r2, -r0, lsr #2]!
    24ac:	54584500 	ldrbpl	r4, [r8], #-1280	; 0xfffffb00
    24b0:	72745f49 	rsbsvc	r5, r4, #292	; 0x124
    24b4:	65676769 	strbvs	r6, [r7, #-1897]!	; 0xfffff897
    24b8:	69725f72 	ldmdbvs	r2!, {r1, r4, r5, r6, r8, r9, sl, fp, ip, lr}^
    24bc:	676e6973 			; <UNDEFINED> instruction: 0x676e6973
    24c0:	5f003020 	svcpl	0x00003020
    24c4:	42444c5f 	submi	r4, r4, #24320	; 0x5f00
    24c8:	414d5f4c 	cmpmi	sp, ip, asr #30
    24cc:	58455f58 	stmdapl	r5, {r3, r4, r6, r8, r9, sl, fp, ip, lr}^
    24d0:	205f5f50 	subscs	r5, pc, r0, asr pc	; <UNPREDICTABLE>
    24d4:	34323031 	ldrtcc	r3, [r2], #-49	; 0xffffffcf
    24d8:	54584500 	ldrbpl	r4, [r8], #-1280	; 0xfffffb00
    24dc:	41503149 	cmpmi	r0, r9, asr #2
    24e0:	45282031 	strmi	r2, [r8, #-49]!	; 0xffffffcf
    24e4:	5f495458 	svcpl	0x00495458
    24e8:	4f495047 	svcmi	0x00495047
    24ec:	70614d5f 	rsbvc	r4, r1, pc, asr sp
    24f0:	676e6970 			; <UNDEFINED> instruction: 0x676e6970
    24f4:	7b29745f 	blvc	a5f678 <_Min_Stack_Size+0xa5f278>
    24f8:	49545845 	ldmdbmi	r4, {r0, r2, r6, fp, ip, lr}^
    24fc:	47202c31 			; <UNDEFINED> instruction: 0x47202c31
    2500:	414f4950 	cmpmi	pc, r0, asr r9	; <UNPREDICTABLE>
    2504:	5047202c 	subpl	r2, r7, ip, lsr #32
    2508:	505f4f49 	subspl	r4, pc, r9, asr #30
    250c:	315f4e49 	cmpcc	pc, r9, asr #28
    2510:	5845202c 	stmdapl	r5, {r2, r3, r5, sp}^
    2514:	5f314954 	svcpl	0x00314954
    2518:	7d515249 	lfmvc	f5, 2, [r1, #-292]	; 0xfffffedc
    251c:	49555f00 	ldmdbmi	r5, {r8, r9, sl, fp, ip, lr}^
    2520:	3436544e 	ldrtcc	r5, [r6], #-1102	; 0xfffffbb2
    2524:	445f545f 	ldrbmi	r5, [pc], #-1119	; 252c <_Min_Stack_Size+0x212c>
    2528:	414c4345 	cmpmi	ip, r5, asr #6
    252c:	20444552 	subcs	r4, r4, r2, asr r5
    2530:	695f5f00 	ldmdbvs	pc, {r8, r9, sl, fp, ip, lr}^	; <UNPREDICTABLE>
    2534:	665f746e 	ldrbvs	r7, [pc], -lr, ror #8
    2538:	36747361 	ldrbtcc	r7, [r4], -r1, ror #6
    253c:	5f745f34 	svcpl	0x00745f34
    2540:	69666564 	stmdbvs	r6!, {r2, r5, r6, r8, sl, sp, lr}^
    2544:	2064656e 	rsbcs	r6, r4, lr, ror #10
    2548:	50470031 	subpl	r0, r7, r1, lsr r0
    254c:	4d5f4f49 	ldclmi	15, cr4, [pc, #-292]	; 2430 <_Min_Stack_Size+0x2030>
    2550:	5f45444f 	svcpl	0x0045444f
    2554:	5054554f 	subspl	r5, r4, pc, asr #10
    2558:	415f5455 	cmpmi	pc, r5, asr r4	; <UNPREDICTABLE>
    255c:	444f5f46 	strbmi	r5, [pc], #-3910	; 2564 <_Min_Stack_Size+0x2164>
    2560:	30783020 	rsbscc	r3, r8, r0, lsr #32
    2564:	30303030 	eorscc	r3, r0, r0, lsr r0
    2568:	00373030 	eorseq	r3, r7, r0, lsr r0
    256c:	4f495047 	svcmi	0x00495047
    2570:	28282041 	stmdacs	r8!, {r0, r6, sp}
    2574:	4f495047 	svcmi	0x00495047
    2578:	7079545f 	rsbsvc	r5, r9, pc, asr r4
    257c:	66656465 	strbtvs	r6, [r5], -r5, ror #8
    2580:	292a745f 	stmdbcs	sl!, {r0, r1, r2, r3, r4, r6, sl, ip, sp, lr}
    2584:	4f495047 	svcmi	0x00495047
    2588:	41425f41 	cmpmi	r2, r1, asr #30
    258c:	00294553 	eoreq	r4, r9, r3, asr r5
    2590:	336d6954 	cmncc	sp, #84, 18	; 0x150000
    2594:	54282820 	strtpl	r2, [r8], #-2080	; 0xfffff7e0
    2598:	74324d49 	ldrtvc	r4, [r2], #-3401	; 0xfffff2b7
    259c:	79545f35 	ldmdbvc	r4, {r0, r2, r4, r5, r8, r9, sl, fp, ip, lr}^
    25a0:	65446570 	strbvs	r6, [r4, #-1392]	; 0xfffffa90
    25a4:	2a745f66 	bcs	1d1a344 <_Min_Stack_Size+0x1d19f44>
    25a8:	4d495429 	cfstrdmi	mvd5, [r9, #-164]	; 0xffffff5c
    25ac:	41425f33 	cmpmi	r2, r3, lsr pc
    25b0:	00294553 	eoreq	r4, r9, r3, asr r5
    25b4:	49535f5f 	ldmdbmi	r3, {r0, r1, r2, r3, r4, r6, r8, r9, sl, fp, ip, lr}^
    25b8:	464f455a 			; <UNDEFINED> instruction: 0x464f455a
    25bc:	4f48535f 	svcmi	0x0048535f
    25c0:	5f5f5452 	svcpl	0x005f5452
    25c4:	5f003220 	svcpl	0x00003220
    25c8:	4c4c555f 	cfstr64mi	mvdx5, [ip], {95}	; 0x5f
    25cc:	55434341 	strbpl	r4, [r3, #-833]	; 0xfffffcbf
    25d0:	42465f4d 	submi	r5, r6, #308	; 0x134
    25d4:	5f5f5449 	svcpl	0x005f5449
    25d8:	00323320 	eorseq	r3, r2, r0, lsr #6
    25dc:	49545845 	ldmdbmi	r4, {r0, r2, r6, fp, ip, lr}^
    25e0:	44503231 	ldrbmi	r3, [r0], #-561	; 0xfffffdcf
    25e4:	28203231 	stmdacs	r0!, {r0, r4, r5, r9, ip, sp}
    25e8:	49545845 	ldmdbmi	r4, {r0, r2, r6, fp, ip, lr}^
    25ec:	4950475f 	ldmdbmi	r0, {r0, r1, r2, r3, r4, r6, r8, r9, sl, lr}^
    25f0:	614d5f4f 	cmpvs	sp, pc, asr #30
    25f4:	6e697070 	mcrvs	0, 3, r7, cr9, cr0, {3}
    25f8:	29745f67 	ldmdbcs	r4!, {r0, r1, r2, r5, r6, r8, r9, sl, fp, ip, lr}^
    25fc:	5458457b 	ldrbpl	r4, [r8], #-1403	; 0xfffffa85
    2600:	2c323149 	ldfcss	f3, [r2], #-292	; 0xfffffedc
    2604:	49504720 	ldmdbmi	r0, {r5, r8, r9, sl, lr}^
    2608:	202c444f 	eorcs	r4, ip, pc, asr #8
    260c:	4f495047 	svcmi	0x00495047
    2610:	4e49505f 	mcrmi	0, 2, r5, cr9, cr15, {2}
    2614:	2c32315f 	ldfcss	f3, [r2], #-380	; 0xfffffe84
    2618:	54584520 	ldrbpl	r4, [r8], #-1312	; 0xfffffae0
    261c:	5f323149 	svcpl	0x00323149
    2620:	7d515249 	lfmvc	f5, 2, [r1, #-292]	; 0xfffffedc
    2624:	445f5f00 	ldrbmi	r5, [pc], #-3840	; 262c <_Min_Stack_Size+0x222c>
    2628:	4e4f4345 	cdpmi	3, 4, cr4, cr15, cr5, {2}
    262c:	74285453 	strtvc	r5, [r8], #-1107	; 0xfffffbad
    2630:	2c657079 	stclcs	0, cr7, [r5], #-484	; 0xfffffe1c
    2634:	29726176 	ldmdbcs	r2!, {r1, r2, r4, r5, r6, r8, sp, lr}^
    2638:	74282820 	strtvc	r2, [r8], #-2080	; 0xfffff7e0
    263c:	29657079 	stmdbcs	r5!, {r0, r3, r4, r5, r6, ip, sp, lr}^
    2640:	755f5f28 	ldrbvc	r5, [pc, #-3880]	; 1720 <_Min_Stack_Size+0x1320>
    2644:	70746e69 	rsbsvc	r6, r4, r9, ror #28
    2648:	745f7274 	ldrbvc	r7, [pc], #-628	; 2650 <_Min_Stack_Size+0x2250>
    264c:	6f632829 	svcvs	0x00632829
    2650:	2074736e 	rsbscs	r7, r4, lr, ror #6
    2654:	64696f76 	strbtvs	r6, [r9], #-3958	; 0xfffff08a
    2658:	28292a20 	stmdacs	r9!, {r5, r9, fp, sp}
    265c:	29726176 	ldmdbcs	r2!, {r1, r2, r4, r5, r6, r8, sp, lr}^
    2660:	535f0029 	cmppl	pc, #41	; 0x29
    2664:	465f5359 			; <UNDEFINED> instruction: 0x465f5359
    2668:	55544145 	ldrbpl	r4, [r4, #-325]	; 0xfffffebb
    266c:	5f534552 	svcpl	0x00534552
    2670:	55002048 	strpl	r2, [r0, #-72]	; 0xffffffb8
    2674:	5f544e49 	svcpl	0x00544e49
    2678:	5341454c 	movtpl	r4, #5452	; 0x154c
    267c:	5f343654 	svcpl	0x00343654
    2680:	2058414d 	subscs	r4, r8, sp, asr #2
    2684:	555f5f28 	ldrbpl	r5, [pc, #-3880]	; 1764 <_Min_Stack_Size+0x1364>
    2688:	5f544e49 	svcpl	0x00544e49
    268c:	5341454c 	movtpl	r4, #5452	; 0x154c
    2690:	5f343654 	svcpl	0x00343654
    2694:	5f58414d 	svcpl	0x0058414d
    2698:	5f00295f 	svcpl	0x0000295f
    269c:	696f6e5f 	stmdbvs	pc!, {r0, r1, r2, r3, r4, r6, r9, sl, fp, sp, lr}^	; <UNPREDICTABLE>
    26a0:	6e696c6e 	cdpvs	12, 6, cr6, cr9, cr14, {3}
    26a4:	5f5f2065 	svcpl	0x005f2065
    26a8:	72747461 	rsbsvc	r7, r4, #1627389952	; 0x61000000
    26ac:	74756269 	ldrbtvc	r6, [r5], #-617	; 0xfffffd97
    26b0:	205f5f65 	subscs	r5, pc, r5, ror #30
    26b4:	5f5f2828 	svcpl	0x005f2828
    26b8:	6e696f6e 	cdpvs	15, 6, cr6, cr9, cr14, {3}
    26bc:	656e696c 	strbvs	r6, [lr, #-2412]!	; 0xfffff694
    26c0:	29295f5f 	stmdbcs	r9!, {r0, r1, r2, r3, r4, r6, r8, r9, sl, fp, ip, lr}
    26c4:	49504700 	ldmdbmi	r0, {r8, r9, sl, lr}^
    26c8:	49505f4f 	ldmdbmi	r0, {r0, r1, r2, r3, r6, r8, r9, sl, fp, ip, lr}^
    26cc:	32315f4e 	eorscc	r5, r1, #312	; 0x138
    26d0:	75282820 	strvc	r2, [r8, #-2080]!	; 0xfffff7e0
    26d4:	31746e69 	cmncc	r4, r9, ror #28
    26d8:	29745f36 	ldmdbcs	r4!, {r1, r2, r4, r5, r8, r9, sl, fp, ip, lr}^
    26dc:	31783020 	cmncc	r8, r0, lsr #32
    26e0:	29303030 	ldmdbcs	r0!, {r4, r5, ip, sp}
    26e4:	414d5f00 	cmpmi	sp, r0, lsl #30
    26e8:	54534843 	ldrbpl	r4, [r3], #-2115	; 0xfffff7bd
    26ec:	42494c44 	submi	r4, r9, #68, 24	; 0x4400
    26f0:	205f485f 	subscs	r4, pc, pc, asr r8	; <UNPREDICTABLE>
    26f4:	535f5f00 	cmppl	pc, #0, 30
    26f8:	4f455a49 	svcmi	0x00455a49
    26fc:	4f4c5f46 	svcmi	0x004c5f46
    2700:	445f474e 	ldrbmi	r4, [pc], #-1870	; 2708 <_Min_Stack_Size+0x2308>
    2704:	4c42554f 	cfstr64mi	mvdx5, [r2], {79}	; 0x4f
    2708:	205f5f45 	subscs	r5, pc, r5, asr #30
    270c:	50470038 	subpl	r0, r7, r8, lsr r0
    2710:	505f4f49 	subspl	r4, pc, r9, asr #30
    2714:	355f4e49 	ldrbcc	r4, [pc, #-3657]	; 18d3 <_Min_Stack_Size+0x14d3>
    2718:	75282820 	strvc	r2, [r8, #-2080]!	; 0xfffff7e0
    271c:	31746e69 	cmncc	r4, r9, ror #28
    2720:	29745f36 	ldmdbcs	r4!, {r1, r2, r4, r5, r8, r9, sl, fp, ip, lr}^
    2724:	30783020 	rsbscc	r3, r8, r0, lsr #32
    2728:	29303230 	ldmdbcs	r0!, {r4, r5, r9, ip, sp}
    272c:	5f524300 	svcpl	0x00524300
    2730:	0074756f 	rsbseq	r7, r4, pc, ror #10
    2734:	43575f5f 	cmpmi	r7, #380	; 0x17c
    2738:	5f524148 	svcpl	0x00524148
    273c:	45505954 	ldrbmi	r5, [r0, #-2388]	; 0xfffff6ac
    2740:	75205f5f 	strvc	r5, [r0, #-3935]!	; 0xfffff0a1
    2744:	6769736e 	strbvs	r7, [r9, -lr, ror #6]!
    2748:	2064656e 	rsbcs	r6, r4, lr, ror #10
    274c:	00746e69 	rsbseq	r6, r4, r9, ror #28
    2750:	4545525f 	strbmi	r5, [r5, #-607]	; 0xfffffda1
    2754:	535f544e 	cmppl	pc, #1308622848	; 0x4e000000
    2758:	474e4749 	strbmi	r4, [lr, -r9, asr #14]
    275c:	70284d41 	eorvc	r4, r8, r1, asr #26
    2760:	20297274 	eorcs	r7, r9, r4, ror r2
    2764:	74702828 	ldrbtvc	r2, [r0], #-2088	; 0xfffff7d8
    2768:	3e2d2972 			; <UNDEFINED> instruction: 0x3e2d2972
    276c:	6d61675f 	stclvs	7, cr6, [r1, #-380]!	; 0xfffffe84
    2770:	735f616d 	cmpvc	pc, #1073741851	; 0x4000001b
    2774:	676e6769 	strbvs	r6, [lr, -r9, ror #14]!
    2778:	00296d61 	eoreq	r6, r9, r1, ror #26
    277c:	49545845 	ldmdbmi	r4, {r0, r2, r6, fp, ip, lr}^
    2780:	36445036 			; <UNDEFINED> instruction: 0x36445036
    2784:	58452820 	stmdapl	r5, {r5, fp, sp}^
    2788:	475f4954 			; <UNDEFINED> instruction: 0x475f4954
    278c:	5f4f4950 	svcpl	0x004f4950
    2790:	7070614d 	rsbsvc	r6, r0, sp, asr #2
    2794:	5f676e69 	svcpl	0x00676e69
    2798:	457b2974 	ldrbmi	r2, [fp, #-2420]!	; 0xfffff68c
    279c:	36495458 			; <UNDEFINED> instruction: 0x36495458
    27a0:	5047202c 	subpl	r2, r7, ip, lsr #32
    27a4:	2c444f49 	mcrrcs	15, 4, r4, r4, cr9
    27a8:	49504720 	ldmdbmi	r0, {r5, r8, r9, sl, lr}^
    27ac:	49505f4f 	ldmdbmi	r0, {r0, r1, r2, r3, r6, r8, r9, sl, fp, ip, lr}^
    27b0:	2c365f4e 	ldccs	15, cr5, [r6], #-312	; 0xfffffec8
    27b4:	54584520 	ldrbpl	r4, [r8], #-1312	; 0xfffffae0
    27b8:	495f3649 	ldmdbmi	pc, {r0, r3, r6, r9, sl, ip, sp}^	; <UNPREDICTABLE>
    27bc:	007d5152 	rsbseq	r5, sp, r2, asr r1
    27c0:	49545845 	ldmdbmi	r4, {r0, r2, r6, fp, ip, lr}^
    27c4:	38425038 	stmdacc	r2, {r3, r4, r5, ip, lr}^
    27c8:	58452820 	stmdapl	r5, {r5, fp, sp}^
    27cc:	475f4954 			; <UNDEFINED> instruction: 0x475f4954
    27d0:	5f4f4950 	svcpl	0x004f4950
    27d4:	7070614d 	rsbsvc	r6, r0, sp, asr #2
    27d8:	5f676e69 	svcpl	0x00676e69
    27dc:	457b2974 	ldrbmi	r2, [fp, #-2420]!	; 0xfffff68c
    27e0:	38495458 	stmdacc	r9, {r3, r4, r6, sl, ip, lr}^
    27e4:	5047202c 	subpl	r2, r7, ip, lsr #32
    27e8:	2c424f49 	mcrrcs	15, 4, r4, r2, cr9
    27ec:	49504720 	ldmdbmi	r0, {r5, r8, r9, sl, lr}^
    27f0:	49505f4f 	ldmdbmi	r0, {r0, r1, r2, r3, r6, r8, r9, sl, fp, ip, lr}^
    27f4:	2c385f4e 	ldccs	15, cr5, [r8], #-312	; 0xfffffec8
    27f8:	54584520 	ldrbpl	r4, [r8], #-1312	; 0xfffffae0
    27fc:	495f3849 	ldmdbmi	pc, {r0, r3, r6, fp, ip, sp}^	; <UNPREDICTABLE>
    2800:	007d5152 	rsbseq	r5, sp, r2, asr r1
    2804:	53555f5f 	cmppl	r5, #380	; 0x17c
    2808:	42495f41 	submi	r5, r9, #260	; 0x104
    280c:	5f5f5449 	svcpl	0x005f5449
    2810:	00363120 	eorseq	r3, r6, r0, lsr #2
    2814:	49545845 	ldmdbmi	r4, {r0, r2, r6, fp, ip, lr}^
    2818:	52495f31 	subpl	r5, r9, #49, 30	; 0xc4
    281c:	00372051 	eorseq	r2, r7, r1, asr r0
    2820:	43475f5f 	movtmi	r5, #32607	; 0x7f5f
    2824:	41485f43 	cmpmi	r8, r3, asr #30
    2828:	535f4556 	cmppl	pc, #360710144	; 0x15800000
    282c:	5f434e59 	svcpl	0x00434e59
    2830:	504d4f43 	subpl	r4, sp, r3, asr #30
    2834:	5f455241 	svcpl	0x00455241
    2838:	5f444e41 	svcpl	0x00444e41
    283c:	50415753 	subpl	r5, r1, r3, asr r7
    2840:	3120325f 			; <UNDEFINED> instruction: 0x3120325f
    2844:	42484100 	submi	r4, r8, #0, 2
    2848:	52545352 	subspl	r5, r4, #1207959553	; 0x48000001
    284c:	6e5f5f00 	cdpvs	15, 5, cr5, cr15, cr0, {0}
    2850:	5f646565 	svcpl	0x00646565
    2854:	61686377 	smcvs	34359	; 0x8637
    2858:	20745f72 	rsbscs	r5, r4, r2, ror pc
    285c:	685f5f00 	ldmdavs	pc, {r8, r9, sl, fp, ip, lr}^	; <UNPREDICTABLE>
    2860:	65646469 	strbvs	r6, [r4, #-1129]!	; 0xfffffb97
    2864:	5f5f206e 	svcpl	0x005f206e
    2868:	72747461 	rsbsvc	r7, r4, #1627389952	; 0x61000000
    286c:	74756269 	ldrbtvc	r6, [r5], #-617	; 0xfffffd97
    2870:	285f5f65 	ldmdacs	pc, {r0, r2, r5, r6, r8, r9, sl, fp, ip, lr}^	; <UNPREDICTABLE>
    2874:	765f5f28 	ldrbvc	r5, [pc], -r8, lsr #30
    2878:	62697369 	rsbvs	r7, r9, #-1543503871	; 0xa4000001
    287c:	74696c69 	strbtvc	r6, [r9], #-3177	; 0xfffff397
    2880:	285f5f79 	ldmdacs	pc, {r0, r3, r4, r5, r6, r8, r9, sl, fp, ip, lr}^	; <UNPREDICTABLE>
    2884:	64696822 	strbtvs	r6, [r9], #-2082	; 0xfffff7de
    2888:	226e6564 	rsbcs	r6, lr, #100, 10	; 0x19000000
    288c:	00292929 	eoreq	r2, r9, r9, lsr #18
    2890:	5f544e49 	svcpl	0x00544e49
    2894:	5341454c 	movtpl	r4, #5452	; 0x154c
    2898:	5f323354 	svcpl	0x00323354
    289c:	2058414d 	subscs	r4, r8, sp, asr #2
    28a0:	495f5f28 	ldmdbmi	pc, {r3, r5, r8, r9, sl, fp, ip, lr}^	; <UNPREDICTABLE>
    28a4:	4c5f544e 	cfldrdmi	mvd5, [pc], {78}	; 0x4e
    28a8:	54534145 	ldrbpl	r4, [r3], #-325	; 0xfffffebb
    28ac:	4d5f3233 	lfmmi	f3, 2, [pc, #-204]	; 27e8 <_Min_Stack_Size+0x23e8>
    28b0:	5f5f5841 	svcpl	0x005f5841
    28b4:	5f5f0029 	svcpl	0x005f0029
    28b8:	41524653 	cmpmi	r2, r3, asr r6
    28bc:	4d5f5443 	cfldrdmi	mvd5, [pc, #-268]	; 27b8 <_Min_Stack_Size+0x23b8>
    28c0:	5f5f5841 	svcpl	0x005f5841
    28c4:	37583020 	ldrbcc	r3, [r8, -r0, lsr #32]
    28c8:	372d5046 	strcc	r5, [sp, -r6, asr #32]!
    28cc:	5f005248 	svcpl	0x00005248
    28d0:	4e49555f 	mcrmi	5, 2, r5, cr9, cr15, {2}
    28d4:	41465f54 	cmpmi	r6, r4, asr pc
    28d8:	34365453 	ldrtcc	r5, [r6], #-1107	; 0xfffffbad
    28dc:	5059545f 	subspl	r5, r9, pc, asr r4
    28e0:	205f5f45 	subscs	r5, pc, r5, asr #30
    28e4:	676e6f6c 	strbvs	r6, [lr, -ip, ror #30]!
    28e8:	6e6f6c20 	cdpvs	12, 6, cr6, cr15, cr0, {1}
    28ec:	6e752067 	cdpvs	0, 7, cr2, cr5, cr7, {3}
    28f0:	6e676973 			; <UNDEFINED> instruction: 0x6e676973
    28f4:	69206465 	stmdbvs	r0!, {r0, r2, r5, r6, sl, sp, lr}
    28f8:	5f00746e 	svcpl	0x0000746e
    28fc:	544e4957 	strbpl	r4, [lr], #-2391	; 0xfffff6a9
    2900:	0020545f 	eoreq	r5, r0, pc, asr r4
    2904:	5f544e49 	svcpl	0x00544e49
    2908:	5341454c 	movtpl	r4, #5452	; 0x154c
    290c:	4d5f3854 	ldclmi	8, cr3, [pc, #-336]	; 27c4 <_Min_Stack_Size+0x23c4>
    2910:	28205841 	stmdacs	r0!, {r0, r6, fp, ip, lr}
    2914:	4e495f5f 	mcrmi	15, 2, r5, cr9, cr15, {2}
    2918:	454c5f54 	strbmi	r5, [ip, #-3924]	; 0xfffff0ac
    291c:	38545341 	ldmdacc	r4, {r0, r6, r8, r9, ip, lr}^
    2920:	58414d5f 	stmdapl	r1, {r0, r1, r2, r3, r4, r6, r8, sl, fp, lr}^
    2924:	00295f5f 	eoreq	r5, r9, pc, asr pc
    2928:	4349564e 	movtmi	r5, #38478	; 0x964e
    292c:	5458455f 	ldrbpl	r4, [r8], #-1375	; 0xfffffaa1
    2930:	495f3049 	ldmdbmi	pc, {r0, r3, r6, ip, sp}^	; <UNPREDICTABLE>
    2934:	445f5152 	ldrbmi	r5, [pc], #-338	; 293c <_Min_Stack_Size+0x253c>
    2938:	62617369 	rsbvs	r7, r1, #-1543503871	; 0xa4000001
    293c:	2820656c 	stmdacs	r0!, {r2, r3, r5, r6, r8, sl, sp, lr}
    2940:	4349564e 	movtmi	r5, #38478	; 0x964e
    2944:	4543495f 	strbmi	r4, [r3, #-2399]	; 0xfffff6a1
    2948:	7c203052 	stcvc	0, cr3, [r0], #-328	; 0xfffffeb8
    294c:	3c31203d 	ldccc	0, cr2, [r1], #-244	; 0xffffff0c
    2950:	0029363c 	eoreq	r3, r9, ip, lsr r6
    2954:	4c465f5f 	mcrrmi	15, 5, r5, r6, cr15
    2958:	494d5f54 	stmdbmi	sp, {r2, r4, r6, r8, r9, sl, fp, ip, lr}^
    295c:	205f5f4e 	subscs	r5, pc, lr, asr #30
    2960:	37312e31 			; <UNDEFINED> instruction: 0x37312e31
    2964:	34393435 	ldrtcc	r3, [r9], #-1077	; 0xfffffbcb
    2968:	38303533 	ldmdacc	r0!, {r0, r1, r4, r5, r8, sl, ip, sp}
    296c:	38323232 	ldmdacc	r2!, {r1, r4, r5, r9, ip, sp}
    2970:	2d653537 	cfstr64cs	mvdx3, [r5, #-220]!	; 0xffffff24
    2974:	00463833 	subeq	r3, r6, r3, lsr r8
    2978:	656e5f5f 	strbvs	r5, [lr, #-3935]!	; 0xfffff0a1
    297c:	735f6465 	cmpvc	pc, #1694498816	; 0x65000000
    2980:	5f657a69 	svcpl	0x00657a69
    2984:	5f002074 	svcpl	0x00002074
    2988:	5f41485f 	svcpl	0x0041485f
    298c:	54494246 	strbpl	r4, [r9], #-582	; 0xfffffdba
    2990:	37205f5f 			; <UNDEFINED> instruction: 0x37205f5f
    2994:	465f5f00 	ldrbmi	r5, [pc], -r0, lsl #30
    2998:	43495044 	movtmi	r5, #36932	; 0x9044
    299c:	5f005f5f 	svcpl	0x00005f5f
    29a0:	5246555f 	subpl	r5, r6, #398458880	; 0x17c00000
    29a4:	5f544341 	svcpl	0x00544341
    29a8:	5f4e494d 	svcpl	0x004e494d
    29ac:	2e30205f 	mrccs	0, 1, r2, cr0, cr15, {2}
    29b0:	00525530 	subseq	r5, r2, r0, lsr r5
    29b4:	43475f5f 	movtmi	r5, #32607	; 0x7f5f
    29b8:	54415f43 	strbpl	r5, [r1], #-3907	; 0xfffff0bd
    29bc:	43494d4f 	movtmi	r4, #40271	; 0x9d4f
    29c0:	4f4c4c5f 	svcmi	0x004c4c5f
    29c4:	4c5f474e 	mrrcmi	7, 4, r4, pc, cr14	; <UNPREDICTABLE>
    29c8:	5f4b434f 	svcpl	0x004b434f
    29cc:	45455246 	strbmi	r5, [r5, #-582]	; 0xfffffdba
    29d0:	53003120 	movwpl	r3, #288	; 0x120
    29d4:	415f4749 	cmpmi	pc, r9, asr #14
    29d8:	494d4f54 	stmdbmi	sp, {r2, r4, r6, r8, r9, sl, fp, lr}^
    29dc:	414d5f43 	cmpmi	sp, r3, asr #30
    29e0:	5f282058 	svcpl	0x00282058
    29e4:	4454535f 	ldrbmi	r5, [r4], #-863	; 0xfffffca1
    29e8:	5f544e49 	svcpl	0x00544e49
    29ec:	28505845 	ldmdacs	r0, {r0, r2, r6, fp, ip, lr}^
    29f0:	5f544e49 	svcpl	0x00544e49
    29f4:	2958414d 	ldmdbcs	r8, {r0, r2, r3, r6, r8, lr}^
    29f8:	564e0029 	strbpl	r0, [lr], -r9, lsr #32
    29fc:	495f4349 	ldmdbmi	pc, {r0, r3, r6, r8, r9, lr}^	; <UNPREDICTABLE>
    2a00:	31524543 	cmpcc	r2, r3, asr #10
    2a04:	76282a20 	strtvc	r2, [r8], -r0, lsr #20
    2a08:	74616c6f 	strbtvc	r6, [r1], #-3183	; 0xfffff391
    2a0c:	20656c69 	rsbcs	r6, r5, r9, ror #24
    2a10:	746e6975 	strbtvc	r6, [lr], #-2421	; 0xfffff68b
    2a14:	745f3233 	ldrbvc	r3, [pc], #-563	; 2a1c <_Min_Stack_Size+0x261c>
    2a18:	2829202a 	stmdacs	r9!, {r1, r3, r5, sp}
    2a1c:	4349564e 	movtmi	r5, #38478	; 0x964e
    2a20:	7361425f 	cmnvc	r1, #-268435451	; 0xf0000005
    2a24:	302b2065 	eorcc	r2, fp, r5, rrx
    2a28:	34383078 	ldrtcc	r3, [r8], #-120	; 0xffffff88
    2a2c:	49550029 	ldmdbmi	r5, {r0, r3, r5}^
    2a30:	3436544e 	ldrtcc	r5, [r6], #-1102	; 0xfffffbb2
    2a34:	58414d5f 	stmdapl	r1, {r0, r1, r2, r3, r4, r6, r8, sl, fp, lr}^
    2a38:	5f5f2820 	svcpl	0x005f2820
    2a3c:	544e4955 	strbpl	r4, [lr], #-2389	; 0xfffff6ab
    2a40:	4d5f3436 	cfldrdmi	mvd3, [pc, #-216]	; 2970 <_Min_Stack_Size+0x2570>
    2a44:	5f5f5841 	svcpl	0x005f5841
    2a48:	50530029 	subspl	r0, r3, r9, lsr #32
    2a4c:	495f3249 	ldmdbmi	pc, {r0, r3, r6, r9, ip, sp}^	; <UNPREDICTABLE>
    2a50:	33205152 			; <UNDEFINED> instruction: 0x33205152
    2a54:	4e470036 	mcrmi	0, 2, r0, cr7, cr6, {1}
    2a58:	31432055 	qdaddcc	r2, r5, r3
    2a5c:	30312031 	eorscc	r2, r1, r1, lsr r0
    2a60:	312e332e 			; <UNDEFINED> instruction: 0x312e332e
    2a64:	32303220 	eorscc	r3, r0, #32, 4
    2a68:	32383031 	eorscc	r3, r8, #49	; 0x31
    2a6c:	72282034 	eorvc	r2, r8, #52	; 0x34
    2a70:	61656c65 	cmnvs	r5, r5, ror #24
    2a74:	20296573 	eorcs	r6, r9, r3, ror r5
    2a78:	70636d2d 	rsbvc	r6, r3, sp, lsr #26
    2a7c:	6f633d75 	svcvs	0x00633d75
    2a80:	78657472 	stmdavc	r5!, {r1, r4, r5, r6, sl, ip, sp, lr}^
    2a84:	20336d2d 	eorscs	r6, r3, sp, lsr #26
    2a88:	6c666d2d 	stclvs	13, cr6, [r6], #-180	; 0xffffff4c
    2a8c:	2d74616f 	ldfcse	f6, [r4, #-444]!	; 0xfffffe44
    2a90:	3d696261 	sfmcc	f6, 2, [r9, #-388]!	; 0xfffffe7c
    2a94:	74666f73 	strbtvc	r6, [r6], #-3955	; 0xfffff08d
    2a98:	746d2d20 	strbtvc	r2, [sp], #-3360	; 0xfffff2e0
    2a9c:	626d7568 	rsbvs	r7, sp, #104, 10	; 0x1a000000
    2aa0:	616d2d20 	cmnvs	sp, r0, lsr #26
    2aa4:	3d686372 	stclcc	3, cr6, [r8, #-456]!	; 0xfffffe38
    2aa8:	766d7261 	strbtvc	r7, [sp], -r1, ror #4
    2aac:	206d2d37 	rsbcs	r2, sp, r7, lsr sp
    2ab0:	7764672d 	strbvc	r6, [r4, -sp, lsr #14]!
    2ab4:	2d667261 	sfmcs	f7, 2, [r6, #-388]!	; 0xfffffe7c
    2ab8:	672d2032 			; <UNDEFINED> instruction: 0x672d2032
    2abc:	4f2d2033 	svcmi	0x002d2033
    2ac0:	732d2030 			; <UNDEFINED> instruction: 0x732d2030
    2ac4:	673d6474 			; <UNDEFINED> instruction: 0x673d6474
    2ac8:	3131756e 	teqcc	r1, lr, ror #10
    2acc:	66662d20 	strbtvs	r2, [r6], -r0, lsr #26
    2ad0:	74636e75 	strbtvc	r6, [r3], #-3701	; 0xfffff18b
    2ad4:	2d6e6f69 	stclcs	15, cr6, [lr, #-420]!	; 0xfffffe5c
    2ad8:	74636573 	strbtvc	r6, [r3], #-1395	; 0xfffffa8d
    2adc:	736e6f69 	cmnvc	lr, #420	; 0x1a4
    2ae0:	64662d20 	strbtvs	r2, [r6], #-3360	; 0xfffff2e0
    2ae4:	2d617461 	cfstrdcs	mvd7, [r1, #-388]!	; 0xfffffe7c
    2ae8:	74636573 	strbtvc	r6, [r3], #-1395	; 0xfffffa8d
    2aec:	736e6f69 	cmnvc	lr, #420	; 0x1a4
    2af0:	73662d20 	cmnvc	r6, #32, 26	; 0x800
    2af4:	6b636174 	blvs	18db0cc <_Min_Stack_Size+0x18daccc>
    2af8:	6173752d 	cmnvs	r3, sp, lsr #10
    2afc:	2d206567 	cfstr32cs	mvfx6, [r0, #-412]!	; 0xfffffe64
    2b00:	63796366 	cmnvs	r9, #-1744830463	; 0x98000001
    2b04:	616d6f6c 	cmnvs	sp, ip, ror #30
    2b08:	2d636974 			; <UNDEFINED> instruction: 0x2d636974
    2b0c:	706d6f63 	rsbvc	r6, sp, r3, ror #30
    2b10:	6978656c 	ldmdbvs	r8!, {r2, r3, r5, r6, r8, sl, sp, lr}^
    2b14:	45007974 	strmi	r7, [r0, #-2420]	; 0xfffff68c
    2b18:	31495458 	cmpcc	r9, r8, asr r4
    2b1c:	52495f33 	subpl	r5, r9, #51, 30	; 0xcc
    2b20:	30342051 	eorscc	r2, r4, r1, asr r0
    2b24:	555f5f00 	ldrbpl	r5, [pc, #-3840]	; 1c2c <_Min_Stack_Size+0x182c>
    2b28:	41524653 	cmpmi	r2, r3, asr r6
    2b2c:	495f5443 	ldmdbmi	pc, {r0, r1, r6, sl, ip, lr}^	; <UNPREDICTABLE>
    2b30:	5f544942 	svcpl	0x00544942
    2b34:	0030205f 	eorseq	r2, r0, pc, asr r0
    2b38:	4e495f5f 	mcrmi	15, 2, r5, cr9, cr15, {2}
    2b3c:	5f323354 	svcpl	0x00323354
    2b40:	29632843 	stmdbcs	r3!, {r0, r1, r6, fp, sp}^
    2b44:	23206320 			; <UNDEFINED> instruction: 0x23206320
    2b48:	004c2023 	subeq	r2, ip, r3, lsr #32
    2b4c:	69755f5f 	ldmdbvs	r5!, {r0, r1, r2, r3, r4, r6, r8, r9, sl, fp, ip, lr}^
    2b50:	3631746e 	ldrtcc	r7, [r1], -lr, ror #8
    2b54:	5f00745f 	svcpl	0x0000745f
    2b58:	4e454552 	mcrmi	5, 2, r4, cr5, cr2, {2}
    2b5c:	49535f54 	ldmdbmi	r3, {r2, r4, r6, r8, r9, sl, fp, ip, lr}^
    2b60:	4c414e47 	mcrrmi	14, 4, r4, r1, cr7
    2b64:	4655425f 			; <UNDEFINED> instruction: 0x4655425f
    2b68:	72747028 	rsbsvc	r7, r4, #40	; 0x28
    2b6c:	28282029 	stmdacs	r8!, {r0, r3, r5, sp}
    2b70:	29727470 	ldmdbcs	r2!, {r4, r5, r6, sl, ip, sp, lr}^
    2b74:	735f3e2d 	cmpvc	pc, #720	; 0x2d0
    2b78:	616e6769 	cmnvs	lr, r9, ror #14
    2b7c:	75625f6c 	strbvc	r5, [r2, #-3948]!	; 0xfffff094
    2b80:	4e002966 	vmlsmi.f16	s4, s0, s13	; <UNPREDICTABLE>
    2b84:	5f434956 	svcpl	0x00434956
    2b88:	52454349 	subpl	r4, r5, #603979777	; 0x24000001
    2b8c:	282a2030 	stmdacs	sl!, {r4, r5, sp}
    2b90:	616c6f76 	smcvs	50934	; 0xc6f6
    2b94:	656c6974 	strbvs	r6, [ip, #-2420]!	; 0xfffff68c
    2b98:	6e697520 	cdpvs	5, 6, cr7, cr9, cr0, {1}
    2b9c:	5f323374 	svcpl	0x00323374
    2ba0:	29202a74 	stmdbcs	r0!, {r2, r4, r5, r6, r9, fp, sp}
    2ba4:	49564e28 	ldmdbmi	r6, {r3, r5, r9, sl, fp, lr}^
    2ba8:	61425f43 	cmpvs	r2, r3, asr #30
    2bac:	2b206573 	blcs	81c180 <_Min_Stack_Size+0x81bd80>
    2bb0:	38307830 	ldmdacc	r0!, {r4, r5, fp, ip, sp, lr}
    2bb4:	5f002930 	svcpl	0x00002930
    2bb8:	4653555f 			; <UNDEFINED> instruction: 0x4653555f
    2bbc:	54434152 	strbpl	r4, [r3], #-338	; 0xfffffeae
    2bc0:	4e494d5f 	mcrmi	13, 2, r4, cr9, cr15, {2}
    2bc4:	30205f5f 	eorcc	r5, r0, pc, asr pc
    2bc8:	4855302e 	ldmdami	r5, {r1, r2, r3, r5, ip, sp}^
    2bcc:	5f5f0052 	svcpl	0x005f0052
    2bd0:	64657375 	strbtvs	r7, [r5], #-885	; 0xfffffc8b
    2bd4:	615f5f20 	cmpvs	pc, r0, lsr #30
    2bd8:	69727474 	ldmdbvs	r2!, {r2, r4, r5, r6, sl, ip, sp, lr}^
    2bdc:	65747562 	ldrbvs	r7, [r4, #-1378]!	; 0xfffffa9e
    2be0:	28285f5f 	stmdacs	r8!, {r0, r1, r2, r3, r4, r6, r8, r9, sl, fp, ip, lr}
    2be4:	73755f5f 	cmnvc	r5, #380	; 0x17c
    2be8:	5f5f6465 	svcpl	0x005f6465
    2bec:	5f002929 	svcpl	0x00002929
    2bf0:	6e65675f 	mcrvs	7, 3, r6, cr5, cr15, {2}
    2bf4:	63697265 	cmnvs	r9, #1342177286	; 0x50000006
    2bf8:	70786528 	rsbsvc	r6, r8, r8, lsr #10
    2bfc:	2c742c72 	ldclcs	12, cr2, [r4], #-456	; 0xfffffe38
    2c00:	2c736579 	cfldr64cs	mvdx6, [r3], #-484	; 0xfffffe1c
    2c04:	20296f6e 	eorcs	r6, r9, lr, ror #30
    2c08:	6e65475f 	mcrvs	7, 3, r4, cr5, cr15, {2}
    2c0c:	63697265 	cmnvs	r9, #1342177286	; 0x50000006
    2c10:	70786528 	rsbsvc	r6, r8, r8, lsr #10
    2c14:	74202c72 	strtvc	r2, [r0], #-3186	; 0xfffff38e
    2c18:	6579203a 	ldrbvs	r2, [r9, #-58]!	; 0xffffffc6
    2c1c:	64202c73 	strtvs	r2, [r0], #-3187	; 0xfffff38d
    2c20:	75616665 	strbvc	r6, [r1, #-1637]!	; 0xfffff99b
    2c24:	203a746c 	eorscs	r7, sl, ip, ror #8
    2c28:	00296f6e 	eoreq	r6, r9, lr, ror #30
    2c2c:	52415f5f 	subpl	r5, r1, #380	; 0x17c
    2c30:	454e5f4d 	strbmi	r5, [lr, #-3917]	; 0xfffff0b3
    2c34:	5f004e4f 	svcpl	0x00004e4f
    2c38:	4e454552 	mcrmi	5, 2, r4, cr5, cr2, {2}
    2c3c:	4d455f54 	stclmi	15, cr5, [r5, #-336]	; 0xfffffeb0
    2c40:	45475245 	strbmi	r5, [r7, #-581]	; 0xfffffdbb
    2c44:	2859434e 	ldmdacs	r9, {r1, r2, r3, r6, r8, r9, lr}^
    2c48:	29727470 	ldmdbcs	r2!, {r4, r5, r6, sl, ip, sp, lr}^
    2c4c:	70282820 	eorvc	r2, r8, r0, lsr #16
    2c50:	2d297274 	sfmcs	f7, 4, [r9, #-464]!	; 0xfffffe30
    2c54:	6d655f3e 	stclvs	15, cr5, [r5, #-248]!	; 0xffffff08
    2c58:	65677265 	strbvs	r7, [r7, #-613]!	; 0xfffffd9b
    2c5c:	2979636e 	ldmdbcs	r9!, {r1, r2, r3, r5, r6, r8, r9, sp, lr}^
    2c60:	475f5f00 	ldrbmi	r5, [pc, -r0, lsl #30]
    2c64:	4c43554e 	cfstr64mi	mvdx5, [r3], {78}	; 0x4e
    2c68:	5f454b49 	svcpl	0x00454b49
    2c6c:	524f5443 	subpl	r5, pc, #1124073472	; 0x43000000
    2c70:	4345535f 	movtmi	r5, #21343	; 0x535f
    2c74:	4e4f4954 			; <UNDEFINED> instruction: 0x4e4f4954
    2c78:	4e41485f 	mcrmi	8, 2, r4, cr1, cr15, {2}
    2c7c:	4e494c44 	cdpmi	12, 4, cr4, cr9, cr4, {2}
    2c80:	00312047 	eorseq	r2, r1, r7, asr #32
    2c84:	49555f5f 	ldmdbmi	r5, {r0, r1, r2, r3, r4, r6, r8, r9, sl, fp, ip, lr}^
    2c88:	5f38544e 	svcpl	0x0038544e
    2c8c:	5f58414d 	svcpl	0x0058414d
    2c90:	7830205f 	ldmdavc	r0!, {r0, r1, r2, r3, r4, r6, sp}
    2c94:	5f006666 	svcpl	0x00006666
    2c98:	636f6c5f 	cmnvs	pc, #24320	; 0x5f00
    2c9c:	63615f6b 	cmnvs	r1, #428	; 0x1ac
    2ca0:	72697571 	rsbvc	r7, r9, #473956352	; 0x1c400000
    2ca4:	65725f65 	ldrbvs	r5, [r2, #-3941]!	; 0xfffff09b
    2ca8:	73727563 	cmnvc	r2, #415236096	; 0x18c00000
    2cac:	28657669 	stmdacs	r5!, {r0, r3, r5, r6, r9, sl, ip, sp, lr}^
    2cb0:	6b636f6c 	blvs	18dea68 <_Min_Stack_Size+0x18de668>
    2cb4:	5f5f2029 	svcpl	0x005f2029
    2cb8:	61746572 	cmnvs	r4, r2, ror r5
    2cbc:	74656772 	strbtvc	r6, [r5], #-1906	; 0xfffff88e
    2cc0:	636f6c5f 	cmnvs	pc, #24320	; 0x5f00
    2cc4:	63615f6b 	cmnvs	r1, #428	; 0x1ac
    2cc8:	72697571 	rsbvc	r7, r9, #473956352	; 0x1c400000
    2ccc:	65725f65 	ldrbvs	r5, [r2, #-3941]!	; 0xfffff09b
    2cd0:	73727563 	cmnvc	r2, #415236096	; 0x18c00000
    2cd4:	28657669 	stmdacs	r5!, {r0, r3, r5, r6, r9, sl, ip, sp, lr}^
    2cd8:	6b636f6c 	blvs	18dea90 <_Min_Stack_Size+0x18de690>
    2cdc:	525f0029 	subspl	r0, pc, #41	; 0x29
    2ce0:	544e4545 	strbpl	r4, [lr], #-1349	; 0xfffffabb
    2ce4:	6d695f20 	stclvs	15, cr5, [r9, #-128]!	; 0xffffff80
    2ce8:	65727570 	ldrbvs	r7, [r2, #-1392]!	; 0xfffffa90
    2cec:	7274705f 	rsbsvc	r7, r4, #95	; 0x5f
    2cf0:	685f5f00 	ldmdavs	pc, {r8, r9, sl, fp, ip, lr}^	; <UNPREDICTABLE>
    2cf4:	665f7361 	ldrbvs	r7, [pc], -r1, ror #6
    2cf8:	75746165 	ldrbvc	r6, [r4, #-357]!	; 0xfffffe9b
    2cfc:	78286572 	stmdavc	r8!, {r1, r4, r5, r6, r8, sl, sp, lr}
    2d00:	00302029 	eorseq	r2, r0, r9, lsr #32
    2d04:	49545845 	ldmdbmi	r4, {r0, r2, r6, fp, ip, lr}^
    2d08:	6e69505f 	mcrvs	0, 3, r5, cr9, cr15, {2}
    2d0c:	666e6f43 	strbtvs	r6, [lr], -r3, asr #30
    2d10:	745f6769 	ldrbvc	r6, [pc], #-1897	; 2d18 <_Min_Stack_Size+0x2918>
    2d14:	41535500 	cmpmi	r3, r0, lsl #10
    2d18:	20335452 	eorscs	r5, r3, r2, asr r4
    2d1c:	53552828 	cmppl	r5, #40, 16	; 0x280000
    2d20:	5f545241 	svcpl	0x00545241
    2d24:	65707954 	ldrbvs	r7, [r0, #-2388]!	; 0xfffff6ac
    2d28:	5f666564 	svcpl	0x00666564
    2d2c:	292a2074 	stmdbcs	sl!, {r2, r4, r5, r6, sp}
    2d30:	52415355 	subpl	r5, r1, #1409286145	; 0x54000001
    2d34:	425f3354 	subsmi	r3, pc, #84, 6	; 0x50000001
    2d38:	29455341 	stmdbcs	r5, {r0, r6, r8, r9, ip, lr}^
    2d3c:	655f5f00 	ldrbvs	r5, [pc, #-3840]	; 1e44 <_Min_Stack_Size+0x1a44>
    2d40:	726f7078 	rsbvc	r7, pc, #120	; 0x78
    2d44:	20646574 	rsbcs	r6, r4, r4, ror r5
    2d48:	74615f5f 	strbtvc	r5, [r1], #-3935	; 0xfffff0a1
    2d4c:	62697274 	rsbvs	r7, r9, #116, 4	; 0x40000007
    2d50:	5f657475 	svcpl	0x00657475
    2d54:	5f28285f 	svcpl	0x0028285f
    2d58:	7369765f 	cmnvc	r9, #99614720	; 0x5f00000
    2d5c:	6c696269 	sfmvs	f6, 2, [r9], #-420	; 0xfffffe5c
    2d60:	5f797469 	svcpl	0x00797469
    2d64:	6422285f 	strtvs	r2, [r2], #-2143	; 0xfffff7a1
    2d68:	75616665 	strbvc	r6, [r1, #-1637]!	; 0xfffff99b
    2d6c:	2922746c 	stmdbcs	r2!, {r2, r3, r5, r6, sl, ip, sp, lr}
    2d70:	5f002929 	svcpl	0x00002929
    2d74:	4343535f 	movtmi	r5, #13151	; 0x335f
    2d78:	28444953 	stmdacs	r4, {r0, r1, r4, r6, r8, fp, lr}^
    2d7c:	73202973 			; <UNDEFINED> instruction: 0x73202973
    2d80:	63757274 	cmnvs	r5, #116, 4	; 0x40000007
    2d84:	5f5f2074 	svcpl	0x005f2074
    2d88:	6b636168 	blvs	18db330 <_Min_Stack_Size+0x18daf30>
    2d8c:	445f5f00 	ldrbmi	r5, [pc], #-3840	; 2d94 <_Min_Stack_Size+0x2994>
    2d90:	485f4c42 	ldmdami	pc, {r1, r6, sl, fp, lr}^	; <UNPREDICTABLE>
    2d94:	445f5341 	ldrbmi	r5, [pc], #-833	; 2d9c <_Min_Stack_Size+0x299c>
    2d98:	524f4e45 	subpl	r4, pc, #1104	; 0x450
    2d9c:	205f5f4d 	subscs	r5, pc, sp, asr #30
    2da0:	5f5f0031 	svcpl	0x005f0031
    2da4:	6b636f6c 	blvs	18deb5c <_Min_Stack_Size+0x18de75c>
    2da8:	7972745f 	ldmdbvc	r2!, {r0, r1, r2, r3, r4, r6, sl, ip, sp, lr}^
    2dac:	7163615f 	cmnvc	r3, pc, asr r1
    2db0:	65726975 	ldrbvs	r6, [r2, #-2421]!	; 0xfffff68b
    2db4:	6365725f 	cmnvs	r5, #-268435451	; 0xf0000005
    2db8:	69737275 	ldmdbvs	r3!, {r0, r2, r4, r5, r6, r9, ip, sp, lr}^
    2dbc:	6c286576 	cfstr32vs	mvfx6, [r8], #-472	; 0xfffffe28
    2dc0:	296b636f 	stmdbcs	fp!, {r0, r1, r2, r3, r5, r6, r8, r9, sp, lr}^
    2dc4:	725f5f20 	subsvc	r5, pc, #32, 30	; 0x80
    2dc8:	72617465 	rsbvc	r7, r1, #1694498816	; 0x65000000
    2dcc:	5f746567 	svcpl	0x00746567
    2dd0:	6b636f6c 	blvs	18deb88 <_Min_Stack_Size+0x18de788>
    2dd4:	7972745f 	ldmdbvc	r2!, {r0, r1, r2, r3, r4, r6, sl, ip, sp, lr}^
    2dd8:	7163615f 	cmnvc	r3, pc, asr r1
    2ddc:	65726975 	ldrbvs	r6, [r2, #-2421]!	; 0xfffff68b
    2de0:	6365725f 	cmnvs	r5, #-268435451	; 0xf0000005
    2de4:	69737275 	ldmdbvs	r3!, {r0, r2, r4, r5, r6, r9, ip, sp, lr}^
    2de8:	6c286576 	cfstr32vs	mvfx6, [r8], #-472	; 0xfffffe28
    2dec:	296b636f 	stmdbcs	fp!, {r0, r1, r2, r3, r5, r6, r8, r9, sp, lr}^
    2df0:	424d5f00 	submi	r5, sp, #0, 30
    2df4:	4e454c5f 	mcrmi	12, 2, r4, cr5, cr15, {2}
    2df8:	58414d5f 	stmdapl	r1, {r0, r1, r2, r3, r4, r6, r8, sl, fp, lr}^
    2dfc:	49003120 	stmdbmi	r0, {r5, r8, ip, sp}
    2e00:	414d544e 	cmpmi	sp, lr, asr #8
    2e04:	414d5f58 	cmpmi	sp, r8, asr pc
    2e08:	5f282058 	svcpl	0x00282058
    2e0c:	544e495f 	strbpl	r4, [lr], #-2399	; 0xfffff6a1
    2e10:	5f58414d 	svcpl	0x0058414d
    2e14:	5f58414d 	svcpl	0x0058414d
    2e18:	4900295f 	stmdbmi	r0, {r0, r1, r2, r3, r4, r6, r8, fp, sp}
    2e1c:	3233544e 	eorscc	r5, r3, #1308622848	; 0x4e000000
    2e20:	58414d5f 	stmdapl	r1, {r0, r1, r2, r3, r4, r6, r8, sl, fp, lr}^
    2e24:	5f5f2820 	svcpl	0x005f2820
    2e28:	33544e49 	cmpcc	r4, #1168	; 0x490
    2e2c:	414d5f32 	cmpmi	sp, r2, lsr pc
    2e30:	295f5f58 	ldmdbcs	pc, {r3, r4, r6, r8, r9, sl, fp, ip, lr}^	; <UNPREDICTABLE>
    2e34:	445f5f00 	ldrbmi	r5, [pc], #-3840	; 2e3c <_Min_Stack_Size+0x2a3c>
    2e38:	42465f41 	submi	r5, r6, #260	; 0x104
    2e3c:	5f5f5449 	svcpl	0x005f5449
    2e40:	00313320 	eorseq	r3, r1, r0, lsr #6
    2e44:	58475f5f 	stmdapl	r7, {r0, r1, r2, r3, r4, r6, r8, r9, sl, fp, ip, lr}^
    2e48:	42415f58 	submi	r5, r1, #88, 30	; 0x160
    2e4c:	45565f49 	ldrbmi	r5, [r6, #-3913]	; 0xfffff0b7
    2e50:	4f495352 	svcmi	0x00495352
    2e54:	3031204e 	eorscc	r2, r1, lr, asr #32
    2e58:	5f003431 	svcpl	0x00003431
    2e5c:	544e495f 	strbpl	r4, [lr], #-2399	; 0xfffff6a1
    2e60:	41454c5f 	cmpmi	r5, pc, asr ip
    2e64:	36315453 			; <UNDEFINED> instruction: 0x36315453
    2e68:	58414d5f 	stmdapl	r1, {r0, r1, r2, r3, r4, r6, r8, sl, fp, lr}^
    2e6c:	30205f5f 	eorcc	r5, r0, pc, asr pc
    2e70:	66663778 			; <UNDEFINED> instruction: 0x66663778
    2e74:	5f5f0066 	svcpl	0x005f0066
    2e78:	5f544c46 	svcpl	0x00544c46
    2e7c:	4f4e4544 	svcmi	0x004e4544
    2e80:	4d5f4d52 	ldclmi	13, cr4, [pc, #-328]	; 2d40 <_Min_Stack_Size+0x2940>
    2e84:	5f5f4e49 	svcpl	0x005f4e49
    2e88:	342e3120 	strtcc	r3, [lr], #-288	; 0xfffffee0
    2e8c:	39323130 	ldmdbcc	r2!, {r4, r5, r8, ip, sp}
    2e90:	34363438 	ldrtcc	r3, [r6], #-1080	; 0xfffffbc8
    2e94:	38343233 	ldmdacc	r4!, {r0, r1, r4, r5, r9, ip, sp}
    2e98:	65313731 	ldrvs	r3, [r1, #-1841]!	; 0xfffff8cf
    2e9c:	4635342d 	ldrtmi	r3, [r5], -sp, lsr #8
    2ea0:	4c5f5f00 	mrrcmi	15, 0, r5, pc, cr0	; <UNPREDICTABLE>
    2ea4:	54534145 	ldrbpl	r4, [r3], #-325	; 0xfffffebb
    2ea8:	68222038 	stmdavs	r2!, {r3, r4, r5, sp}
    2eac:	55002268 	strpl	r2, [r0, #-616]	; 0xfffffd98
    2eb0:	5f544e49 	svcpl	0x00544e49
    2eb4:	54534146 	ldrbpl	r4, [r3], #-326	; 0xfffffeba
    2eb8:	4d5f3631 	ldclmi	6, cr3, [pc, #-196]	; 2dfc <_Min_Stack_Size+0x29fc>
    2ebc:	28205841 	stmdacs	r0!, {r0, r6, fp, ip, lr}
    2ec0:	49555f5f 	ldmdbmi	r5, {r0, r1, r2, r3, r4, r6, r8, r9, sl, fp, ip, lr}^
    2ec4:	465f544e 	ldrbmi	r5, [pc], -lr, asr #8
    2ec8:	31545341 	cmpcc	r4, r1, asr #6
    2ecc:	414d5f36 	cmpmi	sp, r6, lsr pc
    2ed0:	295f5f58 	ldmdbcs	pc, {r3, r4, r6, r8, r9, sl, fp, ip, lr}^	; <UNPREDICTABLE>
    2ed4:	49504700 	ldmdbmi	r0, {r8, r9, sl, lr}^
    2ed8:	4f4d5f4f 	svcmi	0x004d5f4f
    2edc:	415f4544 	cmpmi	pc, r4, asr #10
    2ee0:	6f6c616e 	svcvs	0x006c616e
    2ee4:	78302067 	ldmdavc	r0!, {r0, r1, r2, r5, r6, sp}
    2ee8:	30303030 	eorscc	r3, r0, r0, lsr r0
    2eec:	30303030 	eorscc	r3, r0, r0, lsr r0
    2ef0:	725f5f00 	subsvc	r5, pc, #0, 30
    2ef4:	72757465 	rsbsvc	r7, r5, #1694498816	; 0x65000000
    2ef8:	745f736e 	ldrbvc	r7, [pc], #-878	; 2f00 <_Min_Stack_Size+0x2b00>
    2efc:	65636977 	strbvs	r6, [r3, #-2423]!	; 0xfffff689
    2f00:	615f5f20 	cmpvs	pc, r0, lsr #30
    2f04:	69727474 	ldmdbvs	r2!, {r2, r4, r5, r6, sl, ip, sp, lr}^
    2f08:	65747562 	ldrbvs	r7, [r4, #-1378]!	; 0xfffffa9e
    2f0c:	28285f5f 	stmdacs	r8!, {r0, r1, r2, r3, r4, r6, r8, r9, sl, fp, ip, lr}
    2f10:	65725f5f 	ldrbvs	r5, [r2, #-3935]!	; 0xfffff0a1
    2f14:	6e727574 	mrcvs	5, 3, r7, cr2, cr4, {3}
    2f18:	77745f73 			; <UNDEFINED> instruction: 0x77745f73
    2f1c:	5f656369 	svcpl	0x00656369
    2f20:	0029295f 	eoreq	r2, r9, pc, asr r9
    2f24:	4c555f5f 	mrrcmi	15, 5, r5, r5, cr15	; <UNPREDICTABLE>
    2f28:	4343414c 	movtmi	r4, #12620	; 0x314c
    2f2c:	455f4d55 	ldrbmi	r4, [pc, #-3413]	; 21df <_Min_Stack_Size+0x1ddf>
    2f30:	4c495350 	mcrrmi	3, 5, r5, r9, cr0
    2f34:	5f5f4e4f 	svcpl	0x005f4e4f
    2f38:	31783020 	cmncc	r8, r0, lsr #32
    2f3c:	32332d50 	eorscc	r2, r3, #80, 26	; 0x1400
    2f40:	4b4c4c55 	blmi	131609c <_Min_Stack_Size+0x1315c9c>
    2f44:	725f5f00 	subsvc	r5, pc, #0, 30
    2f48:	69757165 	ldmdbvs	r5!, {r0, r2, r5, r6, r8, ip, sp, lr}^
    2f4c:	5f736572 	svcpl	0x00736572
    2f50:	72616873 	rsbvc	r6, r1, #7536640	; 0x730000
    2f54:	2e286465 	cdpcs	4, 2, cr6, cr8, cr5, {3}
    2f58:	20292e2e 	eorcs	r2, r9, lr, lsr #28
    2f5c:	6f6c5f5f 	svcvs	0x006c5f5f
    2f60:	615f6b63 	cmpvs	pc, r3, ror #22
    2f64:	746f6e6e 	strbtvc	r6, [pc], #-3694	; 2f6c <_Min_Stack_Size+0x2b6c>
    2f68:	28657461 	stmdacs	r5!, {r0, r5, r6, sl, ip, sp, lr}^
    2f6c:	72616873 	rsbvc	r6, r1, #7536640	; 0x730000
    2f70:	6c5f6465 	cfldrdvs	mvd6, [pc], {101}	; 0x65
    2f74:	736b636f 	cmnvc	fp, #-1140850687	; 0xbc000001
    2f78:	7165725f 	cmnvc	r5, pc, asr r2
    2f7c:	65726975 	ldrbvs	r6, [r2, #-2421]!	; 0xfffff68b
    2f80:	5f5f2864 	svcpl	0x005f2864
    2f84:	415f4156 	cmpmi	pc, r6, asr r1	; <UNPREDICTABLE>
    2f88:	5f534752 	svcpl	0x00534752
    2f8c:	0029295f 	eoreq	r2, r9, pc, asr r9
    2f90:	444e455f 	strbmi	r4, [lr], #-1375	; 0xfffffaa1
    2f94:	4454535f 	ldrbmi	r5, [r4], #-863	; 0xfffffca1
    2f98:	0020435f 	eoreq	r4, r0, pc, asr r3
    2f9c:	535f545f 	cmppl	pc, #1593835520	; 0x5f000000
    2fa0:	20455a49 	subcs	r5, r5, r9, asr #20
    2fa4:	49564e00 	ldmdbmi	r6, {r9, sl, fp, lr}^
    2fa8:	53555f43 	cmppl	r5, #268	; 0x10c
    2fac:	33545241 	cmpcc	r4, #268435460	; 0x10000004
    2fb0:	5152495f 	cmppl	r2, pc, asr r9
    2fb4:	616e455f 	cmnvs	lr, pc, asr r5
    2fb8:	20656c62 	rsbcs	r6, r5, r2, ror #24
    2fbc:	49564e28 	ldmdbmi	r6, {r3, r5, r9, sl, fp, lr}^
    2fc0:	53495f43 	movtpl	r5, #40771	; 0x9f43
    2fc4:	20315245 	eorscs	r5, r1, r5, asr #4
    2fc8:	31203d7c 			; <UNDEFINED> instruction: 0x31203d7c
    2fcc:	55283c3c 	strpl	r3, [r8, #-3132]!	; 0xfffff3c4
    2fd0:	54524153 	ldrbpl	r4, [r2], #-339	; 0xfffffead
    2fd4:	52495f33 	subpl	r5, r9, #51, 30	; 0xcc
    2fd8:	202d2051 	eorcs	r2, sp, r1, asr r0
    2fdc:	29293233 	stmdbcs	r9!, {r0, r1, r4, r5, r9, ip, sp}
    2fe0:	4e495500 	cdpmi	5, 4, cr5, cr9, cr0, {0}
    2fe4:	454c5f54 	strbmi	r5, [ip, #-3924]	; 0xfffff0ac
    2fe8:	31545341 	cmpcc	r4, r1, asr #6
    2fec:	414d5f36 	cmpmi	sp, r6, lsr pc
    2ff0:	5f282058 	svcpl	0x00282058
    2ff4:	4e49555f 	mcrmi	5, 2, r5, cr9, cr15, {2}
    2ff8:	454c5f54 	strbmi	r5, [ip, #-3924]	; 0xfffff0ac
    2ffc:	31545341 	cmpcc	r4, r1, asr #6
    3000:	414d5f36 	cmpmi	sp, r6, lsr pc
    3004:	295f5f58 	ldmdbcs	pc, {r3, r4, r6, r8, r9, sl, fp, ip, lr}^	; <UNPREDICTABLE>
    3008:	555f5f00 	ldrbpl	r5, [pc, #-3840]	; 2110 <_Min_Stack_Size+0x1d10>
    300c:	33544e49 	cmpcc	r4, #1168	; 0x490
    3010:	28435f32 	stmdacs	r3, {r1, r4, r5, r8, r9, sl, fp, ip, lr}^
    3014:	63202963 			; <UNDEFINED> instruction: 0x63202963
    3018:	20232320 	eorcs	r2, r3, r0, lsr #6
    301c:	5f004c55 	svcpl	0x00004c55
    3020:	4341555f 	movtmi	r5, #5471	; 0x155f
    3024:	5f4d5543 	svcpl	0x004d5543
    3028:	5f4e494d 	svcpl	0x004e494d
    302c:	2e30205f 	mrccs	0, 1, r2, cr0, cr15, {2}
    3030:	004b5530 	subeq	r5, fp, r0, lsr r5
    3034:	4545525f 	strbmi	r5, [r5, #-607]	; 0xfffffda1
    3038:	4d5f544e 	cfldrdmi	mvd5, [pc, #-312]	; 2f08 <_Min_Stack_Size+0x2b08>
    303c:	574f5442 	strbpl	r5, [pc, -r2, asr #8]
    3040:	54535f43 	ldrbpl	r5, [r3], #-3907	; 0xfffff0bd
    3044:	28455441 	stmdacs	r5, {r0, r6, sl, ip, lr}^
    3048:	29727470 	ldmdbcs	r2!, {r4, r5, r6, sl, ip, sp, lr}^
    304c:	70282820 	eorvc	r2, r8, r0, lsr #16
    3050:	2d297274 	sfmcs	f7, 4, [r9, #-464]!	; 0xfffffe30
    3054:	696d5f3e 	stmdbvs	sp!, {r1, r2, r3, r4, r5, r8, r9, sl, fp, ip, lr}^
    3058:	3e2d6373 	mcrcc	3, 1, r6, cr13, cr3, {3}
    305c:	74626d5f 	strbtvc	r6, [r2], #-3423	; 0xfffff2a1
    3060:	5f63776f 	svcpl	0x0063776f
    3064:	74617473 	strbtvc	r7, [r1], #-1139	; 0xfffffb8d
    3068:	5f002965 	svcpl	0x00002965
    306c:	6c6c754e 	cfstr64vs	mvdx7, [ip], #-312	; 0xfffffec8
    3070:	736e755f 	cmnvc	lr, #398458880	; 0x17c00000
    3074:	69636570 	stmdbvs	r3!, {r4, r5, r6, r8, sl, sp, lr}^
    3078:	64656966 	strbtvs	r6, [r5], #-2406	; 0xfffff69a
    307c:	5f5f0020 	svcpl	0x005f0020
    3080:	5f544c46 	svcpl	0x00544c46
    3084:	49535045 	ldmdbmi	r3, {r0, r2, r6, ip, lr}^
    3088:	5f4e4f4c 	svcpl	0x004e4f4c
    308c:	2e31205f 	mrccs	0, 1, r2, cr1, cr15, {2}
    3090:	30323931 	eorscc	r3, r2, r1, lsr r9
    3094:	39383239 	ldmdbcc	r8!, {r0, r3, r4, r5, r9, ip, sp}
    3098:	37303535 			; <UNDEFINED> instruction: 0x37303535
    309c:	35323138 	ldrcc	r3, [r2, #-312]!	; 0xfffffec8
    30a0:	46372d65 	ldrtmi	r2, [r7], -r5, ror #26
    30a4:	585f5f00 	ldmdapl	pc, {r8, r9, sl, fp, ip, lr}^	; <UNPREDICTABLE>
    30a8:	49525453 	ldmdbmi	r2, {r0, r1, r4, r6, sl, ip, lr}^
    30ac:	7828474e 	stmdavc	r8!, {r1, r2, r3, r6, r8, r9, sl, lr}
    30b0:	5f5f2029 	svcpl	0x005f2029
    30b4:	49525453 	ldmdbmi	r2, {r0, r1, r4, r6, sl, ip, lr}^
    30b8:	7828474e 	stmdavc	r8!, {r1, r2, r3, r6, r8, r9, sl, lr}
    30bc:	5f5f0029 	svcpl	0x005f0029
    30c0:	72747461 	rsbsvc	r7, r4, #1627389952	; 0x61000000
    30c4:	74756269 	ldrbtvc	r6, [r5], #-617	; 0xfffffd97
    30c8:	75705f65 	ldrbvc	r5, [r0, #-3941]!	; 0xfffff09b
    30cc:	5f5f6572 	svcpl	0x005f6572
    30d0:	5f5f0020 	svcpl	0x005f0020
    30d4:	5f434347 	svcpl	0x00434347
    30d8:	4d4f5441 	cfstrdmi	mvd5, [pc, #-260]	; 2fdc <_Min_Stack_Size+0x2bdc>
    30dc:	535f4349 	cmppl	pc, #603979777	; 0x24000001
    30e0:	54524f48 	ldrbpl	r4, [r2], #-3912	; 0xfffff0b8
    30e4:	434f4c5f 	movtmi	r4, #64607	; 0xfc5f
    30e8:	52465f4b 	subpl	r5, r6, #300	; 0x12c
    30ec:	32204545 	eorcc	r4, r0, #289406976	; 0x11400000
    30f0:	49505300 	ldmdbmi	r0, {r8, r9, ip, lr}^
    30f4:	28282031 	stmdacs	r8!, {r0, r4, r5, sp}
    30f8:	5f495053 	svcpl	0x00495053
    30fc:	65707954 	ldrbvs	r7, [r0, #-2388]!	; 0xfffff6ac
    3100:	5f666564 	svcpl	0x00666564
    3104:	292a2074 	stmdbcs	sl!, {r2, r4, r5, r6, sp}
    3108:	31495053 	qdaddcc	r5, r3, r9
    310c:	5341425f 	movtpl	r4, #4703	; 0x125f
    3110:	5f002945 	svcpl	0x00002945
    3114:	4d52415f 	ldfmie	f4, [r2, #-380]	; 0xfffffe84
    3118:	4352415f 	cmpmi	r2, #-1073741801	; 0xc0000017
    311c:	53495f48 	movtpl	r5, #40776	; 0x9f48
    3120:	48545f41 	ldmdami	r4, {r0, r6, r8, r9, sl, fp, ip, lr}^
    3124:	00424d55 	subeq	r4, r2, r5, asr sp
    3128:	49545845 	ldmdbmi	r4, {r0, r2, r6, fp, ip, lr}^
    312c:	45282820 	strmi	r2, [r8, #-2080]!	; 0xfffff7e0
    3130:	5f495458 	svcpl	0x00495458
    3134:	65707954 	ldrbvs	r7, [r0, #-2388]!	; 0xfffff6ac
    3138:	5f666564 	svcpl	0x00666564
    313c:	292a2074 	stmdbcs	sl!, {r2, r4, r5, r6, sp}
    3140:	49545845 	ldmdbmi	r4, {r0, r2, r6, fp, ip, lr}^
    3144:	5341425f 	movtpl	r4, #4703	; 0x125f
    3148:	49002945 	stmdbmi	r0, {r0, r2, r6, r8, fp, sp}
    314c:	465f5152 			; <UNDEFINED> instruction: 0x465f5152
    3150:	0067616c 	rsbeq	r6, r7, ip, ror #2
    3154:	4e475f5f 	mcrmi	15, 2, r5, cr7, cr15, {2}
    3158:	494c4355 	stmdbmi	ip, {r0, r2, r4, r6, r8, r9, lr}^
    315c:	425f454b 	subsmi	r4, pc, #314572800	; 0x12c00000
    3160:	544c4955 	strbpl	r4, [ip], #-2389	; 0xfffff6ab
    3164:	565f4e49 	ldrbpl	r4, [pc], -r9, asr #28
    3168:	52415241 	subpl	r5, r1, #268435460	; 0x10000004
    316c:	31205347 			; <UNDEFINED> instruction: 0x31205347
    3170:	4d495400 	cfstrdmi	mvd5, [r9, #-0]
    3174:	41425f33 	cmpmi	r2, r3, lsr pc
    3178:	30204553 	eorcc	r4, r0, r3, asr r5
    317c:	30303478 	eorscc	r3, r0, r8, ror r4
    3180:	30343030 	eorscc	r3, r4, r0, lsr r0
    3184:	5f007530 	svcpl	0x00007530
    3188:	5046565f 	subpl	r5, r6, pc, asr r6
    318c:	5f50465f 	svcpl	0x0050465f
    3190:	0031205f 	eorseq	r2, r1, pc, asr r0
    3194:	49555f5f 	ldmdbmi	r5, {r0, r1, r2, r3, r4, r6, r8, r9, sl, fp, ip, lr}^
    3198:	5f38544e 	svcpl	0x0038544e
    319c:	45505954 	ldrbmi	r5, [r0, #-2388]	; 0xfffff6ac
    31a0:	75205f5f 	strvc	r5, [r0, #-3935]!	; 0xfffff0a1
    31a4:	6769736e 	strbvs	r7, [r9, -lr, ror #6]!
    31a8:	2064656e 	rsbcs	r6, r4, lr, ror #10
    31ac:	72616863 	rsbvc	r6, r1, #6488064	; 0x630000
    31b0:	52415500 	subpl	r5, r1, #0, 10
    31b4:	425f3454 	subsmi	r3, pc, #84, 8	; 0x54000000
    31b8:	20455341 	subcs	r5, r5, r1, asr #6
    31bc:	30347830 	eorscc	r7, r4, r0, lsr r8
    31c0:	43343030 	teqmi	r4, #48	; 0x30
    31c4:	00753030 	rsbseq	r3, r5, r0, lsr r0
    31c8:	5f544e49 	svcpl	0x00544e49
    31cc:	5341454c 	movtpl	r4, #5452	; 0x154c
    31d0:	5f323354 	svcpl	0x00323354
    31d4:	204e494d 	subcs	r4, lr, sp, asr #18
    31d8:	5f5f2d28 	svcpl	0x005f2d28
    31dc:	5f544e49 	svcpl	0x00544e49
    31e0:	5341454c 	movtpl	r4, #5452	; 0x154c
    31e4:	5f323354 	svcpl	0x00323354
    31e8:	5f58414d 	svcpl	0x0058414d
    31ec:	202d205f 	eorcs	r2, sp, pc, asr r0
    31f0:	2e002931 			; <UNDEFINED> instruction: 0x2e002931
    31f4:	72532f2e 	subsvc	r2, r3, #46, 30	; 0xb8
    31f8:	616d2f63 	cmnvs	sp, r3, ror #30
    31fc:	632e6e69 			; <UNDEFINED> instruction: 0x632e6e69
    3200:	4e495500 	cdpmi	5, 4, cr5, cr9, cr0, {0}
    3204:	5f323354 	svcpl	0x00323354
    3208:	2058414d 	subscs	r4, r8, sp, asr #2
    320c:	555f5f28 	ldrbpl	r5, [pc, #-3880]	; 22ec <_Min_Stack_Size+0x1eec>
    3210:	33544e49 	cmpcc	r4, #1168	; 0x490
    3214:	414d5f32 	cmpmi	sp, r2, lsr pc
    3218:	295f5f58 	ldmdbcs	pc, {r3, r4, r6, r8, r9, sl, fp, ip, lr}^	; <UNPREDICTABLE>
    321c:	54584500 	ldrbpl	r4, [r8], #-1280	; 0xfffffb00
    3220:	50353149 	eorspl	r3, r5, r9, asr #2
    3224:	20353144 	eorscs	r3, r5, r4, asr #2
    3228:	54584528 	ldrbpl	r4, [r8], #-1320	; 0xfffffad8
    322c:	50475f49 	subpl	r5, r7, r9, asr #30
    3230:	4d5f4f49 	ldclmi	15, cr4, [pc, #-292]	; 3114 <_Min_Stack_Size+0x2d14>
    3234:	69707061 	ldmdbvs	r0!, {r0, r5, r6, ip, sp, lr}^
    3238:	745f676e 	ldrbvc	r6, [pc], #-1902	; 3240 <_Min_Stack_Size+0x2e40>
    323c:	58457b29 	stmdapl	r5, {r0, r3, r5, r8, r9, fp, ip, sp, lr}^
    3240:	35314954 	ldrcc	r4, [r1, #-2388]!	; 0xfffff6ac
    3244:	5047202c 	subpl	r2, r7, ip, lsr #32
    3248:	2c444f49 	mcrrcs	15, 4, r4, r4, cr9
    324c:	49504720 	ldmdbmi	r0, {r5, r8, r9, sl, lr}^
    3250:	49505f4f 	ldmdbmi	r0, {r0, r1, r2, r3, r6, r8, r9, sl, fp, ip, lr}^
    3254:	35315f4e 	ldrcc	r5, [r1, #-3918]!	; 0xfffff0b2
    3258:	5845202c 	stmdapl	r5, {r2, r3, r5, sp}^
    325c:	35314954 	ldrcc	r4, [r1, #-2388]!	; 0xfffff6ac
    3260:	5152495f 	cmppl	r2, pc, asr r9
    3264:	5f5f007d 	svcpl	0x005f007d
    3268:	43415355 	movtmi	r5, #4949	; 0x1355
    326c:	5f4d5543 	svcpl	0x004d5543
    3270:	54494246 	strbpl	r4, [r9], #-582	; 0xfffffdba
    3274:	38205f5f 	stmdacc	r0!, {r0, r1, r2, r3, r4, r6, r8, r9, sl, fp, ip, lr}
    3278:	41525300 	cmpmi	r2, r0, lsl #6
    327c:	41425f4d 	cmpmi	r2, sp, asr #30
    3280:	30204553 	eorcc	r4, r0, r3, asr r5
    3284:	30303278 	eorscc	r3, r0, r8, ror r2
    3288:	30303030 	eorscc	r3, r0, r0, lsr r0
    328c:	5f007530 	svcpl	0x00007530
    3290:	4343475f 	movtmi	r4, #14175	; 0x375f
    3294:	4f54415f 	svcmi	0x0054415f
    3298:	5f43494d 	svcpl	0x0043494d
    329c:	54534554 	ldrbpl	r4, [r3], #-1364	; 0xfffffaac
    32a0:	444e415f 	strbmi	r4, [lr], #-351	; 0xfffffea1
    32a4:	5445535f 	strbpl	r5, [r5], #-863	; 0xfffffca1
    32a8:	5552545f 	ldrbpl	r5, [r2, #-1119]	; 0xfffffba1
    32ac:	4c415645 	mcrrmi	6, 4, r5, r1, cr5
    32b0:	5f003120 	svcpl	0x00003120
    32b4:	464c455f 			; <UNDEFINED> instruction: 0x464c455f
    32b8:	31205f5f 			; <UNDEFINED> instruction: 0x31205f5f
    32bc:	43444200 	movtmi	r4, #16896	; 0x4200
    32c0:	50470052 	subpl	r0, r7, r2, asr r0
    32c4:	505f4f49 	subspl	r4, pc, r9, asr #30
    32c8:	525f4e49 	subspl	r4, pc, #1168	; 0x490
    32cc:	54455345 	strbpl	r5, [r5], #-837	; 0xfffffcbb
    32d0:	5f003020 	svcpl	0x00003020
    32d4:	544c465f 	strbpl	r4, [ip], #-1631	; 0xfffff9a1
    32d8:	485f3233 	ldmdami	pc, {r0, r1, r4, r5, r9, ip, sp}^	; <UNPREDICTABLE>
    32dc:	515f5341 	cmppl	pc, r1, asr #6
    32e0:	54454955 	strbpl	r4, [r5], #-2389	; 0xfffff6ab
    32e4:	4e414e5f 	mcrmi	14, 2, r4, cr1, cr15, {2}
    32e8:	31205f5f 			; <UNDEFINED> instruction: 0x31205f5f
    32ec:	415f5f00 	cmpmi	pc, r0, lsl #30
    32f0:	465f4d52 			; <UNDEFINED> instruction: 0x465f4d52
    32f4:	55544145 	ldrbpl	r4, [r4, #-325]	; 0xfffffebb
    32f8:	4d5f4552 	cfldr64mi	mvdx4, [pc, #-328]	; 31b8 <_Min_Stack_Size+0x2db8>
    32fc:	554d5441 	strbpl	r5, [sp, #-1089]	; 0xfffffbbf
    3300:	4e495f4c 	cdpmi	15, 4, cr5, cr9, cr12, {2}
    3304:	5f003854 	svcpl	0x00003854
    3308:	53424f5f 	movtpl	r4, #12127	; 0x2f5f
    330c:	54454c4f 	strbpl	r4, [r5], #-3151	; 0xfffff3b1
    3310:	414d5f45 	cmpmi	sp, r5, asr #30
    3314:	5f204854 	svcpl	0x00204854
    3318:	53424f5f 	movtpl	r4, #12127	; 0x2f5f
    331c:	54454c4f 	strbpl	r4, [r5], #-3151	; 0xfffff3b1
    3320:	414d5f45 	cmpmi	sp, r5, asr #30
    3324:	445f4854 	ldrbmi	r4, [pc], #-2132	; 332c <_Min_Stack_Size+0x2f2c>
    3328:	55414645 	strbpl	r4, [r1, #-1605]	; 0xfffff9bb
    332c:	5f00544c 	svcpl	0x0000544c
    3330:	42444c5f 	submi	r4, r4, #24320	; 0x5f00
    3334:	41485f4c 	cmpmi	r8, ip, asr #30
    3338:	4e495f53 	mcrmi	15, 2, r5, cr9, cr3, {2}
    333c:	494e4946 	stmdbmi	lr, {r1, r2, r6, r8, fp, lr}^
    3340:	5f5f5954 	svcpl	0x005f5954
    3344:	45003120 	strmi	r3, [r0, #-288]	; 0xfffffee0
    3348:	32495458 	subcc	r5, r9, #88, 8	; 0x58000000
    334c:	20324350 	eorscs	r4, r2, r0, asr r3
    3350:	54584528 	ldrbpl	r4, [r8], #-1320	; 0xfffffad8
    3354:	50475f49 	subpl	r5, r7, r9, asr #30
    3358:	4d5f4f49 	ldclmi	15, cr4, [pc, #-292]	; 323c <_Min_Stack_Size+0x2e3c>
    335c:	69707061 	ldmdbvs	r0!, {r0, r5, r6, ip, sp, lr}^
    3360:	745f676e 	ldrbvc	r6, [pc], #-1902	; 3368 <_Min_Stack_Size+0x2f68>
    3364:	58457b29 	stmdapl	r5, {r0, r3, r5, r8, r9, fp, ip, sp, lr}^
    3368:	2c324954 			; <UNDEFINED> instruction: 0x2c324954
    336c:	49504720 	ldmdbmi	r0, {r5, r8, r9, sl, lr}^
    3370:	202c434f 	eorcs	r4, ip, pc, asr #6
    3374:	4f495047 	svcmi	0x00495047
    3378:	4e49505f 	mcrmi	0, 2, r5, cr9, cr15, {2}
    337c:	202c325f 	eorcs	r3, ip, pc, asr r2
    3380:	49545845 	ldmdbmi	r4, {r0, r2, r6, fp, ip, lr}^
    3384:	52495f32 	subpl	r5, r9, #50, 30	; 0xc8
    3388:	55007d51 	strpl	r7, [r0, #-3409]	; 0xfffff2af
    338c:	5f544e49 	svcpl	0x00544e49
    3390:	54534146 	ldrbpl	r4, [r3], #-326	; 0xfffffeba
    3394:	4d5f3436 	cfldrdmi	mvd3, [pc, #-216]	; 32c4 <_Min_Stack_Size+0x2ec4>
    3398:	28205841 	stmdacs	r0!, {r0, r6, fp, ip, lr}
    339c:	49555f5f 	ldmdbmi	r5, {r0, r1, r2, r3, r4, r6, r8, r9, sl, fp, ip, lr}^
    33a0:	465f544e 	ldrbmi	r5, [pc], -lr, asr #8
    33a4:	36545341 	ldrbcc	r5, [r4], -r1, asr #6
    33a8:	414d5f34 	cmpmi	sp, r4, lsr pc
    33ac:	295f5f58 	ldmdbcs	pc, {r3, r4, r6, r8, r9, sl, fp, ip, lr}^	; <UNPREDICTABLE>
    33b0:	545f5f00 	ldrbpl	r5, [pc], #-3840	; 33b8 <_Min_Stack_Size+0x2fb8>
    33b4:	42465f41 	submi	r5, r6, #260	; 0x104
    33b8:	5f5f5449 	svcpl	0x005f5449
    33bc:	00333620 	eorseq	r3, r3, r0, lsr #12
    33c0:	49545845 	ldmdbmi	r4, {r0, r2, r6, fp, ip, lr}^
    33c4:	00302030 	eorseq	r2, r0, r0, lsr r0
    33c8:	4f495047 	svcmi	0x00495047
    33cc:	4e49505f 	mcrmi	0, 2, r5, cr9, cr15, {2}
    33d0:	2033315f 	eorscs	r3, r3, pc, asr r1
    33d4:	69752828 	ldmdbvs	r5!, {r3, r5, fp, sp}^
    33d8:	3631746e 	ldrtcc	r7, [r1], -lr, ror #8
    33dc:	2029745f 	eorcs	r7, r9, pc, asr r4
    33e0:	30327830 	eorscc	r7, r2, r0, lsr r8
    33e4:	00293030 	eoreq	r3, r9, r0, lsr r0
    33e8:	49545845 	ldmdbmi	r4, {r0, r2, r6, fp, ip, lr}^
    33ec:	52495f33 	subpl	r5, r9, #51, 30	; 0xcc
    33f0:	00392051 	eorseq	r2, r9, r1, asr r0
    33f4:	314d4954 	cmpcc	sp, r4, asr r9
    33f8:	41425f31 	cmpmi	r2, r1, lsr pc
    33fc:	30204553 	eorcc	r4, r0, r3, asr r5
    3400:	30303478 	eorscc	r3, r0, r8, ror r4
    3404:	30343531 	eorscc	r3, r4, r1, lsr r5
    3408:	5f007530 	svcpl	0x00007530
    340c:	544c465f 	strbpl	r4, [ip], #-1631	; 0xfffff9a1
    3410:	5f583233 	svcpl	0x00583233
    3414:	5f58414d 	svcpl	0x0058414d
    3418:	455f3031 	ldrbmi	r3, [pc, #-49]	; 33ef <_Min_Stack_Size+0x2fef>
    341c:	5f5f5058 	svcpl	0x005f5058
    3420:	38303320 	ldmdacc	r0!, {r5, r8, r9, ip, sp}
    3424:	415f5f00 	cmpmi	pc, r0, lsl #30
    3428:	415f4d52 	cmpmi	pc, r2, asr sp	; <UNPREDICTABLE>
    342c:	5f484352 	svcpl	0x00484352
    3430:	5f545845 	svcpl	0x00545845
    3434:	56494449 	strbpl	r4, [r9], -r9, asr #8
    3438:	31205f5f 			; <UNDEFINED> instruction: 0x31205f5f
    343c:	415f5f00 	cmpmi	pc, r0, lsl #30
    3440:	505f4d52 	subspl	r4, pc, r2, asr sp	; <UNPREDICTABLE>
    3444:	31205343 			; <UNDEFINED> instruction: 0x31205343
    3448:	705f5f00 	subsvc	r5, pc, r0, lsl #30
    344c:	20657275 	rsbcs	r7, r5, r5, ror r2
    3450:	74615f5f 	strbtvc	r5, [r1], #-3935	; 0xfffff0a1
    3454:	62697274 	rsbvs	r7, r9, #116, 4	; 0x40000007
    3458:	5f657475 	svcpl	0x00657475
    345c:	5f28285f 	svcpl	0x0028285f
    3460:	7275705f 	rsbsvc	r7, r5, #95	; 0x5f
    3464:	295f5f65 	ldmdbcs	pc, {r0, r2, r5, r6, r8, r9, sl, fp, ip, lr}^	; <UNPREDICTABLE>
    3468:	5f5f0029 	svcpl	0x005f0029
    346c:	5f474953 	svcpl	0x00474953
    3470:	4d4f5441 	cfstrdmi	mvd5, [pc, #-260]	; 3374 <_Min_Stack_Size+0x2f74>
    3474:	4d5f4349 	ldclmi	3, cr4, [pc, #-292]	; 3358 <_Min_Stack_Size+0x2f58>
    3478:	5f5f4e49 	svcpl	0x005f4e49
    347c:	5f2d2820 	svcpl	0x002d2820
    3480:	4749535f 	smlsldmi	r5, r9, pc, r3	; <UNPREDICTABLE>
    3484:	4f54415f 	svcmi	0x0054415f
    3488:	5f43494d 	svcpl	0x0043494d
    348c:	5f58414d 	svcpl	0x0058414d
    3490:	202d205f 	eorcs	r2, sp, pc, asr r0
    3494:	44002931 	strmi	r2, [r0], #-2353	; 0xfffff6cf
    3498:	72442f3a 	subvc	r2, r4, #58, 30	; 0xe8
    349c:	72657669 	rsbvc	r7, r5, #110100480	; 0x6900000
    34a0:	65442f73 	strbvs	r2, [r4, #-3955]	; 0xfffff08d
    34a4:	00677562 	rsbeq	r7, r7, r2, ror #10
    34a8:	49545845 	ldmdbmi	r4, {r0, r2, r6, fp, ip, lr}^
    34ac:	00352035 	eorseq	r2, r5, r5, lsr r0
    34b0:	4545525f 	strbmi	r5, [r5, #-607]	; 0xfffffda1
    34b4:	435f544e 	cmpmi	pc, #1308622848	; 0x4e000000
    34b8:	4b434548 	blmi	10d49e0 <_Min_Stack_Size+0x10d45e0>
    34bc:	4353415f 	cmpmi	r3, #-1073741801	; 0xc0000017
    34c0:	454d4954 	strbmi	r4, [sp, #-2388]	; 0xfffff6ac
    34c4:	4655425f 			; <UNDEFINED> instruction: 0x4655425f
    34c8:	72617628 	rsbvc	r7, r1, #40, 12	; 0x2800000
    34cc:	525f2029 	subspl	r2, pc, #41	; 0x29
    34d0:	544e4545 	strbpl	r4, [lr], #-1349	; 0xfffffabb
    34d4:	4548435f 	strbmi	r4, [r8, #-863]	; 0xfffffca1
    34d8:	76284b43 	strtvc	r4, [r8], -r3, asr #22
    34dc:	202c7261 	eorcs	r7, ip, r1, ror #4
    34e0:	6373615f 	cmnvs	r3, #-1073741801	; 0xc0000017
    34e4:	656d6974 	strbvs	r6, [sp, #-2420]!	; 0xfffff68c
    34e8:	6675625f 			; <UNDEFINED> instruction: 0x6675625f
    34ec:	6863202c 	stmdavs	r3!, {r2, r3, r5, sp}^
    34f0:	2a207261 	bcs	81fe7c <_Min_Stack_Size+0x81fa7c>
    34f4:	525f202c 	subspl	r2, pc, #44	; 0x2c
    34f8:	544e4545 	strbpl	r4, [lr], #-1349	; 0xfffffabb
    34fc:	4353415f 	cmpmi	r3, #-1073741801	; 0xc0000017
    3500:	454d4954 	strbmi	r4, [sp, #-2388]	; 0xfffff6ac
    3504:	5a49535f 	bpl	1258288 <_Min_Stack_Size+0x1257e88>
    3508:	6d202c45 	stcvs	12, cr2, [r0, #-276]!	; 0xfffffeec
    350c:	65736d65 	ldrbvs	r6, [r3, #-3429]!	; 0xfffff29b
    3510:	76282874 			; <UNDEFINED> instruction: 0x76282874
    3514:	2d297261 	sfmcs	f7, 4, [r9, #-388]!	; 0xfffffe7c
    3518:	73615f3e 	cmnvc	r1, #62, 30	; 0xf8
    351c:	6d697463 	cfstrdvs	mvd7, [r9, #-396]!	; 0xfffffe74
    3520:	75625f65 	strbvc	r5, [r2, #-3941]!	; 0xfffff09b
    3524:	30202c66 	eorcc	r2, r0, r6, ror #24
    3528:	525f202c 	subspl	r2, pc, #44	; 0x2c
    352c:	544e4545 	strbpl	r4, [lr], #-1349	; 0xfffffabb
    3530:	4353415f 	cmpmi	r3, #-1073741801	; 0xc0000017
    3534:	454d4954 	strbmi	r4, [sp, #-2388]	; 0xfffff6ac
    3538:	5a49535f 	bpl	12582bc <_Min_Stack_Size+0x1257ebc>
    353c:	00292945 	eoreq	r2, r9, r5, asr #18
    3540:	49545845 	ldmdbmi	r4, {r0, r2, r6, fp, ip, lr}^
    3544:	30425030 	subcc	r5, r2, r0, lsr r0
    3548:	58452820 	stmdapl	r5, {r5, fp, sp}^
    354c:	475f4954 			; <UNDEFINED> instruction: 0x475f4954
    3550:	5f4f4950 	svcpl	0x004f4950
    3554:	7070614d 	rsbsvc	r6, r0, sp, asr #2
    3558:	5f676e69 	svcpl	0x00676e69
    355c:	457b2974 	ldrbmi	r2, [fp, #-2420]!	; 0xfffff68c
    3560:	30495458 	subcc	r5, r9, r8, asr r4
    3564:	5047202c 	subpl	r2, r7, ip, lsr #32
    3568:	2c424f49 	mcrrcs	15, 4, r4, r2, cr9
    356c:	49504720 	ldmdbmi	r0, {r5, r8, r9, sl, lr}^
    3570:	49505f4f 	ldmdbmi	r0, {r0, r1, r2, r3, r6, r8, r9, sl, fp, ip, lr}^
    3574:	2c305f4e 	ldccs	15, cr5, [r0], #-312	; 0xfffffec8
    3578:	54584520 	ldrbpl	r4, [r8], #-1312	; 0xfffffae0
    357c:	495f3049 	ldmdbmi	pc, {r0, r3, r6, ip, sp}^	; <UNPREDICTABLE>
    3580:	007d5152 	rsbseq	r5, sp, r2, asr r1
    3584:	4453425f 	ldrbmi	r4, [r3], #-607	; 0xfffffda1
    3588:	4843575f 	stmdami	r3, {r0, r1, r2, r3, r4, r6, r8, r9, sl, ip, lr}^
    358c:	545f5241 	ldrbpl	r5, [pc], #-577	; 3594 <_Min_Stack_Size+0x3194>
    3590:	5300205f 	movwpl	r2, #95	; 0x5f
    3594:	45545359 	ldrbmi	r5, [r4, #-857]	; 0xfffffca7
    3598:	454d5f4d 	strbmi	r5, [sp, #-3917]	; 0xfffff0b3
    359c:	59524f4d 	ldmdbpl	r2, {r0, r2, r3, r6, r8, r9, sl, fp, lr}^
    35a0:	5341425f 	movtpl	r4, #4703	; 0x125f
    35a4:	78302045 	ldmdavc	r0!, {r0, r2, r6, sp}
    35a8:	46464631 			; <UNDEFINED> instruction: 0x46464631
    35ac:	30303046 	eorscc	r3, r0, r6, asr #32
    35b0:	5f5f0075 	svcpl	0x005f0075
    35b4:	61736f6e 	cmnvs	r3, lr, ror #30
    35b8:	6974696e 	ldmdbvs	r4!, {r1, r2, r3, r5, r6, r8, fp, sp, lr}^
    35bc:	6461657a 	strbtvs	r6, [r1], #-1402	; 0xfffffa86
    35c0:	73657264 	cmnvc	r5, #100, 4	; 0x40000006
    35c4:	5f002073 	svcpl	0x00002073
    35c8:	4e454552 	mcrmi	5, 2, r4, cr5, cr2, {2}
    35cc:	504d5f54 	subpl	r5, sp, r4, asr pc
    35d0:	5335505f 	teqpl	r5, #95	; 0x5f
    35d4:	72747028 	rsbsvc	r7, r4, #40	; 0x28
    35d8:	28282029 	stmdacs	r8!, {r0, r3, r5, sp}
    35dc:	29727470 	ldmdbcs	r2!, {r4, r5, r6, sl, ip, sp, lr}^
    35e0:	6d5f3e2d 	ldclvs	14, cr3, [pc, #-180]	; 3534 <_Min_Stack_Size+0x3134>
    35e4:	5f3e2d70 	svcpl	0x003e2d70
    35e8:	29733570 	ldmdbcs	r3!, {r4, r5, r6, r8, sl, ip, sp}^
    35ec:	505f5f00 	subspl	r5, pc, r0, lsl #30
    35f0:	4d474152 	stfmie	f4, [r7, #-328]	; 0xfffffeb8
    35f4:	45525f41 	ldrbmi	r5, [r2, #-3905]	; 0xfffff0bf
    35f8:	49464544 	stmdbmi	r6, {r2, r6, r8, sl, lr}^
    35fc:	455f454e 	ldrbmi	r4, [pc, #-1358]	; 30b6 <_Min_Stack_Size+0x2cb6>
    3600:	414e5458 	cmpmi	lr, r8, asr r4
    3604:	3120454d 			; <UNDEFINED> instruction: 0x3120454d
    3608:	4e495500 	cdpmi	5, 4, cr5, cr9, cr0, {0}
    360c:	5f363154 	svcpl	0x00363154
    3610:	29782843 	ldmdbcs	r8!, {r0, r1, r6, fp, sp}^
    3614:	555f5f20 	ldrbpl	r5, [pc, #-3872]	; 26fc <_Min_Stack_Size+0x22fc>
    3618:	31544e49 	cmpcc	r4, r9, asr #28
    361c:	28435f36 	stmdacs	r3, {r1, r2, r4, r5, r8, r9, sl, fp, ip, lr}^
    3620:	5f002978 	svcpl	0x00002978
    3624:	31544e49 	cmpcc	r4, r9, asr #28
    3628:	5f545f36 	svcpl	0x00545f36
    362c:	4c434544 	cfstr64mi	mvdx4, [r3], {68}	; 0x44
    3630:	44455241 	strbmi	r5, [r5], #-577	; 0xfffffdbf
    3634:	58450020 	stmdapl	r5, {r5}^
    3638:	50394954 	eorspl	r4, r9, r4, asr r9
    363c:	28203941 	stmdacs	r0!, {r0, r6, r8, fp, ip, sp}
    3640:	49545845 	ldmdbmi	r4, {r0, r2, r6, fp, ip, lr}^
    3644:	4950475f 	ldmdbmi	r0, {r0, r1, r2, r3, r4, r6, r8, r9, sl, lr}^
    3648:	614d5f4f 	cmpvs	sp, pc, asr #30
    364c:	6e697070 	mcrvs	0, 3, r7, cr9, cr0, {3}
    3650:	29745f67 	ldmdbcs	r4!, {r0, r1, r2, r5, r6, r8, r9, sl, fp, ip, lr}^
    3654:	5458457b 	ldrbpl	r4, [r8], #-1403	; 0xfffffa85
    3658:	202c3949 	eorcs	r3, ip, r9, asr #18
    365c:	4f495047 	svcmi	0x00495047
    3660:	47202c41 	strmi	r2, [r0, -r1, asr #24]!
    3664:	5f4f4950 	svcpl	0x004f4950
    3668:	5f4e4950 	svcpl	0x004e4950
    366c:	45202c39 	strmi	r2, [r0, #-3129]!	; 0xfffff3c7
    3670:	39495458 	stmdbcc	r9, {r3, r4, r6, sl, ip, lr}^
    3674:	5152495f 	cmppl	r2, pc, asr r9
    3678:	5355007d 	cmppl	r5, #125	; 0x7d
    367c:	31545241 	cmpcc	r4, r1, asr #4
    3680:	55282820 	strpl	r2, [r8, #-2080]!	; 0xfffff7e0
    3684:	54524153 	ldrbpl	r4, [r2], #-339	; 0xfffffead
    3688:	7079545f 	rsbsvc	r5, r9, pc, asr r4
    368c:	66656465 	strbtvs	r6, [r5], -r5, ror #8
    3690:	2a20745f 	bcs	820814 <_Min_Stack_Size+0x820414>
    3694:	41535529 	cmpmi	r3, r9, lsr #10
    3698:	5f315452 	svcpl	0x00315452
    369c:	45534142 	ldrbmi	r4, [r3, #-322]	; 0xfffffebe
    36a0:	5f5f0029 	svcpl	0x005f0029
    36a4:	5f544e49 	svcpl	0x00544e49
    36a8:	5341454c 	movtpl	r4, #5452	; 0x154c
    36ac:	5f363154 	svcpl	0x00363154
    36b0:	54444957 	strbpl	r4, [r4], #-2391	; 0xfffff6a9
    36b4:	205f5f48 	subscs	r5, pc, r8, asr #30
    36b8:	52003631 	andpl	r3, r0, #51380224	; 0x3100000
    36bc:	555f4343 	ldrbpl	r4, [pc, #-835]	; 3381 <_Min_Stack_Size+0x2f81>
    36c0:	54524153 	ldrbpl	r4, [r2], #-339	; 0xfffffead
    36c4:	4c435f31 	mcrrmi	15, 3, r5, r3, cr1
    36c8:	4e455f4b 	cdpmi	15, 4, cr5, cr5, cr11, {2}
    36cc:	28202928 	stmdacs	r0!, {r3, r5, r8, fp, sp}
    36d0:	2d434352 	stclcs	3, cr4, [r3, #-328]	; 0xfffffeb8
    36d4:	4250413e 	subsmi	r4, r0, #-2147483633	; 0x8000000f
    36d8:	524e4532 	subpl	r4, lr, #209715200	; 0xc800000
    36dc:	203d7c20 	eorscs	r7, sp, r0, lsr #24
    36e0:	3c3c3128 	ldfccs	f3, [ip], #-160	; 0xffffff60
    36e4:	29293431 	stmdbcs	r9!, {r0, r4, r5, sl, ip, sp}
    36e8:	445f5f00 	ldrbmi	r5, [pc], #-3840	; 36f0 <_Min_Stack_Size+0x32f0>
    36ec:	455f4345 	ldrbmi	r4, [pc, #-837]	; 33af <_Min_Stack_Size+0x2faf>
    36f0:	5f4c4156 	svcpl	0x004c4156
    36f4:	4854454d 	ldmdami	r4, {r0, r2, r3, r6, r8, sl, lr}^
    36f8:	5f5f444f 	svcpl	0x005f444f
    36fc:	5f003220 	svcpl	0x00003220
    3700:	4d52415f 	ldfmie	f4, [r2, #-380]	; 0xfffffe84
    3704:	4145465f 	cmpmi	r5, pc, asr r6
    3708:	45525554 	ldrbmi	r5, [r2, #-1364]	; 0xfffffaac
    370c:	3150465f 	cmpcc	r0, pc, asr r6
    3710:	4d465f36 	stclmi	15, cr5, [r6, #-216]	; 0xffffff28
    3714:	5f5f004c 	svcpl	0x005f004c
    3718:	5f414855 	svcpl	0x00414855
    371c:	54494249 	strbpl	r4, [r9], #-585	; 0xfffffdb7
    3720:	38205f5f 	stmdacc	r0!, {r0, r1, r2, r3, r4, r6, r8, r9, sl, fp, ip, lr}
    3724:	725f5f00 	subsvc	r5, pc, #0, 30
    3728:	72747365 	rsbsvc	r7, r4, #-1811939327	; 0x94000001
    372c:	20746369 	rsbscs	r6, r4, r9, ror #6
    3730:	74736572 	ldrbtvc	r6, [r3], #-1394	; 0xfffffa8e
    3734:	74636972 	strbtvc	r6, [r3], #-2418	; 0xfffff68e
    3738:	555f5f00 	ldrbpl	r5, [pc, #-3840]	; 2840 <_Min_Stack_Size+0x2440>
    373c:	41524653 	cmpmi	r2, r3, asr r6
    3740:	455f5443 	ldrbmi	r5, [pc, #-1091]	; 3305 <_Min_Stack_Size+0x2f05>
    3744:	4c495350 	mcrrmi	3, 5, r5, r9, cr0
    3748:	5f5f4e4f 	svcpl	0x005f4e4f
    374c:	31783020 	cmncc	r8, r0, lsr #32
    3750:	55382d50 	ldrpl	r2, [r8, #-3408]!	; 0xfffff2b0
    3754:	4e005248 	cdpmi	2, 0, cr5, cr0, cr8, {2}
    3758:	204c4c55 	subcs	r4, ip, r5, asr ip
    375c:	6f762828 	svcvs	0x00762828
    3760:	2a206469 	bcs	81c90c <_Min_Stack_Size+0x81c50c>
    3764:	00293029 	eoreq	r3, r9, r9, lsr #32
    3768:	73615f5f 	cmnvc	r1, #380	; 0x17c
    376c:	74726573 	ldrbtvc	r6, [r2], #-1395	; 0xfffffa8d
    3770:	78655f73 	stmdavc	r5!, {r0, r1, r4, r5, r6, r8, r9, sl, fp, ip, lr}^
    3774:	73756c63 	cmnvc	r5, #25344	; 0x6300
    3778:	28657669 	stmdacs	r5!, {r0, r3, r5, r6, r9, sl, ip, sp, lr}^
    377c:	292e2e2e 	stmdbcs	lr!, {r1, r2, r3, r5, r9, sl, fp, sp}
    3780:	6c5f5f20 	mrrcvs	15, 2, r5, pc, cr0	; <UNPREDICTABLE>
    3784:	5f6b636f 	svcpl	0x006b636f
    3788:	6f6e6e61 	svcvs	0x006e6e61
    378c:	65746174 	ldrbvs	r6, [r4, #-372]!	; 0xfffffe8c
    3790:	73736128 	cmnvc	r3, #40, 2
    3794:	5f747265 	svcpl	0x00747265
    3798:	6c637865 	stclvs	8, cr7, [r3], #-404	; 0xfffffe6c
    379c:	76697375 			; <UNDEFINED> instruction: 0x76697375
    37a0:	6f6c5f65 	svcvs	0x006c5f65
    37a4:	5f286b63 	svcpl	0x00286b63
    37a8:	5f41565f 	svcpl	0x0041565f
    37ac:	53475241 	movtpl	r5, #29249	; 0x7241
    37b0:	29295f5f 	stmdbcs	r9!, {r0, r1, r2, r3, r4, r6, r8, r9, sl, fp, ip, lr}
    37b4:	47464300 	strbmi	r4, [r6, -r0, lsl #6]
    37b8:	564e0052 			; <UNDEFINED> instruction: 0x564e0052
    37bc:	555f4349 	ldrbpl	r4, [pc, #-841]	; 347b <_Min_Stack_Size+0x307b>
    37c0:	54524153 	ldrbpl	r4, [r2], #-339	; 0xfffffead
    37c4:	52495f31 	subpl	r5, r9, #49, 30	; 0xc4
    37c8:	69445f51 	stmdbvs	r4, {r0, r4, r6, r8, r9, sl, fp, ip, lr}^
    37cc:	6c626173 	stfvse	f6, [r2], #-460	; 0xfffffe34
    37d0:	4e282065 	cdpmi	0, 2, cr2, cr8, cr5, {3}
    37d4:	5f434956 	svcpl	0x00434956
    37d8:	52454349 	subpl	r4, r5, #603979777	; 0x24000001
    37dc:	3d7c2031 	ldclcc	0, cr2, [ip, #-196]!	; 0xffffff3c
    37e0:	3c3c3120 	ldfccs	f3, [ip], #-128	; 0xffffff80
    37e4:	41535528 	cmpmi	r3, r8, lsr #10
    37e8:	5f315452 	svcpl	0x00315452
    37ec:	20515249 	subscs	r5, r1, r9, asr #4
    37f0:	3233202d 	eorscc	r2, r3, #45	; 0x2d
    37f4:	5f002929 	svcpl	0x00002929
    37f8:	6e695f5f 	mcrvs	15, 3, r5, cr9, cr15, {2}
    37fc:	656c5f74 	strbvs	r5, [ip, #-3956]!	; 0xfffff08c
    3800:	33747361 	cmncc	r4, #-2080374783	; 0x84000001
    3804:	5f745f32 	svcpl	0x00745f32
    3808:	69666564 	stmdbvs	r6!, {r2, r5, r6, r8, sl, sp, lr}^
    380c:	2064656e 	rsbcs	r6, r4, lr, ror #10
    3810:	5f5f0031 	svcpl	0x005f0031
    3814:	43414c4c 	movtmi	r4, #7244	; 0x1c4c
    3818:	5f4d5543 	svcpl	0x004d5543
    381c:	5f58414d 	svcpl	0x0058414d
    3820:	5830205f 	ldmdapl	r0!, {r0, r1, r2, r3, r4, r6, sp}
    3824:	46464637 			; <UNDEFINED> instruction: 0x46464637
    3828:	46464646 	strbmi	r4, [r6], -r6, asr #12
    382c:	46464646 	strbmi	r4, [r6], -r6, asr #12
    3830:	46464646 	strbmi	r4, [r6], -r6, asr #12
    3834:	31332d50 	teqcc	r3, r0, asr sp
    3838:	004b4c4c 	subeq	r4, fp, ip, asr #24
    383c:	656e5f5f 	strbvs	r5, [lr, #-3935]!	; 0xfffff0a1
    3840:	4e5f6465 	cdpmi	4, 5, cr6, cr15, cr5, {3}
    3844:	004c4c55 	subeq	r4, ip, r5, asr ip
    3848:	49545845 	ldmdbmi	r4, {r0, r2, r6, fp, ip, lr}^
    384c:	41503231 	cmpmi	r0, r1, lsr r2
    3850:	28203231 	stmdacs	r0!, {r0, r4, r5, r9, ip, sp}
    3854:	49545845 	ldmdbmi	r4, {r0, r2, r6, fp, ip, lr}^
    3858:	4950475f 	ldmdbmi	r0, {r0, r1, r2, r3, r4, r6, r8, r9, sl, lr}^
    385c:	614d5f4f 	cmpvs	sp, pc, asr #30
    3860:	6e697070 	mcrvs	0, 3, r7, cr9, cr0, {3}
    3864:	29745f67 	ldmdbcs	r4!, {r0, r1, r2, r5, r6, r8, r9, sl, fp, ip, lr}^
    3868:	5458457b 	ldrbpl	r4, [r8], #-1403	; 0xfffffa85
    386c:	2c323149 	ldfcss	f3, [r2], #-292	; 0xfffffedc
    3870:	49504720 	ldmdbmi	r0, {r5, r8, r9, sl, lr}^
    3874:	202c414f 	eorcs	r4, ip, pc, asr #2
    3878:	4f495047 	svcmi	0x00495047
    387c:	4e49505f 	mcrmi	0, 2, r5, cr9, cr15, {2}
    3880:	2c32315f 	ldfcss	f3, [r2], #-380	; 0xfffffe84
    3884:	54584520 	ldrbpl	r4, [r8], #-1312	; 0xfffffae0
    3888:	5f323149 	svcpl	0x00323149
    388c:	7d515249 	lfmvc	f5, 2, [r1, #-292]	; 0xfffffedc
    3890:	49564e00 	ldmdbmi	r6, {r9, sl, fp, lr}^
    3894:	58455f43 	stmdapl	r5, {r0, r1, r6, r8, r9, sl, fp, ip, lr}^
    3898:	35314954 	ldrcc	r4, [r1, #-2388]!	; 0xfffff6ac
    389c:	5f30315f 	svcpl	0x0030315f
    38a0:	5f515249 	svcpl	0x00515249
    38a4:	62616e45 	rsbvs	r6, r1, #1104	; 0x450
    38a8:	2820656c 	stmdacs	r0!, {r2, r3, r5, r6, r8, sl, sp, lr}
    38ac:	4349564e 	movtmi	r5, #38478	; 0x964e
    38b0:	4553495f 	ldrbmi	r4, [r3, #-2399]	; 0xfffff6a1
    38b4:	7c203152 	stfvcs	f3, [r0], #-328	; 0xfffffeb8
    38b8:	3c31203d 	ldccc	0, cr2, [r1], #-244	; 0xffffff0c
    38bc:	0029383c 	eoreq	r3, r9, ip, lsr r8
    38c0:	53555f5f 	cmppl	r5, #380	; 0x17c
    38c4:	4c5f5245 	lfmmi	f5, 2, [pc], {69}	; 0x45
    38c8:	4c454241 	sfmmi	f4, 2, [r5], {65}	; 0x41
    38cc:	4552505f 	ldrbmi	r5, [r2, #-95]	; 0xffffffa1
    38d0:	5f584946 	svcpl	0x00584946
    38d4:	5f00205f 	svcpl	0x0000205f
    38d8:	4e49555f 	mcrmi	5, 2, r5, cr9, cr15, {2}
    38dc:	5f343654 	svcpl	0x00343654
    38e0:	5f58414d 	svcpl	0x0058414d
    38e4:	7830205f 	ldmdavc	r0!, {r0, r1, r2, r3, r4, r6, sp}
    38e8:	66666666 	strbtvs	r6, [r6], -r6, ror #12
    38ec:	66666666 	strbtvs	r6, [r6], -r6, ror #12
    38f0:	66666666 	strbtvs	r6, [r6], -r6, ror #12
    38f4:	66666666 	strbtvs	r6, [r6], -r6, ror #12
    38f8:	004c4c55 	subeq	r4, ip, r5, asr ip
    38fc:	49545845 	ldmdbmi	r4, {r0, r2, r6, fp, ip, lr}^
    3900:	34425034 	strbcc	r5, [r2], #-52	; 0xffffffcc
    3904:	58452820 	stmdapl	r5, {r5, fp, sp}^
    3908:	475f4954 			; <UNDEFINED> instruction: 0x475f4954
    390c:	5f4f4950 	svcpl	0x004f4950
    3910:	7070614d 	rsbsvc	r6, r0, sp, asr #2
    3914:	5f676e69 	svcpl	0x00676e69
    3918:	457b2974 	ldrbmi	r2, [fp, #-2420]!	; 0xfffff68c
    391c:	34495458 	strbcc	r5, [r9], #-1112	; 0xfffffba8
    3920:	5047202c 	subpl	r2, r7, ip, lsr #32
    3924:	2c424f49 	mcrrcs	15, 4, r4, r2, cr9
    3928:	49504720 	ldmdbmi	r0, {r5, r8, r9, sl, lr}^
    392c:	49505f4f 	ldmdbmi	r0, {r0, r1, r2, r3, r6, r8, r9, sl, fp, ip, lr}^
    3930:	2c345f4e 	ldccs	15, cr5, [r4], #-312	; 0xfffffec8
    3934:	54584520 	ldrbpl	r4, [r8], #-1312	; 0xfffffae0
    3938:	495f3449 	ldmdbmi	pc, {r0, r3, r6, sl, ip, sp}^	; <UNPREDICTABLE>
    393c:	007d5152 	rsbseq	r5, sp, r2, asr r1
    3940:	49555f5f 	ldmdbmi	r5, {r0, r1, r2, r3, r4, r6, r8, r9, sl, fp, ip, lr}^
    3944:	3233544e 	eorscc	r5, r3, #1308622848	; 0x4e000000
    3948:	58414d5f 	stmdapl	r1, {r0, r1, r2, r3, r4, r6, r8, sl, fp, lr}^
    394c:	30205f5f 	eorcc	r5, r0, pc, asr pc
    3950:	66666678 			; <UNDEFINED> instruction: 0x66666678
    3954:	66666666 	strbtvs	r6, [r6], -r6, ror #12
    3958:	004c5566 	subeq	r5, ip, r6, ror #10
    395c:	36544e49 	ldrbcc	r4, [r4], -r9, asr #28
    3960:	28435f34 	stmdacs	r3, {r2, r4, r5, r8, r9, sl, fp, ip, lr}^
    3964:	5f202978 	svcpl	0x00202978
    3968:	544e495f 	strbpl	r4, [lr], #-2399	; 0xfffff6a1
    396c:	435f3436 	cmpmi	pc, #905969664	; 0x36000000
    3970:	00297828 	eoreq	r7, r9, r8, lsr #16
    3974:	4654415f 			; <UNDEFINED> instruction: 0x4654415f
    3978:	5f454c49 	svcpl	0x00454c49
    397c:	52554f53 	subspl	r4, r5, #332	; 0x14c
    3980:	49004543 	stmdbmi	r0, {r0, r1, r6, r8, sl, lr}
    3984:	5f38544e 	svcpl	0x0038544e
    3988:	204e494d 	subcs	r4, lr, sp, asr #18
    398c:	5f5f2d28 	svcpl	0x005f2d28
    3990:	38544e49 	ldmdacc	r4, {r0, r3, r6, r9, sl, fp, lr}^
    3994:	58414d5f 	stmdapl	r1, {r0, r1, r2, r3, r4, r6, r8, sl, fp, lr}^
    3998:	2d205f5f 	stccs	15, cr5, [r0, #-380]!	; 0xfffffe84
    399c:	00293120 	eoreq	r3, r9, r0, lsr #2
    39a0:	54535f5f 	ldrbpl	r5, [r3], #-3935	; 0xfffff0a1
    39a4:	565f4344 	ldrbpl	r4, [pc], -r4, asr #6
    39a8:	49535245 	ldmdbmi	r3, {r0, r2, r6, r9, ip, lr}^
    39ac:	5f5f4e4f 	svcpl	0x005f4e4f
    39b0:	31303220 	teqcc	r0, r0, lsr #4
    39b4:	4c323131 	ldfmis	f3, [r2], #-196	; 0xffffff3c
    39b8:	745f5f00 	ldrbvc	r5, [pc], #-3840	; 39c0 <_Min_Stack_Size+0x35c0>
    39bc:	6f6c7972 	svcvs	0x006c7972
    39c0:	5f736b63 	svcpl	0x00736b63
    39c4:	72616873 	rsbvc	r6, r1, #7536640	; 0x730000
    39c8:	2e286465 	cdpcs	4, 2, cr6, cr8, cr5, {3}
    39cc:	20292e2e 	eorcs	r2, r9, lr, lsr #28
    39d0:	6f6c5f5f 	svcvs	0x006c5f5f
    39d4:	615f6b63 	cmpvs	pc, r3, ror #22
    39d8:	746f6e6e 	strbtvc	r6, [pc], #-3694	; 39e0 <_Min_Stack_Size+0x35e0>
    39dc:	28657461 	stmdacs	r5!, {r0, r5, r6, sl, ip, sp, lr}^
    39e0:	72616873 	rsbvc	r6, r1, #7536640	; 0x730000
    39e4:	745f6465 	ldrbvc	r6, [pc], #-1125	; 39ec <_Min_Stack_Size+0x35ec>
    39e8:	6f6c7972 	svcvs	0x006c7972
    39ec:	665f6b63 	ldrbvs	r6, [pc], -r3, ror #22
    39f0:	74636e75 	strbtvc	r6, [r3], #-3701	; 0xfffff18b
    39f4:	286e6f69 	stmdacs	lr!, {r0, r3, r5, r6, r8, r9, sl, fp, sp, lr}^
    39f8:	41565f5f 	cmpmi	r6, pc, asr pc
    39fc:	4752415f 			; <UNDEFINED> instruction: 0x4752415f
    3a00:	295f5f53 	ldmdbcs	pc, {r0, r1, r4, r6, r8, r9, sl, fp, ip, lr}^	; <UNPREDICTABLE>
    3a04:	5f5f0029 	svcpl	0x005f0029
    3a08:	5f544e49 	svcpl	0x00544e49
    3a0c:	5341454c 	movtpl	r4, #5452	; 0x154c
    3a10:	4d5f3854 	ldclmi	8, cr3, [pc, #-336]	; 38c8 <_Min_Stack_Size+0x34c8>
    3a14:	5f5f5841 	svcpl	0x005f5841
    3a18:	37783020 	ldrbcc	r3, [r8, -r0, lsr #32]!
    3a1c:	5f5f0066 	svcpl	0x005f0066
    3a20:	5f434347 	svcpl	0x00434347
    3a24:	4d4f5441 	cfstrdmi	mvd5, [pc, #-260]	; 3928 <_Min_Stack_Size+0x3528>
    3a28:	505f4349 	subspl	r4, pc, r9, asr #6
    3a2c:	544e494f 	strbpl	r4, [lr], #-2383	; 0xfffff6b1
    3a30:	4c5f5245 	lfmmi	f5, 2, [pc], {69}	; 0x45
    3a34:	5f4b434f 	svcpl	0x004b434f
    3a38:	45455246 	strbmi	r5, [r5, #-582]	; 0xfffffdba
    3a3c:	5f003220 	svcpl	0x00003220
    3a40:	4d52415f 	ldfmie	f4, [r2, #-380]	; 0xfffffe84
    3a44:	4145465f 	cmpmi	r5, pc, asr r6
    3a48:	45525554 	ldrbmi	r5, [r2, #-1364]	; 0xfffffaac
    3a4c:	4942515f 	stmdbmi	r2, {r0, r1, r2, r3, r4, r6, r8, ip, lr}^
    3a50:	00312054 	eorseq	r2, r1, r4, asr r0
    3a54:	52415f5f 	subpl	r5, r1, #380	; 0x17c
    3a58:	45465f4d 	strbmi	r5, [r6, #-3917]	; 0xfffff0b3
    3a5c:	52555441 	subspl	r5, r5, #1090519040	; 0x41000000
    3a60:	4c435f45 	mcrrmi	15, 4, r5, r3, cr5
    3a64:	0031205a 	eorseq	r2, r1, sl, asr r0
    3a68:	54415f5f 	strbpl	r5, [r1], #-3935	; 0xfffff0a1
    3a6c:	43494d4f 	movtmi	r4, #40271	; 0x9d4f
    3a70:	5143415f 	cmppl	r3, pc, asr r1
    3a74:	45524955 	ldrbmi	r4, [r2, #-2389]	; 0xfffff6ab
    3a78:	5f003220 	svcpl	0x00003220
    3a7c:	4d52415f 	ldfmie	f4, [r2, #-380]	; 0xfffffe84
    3a80:	4145465f 	cmpmi	r5, pc, asr r6
    3a84:	45525554 	ldrbmi	r5, [r2, #-1364]	; 0xfffffaac
    3a88:	4d4f435f 	stclmi	3, cr4, [pc, #-380]	; 3914 <_Min_Stack_Size+0x3514>
    3a8c:	58454c50 	stmdapl	r5, {r4, r6, sl, fp, lr}^
    3a90:	6c5f5f00 	mrrcvs	15, 0, r5, pc, cr0	; <UNPREDICTABLE>
    3a94:	736b636f 	cmnvc	fp, #-1140850687	; 0xbc000001
    3a98:	6168735f 	cmnvs	r8, pc, asr r3
    3a9c:	28646572 	stmdacs	r4!, {r1, r4, r5, r6, r8, sl, sp, lr}^
    3aa0:	292e2e2e 	stmdbcs	lr!, {r1, r2, r3, r5, r9, sl, fp, sp}
    3aa4:	6c5f5f20 	mrrcvs	15, 2, r5, pc, cr0	; <UNPREDICTABLE>
    3aa8:	5f6b636f 	svcpl	0x006b636f
    3aac:	6f6e6e61 	svcvs	0x006e6e61
    3ab0:	65746174 	ldrbvs	r6, [r4, #-372]!	; 0xfffffe8c
    3ab4:	61687328 	cmnvs	r8, r8, lsr #6
    3ab8:	5f646572 	svcpl	0x00646572
    3abc:	6b636f6c 	blvs	18df874 <_Min_Stack_Size+0x18df474>
    3ac0:	6e75665f 	mrcvs	6, 3, r6, cr5, cr15, {2}
    3ac4:	6f697463 	svcvs	0x00697463
    3ac8:	5f5f286e 	svcpl	0x005f286e
    3acc:	415f4156 	cmpmi	pc, r6, asr r1	; <UNPREDICTABLE>
    3ad0:	5f534752 	svcpl	0x00534752
    3ad4:	0029295f 	eoreq	r2, r9, pc, asr r9
    3ad8:	4e495f5f 	mcrmi	15, 2, r5, cr9, cr15, {2}
    3adc:	20363154 	eorscs	r3, r6, r4, asr r1
    3ae0:	00226822 	eoreq	r6, r2, r2, lsr #16
    3ae4:	69736e75 	ldmdbvs	r3!, {r0, r2, r4, r5, r6, r9, sl, fp, sp, lr}^
    3ae8:	64656e67 	strbtvs	r6, [r5], #-3687	; 0xfffff199
    3aec:	67697320 	strbvs	r7, [r9, -r0, lsr #6]!
    3af0:	0064656e 	rsbeq	r6, r4, lr, ror #10
    3af4:	314d4954 	cmpcc	sp, r4, asr r9
    3af8:	41425f30 	cmpmi	r2, r0, lsr pc
    3afc:	30204553 	eorcc	r4, r0, r3, asr r5
    3b00:	30303478 	eorscc	r3, r0, r8, ror r4
    3b04:	30303531 	eorscc	r3, r0, r1, lsr r5
    3b08:	5f007530 	svcpl	0x00007530
    3b0c:	4e49555f 	mcrmi	5, 2, r5, cr9, cr15, {2}
    3b10:	5f343654 	svcpl	0x00343654
    3b14:	45505954 	ldrbmi	r5, [r0, #-2388]	; 0xfffff6ac
    3b18:	6c205f5f 	stcvs	15, cr5, [r0], #-380	; 0xfffffe84
    3b1c:	20676e6f 	rsbcs	r6, r7, pc, ror #28
    3b20:	676e6f6c 	strbvs	r6, [lr, -ip, ror #30]!
    3b24:	736e7520 	cmnvc	lr, #32, 10	; 0x8000000
    3b28:	656e6769 	strbvs	r6, [lr, #-1897]!	; 0xfffff897
    3b2c:	6e692064 	cdpvs	0, 6, cr2, cr9, cr4, {3}
    3b30:	495f0074 	ldmdbmi	pc, {r2, r4, r5, r6}^	; <UNPREDICTABLE>
    3b34:	5450544e 	ldrbpl	r5, [r0], #-1102	; 0xfffffbb2
    3b38:	51455f52 	cmppl	r5, r2, asr pc
    3b3c:	544e495f 	strbpl	r4, [lr], #-2399	; 0xfffff6a1
    3b40:	5f5f0020 	svcpl	0x005f0020
    3b44:	5f4d5241 	svcpl	0x004d5241
    3b48:	455a4953 	ldrbmi	r4, [sl, #-2387]	; 0xfffff6ad
    3b4c:	575f464f 	ldrbpl	r4, [pc, -pc, asr #12]
    3b50:	52414843 	subpl	r4, r1, #4390912	; 0x430000
    3b54:	3420545f 	strtcc	r5, [r0], #-1119	; 0xfffffba1
    3b58:	465f5f00 	ldrbmi	r5, [pc], -r0, lsl #30
    3b5c:	3233544c 	eorscc	r5, r3, #76, 8	; 0x4c000000
    3b60:	414d5f58 	cmpmi	sp, r8, asr pc
    3b64:	58455f58 	stmdapl	r5, {r3, r4, r6, r8, r9, sl, fp, ip, lr}^
    3b68:	205f5f50 	subscs	r5, pc, r0, asr pc	; <UNPREDICTABLE>
    3b6c:	34323031 	ldrtcc	r3, [r2], #-49	; 0xffffffcf
    3b70:	54584500 	ldrbpl	r4, [r8], #-1280	; 0xfffffb00
    3b74:	43503349 	cmpmi	r0, #603979777	; 0x24000001
    3b78:	45282033 	strmi	r2, [r8, #-51]!	; 0xffffffcd
    3b7c:	5f495458 	svcpl	0x00495458
    3b80:	4f495047 	svcmi	0x00495047
    3b84:	70614d5f 	rsbvc	r4, r1, pc, asr sp
    3b88:	676e6970 			; <UNDEFINED> instruction: 0x676e6970
    3b8c:	7b29745f 	blvc	a60d10 <_Min_Stack_Size+0xa60910>
    3b90:	49545845 	ldmdbmi	r4, {r0, r2, r6, fp, ip, lr}^
    3b94:	47202c33 			; <UNDEFINED> instruction: 0x47202c33
    3b98:	434f4950 	movtmi	r4, #63824	; 0xf950
    3b9c:	5047202c 	subpl	r2, r7, ip, lsr #32
    3ba0:	505f4f49 	subspl	r4, pc, r9, asr #30
    3ba4:	335f4e49 	cmpcc	pc, #1168	; 0x490
    3ba8:	5845202c 	stmdapl	r5, {r2, r3, r5, sp}^
    3bac:	5f334954 	svcpl	0x00334954
    3bb0:	7d515249 	lfmvc	f5, 2, [r1, #-292]	; 0xfffffedc
    3bb4:	43435200 	movtmi	r5, #12800	; 0x3200
    3bb8:	52282820 	eorpl	r2, r8, #32, 16	; 0x200000
    3bbc:	545f4343 	ldrbpl	r4, [pc], #-835	; 3bc4 <_Min_Stack_Size+0x37c4>
    3bc0:	64657079 	strbtvs	r7, [r5], #-121	; 0xffffff87
    3bc4:	745f6665 	ldrbvc	r6, [pc], #-1637	; 3bcc <_Min_Stack_Size+0x37cc>
    3bc8:	52292a20 	eorpl	r2, r9, #32, 20	; 0x20000
    3bcc:	425f4343 	subsmi	r4, pc, #201326593	; 0xc000001
    3bd0:	29455341 	stmdbcs	r5, {r0, r6, r8, r9, ip, lr}^
    3bd4:	49564e00 	ldmdbmi	r6, {r9, sl, fp, lr}^
    3bd8:	58455f43 	stmdapl	r5, {r0, r1, r6, r8, r9, sl, fp, ip, lr}^
    3bdc:	5f344954 	svcpl	0x00344954
    3be0:	5f515249 	svcpl	0x00515249
    3be4:	62616e45 	rsbvs	r6, r1, #1104	; 0x450
    3be8:	2820656c 	stmdacs	r0!, {r2, r3, r5, r6, r8, sl, sp, lr}
    3bec:	4349564e 	movtmi	r5, #38478	; 0x964e
    3bf0:	4553495f 	ldrbmi	r4, [r3, #-2399]	; 0xfffff6a1
    3bf4:	7c203052 	stcvc	0, cr3, [r0], #-328	; 0xfffffeb8
    3bf8:	3c31203d 	ldccc	0, cr2, [r1], #-244	; 0xffffff0c
    3bfc:	2930313c 	ldmdbcs	r0!, {r2, r3, r4, r5, r8, ip, sp}
    3c00:	555f5f00 	ldrbpl	r5, [pc, #-3840]	; 2d08 <_Min_Stack_Size+0x2908>
    3c04:	5f544e49 	svcpl	0x00544e49
    3c08:	5341454c 	movtpl	r4, #5452	; 0x154c
    3c0c:	5f323354 	svcpl	0x00323354
    3c10:	5f58414d 	svcpl	0x0058414d
    3c14:	7830205f 	ldmdavc	r0!, {r0, r1, r2, r3, r4, r6, sp}
    3c18:	66666666 	strbtvs	r6, [r6], -r6, ror #12
    3c1c:	66666666 	strbtvs	r6, [r6], -r6, ror #12
    3c20:	45004c55 	strmi	r4, [r0, #-3157]	; 0xfffff3ab
    3c24:	35495458 	strbcc	r5, [r9, #-1112]	; 0xfffffba8
    3c28:	20354150 	eorscs	r4, r5, r0, asr r1
    3c2c:	54584528 	ldrbpl	r4, [r8], #-1320	; 0xfffffad8
    3c30:	50475f49 	subpl	r5, r7, r9, asr #30
    3c34:	4d5f4f49 	ldclmi	15, cr4, [pc, #-292]	; 3b18 <_Min_Stack_Size+0x3718>
    3c38:	69707061 	ldmdbvs	r0!, {r0, r5, r6, ip, sp, lr}^
    3c3c:	745f676e 	ldrbvc	r6, [pc], #-1902	; 3c44 <_Min_Stack_Size+0x3844>
    3c40:	58457b29 	stmdapl	r5, {r0, r3, r5, r8, r9, fp, ip, sp, lr}^
    3c44:	2c354954 			; <UNDEFINED> instruction: 0x2c354954
    3c48:	49504720 	ldmdbmi	r0, {r5, r8, r9, sl, lr}^
    3c4c:	202c414f 	eorcs	r4, ip, pc, asr #2
    3c50:	4f495047 	svcmi	0x00495047
    3c54:	4e49505f 	mcrmi	0, 2, r5, cr9, cr15, {2}
    3c58:	202c355f 	eorcs	r3, ip, pc, asr r5
    3c5c:	49545845 	ldmdbmi	r4, {r0, r2, r6, fp, ip, lr}^
    3c60:	52495f35 	subpl	r5, r9, #53, 30	; 0xd4
    3c64:	5f007d51 	svcpl	0x00007d51
    3c68:	4c42445f 	cfstrdmi	mvd4, [r2], {95}	; 0x5f
    3c6c:	5350455f 	cmppl	r0, #398458880	; 0x17c00000
    3c70:	4e4f4c49 	cdpmi	12, 4, cr4, cr15, cr9, {2}
    3c74:	28205f5f 	stmdacs	r0!, {r0, r1, r2, r3, r4, r6, r8, r9, sl, fp, ip, lr}
    3c78:	756f6428 	strbvc	r6, [pc, #-1064]!	; 3858 <_Min_Stack_Size+0x3458>
    3c7c:	29656c62 	stmdbcs	r5!, {r1, r5, r6, sl, fp, sp, lr}^
    3c80:	32322e32 	eorscc	r2, r2, #800	; 0x320
    3c84:	36343430 			; <UNDEFINED> instruction: 0x36343430
    3c88:	32393430 	eorscc	r3, r9, #48, 8	; 0x30000000
    3c8c:	31333035 	teqcc	r3, r5, lsr r0
    3c90:	2d653133 	stfcse	f3, [r5, #-204]!	; 0xffffff34
    3c94:	294c3631 	stmdbcs	ip, {r0, r4, r5, r9, sl, ip, sp}^
    3c98:	49504700 	ldmdbmi	r0, {r8, r9, sl, lr}^
    3c9c:	50535f4f 	subspl	r5, r3, pc, asr #30
    3ca0:	5f444545 	svcpl	0x00444545
    3ca4:	204d3035 	subcs	r3, sp, r5, lsr r0
    3ca8:	30307830 	eorscc	r7, r0, r0, lsr r8
    3cac:	30303030 	eorscc	r3, r0, r0, lsr r0
    3cb0:	00753330 	rsbseq	r3, r5, r0, lsr r3
    3cb4:	54415f5f 	strbpl	r5, [r1], #-3935	; 0xfffff0a1
    3cb8:	43494d4f 	movtmi	r4, #40271	; 0x9d4f
    3cbc:	4e4f435f 	mcrmi	3, 2, r4, cr15, cr15, {2}
    3cc0:	454d5553 	strbmi	r5, [sp, #-1363]	; 0xfffffaad
    3cc4:	5f003120 	svcpl	0x00003120
    3cc8:	544e495f 	strbpl	r4, [lr], #-2399	; 0xfffff6a1
    3ccc:	41454c5f 	cmpmi	r5, pc, asr ip
    3cd0:	34365453 	ldrtcc	r5, [r6], #-1107	; 0xfffffbad
    3cd4:	4449575f 	strbmi	r5, [r9], #-1887	; 0xfffff8a1
    3cd8:	5f5f4854 	svcpl	0x005f4854
    3cdc:	00343620 	eorseq	r3, r4, r0, lsr #12
    3ce0:	4c465f5f 	mcrrmi	15, 5, r5, r6, cr15
    3ce4:	41485f54 	cmpmi	r8, r4, asr pc
    3ce8:	4e495f53 	mcrmi	15, 2, r5, cr9, cr3, {2}
    3cec:	494e4946 	stmdbmi	lr, {r1, r2, r6, r8, fp, lr}^
    3cf0:	5f5f5954 	svcpl	0x005f5954
    3cf4:	5f003120 	svcpl	0x00003120
    3cf8:	4e454552 	mcrmi	5, 2, r4, cr5, cr2, {2}
    3cfc:	4c475f54 	mcrrmi	15, 5, r5, r7, cr4
    3d00:	4c41424f 	sfmmi	f4, 2, [r1], {79}	; 0x4f
    3d04:	4554415f 	ldrbmi	r4, [r4, #-351]	; 0xfffffea1
    3d08:	20544958 	subscs	r4, r4, r8, asr r9
    3d0c:	5f5f0031 	svcpl	0x005f0031
    3d10:	55434341 	strbpl	r4, [r3, #-833]	; 0xfffffcbf
    3d14:	414d5f4d 	cmpmi	sp, sp, asr #30
    3d18:	205f5f58 	subscs	r5, pc, r8, asr pc	; <UNPREDICTABLE>
    3d1c:	46375830 			; <UNDEFINED> instruction: 0x46375830
    3d20:	46464646 	strbmi	r4, [r6], -r6, asr #12
    3d24:	2d504646 	ldclcs	6, cr4, [r0, #-280]	; 0xfffffee8
    3d28:	004b3531 	subeq	r3, fp, r1, lsr r5
    3d2c:	4e495f5f 	mcrmi	15, 2, r5, cr9, cr15, {2}
    3d30:	4d5f3854 	ldclmi	8, cr3, [pc, #-336]	; 3be8 <_Min_Stack_Size+0x37e8>
    3d34:	5f5f5841 	svcpl	0x005f5841
    3d38:	37783020 	ldrbcc	r3, [r8, -r0, lsr #32]!
    3d3c:	4e490066 	cdpmi	0, 4, cr0, cr9, cr6, {3}
    3d40:	54535f43 	ldrbpl	r5, [r3], #-3907	; 0xfffff0bd
    3d44:	5f32334d 	svcpl	0x0032334d
    3d48:	33303146 	teqcc	r0, #-2147483631	; 0x80000011
    3d4c:	445f3643 	ldrbmi	r3, [pc], #-1603	; 3d54 <_Min_Stack_Size+0x3954>
    3d50:	45564952 	ldrbmi	r4, [r6, #-2386]	; 0xfffff6ae
    3d54:	475f5352 			; <UNDEFINED> instruction: 0x475f5352
    3d58:	5f4f4950 	svcpl	0x004f4950
    3d5c:	00205f48 	eoreq	r5, r0, r8, asr #30
    3d60:	43475f5f 	movtmi	r5, #32607	; 0x7f5f
    3d64:	41485f43 	cmpmi	r8, r3, asr #30
    3d68:	445f4556 	ldrbmi	r4, [pc], #-1366	; 3d70 <_Min_Stack_Size+0x3970>
    3d6c:	46524157 			; <UNDEFINED> instruction: 0x46524157
    3d70:	46435f32 			; <UNDEFINED> instruction: 0x46435f32
    3d74:	53415f49 	movtpl	r5, #8009	; 0x1f49
    3d78:	0031204d 	eorseq	r2, r1, sp, asr #32
    3d7c:	695f5f5f 	ldmdbvs	pc, {r0, r1, r2, r3, r4, r6, r8, r9, sl, fp, ip, lr}^	; <UNPREDICTABLE>
    3d80:	5f38746e 	svcpl	0x0038746e
    3d84:	65645f74 	strbvs	r5, [r4, #-3956]!	; 0xfffff08c
    3d88:	656e6966 	strbvs	r6, [lr, #-2406]!	; 0xfffff69a
    3d8c:	00312064 	eorseq	r2, r1, r4, rrx
    3d90:	46535f5f 	usaxmi	r5, r3, pc	; <UNPREDICTABLE>
    3d94:	54434152 	strbpl	r4, [r3], #-338	; 0xfffffeae
    3d98:	4e494d5f 	mcrmi	13, 2, r4, cr9, cr15, {2}
    3d9c:	28205f5f 	stmdacs	r0!, {r0, r1, r2, r3, r4, r6, r8, r9, sl, fp, ip, lr}
    3da0:	352e302d 	strcc	r3, [lr, #-45]!	; 0xffffffd3
    3da4:	302d5248 	eorcc	r5, sp, r8, asr #4
    3da8:	5248352e 	subpl	r3, r8, #192937984	; 0xb800000
    3dac:	5f5f0029 	svcpl	0x005f0029
    3db0:	495f4153 	ldmdbmi	pc, {r0, r1, r4, r6, r8, lr}^	; <UNPREDICTABLE>
    3db4:	5f544942 	svcpl	0x00544942
    3db8:	3631205f 			; <UNDEFINED> instruction: 0x3631205f
    3dbc:	6f5f5f00 	svcvs	0x005f5f00
    3dc0:	65736666 	ldrbvs	r6, [r3, #-1638]!	; 0xfffff99a
    3dc4:	28666f74 	stmdacs	r6!, {r2, r4, r5, r6, r8, r9, sl, fp, sp, lr}^
    3dc8:	65707974 	ldrbvs	r7, [r0, #-2420]!	; 0xfffff68c
    3dcc:	6569662c 	strbvs	r6, [r9, #-1580]!	; 0xfffff9d4
    3dd0:	2029646c 	eorcs	r6, r9, ip, ror #8
    3dd4:	7366666f 	cmnvc	r6, #116391936	; 0x6f00000
    3dd8:	666f7465 	strbtvs	r7, [pc], -r5, ror #8
    3ddc:	70797428 	rsbsvc	r7, r9, r8, lsr #8
    3de0:	66202c65 	strtvs	r2, [r0], -r5, ror #24
    3de4:	646c6569 	strbtvs	r6, [ip], #-1385	; 0xfffffa97
    3de8:	5f5f0029 	svcpl	0x005f0029
    3dec:	5f434347 	svcpl	0x00434347
    3df0:	5f434549 	svcpl	0x00434549
    3df4:	5f393535 	svcpl	0x00393535
    3df8:	504d4f43 	subpl	r4, sp, r3, asr #30
    3dfc:	2058454c 	subscs	r4, r8, ip, asr #10
    3e00:	5f5f0030 	svcpl	0x005f0030
    3e04:	5f4d5241 	svcpl	0x004d5241
    3e08:	54414546 	strbpl	r4, [r1], #-1350	; 0xfffffaba
    3e0c:	5f455255 	svcpl	0x00455255
    3e10:	0045564d 	subeq	r5, r5, sp, asr #12
    3e14:	6f6e5f5f 	svcvs	0x006e5f5f
    3e18:	6c756e6e 	ldclvs	14, cr6, [r5], #-440	; 0xfffffe48
    3e1c:	6c615f6c 	stclvs	15, cr5, [r1], #-432	; 0xfffffe50
    3e20:	5f5f206c 	svcpl	0x005f206c
    3e24:	72747461 	rsbsvc	r7, r4, #1627389952	; 0x61000000
    3e28:	74756269 	ldrbtvc	r6, [r5], #-617	; 0xfffffd97
    3e2c:	285f5f65 	ldmdacs	pc, {r0, r2, r5, r6, r8, r9, sl, fp, ip, lr}^	; <UNPREDICTABLE>
    3e30:	6e5f5f28 	cdpvs	15, 5, cr5, cr15, cr8, {1}
    3e34:	756e6e6f 	strbvc	r6, [lr, #-3695]!	; 0xfffff191
    3e38:	5f5f6c6c 	svcpl	0x005f6c6c
    3e3c:	5f002929 	svcpl	0x00002929
    3e40:	4d52415f 	ldfmie	f4, [r2, #-380]	; 0xfffffe84
    3e44:	3150465f 	cmpcc	r0, pc, asr r6
    3e48:	4f465f36 	svcmi	0x00465f36
    3e4c:	54414d52 	strbpl	r4, [r1], #-3410	; 0xfffff2ae
    3e50:	4545495f 	strbmi	r4, [r5, #-2399]	; 0xfffff6a1
    3e54:	525f0045 	subspl	r0, pc, #69	; 0x45
    3e58:	544e4545 	strbpl	r4, [lr], #-1349	; 0xfffffabb
    3e5c:	53424d5f 	movtpl	r4, #11615	; 0x2d5f
    3e60:	574f5452 	smlsldpl	r5, pc, r2, r4	; <UNPREDICTABLE>
    3e64:	535f5343 	cmppl	pc, #201326593	; 0xc000001
    3e68:	45544154 	ldrbmi	r4, [r4, #-340]	; 0xfffffeac
    3e6c:	72747028 	rsbsvc	r7, r4, #40	; 0x28
    3e70:	28282029 	stmdacs	r8!, {r0, r3, r5, sp}
    3e74:	29727470 	ldmdbcs	r2!, {r4, r5, r6, sl, ip, sp, lr}^
    3e78:	6d5f3e2d 	ldclvs	14, cr3, [pc, #-180]	; 3dcc <_Min_Stack_Size+0x39cc>
    3e7c:	2d637369 	stclcs	3, cr7, [r3, #-420]!	; 0xfffffe5c
    3e80:	626d5f3e 	rsbvs	r5, sp, #62, 30	; 0xf8
    3e84:	6f747273 	svcvs	0x00747273
    3e88:	5f736377 	svcpl	0x00736377
    3e8c:	74617473 	strbtvc	r7, [r1], #-1139	; 0xfffffb8d
    3e90:	5f002965 	svcpl	0x00002965
    3e94:	49534f50 	ldmdbmi	r3, {r4, r6, r8, r9, sl, fp, lr}^
    3e98:	4f535f58 	svcmi	0x00535f58
    3e9c:	45435255 	strbmi	r5, [r3, #-597]	; 0xfffffdab
    3ea0:	4e415200 	cdpmi	2, 4, cr5, cr1, cr0, {0}
    3ea4:	414d5f44 	cmpmi	sp, r4, asr #30
    3ea8:	5f5f2058 	svcpl	0x005f2058
    3eac:	444e4152 	strbmi	r4, [lr], #-338	; 0xfffffeae
    3eb0:	58414d5f 	stmdapl	r1, {r0, r1, r2, r3, r4, r6, r8, sl, fp, lr}^
    3eb4:	755f5f00 	ldrbvc	r5, [pc, #-3840]	; 2fbc <_Min_Stack_Size+0x2bbc>
    3eb8:	33746e69 	cmncc	r4, #1680	; 0x690
    3ebc:	00745f32 	rsbseq	r5, r4, r2, lsr pc
    3ec0:	4f495047 	svcmi	0x00495047
    3ec4:	444f4d5f 	strbmi	r4, [pc], #-3423	; 3ecc <_Min_Stack_Size+0x3acc>
    3ec8:	4e495f45 	cdpmi	15, 4, cr5, cr9, cr5, {2}
    3ecc:	5f545550 	svcpl	0x00545550
    3ed0:	30204450 	eorcc	r4, r0, r0, asr r4
    3ed4:	30303078 	eorscc	r3, r0, r8, ror r0
    3ed8:	30303030 	eorscc	r3, r0, r0, lsr r0
    3edc:	5f5f0033 	svcpl	0x005f0033
    3ee0:	54464f53 	strbpl	r4, [r6], #-3923	; 0xfffff0ad
    3ee4:	5f5f5046 	svcpl	0x005f5046
    3ee8:	5f003120 	svcpl	0x00003120
    3eec:	4e454552 	mcrmi	5, 2, r4, cr5, cr2, {2}
    3ef0:	4d545f54 	ldclmi	15, cr5, [r4, #-336]	; 0xfffffeb0
    3ef4:	72747028 	rsbsvc	r7, r4, #40	; 0x28
    3ef8:	28282029 	stmdacs	r8!, {r0, r3, r5, sp}
    3efc:	29727470 	ldmdbcs	r2!, {r4, r5, r6, sl, ip, sp, lr}^
    3f00:	6c5f3e2d 	mrrcvs	14, 2, r3, pc, cr13	; <UNPREDICTABLE>
    3f04:	6c61636f 	stclvs	3, cr6, [r1], #-444	; 0xfffffe44
    3f08:	656d6974 	strbvs	r6, [sp, #-2420]!	; 0xfffff68c
    3f0c:	6675625f 			; <UNDEFINED> instruction: 0x6675625f
    3f10:	545f0029 	ldrbpl	r0, [pc], #-41	; 3f18 <_Min_Stack_Size+0x3b18>
    3f14:	5a49535f 	bpl	1258c98 <_Min_Stack_Size+0x1258898>
    3f18:	00205f45 	eoreq	r5, r0, r5, asr #30
    3f1c:	4c465f5f 	mcrrmi	15, 5, r5, r6, cr15
    3f20:	56455f54 			; <UNDEFINED> instruction: 0x56455f54
    3f24:	4d5f4c41 	ldclmi	12, cr4, [pc, #-260]	; 3e28 <_Min_Stack_Size+0x3a28>
    3f28:	4f485445 	svcmi	0x00485445
    3f2c:	53545f44 	cmppl	r4, #68, 30	; 0x110
    3f30:	3638315f 			; <UNDEFINED> instruction: 0x3638315f
    3f34:	335f3136 	cmpcc	pc, #-2147483635	; 0x8000000d
    3f38:	30205f5f 	eorcc	r5, r0, pc, asr pc
    3f3c:	615f5f00 	cmpvs	pc, r0, lsl #30
    3f40:	69727474 	ldmdbvs	r2!, {r2, r4, r5, r6, sl, ip, sp, lr}^
    3f44:	65747562 	ldrbvs	r7, [r4, #-1378]!	; 0xfffffa9e
    3f48:	6c616d5f 	stclvs	13, cr6, [r1], #-380	; 0xfffffe84
    3f4c:	5f636f6c 	svcpl	0x00636f6c
    3f50:	4500205f 	strmi	r2, [r0, #-95]	; 0xffffffa1
    3f54:	31495458 	cmpcc	r9, r8, asr r4
    3f58:	31425034 	cmpcc	r2, r4, lsr r0
    3f5c:	45282034 	strmi	r2, [r8, #-52]!	; 0xffffffcc
    3f60:	5f495458 	svcpl	0x00495458
    3f64:	4f495047 	svcmi	0x00495047
    3f68:	70614d5f 	rsbvc	r4, r1, pc, asr sp
    3f6c:	676e6970 			; <UNDEFINED> instruction: 0x676e6970
    3f70:	7b29745f 	blvc	a610f4 <_Min_Stack_Size+0xa60cf4>
    3f74:	49545845 	ldmdbmi	r4, {r0, r2, r6, fp, ip, lr}^
    3f78:	202c3431 	eorcs	r3, ip, r1, lsr r4
    3f7c:	4f495047 	svcmi	0x00495047
    3f80:	47202c42 	strmi	r2, [r0, -r2, asr #24]!
    3f84:	5f4f4950 	svcpl	0x004f4950
    3f88:	5f4e4950 	svcpl	0x004e4950
    3f8c:	202c3431 	eorcs	r3, ip, r1, lsr r4
    3f90:	49545845 	ldmdbmi	r4, {r0, r2, r6, fp, ip, lr}^
    3f94:	495f3431 	ldmdbmi	pc, {r0, r4, r5, sl, ip, sp}^	; <UNPREDICTABLE>
    3f98:	007d5152 	rsbseq	r5, sp, r2, asr r1
    3f9c:	43535f5f 	cmpmi	r3, #380	; 0x17c
    3fa0:	5f524148 	svcpl	0x00524148
    3fa4:	54444957 	strbpl	r4, [r4], #-2391	; 0xfffff6a9
    3fa8:	205f5f48 	subscs	r5, pc, r8, asr #30
    3fac:	4e490038 	mcrmi	0, 2, r0, cr9, cr8, {1}
    3fb0:	435f3854 	cmpmi	pc, #84, 16	; 0x540000
    3fb4:	20297828 	eorcs	r7, r9, r8, lsr #16
    3fb8:	4e495f5f 	mcrmi	15, 2, r5, cr9, cr15, {2}
    3fbc:	435f3854 	cmpmi	pc, #84, 16	; 0x540000
    3fc0:	00297828 	eoreq	r7, r9, r8, lsr #16
    3fc4:	554e5f5f 	strbpl	r5, [lr, #-3935]	; 0xfffff0a1
    3fc8:	42414c4c 	submi	r4, r1, #76, 24	; 0x4c00
    3fcc:	54494c49 	strbpl	r4, [r9], #-3145	; 0xfffff3b7
    3fd0:	52505f59 	subspl	r5, r0, #356	; 0x164
    3fd4:	414d4741 	cmpmi	sp, r1, asr #14
    3fd8:	504f505f 	subpl	r5, pc, pc, asr r0	; <UNPREDICTABLE>
    3fdc:	5f5f0020 	svcpl	0x005f0020
    3fe0:	544e4955 	strbpl	r4, [lr], #-2389	; 0xfffff6ab
    3fe4:	5341465f 	movtpl	r4, #5727	; 0x165f
    3fe8:	545f3854 	ldrbpl	r3, [pc], #-2132	; 3ff0 <_Min_Stack_Size+0x3bf0>
    3fec:	5f455059 	svcpl	0x00455059
    3ff0:	6e75205f 	mrcvs	0, 3, r2, cr5, cr15, {2}
    3ff4:	6e676973 			; <UNDEFINED> instruction: 0x6e676973
    3ff8:	69206465 	stmdbvs	r0!, {r0, r2, r5, r6, sl, sp, lr}
    3ffc:	5f00746e 	svcpl	0x0000746e
    4000:	414c4c5f 	cmpmi	ip, pc, asr ip
    4004:	4d554343 	ldclmi	3, cr4, [r5, #-268]	; 0xfffffef4
    4008:	4942495f 	stmdbmi	r2, {r0, r1, r2, r3, r4, r6, r8, fp, lr}^
    400c:	205f5f54 	subscs	r5, pc, r4, asr pc	; <UNPREDICTABLE>
    4010:	5f003233 	svcpl	0x00003233
    4014:	636f6c5f 	cmnvs	pc, #24320	; 0x5f00
    4018:	6c635f6b 	stclvs	15, cr5, [r3], #-428	; 0xfffffe54
    401c:	5f65736f 	svcpl	0x0065736f
    4020:	75636572 	strbvc	r6, [r3, #-1394]!	; 0xfffffa8e
    4024:	76697372 			; <UNDEFINED> instruction: 0x76697372
    4028:	6f6c2865 	svcvs	0x006c2865
    402c:	20296b63 	eorcs	r6, r9, r3, ror #22
    4030:	65725f5f 	ldrbvs	r5, [r2, #-3935]!	; 0xfffff0a1
    4034:	67726174 			; <UNDEFINED> instruction: 0x67726174
    4038:	6c5f7465 	cfldrdvs	mvd7, [pc], {101}	; 0x65
    403c:	5f6b636f 	svcpl	0x006b636f
    4040:	736f6c63 	cmnvc	pc, #25344	; 0x6300
    4044:	65725f65 	ldrbvs	r5, [r2, #-3941]!	; 0xfffff09b
    4048:	73727563 	cmnvc	r2, #415236096	; 0x18c00000
    404c:	28657669 	stmdacs	r5!, {r0, r3, r5, r6, r9, sl, ip, sp, lr}^
    4050:	6b636f6c 	blvs	18dfe08 <_Min_Stack_Size+0x18dfa08>
    4054:	58450029 	stmdapl	r5, {r0, r3, r5}^
    4058:	50304954 	eorspl	r4, r0, r4, asr r9
    405c:	28203044 	stmdacs	r0!, {r2, r6, ip, sp}
    4060:	49545845 	ldmdbmi	r4, {r0, r2, r6, fp, ip, lr}^
    4064:	4950475f 	ldmdbmi	r0, {r0, r1, r2, r3, r4, r6, r8, r9, sl, lr}^
    4068:	614d5f4f 	cmpvs	sp, pc, asr #30
    406c:	6e697070 	mcrvs	0, 3, r7, cr9, cr0, {3}
    4070:	29745f67 	ldmdbcs	r4!, {r0, r1, r2, r5, r6, r8, r9, sl, fp, ip, lr}^
    4074:	5458457b 	ldrbpl	r4, [r8], #-1403	; 0xfffffa85
    4078:	202c3049 	eorcs	r3, ip, r9, asr #32
    407c:	4f495047 	svcmi	0x00495047
    4080:	47202c44 	strmi	r2, [r0, -r4, asr #24]!
    4084:	5f4f4950 	svcpl	0x004f4950
    4088:	5f4e4950 	svcpl	0x004e4950
    408c:	45202c30 	strmi	r2, [r0, #-3120]!	; 0xfffff3d0
    4090:	30495458 	subcc	r5, r9, r8, asr r4
    4094:	5152495f 	cmppl	r2, pc, asr r9
    4098:	5f5f007d 	svcpl	0x005f007d
    409c:	33544e49 	cmpcc	r4, #1168	; 0x490
    40a0:	414d5f32 	cmpmi	sp, r2, lsr pc
    40a4:	205f5f58 	subscs	r5, pc, r8, asr pc	; <UNPREDICTABLE>
    40a8:	66377830 			; <UNDEFINED> instruction: 0x66377830
    40ac:	66666666 	strbtvs	r6, [r6], -r6, ror #12
    40b0:	004c6666 	subeq	r6, ip, r6, ror #12
    40b4:	696d5f5f 	stmdbvs	sp!, {r0, r1, r2, r3, r4, r6, r8, r9, sl, fp, ip, lr}^
    40b8:	69735f6e 	ldmdbvs	r3!, {r1, r2, r3, r5, r6, r8, r9, sl, fp, ip, lr}^
    40bc:	7828657a 	stmdavc	r8!, {r1, r3, r4, r5, r6, r8, sl, sp, lr}
    40c0:	74732029 	ldrbtvc	r2, [r3], #-41	; 0xffffffd7
    40c4:	63697461 	cmnvs	r9, #1627389952	; 0x61000000
    40c8:	29782820 	ldmdbcs	r8!, {r5, fp, sp}^
    40cc:	49545f00 	ldmdbmi	r4, {r8, r9, sl, fp, ip, lr}^
    40d0:	5f52454d 	svcpl	0x0052454d
    40d4:	75205f54 	strvc	r5, [r0, #-3924]!	; 0xfffff0ac
    40d8:	6769736e 	strbvs	r7, [r9, -lr, ror #6]!
    40dc:	2064656e 	rsbcs	r6, r4, lr, ror #10
    40e0:	676e6f6c 	strbvs	r6, [lr, -ip, ror #30]!
    40e4:	425f5f00 	subsmi	r5, pc, #0, 30
    40e8:	4e494745 	cdpmi	7, 4, cr4, cr9, cr5, {2}
    40ec:	4345445f 	movtmi	r4, #21599	; 0x545f
    40f0:	0020534c 	eoreq	r5, r0, ip, asr #6
    40f4:	4e495f5f 	mcrmi	15, 2, r5, cr9, cr15, {2}
    40f8:	454c5f54 	strbmi	r5, [ip, #-3924]	; 0xfffff0ac
    40fc:	36545341 	ldrbcc	r5, [r4], -r1, asr #6
    4100:	414d5f34 	cmpmi	sp, r4, lsr pc
    4104:	205f5f58 	subscs	r5, pc, r8, asr pc	; <UNPREDICTABLE>
    4108:	66377830 			; <UNDEFINED> instruction: 0x66377830
    410c:	66666666 	strbtvs	r6, [r6], -r6, ror #12
    4110:	66666666 	strbtvs	r6, [r6], -r6, ror #12
    4114:	66666666 	strbtvs	r6, [r6], -r6, ror #12
    4118:	4c4c6666 	mcrrmi	6, 6, r6, ip, cr6
    411c:	415f5f00 	cmpmi	pc, r0, lsl #30
    4120:	5f534350 	svcpl	0x00534350
    4124:	5f5f3233 	svcpl	0x005f3233
    4128:	5f003120 	svcpl	0x00003120
    412c:	4d52415f 	ldfmie	f4, [r2, #-380]	; 0xfffffe84
    4130:	4145465f 	cmpmi	r5, pc, asr r6
    4134:	45525554 	ldrbmi	r5, [r2, #-1364]	; 0xfffffaac
    4138:	3146425f 	cmpcc	r6, pc, asr r2
    413c:	45565f36 	ldrbmi	r5, [r6, #-3894]	; 0xfffff0ca
    4140:	524f5443 	subpl	r5, pc, #1124073472	; 0x43000000
    4144:	4952415f 	ldmdbmi	r2, {r0, r1, r2, r3, r4, r6, r8, lr}^
    4148:	454d4854 	strbmi	r4, [sp, #-2132]	; 0xfffff7ac
    414c:	00434954 	subeq	r4, r3, r4, asr r9
    4150:	5359535f 	cmppl	r9, #2080374785	; 0x7c000001
    4154:	54535f5f 	ldrbpl	r5, [r3], #-3935	; 0xfffff0a1
    4158:	544e4944 	strbpl	r4, [lr], #-2372	; 0xfffff6bc
    415c:	0020485f 	eoreq	r4, r0, pc, asr r8
    4160:	656e5f5f 	strbvs	r5, [lr, #-3935]!	; 0xfffff0a1
    4164:	4e5f6465 	cdpmi	4, 5, cr6, cr15, cr5, {3}
    4168:	204c4c55 	subcs	r4, ip, r5, asr ip
    416c:	414c4600 	cmpmi	ip, r0, lsl #12
    4170:	425f4853 	subsmi	r4, pc, #5439488	; 0x530000
    4174:	20455341 	subcs	r5, r5, r1, asr #6
    4178:	38307830 	ldmdacc	r0!, {r4, r5, fp, ip, sp, lr}
    417c:	30303030 	eorscc	r3, r0, r0, lsr r0
    4180:	00753030 	rsbseq	r3, r5, r0, lsr r0
    4184:	4645445f 			; <UNDEFINED> instruction: 0x4645445f
    4188:	544c5541 	strbpl	r5, [ip], #-1345	; 0xfffffabf
    418c:	554f535f 	strbpl	r5, [pc, #-863]	; 3e35 <_Min_Stack_Size+0x3a35>
    4190:	20454352 	subcs	r4, r5, r2, asr r3
    4194:	5f5f0031 	svcpl	0x005f0031
    4198:	33544c46 	cmpcc	r4, #17920	; 0x4600
    419c:	414d5f32 	cmpmi	sp, r2, lsr pc
    41a0:	445f544e 	ldrbmi	r5, [pc], #-1102	; 41a8 <_Min_Stack_Size+0x3da8>
    41a4:	5f5f4749 	svcpl	0x005f4749
    41a8:	00343220 	eorseq	r3, r4, r0, lsr #4
    41ac:	4c465f5f 	mcrrmi	15, 5, r5, r6, cr15
    41b0:	5f323354 	svcpl	0x00323354
    41b4:	4f4e4544 	svcmi	0x004e4544
    41b8:	4d5f4d52 	ldclmi	13, cr4, [pc, #-328]	; 4078 <_Min_Stack_Size+0x3c78>
    41bc:	5f5f4e49 	svcpl	0x005f4e49
    41c0:	342e3120 	strtcc	r3, [lr], #-288	; 0xfffffee0
    41c4:	39323130 	ldmdbcc	r2!, {r4, r5, r8, ip, sp}
    41c8:	34363438 	ldrtcc	r3, [r6], #-1080	; 0xfffffbc8
    41cc:	38343233 	ldmdacc	r4!, {r0, r1, r4, r5, r9, ip, sp}
    41d0:	65313731 	ldrvs	r3, [r1, #-1841]!	; 0xfffff8cf
    41d4:	4635342d 	ldrtmi	r3, [r5], -sp, lsr #8
    41d8:	5f003233 	svcpl	0x00003233
    41dc:	6365735f 	cmnvs	r5, #2080374785	; 0x7c000001
    41e0:	6e6f6974 			; <UNDEFINED> instruction: 0x6e6f6974
    41e4:	20297828 	eorcs	r7, r9, r8, lsr #16
    41e8:	74615f5f 	strbtvc	r5, [r1], #-3935	; 0xfffff0a1
    41ec:	62697274 	rsbvs	r7, r9, #116, 4	; 0x40000007
    41f0:	5f657475 	svcpl	0x00657475
    41f4:	5f28285f 	svcpl	0x0028285f
    41f8:	6365735f 	cmnvs	r5, #2080374785	; 0x7c000001
    41fc:	6e6f6974 			; <UNDEFINED> instruction: 0x6e6f6974
    4200:	78285f5f 	stmdavc	r8!, {r0, r1, r2, r3, r4, r6, r8, r9, sl, fp, ip, lr}
    4204:	00292929 	eoreq	r2, r9, r9, lsr #18
    4208:	7366666f 	cmnvc	r6, #116391936	; 0x6f00000
    420c:	666f7465 	strbtvs	r7, [pc], -r5, ror #8
    4210:	50595428 	subspl	r5, r9, r8, lsr #8
    4214:	454d2c45 	strbmi	r2, [sp, #-3141]	; 0xfffff3bb
    4218:	5245424d 	subpl	r4, r5, #-805306364	; 0xd0000004
    421c:	5f5f2029 	svcpl	0x005f2029
    4220:	6c697562 	cfstr64vs	mvdx7, [r9], #-392	; 0xfffffe78
    4224:	5f6e6974 	svcpl	0x006e6974
    4228:	7366666f 	cmnvc	r6, #116391936	; 0x6f00000
    422c:	666f7465 	strbtvs	r7, [pc], -r5, ror #8
    4230:	59542820 	ldmdbpl	r4, {r5, fp, sp}^
    4234:	202c4550 	eorcs	r4, ip, r0, asr r5
    4238:	424d454d 	submi	r4, sp, #322961408	; 0x13400000
    423c:	00295245 	eoreq	r5, r9, r5, asr #4
    4240:	49555f5f 	ldmdbmi	r5, {r0, r1, r2, r3, r4, r6, r8, r9, sl, fp, ip, lr}^
    4244:	3436544e 	ldrtcc	r5, [r6], #-1102	; 0xfffffbb2
    4248:	6328435f 			; <UNDEFINED> instruction: 0x6328435f
    424c:	20632029 	rsbcs	r2, r3, r9, lsr #32
    4250:	55202323 	strpl	r2, [r0, #-803]!	; 0xfffffcdd
    4254:	5f004c4c 	svcpl	0x00004c4c
    4258:	4e49555f 	mcrmi	5, 2, r5, cr9, cr15, {2}
    425c:	454c5f54 	strbmi	r5, [ip, #-3924]	; 0xfffff0ac
    4260:	36545341 	ldrbcc	r5, [r4], -r1, asr #6
    4264:	59545f34 	ldmdbpl	r4, {r2, r4, r5, r8, r9, sl, fp, ip, lr}^
    4268:	5f5f4550 	svcpl	0x005f4550
    426c:	6e6f6c20 	cdpvs	12, 6, cr6, cr15, cr0, {1}
    4270:	6f6c2067 	svcvs	0x006c2067
    4274:	7520676e 	strvc	r6, [r0, #-1902]!	; 0xfffff892
    4278:	6769736e 	strbvs	r7, [r9, -lr, ror #6]!
    427c:	2064656e 	rsbcs	r6, r4, lr, ror #10
    4280:	00746e69 	rsbseq	r6, r4, r9, ror #28
    4284:	4f495047 	svcmi	0x00495047
    4288:	444f4d5f 	strbmi	r4, [pc], #-3423	; 4290 <_Min_Stack_Size+0x3e90>
    428c:	4e495f45 	cdpmi	15, 4, cr5, cr9, cr5, {2}
    4290:	5f545550 	svcpl	0x00545550
    4294:	204f4c46 	subcs	r4, pc, r6, asr #24
    4298:	30307830 	eorscc	r7, r0, r0, lsr r8
    429c:	30303030 	eorscc	r3, r0, r0, lsr r0
    42a0:	5f003130 	svcpl	0x00003130
    42a4:	4653555f 			; <UNDEFINED> instruction: 0x4653555f
    42a8:	54434152 	strbpl	r4, [r3], #-338	; 0xfffffeae
    42ac:	4942465f 	stmdbmi	r2, {r0, r1, r2, r3, r4, r6, r9, sl, lr}^
    42b0:	205f5f54 	subscs	r5, pc, r4, asr pc	; <UNPREDICTABLE>
    42b4:	5f5f0038 	svcpl	0x005f0038
    42b8:	4c42444c 	cfstrdmi	mvd4, [r2], {76}	; 0x4c
    42bc:	5350455f 	cmppl	r0, #398458880	; 0x17c00000
    42c0:	4e4f4c49 	cdpmi	12, 4, cr4, cr15, cr9, {2}
    42c4:	32205f5f 	eorcc	r5, r0, #380	; 0x17c
    42c8:	3032322e 	eorscc	r3, r2, lr, lsr #4
    42cc:	30363434 	eorscc	r3, r6, r4, lsr r4
    42d0:	35323934 	ldrcc	r3, [r2, #-2356]!	; 0xfffff6cc
    42d4:	33313330 	teqcc	r1, #48, 6	; 0xc0000000
    42d8:	312d6531 			; <UNDEFINED> instruction: 0x312d6531
    42dc:	45004c36 	strmi	r4, [r0, #-3126]	; 0xfffff3ca
    42e0:	31495458 	cmpcc	r9, r8, asr r4
    42e4:	31435031 	cmpcc	r3, r1, lsr r0
    42e8:	45282031 	strmi	r2, [r8, #-49]!	; 0xffffffcf
    42ec:	5f495458 	svcpl	0x00495458
    42f0:	4f495047 	svcmi	0x00495047
    42f4:	70614d5f 	rsbvc	r4, r1, pc, asr sp
    42f8:	676e6970 			; <UNDEFINED> instruction: 0x676e6970
    42fc:	7b29745f 	blvc	a61480 <_Min_Stack_Size+0xa61080>
    4300:	49545845 	ldmdbmi	r4, {r0, r2, r6, fp, ip, lr}^
    4304:	202c3131 	eorcs	r3, ip, r1, lsr r1
    4308:	4f495047 	svcmi	0x00495047
    430c:	47202c43 	strmi	r2, [r0, -r3, asr #24]!
    4310:	5f4f4950 	svcpl	0x004f4950
    4314:	5f4e4950 	svcpl	0x004e4950
    4318:	202c3131 	eorcs	r3, ip, r1, lsr r1
    431c:	49545845 	ldmdbmi	r4, {r0, r2, r6, fp, ip, lr}^
    4320:	495f3131 	ldmdbmi	pc, {r0, r4, r5, r8, ip, sp}^	; <UNPREDICTABLE>
    4324:	007d5152 	rsbseq	r5, sp, r2, asr r1
    4328:	5f544e49 	svcpl	0x00544e49
    432c:	54534146 	ldrbpl	r4, [r3], #-326	; 0xfffffeba
    4330:	4d5f3436 	cfldrdmi	mvd3, [pc, #-216]	; 4260 <_Min_Stack_Size+0x3e60>
    4334:	28205841 	stmdacs	r0!, {r0, r6, fp, ip, lr}
    4338:	4e495f5f 	mcrmi	15, 2, r5, cr9, cr15, {2}
    433c:	41465f54 	cmpmi	r6, r4, asr pc
    4340:	34365453 	ldrtcc	r5, [r6], #-1107	; 0xfffffbad
    4344:	58414d5f 	stmdapl	r1, {r0, r1, r2, r3, r4, r6, r8, sl, fp, lr}^
    4348:	00295f5f 	eoreq	r5, r9, pc, asr pc
    434c:	75705f5f 	ldrbvc	r5, [r0, #-3935]!	; 0xfffff0a1
    4350:	20326572 	eorscs	r6, r2, r2, ror r5
    4354:	74615f5f 	strbtvc	r5, [r1], #-3935	; 0xfffff0a1
    4358:	62697274 	rsbvs	r7, r9, #116, 4	; 0x40000007
    435c:	5f657475 	svcpl	0x00657475
    4360:	5f28285f 	svcpl	0x0028285f
    4364:	6e6f635f 	mcrvs	3, 3, r6, cr15, cr15, {2}
    4368:	5f5f7473 	svcpl	0x005f7473
    436c:	5f002929 	svcpl	0x00002929
    4370:	4343475f 	movtmi	r4, #14175	; 0x375f
    4374:	4f54415f 	svcmi	0x0054415f
    4378:	5f43494d 	svcpl	0x0043494d
    437c:	52414843 	subpl	r4, r1, #4390912	; 0x430000
    4380:	545f3631 	ldrbpl	r3, [pc], #-1585	; 4388 <_Min_Stack_Size+0x3f88>
    4384:	434f4c5f 	movtmi	r4, #64607	; 0xfc5f
    4388:	52465f4b 	subpl	r5, r6, #300	; 0x12c
    438c:	32204545 	eorcc	r4, r0, #289406976	; 0x11400000
    4390:	4e5f5f00 	cdpmi	15, 5, cr5, cr15, cr0, {0}
    4394:	414c4c55 	cmpmi	ip, r5, asr ip
    4398:	494c4942 	stmdbmi	ip, {r1, r6, r8, fp, lr}^
    439c:	505f5954 	subspl	r5, pc, r4, asr r9	; <UNPREDICTABLE>
    43a0:	4d474152 	stfmie	f4, [r7, #-328]	; 0xfffffeb8
    43a4:	55505f41 	ldrbpl	r5, [r0, #-3905]	; 0xfffff0bf
    43a8:	00204853 	eoreq	r4, r0, r3, asr r8
    43ac:	49545845 	ldmdbmi	r4, {r0, r2, r6, fp, ip, lr}^
    43b0:	32415032 	subcc	r5, r1, #50	; 0x32
    43b4:	58452820 	stmdapl	r5, {r5, fp, sp}^
    43b8:	475f4954 			; <UNDEFINED> instruction: 0x475f4954
    43bc:	5f4f4950 	svcpl	0x004f4950
    43c0:	7070614d 	rsbsvc	r6, r0, sp, asr #2
    43c4:	5f676e69 	svcpl	0x00676e69
    43c8:	457b2974 	ldrbmi	r2, [fp, #-2420]!	; 0xfffff68c
    43cc:	32495458 	subcc	r5, r9, #88, 8	; 0x58000000
    43d0:	5047202c 	subpl	r2, r7, ip, lsr #32
    43d4:	2c414f49 	mcrrcs	15, 4, r4, r1, cr9
    43d8:	49504720 	ldmdbmi	r0, {r5, r8, r9, sl, lr}^
    43dc:	49505f4f 	ldmdbmi	r0, {r0, r1, r2, r3, r6, r8, r9, sl, fp, ip, lr}^
    43e0:	2c325f4e 	ldccs	15, cr5, [r2], #-312	; 0xfffffec8
    43e4:	54584520 	ldrbpl	r4, [r8], #-1312	; 0xfffffae0
    43e8:	495f3249 	ldmdbmi	pc, {r0, r3, r6, r9, ip, sp}^	; <UNPREDICTABLE>
    43ec:	007d5152 	rsbseq	r5, sp, r2, asr r1
    43f0:	524b434c 	subpl	r4, fp, #76, 6	; 0x30000001
    43f4:	445f5f00 	ldrbmi	r5, [pc], #-3840	; 43fc <_Min_Stack_Size+0x3ffc>
    43f8:	4d5f4c42 	ldclmi	12, cr4, [pc, #-264]	; 42f8 <_Min_Stack_Size+0x3ef8>
    43fc:	455f5841 	ldrbmi	r5, [pc, #-2113]	; 3bc3 <_Min_Stack_Size+0x37c3>
    4400:	5f5f5058 	svcpl	0x005f5058
    4404:	32303120 	eorscc	r3, r0, #32, 2
    4408:	5f5f0034 	svcpl	0x005f0034
    440c:	54534146 	ldrbpl	r4, [r3], #-326	; 0xfffffeba
    4410:	22203436 	eorcs	r3, r0, #905969664	; 0x36000000
    4414:	00226c6c 	eoreq	r6, r2, ip, ror #24
    4418:	54415f5f 	strbpl	r5, [r1], #-3935	; 0xfffff0a1
    441c:	43494d4f 	movtmi	r4, #40271	; 0x9d4f
    4420:	4c45525f 	sfmmi	f5, 2, [r5], {95}	; 0x5f
    4424:	45534145 	ldrbmi	r4, [r3, #-325]	; 0xfffffebb
    4428:	75003320 	strvc	r3, [r0, #-800]	; 0xfffffce0
    442c:	6769736e 	strbvs	r7, [r9, -lr, ror #6]!
    4430:	2064656e 	rsbcs	r6, r4, lr, ror #10
    4434:	5f00302b 	svcpl	0x0000302b
    4438:	544c465f 	strbpl	r4, [ip], #-1631	; 0xfffff9a1
    443c:	5f583233 	svcpl	0x00583233
    4440:	5f534148 	svcpl	0x00534148
    4444:	4f4e4544 	svcmi	0x004e4544
    4448:	5f5f4d52 	svcpl	0x005f4d52
    444c:	5f003120 	svcpl	0x00003120
    4450:	544c465f 	strbpl	r4, [ip], #-1631	; 0xfffff9a1
    4454:	4e414d5f 	mcrmi	13, 2, r4, cr1, cr15, {2}
    4458:	49445f54 	stmdbmi	r4, {r2, r4, r6, r8, r9, sl, fp, ip, lr}^
    445c:	205f5f47 	subscs	r5, pc, r7, asr #30
    4460:	55003432 	strpl	r3, [r0, #-1074]	; 0xfffffbce
    4464:	54524153 	ldrbpl	r4, [r2], #-339	; 0xfffffead
    4468:	52495f31 	subpl	r5, r9, #49, 30	; 0xc4
    446c:	37332051 			; <UNDEFINED> instruction: 0x37332051
    4470:	41525f00 	cmpmi	r2, r0, lsl #30
    4474:	3834444e 	ldmdacc	r4!, {r1, r2, r3, r6, sl, lr}
    4478:	4545535f 	strbmi	r5, [r5, #-863]	; 0xfffffca1
    447c:	20315f44 	eorscs	r5, r1, r4, asr #30
    4480:	61783028 	cmnvs	r8, r8, lsr #32
    4484:	29646362 	stmdbcs	r4!, {r1, r5, r6, r8, r9, sp, lr}^
    4488:	555f5f00 	ldrbpl	r5, [pc, #-3840]	; 3590 <_Min_Stack_Size+0x3190>
    448c:	495f5144 	ldmdbmi	pc, {r2, r6, r8, ip, lr}^	; <UNPREDICTABLE>
    4490:	5f544942 	svcpl	0x00544942
    4494:	0030205f 	eorseq	r2, r0, pc, asr r0
    4498:	4f4c475f 	svcmi	0x004c475f
    449c:	5f4c4142 	svcpl	0x004c4142
    44a0:	58455441 	stmdapl	r5, {r0, r6, sl, ip, lr}^
    44a4:	5f205449 	svcpl	0x00205449
    44a8:	626f6c67 	rsbvs	r6, pc, #26368	; 0x6700
    44ac:	615f6c61 	cmpvs	pc, r1, ror #24
    44b0:	69786574 	ldmdbvs	r8!, {r2, r4, r5, r6, r8, sl, sp, lr}^
    44b4:	5f5f0074 	svcpl	0x005f0074
    44b8:	5f544e49 	svcpl	0x00544e49
    44bc:	5341454c 	movtpl	r4, #5452	; 0x154c
    44c0:	5f323354 	svcpl	0x00323354
    44c4:	45505954 	ldrbmi	r5, [r0, #-2388]	; 0xfffff6ac
    44c8:	6c205f5f 	stcvs	15, cr5, [r0], #-380	; 0xfffffe84
    44cc:	20676e6f 	rsbcs	r6, r7, pc, ror #28
    44d0:	00746e69 	rsbseq	r6, r4, r9, ror #28
    44d4:	544e4955 	strbpl	r4, [lr], #-2389	; 0xfffff6ab
    44d8:	5f58414d 	svcpl	0x0058414d
    44dc:	2058414d 	subscs	r4, r8, sp, asr #2
    44e0:	555f5f28 	ldrbpl	r5, [pc, #-3880]	; 35c0 <_Min_Stack_Size+0x31c0>
    44e4:	4d544e49 	ldclmi	14, cr4, [r4, #-292]	; 0xfffffedc
    44e8:	4d5f5841 	ldclmi	8, cr5, [pc, #-260]	; 43ec <_Min_Stack_Size+0x3fec>
    44ec:	5f5f5841 	svcpl	0x005f5841
    44f0:	53550029 	cmppl	r5, #41	; 0x29
    44f4:	33545241 	cmpcc	r4, #268435460	; 0x10000004
    44f8:	5152495f 	cmppl	r2, pc, asr r9
    44fc:	00393320 	eorseq	r3, r9, r0, lsr #6
    4500:	49545845 	ldmdbmi	r4, {r0, r2, r6, fp, ip, lr}^
    4504:	35425035 	strbcc	r5, [r2, #-53]	; 0xffffffcb
    4508:	58452820 	stmdapl	r5, {r5, fp, sp}^
    450c:	475f4954 			; <UNDEFINED> instruction: 0x475f4954
    4510:	5f4f4950 	svcpl	0x004f4950
    4514:	7070614d 	rsbsvc	r6, r0, sp, asr #2
    4518:	5f676e69 	svcpl	0x00676e69
    451c:	457b2974 	ldrbmi	r2, [fp, #-2420]!	; 0xfffff68c
    4520:	35495458 	strbcc	r5, [r9, #-1112]	; 0xfffffba8
    4524:	5047202c 	subpl	r2, r7, ip, lsr #32
    4528:	2c424f49 	mcrrcs	15, 4, r4, r2, cr9
    452c:	49504720 	ldmdbmi	r0, {r5, r8, r9, sl, lr}^
    4530:	49505f4f 	ldmdbmi	r0, {r0, r1, r2, r3, r6, r8, r9, sl, fp, ip, lr}^
    4534:	2c355f4e 	ldccs	15, cr5, [r5], #-312	; 0xfffffec8
    4538:	54584520 	ldrbpl	r4, [r8], #-1312	; 0xfffffae0
    453c:	495f3549 	ldmdbmi	pc, {r0, r3, r6, r8, sl, ip, sp}^	; <UNPREDICTABLE>
    4540:	007d5152 	rsbseq	r5, sp, r2, asr r1
    4544:	41555f5f 	cmpmi	r5, pc, asr pc
    4548:	4d554343 	ldclmi	3, cr4, [r5, #-268]	; 0xfffffef4
    454c:	58414d5f 	stmdapl	r1, {r0, r1, r2, r3, r4, r6, r8, sl, fp, lr}^
    4550:	30205f5f 	eorcc	r5, r0, pc, asr pc
    4554:	46464658 			; <UNDEFINED> instruction: 0x46464658
    4558:	46464646 	strbmi	r4, [r6], -r6, asr #12
    455c:	312d5046 			; <UNDEFINED> instruction: 0x312d5046
    4560:	004b5536 	subeq	r5, fp, r6, lsr r5
    4564:	43435f5f 	movtmi	r5, #16223	; 0x3f5f
    4568:	5055535f 	subspl	r5, r5, pc, asr r3
    456c:	54524f50 	ldrbpl	r4, [r2], #-3920	; 0xfffff0b0
    4570:	5f5f5f53 	svcpl	0x005f5f53
    4574:	434e5546 	movtmi	r5, #58694	; 0xe546
    4578:	31205f5f 			; <UNDEFINED> instruction: 0x31205f5f
    457c:	465f5f00 	ldrbmi	r5, [pc], -r0, lsl #30
    4580:	3436544c 	ldrtcc	r5, [r6], #-1100	; 0xfffffbb4
    4584:	524f4e5f 	subpl	r4, pc, #1520	; 0x5f0
    4588:	414d5f4d 	cmpmi	sp, sp, asr #30
    458c:	205f5f58 	subscs	r5, pc, r8, asr pc	; <UNPREDICTABLE>
    4590:	39372e31 	ldmdbcc	r7!, {r0, r4, r5, r9, sl, fp, sp}
    4594:	33393637 	teqcc	r9, #57671680	; 0x3700000
    4598:	38343331 	ldmdacc	r4!, {r0, r4, r5, r8, r9, ip, sp}
    459c:	31333236 	teqcc	r3, r6, lsr r2
    45a0:	2b653735 	blcs	195227c <_Min_Stack_Size+0x1951e7c>
    45a4:	46383033 			; <UNDEFINED> instruction: 0x46383033
    45a8:	5f003436 	svcpl	0x00003436
    45ac:	554e475f 	strbpl	r4, [lr, #-1887]	; 0xfffff8a1
    45b0:	4b494c43 	blmi	12576c4 <_Min_Stack_Size+0x12572c4>
    45b4:	414d5f45 	cmpmi	sp, r5, asr #30
    45b8:	425f4854 	subsmi	r4, pc, #84, 16	; 0x540000
    45bc:	544c4955 	strbpl	r4, [ip], #-2389	; 0xfffff6ab
    45c0:	435f4e49 	cmpmi	pc, #1168	; 0x490
    45c4:	54534e4f 	ldrbpl	r4, [r3], #-3663	; 0xfffff1b1
    45c8:	53544e41 	cmppl	r4, #1040	; 0x410
    45cc:	525f0020 	subspl	r0, pc, #32
    45d0:	544e4545 	strbpl	r4, [lr], #-1349	; 0xfffffabb
    45d4:	4353415f 	cmpmi	r3, #-1073741801	; 0xc0000017
    45d8:	454d4954 	strbmi	r4, [sp, #-2388]	; 0xfffff6ac
    45dc:	4655425f 			; <UNDEFINED> instruction: 0x4655425f
    45e0:	72747028 	rsbsvc	r7, r4, #40	; 0x28
    45e4:	28282029 	stmdacs	r8!, {r0, r3, r5, sp}
    45e8:	29727470 	ldmdbcs	r2!, {r4, r5, r6, sl, ip, sp, lr}^
    45ec:	615f3e2d 	cmpvs	pc, sp, lsr #28
    45f0:	69746373 	ldmdbvs	r4!, {r0, r1, r4, r5, r6, r8, r9, sp, lr}^
    45f4:	625f656d 	subsvs	r6, pc, #457179136	; 0x1b400000
    45f8:	00296675 	eoreq	r6, r9, r5, ror r6
    45fc:	505f545f 	subspl	r5, pc, pc, asr r4	; <UNPREDICTABLE>
    4600:	49445254 	stmdbmi	r4, {r2, r4, r6, r9, ip, lr}^
    4604:	205f4646 	subscs	r4, pc, r6, asr #12
    4608:	4c5f5f00 	mrrcmi	15, 0, r5, pc, cr0	; <UNPREDICTABLE>
    460c:	5f4c4244 	svcpl	0x004c4244
    4610:	4f4e4544 	svcmi	0x004e4544
    4614:	4d5f4d52 	ldclmi	13, cr4, [pc, #-328]	; 44d4 <_Min_Stack_Size+0x40d4>
    4618:	5f5f4e49 	svcpl	0x005f4e49
    461c:	392e3420 	stmdbcc	lr!, {r5, sl, ip, sp}
    4620:	35363034 	ldrcc	r3, [r6, #-52]!	; 0xffffffcc
    4624:	38353436 	ldmdacc	r5!, {r1, r2, r4, r5, sl, ip, sp}
    4628:	34323134 	ldrtcc	r3, [r2], #-308	; 0xfffffecc
    462c:	65343536 	ldrvs	r3, [r4, #-1334]!	; 0xfffffaca
    4630:	3432332d 	ldrtcc	r3, [r2], #-813	; 0xfffffcd3
    4634:	5f5f004c 	svcpl	0x005f004c
    4638:	36544e49 	ldrbcc	r4, [r4], -r9, asr #28
    463c:	414d5f34 	cmpmi	sp, r4, lsr pc
    4640:	205f5f58 	subscs	r5, pc, r8, asr pc	; <UNPREDICTABLE>
    4644:	66377830 			; <UNDEFINED> instruction: 0x66377830
    4648:	66666666 	strbtvs	r6, [r6], -r6, ror #12
    464c:	66666666 	strbtvs	r6, [r6], -r6, ror #12
    4650:	66666666 	strbtvs	r6, [r6], -r6, ror #12
    4654:	4c4c6666 	mcrrmi	6, 6, r6, ip, cr6
    4658:	73736100 	cmnvc	r3, #0, 2
    465c:	28747265 	ldmdacs	r4!, {r0, r2, r5, r6, r9, ip, sp, lr}^
    4660:	29655f5f 	stmdbcs	r5!, {r0, r1, r2, r3, r4, r6, r8, r9, sl, fp, ip, lr}^
    4664:	5f282820 	svcpl	0x00282820
    4668:	2029655f 	eorcs	r6, r9, pc, asr r5
    466c:	7628203f 			; <UNDEFINED> instruction: 0x7628203f
    4670:	2964696f 	stmdbcs	r4!, {r0, r1, r2, r3, r5, r6, r8, fp, sp, lr}^
    4674:	203a2030 	eorscs	r2, sl, r0, lsr r0
    4678:	73615f5f 	cmnvc	r1, #380	; 0x17c
    467c:	74726573 	ldrbtvc	r6, [r2], #-1395	; 0xfffffa8d
    4680:	6e75665f 	mrcvs	6, 3, r6, cr5, cr15, {2}
    4684:	5f282063 	svcpl	0x00282063
    4688:	4c49465f 	mcrrmi	6, 5, r4, r9, cr15
    468c:	2c5f5f45 	mrrccs	15, 4, r5, pc, cr5	; <UNPREDICTABLE>
    4690:	4c5f5f20 	mrrcmi	15, 2, r5, pc, cr0	; <UNPREDICTABLE>
    4694:	5f454e49 	svcpl	0x00454e49
    4698:	5f202c5f 	svcpl	0x00202c5f
    469c:	5353415f 	cmppl	r3, #-1073741801	; 0xc0000017
    46a0:	5f545245 	svcpl	0x00545245
    46a4:	434e5546 	movtmi	r5, #58694	; 0xe546
    46a8:	5f23202c 	svcpl	0x0023202c
    46ac:	2929655f 	stmdbcs	r9!, {r0, r1, r2, r3, r4, r6, r8, sl, sp, lr}
    46b0:	555f5f00 	ldrbpl	r5, [pc, #-3840]	; 37b8 <_Min_Stack_Size+0x33b8>
    46b4:	52464c4c 	subpl	r4, r6, #76, 24	; 0x4c00
    46b8:	5f544341 	svcpl	0x00544341
    46bc:	54494249 	strbpl	r4, [r9], #-585	; 0xfffffdb7
    46c0:	30205f5f 	eorcc	r5, r0, pc, asr pc
    46c4:	4e415f00 	cdpmi	15, 4, cr5, cr1, cr0, {0}
    46c8:	535f4953 	cmppl	pc, #1359872	; 0x14c000
    46cc:	45444454 	strbmi	r4, [r4, #-1108]	; 0xfffffbac
    46d0:	20485f46 	subcs	r5, r8, r6, asr #30
    46d4:	49504700 	ldmdbmi	r0, {r8, r9, sl, lr}^
    46d8:	49505f4f 	ldmdbmi	r0, {r0, r1, r2, r3, r6, r8, r9, sl, fp, ip, lr}^
    46dc:	20365f4e 	eorscs	r5, r6, lr, asr #30
    46e0:	69752828 	ldmdbvs	r5!, {r3, r5, fp, sp}^
    46e4:	3631746e 	ldrtcc	r7, [r1], -lr, ror #8
    46e8:	2029745f 	eorcs	r7, r9, pc, asr r4
    46ec:	30307830 	eorscc	r7, r0, r0, lsr r8
    46f0:	00293034 	eoreq	r3, r9, r4, lsr r0
    46f4:	4349564e 	movtmi	r5, #38478	; 0x964e
    46f8:	4553495f 	ldrbmi	r4, [r3, #-2399]	; 0xfffff6a1
    46fc:	2a203052 	bcs	81084c <_Min_Stack_Size+0x81044c>
    4700:	6c6f7628 	stclvs	6, cr7, [pc], #-160	; 4668 <_Min_Stack_Size+0x4268>
    4704:	6c697461 	cfstrdvs	mvd7, [r9], #-388	; 0xfffffe7c
    4708:	69752065 	ldmdbvs	r5!, {r0, r2, r5, r6, sp}^
    470c:	3233746e 	eorscc	r7, r3, #1845493760	; 0x6e000000
    4710:	202a745f 	eorcs	r7, sl, pc, asr r4
    4714:	564e2829 	strbpl	r2, [lr], -r9, lsr #16
    4718:	425f4349 	subsmi	r4, pc, #603979777	; 0x24000001
    471c:	20657361 	rsbcs	r7, r5, r1, ror #6
    4720:	3078302b 	rsbscc	r3, r8, fp, lsr #32
    4724:	00293030 	eoreq	r3, r9, r0, lsr r0
    4728:	4e475f5f 	mcrmi	15, 2, r5, cr7, cr15, {2}
    472c:	5f5f4355 	svcpl	0x005f4355
    4730:	00303120 	eorseq	r3, r0, r0, lsr #2
    4734:	4545525f 	strbmi	r5, [r5, #-607]	; 0xfffffda1
    4738:	575f544e 	ldrbpl	r5, [pc, -lr, asr #8]
    473c:	4f545243 	svcmi	0x00545243
    4740:	535f424d 	cmppl	pc, #-805306364	; 0xd0000004
    4744:	45544154 	ldrbmi	r4, [r4, #-340]	; 0xfffffeac
    4748:	72747028 	rsbsvc	r7, r4, #40	; 0x28
    474c:	28282029 	stmdacs	r8!, {r0, r3, r5, sp}
    4750:	29727470 	ldmdbcs	r2!, {r4, r5, r6, sl, ip, sp, lr}^
    4754:	6d5f3e2d 	ldclvs	14, cr3, [pc, #-180]	; 46a8 <_Min_Stack_Size+0x42a8>
    4758:	2d637369 	stclcs	3, cr7, [r3, #-420]!	; 0xfffffe5c
    475c:	63775f3e 	cmnvs	r7, #62, 30	; 0xf8
    4760:	6d6f7472 	cfstrdvs	mvd7, [pc, #-456]!	; 45a0 <_Min_Stack_Size+0x41a0>
    4764:	74735f62 	ldrbtvc	r5, [r3], #-3938	; 0xfffff09e
    4768:	29657461 	stmdbcs	r5!, {r0, r5, r6, sl, ip, sp, lr}^
    476c:	615f5f00 	cmpvs	pc, r0, lsl #30
    4770:	636f6c6c 	cmnvs	pc, #108, 24	; 0x6c00
    4774:	7a69735f 	bvc	1a614f8 <_Min_Stack_Size+0x1a610f8>
    4778:	29782865 	ldmdbcs	r8!, {r0, r2, r5, r6, fp, sp}^
    477c:	615f5f20 	cmpvs	pc, r0, lsr #30
    4780:	69727474 	ldmdbvs	r2!, {r2, r4, r5, r6, sl, ip, sp, lr}^
    4784:	65747562 	ldrbvs	r7, [r4, #-1378]!	; 0xfffffa9e
    4788:	28285f5f 	stmdacs	r8!, {r0, r1, r2, r3, r4, r6, r8, r9, sl, fp, ip, lr}
    478c:	6c615f5f 	stclvs	15, cr5, [r1], #-380	; 0xfffffe84
    4790:	5f636f6c 	svcpl	0x00636f6c
    4794:	657a6973 	ldrbvs	r6, [sl, #-2419]!	; 0xfffff68d
    4798:	78285f5f 	stmdavc	r8!, {r0, r1, r2, r3, r4, r6, r8, r9, sl, fp, ip, lr}
    479c:	00292929 	eoreq	r2, r9, r9, lsr #18
    47a0:	4f4c5f5f 	svcmi	0x004c5f5f
    47a4:	575f474e 	ldrbpl	r4, [pc, -lr, asr #14]
    47a8:	48544449 	ldmdami	r4, {r0, r3, r6, sl, lr}^
    47ac:	33205f5f 			; <UNDEFINED> instruction: 0x33205f5f
    47b0:	69540032 	ldmdbvs	r4, {r1, r4, r5}^
    47b4:	2820346d 	stmdacs	r0!, {r0, r2, r3, r5, r6, sl, ip, sp}
    47b8:	4d495428 	cfstrdmi	mvd5, [r9, #-160]	; 0xffffff60
    47bc:	5f357432 	svcpl	0x00357432
    47c0:	65707954 	ldrbvs	r7, [r0, #-2388]!	; 0xfffff6ac
    47c4:	5f666544 	svcpl	0x00666544
    47c8:	54292a74 	strtpl	r2, [r9], #-2676	; 0xfffff58c
    47cc:	5f344d49 	svcpl	0x00344d49
    47d0:	45534142 	ldrbmi	r4, [r3, #-322]	; 0xfffffebe
    47d4:	5f5f0029 	svcpl	0x005f0029
    47d8:	5f544c46 	svcpl	0x00544c46
    47dc:	5f58414d 	svcpl	0x0058414d
    47e0:	2e33205f 	mrccs	0, 1, r2, cr3, cr15, {2}
    47e4:	38323034 	ldmdacc	r2!, {r2, r4, r5, ip, sp}
    47e8:	36343332 			; <UNDEFINED> instruction: 0x36343332
    47ec:	35383336 	ldrcc	r3, [r8, #-822]!	; 0xfffffcca
    47f0:	36383832 			; <UNDEFINED> instruction: 0x36383832
    47f4:	38332b65 	ldmdacc	r3!, {r0, r2, r5, r6, r8, r9, fp, sp}
    47f8:	50470046 	subpl	r0, r7, r6, asr #32
    47fc:	5f464f49 	svcpl	0x00464f49
    4800:	45534142 	ldrbmi	r4, [r3, #-322]	; 0xfffffebe
    4804:	34783020 	ldrbtcc	r3, [r8], #-32	; 0xffffffe0
    4808:	31313030 	teqcc	r1, r0, lsr r0
    480c:	75303043 	ldrvc	r3, [r0, #-67]!	; 0xffffffbd
    4810:	555f5f00 	ldrbpl	r5, [pc, #-3840]	; 3918 <_Min_Stack_Size+0x3518>
    4814:	55434341 	strbpl	r4, [r3, #-833]	; 0xfffffcbf
    4818:	42465f4d 	submi	r5, r6, #308	; 0x134
    481c:	5f5f5449 	svcpl	0x005f5449
    4820:	00363120 	eorseq	r3, r6, r0, lsr #2
    4824:	61775f5f 	cmnvs	r7, pc, asr pc
    4828:	725f6e72 	subsvc	r6, pc, #1824	; 0x720
    482c:	72656665 	rsbvc	r6, r5, #105906176	; 0x6500000
    4830:	65636e65 	strbvs	r6, [r3, #-3685]!	; 0xfffff19b
    4834:	79732873 	ldmdbvc	r3!, {r0, r1, r4, r5, r6, fp, sp}^
    4838:	736d2c6d 	cmnvc	sp, #27904	; 0x6d00
    483c:	5f202967 	svcpl	0x00202967
    4840:	6d73615f 	ldfvse	f6, [r3, #-380]!	; 0xfffffe84
    4844:	22285f5f 	eorcs	r5, r8, #380	; 0x17c
    4848:	6365732e 	cmnvs	r5, #-1207959552	; 0xb8000000
    484c:	6e6f6974 			; <UNDEFINED> instruction: 0x6e6f6974
    4850:	6e672e20 	cdpvs	14, 6, cr2, cr7, cr0, {1}
    4854:	61772e75 	cmnvs	r7, r5, ror lr
    4858:	6e696e72 	mcrvs	14, 3, r6, cr9, cr2, {3}
    485c:	20222e67 	eorcs	r2, r2, r7, ror #28
    4860:	6d797323 	ldclvs	3, cr7, [r9, #-140]!	; 0xffffff74
    4864:	5f203b29 	svcpl	0x00203b29
    4868:	6d73615f 	ldfvse	f6, [r3, #-380]!	; 0xfffffe84
    486c:	22285f5f 	eorcs	r5, r8, #380	; 0x17c
    4870:	6373612e 	cmnvs	r3, #-2147483637	; 0x8000000b
    4874:	5c207a69 			; <UNDEFINED> instruction: 0x5c207a69
    4878:	6d202222 	sfmvs	f2, 4, [r0, #-136]!	; 0xffffff78
    487c:	22206773 	eorcs	r6, r0, #30146560	; 0x1cc0000
    4880:	2922225c 	stmdbcs	r2!, {r2, r3, r4, r6, r9, sp}
    4884:	5f5f203b 	svcpl	0x005f203b
    4888:	5f6d7361 	svcpl	0x006d7361
    488c:	2e22285f 	mcrcs	8, 1, r2, cr2, cr15, {2}
    4890:	76657270 			; <UNDEFINED> instruction: 0x76657270
    4894:	73756f69 	cmnvc	r5, #420	; 0x1a4
    4898:	5f002922 	svcpl	0x00002922
    489c:	5246555f 	subpl	r5, r6, #398458880	; 0x17c00000
    48a0:	5f544341 	svcpl	0x00544341
    48a4:	49535045 	ldmdbmi	r3, {r0, r2, r6, ip, lr}^
    48a8:	5f4e4f4c 	svcpl	0x004e4f4c
    48ac:	7830205f 	ldmdavc	r0!, {r0, r1, r2, r3, r4, r6, sp}
    48b0:	312d5031 			; <UNDEFINED> instruction: 0x312d5031
    48b4:	00525536 	subseq	r5, r2, r6, lsr r5
    48b8:	43575f5f 	cmpmi	r7, #380	; 0x17c
    48bc:	5f524148 	svcpl	0x00524148
    48c0:	5f4e494d 	svcpl	0x004e494d
    48c4:	5530205f 	ldrpl	r2, [r0, #-95]!	; 0xffffffa1
    48c8:	555f5f00 	ldrbpl	r5, [pc, #-3840]	; 39d0 <_Min_Stack_Size+0x35d0>
    48cc:	495f5151 	ldmdbmi	pc, {r0, r4, r6, r8, ip, lr}^	; <UNPREDICTABLE>
    48d0:	5f544942 	svcpl	0x00544942
    48d4:	0030205f 	eorseq	r2, r0, pc, asr r0
    48d8:	57454e5f 	smlsldpl	r4, r5, pc, lr	; <UNPREDICTABLE>
    48dc:	5f42494c 	svcpl	0x0042494c
    48e0:	53524556 	cmppl	r2, #360710144	; 0x15800000
    48e4:	5f4e4f49 	svcpl	0x004e4f49
    48e8:	205f5f48 	subscs	r5, pc, r8, asr #30
    48ec:	5f5f0031 	svcpl	0x005f0031
    48f0:	5f434347 	svcpl	0x00434347
    48f4:	4d4f5441 	cfstrdmi	mvd5, [pc, #-260]	; 47f8 <_Min_Stack_Size+0x43f8>
    48f8:	4c5f4349 	mrrcmi	3, 4, r4, pc, cr9	; <UNPREDICTABLE>
    48fc:	5f474e4f 	svcpl	0x00474e4f
    4900:	4b434f4c 	blmi	10d8638 <_Min_Stack_Size+0x10d8238>
    4904:	4552465f 	ldrbmi	r4, [r2, #-1631]	; 0xfffff9a1
    4908:	00322045 	eorseq	r2, r2, r5, asr #32
    490c:	4c555f5f 	mrrcmi	15, 5, r5, r5, cr15	; <UNPREDICTABLE>
    4910:	55434341 	strbpl	r4, [r3, #-833]	; 0xfffffcbf
    4914:	494d5f4d 	stmdbmi	sp, {r0, r2, r3, r6, r8, r9, sl, fp, ip, lr}^
    4918:	205f5f4e 	subscs	r5, pc, lr, asr #30
    491c:	55302e30 	ldrpl	r2, [r0, #-3632]!	; 0xfffff1d0
    4920:	5f004b4c 	svcpl	0x00004b4c
    4924:	58455441 	stmdapl	r5, {r0, r6, sl, ip, lr}^
    4928:	445f5449 	ldrbmi	r5, [pc], #-1097	; 4930 <_Min_Stack_Size+0x4530>
    492c:	4d414e59 	stclmi	14, cr4, [r1, #-356]	; 0xfffffe9c
    4930:	415f4349 	cmpmi	pc, r9, asr #6
    4934:	434f4c4c 	movtmi	r4, #64588	; 0xfc4c
    4938:	5f003120 	svcpl	0x00003120
    493c:	65656e5f 	strbvs	r6, [r5, #-3679]!	; 0xfffff1a1
    4940:	69735f64 	ldmdbvs	r3!, {r2, r5, r6, r8, r9, sl, fp, ip, lr}^
    4944:	745f657a 	ldrbvc	r6, [pc], #-1402	; 494c <_Min_Stack_Size+0x454c>
    4948:	4c5f5f00 	mrrcmi	15, 0, r5, pc, cr0	; <UNPREDICTABLE>
    494c:	5f4c4244 	svcpl	0x004c4244
    4950:	5f58414d 	svcpl	0x0058414d
    4954:	2e31205f 	mrccs	0, 1, r2, cr1, cr15, {2}
    4958:	36373937 			; <UNDEFINED> instruction: 0x36373937
    495c:	33313339 	teqcc	r1, #-469762048	; 0xe4000000
    4960:	32363834 	eorscc	r3, r6, #52, 16	; 0x340000
    4964:	37353133 			; <UNDEFINED> instruction: 0x37353133
    4968:	30332b65 	eorscc	r2, r3, r5, ror #22
    496c:	5f004c38 	svcpl	0x00004c38
    4970:	4d52415f 	ldfmie	f4, [r2, #-380]	; 0xfffffe84
    4974:	4352415f 	cmpmi	r2, #-1073741801	; 0xc0000017
    4978:	00372048 	eorseq	r2, r7, r8, asr #32
    497c:	4c465f5f 	mcrrmi	15, 5, r5, r6, cr15
    4980:	41525f54 	cmpmi	r2, r4, asr pc
    4984:	5f584944 	svcpl	0x00584944
    4988:	0032205f 	eorseq	r2, r2, pc, asr r0
    498c:	4f495047 	svcmi	0x00495047
    4990:	41425f45 	cmpmi	r2, r5, asr #30
    4994:	30204553 	eorcc	r4, r0, r3, asr r5
    4998:	30303478 	eorscc	r3, r0, r8, ror r4
    499c:	30383131 	eorscc	r3, r8, r1, lsr r1
    49a0:	49007530 	stmdbmi	r0, {r4, r5, r8, sl, ip, sp, lr}
    49a4:	3436544e 	ldrtcc	r5, [r6], #-1102	; 0xfffffbb2
    49a8:	58414d5f 	stmdapl	r1, {r0, r1, r2, r3, r4, r6, r8, sl, fp, lr}^
    49ac:	5f5f2820 	svcpl	0x005f2820
    49b0:	36544e49 	ldrbcc	r4, [r4], -r9, asr #28
    49b4:	414d5f34 	cmpmi	sp, r4, lsr pc
    49b8:	295f5f58 	ldmdbcs	pc, {r3, r4, r6, r8, r9, sl, fp, ip, lr}^	; <UNPREDICTABLE>
    49bc:	415f5f00 	cmpmi	pc, r0, lsl #30
    49c0:	465f4d52 			; <UNDEFINED> instruction: 0x465f4d52
    49c4:	55544145 	ldrbpl	r4, [r4, #-325]	; 0xfffffebb
    49c8:	435f4552 	cmpmi	pc, #343932928	; 0x14800000
    49cc:	0045534d 	subeq	r5, r5, sp, asr #6
    49d0:	4349564e 	movtmi	r5, #38478	; 0x964e
    49d4:	4153555f 	cmpmi	r3, pc, asr r5
    49d8:	5f335452 	svcpl	0x00335452
    49dc:	5f515249 	svcpl	0x00515249
    49e0:	61736944 	cmnvs	r3, r4, asr #18
    49e4:	20656c62 	rsbcs	r6, r5, r2, ror #24
    49e8:	49564e28 	ldmdbmi	r6, {r3, r5, r9, sl, fp, lr}^
    49ec:	43495f43 	movtmi	r5, #40771	; 0x9f43
    49f0:	20315245 	eorscs	r5, r1, r5, asr #4
    49f4:	31203d7c 			; <UNDEFINED> instruction: 0x31203d7c
    49f8:	55283c3c 	strpl	r3, [r8, #-3132]!	; 0xfffff3c4
    49fc:	54524153 	ldrbpl	r4, [r2], #-339	; 0xfffffead
    4a00:	52495f33 	subpl	r5, r9, #51, 30	; 0xcc
    4a04:	202d2051 	eorcs	r2, sp, r1, asr r0
    4a08:	29293233 	stmdbcs	r9!, {r0, r1, r4, r5, r9, ip, sp}
    4a0c:	4c5f5f00 	mrrcmi	15, 0, r5, pc, cr0	; <UNPREDICTABLE>
    4a10:	55434341 	strbpl	r4, [r3, #-833]	; 0xfffffcbf
    4a14:	50455f4d 	subpl	r5, r5, sp, asr #30
    4a18:	4f4c4953 	svcmi	0x004c4953
    4a1c:	205f5f4e 	subscs	r5, pc, lr, asr #30
    4a20:	50317830 	eorspl	r7, r1, r0, lsr r8
    4a24:	4c31332d 	ldcmi	3, cr3, [r1], #-180	; 0xffffff4c
    4a28:	5f5f004b 	svcpl	0x005f004b
    4a2c:	5f434347 	svcpl	0x00434347
    4a30:	4d4f5441 	cfstrdmi	mvd5, [pc, #-260]	; 4934 <_Min_Stack_Size+0x4534>
    4a34:	425f4349 	subsmi	r4, pc, #603979777	; 0x24000001
    4a38:	5f4c4f4f 	svcpl	0x004c4f4f
    4a3c:	4b434f4c 	blmi	10d8774 <_Min_Stack_Size+0x10d8374>
    4a40:	4552465f 	ldrbmi	r4, [r2, #-1631]	; 0xfffff9a1
    4a44:	00322045 	eorseq	r2, r2, r5, asr #32
    4a48:	63775f5f 	cmnvs	r7, #380	; 0x17c
    4a4c:	5f726168 	svcpl	0x00726168
    4a50:	205f5f74 	subscs	r5, pc, r4, ror pc	; <UNPREDICTABLE>
    4a54:	45525f00 	ldrbmi	r5, [r2, #-3840]	; 0xfffff100
    4a58:	5f544e45 	svcpl	0x00544e45
    4a5c:	54494e49 	strbpl	r4, [r9], #-3657	; 0xfffff1b7
    4a60:	53494d5f 	movtpl	r4, #40287	; 0x9d5f
    4a64:	61762843 	cmnvs	r6, r3, asr #16
    4a68:	64202972 	strtvs	r2, [r0], #-2418	; 0xfffff68e
    4a6c:	207b206f 	rsbscs	r2, fp, pc, rrx
    4a70:	75727473 	ldrbvc	r7, [r2, #-1139]!	; 0xfffffb8d
    4a74:	5f207463 	svcpl	0x00207463
    4a78:	6e656572 	mcrvs	5, 3, r6, cr5, cr2, {3}
    4a7c:	5f2a2074 	svcpl	0x002a2074
    4a80:	203d2072 	eorscs	r2, sp, r2, ror r0
    4a84:	72617628 	rsbvc	r7, r1, #40, 12	; 0x2800000
    4a88:	5f203b29 	svcpl	0x00203b29
    4a8c:	5f3e2d72 	svcpl	0x003e2d72
    4a90:	6373696d 	cmnvs	r3, #1785856	; 0x1b4000
    4a94:	735f3e2d 	cmpvc	pc, #720	; 0x2d0
    4a98:	6f747274 	svcvs	0x00747274
    4a9c:	616c5f6b 	cmnvs	ip, fp, ror #30
    4aa0:	3d207473 	cfstrscc	mvf7, [r0, #-460]!	; 0xfffffe34
    4aa4:	554e5f20 	strbpl	r5, [lr, #-3872]	; 0xfffff0e0
    4aa8:	203b4c4c 	eorscs	r4, fp, ip, asr #24
    4aac:	3e2d725f 	mcrcc	2, 1, r7, cr13, cr15, {2}
    4ab0:	73696d5f 	cmnvc	r9, #6080	; 0x17c0
    4ab4:	5f3e2d63 	svcpl	0x003e2d63
    4ab8:	656c626d 	strbvs	r6, [ip, #-621]!	; 0xfffffd93
    4abc:	74735f6e 	ldrbtvc	r5, [r3], #-3950	; 0xfffff092
    4ac0:	2e657461 	cdpcs	4, 6, cr7, cr5, cr1, {3}
    4ac4:	6f635f5f 	svcvs	0x00635f5f
    4ac8:	20746e75 	rsbscs	r6, r4, r5, ror lr
    4acc:	3b30203d 	blcc	c0cbc8 <_Min_Stack_Size+0xc0c7c8>
    4ad0:	2d725f20 	ldclcs	15, cr5, [r2, #-128]!	; 0xffffff80
    4ad4:	696d5f3e 	stmdbvs	sp!, {r1, r2, r3, r4, r5, r8, r9, sl, fp, ip, lr}^
    4ad8:	3e2d6373 	mcrcc	3, 1, r6, cr13, cr3, {3}
    4adc:	6c626d5f 	stclvs	13, cr6, [r2], #-380	; 0xfffffe84
    4ae0:	735f6e65 	cmpvc	pc, #1616	; 0x650
    4ae4:	65746174 	ldrbvs	r6, [r4, #-372]!	; 0xfffffe8c
    4ae8:	765f5f2e 	ldrbvc	r5, [pc], -lr, lsr #30
    4aec:	65756c61 	ldrbvs	r6, [r5, #-3169]!	; 0xfffff39f
    4af0:	775f5f2e 	ldrbvc	r5, [pc, -lr, lsr #30]
    4af4:	3d206863 	stccc	8, cr6, [r0, #-396]!	; 0xfffffe74
    4af8:	203b3020 	eorscs	r3, fp, r0, lsr #32
    4afc:	3e2d725f 	mcrcc	2, 1, r7, cr13, cr15, {2}
    4b00:	73696d5f 	cmnvc	r9, #6080	; 0x17c0
    4b04:	5f3e2d63 	svcpl	0x003e2d63
    4b08:	6f746377 	svcvs	0x00746377
    4b0c:	735f626d 	cmpvc	pc, #-805306362	; 0xd0000006
    4b10:	65746174 	ldrbvs	r6, [r4, #-372]!	; 0xfffffe8c
    4b14:	635f5f2e 	cmpvs	pc, #46, 30	; 0xb8
    4b18:	746e756f 	strbtvc	r7, [lr], #-1391	; 0xfffffa91
    4b1c:	30203d20 	eorcc	r3, r0, r0, lsr #26
    4b20:	725f203b 	subsvc	r2, pc, #59	; 0x3b
    4b24:	6d5f3e2d 	ldclvs	14, cr3, [pc, #-180]	; 4a78 <_Min_Stack_Size+0x4678>
    4b28:	2d637369 	stclcs	3, cr7, [r3, #-420]!	; 0xfffffe5c
    4b2c:	63775f3e 	cmnvs	r7, #62, 30	; 0xf8
    4b30:	626d6f74 	rsbvs	r6, sp, #116, 30	; 0x1d0
    4b34:	6174735f 	cmnvs	r4, pc, asr r3
    4b38:	5f2e6574 	svcpl	0x002e6574
    4b3c:	6c61765f 	stclvs	6, cr7, [r1], #-380	; 0xfffffe84
    4b40:	5f2e6575 	svcpl	0x002e6575
    4b44:	6863775f 	stmdavs	r3!, {r0, r1, r2, r3, r4, r6, r8, r9, sl, ip, sp, lr}^
    4b48:	30203d20 	eorcc	r3, r0, r0, lsr #26
    4b4c:	725f203b 	subsvc	r2, pc, #59	; 0x3b
    4b50:	6d5f3e2d 	ldclvs	14, cr3, [pc, #-180]	; 4aa4 <_Min_Stack_Size+0x46a4>
    4b54:	2d637369 	stclcs	3, cr7, [r3, #-420]!	; 0xfffffe5c
    4b58:	626d5f3e 	rsbvs	r5, sp, #62, 30	; 0xf8
    4b5c:	63776f74 	cmnvs	r7, #116, 30	; 0x1d0
    4b60:	6174735f 	cmnvs	r4, pc, asr r3
    4b64:	5f2e6574 	svcpl	0x002e6574
    4b68:	756f635f 	strbvc	r6, [pc, #-863]!	; 4811 <_Min_Stack_Size+0x4411>
    4b6c:	3d20746e 	cfstrscc	mvf7, [r0, #-440]!	; 0xfffffe48
    4b70:	203b3020 	eorscs	r3, fp, r0, lsr #32
    4b74:	3e2d725f 	mcrcc	2, 1, r7, cr13, cr15, {2}
    4b78:	73696d5f 	cmnvc	r9, #6080	; 0x17c0
    4b7c:	5f3e2d63 	svcpl	0x003e2d63
    4b80:	6f74626d 	svcvs	0x0074626d
    4b84:	735f6377 	cmpvc	pc, #-603979775	; 0xdc000001
    4b88:	65746174 	ldrbvs	r6, [r4, #-372]!	; 0xfffffe8c
    4b8c:	765f5f2e 	ldrbvc	r5, [pc], -lr, lsr #30
    4b90:	65756c61 	ldrbvs	r6, [r5, #-3169]!	; 0xfffff39f
    4b94:	775f5f2e 	ldrbvc	r5, [pc, -lr, lsr #30]
    4b98:	3d206863 	stccc	8, cr6, [r0, #-396]!	; 0xfffffe74
    4b9c:	203b3020 	eorscs	r3, fp, r0, lsr #32
    4ba0:	3e2d725f 	mcrcc	2, 1, r7, cr13, cr15, {2}
    4ba4:	73696d5f 	cmnvc	r9, #6080	; 0x17c0
    4ba8:	5f3e2d63 	svcpl	0x003e2d63
    4bac:	6c72626d 	lfmvs	f6, 2, [r2], #-436	; 0xfffffe4c
    4bb0:	735f6e65 	cmpvc	pc, #1616	; 0x650
    4bb4:	65746174 	ldrbvs	r6, [r4, #-372]!	; 0xfffffe8c
    4bb8:	635f5f2e 	cmpvs	pc, #46, 30	; 0xb8
    4bbc:	746e756f 	strbtvc	r7, [lr], #-1391	; 0xfffffa91
    4bc0:	30203d20 	eorcc	r3, r0, r0, lsr #26
    4bc4:	725f203b 	subsvc	r2, pc, #59	; 0x3b
    4bc8:	6d5f3e2d 	ldclvs	14, cr3, [pc, #-180]	; 4b1c <_Min_Stack_Size+0x471c>
    4bcc:	2d637369 	stclcs	3, cr7, [r3, #-420]!	; 0xfffffe5c
    4bd0:	626d5f3e 	rsbvs	r5, sp, #62, 30	; 0xf8
    4bd4:	6e656c72 	mcrvs	12, 3, r6, cr5, cr2, {3}
    4bd8:	6174735f 	cmnvs	r4, pc, asr r3
    4bdc:	5f2e6574 	svcpl	0x002e6574
    4be0:	6c61765f 	stclvs	6, cr7, [r1], #-380	; 0xfffffe84
    4be4:	5f2e6575 	svcpl	0x002e6575
    4be8:	6863775f 	stmdavs	r3!, {r0, r1, r2, r3, r4, r6, r8, r9, sl, ip, sp, lr}^
    4bec:	30203d20 	eorcc	r3, r0, r0, lsr #26
    4bf0:	725f203b 	subsvc	r2, pc, #59	; 0x3b
    4bf4:	6d5f3e2d 	ldclvs	14, cr3, [pc, #-180]	; 4b48 <_Min_Stack_Size+0x4748>
    4bf8:	2d637369 	stclcs	3, cr7, [r3, #-420]!	; 0xfffffe5c
    4bfc:	626d5f3e 	rsbvs	r5, sp, #62, 30	; 0xf8
    4c00:	776f7472 			; <UNDEFINED> instruction: 0x776f7472
    4c04:	74735f63 	ldrbtvc	r5, [r3], #-3939	; 0xfffff09d
    4c08:	2e657461 	cdpcs	4, 6, cr7, cr5, cr1, {3}
    4c0c:	6f635f5f 	svcvs	0x00635f5f
    4c10:	20746e75 	rsbscs	r6, r4, r5, ror lr
    4c14:	3b30203d 	blcc	c0cd10 <_Min_Stack_Size+0xc0c910>
    4c18:	2d725f20 	ldclcs	15, cr5, [r2, #-128]!	; 0xffffff80
    4c1c:	696d5f3e 	stmdbvs	sp!, {r1, r2, r3, r4, r5, r8, r9, sl, fp, ip, lr}^
    4c20:	3e2d6373 	mcrcc	3, 1, r6, cr13, cr3, {3}
    4c24:	72626d5f 	rsbvc	r6, r2, #6080	; 0x17c0
    4c28:	63776f74 	cmnvs	r7, #116, 30	; 0x1d0
    4c2c:	6174735f 	cmnvs	r4, pc, asr r3
    4c30:	5f2e6574 	svcpl	0x002e6574
    4c34:	6c61765f 	stclvs	6, cr7, [r1], #-380	; 0xfffffe84
    4c38:	5f2e6575 	svcpl	0x002e6575
    4c3c:	6863775f 	stmdavs	r3!, {r0, r1, r2, r3, r4, r6, r8, r9, sl, ip, sp, lr}^
    4c40:	30203d20 	eorcc	r3, r0, r0, lsr #26
    4c44:	725f203b 	subsvc	r2, pc, #59	; 0x3b
    4c48:	6d5f3e2d 	ldclvs	14, cr3, [pc, #-180]	; 4b9c <_Min_Stack_Size+0x479c>
    4c4c:	2d637369 	stclcs	3, cr7, [r3, #-420]!	; 0xfffffe5c
    4c50:	626d5f3e 	rsbvs	r5, sp, #62, 30	; 0xf8
    4c54:	6f747273 	svcvs	0x00747273
    4c58:	5f736377 	svcpl	0x00736377
    4c5c:	74617473 	strbtvc	r7, [r1], #-1139	; 0xfffffb8d
    4c60:	5f5f2e65 	svcpl	0x005f2e65
    4c64:	6e756f63 	cdpvs	15, 7, cr6, cr5, cr3, {3}
    4c68:	203d2074 	eorscs	r2, sp, r4, ror r0
    4c6c:	5f203b30 	svcpl	0x00203b30
    4c70:	5f3e2d72 	svcpl	0x003e2d72
    4c74:	6373696d 	cmnvs	r3, #1785856	; 0x1b4000
    4c78:	6d5f3e2d 	ldclvs	14, cr3, [pc, #-180]	; 4bcc <_Min_Stack_Size+0x47cc>
    4c7c:	74727362 	ldrbtvc	r7, [r2], #-866	; 0xfffffc9e
    4c80:	7363776f 	cmnvc	r3, #29097984	; 0x1bc0000
    4c84:	6174735f 	cmnvs	r4, pc, asr r3
    4c88:	5f2e6574 	svcpl	0x002e6574
    4c8c:	6c61765f 	stclvs	6, cr7, [r1], #-380	; 0xfffffe84
    4c90:	5f2e6575 	svcpl	0x002e6575
    4c94:	6863775f 	stmdavs	r3!, {r0, r1, r2, r3, r4, r6, r8, r9, sl, ip, sp, lr}^
    4c98:	30203d20 	eorcc	r3, r0, r0, lsr #26
    4c9c:	725f203b 	subsvc	r2, pc, #59	; 0x3b
    4ca0:	6d5f3e2d 	ldclvs	14, cr3, [pc, #-180]	; 4bf4 <_Min_Stack_Size+0x47f4>
    4ca4:	2d637369 	stclcs	3, cr7, [r3, #-420]!	; 0xfffffe5c
    4ca8:	63775f3e 	cmnvs	r7, #62, 30	; 0xf8
    4cac:	6d6f7472 	cfstrdvs	mvd7, [pc, #-456]!	; 4aec <_Min_Stack_Size+0x46ec>
    4cb0:	74735f62 	ldrbtvc	r5, [r3], #-3938	; 0xfffff09e
    4cb4:	2e657461 	cdpcs	4, 6, cr7, cr5, cr1, {3}
    4cb8:	6f635f5f 	svcvs	0x00635f5f
    4cbc:	20746e75 	rsbscs	r6, r4, r5, ror lr
    4cc0:	3b30203d 	blcc	c0cdbc <_Min_Stack_Size+0xc0c9bc>
    4cc4:	2d725f20 	ldclcs	15, cr5, [r2, #-128]!	; 0xffffff80
    4cc8:	696d5f3e 	stmdbvs	sp!, {r1, r2, r3, r4, r5, r8, r9, sl, fp, ip, lr}^
    4ccc:	3e2d6373 	mcrcc	3, 1, r6, cr13, cr3, {3}
    4cd0:	7263775f 	rsbvc	r7, r3, #24903680	; 0x17c0000
    4cd4:	626d6f74 	rsbvs	r6, sp, #116, 30	; 0x1d0
    4cd8:	6174735f 	cmnvs	r4, pc, asr r3
    4cdc:	5f2e6574 	svcpl	0x002e6574
    4ce0:	6c61765f 	stclvs	6, cr7, [r1], #-380	; 0xfffffe84
    4ce4:	5f2e6575 	svcpl	0x002e6575
    4ce8:	6863775f 	stmdavs	r3!, {r0, r1, r2, r3, r4, r6, r8, r9, sl, ip, sp, lr}^
    4cec:	30203d20 	eorcc	r3, r0, r0, lsr #26
    4cf0:	725f203b 	subsvc	r2, pc, #59	; 0x3b
    4cf4:	6d5f3e2d 	ldclvs	14, cr3, [pc, #-180]	; 4c48 <_Min_Stack_Size+0x4848>
    4cf8:	2d637369 	stclcs	3, cr7, [r3, #-420]!	; 0xfffffe5c
    4cfc:	63775f3e 	cmnvs	r7, #62, 30	; 0xf8
    4d00:	6f747273 	svcvs	0x00747273
    4d04:	5f73626d 	svcpl	0x0073626d
    4d08:	74617473 	strbtvc	r7, [r1], #-1139	; 0xfffffb8d
    4d0c:	5f5f2e65 	svcpl	0x005f2e65
    4d10:	6e756f63 	cdpvs	15, 7, cr6, cr5, cr3, {3}
    4d14:	203d2074 	eorscs	r2, sp, r4, ror r0
    4d18:	5f203b30 	svcpl	0x00203b30
    4d1c:	5f3e2d72 	svcpl	0x003e2d72
    4d20:	6373696d 	cmnvs	r3, #1785856	; 0x1b4000
    4d24:	775f3e2d 	ldrbvc	r3, [pc, -sp, lsr #28]
    4d28:	74727363 	ldrbtvc	r7, [r2], #-867	; 0xfffffc9d
    4d2c:	73626d6f 	cmnvc	r2, #7104	; 0x1bc0
    4d30:	6174735f 	cmnvs	r4, pc, asr r3
    4d34:	5f2e6574 	svcpl	0x002e6574
    4d38:	6c61765f 	stclvs	6, cr7, [r1], #-380	; 0xfffffe84
    4d3c:	5f2e6575 	svcpl	0x002e6575
    4d40:	6863775f 	stmdavs	r3!, {r0, r1, r2, r3, r4, r6, r8, r9, sl, ip, sp, lr}^
    4d44:	30203d20 	eorcc	r3, r0, r0, lsr #26
    4d48:	725f203b 	subsvc	r2, pc, #59	; 0x3b
    4d4c:	6d5f3e2d 	ldclvs	14, cr3, [pc, #-180]	; 4ca0 <_Min_Stack_Size+0x48a0>
    4d50:	2d637369 	stclcs	3, cr7, [r3, #-420]!	; 0xfffffe5c
    4d54:	366c5f3e 	uqasxcc	r5, ip, lr
    4d58:	625f6134 	subsvs	r6, pc, #52, 2
    4d5c:	305b6675 	subscc	r6, fp, r5, ror r6
    4d60:	203d205d 	eorscs	r2, sp, sp, asr r0
    4d64:	27305c27 	ldrcs	r5, [r0, -r7, lsr #24]!
    4d68:	725f203b 	subsvc	r2, pc, #59	; 0x3b
    4d6c:	6d5f3e2d 	ldclvs	14, cr3, [pc, #-180]	; 4cc0 <_Min_Stack_Size+0x48c0>
    4d70:	2d637369 	stclcs	3, cr7, [r3, #-420]!	; 0xfffffe5c
    4d74:	65675f3e 	strbvs	r5, [r7, #-3902]!	; 0xfffff0c2
    4d78:	74616474 	strbtvc	r6, [r1], #-1140	; 0xfffffb8c
    4d7c:	72655f65 	rsbvc	r5, r5, #404	; 0x194
    4d80:	203d2072 	eorscs	r2, sp, r2, ror r0
    4d84:	7d203b30 	vstmdbvc	r0!, {d3-d26}
    4d88:	69687720 	stmdbvs	r8!, {r5, r8, r9, sl, ip, sp, lr}^
    4d8c:	2820656c 	stmdacs	r0!, {r2, r3, r5, r6, r8, sl, sp, lr}
    4d90:	5f002930 	svcpl	0x00002930
    4d94:	4e4f4c5f 	mcrmi	12, 2, r4, cr15, cr15, {2}
    4d98:	4f4c5f47 	svcmi	0x004c5f47
    4d9c:	575f474e 	ldrbpl	r4, [pc, -lr, asr #14]
    4da0:	48544449 	ldmdami	r4, {r0, r3, r6, sl, lr}^
    4da4:	36205f5f 	qsaxcc	r5, r0, pc	; <UNPREDICTABLE>
    4da8:	58450034 	stmdapl	r5, {r2, r4, r5}^
    4dac:	5f324954 	svcpl	0x00324954
    4db0:	20515249 	subscs	r5, r1, r9, asr #4
    4db4:	49570038 	ldmdbmi	r7, {r3, r4, r5}^
    4db8:	4d5f544e 	cfldrdmi	mvd5, [pc, #-312]	; 4c88 <_Min_Stack_Size+0x4888>
    4dbc:	28205841 	stmdacs	r0!, {r0, r6, fp, ip, lr}
    4dc0:	49575f5f 	ldmdbmi	r7, {r0, r1, r2, r3, r4, r6, r8, r9, sl, fp, ip, lr}^
    4dc4:	4d5f544e 	cfldrdmi	mvd5, [pc, #-312]	; 4c94 <_Min_Stack_Size+0x4894>
    4dc8:	5f5f5841 	svcpl	0x005f5841
    4dcc:	50470029 	subpl	r0, r7, r9, lsr #32
    4dd0:	20444f49 	subcs	r4, r4, r9, asr #30
    4dd4:	50472828 	subpl	r2, r7, r8, lsr #16
    4dd8:	545f4f49 	ldrbpl	r4, [pc], #-3913	; 4de0 <_Min_Stack_Size+0x49e0>
    4ddc:	64657079 	strbtvs	r7, [r5], #-121	; 0xffffff87
    4de0:	745f6665 	ldrbvc	r6, [pc], #-1637	; 4de8 <_Min_Stack_Size+0x49e8>
    4de4:	47292a20 	strmi	r2, [r9, -r0, lsr #20]!
    4de8:	444f4950 	strbmi	r4, [pc], #-2384	; 4df0 <_Min_Stack_Size+0x49f0>
    4dec:	5341425f 	movtpl	r4, #4703	; 0x125f
    4df0:	5f002945 	svcpl	0x00002945
    4df4:	4e49555f 	mcrmi	5, 2, r5, cr9, cr15, {2}
    4df8:	41465f54 	cmpmi	r6, r4, asr pc
    4dfc:	34365453 	ldrtcc	r5, [r6], #-1107	; 0xfffffbad
    4e00:	58414d5f 	stmdapl	r1, {r0, r1, r2, r3, r4, r6, r8, sl, fp, lr}^
    4e04:	30205f5f 	eorcc	r5, r0, pc, asr pc
    4e08:	66666678 			; <UNDEFINED> instruction: 0x66666678
    4e0c:	66666666 	strbtvs	r6, [r6], -r6, ror #12
    4e10:	66666666 	strbtvs	r6, [r6], -r6, ror #12
    4e14:	66666666 	strbtvs	r6, [r6], -r6, ror #12
    4e18:	4c4c5566 	cfstr64mi	mvdx5, [ip], {102}	; 0x66
    4e1c:	415f5f00 	cmpmi	pc, r0, lsl #30
    4e20:	465f4d52 			; <UNDEFINED> instruction: 0x465f4d52
    4e24:	525f0050 	subspl	r0, pc, #80	; 0x50
    4e28:	544e4545 	strbpl	r4, [lr], #-1349	; 0xfffffabb
    4e2c:	4548435f 	strbmi	r4, [r8, #-863]	; 0xfffffca1
    4e30:	455f4b43 	ldrbmi	r4, [pc, #-2883]	; 42f5 <_Min_Stack_Size+0x3ef5>
    4e34:	4752454d 	ldrbmi	r4, [r2, -sp, asr #10]
    4e38:	59434e45 	stmdbpl	r3, {r0, r2, r6, r9, sl, fp, lr}^
    4e3c:	72617628 	rsbvc	r7, r1, #40, 12	; 0x2800000
    4e40:	525f2029 	subspl	r2, pc, #41	; 0x29
    4e44:	544e4545 	strbpl	r4, [lr], #-1349	; 0xfffffabb
    4e48:	4548435f 	strbmi	r4, [r8, #-863]	; 0xfffffca1
    4e4c:	76284b43 	strtvc	r4, [r8], -r3, asr #22
    4e50:	202c7261 	eorcs	r7, ip, r1, ror #4
    4e54:	656d655f 	strbvs	r6, [sp, #-1375]!	; 0xfffffaa1
    4e58:	6e656772 	mcrvs	7, 3, r6, cr5, cr2, {3}
    4e5c:	202c7963 	eorcs	r7, ip, r3, ror #18
    4e60:	72616863 	rsbvc	r6, r1, #6488064	; 0x630000
    4e64:	202c2a20 	eorcs	r2, ip, r0, lsr #20
    4e68:	4545525f 	strbmi	r5, [r5, #-607]	; 0xfffffda1
    4e6c:	455f544e 	ldrbmi	r5, [pc, #-1102]	; 4a26 <_Min_Stack_Size+0x4626>
    4e70:	4752454d 	ldrbmi	r4, [r2, -sp, asr #10]
    4e74:	59434e45 	stmdbpl	r3, {r0, r2, r6, r9, sl, fp, lr}^
    4e78:	5a49535f 	bpl	1259bfc <_Min_Stack_Size+0x12597fc>
    4e7c:	29202c45 	stmdbcs	r0!, {r0, r2, r6, sl, fp, sp}
    4e80:	415f5f00 	cmpmi	pc, r0, lsl #30
    4e84:	465f4d52 			; <UNDEFINED> instruction: 0x465f4d52
    4e88:	55544145 	ldrbpl	r4, [r4, #-325]	; 0xfffffebb
    4e8c:	445f4552 	ldrbmi	r4, [pc], #-1362	; 4e94 <_Min_Stack_Size+0x4a94>
    4e90:	5f005053 	svcpl	0x00005053
    4e94:	544e495f 	strbpl	r4, [lr], #-2399	; 0xfffff6a1
    4e98:	5f525450 	svcpl	0x00525450
    4e9c:	54444957 	strbpl	r4, [r4], #-2391	; 0xfffff6a9
    4ea0:	205f5f48 	subscs	r5, pc, r8, asr #30
    4ea4:	5f003233 	svcpl	0x00003233
    4ea8:	4e454552 	mcrmi	5, 2, r4, cr5, cr2, {2}
    4eac:	4e495f54 	mcrmi	15, 2, r5, cr9, cr4, {2}
    4eb0:	4d5f5449 	cfldrdmi	mvd5, [pc, #-292]	; 4d94 <_Min_Stack_Size+0x4994>
    4eb4:	61762850 	cmnvs	r6, r0, asr r8
    4eb8:	64202972 	strtvs	r2, [r0], #-2418	; 0xfffff68e
    4ebc:	207b206f 	rsbscs	r2, fp, pc, rrx
    4ec0:	75727473 	ldrbvc	r7, [r2, #-1139]!	; 0xfffffb8d
    4ec4:	5f207463 	svcpl	0x00207463
    4ec8:	6e656572 	mcrvs	5, 3, r6, cr5, cr2, {3}
    4ecc:	5f2a2074 	svcpl	0x002a2074
    4ed0:	203d2072 	eorscs	r2, sp, r2, ror r0
    4ed4:	72617628 	rsbvc	r7, r1, #40, 12	; 0x2800000
    4ed8:	5f203b29 	svcpl	0x00203b29
    4edc:	5f3e2d72 	svcpl	0x003e2d72
    4ee0:	3e2d706d 	cdpcc	0, 2, cr7, cr13, cr13, {3}
    4ee4:	7365725f 	cmnvc	r5, #-268435451	; 0xf0000005
    4ee8:	5f746c75 	svcpl	0x00746c75
    4eec:	203d206b 	eorscs	r2, sp, fp, rrx
    4ef0:	5f203b30 	svcpl	0x00203b30
    4ef4:	5f3e2d72 	svcpl	0x003e2d72
    4ef8:	3e2d706d 	cdpcc	0, 2, cr7, cr13, cr13, {3}
    4efc:	7365725f 	cmnvc	r5, #-268435451	; 0xf0000005
    4f00:	20746c75 	rsbscs	r6, r4, r5, ror ip
    4f04:	725f203d 	subsvc	r2, pc, #61	; 0x3d
    4f08:	6d5f3e2d 	ldclvs	14, cr3, [pc, #-180]	; 4e5c <_Min_Stack_Size+0x4a5c>
    4f0c:	5f3e2d70 	svcpl	0x003e2d70
    4f10:	20733570 	rsbscs	r3, r3, r0, ror r5
    4f14:	4e5f203d 	mrcmi	0, 2, r2, cr15, cr13, {1}
    4f18:	3b4c4c55 	blcc	1318074 <_Min_Stack_Size+0x1317c74>
    4f1c:	2d725f20 	ldclcs	15, cr5, [r2, #-128]!	; 0xffffff80
    4f20:	706d5f3e 	rsbvc	r5, sp, lr, lsr pc
    4f24:	665f3e2d 	ldrbvs	r3, [pc], -sp, lsr #28
    4f28:	6c656572 	cfstr64vs	mvdx6, [r5], #-456	; 0xfffffe38
    4f2c:	20747369 	rsbscs	r7, r4, r9, ror #6
    4f30:	4e5f203d 	mrcmi	0, 2, r2, cr15, cr13, {1}
    4f34:	3b4c4c55 	blcc	1318090 <_Min_Stack_Size+0x1317c90>
    4f38:	77207d20 	strvc	r7, [r0, -r0, lsr #26]!
    4f3c:	656c6968 	strbvs	r6, [ip, #-2408]!	; 0xfffff698
    4f40:	29302820 	ldmdbcs	r0!, {r5, fp, sp}
    4f44:	54584500 	ldrbpl	r4, [r8], #-1280	; 0xfffffb00
    4f48:	6e495f49 	cdpvs	15, 4, cr5, cr9, cr9, {2}
    4f4c:	4c747570 	cfldr64mi	mvdx7, [r4], #-448	; 0xfffffe40
    4f50:	4e656e69 	cdpmi	14, 6, cr6, cr5, cr9, {3}
    4f54:	65626d75 	strbvs	r6, [r2, #-3445]!	; 0xfffff28b
    4f58:	50470072 	subpl	r0, r7, r2, ror r0
    4f5c:	4d5f4f49 	ldclmi	15, cr4, [pc, #-292]	; 4e40 <_Min_Stack_Size+0x4a40>
    4f60:	5f45444f 	svcpl	0x0045444f
    4f64:	5054554f 	subspl	r5, r4, pc, asr #10
    4f68:	415f5455 	cmpmi	pc, r5, asr r4	; <UNPREDICTABLE>
    4f6c:	50505f46 	subspl	r5, r0, r6, asr #30
    4f70:	30783020 	rsbscc	r3, r8, r0, lsr #32
    4f74:	30303030 	eorscc	r3, r0, r0, lsr r0
    4f78:	00363030 	eorseq	r3, r6, r0, lsr r0
    4f7c:	4c465f5f 	mcrrmi	15, 5, r5, r6, cr15
    4f80:	58323354 	ldmdapl	r2!, {r2, r4, r6, r8, r9, ip, sp}
    4f84:	4e494d5f 	mcrmi	13, 2, r4, cr9, cr15, {2}
    4f88:	32205f5f 	eorcc	r5, r0, #380	; 0x17c
    4f8c:	3532322e 	ldrcc	r3, [r2, #-558]!	; 0xfffffdd2
    4f90:	38333730 	ldmdacc	r3!, {r4, r5, r8, r9, sl, ip, sp}
    4f94:	30353835 	eorscc	r3, r5, r5, lsr r8
    4f98:	31303237 	teqcc	r0, r7, lsr r2
    4f9c:	332d6534 			; <UNDEFINED> instruction: 0x332d6534
    4fa0:	33463830 	movtcc	r3, #26672	; 0x6830
    4fa4:	5f007832 	svcpl	0x00007832
    4fa8:	4e454552 	mcrmi	5, 2, r4, cr5, cr2, {2}
    4fac:	41525f54 	cmpmi	r2, r4, asr pc
    4fb0:	3834444e 	ldmdacc	r4!, {r1, r2, r3, r6, sl, lr}
    4fb4:	4c554d5f 	mrrcmi	13, 5, r4, r5, cr15
    4fb8:	74702854 	ldrbtvc	r2, [r0], #-2132	; 0xfffff7ac
    4fbc:	28202972 	stmdacs	r0!, {r1, r4, r5, r6, r8, fp, sp}
    4fc0:	72747028 	rsbsvc	r7, r4, #40	; 0x28
    4fc4:	5f3e2d29 	svcpl	0x003e2d29
    4fc8:	2d383472 	cfldrscs	mvf3, [r8, #-456]!	; 0xfffffe38
    4fcc:	756d5f3e 	strbvc	r5, [sp, #-3902]!	; 0xfffff0c2
    4fd0:	0029746c 	eoreq	r7, r9, ip, ror #8
    4fd4:	4c465f5f 	mcrrmi	15, 5, r5, r6, cr15
    4fd8:	5f343654 	svcpl	0x00343654
    4fdc:	5f58414d 	svcpl	0x0058414d
    4fe0:	5f505845 	svcpl	0x00505845
    4fe4:	3031205f 	eorscc	r2, r1, pc, asr r0
    4fe8:	5f003432 	svcpl	0x00003432
    4fec:	4843575f 	stmdami	r3, {r0, r1, r2, r3, r4, r6, r8, r9, sl, ip, lr}^
    4ff0:	545f5241 	ldrbpl	r5, [pc], #-577	; 4ff8 <_Min_Stack_Size+0x4bf8>
    4ff4:	424d0020 	submi	r0, sp, #32
    4ff8:	5255435f 	subspl	r4, r5, #2080374785	; 0x7c000001
    4ffc:	58414d5f 	stmdapl	r1, {r0, r1, r2, r3, r4, r6, r8, sl, fp, lr}^
    5000:	6c5f5f20 	mrrcvs	15, 2, r5, pc, cr0	; <UNPREDICTABLE>
    5004:	6c61636f 	stclvs	3, cr6, [r1], #-444	; 0xfffffe44
    5008:	626d5f65 	rsbvs	r5, sp, #404	; 0x194
    500c:	7275635f 	rsbsvc	r6, r5, #2080374785	; 0x7c000001
    5010:	78616d5f 	stmdavc	r1!, {r0, r1, r2, r3, r4, r6, r8, sl, fp, sp, lr}^
    5014:	5f002928 	svcpl	0x00002928
    5018:	544c465f 	strbpl	r4, [ip], #-1631	; 0xfffff9a1
    501c:	4d5f3436 	cfldrdmi	mvd3, [pc, #-216]	; 4f4c <_Min_Stack_Size+0x4b4c>
    5020:	5f5f4e49 	svcpl	0x005f4e49
    5024:	322e3220 	eorcc	r3, lr, #32, 4
    5028:	37303532 			; <UNDEFINED> instruction: 0x37303532
    502c:	38353833 	ldmdacc	r5!, {r0, r1, r4, r5, fp, ip, sp}
    5030:	32373035 	eorscc	r3, r7, #53	; 0x35
    5034:	65343130 	ldrvs	r3, [r4, #-304]!	; 0xfffffed0
    5038:	3830332d 	ldmdacc	r0!, {r0, r2, r3, r5, r8, r9, ip, sp}
    503c:	00343646 	eorseq	r3, r4, r6, asr #12
    5040:	695f5f5f 	ldmdbvs	pc, {r0, r1, r2, r3, r4, r6, r8, r9, sl, fp, ip, lr}^	; <UNPREDICTABLE>
    5044:	3233746e 	eorscc	r7, r3, #1845493760	; 0x6e000000
    5048:	645f745f 	ldrbvs	r7, [pc], #-1119	; 5050 <_Min_Stack_Size+0x4c50>
    504c:	6e696665 	cdpvs	6, 6, cr6, cr9, cr5, {3}
    5050:	31206465 			; <UNDEFINED> instruction: 0x31206465
    5054:	42504100 	subsmi	r4, r0, #0, 2
    5058:	54535232 	ldrbpl	r5, [r3], #-562	; 0xfffffdce
    505c:	50470052 	subpl	r0, r7, r2, asr r0
    5060:	505f4f49 	subspl	r4, pc, r9, asr #30
    5064:	385f4e49 	ldmdacc	pc, {r0, r3, r6, r9, sl, fp, lr}^	; <UNPREDICTABLE>
    5068:	75282820 	strvc	r2, [r8, #-2080]!	; 0xfffff7e0
    506c:	31746e69 	cmncc	r4, r9, ror #28
    5070:	29745f36 	ldmdbcs	r4!, {r1, r2, r4, r5, r8, r9, sl, fp, ip, lr}^
    5074:	30783020 	rsbscc	r3, r8, r0, lsr #32
    5078:	29303031 	ldmdbcs	r0!, {r0, r4, r5, ip, sp}
    507c:	465f5f00 	ldrbmi	r5, [pc], -r0, lsl #30
    5080:	4d5f544c 	cfldrdmi	mvd5, [pc, #-304]	; 4f58 <_Min_Stack_Size+0x4b58>
    5084:	455f4e49 	ldrbmi	r4, [pc, #-3657]	; 4243 <_Min_Stack_Size+0x3e43>
    5088:	5f5f5058 	svcpl	0x005f5058
    508c:	312d2820 			; <UNDEFINED> instruction: 0x312d2820
    5090:	00293532 	eoreq	r3, r9, r2, lsr r5
    5094:	52415f5f 	subpl	r5, r1, #380	; 0x17c
    5098:	52415f4d 	subpl	r5, r1, #308	; 0x134
    509c:	505f4843 	subspl	r4, pc, r3, asr #16
    50a0:	49464f52 	stmdbmi	r6, {r1, r4, r6, r8, r9, sl, fp, lr}^
    50a4:	5f00454c 	svcpl	0x0000454c
    50a8:	544e495f 	strbpl	r4, [lr], #-2399	; 0xfffff6a1
    50ac:	545f3436 	ldrbpl	r3, [pc], #-1078	; 50b4 <_Min_Stack_Size+0x4cb4>
    50b0:	5f455059 	svcpl	0x00455059
    50b4:	6f6c205f 	svcvs	0x006c205f
    50b8:	6c20676e 	stcvs	7, cr6, [r0], #-440	; 0xfffffe48
    50bc:	20676e6f 	rsbcs	r6, r7, pc, ror #28
    50c0:	00746e69 	rsbseq	r6, r4, r9, ror #28
    50c4:	464c5f5f 			; <UNDEFINED> instruction: 0x464c5f5f
    50c8:	54434152 	strbpl	r4, [r3], #-338	; 0xfffffeae
    50cc:	4942465f 	stmdbmi	r2, {r0, r1, r2, r3, r4, r6, r9, sl, lr}^
    50d0:	205f5f54 	subscs	r5, pc, r4, asr pc	; <UNPREDICTABLE>
    50d4:	5f003133 	svcpl	0x00003133
    50d8:	4148435f 	cmpmi	r8, pc, asr r3
    50dc:	49425f52 	stmdbmi	r2, {r1, r4, r6, r8, r9, sl, fp, ip, lr}^
    50e0:	205f5f54 	subscs	r5, pc, r4, asr pc	; <UNPREDICTABLE>
    50e4:	58450038 	stmdapl	r5, {r3, r4, r5}^
    50e8:	505f4954 	subspl	r4, pc, r4, asr r9	; <UNPREDICTABLE>
    50ec:	5f004e49 	svcpl	0x00004e49
    50f0:	4453425f 	ldrbmi	r4, [r3], #-607	; 0xfffffda1
    50f4:	5349565f 	movtpl	r5, #38495	; 0x965f
    50f8:	454c4249 	strbmi	r4, [ip, #-585]	; 0xfffffdb7
    50fc:	49003120 	stmdbmi	r0, {r5, r8, ip, sp}
    5100:	4c5f544e 	cfldrdmi	mvd5, [pc], {78}	; 0x4e
    5104:	54534145 	ldrbpl	r4, [r3], #-325	; 0xfffffebb
    5108:	4d5f3631 	ldclmi	6, cr3, [pc, #-196]	; 504c <_Min_Stack_Size+0x4c4c>
    510c:	28204e49 	stmdacs	r0!, {r0, r3, r6, r9, sl, fp, lr}
    5110:	495f5f2d 	ldmdbmi	pc, {r0, r2, r3, r5, r8, r9, sl, fp, ip, lr}^	; <UNPREDICTABLE>
    5114:	4c5f544e 	cfldrdmi	mvd5, [pc], {78}	; 0x4e
    5118:	54534145 	ldrbpl	r4, [r3], #-325	; 0xfffffebb
    511c:	4d5f3631 	ldclmi	6, cr3, [pc, #-196]	; 5060 <_Min_Stack_Size+0x4c60>
    5120:	5f5f5841 	svcpl	0x005f5841
    5124:	31202d20 			; <UNDEFINED> instruction: 0x31202d20
    5128:	5f5f0029 	svcpl	0x005f0029
    512c:	73756e75 	cmnvc	r5, #1872	; 0x750
    5130:	5f206465 	svcpl	0x00206465
    5134:	7474615f 	ldrbtvc	r6, [r4], #-351	; 0xfffffea1
    5138:	75626972 	strbvc	r6, [r2, #-2418]!	; 0xfffff68e
    513c:	5f5f6574 	svcpl	0x005f6574
    5140:	5f5f2828 	svcpl	0x005f2828
    5144:	73756e75 	cmnvc	r5, #1872	; 0x750
    5148:	5f5f6465 	svcpl	0x005f6465
    514c:	5f002929 	svcpl	0x00002929
    5150:	5353415f 	cmppl	r3, #-1073741801	; 0xc0000017
    5154:	5f545245 	svcpl	0x00545245
    5158:	434e5546 	movtmi	r5, #58694	; 0xe546
    515c:	665f5f20 	ldrbvs	r5, [pc], -r0, lsr #30
    5160:	5f636e75 	svcpl	0x00636e75
    5164:	5355005f 	cmppl	r5, #95	; 0x5f
    5168:	32545241 	subscc	r5, r4, #268435460	; 0x10000004
    516c:	5152495f 	cmppl	r2, pc, asr r9
    5170:	00383320 	eorseq	r3, r8, r0, lsr #6
    5174:	46555f5f 	usaxmi	r5, r5, pc	; <UNPREDICTABLE>
    5178:	54434152 	strbpl	r4, [r3], #-338	; 0xfffffeae
    517c:	58414d5f 	stmdapl	r1, {r0, r1, r2, r3, r4, r6, r8, sl, fp, lr}^
    5180:	30205f5f 	eorcc	r5, r0, pc, asr pc
    5184:	46464658 			; <UNDEFINED> instruction: 0x46464658
    5188:	312d5046 			; <UNDEFINED> instruction: 0x312d5046
    518c:	00525536 	subseq	r5, r2, r6, lsr r5
    5190:	695f5f5f 	ldmdbvs	pc, {r0, r1, r2, r3, r4, r6, r8, r9, sl, fp, ip, lr}^	; <UNPREDICTABLE>
    5194:	6c5f746e 	cfldrdvs	mvd7, [pc], {110}	; 0x6e
    5198:	74736165 	ldrbtvc	r6, [r3], #-357	; 0xfffffe9b
    519c:	745f3436 	ldrbvc	r3, [pc], #-1078	; 51a4 <_Min_Stack_Size+0x4da4>
    51a0:	6665645f 			; <UNDEFINED> instruction: 0x6665645f
    51a4:	64656e69 	strbtvs	r6, [r5], #-3689	; 0xfffff197
    51a8:	45003120 	strmi	r3, [r0, #-288]	; 0xfffffee0
    51ac:	31495458 	cmpcc	r9, r8, asr r4
    51b0:	31435030 	cmpcc	r3, r0, lsr r0
    51b4:	45282030 	strmi	r2, [r8, #-48]!	; 0xffffffd0
    51b8:	5f495458 	svcpl	0x00495458
    51bc:	4f495047 	svcmi	0x00495047
    51c0:	70614d5f 	rsbvc	r4, r1, pc, asr sp
    51c4:	676e6970 			; <UNDEFINED> instruction: 0x676e6970
    51c8:	7b29745f 	blvc	a6234c <_Min_Stack_Size+0xa61f4c>
    51cc:	49545845 	ldmdbmi	r4, {r0, r2, r6, fp, ip, lr}^
    51d0:	202c3031 	eorcs	r3, ip, r1, lsr r0
    51d4:	4f495047 	svcmi	0x00495047
    51d8:	47202c43 	strmi	r2, [r0, -r3, asr #24]!
    51dc:	5f4f4950 	svcpl	0x004f4950
    51e0:	5f4e4950 	svcpl	0x004e4950
    51e4:	202c3031 	eorcs	r3, ip, r1, lsr r0
    51e8:	49545845 	ldmdbmi	r4, {r0, r2, r6, fp, ip, lr}^
    51ec:	495f3031 	ldmdbmi	pc, {r0, r4, r5, ip, sp}^	; <UNPREDICTABLE>
    51f0:	007d5152 	rsbseq	r5, sp, r2, asr r1
    51f4:	4e41575f 	mcrmi	7, 2, r5, cr1, cr15, {2}
    51f8:	45525f54 	ldrbmi	r5, [r2, #-3924]	; 0xfffff0ac
    51fc:	5f544e45 	svcpl	0x00544e45
    5200:	4c414d53 	mcrrmi	13, 5, r4, r1, cr3
    5204:	0031204c 	eorseq	r2, r1, ip, asr #32
    5208:	48545f5f 	ldmdami	r4, {r0, r1, r2, r3, r4, r6, r8, r9, sl, fp, ip, lr}^
    520c:	20574f52 	subscs	r4, r7, r2, asr pc
    5210:	45525f00 	ldrbmi	r5, [r2, #-3840]	; 0xfffff100
    5214:	5f544e45 	svcpl	0x00544e45
    5218:	43454843 	movtmi	r4, #22595	; 0x5843
    521c:	504d5f4b 	subpl	r5, sp, fp, asr #30
    5220:	72617628 	rsbvc	r7, r1, #40, 12	; 0x2800000
    5224:	525f2029 	subspl	r2, pc, #41	; 0x29
    5228:	544e4545 	strbpl	r4, [lr], #-1349	; 0xfffffabb
    522c:	4548435f 	strbmi	r4, [r8, #-863]	; 0xfffffca1
    5230:	76284b43 	strtvc	r4, [r8], -r3, asr #22
    5234:	202c7261 	eorcs	r7, ip, r1, ror #4
    5238:	2c706d5f 	ldclcs	13, cr6, [r0], #-380	; 0xfffffe84
    523c:	72747320 	rsbsvc	r7, r4, #32, 6	; 0x80000000
    5240:	20746375 	rsbscs	r6, r4, r5, ror r3
    5244:	72706d5f 	rsbsvc	r6, r0, #6080	; 0x17c0
    5248:	2a206365 	bcs	81dfe4 <_Min_Stack_Size+0x81dbe4>
    524c:	6973202c 	ldmdbvs	r3!, {r2, r3, r5, sp}^
    5250:	666f657a 			; <UNDEFINED> instruction: 0x666f657a
    5254:	28282a20 	stmdacs	r8!, {r5, r9, fp, sp}
    5258:	29726176 	ldmdbcs	r2!, {r1, r2, r4, r5, r6, r8, sp, lr}^
    525c:	6d5f3e2d 	ldclvs	14, cr3, [pc, #-180]	; 51b0 <_Min_Stack_Size+0x4db0>
    5260:	202c2970 	eorcs	r2, ip, r0, ror r9
    5264:	4545525f 	strbmi	r5, [r5, #-607]	; 0xfffffda1
    5268:	495f544e 	ldmdbmi	pc, {r1, r2, r3, r6, sl, ip, lr}^	; <UNPREDICTABLE>
    526c:	5f54494e 	svcpl	0x0054494e
    5270:	7628504d 	strtvc	r5, [r8], -sp, asr #32
    5274:	29297261 	stmdbcs	r9!, {r0, r5, r6, r9, ip, sp, lr}
    5278:	535f5f00 	cmppl	pc, #0, 30
    527c:	43415246 	movtmi	r5, #4678	; 0x1246
    5280:	42495f54 	submi	r5, r9, #84, 30	; 0x150
    5284:	5f5f5449 	svcpl	0x005f5449
    5288:	4e003020 	cdpmi	0, 0, cr3, cr0, cr0, {1}
    528c:	5f434956 	svcpl	0x00434956
    5290:	49545845 	ldmdbmi	r4, {r0, r2, r6, fp, ip, lr}^
    5294:	52495f33 	subpl	r5, r9, #51, 30	; 0xcc
    5298:	69445f51 	stmdbvs	r4, {r0, r4, r6, r8, r9, sl, fp, ip, lr}^
    529c:	6c626173 	stfvse	f6, [r2], #-460	; 0xfffffe34
    52a0:	4e282065 	cdpmi	0, 2, cr2, cr8, cr5, {3}
    52a4:	5f434956 	svcpl	0x00434956
    52a8:	52454349 	subpl	r4, r5, #603979777	; 0x24000001
    52ac:	3d7c2030 	ldclcc	0, cr2, [ip, #-192]!	; 0xffffff40
    52b0:	3c3c3120 	ldfccs	f3, [ip], #-128	; 0xffffff80
    52b4:	5f002939 	svcpl	0x00002939
    52b8:	49465441 	stmdbmi	r6, {r0, r6, sl, ip, lr}^
    52bc:	535f454c 	cmppl	pc, #76, 10	; 0x13000000
    52c0:	4352554f 	cmpmi	r2, #331350016	; 0x13c00000
    52c4:	00312045 	eorseq	r2, r1, r5, asr #32
    52c8:	54535f5f 	ldrbpl	r5, [r3], #-3935	; 0xfffff0a1
    52cc:	544e4944 	strbpl	r4, [lr], #-2372	; 0xfffff6bc
    52d0:	5058455f 	subspl	r4, r8, pc, asr r5
    52d4:	20297828 	eorcs	r7, r9, r8, lsr #16
    52d8:	23205f5f 			; <UNDEFINED> instruction: 0x23205f5f
    52dc:	23207823 			; <UNDEFINED> instruction: 0x23207823
    52e0:	005f5f23 	subseq	r5, pc, r3, lsr #30
    52e4:	58455f5f 	stmdapl	r5, {r0, r1, r2, r3, r4, r6, r8, r9, sl, fp, ip, lr}^
    52e8:	29782850 	ldmdbcs	r8!, {r4, r6, fp, sp}^
    52ec:	205f5f20 	subscs	r5, pc, r0, lsr #30
    52f0:	20782323 	rsbscs	r2, r8, r3, lsr #6
    52f4:	5f5f2323 	svcpl	0x005f2323
    52f8:	425f5f00 	subsmi	r5, pc, #0, 30
    52fc:	5f455459 	svcpl	0x00455459
    5300:	4544524f 	strbmi	r5, [r4, #-591]	; 0xfffffdb1
    5304:	205f5f52 	subscs	r5, pc, r2, asr pc	; <UNPREDICTABLE>
    5308:	524f5f5f 	subpl	r5, pc, #380	; 0x17c
    530c:	5f524544 	svcpl	0x00524544
    5310:	5454494c 	ldrbpl	r4, [r4], #-2380	; 0xfffff6b4
    5314:	455f454c 	ldrbmi	r4, [pc, #-1356]	; 4dd0 <_Min_Stack_Size+0x49d0>
    5318:	4149444e 	cmpmi	r9, lr, asr #8
    531c:	005f5f4e 	subseq	r5, pc, lr, asr #30
    5320:	4c465f5f 	mcrrmi	15, 5, r5, r6, cr15
    5324:	5f323354 	svcpl	0x00323354
    5328:	49535045 	ldmdbmi	r3, {r0, r2, r6, ip, lr}^
    532c:	5f4e4f4c 	svcpl	0x004e4f4c
    5330:	2e31205f 	mrccs	0, 1, r2, cr1, cr15, {2}
    5334:	30323931 	eorscc	r3, r2, r1, lsr r9
    5338:	39383239 	ldmdbcc	r8!, {r0, r3, r4, r5, r9, ip, sp}
    533c:	37303535 			; <UNDEFINED> instruction: 0x37303535
    5340:	35323138 	ldrcc	r3, [r2, #-312]!	; 0xfffffec8
    5344:	46372d65 	ldrtmi	r2, [r7], -r5, ror #26
    5348:	5f003233 	svcpl	0x00003233
    534c:	4d52415f 	ldfmie	f4, [r2, #-380]	; 0xfffffe84
    5350:	4f454e5f 	svcmi	0x00454e5f
    5354:	50465f4e 	subpl	r5, r6, lr, asr #30
    5358:	4f4e5f00 	svcmi	0x004e5f00
    535c:	4f524854 	svcmi	0x00524854
    5360:	5f002057 	svcpl	0x00002057
    5364:	49534e41 	ldmdbmi	r3, {r0, r6, r9, sl, fp, lr}^
    5368:	4c434544 	cfstr64mi	mvdx4, [r3], {68}	; 0x44
    536c:	205f485f 	subscs	r4, pc, pc, asr r8	; <UNPREDICTABLE>
    5370:	54584500 	ldrbpl	r4, [r8], #-1280	; 0xfffffb00
    5374:	5f303149 	svcpl	0x00303149
    5378:	20515249 	subscs	r5, r1, r9, asr #4
    537c:	52003034 	andpl	r3, r0, #52	; 0x34
    5380:	535f4343 	cmppl	pc, #201326593	; 0xc000001
    5384:	5f314950 	svcpl	0x00314950
    5388:	5f4b4c43 	svcpl	0x004b4c43
    538c:	29284e45 	stmdbcs	r8!, {r0, r2, r6, r9, sl, fp, lr}
    5390:	43522820 	cmpmi	r2, #32, 16	; 0x200000
    5394:	413e2d43 	teqmi	lr, r3, asr #26
    5398:	45324250 	ldrmi	r4, [r2, #-592]!	; 0xfffffdb0
    539c:	7c20524e 	sfmvc	f5, 4, [r0], #-312	; 0xfffffec8
    53a0:	3128203d 			; <UNDEFINED> instruction: 0x3128203d
    53a4:	32313c3c 	eorscc	r3, r1, #60, 24	; 0x3c00
    53a8:	53002929 	movwpl	r2, #2345	; 0x929
    53ac:	5f314950 	svcpl	0x00314950
    53b0:	45534142 	ldrbmi	r4, [r3, #-322]	; 0xfffffebe
    53b4:	34783020 	ldrbtcc	r3, [r8], #-32	; 0xffffffe0
    53b8:	33313030 	teqcc	r1, #48	; 0x30
    53bc:	75303030 	ldrvc	r3, [r0, #-48]!	; 0xffffffd0
    53c0:	505f5f00 	subspl	r5, pc, r0, lsl #30
    53c4:	5849534f 	stmdapl	r9, {r0, r1, r2, r3, r6, r8, r9, ip, lr}^
    53c8:	5349565f 	movtpl	r5, #38495	; 0x965f
    53cc:	454c4249 	strbmi	r4, [ip, #-585]	; 0xfffffdb7
    53d0:	30303220 	eorscc	r3, r0, r0, lsr #4
    53d4:	00393038 	eorseq	r3, r9, r8, lsr r0
    53d8:	49545845 	ldmdbmi	r4, {r0, r2, r6, fp, ip, lr}^
    53dc:	495f3431 	ldmdbmi	pc, {r0, r4, r5, sl, ip, sp}^	; <UNPREDICTABLE>
    53e0:	34205152 	strtcc	r5, [r0], #-338	; 0xfffffeae
    53e4:	58450030 	stmdapl	r5, {r4, r5}^
    53e8:	20314954 	eorscs	r4, r1, r4, asr r9
    53ec:	5f5f0031 	svcpl	0x005f0031
    53f0:	41524655 	cmpmi	r2, r5, asr r6
    53f4:	465f5443 	ldrbmi	r5, [pc], -r3, asr #8
    53f8:	5f544942 	svcpl	0x00544942
    53fc:	3631205f 			; <UNDEFINED> instruction: 0x3631205f
    5400:	555f5f00 	ldrbpl	r5, [pc, #-3840]	; 4508 <_Min_Stack_Size+0x4108>
    5404:	465f5144 	ldrbmi	r5, [pc], -r4, asr #2
    5408:	5f544942 	svcpl	0x00544942
    540c:	3436205f 	ldrtcc	r2, [r6], #-95	; 0xffffffa1
    5410:	445f5f00 	ldrbmi	r5, [pc], #-3840	; 5418 <_Min_Stack_Size+0x5018>
    5414:	4e5f4c42 	cdpmi	12, 5, cr4, cr15, cr2, {2}
    5418:	5f4d524f 	svcpl	0x004d524f
    541c:	5f58414d 	svcpl	0x0058414d
    5420:	2828205f 	stmdacs	r8!, {r0, r1, r2, r3, r4, r6, sp}
    5424:	62756f64 	rsbsvs	r6, r5, #100, 30	; 0x190
    5428:	3129656c 			; <UNDEFINED> instruction: 0x3129656c
    542c:	3739372e 	ldrcc	r3, [r9, -lr, lsr #14]!
    5430:	31333936 	teqcc	r3, r6, lsr r9
    5434:	36383433 			; <UNDEFINED> instruction: 0x36383433
    5438:	35313332 	ldrcc	r3, [r1, #-818]!	; 0xfffffcce
    543c:	332b6537 			; <UNDEFINED> instruction: 0x332b6537
    5440:	294c3830 	stmdbcs	ip, {r4, r5, fp, ip, sp}^
    5444:	475f5f00 	ldrbmi	r5, [pc, -r0, lsl #30]
    5448:	4c43554e 	cfstr64mi	mvdx5, [r3], {78}	; 0x4e
    544c:	5f454b49 	svcpl	0x00454b49
    5450:	4c495542 	cfstr64mi	mvdx5, [r9], {66}	; 0x42
    5454:	5f4e4954 	svcpl	0x004e4954
    5458:	434d454d 	movtmi	r4, #54605	; 0xd54d
    545c:	31205950 			; <UNDEFINED> instruction: 0x31205950
    5460:	61634d00 	cmnvs	r3, r0, lsl #26
    5464:	58455f6c 	stmdapl	r5, {r2, r3, r5, r6, r8, r9, sl, fp, ip, lr}^
    5468:	475f4954 			; <UNDEFINED> instruction: 0x475f4954
    546c:	5f4f4950 	svcpl	0x004f4950
    5470:	74696e69 	strbtvc	r6, [r9], #-3689	; 0xfffff197
    5474:	4c5f5f00 	mrrcmi	15, 0, r5, pc, cr0	; <UNPREDICTABLE>
    5478:	5f4c4244 	svcpl	0x004c4244
    547c:	5f58414d 	svcpl	0x0058414d
    5480:	455f3031 	ldrbmi	r3, [pc, #-49]	; 5457 <_Min_Stack_Size+0x5057>
    5484:	5f5f5058 	svcpl	0x005f5058
    5488:	38303320 	ldmdacc	r0!, {r5, r8, r9, ip, sp}
    548c:	45525f00 	ldrbmi	r5, [r2, #-3840]	; 0xfffff100
    5490:	5f544e45 	svcpl	0x00544e45
    5494:	4c52424d 	lfmmi	f4, 2, [r2], {77}	; 0x4d
    5498:	535f4e45 	cmppl	pc, #1104	; 0x450
    549c:	45544154 	ldrbmi	r4, [r4, #-340]	; 0xfffffeac
    54a0:	72747028 	rsbsvc	r7, r4, #40	; 0x28
    54a4:	28282029 	stmdacs	r8!, {r0, r3, r5, sp}
    54a8:	29727470 	ldmdbcs	r2!, {r4, r5, r6, sl, ip, sp, lr}^
    54ac:	6d5f3e2d 	ldclvs	14, cr3, [pc, #-180]	; 5400 <_Min_Stack_Size+0x5000>
    54b0:	2d637369 	stclcs	3, cr7, [r3, #-420]!	; 0xfffffe5c
    54b4:	626d5f3e 	rsbvs	r5, sp, #62, 30	; 0xf8
    54b8:	6e656c72 	mcrvs	12, 3, r6, cr5, cr2, {3}
    54bc:	6174735f 	cmnvs	r4, pc, asr r3
    54c0:	00296574 	eoreq	r6, r9, r4, ror r5
    54c4:	49545845 	ldmdbmi	r4, {r0, r2, r6, fp, ip, lr}^
    54c8:	38415038 	stmdacc	r1, {r3, r4, r5, ip, lr}^
    54cc:	58452820 	stmdapl	r5, {r5, fp, sp}^
    54d0:	475f4954 			; <UNDEFINED> instruction: 0x475f4954
    54d4:	5f4f4950 	svcpl	0x004f4950
    54d8:	7070614d 	rsbsvc	r6, r0, sp, asr #2
    54dc:	5f676e69 	svcpl	0x00676e69
    54e0:	457b2974 	ldrbmi	r2, [fp, #-2420]!	; 0xfffff68c
    54e4:	38495458 	stmdacc	r9, {r3, r4, r6, sl, ip, lr}^
    54e8:	5047202c 	subpl	r2, r7, ip, lsr #32
    54ec:	2c414f49 	mcrrcs	15, 4, r4, r1, cr9
    54f0:	49504720 	ldmdbmi	r0, {r5, r8, r9, sl, lr}^
    54f4:	49505f4f 	ldmdbmi	r0, {r0, r1, r2, r3, r6, r8, r9, sl, fp, ip, lr}^
    54f8:	2c385f4e 	ldccs	15, cr5, [r8], #-312	; 0xfffffec8
    54fc:	54584520 	ldrbpl	r4, [r8], #-1312	; 0xfffffae0
    5500:	495f3849 	ldmdbmi	pc, {r0, r3, r6, fp, ip, sp}^	; <UNPREDICTABLE>
    5504:	007d5152 	rsbseq	r5, sp, r2, asr r1
    5508:	42445f5f 	submi	r5, r4, #380	; 0x17c
    550c:	45445f4c 	strbmi	r5, [r4, #-3916]	; 0xfffff0b4
    5510:	4d524f4e 	ldclmi	15, cr4, [r2, #-312]	; 0xfffffec8
    5514:	4e494d5f 	mcrmi	13, 2, r4, cr9, cr15, {2}
    5518:	28205f5f 	stmdacs	r0!, {r0, r1, r2, r3, r4, r6, r8, r9, sl, fp, ip, lr}
    551c:	756f6428 	strbvc	r6, [pc, #-1064]!	; 50fc <_Min_Stack_Size+0x4cfc>
    5520:	29656c62 	stmdbcs	r5!, {r1, r5, r6, sl, fp, sp, lr}^
    5524:	34392e34 	ldrtcc	r2, [r9], #-3636	; 0xfffff1cc
    5528:	36353630 			; <UNDEFINED> instruction: 0x36353630
    552c:	34383534 	ldrtcc	r3, [r8], #-1332	; 0xfffffacc
    5530:	36343231 			; <UNDEFINED> instruction: 0x36343231
    5534:	2d653435 	cfstrdcs	mvd3, [r5, #-212]!	; 0xffffff2c
    5538:	4c343233 	lfmmi	f3, 4, [r4], #-204	; 0xffffff34
    553c:	49540029 	ldmdbmi	r4, {r0, r3, r5}^
    5540:	425f344d 	subsmi	r3, pc, #1291845632	; 0x4d000000
    5544:	20455341 	subcs	r5, r5, r1, asr #6
    5548:	30347830 	eorscc	r7, r4, r0, lsr r8
    554c:	38303030 	ldmdacc	r0!, {r4, r5, ip, sp}
    5550:	00753030 	rsbseq	r3, r5, r0, lsr r0
    5554:	4e495f5f 	mcrmi	15, 2, r5, cr9, cr15, {2}
    5558:	41465f54 	cmpmi	r6, r4, asr pc
    555c:	32335453 	eorscc	r5, r3, #1392508928	; 0x53000000
    5560:	5059545f 	subspl	r5, r9, pc, asr r4
    5564:	205f5f45 	subscs	r5, pc, r5, asr #30
    5568:	00746e69 	rsbseq	r6, r4, r9, ror #28
    556c:	4f495047 	svcmi	0x00495047
    5570:	7079545f 	rsbsvc	r5, r9, pc, asr r4
    5574:	66656465 	strbtvs	r6, [r5], -r5, ror #8
    5578:	5300745f 	movwpl	r7, #1119	; 0x45f
    557c:	32334d54 	eorscc	r4, r3, #84, 26	; 0x1500
    5580:	33303146 	teqcc	r0, #-2147483631	; 0x80000011
    5584:	78543643 	ldmdavc	r4, {r0, r1, r6, r9, sl, ip, sp}^
    5588:	45003120 	strmi	r3, [r0, #-288]	; 0xfffffee0
    558c:	36495458 			; <UNDEFINED> instruction: 0x36495458
    5590:	5f003620 	svcpl	0x00003620
    5594:	57454e5f 	smlsldpl	r4, r5, pc, lr	; <UNPREDICTABLE>
    5598:	5f42494c 	svcpl	0x0042494c
    559c:	4f4e494d 	svcmi	0x004e494d
    55a0:	205f5f52 	subscs	r5, pc, r2, asr pc	; <UNPREDICTABLE>
    55a4:	58450031 	stmdapl	r5, {r0, r4, r5}^
    55a8:	5f354954 	svcpl	0x00354954
    55ac:	20515249 	subscs	r5, r1, r9, asr #4
    55b0:	5f003332 	svcpl	0x00003332
    55b4:	455a4953 	ldrbmi	r4, [sl, #-2387]	; 0xfffff6ad
    55b8:	00205f54 	eoreq	r5, r0, r4, asr pc
    55bc:	4c465f5f 	mcrrmi	15, 5, r5, r6, cr15
    55c0:	5f343654 	svcpl	0x00343654
    55c4:	5f534148 	svcpl	0x00534148
    55c8:	45495551 	strbmi	r5, [r9, #-1361]	; 0xfffffaaf
    55cc:	414e5f54 	cmpmi	lr, r4, asr pc
    55d0:	205f5f4e 	subscs	r5, pc, lr, asr #30
    55d4:	49550031 	ldmdbmi	r5, {r0, r4, r5}^
    55d8:	3233544e 	eorscc	r5, r3, #1308622848	; 0x4e000000
    55dc:	7828435f 	stmdavc	r8!, {r0, r1, r2, r3, r4, r6, r8, r9, lr}
    55e0:	5f5f2029 	svcpl	0x005f2029
    55e4:	544e4955 	strbpl	r4, [lr], #-2389	; 0xfffff6ab
    55e8:	435f3233 	cmpmi	pc, #805306371	; 0x30000003
    55ec:	00297828 	eoreq	r7, r9, r8, lsr #16
    55f0:	53555f5f 	cmppl	r5, #380	; 0x17c
    55f4:	55434341 	strbpl	r4, [r3, #-833]	; 0xfffffcbf
    55f8:	42495f4d 	submi	r5, r9, #308	; 0x134
    55fc:	5f5f5449 	svcpl	0x005f5449
    5600:	49003820 	stmdbmi	r0, {r5, fp, ip, sp}
    5604:	465f544e 	ldrbmi	r5, [pc], -lr, asr #8
    5608:	38545341 	ldmdacc	r4, {r0, r6, r8, r9, ip, lr}^
    560c:	4e494d5f 	mcrmi	13, 2, r4, cr9, cr15, {2}
    5610:	5f2d2820 	svcpl	0x002d2820
    5614:	544e495f 	strbpl	r4, [lr], #-2399	; 0xfffff6a1
    5618:	5341465f 	movtpl	r4, #5727	; 0x165f
    561c:	4d5f3854 	ldclmi	8, cr3, [pc, #-336]	; 54d4 <_Min_Stack_Size+0x50d4>
    5620:	5f5f5841 	svcpl	0x005f5841
    5624:	31202d20 			; <UNDEFINED> instruction: 0x31202d20
    5628:	5f5f0029 	svcpl	0x005f0029
    562c:	64657270 	strbtvs	r7, [r5], #-624	; 0xfffffd90
    5630:	5f746369 	svcpl	0x00746369
    5634:	736c6166 	cmnvc	ip, #-2147483623	; 0x80000019
    5638:	78652865 	stmdavc	r5!, {r0, r2, r5, r6, fp, sp}^
    563c:	5f202970 	svcpl	0x00202970
    5640:	6975625f 	ldmdbvs	r5!, {r0, r1, r2, r3, r4, r6, r9, sp, lr}^
    5644:	6e69746c 	cdpvs	4, 6, cr7, cr9, cr12, {3}
    5648:	7078655f 	rsbsvc	r6, r8, pc, asr r5
    564c:	28746365 	ldmdacs	r4!, {r0, r2, r5, r6, r8, r9, sp, lr}^
    5650:	70786528 	rsbsvc	r6, r8, r8, lsr #10
    5654:	30202c29 	eorcc	r2, r0, r9, lsr #24
    5658:	5f5f0029 	svcpl	0x005f0029
    565c:	36544c46 	ldrbcc	r4, [r4], -r6, asr #24
    5660:	41485f34 	cmpmi	r8, r4, lsr pc
    5664:	45445f53 	strbmi	r5, [r4, #-3923]	; 0xfffff0ad
    5668:	4d524f4e 	ldclmi	15, cr4, [r2, #-312]	; 0xfffffec8
    566c:	31205f5f 			; <UNDEFINED> instruction: 0x31205f5f
    5670:	555f5f00 	ldrbpl	r5, [pc, #-3840]	; 4778 <_Min_Stack_Size+0x4378>
    5674:	43414c4c 	movtmi	r4, #7244	; 0x1c4c
    5678:	5f4d5543 	svcpl	0x004d5543
    567c:	54494249 	strbpl	r4, [r9], #-585	; 0xfffffdb7
    5680:	33205f5f 			; <UNDEFINED> instruction: 0x33205f5f
    5684:	5f5f0032 	svcpl	0x005f0032
    5688:	43434155 	movtmi	r4, #12629	; 0x3155
    568c:	455f4d55 	ldrbmi	r4, [pc, #-3413]	; 493f <_Min_Stack_Size+0x453f>
    5690:	4c495350 	mcrrmi	3, 5, r5, r9, cr0
    5694:	5f5f4e4f 	svcpl	0x005f4e4f
    5698:	31783020 	cmncc	r8, r0, lsr #32
    569c:	36312d50 			; <UNDEFINED> instruction: 0x36312d50
    56a0:	43004b55 	movwmi	r4, #2901	; 0xb55
    56a4:	32524746 	subscc	r4, r2, #18350080	; 0x1180000
    56a8:	43575f00 	cmpmi	r7, #0, 30
    56ac:	5f524148 	svcpl	0x00524148
    56b0:	45445f54 	strbmi	r5, [r4, #-3924]	; 0xfffff0ac
    56b4:	52414c43 	subpl	r4, r1, #17152	; 0x4300
    56b8:	00204445 	eoreq	r4, r0, r5, asr #8
    56bc:	5f544e49 	svcpl	0x00544e49
    56c0:	54534146 	ldrbpl	r4, [r3], #-326	; 0xfffffeba
    56c4:	4d5f3631 	ldclmi	6, cr3, [pc, #-196]	; 5608 <_Min_Stack_Size+0x5208>
    56c8:	28205841 	stmdacs	r0!, {r0, r6, fp, ip, lr}
    56cc:	4e495f5f 	mcrmi	15, 2, r5, cr9, cr15, {2}
    56d0:	41465f54 	cmpmi	r6, r4, asr pc
    56d4:	36315453 			; <UNDEFINED> instruction: 0x36315453
    56d8:	58414d5f 	stmdapl	r1, {r0, r1, r2, r3, r4, r6, r8, sl, fp, lr}^
    56dc:	00295f5f 	eoreq	r5, r9, pc, asr pc
    56e0:	5359535f 	cmppl	r9, #2080374785	; 0x7c000001
    56e4:	4545525f 	strbmi	r5, [r5, #-607]	; 0xfffffda1
    56e8:	485f544e 	ldmdami	pc, {r1, r2, r3, r6, sl, ip, lr}^	; <UNPREDICTABLE>
    56ec:	5f00205f 	svcpl	0x0000205f
    56f0:	544c465f 	strbpl	r4, [ip], #-1631	; 0xfffff9a1
    56f4:	4156455f 	cmpmi	r6, pc, asr r5
    56f8:	454d5f4c 	strbmi	r5, [sp, #-3916]	; 0xfffff0b4
    56fc:	444f4854 	strbmi	r4, [pc], #-2132	; 5704 <_Min_Stack_Size+0x5304>
    5700:	30205f5f 	eorcc	r5, r0, pc, asr pc
    5704:	695f5f00 	ldmdbvs	pc, {r8, r9, sl, fp, ip, lr}^	; <UNPREDICTABLE>
    5708:	665f746e 	ldrbvs	r7, [pc], -lr, ror #8
    570c:	31747361 	cmncc	r4, r1, ror #6
    5710:	5f745f36 	svcpl	0x00745f36
    5714:	69666564 	stmdbvs	r6!, {r2, r5, r6, r8, sl, sp, lr}^
    5718:	2064656e 	rsbcs	r6, r4, lr, ror #10
    571c:	5f5f0031 	svcpl	0x005f0031
    5720:	41484353 	cmpmi	r8, r3, asr r3
    5724:	414d5f52 	cmpmi	sp, r2, asr pc
    5728:	205f5f58 	subscs	r5, pc, r8, asr pc	; <UNPREDICTABLE>
    572c:	66377830 			; <UNDEFINED> instruction: 0x66377830
    5730:	495f5f00 	ldmdbmi	pc, {r8, r9, sl, fp, ip, lr}^	; <UNPREDICTABLE>
    5734:	465f544e 	ldrbmi	r5, [pc], -lr, asr #8
    5738:	38545341 	ldmdacc	r4, {r0, r6, r8, r9, ip, lr}^
    573c:	4449575f 	strbmi	r5, [r9], #-1887	; 0xfffff8a1
    5740:	5f5f4854 	svcpl	0x005f4854
    5744:	00323320 	eorseq	r3, r2, r0, lsr #6
    5748:	54535f5f 	ldrbpl	r5, [r3], #-3935	; 0xfffff0a1
    574c:	555f4344 	ldrbpl	r4, [pc, #-836]	; 5410 <_Min_Stack_Size+0x5010>
    5750:	315f4654 	cmpcc	pc, r4, asr r6	; <UNPREDICTABLE>
    5754:	205f5f36 	subscs	r5, pc, r6, lsr pc	; <UNPREDICTABLE>
    5758:	525f0031 	subspl	r0, pc, #49	; 0x31
    575c:	34444e41 	strbcc	r4, [r4], #-3649	; 0xfffff1bf
    5760:	554d5f38 	strbpl	r5, [sp, #-3896]	; 0xfffff0c8
    5764:	325f544c 	subscc	r5, pc, #76, 8	; 0x4c000000
    5768:	78302820 	ldmdavc	r0!, {r5, fp, sp}
    576c:	35303030 	ldrcc	r3, [r0, #-48]!	; 0xffffffd0
    5770:	5f5f0029 	svcpl	0x005f0029
    5774:	5f4d5241 	svcpl	0x004d5241
    5778:	54414546 	strbpl	r4, [r1], #-1350	; 0xfffffaba
    577c:	5f455255 	svcpl	0x00455255
    5780:	4552444c 	ldrbmi	r4, [r2, #-1100]	; 0xfffffbb4
    5784:	525f0058 	subspl	r0, pc, #88	; 0x58
    5788:	544e4545 	strbpl	r4, [lr], #-1349	; 0xfffffabb
    578c:	4548435f 	strbmi	r4, [r8, #-863]	; 0xfffffca1
    5790:	4d5f4b43 	vldrmi	d20, [pc, #-268]	; 568c <_Min_Stack_Size+0x528c>
    5794:	28435349 	stmdacs	r3, {r0, r3, r6, r8, r9, ip, lr}^
    5798:	29726176 	ldmdbcs	r2!, {r1, r2, r4, r5, r6, r8, sp, lr}^
    579c:	45525f20 	ldrbmi	r5, [r2, #-3872]	; 0xfffff0e0
    57a0:	5f544e45 	svcpl	0x00544e45
    57a4:	43454843 	movtmi	r4, #22595	; 0x5843
    57a8:	6176284b 	cmnvs	r6, fp, asr #16
    57ac:	5f202c72 	svcpl	0x00202c72
    57b0:	6373696d 	cmnvs	r3, #1785856	; 0x1b4000
    57b4:	7473202c 	ldrbtvc	r2, [r3], #-44	; 0xffffffd4
    57b8:	74637572 	strbtvc	r7, [r3], #-1394	; 0xfffffa8e
    57bc:	696d5f20 	stmdbvs	sp!, {r5, r8, r9, sl, fp, ip, lr}^
    57c0:	725f6373 	subsvc	r6, pc, #-872415231	; 0xcc000001
    57c4:	746e6565 	strbtvc	r6, [lr], #-1381	; 0xfffffa9b
    57c8:	202c2a20 	eorcs	r2, ip, r0, lsr #20
    57cc:	657a6973 	ldrbvs	r6, [sl, #-2419]!	; 0xfffff68d
    57d0:	2a20666f 	bcs	81f194 <_Min_Stack_Size+0x81ed94>
    57d4:	61762828 	cmnvs	r6, r8, lsr #16
    57d8:	3e2d2972 			; <UNDEFINED> instruction: 0x3e2d2972
    57dc:	73696d5f 	cmnvc	r9, #6080	; 0x17c0
    57e0:	202c2963 	eorcs	r2, ip, r3, ror #18
    57e4:	4545525f 	strbmi	r5, [r5, #-607]	; 0xfffffda1
    57e8:	495f544e 	ldmdbmi	pc, {r1, r2, r3, r6, sl, ip, lr}^	; <UNPREDICTABLE>
    57ec:	5f54494e 	svcpl	0x0054494e
    57f0:	4353494d 	cmpmi	r3, #1261568	; 0x134000
    57f4:	72617628 	rsbvc	r7, r1, #40, 12	; 0x2800000
    57f8:	5f002929 	svcpl	0x00002929
    57fc:	54505f54 	ldrbpl	r5, [r0], #-3924	; 0xfffff0ac
    5800:	46494452 			; <UNDEFINED> instruction: 0x46494452
    5804:	5f002046 	svcpl	0x00002046
    5808:	5151555f 	cmppl	r1, pc, asr r5
    580c:	4942465f 	stmdbmi	r2, {r0, r1, r2, r3, r4, r6, r9, sl, lr}^
    5810:	205f5f54 	subscs	r5, pc, r4, asr pc	; <UNPREDICTABLE>
    5814:	564e0038 			; <UNDEFINED> instruction: 0x564e0038
    5818:	535f4349 	cmppl	pc, #603979777	; 0x24000001
    581c:	5f324950 	svcpl	0x00324950
    5820:	5f515249 	svcpl	0x00515249
    5824:	61736944 	cmnvs	r3, r4, asr #18
    5828:	20656c62 	rsbcs	r6, r5, r2, ror #24
    582c:	49564e28 	ldmdbmi	r6, {r3, r5, r9, sl, fp, lr}^
    5830:	43495f43 	movtmi	r5, #40771	; 0x9f43
    5834:	20315245 	eorscs	r5, r1, r5, asr #4
    5838:	31203d7c 			; <UNDEFINED> instruction: 0x31203d7c
    583c:	53283c3c 			; <UNDEFINED> instruction: 0x53283c3c
    5840:	5f324950 	svcpl	0x00324950
    5844:	20515249 	subscs	r5, r1, r9, asr #4
    5848:	3233202d 	eorscc	r2, r3, #45	; 0x2d
    584c:	5f002929 	svcpl	0x00002929
    5850:	4e49575f 	mcrmi	7, 2, r5, cr9, cr15, {2}
    5854:	59545f54 	ldmdbpl	r4, {r2, r4, r6, r8, r9, sl, fp, ip, lr}^
    5858:	5f5f4550 	svcpl	0x005f4550
    585c:	736e7520 	cmnvc	lr, #32, 10	; 0x8000000
    5860:	656e6769 	strbvs	r6, [lr, #-1897]!	; 0xfffff897
    5864:	6e692064 	cdpvs	0, 6, cr2, cr9, cr4, {3}
    5868:	6e690074 	mcrvs	0, 3, r0, cr9, cr4, {3}
    586c:	322b2074 	eorcc	r2, fp, #116	; 0x74
    5870:	415f5f00 	cmpmi	pc, r0, lsl #30
    5874:	465f4d52 			; <UNDEFINED> instruction: 0x465f4d52
    5878:	5f363150 	svcpl	0x00363150
    587c:	53475241 	movtpl	r5, #29249	; 0x7241
    5880:	475f5f00 	ldrbmi	r5, [pc, -r0, lsl #30]
    5884:	495f4343 	ldmdbmi	pc, {r0, r1, r6, r8, r9, lr}^	; <UNPREDICTABLE>
    5888:	355f4345 	ldrbcc	r4, [pc, #-837]	; 554b <_Min_Stack_Size+0x514b>
    588c:	30203935 	eorcc	r3, r0, r5, lsr r9
    5890:	725f5f00 	subsvc	r5, pc, #0, 30
    5894:	69757165 	ldmdbvs	r5!, {r0, r2, r5, r6, r8, ip, sp, lr}^
    5898:	5f736572 	svcpl	0x00736572
    589c:	6f6c6e75 	svcvs	0x006c6e75
    58a0:	64656b63 	strbtvs	r6, [r5], #-2915	; 0xfffff49d
    58a4:	2e2e2e28 	cdpcs	14, 2, cr2, cr14, cr8, {1}
    58a8:	5f5f2029 	svcpl	0x005f2029
    58ac:	6b636f6c 	blvs	18e1664 <_Min_Stack_Size+0x18e1264>
    58b0:	6e6e615f 	mcrvs	1, 3, r6, cr14, cr15, {2}
    58b4:	7461746f 	strbtvc	r7, [r1], #-1135	; 0xfffffb91
    58b8:	6f6c2865 	svcvs	0x006c2865
    58bc:	5f736b63 	svcpl	0x00736b63
    58c0:	6c637865 	stclvs	8, cr7, [r3], #-404	; 0xfffffe6c
    58c4:	64656475 	strbtvs	r6, [r5], #-1141	; 0xfffffb8b
    58c8:	565f5f28 	ldrbpl	r5, [pc], -r8, lsr #30
    58cc:	52415f41 	subpl	r5, r1, #260	; 0x104
    58d0:	5f5f5347 	svcpl	0x005f5347
    58d4:	63002929 	movwvs	r2, #2345	; 0x929
    58d8:	20726168 	rsbscs	r6, r2, r8, ror #2
    58dc:	6100302b 	tstvs	r0, fp, lsr #32
    58e0:	636f6c6c 	cmnvs	pc, #108, 24	; 0x6c00
    58e4:	5f5f0061 	svcpl	0x005f0061
    58e8:	4152464c 	cmpmi	r2, ip, asr #12
    58ec:	4d5f5443 	cfldrdmi	mvd5, [pc, #-268]	; 57e8 <_Min_Stack_Size+0x53e8>
    58f0:	5f5f5841 	svcpl	0x005f5841
    58f4:	37583020 	ldrbcc	r3, [r8, -r0, lsr #32]
    58f8:	46464646 	strbmi	r4, [r6], -r6, asr #12
    58fc:	50464646 	subpl	r4, r6, r6, asr #12
    5900:	4c31332d 	ldcmi	3, cr3, [r1], #-180	; 0xffffff4c
    5904:	5f5f0052 	svcpl	0x005f0052
    5908:	455a4953 	ldrbmi	r4, [sl, #-2387]	; 0xfffff6ad
    590c:	505f464f 	subspl	r4, pc, pc, asr #12
    5910:	49445254 	stmdbmi	r4, {r2, r4, r6, r9, ip, lr}^
    5914:	545f4646 	ldrbpl	r4, [pc], #-1606	; 591c <_Min_Stack_Size+0x551c>
    5918:	34205f5f 	strtcc	r5, [r0], #-3935	; 0xfffff0a1
    591c:	54584500 	ldrbpl	r4, [r8], #-1280	; 0xfffffb00
    5920:	20313149 	eorscs	r3, r1, r9, asr #2
    5924:	5f003131 	svcpl	0x00003131
    5928:	4843575f 	stmdami	r3, {r0, r1, r2, r3, r4, r6, r8, r9, sl, ip, lr}^
    592c:	545f5241 	ldrbpl	r5, [pc], #-577	; 5934 <_Min_Stack_Size+0x5534>
    5930:	00205f5f 	eoreq	r5, r0, pc, asr pc
    5934:	695f5f5f 	ldmdbvs	pc, {r0, r1, r2, r3, r4, r6, r8, r9, sl, fp, ip, lr}^	; <UNPREDICTABLE>
    5938:	6c5f746e 	cfldrdvs	mvd7, [pc], {110}	; 0x6e
    593c:	74736165 	ldrbtvc	r6, [r3], #-357	; 0xfffffe9b
    5940:	5f745f38 	svcpl	0x00745f38
    5944:	69666564 	stmdbvs	r6!, {r2, r5, r6, r8, sl, sp, lr}^
    5948:	2064656e 	rsbcs	r6, r4, lr, ror #10
    594c:	5f5f0031 	svcpl	0x005f0031
    5950:	5f4d5241 	svcpl	0x004d5241
    5954:	54414546 	strbpl	r4, [r1], #-1350	; 0xfffffaba
    5958:	5f455255 	svcpl	0x00455255
    595c:	56494449 	strbpl	r4, [r9], -r9, asr #8
    5960:	55003120 	strpl	r3, [r0, #-288]	; 0xfffffee0
    5964:	54524153 	ldrbpl	r4, [r2], #-339	; 0xfffffead
    5968:	41425f31 	cmpmi	r2, r1, lsr pc
    596c:	30204553 	eorcc	r4, r0, r3, asr r5
    5970:	30303478 	eorscc	r3, r0, r8, ror r4
    5974:	30383331 	eorscc	r3, r8, r1, lsr r3
    5978:	5f007530 	svcpl	0x00007530
    597c:	4f4c465f 	svcmi	0x004c465f
    5980:	575f5441 	ldrbpl	r5, [pc, -r1, asr #8]
    5984:	5f44524f 	svcpl	0x0044524f
    5988:	4544524f 	strbmi	r5, [r4, #-591]	; 0xfffffdb1
    598c:	205f5f52 	subscs	r5, pc, r2, asr pc	; <UNPREDICTABLE>
    5990:	524f5f5f 	subpl	r5, pc, #380	; 0x17c
    5994:	5f524544 	svcpl	0x00524544
    5998:	5454494c 	ldrbpl	r4, [r4], #-2380	; 0xfffff6b4
    599c:	455f454c 	ldrbmi	r4, [pc, #-1356]	; 5458 <_Min_Stack_Size+0x5058>
    59a0:	4149444e 	cmpmi	r9, lr, asr #8
    59a4:	005f5f4e 	subseq	r5, pc, lr, asr #30
    59a8:	4343475f 	movtmi	r4, #14175	; 0x375f
    59ac:	4843575f 	stmdami	r3, {r0, r1, r2, r3, r4, r6, r8, r9, sl, ip, lr}^
    59b0:	545f5241 	ldrbpl	r5, [pc], #-577	; 59b8 <_Min_Stack_Size+0x55b8>
    59b4:	5f5f0020 	svcpl	0x005f0020
    59b8:	6f6c6e75 	svcvs	0x006c6e75
    59bc:	28736b63 	ldmdacs	r3!, {r0, r1, r5, r6, r8, r9, fp, sp, lr}^
    59c0:	292e2e2e 	stmdbcs	lr!, {r1, r2, r3, r5, r9, sl, fp, sp}
    59c4:	6c5f5f20 	mrrcvs	15, 2, r5, pc, cr0	; <UNPREDICTABLE>
    59c8:	5f6b636f 	svcpl	0x006b636f
    59cc:	6f6e6e61 	svcvs	0x006e6e61
    59d0:	65746174 	ldrbvs	r6, [r4, #-372]!	; 0xfffffe8c
    59d4:	6c6e7528 	cfstr64vs	mvdx7, [lr], #-160	; 0xffffff60
    59d8:	5f6b636f 	svcpl	0x006b636f
    59dc:	636e7566 	cmnvs	lr, #427819008	; 0x19800000
    59e0:	6e6f6974 			; <UNDEFINED> instruction: 0x6e6f6974
    59e4:	565f5f28 	ldrbpl	r5, [pc], -r8, lsr #30
    59e8:	52415f41 	subpl	r5, r1, #260	; 0x104
    59ec:	5f5f5347 	svcpl	0x005f5347
    59f0:	5f002929 	svcpl	0x00002929
    59f4:	5058455f 	subspl	r4, r8, pc, asr r5
    59f8:	2054524f 	subscs	r5, r4, pc, asr #4
    59fc:	555f5f00 	ldrbpl	r5, [pc, #-3840]	; 4b04 <_Min_Stack_Size+0x4704>
    5a00:	5f544e49 	svcpl	0x00544e49
    5a04:	5341454c 	movtpl	r4, #5452	; 0x154c
    5a08:	545f3854 	ldrbpl	r3, [pc], #-2132	; 5a10 <_Min_Stack_Size+0x5610>
    5a0c:	5f455059 	svcpl	0x00455059
    5a10:	6e75205f 	mrcvs	0, 3, r2, cr5, cr15, {2}
    5a14:	6e676973 			; <UNDEFINED> instruction: 0x6e676973
    5a18:	63206465 			; <UNDEFINED> instruction: 0x63206465
    5a1c:	00726168 	rsbseq	r6, r2, r8, ror #2
    5a20:	424f5f5f 	submi	r5, pc, #380	; 0x17c
    5a24:	454c4f53 	strbmi	r4, [ip, #-3923]	; 0xfffff0ad
    5a28:	4d5f4554 	cfldr64mi	mvdx4, [pc, #-336]	; 58e0 <_Min_Stack_Size+0x54e0>
    5a2c:	5f485441 	svcpl	0x00485441
    5a30:	41464544 	cmpmi	r6, r4, asr #10
    5a34:	20544c55 	subscs	r4, r4, r5, asr ip
    5a38:	5f5f0031 	svcpl	0x005f0031
    5a3c:	54524853 	ldrbpl	r4, [r2], #-2131	; 0xfffff7ad
    5a40:	4449575f 	strbmi	r5, [r9], #-1887	; 0xfffff8a1
    5a44:	5f5f4854 	svcpl	0x005f4854
    5a48:	00363120 	eorseq	r3, r6, r0, lsr #2
    5a4c:	4145525f 	cmpmi	r5, pc, asr r2
    5a50:	52575f44 	subspl	r5, r7, #68, 30	; 0x110
    5a54:	5f455449 	svcpl	0x00455449
    5a58:	53465542 	movtpl	r5, #25922	; 0x6542
    5a5c:	5f455a49 	svcpl	0x00455a49
    5a60:	45505954 	ldrbmi	r5, [r0, #-2388]	; 0xfffff6ac
    5a64:	746e6920 	strbtvc	r6, [lr], #-2336	; 0xfffff6e0
    5a68:	49564e00 	ldmdbmi	r6, {r9, sl, fp, lr}^
    5a6c:	53495f43 	movtpl	r5, #40771	; 0x9f43
    5a70:	20325245 	eorscs	r5, r2, r5, asr #4
    5a74:	6f76282a 	svcvs	0x0076282a
    5a78:	6974616c 	ldmdbvs	r4!, {r2, r3, r5, r6, r8, sp, lr}^
    5a7c:	7520656c 	strvc	r6, [r0, #-1388]!	; 0xfffffa94
    5a80:	33746e69 	cmncc	r4, #1680	; 0x690
    5a84:	2a745f32 	bcs	1d1d754 <_Min_Stack_Size+0x1d1d354>
    5a88:	4e282920 	vmulmi.f16	s4, s16, s1	; <UNPREDICTABLE>
    5a8c:	5f434956 	svcpl	0x00434956
    5a90:	65736142 	ldrbvs	r6, [r3, #-322]!	; 0xfffffebe
    5a94:	78302b20 	ldmdavc	r0!, {r5, r8, r9, fp, sp}
    5a98:	00293830 	eoreq	r3, r9, r0, lsr r8
    5a9c:	49545845 	ldmdbmi	r4, {r0, r2, r6, fp, ip, lr}^
    5aa0:	61635f39 	cmnvs	r3, r9, lsr pc
    5aa4:	61426c6c 	cmpvs	r2, ip, ror #24
    5aa8:	49006b63 	stmdbmi	r0, {r0, r1, r5, r6, r8, r9, fp, sp, lr}
    5aac:	5450544e 	ldrbpl	r5, [r0], #-1102	; 0xfffffbb2
    5ab0:	414d5f52 	cmpmi	sp, r2, asr pc
    5ab4:	5f282058 	svcpl	0x00282058
    5ab8:	544e495f 	strbpl	r4, [lr], #-2399	; 0xfffff6a1
    5abc:	5f525450 	svcpl	0x00525450
    5ac0:	5f58414d 	svcpl	0x0058414d
    5ac4:	5f00295f 	svcpl	0x0000295f
    5ac8:	504d495f 	subpl	r4, sp, pc, asr r9
    5acc:	2054524f 	subscs	r5, r4, pc, asr #4
    5ad0:	49504700 	ldmdbmi	r0, {r8, r9, sl, lr}^
    5ad4:	49505f4f 	ldmdbmi	r0, {r0, r1, r2, r3, r6, r8, r9, sl, fp, ip, lr}^
    5ad8:	20305f4e 	eorscs	r5, r0, lr, asr #30
    5adc:	69752828 	ldmdbvs	r5!, {r3, r5, fp, sp}^
    5ae0:	3631746e 	ldrtcc	r7, [r1], -lr, ror #8
    5ae4:	2029745f 	eorcs	r7, r9, pc, asr r4
    5ae8:	30307830 	eorscc	r7, r0, r0, lsr r8
    5aec:	00293130 	eoreq	r3, r9, r0, lsr r1
    5af0:	5254505f 	subspl	r5, r4, #95	; 0x5f
    5af4:	46464944 	strbmi	r4, [r6], -r4, asr #18
    5af8:	445f545f 	ldrbmi	r5, [pc], #-1119	; 5b00 <_Min_Stack_Size+0x5700>
    5afc:	414c4345 	cmpmi	ip, r5, asr #6
    5b00:	20444552 	subcs	r4, r4, r2, asr r5
    5b04:	555f5f00 	ldrbpl	r5, [pc, #-3840]	; 4c0c <_Min_Stack_Size+0x480c>
    5b08:	465f4153 			; <UNDEFINED> instruction: 0x465f4153
    5b0c:	5f544942 	svcpl	0x00544942
    5b10:	3631205f 			; <UNDEFINED> instruction: 0x3631205f
    5b14:	765f5f00 	ldrbvc	r5, [pc], -r0, lsl #30
    5b18:	74616c6f 	strbtvc	r6, [r1], #-3183	; 0xfffff391
    5b1c:	20656c69 	rsbcs	r6, r5, r9, ror #24
    5b20:	616c6f76 	smcvs	50934	; 0xc6f6
    5b24:	656c6974 	strbvs	r6, [ip, #-2420]!	; 0xfffff68c
    5b28:	414d5f00 	cmpmi	sp, r0, lsl #30
    5b2c:	4e494843 	cdpmi	8, 4, cr4, cr9, cr3, {2}
    5b30:	545f5f45 	ldrbpl	r5, [pc], #-3909	; 5b38 <_Min_Stack_Size+0x5738>
    5b34:	53455059 	movtpl	r5, #20569	; 0x5059
    5b38:	0020485f 	eoreq	r4, r0, pc, asr r8
    5b3c:	45495f5f 	strbmi	r5, [r9, #-3935]	; 0xfffff0a1
    5b40:	4c5f4545 	cfldr64mi	mvdx4, [pc], {69}	; 0x45
    5b44:	4c545449 	cfldrdmi	mvd5, [r4], {73}	; 0x49
    5b48:	4e455f45 	cdpmi	15, 4, cr5, cr5, cr5, {2}
    5b4c:	4e414944 	vmlsmi.f16	s9, s2, s8	; <UNPREDICTABLE>
    5b50:	5f5f0020 	svcpl	0x005f0020
    5b54:	4c42444c 	cfstrdmi	mvd4, [r2], {76}	; 0x4c
    5b58:	4e494d5f 	mcrmi	13, 2, r4, cr9, cr15, {2}
    5b5c:	5f30315f 	svcpl	0x0030315f
    5b60:	5f505845 	svcpl	0x00505845
    5b64:	2d28205f 	stccs	0, cr2, [r8, #-380]!	; 0xfffffe84
    5b68:	29373033 	ldmdbcs	r7!, {r0, r1, r4, r5, ip, sp}
    5b6c:	415f5f00 	cmpmi	pc, r0, lsl #30
    5b70:	4c494654 	mcrrmi	6, 5, r4, r9, cr4
    5b74:	49565f45 	ldmdbmi	r6, {r0, r2, r6, r8, r9, sl, fp, ip, lr}^
    5b78:	4c424953 	mcrrmi	9, 5, r4, r2, cr3	; <UNPREDICTABLE>
    5b7c:	00312045 	eorseq	r2, r1, r5, asr #32
    5b80:	49545845 	ldmdbmi	r4, {r0, r2, r6, fp, ip, lr}^
    5b84:	6972745f 	ldmdbvs	r2!, {r0, r1, r2, r3, r4, r6, sl, ip, sp, lr}^
    5b88:	72656767 	rsbvc	r6, r5, #27000832	; 0x19c0000
    5b8c:	7369725f 	cmnvc	r9, #-268435451	; 0xf0000005
    5b90:	41676e69 	cmnmi	r7, r9, ror #28
    5b94:	6166444e 	cmnvs	r6, lr, asr #8
    5b98:	6e696c6c 	cdpvs	12, 6, cr6, cr9, cr12, {3}
    5b9c:	00322067 	eorseq	r2, r2, r7, rrx
    5ba0:	49545845 	ldmdbmi	r4, {r0, r2, r6, fp, ip, lr}^
    5ba4:	31203531 			; <UNDEFINED> instruction: 0x31203531
    5ba8:	5f5f0035 	svcpl	0x005f0035
    5bac:	4152464c 	cmpmi	r2, ip, asr #12
    5bb0:	455f5443 	ldrbmi	r5, [pc, #-1091]	; 5775 <_Min_Stack_Size+0x5375>
    5bb4:	4c495350 	mcrrmi	3, 5, r5, r9, cr0
    5bb8:	5f5f4e4f 	svcpl	0x005f4e4f
    5bbc:	31783020 	cmncc	r8, r0, lsr #32
    5bc0:	31332d50 	teqcc	r3, r0, asr sp
    5bc4:	5f00524c 	svcpl	0x0000524c
    5bc8:	49474542 	stmdbmi	r7, {r1, r6, r8, sl, lr}^
    5bcc:	54535f4e 	ldrbpl	r5, [r3], #-3918	; 0xfffff0b2
    5bd0:	20435f44 	subcs	r5, r3, r4, asr #30
    5bd4:	6d5f5f00 	ldclvs	15, cr5, [pc, #-0]	; 5bdc <_Min_Stack_Size+0x57dc>
    5bd8:	6f6c6c61 	svcvs	0x006c6c61
    5bdc:	696c5f63 	stmdbvs	ip!, {r0, r1, r5, r6, r8, r9, sl, fp, ip, lr}^
    5be0:	5f20656b 	svcpl	0x0020656b
    5be4:	7474615f 	ldrbtvc	r6, [r4], #-351	; 0xfffffea1
    5be8:	75626972 	strbvc	r6, [r2, #-2418]!	; 0xfffff68e
    5bec:	5f5f6574 	svcpl	0x005f6574
    5bf0:	5f5f2828 	svcpl	0x005f2828
    5bf4:	6c6c616d 	stfvse	f6, [ip], #-436	; 0xfffffe4c
    5bf8:	5f5f636f 	svcpl	0x005f636f
    5bfc:	5f002929 	svcpl	0x00002929
    5c00:	4e454552 	mcrmi	5, 2, r4, cr5, cr2, {2}
    5c04:	4e495f54 	mcrmi	15, 2, r5, cr9, cr4, {2}
    5c08:	76285449 	strtvc	r5, [r8], -r9, asr #8
    5c0c:	20297261 	eorcs	r7, r9, r1, ror #4
    5c10:	2c30207b 	ldccs	0, cr2, [r0], #-492	; 0xfffffe14
    5c14:	5f5f2820 	svcpl	0x005f2820
    5c18:	454c4946 	strbmi	r4, [ip, #-2374]	; 0xfffff6ba
    5c1c:	26292a20 	strtcs	r2, [r9], -r0, lsr #20
    5c20:	66735f5f 	uhsaxvs	r5, r3, pc	; <UNPREDICTABLE>
    5c24:	6b61665f 	blvs	185f5a8 <_Min_Stack_Size+0x185f1a8>
    5c28:	74735f65 	ldrbtvc	r5, [r3], #-3941	; 0xfffff09b
    5c2c:	2c6e6964 			; <UNDEFINED> instruction: 0x2c6e6964
    5c30:	5f5f2820 	svcpl	0x005f2820
    5c34:	454c4946 	strbmi	r4, [ip, #-2374]	; 0xfffff6ba
    5c38:	26292a20 	strtcs	r2, [r9], -r0, lsr #20
    5c3c:	66735f5f 	uhsaxvs	r5, r3, pc	; <UNPREDICTABLE>
    5c40:	6b61665f 	blvs	185f5c4 <_Min_Stack_Size+0x185f1c4>
    5c44:	74735f65 	ldrbtvc	r5, [r3], #-3941	; 0xfffff09b
    5c48:	74756f64 	ldrbtvc	r6, [r5], #-3940	; 0xfffff09c
    5c4c:	5f28202c 	svcpl	0x0028202c
    5c50:	4c49465f 	mcrrmi	6, 5, r4, r9, cr15
    5c54:	292a2045 	stmdbcs	sl!, {r0, r2, r6, sp}
    5c58:	735f5f26 	cmpvc	pc, #38, 30	; 0x98
    5c5c:	61665f66 	cmnvs	r6, r6, ror #30
    5c60:	735f656b 	cmpvc	pc, #448790528	; 0x1ac00000
    5c64:	72656474 	rsbvc	r6, r5, #116, 8	; 0x74000000
    5c68:	30202c72 	eorcc	r2, r0, r2, ror ip
    5c6c:	4e5f202c 	cdpmi	0, 5, cr2, cr15, cr12, {1}
    5c70:	2c4c4c55 	mcrrcs	12, 5, r4, ip, cr5
    5c74:	202c3020 	eorcs	r3, ip, r0, lsr #32
    5c78:	5f202c30 	svcpl	0x00202c30
    5c7c:	4c4c554e 	cfstr64mi	mvdx5, [ip], {78}	; 0x4e
    5c80:	4e5f202c 	cdpmi	0, 5, cr2, cr15, cr12, {1}
    5c84:	2c4c4c55 	mcrrcs	12, 5, r4, ip, cr5
    5c88:	554e5f20 	strbpl	r5, [lr, #-3872]	; 0xfffff0e0
    5c8c:	202c4c4c 	eorcs	r4, ip, ip, asr #24
    5c90:	30202c30 	eorcc	r2, r0, r0, lsr ip
    5c94:	4e5f202c 	cdpmi	0, 5, cr2, cr15, cr12, {1}
    5c98:	2c4c4c55 	mcrrcs	12, 5, r4, ip, cr5
    5c9c:	554e5f20 	strbpl	r5, [lr, #-3872]	; 0xfffff0e0
    5ca0:	202c4c4c 	eorcs	r4, ip, ip, asr #24
    5ca4:	4c554e5f 	mrrcmi	14, 5, r4, r5, cr15
    5ca8:	5f202c4c 	svcpl	0x00202c4c
    5cac:	4c4c554e 	cfstr64mi	mvdx5, [ip], {78}	; 0x4e
    5cb0:	4e5f202c 	cdpmi	0, 5, cr2, cr15, cr12, {1}
    5cb4:	2c4c4c55 	mcrrcs	12, 5, r4, ip, cr5
    5cb8:	45525f20 	ldrbmi	r5, [r2, #-3872]	; 0xfffff0e0
    5cbc:	5f544e45 	svcpl	0x00544e45
    5cc0:	54494e49 	strbpl	r4, [r9], #-3657	; 0xfffff1b7
    5cc4:	4554415f 	ldrbmi	r4, [r4, #-351]	; 0xfffffea1
    5cc8:	20544958 	subscs	r4, r4, r8, asr r9
    5ccc:	554e5f7b 	strbpl	r5, [lr, #-3963]	; 0xfffff085
    5cd0:	202c4c4c 	eorcs	r4, ip, ip, asr #24
    5cd4:	5f202c30 	svcpl	0x00202c30
    5cd8:	4c4c554e 	cfstr64mi	mvdx5, [ip], {78}	; 0x4e
    5cdc:	5f202c7d 	svcpl	0x00202c7d
    5ce0:	4c4c554e 	cfstr64mi	mvdx5, [ip], {78}	; 0x4e
    5ce4:	4e5f202c 	cdpmi	0, 5, cr2, cr15, cr12, {1}
    5ce8:	2c4c4c55 	mcrrcs	12, 5, r4, ip, cr5
    5cec:	554e5f20 	strbpl	r5, [lr, #-3872]	; 0xfffff0e0
    5cf0:	7d204c4c 	stcvc	12, cr4, [r0, #-304]!	; 0xfffffed0
    5cf4:	415f5f00 	cmpmi	pc, r0, lsl #30
    5cf8:	535f4d52 	cmppl	pc, #5248	; 0x1480
    5cfc:	4f455a49 	svcmi	0x00455a49
    5d00:	494d5f46 	stmdbmi	sp, {r1, r2, r6, r8, r9, sl, fp, ip, lr}^
    5d04:	414d494e 	cmpmi	sp, lr, asr #18
    5d08:	4e455f4c 	cdpmi	15, 4, cr5, cr5, cr12, {2}
    5d0c:	31204d55 			; <UNDEFINED> instruction: 0x31204d55
    5d10:	4f505f00 	svcmi	0x00505f00
    5d14:	45544e49 	ldrbmi	r4, [r4, #-3657]	; 0xfffff1b7
    5d18:	4e495f52 	mcrmi	15, 2, r5, cr9, cr2, {2}
    5d1c:	6f6c2054 	svcvs	0x006c2054
    5d20:	5f00676e 	svcpl	0x0000676e
    5d24:	544c465f 	strbpl	r4, [ip], #-1631	; 0xfffff9a1
    5d28:	5f583233 	svcpl	0x00583233
    5d2c:	4d524f4e 	ldclmi	15, cr4, [r2, #-312]	; 0xfffffec8
    5d30:	58414d5f 	stmdapl	r1, {r0, r1, r2, r3, r4, r6, r8, sl, fp, lr}^
    5d34:	31205f5f 			; <UNDEFINED> instruction: 0x31205f5f
    5d38:	3739372e 	ldrcc	r3, [r9, -lr, lsr #14]!
    5d3c:	31333936 	teqcc	r3, r6, lsr r9
    5d40:	36383433 			; <UNDEFINED> instruction: 0x36383433
    5d44:	35313332 	ldrcc	r3, [r1, #-818]!	; 0xfffffcce
    5d48:	332b6537 			; <UNDEFINED> instruction: 0x332b6537
    5d4c:	33463830 	movtcc	r3, #26672	; 0x6830
    5d50:	45007832 	strmi	r7, [r0, #-2098]	; 0xfffff7ce
    5d54:	31495458 	cmpcc	r9, r8, asr r4
    5d58:	32312032 	eorscc	r2, r1, #50	; 0x32
    5d5c:	615f5f00 	cmpvs	pc, r0, lsl #30
    5d60:	5f5f6d72 	svcpl	0x005f6d72
    5d64:	5f003120 	svcpl	0x00003120
    5d68:	4152465f 	cmpmi	r2, pc, asr r6
    5d6c:	455f5443 	ldrbmi	r5, [pc, #-1091]	; 5931 <_Min_Stack_Size+0x5531>
    5d70:	4c495350 	mcrrmi	3, 5, r5, r9, cr0
    5d74:	5f5f4e4f 	svcpl	0x005f4e4f
    5d78:	31783020 	cmncc	r8, r0, lsr #32
    5d7c:	35312d50 	ldrcc	r2, [r1, #-3408]!	; 0xfffff2b0
    5d80:	5f5f0052 	svcpl	0x005f0052
    5d84:	33544c46 	cmpcc	r4, #17920	; 0x4600
    5d88:	494d5f32 	stmdbmi	sp, {r1, r4, r5, r8, r9, sl, fp, ip, lr}^
    5d8c:	30315f4e 	eorscc	r5, r1, lr, asr #30
    5d90:	5058455f 	subspl	r4, r8, pc, asr r5
    5d94:	28205f5f 	stmdacs	r0!, {r0, r1, r2, r3, r4, r6, r8, r9, sl, fp, ip, lr}
    5d98:	2937332d 	ldmdbcs	r7!, {r0, r2, r3, r5, r8, r9, ip, sp}
    5d9c:	45525f00 	ldrbmi	r5, [r2, #-3840]	; 0xfffff100
    5da0:	5f544e45 	svcpl	0x00544e45
    5da4:	4f544357 	svcmi	0x00544357
    5da8:	535f424d 	cmppl	pc, #-805306364	; 0xd0000004
    5dac:	45544154 	ldrbmi	r4, [r4, #-340]	; 0xfffffeac
    5db0:	72747028 	rsbsvc	r7, r4, #40	; 0x28
    5db4:	28282029 	stmdacs	r8!, {r0, r3, r5, sp}
    5db8:	29727470 	ldmdbcs	r2!, {r4, r5, r6, sl, ip, sp, lr}^
    5dbc:	6d5f3e2d 	ldclvs	14, cr3, [pc, #-180]	; 5d10 <_Min_Stack_Size+0x5910>
    5dc0:	2d637369 	stclcs	3, cr7, [r3, #-420]!	; 0xfffffe5c
    5dc4:	63775f3e 	cmnvs	r7, #62, 30	; 0xf8
    5dc8:	626d6f74 	rsbvs	r6, sp, #116, 30	; 0x1d0
    5dcc:	6174735f 	cmnvs	r4, pc, asr r3
    5dd0:	00296574 	eoreq	r6, r9, r4, ror r5
    5dd4:	53495f5f 	movtpl	r5, #40799	; 0x9f5f
    5dd8:	5f435f4f 	svcpl	0x00435f4f
    5ddc:	49534956 	ldmdbmi	r3, {r1, r2, r4, r6, r8, fp, lr}^
    5de0:	20454c42 	subcs	r4, r5, r2, asr #24
    5de4:	31313032 	teqcc	r1, r2, lsr r0
    5de8:	52415500 	subpl	r5, r1, #0, 10
    5dec:	28203554 	stmdacs	r0!, {r2, r4, r6, r8, sl, ip, sp}
    5df0:	41535528 	cmpmi	r3, r8, lsr #10
    5df4:	545f5452 	ldrbpl	r5, [pc], #-1106	; 5dfc <_Min_Stack_Size+0x59fc>
    5df8:	64657079 	strbtvs	r7, [r5], #-121	; 0xffffff87
    5dfc:	745f6665 	ldrbvc	r6, [pc], #-1637	; 5e04 <_Min_Stack_Size+0x5a04>
    5e00:	55292a20 	strpl	r2, [r9, #-2592]!	; 0xfffff5e0
    5e04:	35545241 	ldrbcc	r5, [r4, #-577]	; 0xfffffdbf
    5e08:	5341425f 	movtpl	r4, #4703	; 0x125f
    5e0c:	5f002945 	svcpl	0x00002945
    5e10:	4d52415f 	ldfmie	f4, [r2, #-380]	; 0xfffffe84
    5e14:	3150465f 	cmpcc	r0, pc, asr r6
    5e18:	4f465f36 	svcmi	0x00465f36
    5e1c:	54414d52 	strbpl	r4, [r1], #-3410	; 0xfffff2ae
    5e20:	544c415f 	strbpl	r4, [ip], #-351	; 0xfffffea1
    5e24:	414e5245 	cmpmi	lr, r5, asr #4
    5e28:	45564954 	ldrbmi	r4, [r6, #-2388]	; 0xfffff6ac
    5e2c:	54584500 	ldrbpl	r4, [r8], #-1280	; 0xfffffb00
    5e30:	44503549 	ldrbmi	r3, [r0], #-1353	; 0xfffffab7
    5e34:	45282035 	strmi	r2, [r8, #-53]!	; 0xffffffcb
    5e38:	5f495458 	svcpl	0x00495458
    5e3c:	4f495047 	svcmi	0x00495047
    5e40:	70614d5f 	rsbvc	r4, r1, pc, asr sp
    5e44:	676e6970 			; <UNDEFINED> instruction: 0x676e6970
    5e48:	7b29745f 	blvc	a62fcc <_Min_Stack_Size+0xa62bcc>
    5e4c:	49545845 	ldmdbmi	r4, {r0, r2, r6, fp, ip, lr}^
    5e50:	47202c35 			; <UNDEFINED> instruction: 0x47202c35
    5e54:	444f4950 	strbmi	r4, [pc], #-2384	; 5e5c <_Min_Stack_Size+0x5a5c>
    5e58:	5047202c 	subpl	r2, r7, ip, lsr #32
    5e5c:	505f4f49 	subspl	r4, pc, r9, asr #30
    5e60:	355f4e49 	ldrbcc	r4, [pc, #-3657]	; 501f <_Min_Stack_Size+0x4c1f>
    5e64:	5845202c 	stmdapl	r5, {r2, r3, r5, sp}^
    5e68:	5f354954 	svcpl	0x00354954
    5e6c:	7d515249 	lfmvc	f5, 2, [r1, #-292]	; 0xfffffedc
    5e70:	465f5f00 	ldrbmi	r5, [pc], -r0, lsl #30
    5e74:	49445342 	stmdbmi	r4, {r1, r6, r8, r9, ip, lr}^
    5e78:	29732844 	ldmdbcs	r3!, {r2, r6, fp, sp}^
    5e7c:	72747320 	rsbsvc	r7, r4, #32, 6	; 0x80000000
    5e80:	20746375 	rsbscs	r6, r4, r5, ror r3
    5e84:	61685f5f 	cmnvs	r8, pc, asr pc
    5e88:	5f006b63 	svcpl	0x00006b63
    5e8c:	42444c5f 	submi	r4, r4, #24320	; 0x5f00
    5e90:	4f4e5f4c 	svcmi	0x004e5f4c
    5e94:	4d5f4d52 	ldclmi	13, cr4, [pc, #-328]	; 5d54 <_Min_Stack_Size+0x5954>
    5e98:	5f5f5841 	svcpl	0x005f5841
    5e9c:	372e3120 	strcc	r3, [lr, -r0, lsr #2]!
    5ea0:	39363739 	ldmdbcc	r6!, {r0, r3, r4, r5, r8, r9, sl, ip, sp}
    5ea4:	34333133 	ldrtcc	r3, [r3], #-307	; 0xfffffecd
    5ea8:	33323638 	teqcc	r2, #56, 12	; 0x3800000
    5eac:	65373531 	ldrvs	r3, [r7, #-1329]!	; 0xfffffacf
    5eb0:	3830332b 	ldmdacc	r0!, {r0, r1, r3, r5, r8, r9, ip, sp}
    5eb4:	4e49004c 	cdpmi	0, 4, cr0, cr9, cr12, {2}
    5eb8:	41465f54 	cmpmi	r6, r4, asr pc
    5ebc:	34365453 	ldrtcc	r5, [r6], #-1107	; 0xfffffbad
    5ec0:	4e494d5f 	mcrmi	13, 2, r4, cr9, cr15, {2}
    5ec4:	5f2d2820 	svcpl	0x002d2820
    5ec8:	544e495f 	strbpl	r4, [lr], #-2399	; 0xfffff6a1
    5ecc:	5341465f 	movtpl	r4, #5727	; 0x165f
    5ed0:	5f343654 	svcpl	0x00343654
    5ed4:	5f58414d 	svcpl	0x0058414d
    5ed8:	202d205f 	eorcs	r2, sp, pc, asr r0
    5edc:	5f002931 	svcpl	0x00002931
    5ee0:	4843414d 	stmdami	r3, {r0, r2, r3, r6, r8, lr}^
    5ee4:	5f454e49 	svcpl	0x00454e49
    5ee8:	4645445f 			; <UNDEFINED> instruction: 0x4645445f
    5eec:	544c5541 	strbpl	r5, [ip], #-1345	; 0xfffffabf
    5ef0:	5059545f 	subspl	r5, r9, pc, asr r4
    5ef4:	485f5345 	ldmdami	pc, {r0, r2, r6, r8, r9, ip, lr}^	; <UNPREDICTABLE>
    5ef8:	5f5f0020 	svcpl	0x005f0020
    5efc:	47474942 	strbmi	r4, [r7, -r2, asr #18]
    5f00:	5f545345 	svcpl	0x00545345
    5f04:	47494c41 	strbmi	r4, [r9, -r1, asr #24]
    5f08:	4e454d4e 	cdpmi	13, 4, cr4, cr5, cr14, {2}
    5f0c:	205f5f54 	subscs	r5, pc, r4, asr pc	; <UNPREDICTABLE>
    5f10:	475f0038 	smmlarmi	pc, r8, r0, r0	; <UNPREDICTABLE>
    5f14:	505f4343 	subspl	r4, pc, r3, asr #6
    5f18:	49445254 	stmdbmi	r4, {r2, r4, r6, r9, ip, lr}^
    5f1c:	545f4646 	ldrbpl	r4, [pc], #-1606	; 5f24 <_Min_Stack_Size+0x5b24>
    5f20:	5f5f0020 	svcpl	0x005f0020
    5f24:	43554e47 	cmpmi	r5, #1136	; 0x470
    5f28:	454b494c 	strbmi	r4, [fp, #-2380]	; 0xfffff6b4
    5f2c:	4955425f 	ldmdbmi	r5, {r0, r1, r2, r3, r4, r6, r9, lr}^
    5f30:	4e49544c 	cdpmi	4, 4, cr5, cr9, cr12, {2}
    5f34:	58454e5f 	stmdapl	r5, {r0, r1, r2, r3, r4, r6, r9, sl, fp, lr}^
    5f38:	52415f54 	subpl	r5, r1, #84, 30	; 0x150
    5f3c:	00312047 	eorseq	r2, r1, r7, asr #32
    5f40:	4f495047 	svcmi	0x00495047
    5f44:	4e49505f 	mcrmi	0, 2, r5, cr9, cr15, {2}
    5f48:	2820315f 	stmdacs	r0!, {r0, r1, r2, r3, r4, r6, r8, ip, sp}
    5f4c:	6e697528 	cdpvs	5, 6, cr7, cr9, cr8, {1}
    5f50:	5f363174 	svcpl	0x00363174
    5f54:	30202974 	eorcc	r2, r0, r4, ror r9
    5f58:	30303078 	eorscc	r3, r0, r8, ror r0
    5f5c:	5f002932 	svcpl	0x00002932
    5f60:	5f41545f 	svcpl	0x0041545f
    5f64:	54494249 	strbpl	r4, [r9], #-585	; 0xfffffdb7
    5f68:	36205f5f 	qsaxcc	r5, r0, pc	; <UNPREDICTABLE>
    5f6c:	58450034 	stmdapl	r5, {r2, r4, r5}^
    5f70:	50344954 	eorspl	r4, r4, r4, asr r9
    5f74:	28203441 	stmdacs	r0!, {r0, r6, sl, ip, sp}
    5f78:	49545845 	ldmdbmi	r4, {r0, r2, r6, fp, ip, lr}^
    5f7c:	4950475f 	ldmdbmi	r0, {r0, r1, r2, r3, r4, r6, r8, r9, sl, lr}^
    5f80:	614d5f4f 	cmpvs	sp, pc, asr #30
    5f84:	6e697070 	mcrvs	0, 3, r7, cr9, cr0, {3}
    5f88:	29745f67 	ldmdbcs	r4!, {r0, r1, r2, r5, r6, r8, r9, sl, fp, ip, lr}^
    5f8c:	5458457b 	ldrbpl	r4, [r8], #-1403	; 0xfffffa85
    5f90:	202c3449 	eorcs	r3, ip, r9, asr #8
    5f94:	4f495047 	svcmi	0x00495047
    5f98:	47202c41 	strmi	r2, [r0, -r1, asr #24]!
    5f9c:	5f4f4950 	svcpl	0x004f4950
    5fa0:	5f4e4950 	svcpl	0x004e4950
    5fa4:	45202c34 	strmi	r2, [r0, #-3124]!	; 0xfffff3cc
    5fa8:	34495458 	strbcc	r5, [r9], #-1112	; 0xfffffba8
    5fac:	5152495f 	cmppl	r2, pc, asr r9
    5fb0:	5453007d 	ldrbpl	r0, [r3], #-125	; 0xffffff83
    5fb4:	2032334d 	eorscs	r3, r2, sp, asr #6
    5fb8:	5f5f0031 	svcpl	0x005f0031
    5fbc:	5341454c 	movtpl	r4, #5452	; 0x154c
    5fc0:	20343654 	eorscs	r3, r4, r4, asr r6
    5fc4:	226c6c22 	rsbcs	r6, ip, #8704	; 0x2200
    5fc8:	54584500 	ldrbpl	r4, [r8], #-1280	; 0xfffffb00
    5fcc:	34203449 	strtcc	r3, [r0], #-1097	; 0xfffffbb7
    5fd0:	725f5f00 	subsvc	r5, pc, #0, 30
    5fd4:	746e6565 	strbtvc	r6, [lr], #-1381	; 0xfffffa9b
    5fd8:	7373615f 	cmnvc	r3, #-1073741801	; 0xc0000017
    5fdc:	28747265 	ldmdacs	r4!, {r0, r2, r5, r6, r9, ip, sp, lr}^
    5fe0:	28202978 	stmdacs	r0!, {r3, r4, r5, r6, r8, fp, sp}
    5fe4:	20297828 	eorcs	r7, r9, r8, lsr #16
    5fe8:	7628203f 			; <UNDEFINED> instruction: 0x7628203f
    5fec:	2964696f 	stmdbcs	r4!, {r0, r1, r2, r3, r5, r6, r8, fp, sp, lr}^
    5ff0:	203a2030 	eorscs	r2, sl, r0, lsr r0
    5ff4:	73615f5f 	cmnvc	r1, #380	; 0x17c
    5ff8:	74726573 	ldrbtvc	r6, [r2], #-1395	; 0xfffffa8d
    5ffc:	6e75665f 	mrcvs	6, 3, r6, cr5, cr15, {2}
    6000:	5f5f2863 	svcpl	0x005f2863
    6004:	454c4946 	strbmi	r4, [ip, #-2374]	; 0xfffff6ba
    6008:	202c5f5f 	eorcs	r5, ip, pc, asr pc
    600c:	494c5f5f 	stmdbmi	ip, {r0, r1, r2, r3, r4, r6, r8, r9, sl, fp, ip, lr}^
    6010:	5f5f454e 	svcpl	0x005f454e
    6014:	6328202c 			; <UNDEFINED> instruction: 0x6328202c
    6018:	20726168 	rsbscs	r6, r2, r8, ror #2
    601c:	2c30292a 			; <UNDEFINED> instruction: 0x2c30292a
    6020:	45522220 	ldrbmi	r2, [r2, #-544]	; 0xfffffde0
    6024:	20544e45 	subscs	r4, r4, r5, asr #28
    6028:	6c6c616d 	stfvse	f6, [ip], #-436	; 0xfffffe4c
    602c:	7320636f 			; <UNDEFINED> instruction: 0x7320636f
    6030:	65636375 	strbvs	r6, [r3, #-885]!	; 0xfffffc8b
    6034:	64656465 	strbtvs	r6, [r5], #-1125	; 0xfffffb9b
    6038:	00292922 	eoreq	r2, r9, r2, lsr #18
    603c:	52415f5f 	subpl	r5, r1, #380	; 0x17c
    6040:	45465f4d 	strbmi	r5, [r6, #-3917]	; 0xfffff0b3
    6044:	52555441 	subspl	r5, r5, #1090519040	; 0x41000000
    6048:	52515f45 	subspl	r5, r1, #276	; 0x114
    604c:	00584d44 	subseq	r4, r8, r4, asr #26
    6050:	5641485f 			; <UNDEFINED> instruction: 0x5641485f
    6054:	43435f45 	movtmi	r5, #16197	; 0x3f45
    6058:	484e495f 	stmdami	lr, {r0, r1, r2, r3, r4, r6, r8, fp, lr}^
    605c:	54494249 	strbpl	r4, [r9], #-585	; 0xfffffdb7
    6060:	4f4f4c5f 	svcmi	0x004f4c5f
    6064:	4f545f50 	svcmi	0x00545f50
    6068:	42494c5f 	submi	r4, r9, #24320	; 0x5f00
    606c:	4c4c4143 	stfmie	f4, [ip], {67}	; 0x43
    6070:	5f003120 	svcpl	0x00003120
    6074:	4d52415f 	ldfmie	f4, [r2, #-380]	; 0xfffffe84
    6078:	4352415f 	cmpmi	r2, #-1073741801	; 0xc0000017
    607c:	53495f48 	movtpl	r5, #40776	; 0x9f48
    6080:	48545f41 	ldmdami	r4, {r0, r6, r8, r9, sl, fp, ip, lr}^
    6084:	20424d55 	subcs	r4, r2, r5, asr sp
    6088:	46410032 			; <UNDEFINED> instruction: 0x46410032
    608c:	435f4f49 	cmpmi	pc, #292	; 0x124
    6090:	455f4b4c 	ldrbmi	r4, [pc, #-2892]	; 554c <_Min_Stack_Size+0x514c>
    6094:	2029284e 	eorcs	r2, r9, lr, asr #16
    6098:	43435228 	movtmi	r5, #12840	; 0x3228
    609c:	50413e2d 	subpl	r3, r1, sp, lsr #28
    60a0:	4e453242 	cdpmi	2, 4, cr3, cr5, cr2, {2}
    60a4:	3d7c2052 	ldclcc	0, cr2, [ip, #-328]!	; 0xfffffeb8
    60a8:	3c312820 	ldccc	8, cr2, [r1], #-128	; 0xffffff80
    60ac:	2929303c 	stmdbcs	r9!, {r2, r3, r4, r5, ip, sp}
    60b0:	4c5f5f00 	mrrcmi	15, 0, r5, pc, cr0	; <UNPREDICTABLE>
    60b4:	5f474e4f 	svcpl	0x00474e4f
    60b8:	474e4f4c 	strbmi	r4, [lr, -ip, asr #30]
    60bc:	58414d5f 	stmdapl	r1, {r0, r1, r2, r3, r4, r6, r8, sl, fp, lr}^
    60c0:	30205f5f 	eorcc	r5, r0, pc, asr pc
    60c4:	66663778 			; <UNDEFINED> instruction: 0x66663778
    60c8:	66666666 	strbtvs	r6, [r6], -r6, ror #12
    60cc:	66666666 	strbtvs	r6, [r6], -r6, ror #12
    60d0:	66666666 	strbtvs	r6, [r6], -r6, ror #12
    60d4:	004c4c66 	subeq	r4, ip, r6, ror #24
    60d8:	5f434352 	svcpl	0x00434352
    60dc:	4f495047 	svcmi	0x00495047
    60e0:	4c435f44 	mcrrmi	15, 4, r5, r3, cr4
    60e4:	4e455f4b 	cdpmi	15, 4, cr5, cr5, cr11, {2}
    60e8:	28202928 	stmdacs	r0!, {r3, r5, r8, fp, sp}
    60ec:	2d434352 	stclcs	3, cr4, [r3, #-328]	; 0xfffffeb8
    60f0:	4250413e 	subsmi	r4, r0, #-2147483633	; 0x8000000f
    60f4:	524e4532 	subpl	r4, lr, #209715200	; 0xc800000
    60f8:	203d7c20 	eorscs	r7, sp, r0, lsr #24
    60fc:	3c3c3128 	ldfccs	f3, [ip], #-160	; 0xffffff60
    6100:	00292935 	eoreq	r2, r9, r5, lsr r9
    6104:	72615f5f 	rsbvc	r5, r1, #380	; 0x17c
    6108:	79745f67 	ldmdbvc	r4!, {r0, r1, r2, r5, r6, r8, r9, sl, fp, ip, lr}^
    610c:	745f6570 	ldrbvc	r6, [pc], #-1392	; 6114 <_Min_Stack_Size+0x5d14>
    6110:	61286761 			; <UNDEFINED> instruction: 0x61286761
    6114:	6b5f6772 	blvs	17dfee4 <_Min_Stack_Size+0x17dfae4>
    6118:	2c646e69 	stclcs	14, cr6, [r4], #-420	; 0xfffffe5c
    611c:	5f677261 	svcpl	0x00677261
    6120:	2c786469 	cfldrdcs	mvd6, [r8], #-420	; 0xfffffe5c
    6124:	65707974 	ldrbvs	r7, [r0, #-2420]!	; 0xfffff68c
    6128:	6761745f 			; <UNDEFINED> instruction: 0x6761745f
    612c:	7864695f 	stmdavc	r4!, {r0, r1, r2, r3, r4, r6, r8, fp, sp, lr}^
    6130:	53002029 	movwpl	r2, #41	; 0x29
    6134:	5f314950 	svcpl	0x00314950
    6138:	20515249 	subscs	r5, r1, r9, asr #4
    613c:	5f003533 	svcpl	0x00003533
    6140:	5254535f 	subspl	r5, r4, #2080374785	; 0x7c000001
    6144:	28474e49 	stmdacs	r7, {r0, r3, r6, r9, sl, fp, lr}^
    6148:	23202978 			; <UNDEFINED> instruction: 0x23202978
    614c:	68730078 	ldmdavs	r3!, {r3, r4, r5, r6}^
    6150:	0074726f 	rsbseq	r7, r4, pc, ror #4
    6154:	4545525f 	strbmi	r5, [r5, #-607]	; 0xfffffda1
    6158:	495f544e 	ldmdbmi	pc, {r1, r2, r3, r6, sl, ip, lr}^	; <UNPREDICTABLE>
    615c:	5f54494e 	svcpl	0x0054494e
    6160:	28525450 	ldmdacs	r2, {r4, r6, sl, ip, lr}^
    6164:	29726176 	ldmdbcs	r2!, {r1, r2, r4, r5, r6, r8, sp, lr}^
    6168:	6d207b20 	vstmdbvs	r0!, {d7-d22}
    616c:	65736d65 	ldrbvs	r6, [r3, #-3429]!	; 0xfffff29b
    6170:	76282874 			; <UNDEFINED> instruction: 0x76282874
    6174:	2c297261 	sfmcs	f7, 4, [r9], #-388	; 0xfffffe7c
    6178:	202c3020 	eorcs	r3, ip, r0, lsr #32
    617c:	657a6973 	ldrbvs	r6, [sl, #-2419]!	; 0xfffff68d
    6180:	2a28666f 	bcs	a1fb44 <_Min_Stack_Size+0xa1f744>
    6184:	72617628 	rsbvc	r7, r1, #40, 12	; 0x2800000
    6188:	3b292929 	blcc	a50634 <_Min_Stack_Size+0xa50234>
    618c:	45525f20 	ldrbmi	r5, [r2, #-3872]	; 0xfffff0e0
    6190:	5f544e45 	svcpl	0x00544e45
    6194:	54494e49 	strbpl	r4, [r9], #-3657	; 0xfffff1b7
    6198:	5254505f 	subspl	r5, r4, #95	; 0x5f
    619c:	52455a5f 	subpl	r5, r5, #389120	; 0x5f000
    61a0:	2844454f 	stmdacs	r4, {r0, r1, r2, r3, r6, r8, sl, lr}^
    61a4:	29726176 	ldmdbcs	r2!, {r1, r2, r4, r5, r6, r8, sp, lr}^
    61a8:	007d203b 	rsbseq	r2, sp, fp, lsr r0
    61ac:	4f435f5f 	svcmi	0x00435f5f
    61b0:	49525950 	ldmdbmi	r2, {r4, r6, r8, fp, ip, lr}^
    61b4:	28544847 	ldmdacs	r4, {r0, r1, r2, r6, fp, lr}^
    61b8:	73202973 			; <UNDEFINED> instruction: 0x73202973
    61bc:	63757274 	cmnvs	r5, #116, 4	; 0x40000007
    61c0:	5f5f2074 	svcpl	0x005f2074
    61c4:	6b636168 	blvs	18de76c <_Min_Stack_Size+0x18de36c>
    61c8:	555f5f00 	ldrbpl	r5, [pc, #-3840]	; 52d0 <_Min_Stack_Size+0x4ed0>
    61cc:	43415246 	movtmi	r5, #4678	; 0x1246
    61d0:	42495f54 	submi	r5, r9, #84, 30	; 0x150
    61d4:	5f5f5449 	svcpl	0x005f5449
    61d8:	5f003020 	svcpl	0x00003020
    61dc:	4d52415f 	ldfmie	f4, [r2, #-380]	; 0xfffffe84
    61e0:	4232335f 	eorsmi	r3, r2, #2080374785	; 0x7c000001
    61e4:	535f5449 	cmppl	pc, #1224736768	; 0x49000000
    61e8:	45544154 	ldrbmi	r4, [r4, #-340]	; 0xfffffeac
    61ec:	5f003120 	svcpl	0x00003120
    61f0:	544e495f 	strbpl	r4, [lr], #-2399	; 0xfffff6a1
    61f4:	28435f38 	stmdacs	r3, {r3, r4, r5, r8, r9, sl, fp, ip, lr}^
    61f8:	63202963 			; <UNDEFINED> instruction: 0x63202963
    61fc:	4c5f5f00 	mrrcmi	15, 0, r5, pc, cr0	; <UNPREDICTABLE>
    6200:	43415246 	movtmi	r5, #4678	; 0x1246
    6204:	42495f54 	submi	r5, r9, #84, 30	; 0x150
    6208:	5f5f5449 	svcpl	0x005f5449
    620c:	5f003020 	svcpl	0x00003020
    6210:	44445453 	strbmi	r5, [r4], #-1107	; 0xfffffbad
    6214:	485f4645 	ldmdami	pc, {r0, r2, r6, r9, sl, lr}^	; <UNPREDICTABLE>
    6218:	4700205f 	smlsdmi	r0, pc, r0, r2	; <UNPREDICTABLE>
    621c:	5f4f4950 	svcpl	0x004f4950
    6220:	45455053 	strbmi	r5, [r5, #-83]	; 0xffffffad
    6224:	30315f44 	eorscc	r5, r1, r4, asr #30
    6228:	7830204d 	ldmdavc	r0!, {r0, r2, r3, r6, sp}
    622c:	30303030 	eorscc	r3, r0, r0, lsr r0
    6230:	31303030 	teqcc	r0, r0, lsr r0
    6234:	50470075 	subpl	r0, r7, r5, ror r0
    6238:	20434f49 	subcs	r4, r3, r9, asr #30
    623c:	50472828 	subpl	r2, r7, r8, lsr #16
    6240:	545f4f49 	ldrbpl	r4, [pc], #-3913	; 6248 <_Min_Stack_Size+0x5e48>
    6244:	64657079 	strbtvs	r7, [r5], #-121	; 0xffffff87
    6248:	745f6665 	ldrbvc	r6, [pc], #-1637	; 6250 <_Min_Stack_Size+0x5e50>
    624c:	47292a20 	strmi	r2, [r9, -r0, lsr #20]!
    6250:	434f4950 	movtmi	r4, #63824	; 0xf950
    6254:	5341425f 	movtpl	r4, #4703	; 0x125f
    6258:	5f002945 	svcpl	0x00002945
    625c:	4c42445f 	cfstrdmi	mvd4, [r2], {95}	; 0x5f
    6260:	4e494d5f 	mcrmi	13, 2, r4, cr9, cr15, {2}
    6264:	5058455f 	subspl	r4, r8, pc, asr r5
    6268:	28205f5f 	stmdacs	r0!, {r0, r1, r2, r3, r4, r6, r8, r9, sl, fp, ip, lr}
    626c:	3230312d 	eorscc	r3, r0, #1073741835	; 0x4000000b
    6270:	5f002931 	svcpl	0x00002931
    6274:	5a49535f 	bpl	125aff8 <_Min_Stack_Size+0x125abf8>
    6278:	20545f45 	subscs	r5, r4, r5, asr #30
    627c:	54584500 	ldrbpl	r4, [r8], #-1280	; 0xfffffb00
    6280:	42503149 	subsmi	r3, r0, #1073741842	; 0x40000012
    6284:	45282031 	strmi	r2, [r8, #-49]!	; 0xffffffcf
    6288:	5f495458 	svcpl	0x00495458
    628c:	4f495047 	svcmi	0x00495047
    6290:	70614d5f 	rsbvc	r4, r1, pc, asr sp
    6294:	676e6970 			; <UNDEFINED> instruction: 0x676e6970
    6298:	7b29745f 	blvc	a6341c <_Min_Stack_Size+0xa6301c>
    629c:	49545845 	ldmdbmi	r4, {r0, r2, r6, fp, ip, lr}^
    62a0:	47202c31 			; <UNDEFINED> instruction: 0x47202c31
    62a4:	424f4950 	submi	r4, pc, #80, 18	; 0x140000
    62a8:	5047202c 	subpl	r2, r7, ip, lsr #32
    62ac:	505f4f49 	subspl	r4, pc, r9, asr #30
    62b0:	315f4e49 	cmpcc	pc, r9, asr #28
    62b4:	5845202c 	stmdapl	r5, {r2, r3, r5, sp}^
    62b8:	5f314954 	svcpl	0x00314954
    62bc:	7d515249 	lfmvc	f5, 2, [r1, #-292]	; 0xfffffedc
    62c0:	705f5f00 	subsvc	r5, pc, r0, lsl #30
    62c4:	746e6972 	strbtvc	r6, [lr], #-2418	; 0xfffff68e
    62c8:	696c3066 	stmdbvs	ip!, {r1, r2, r5, r6, ip, sp}^
    62cc:	6628656b 	strtvs	r6, [r8], -fp, ror #10
    62d0:	7261746d 	rsbvc	r7, r1, #1828716544	; 0x6d000000
    62d4:	69662c67 	stmdbvs	r6!, {r0, r1, r2, r5, r6, sl, fp, sp}^
    62d8:	76747372 			; <UNDEFINED> instruction: 0x76747372
    62dc:	72617261 	rsbvc	r7, r1, #268435462	; 0x10000006
    62e0:	00202967 	eoreq	r2, r0, r7, ror #18
    62e4:	4f495047 	svcmi	0x00495047
    62e8:	444f4d5f 	strbmi	r4, [pc], #-3423	; 62f0 <_Min_Stack_Size+0x5ef0>
    62ec:	554f5f45 	strbpl	r5, [pc, #-3909]	; 53af <_Min_Stack_Size+0x4faf>
    62f0:	54555054 	ldrbpl	r5, [r5], #-84	; 0xffffffac
    62f4:	2050505f 	subscs	r5, r0, pc, asr r0
    62f8:	30307830 	eorscc	r7, r0, r0, lsr r8
    62fc:	30303030 	eorscc	r3, r0, r0, lsr r0
    6300:	5f003430 	svcpl	0x00003430
    6304:	544c465f 	strbpl	r4, [ip], #-1631	; 0xfffff9a1
    6308:	445f3233 	ldrbmi	r3, [pc], #-563	; 6310 <_Min_Stack_Size+0x5f10>
    630c:	5f5f4749 	svcpl	0x005f4749
    6310:	45003620 	strmi	r3, [r0, #-1568]	; 0xfffff9e0
    6314:	36495458 			; <UNDEFINED> instruction: 0x36495458
    6318:	20364150 	eorscs	r4, r6, r0, asr r1
    631c:	54584528 	ldrbpl	r4, [r8], #-1320	; 0xfffffad8
    6320:	50475f49 	subpl	r5, r7, r9, asr #30
    6324:	4d5f4f49 	ldclmi	15, cr4, [pc, #-292]	; 6208 <_Min_Stack_Size+0x5e08>
    6328:	69707061 	ldmdbvs	r0!, {r0, r5, r6, ip, sp, lr}^
    632c:	745f676e 	ldrbvc	r6, [pc], #-1902	; 6334 <_Min_Stack_Size+0x5f34>
    6330:	58457b29 	stmdapl	r5, {r0, r3, r5, r8, r9, fp, ip, sp, lr}^
    6334:	2c364954 			; <UNDEFINED> instruction: 0x2c364954
    6338:	49504720 	ldmdbmi	r0, {r5, r8, r9, sl, lr}^
    633c:	202c414f 	eorcs	r4, ip, pc, asr #2
    6340:	4f495047 	svcmi	0x00495047
    6344:	4e49505f 	mcrmi	0, 2, r5, cr9, cr15, {2}
    6348:	202c365f 	eorcs	r3, ip, pc, asr r6
    634c:	49545845 	ldmdbmi	r4, {r0, r2, r6, fp, ip, lr}^
    6350:	52495f36 	subpl	r5, r9, #54, 30	; 0xd8
    6354:	5f007d51 	svcpl	0x00007d51
    6358:	6165645f 	cmnvs	r5, pc, asr r4
    635c:	5f203264 	svcpl	0x00203264
    6360:	7474615f 	ldrbtvc	r6, [r4], #-351	; 0xfffffea1
    6364:	75626972 	strbvc	r6, [r2, #-2418]!	; 0xfffff68e
    6368:	5f5f6574 	svcpl	0x005f6574
    636c:	5f5f2828 	svcpl	0x005f2828
    6370:	65726f6e 	ldrbvs	r6, [r2, #-3950]!	; 0xfffff092
    6374:	6e727574 	mrcvs	5, 3, r7, cr2, cr4, {3}
    6378:	29295f5f 	stmdbcs	r9!, {r0, r1, r2, r3, r4, r6, r8, r9, sl, fp, ip, lr}
    637c:	635f5f00 	cmpvs	pc, #0, 30
    6380:	61706d6f 	cmnvs	r0, pc, ror #26
    6384:	6e665f72 	mcrvs	15, 3, r5, cr6, cr2, {3}
    6388:	645f745f 	ldrbvs	r7, [pc], #-1119	; 6390 <_Min_Stack_Size+0x5f90>
    638c:	6e696665 	cdpvs	6, 6, cr6, cr9, cr5, {3}
    6390:	00206465 	eoreq	r6, r0, r5, ror #8
    6394:	544e4955 	strbpl	r4, [lr], #-2389	; 0xfffff6ab
    6398:	5f58414d 	svcpl	0x0058414d
    639c:	29782843 	ldmdbcs	r8!, {r0, r1, r6, fp, sp}^
    63a0:	555f5f20 	ldrbpl	r5, [pc, #-3872]	; 5488 <_Min_Stack_Size+0x5088>
    63a4:	4d544e49 	ldclmi	14, cr4, [r4, #-292]	; 0xfffffedc
    63a8:	435f5841 	cmpmi	pc, #4259840	; 0x410000
    63ac:	00297828 	eoreq	r7, r9, r8, lsr #16
    63b0:	494d5f5f 	stmdbmi	sp, {r0, r1, r2, r3, r4, r6, r8, r9, sl, fp, ip, lr}^
    63b4:	565f4353 			; <UNDEFINED> instruction: 0x565f4353
    63b8:	42495349 	submi	r5, r9, #603979777	; 0x24000001
    63bc:	3120454c 			; <UNDEFINED> instruction: 0x3120454c
    63c0:	455f5f00 	ldrbmi	r5, [pc, #-3840]	; 54c8 <_Min_Stack_Size+0x50c8>
    63c4:	5f005058 	svcpl	0x00005058
    63c8:	6e695f5f 	mcrvs	15, 3, r5, cr9, cr15, {2}
    63cc:	5f343674 	svcpl	0x00343674
    63d0:	65645f74 	strbvs	r5, [r4, #-3956]!	; 0xfffff08c
    63d4:	656e6966 	strbvs	r6, [lr, #-2406]!	; 0xfffff69a
    63d8:	00312064 	eorseq	r2, r1, r4, rrx
    63dc:	444c5f5f 	strbmi	r5, [ip], #-3935	; 0xfffff0a1
    63e0:	485f4c42 	ldmdami	pc, {r1, r6, sl, fp, lr}^	; <UNPREDICTABLE>
    63e4:	445f5341 	ldrbmi	r5, [pc], #-833	; 63ec <_Min_Stack_Size+0x5fec>
    63e8:	524f4e45 	subpl	r4, pc, #1104	; 0x450
    63ec:	205f5f4d 	subscs	r5, pc, sp, asr #30
    63f0:	5f5f0031 	svcpl	0x005f0031
    63f4:	45564148 	ldrbmi	r4, [r6, #-328]	; 0xfffffeb8
    63f8:	4550535f 	ldrbmi	r5, [r0, #-863]	; 0xfffffca1
    63fc:	414c5543 	cmpmi	ip, r3, asr #10
    6400:	4e4f4954 			; <UNDEFINED> instruction: 0x4e4f4954
    6404:	4641535f 			; <UNDEFINED> instruction: 0x4641535f
    6408:	41565f45 	cmpmi	r6, r5, asr #30
    640c:	2045554c 	subcs	r5, r5, ip, asr #10
    6410:	5f5f0031 	svcpl	0x005f0031
    6414:	43434153 	movtmi	r4, #12627	; 0x3153
    6418:	465f4d55 			; <UNDEFINED> instruction: 0x465f4d55
    641c:	5f544942 	svcpl	0x00544942
    6420:	0037205f 	eorseq	r2, r7, pc, asr r0
    6424:	43475f5f 	movtmi	r5, #32607	; 0x7f5f
    6428:	41485f43 	cmpmi	r8, r3, asr #30
    642c:	535f4556 	cmppl	pc, #360710144	; 0x15800000
    6430:	5f434e59 	svcpl	0x00434e59
    6434:	504d4f43 	subpl	r4, sp, r3, asr #30
    6438:	5f455241 	svcpl	0x00455241
    643c:	5f444e41 	svcpl	0x00444e41
    6440:	50415753 	subpl	r5, r1, r3, asr r7
    6444:	3120345f 			; <UNDEFINED> instruction: 0x3120345f
    6448:	49564e00 	ldmdbmi	r6, {r9, sl, fp, lr}^
    644c:	58455f43 	stmdapl	r5, {r0, r1, r6, r8, r9, sl, fp, ip, lr}^
    6450:	5f324954 	svcpl	0x00324954
    6454:	5f515249 	svcpl	0x00515249
    6458:	61736944 	cmnvs	r3, r4, asr #18
    645c:	20656c62 	rsbcs	r6, r5, r2, ror #24
    6460:	49564e28 	ldmdbmi	r6, {r3, r5, r9, sl, fp, lr}^
    6464:	43495f43 	movtmi	r5, #40771	; 0x9f43
    6468:	20305245 	eorscs	r5, r0, r5, asr #4
    646c:	31203d7c 			; <UNDEFINED> instruction: 0x31203d7c
    6470:	29383c3c 	ldmdbcs	r8!, {r2, r3, r4, r5, sl, fp, ip, sp}
    6474:	42504100 	subsmi	r4, r0, #0, 2
    6478:	54535231 	ldrbpl	r5, [r3], #-561	; 0xfffffdcf
    647c:	5f5f0052 	svcpl	0x005f0052
    6480:	55434341 	strbpl	r4, [r3, #-833]	; 0xfffffcbf
    6484:	494d5f4d 	stmdbmi	sp, {r0, r2, r3, r6, r8, r9, sl, fp, ip, lr}^
    6488:	205f5f4e 	subscs	r5, pc, lr, asr #30
    648c:	58302d28 	ldmdapl	r0!, {r3, r5, r8, sl, fp, sp}
    6490:	35315031 	ldrcc	r5, [r1, #-49]!	; 0xffffffcf
    6494:	58302d4b 	ldmdapl	r0!, {r0, r1, r3, r6, r8, sl, fp, sp}
    6498:	35315031 	ldrcc	r5, [r1, #-49]!	; 0xffffffcf
    649c:	5f00294b 	svcpl	0x0000294b
    64a0:	554e475f 	strbpl	r4, [lr, #-1887]	; 0xfffff8a1
    64a4:	41565f43 	cmpmi	r6, r3, asr #30
    64a8:	53494c5f 	movtpl	r4, #40031	; 0x9c5f
    64ac:	4f435f54 	svcmi	0x00435f54
    64b0:	5441504d 	strbpl	r5, [r1], #-77	; 0xffffffb3
    64b4:	4c494249 	sfmmi	f4, 2, [r9], {73}	; 0x49
    64b8:	20595449 	subscs	r5, r9, r9, asr #8
    64bc:	5f5f0031 	svcpl	0x005f0031
    64c0:	5f4d5241 	svcpl	0x004d5241
    64c4:	54414546 	strbpl	r4, [r1], #-1350	; 0xfffffaba
    64c8:	5f455255 	svcpl	0x00455255
    64cc:	50595243 	subspl	r5, r9, r3, asr #4
    64d0:	5f004f54 	svcpl	0x00004f54
    64d4:	5a49535f 	bpl	125b258 <_Min_Stack_Size+0x125ae58>
    64d8:	5f464f45 	svcpl	0x00464f45
    64dc:	41484357 	cmpmi	r8, r7, asr r3
    64e0:	5f545f52 	svcpl	0x00545f52
    64e4:	0034205f 	eorseq	r2, r4, pc, asr r0
    64e8:	31425041 	cmpcc	r2, r1, asr #32
    64ec:	00524e45 	subseq	r4, r2, r5, asr #28
    64f0:	4349564e 	movtmi	r5, #38478	; 0x964e
    64f4:	5458455f 	ldrbpl	r4, [r8], #-1375	; 0xfffffaa1
    64f8:	495f3149 	ldmdbmi	pc, {r0, r3, r6, r8, ip, sp}^	; <UNPREDICTABLE>
    64fc:	445f5152 	ldrbmi	r5, [pc], #-338	; 6504 <_Min_Stack_Size+0x6104>
    6500:	62617369 	rsbvs	r7, r1, #-1543503871	; 0xa4000001
    6504:	2820656c 	stmdacs	r0!, {r2, r3, r5, r6, r8, sl, sp, lr}
    6508:	4349564e 	movtmi	r5, #38478	; 0x964e
    650c:	4543495f 	strbmi	r4, [r3, #-2399]	; 0xfffff6a1
    6510:	7c203052 	stcvc	0, cr3, [r0], #-328	; 0xfffffeb8
    6514:	3c31203d 	ldccc	0, cr2, [r1], #-244	; 0xffffff0c
    6518:	0029373c 	eoreq	r3, r9, ip, lsr r7
    651c:	49545845 	ldmdbmi	r4, {r0, r2, r6, fp, ip, lr}^
    6520:	37445037 	smlaldxcc	r5, r4, r7, r0
    6524:	58452820 	stmdapl	r5, {r5, fp, sp}^
    6528:	475f4954 			; <UNDEFINED> instruction: 0x475f4954
    652c:	5f4f4950 	svcpl	0x004f4950
    6530:	7070614d 	rsbsvc	r6, r0, sp, asr #2
    6534:	5f676e69 	svcpl	0x00676e69
    6538:	457b2974 	ldrbmi	r2, [fp, #-2420]!	; 0xfffff68c
    653c:	37495458 	smlsldcc	r5, r9, r8, r4
    6540:	5047202c 	subpl	r2, r7, ip, lsr #32
    6544:	2c444f49 	mcrrcs	15, 4, r4, r4, cr9
    6548:	49504720 	ldmdbmi	r0, {r5, r8, r9, sl, lr}^
    654c:	49505f4f 	ldmdbmi	r0, {r0, r1, r2, r3, r6, r8, r9, sl, fp, ip, lr}^
    6550:	2c375f4e 	ldccs	15, cr5, [r7], #-312	; 0xfffffec8
    6554:	54584520 	ldrbpl	r4, [r8], #-1312	; 0xfffffae0
    6558:	495f3749 	ldmdbmi	pc, {r0, r3, r6, r8, r9, sl, ip, sp}^	; <UNPREDICTABLE>
    655c:	007d5152 	rsbseq	r5, sp, r2, asr r1
    6560:	49555f5f 	ldmdbmi	r5, {r0, r1, r2, r3, r4, r6, r8, r9, sl, fp, ip, lr}^
    6564:	4c5f544e 	cfldrdmi	mvd5, [pc], {78}	; 0x4e
    6568:	54534145 	ldrbpl	r4, [r3], #-325	; 0xfffffebb
    656c:	4d5f3436 	cfldrdmi	mvd3, [pc, #-216]	; 649c <_Min_Stack_Size+0x609c>
    6570:	5f5f5841 	svcpl	0x005f5841
    6574:	66783020 	ldrbtvs	r3, [r8], -r0, lsr #32
    6578:	66666666 	strbtvs	r6, [r6], -r6, ror #12
    657c:	66666666 	strbtvs	r6, [r6], -r6, ror #12
    6580:	66666666 	strbtvs	r6, [r6], -r6, ror #12
    6584:	55666666 	strbpl	r6, [r6, #-1638]!	; 0xfffff99a
    6588:	5f004c4c 	svcpl	0x00004c4c
    658c:	4152465f 	cmpmi	r2, pc, asr r6
    6590:	495f5443 	ldmdbmi	pc, {r0, r1, r6, sl, ip, lr}^	; <UNPREDICTABLE>
    6594:	5f544942 	svcpl	0x00544942
    6598:	0030205f 	eorseq	r2, r0, pc, asr r0
    659c:	49545845 	ldmdbmi	r4, {r0, r2, r6, fp, ip, lr}^
    65a0:	495f3131 	ldmdbmi	pc, {r0, r4, r5, r8, ip, sp}^	; <UNPREDICTABLE>
    65a4:	34205152 	strtcc	r5, [r0], #-338	; 0xfffffeae
    65a8:	5f5f0030 	svcpl	0x005f0030
    65ac:	5f544e49 	svcpl	0x00544e49
    65b0:	54444957 	strbpl	r4, [r4], #-2391	; 0xfffff6a9
    65b4:	205f5f48 	subscs	r5, pc, r8, asr #30
    65b8:	5f003233 	svcpl	0x00003233
    65bc:	57454e5f 	smlsldpl	r4, r5, pc, lr	; <UNPREDICTABLE>
    65c0:	5f42494c 	svcpl	0x0042494c
    65c4:	43544150 	cmpmi	r4, #80, 2
    65c8:	56454c48 	strbpl	r4, [r5], -r8, asr #24
    65cc:	5f5f4c45 	svcpl	0x005f4c45
    65d0:	5f003020 	svcpl	0x00003020
    65d4:	636f6c5f 	cmnvs	pc, #24320	; 0x5f00
    65d8:	63615f6b 	cmnvs	r1, #428	; 0x1ac
    65dc:	72697571 	rsbvc	r7, r9, #473956352	; 0x1c400000
    65e0:	6f6c2865 	svcvs	0x006c2865
    65e4:	20296b63 	eorcs	r6, r9, r3, ror #22
    65e8:	65725f5f 	ldrbvs	r5, [r2, #-3935]!	; 0xfffff0a1
    65ec:	67726174 			; <UNDEFINED> instruction: 0x67726174
    65f0:	6c5f7465 	cfldrdvs	mvd7, [pc], {101}	; 0x65
    65f4:	5f6b636f 	svcpl	0x006b636f
    65f8:	75716361 	ldrbvc	r6, [r1, #-865]!	; 0xfffffc9f
    65fc:	28657269 	stmdacs	r5!, {r0, r3, r5, r6, r9, ip, sp, lr}^
    6600:	6b636f6c 	blvs	18e23b8 <_Min_Stack_Size+0x18e1fb8>
    6604:	5f5f0029 	svcpl	0x005f0029
    6608:	4544524f 	strbmi	r5, [r4, #-591]	; 0xfffffdb1
    660c:	494c5f52 	stmdbmi	ip, {r1, r4, r6, r8, r9, sl, fp, ip, lr}^
    6610:	454c5454 	strbmi	r5, [ip, #-1108]	; 0xfffffbac
    6614:	444e455f 	strbmi	r4, [lr], #-1375	; 0xfffffaa1
    6618:	5f4e4149 	svcpl	0x004e4149
    661c:	3231205f 	eorscc	r2, r1, #95	; 0x5f
    6620:	5f003433 	svcpl	0x00003433
    6624:	7a69735f 	bvc	1a633a8 <_Min_Stack_Size+0x1a62fa8>
    6628:	00745f65 	rsbseq	r5, r4, r5, ror #30
    662c:	49545845 	ldmdbmi	r4, {r0, r2, r6, fp, ip, lr}^
    6630:	41503331 	cmpmi	r0, r1, lsr r3
    6634:	28203331 	stmdacs	r0!, {r0, r4, r5, r8, r9, ip, sp}
    6638:	49545845 	ldmdbmi	r4, {r0, r2, r6, fp, ip, lr}^
    663c:	4950475f 	ldmdbmi	r0, {r0, r1, r2, r3, r4, r6, r8, r9, sl, lr}^
    6640:	614d5f4f 	cmpvs	sp, pc, asr #30
    6644:	6e697070 	mcrvs	0, 3, r7, cr9, cr0, {3}
    6648:	29745f67 	ldmdbcs	r4!, {r0, r1, r2, r5, r6, r8, r9, sl, fp, ip, lr}^
    664c:	5458457b 	ldrbpl	r4, [r8], #-1403	; 0xfffffa85
    6650:	2c333149 	ldfcss	f3, [r3], #-292	; 0xfffffedc
    6654:	49504720 	ldmdbmi	r0, {r5, r8, r9, sl, lr}^
    6658:	202c414f 	eorcs	r4, ip, pc, asr #2
    665c:	4f495047 	svcmi	0x00495047
    6660:	4e49505f 	mcrmi	0, 2, r5, cr9, cr15, {2}
    6664:	2c33315f 	ldfcss	f3, [r3], #-380	; 0xfffffe84
    6668:	54584520 	ldrbpl	r4, [r8], #-1312	; 0xfffffae0
    666c:	5f333149 	svcpl	0x00333149
    6670:	7d515249 	lfmvc	f5, 2, [r1, #-292]	; 0xfffffedc
    6674:	435f5f00 	cmpmi	pc, #0, 30
    6678:	55535f43 	ldrbpl	r5, [r3, #-3907]	; 0xfffff0bd
    667c:	524f5050 	subpl	r5, pc, #80	; 0x50
    6680:	495f5354 	ldmdbmi	pc, {r2, r4, r6, r8, r9, ip, lr}^	; <UNPREDICTABLE>
    6684:	4e494c4e 	cdpmi	12, 4, cr4, cr9, cr14, {2}
    6688:	00312045 	eorseq	r2, r1, r5, asr #32
    668c:	4f445f5f 	svcmi	0x00445f5f
    6690:	2c205354 	stccs	3, cr5, [r0], #-336	; 0xfffffeb0
    6694:	2e2e2e20 	cdpcs	14, 2, cr2, cr14, cr0, {1}
    6698:	45525f00 	ldrbmi	r5, [r2, #-3840]	; 0xfffff100
    669c:	5f544e45 	svcpl	0x00544e45
    66a0:	44544547 	ldrbmi	r4, [r4], #-1351	; 0xfffffab9
    66a4:	5f455441 	svcpl	0x00455441
    66a8:	5f525245 	svcpl	0x00525245
    66ac:	74702850 	ldrbtvc	r2, [r0], #-2128	; 0xfffff7b0
    66b0:	28202972 	stmdacs	r0!, {r1, r4, r5, r6, r8, fp, sp}
    66b4:	70282826 	eorvc	r2, r8, r6, lsr #16
    66b8:	2d297274 	sfmcs	f7, 4, [r9, #-464]!	; 0xfffffe30
    66bc:	696d5f3e 	stmdbvs	sp!, {r1, r2, r3, r4, r5, r8, r9, sl, fp, ip, lr}^
    66c0:	3e2d6373 	mcrcc	3, 1, r6, cr13, cr3, {3}
    66c4:	7465675f 	strbtvc	r6, [r5], #-1887	; 0xfffff8a1
    66c8:	65746164 	ldrbvs	r6, [r4, #-356]!	; 0xfffffe9c
    66cc:	7272655f 	rsbsvc	r6, r2, #398458880	; 0x17c00000
    66d0:	5f002929 	svcpl	0x00002929
    66d4:	544c465f 	strbpl	r4, [ip], #-1631	; 0xfffff9a1
    66d8:	4e494d5f 	mcrmi	13, 2, r4, cr9, cr15, {2}
    66dc:	5f30315f 	svcpl	0x0030315f
    66e0:	5f505845 	svcpl	0x00505845
    66e4:	2d28205f 	stccs	0, cr2, [r8, #-380]!	; 0xfffffe84
    66e8:	00293733 	eoreq	r3, r9, r3, lsr r7
    66ec:	4c555f5f 	mrrcmi	15, 5, r5, r5, cr15	; <UNPREDICTABLE>
    66f0:	55434341 	strbpl	r4, [r3, #-833]	; 0xfffffcbf
    66f4:	42495f4d 	submi	r5, r9, #308	; 0x134
    66f8:	5f5f5449 	svcpl	0x005f5449
    66fc:	00323320 	eorseq	r3, r2, r0, lsr #6
    6700:	48535f5f 	ldmdami	r3, {r0, r1, r2, r3, r4, r6, r8, r9, sl, fp, ip, lr}^
    6704:	4d5f5452 	cfldrdmi	mvd5, [pc, #-328]	; 65c4 <_Min_Stack_Size+0x61c4>
    6708:	5f5f5841 	svcpl	0x005f5841
    670c:	37783020 	ldrbcc	r3, [r8, -r0, lsr #32]!
    6710:	00666666 	rsbeq	r6, r6, r6, ror #12
    6714:	544e4955 	strbpl	r4, [lr], #-2389	; 0xfffff6ab
    6718:	5341465f 	movtpl	r4, #5727	; 0x165f
    671c:	4d5f3854 	ldclmi	8, cr3, [pc, #-336]	; 65d4 <_Min_Stack_Size+0x61d4>
    6720:	28205841 	stmdacs	r0!, {r0, r6, fp, ip, lr}
    6724:	49555f5f 	ldmdbmi	r5, {r0, r1, r2, r3, r4, r6, r8, r9, sl, fp, ip, lr}^
    6728:	465f544e 	ldrbmi	r5, [pc], -lr, asr #8
    672c:	38545341 	ldmdacc	r4, {r0, r6, r8, r9, ip, lr}^
    6730:	58414d5f 	stmdapl	r1, {r0, r1, r2, r3, r4, r6, r8, sl, fp, lr}^
    6734:	00295f5f 	eoreq	r5, r9, pc, asr pc
    6738:	54505f5f 	ldrbpl	r5, [r0], #-3935	; 0xfffff0a1
    673c:	46494452 			; <UNDEFINED> instruction: 0x46494452
    6740:	59545f46 	ldmdbpl	r4, {r1, r2, r6, r8, r9, sl, fp, ip, lr}^
    6744:	5f5f4550 	svcpl	0x005f4550
    6748:	746e6920 	strbtvc	r6, [lr], #-2336	; 0xfffff6e0
    674c:	49535f00 	ldmdbmi	r3, {r8, r9, sl, fp, ip, lr}^
    6750:	545f455a 	ldrbpl	r4, [pc], #-1370	; 6758 <_Min_Stack_Size+0x6358>
    6754:	4645445f 			; <UNDEFINED> instruction: 0x4645445f
    6758:	44454e49 	strbmi	r4, [r5], #-3657	; 0xfffff1b7
    675c:	5f5f0020 	svcpl	0x005f0020
    6760:	465f5144 	ldrbmi	r5, [pc], -r4, asr #2
    6764:	5f544942 	svcpl	0x00544942
    6768:	3336205f 	teqcc	r6, #95	; 0x5f
    676c:	475f5f00 	ldrbmi	r5, [pc, -r0, lsl #30]
    6770:	565f554e 	ldrbpl	r5, [pc], -lr, asr #10
    6774:	42495349 	submi	r5, r9, #603979777	; 0x24000001
    6778:	3020454c 	eorcc	r4, r0, ip, asr #10
    677c:	54584500 	ldrbpl	r4, [r8], #-1280	; 0xfffffb00
    6780:	41503749 	cmpmi	r0, r9, asr #14
    6784:	45282037 	strmi	r2, [r8, #-55]!	; 0xffffffc9
    6788:	5f495458 	svcpl	0x00495458
    678c:	4f495047 	svcmi	0x00495047
    6790:	70614d5f 	rsbvc	r4, r1, pc, asr sp
    6794:	676e6970 			; <UNDEFINED> instruction: 0x676e6970
    6798:	7b29745f 	blvc	a6391c <_Min_Stack_Size+0xa6351c>
    679c:	49545845 	ldmdbmi	r4, {r0, r2, r6, fp, ip, lr}^
    67a0:	47202c37 			; <UNDEFINED> instruction: 0x47202c37
    67a4:	414f4950 	cmpmi	pc, r0, asr r9	; <UNPREDICTABLE>
    67a8:	5047202c 	subpl	r2, r7, ip, lsr #32
    67ac:	505f4f49 	subspl	r4, pc, r9, asr #30
    67b0:	375f4e49 	ldrbcc	r4, [pc, -r9, asr #28]
    67b4:	5845202c 	stmdapl	r5, {r2, r3, r5, sp}^
    67b8:	5f374954 	svcpl	0x00374954
    67bc:	7d515249 	lfmvc	f5, 2, [r1, #-292]	; 0xfffffedc
    67c0:	535f5f00 	cmppl	pc, #0, 30
    67c4:	55434341 	strbpl	r4, [r3, #-833]	; 0xfffffcbf
    67c8:	42495f4d 	submi	r5, r9, #308	; 0x134
    67cc:	5f5f5449 	svcpl	0x005f5449
    67d0:	5f003820 	svcpl	0x00003820
    67d4:	5254505f 	subspl	r5, r4, #95	; 0x5f
    67d8:	46464944 	strbmi	r4, [r6], -r4, asr #18
    67dc:	0020545f 	eoreq	r5, r0, pc, asr r4
    67e0:	48555f5f 	ldmdami	r5, {r0, r1, r2, r3, r4, r6, r8, r9, sl, fp, ip, lr}^
    67e4:	42495f51 	submi	r5, r9, #324	; 0x144
    67e8:	5f5f5449 	svcpl	0x005f5449
    67ec:	5f003020 	svcpl	0x00003020
    67f0:	544e495f 	strbpl	r4, [lr], #-2399	; 0xfffff6a1
    67f4:	5341465f 	movtpl	r4, #5727	; 0x165f
    67f8:	5f363154 	svcpl	0x00363154
    67fc:	45505954 	ldrbmi	r5, [r0, #-2388]	; 0xfffff6ac
    6800:	69205f5f 	stmdbvs	r0!, {r0, r1, r2, r3, r4, r6, r8, r9, sl, fp, ip, lr}
    6804:	5f00746e 	svcpl	0x0000746e
    6808:	544e4955 	strbpl	r4, [lr], #-2389	; 0xfffff6ab
    680c:	5f58414d 	svcpl	0x0058414d
    6810:	45445f54 	strbmi	r5, [r4, #-3924]	; 0xfffff0ac
    6814:	52414c43 	subpl	r4, r1, #17152	; 0x4300
    6818:	00204445 	eoreq	r4, r0, r5, asr #8
    681c:	49535f5f 	ldmdbmi	r3, {r0, r1, r2, r3, r4, r6, r8, r9, sl, fp, ip, lr}^
    6820:	54415f47 	strbpl	r5, [r1], #-3911	; 0xfffff0b9
    6824:	43494d4f 	movtmi	r4, #40271	; 0x9d4f
    6828:	5059545f 	subspl	r5, r9, pc, asr r4
    682c:	205f5f45 	subscs	r5, pc, r5, asr #30
    6830:	00746e69 	rsbseq	r6, r4, r9, ror #28
    6834:	41535f5f 	cmpmi	r3, pc, asr pc
    6838:	4d554343 	ldclmi	3, cr4, [r5, #-268]	; 0xfffffef4
    683c:	4e494d5f 	mcrmi	13, 2, r4, cr9, cr15, {2}
    6840:	28205f5f 	stmdacs	r0!, {r0, r1, r2, r3, r4, r6, r8, r9, sl, fp, ip, lr}
    6844:	3158302d 	cmpcc	r8, sp, lsr #32
    6848:	4b483750 	blmi	1214590 <_Min_Stack_Size+0x1214190>
    684c:	3158302d 	cmpcc	r8, sp, lsr #32
    6850:	4b483750 	blmi	1214598 <_Min_Stack_Size+0x1214198>
    6854:	5f5f0029 	svcpl	0x005f0029
    6858:	52464c55 	subpl	r4, r6, #21760	; 0x5500
    685c:	5f544341 	svcpl	0x00544341
    6860:	5f58414d 	svcpl	0x0058414d
    6864:	5830205f 	ldmdapl	r0!, {r0, r1, r2, r3, r4, r6, sp}
    6868:	46464646 	strbmi	r4, [r6], -r6, asr #12
    686c:	46464646 	strbmi	r4, [r6], -r6, asr #12
    6870:	32332d50 	eorscc	r2, r3, #80, 26	; 0x1400
    6874:	00524c55 	subseq	r4, r2, r5, asr ip
    6878:	49555f5f 	ldmdbmi	r5, {r0, r1, r2, r3, r4, r6, r8, r9, sl, fp, ip, lr}^
    687c:	4c5f544e 	cfldrdmi	mvd5, [pc], {78}	; 0x4e
    6880:	54534145 	ldrbpl	r4, [r3], #-325	; 0xfffffebb
    6884:	545f3631 	ldrbpl	r3, [pc], #-1585	; 688c <_Min_Stack_Size+0x648c>
    6888:	5f455059 	svcpl	0x00455059
    688c:	6873205f 	ldmdavs	r3!, {r0, r1, r2, r3, r4, r6, sp}^
    6890:	2074726f 	rsbscs	r7, r4, pc, ror #4
    6894:	69736e75 	ldmdbvs	r3!, {r0, r2, r4, r5, r6, r9, sl, fp, sp, lr}^
    6898:	64656e67 	strbtvs	r6, [r5], #-3687	; 0xfffff199
    689c:	746e6920 	strbtvc	r6, [lr], #-2336	; 0xfffff6e0
    68a0:	415f5f00 	cmpmi	pc, r0, lsl #30
    68a4:	465f4d52 			; <UNDEFINED> instruction: 0x465f4d52
    68a8:	55544145 	ldrbpl	r4, [r4, #-325]	; 0xfffffebb
    68ac:	465f4552 			; <UNDEFINED> instruction: 0x465f4552
    68b0:	5f00414d 	svcpl	0x0000414d
    68b4:	43414c5f 	movtmi	r4, #7263	; 0x1c5f
    68b8:	5f4d5543 	svcpl	0x004d5543
    68bc:	5f58414d 	svcpl	0x0058414d
    68c0:	5830205f 	ldmdapl	r0!, {r0, r1, r2, r3, r4, r6, sp}
    68c4:	46464637 			; <UNDEFINED> instruction: 0x46464637
    68c8:	46464646 	strbmi	r4, [r6], -r6, asr #12
    68cc:	46464646 	strbmi	r4, [r6], -r6, asr #12
    68d0:	46464646 	strbmi	r4, [r6], -r6, asr #12
    68d4:	31332d50 	teqcc	r3, r0, asr sp
    68d8:	5f004b4c 	svcpl	0x00004b4c
    68dc:	4148435f 	cmpmi	r8, pc, asr r3
    68e0:	5f363152 	svcpl	0x00363152
    68e4:	45505954 	ldrbmi	r5, [r0, #-2388]	; 0xfffff6ac
    68e8:	73205f5f 			; <UNDEFINED> instruction: 0x73205f5f
    68ec:	74726f68 	ldrbtvc	r6, [r2], #-3944	; 0xfffff098
    68f0:	736e7520 	cmnvc	lr, #32, 10	; 0x8000000
    68f4:	656e6769 	strbvs	r6, [lr, #-1897]!	; 0xfffff897
    68f8:	6e692064 	cdpvs	0, 6, cr2, cr9, cr4, {3}
    68fc:	58450074 	stmdapl	r5, {r2, r4, r5, r6}^
    6900:	31314954 	teqcc	r1, r4, asr r9
    6904:	31314150 	teqcc	r1, r0, asr r1
    6908:	58452820 	stmdapl	r5, {r5, fp, sp}^
    690c:	475f4954 			; <UNDEFINED> instruction: 0x475f4954
    6910:	5f4f4950 	svcpl	0x004f4950
    6914:	7070614d 	rsbsvc	r6, r0, sp, asr #2
    6918:	5f676e69 	svcpl	0x00676e69
    691c:	457b2974 	ldrbmi	r2, [fp, #-2420]!	; 0xfffff68c
    6920:	31495458 	cmpcc	r9, r8, asr r4
    6924:	47202c31 			; <UNDEFINED> instruction: 0x47202c31
    6928:	414f4950 	cmpmi	pc, r0, asr r9	; <UNPREDICTABLE>
    692c:	5047202c 	subpl	r2, r7, ip, lsr #32
    6930:	505f4f49 	subspl	r4, pc, r9, asr #30
    6934:	315f4e49 	cmpcc	pc, r9, asr #28
    6938:	45202c31 	strmi	r2, [r0, #-3121]!	; 0xfffff3cf
    693c:	31495458 	cmpcc	r9, r8, asr r4
    6940:	52495f31 	subpl	r5, r9, #49, 30	; 0xc4
    6944:	47007d51 	smlsdmi	r0, r1, sp, r7
    6948:	5f4f4950 	svcpl	0x004f4950
    694c:	74726f50 	ldrbtvc	r6, [r2], #-3920	; 0xfffff0b0
    6950:	465f5f00 	ldrbmi	r5, [pc], -r0, lsl #30
    6954:	3233544c 	eorscc	r5, r3, #76, 8	; 0x4c000000
    6958:	49445f58 	stmdbmi	r4, {r3, r4, r6, r8, r9, sl, fp, ip, lr}^
    695c:	205f5f47 	subscs	r5, pc, r7, asr #30
    6960:	5f003531 	svcpl	0x00003531
    6964:	6769735f 			; <UNDEFINED> instruction: 0x6769735f
    6968:	2064656e 	rsbcs	r6, r4, lr, ror #10
    696c:	6e676973 			; <UNDEFINED> instruction: 0x6e676973
    6970:	5f006465 	svcpl	0x00006465
    6974:	5154555f 	cmppl	r4, pc, asr r5
    6978:	4942465f 	stmdbmi	r2, {r0, r1, r2, r3, r4, r6, r9, sl, lr}^
    697c:	205f5f54 	subscs	r5, pc, r4, asr pc	; <UNPREDICTABLE>
    6980:	00383231 	eorseq	r3, r8, r1, lsr r2
    6984:	4c4c5f5f 	mcrrmi	15, 5, r5, ip, cr15
    6988:	55434341 	strbpl	r4, [r3, #-833]	; 0xfffffcbf
    698c:	50455f4d 	subpl	r5, r5, sp, asr #30
    6990:	4f4c4953 	svcmi	0x004c4953
    6994:	205f5f4e 	subscs	r5, pc, lr, asr #30
    6998:	50317830 	eorspl	r7, r1, r0, lsr r8
    699c:	4c31332d 	ldcmi	3, cr3, [r1], #-180	; 0xffffff4c
    69a0:	5f004b4c 	svcpl	0x00004b4c
    69a4:	4e49465f 	mcrmi	6, 2, r4, cr9, cr15, {2}
    69a8:	5f455449 	svcpl	0x00455449
    69ac:	4854414d 	ldmdami	r4, {r0, r2, r3, r6, r8, lr}^
    69b0:	4c4e4f5f 	mcrrmi	15, 5, r4, lr, cr15
    69b4:	205f5f59 	subscs	r5, pc, r9, asr pc	; <UNPREDICTABLE>
    69b8:	5f5f0030 	svcpl	0x005f0030
    69bc:	5f544e49 	svcpl	0x00544e49
    69c0:	54534146 	ldrbpl	r4, [r3], #-326	; 0xfffffeba
    69c4:	4d5f3631 	ldclmi	6, cr3, [pc, #-196]	; 6908 <_Min_Stack_Size+0x6508>
    69c8:	5f5f5841 	svcpl	0x005f5841
    69cc:	37783020 	ldrbcc	r3, [r8, -r0, lsr #32]!
    69d0:	66666666 	strbtvs	r6, [r6], -r6, ror #12
    69d4:	00666666 	rsbeq	r6, r6, r6, ror #12
    69d8:	61685f5f 	cmnvs	r8, pc, asr pc
    69dc:	6c5f6576 	cfldr64vs	mvdx6, [pc], {118}	; 0x76
    69e0:	6c676e6f 	stclvs	14, cr6, [r7], #-444	; 0xfffffe44
    69e4:	36676e6f 	strbtcc	r6, [r7], -pc, ror #28
    69e8:	00312034 	eorseq	r2, r1, r4, lsr r0
    69ec:	4e49555f 	mcrmi	5, 2, r5, cr9, cr15, {2}
    69f0:	545f3854 	ldrbpl	r3, [pc], #-2132	; 69f8 <_Min_Stack_Size+0x65f8>
    69f4:	4345445f 	movtmi	r4, #21599	; 0x545f
    69f8:	4552414c 	ldrbmi	r4, [r2, #-332]	; 0xfffffeb4
    69fc:	47002044 	strmi	r2, [r0, -r4, asr #32]
    6a00:	5f4f4950 	svcpl	0x004f4950
    6a04:	004e4950 	subeq	r4, lr, r0, asr r9
    6a08:	4349564e 	movtmi	r5, #38478	; 0x964e
    6a0c:	5458455f 	ldrbpl	r4, [r8], #-1375	; 0xfffffaa1
    6a10:	5f353149 	svcpl	0x00353149
    6a14:	495f3031 	ldmdbmi	pc, {r0, r4, r5, ip, sp}^	; <UNPREDICTABLE>
    6a18:	445f5152 	ldrbmi	r5, [pc], #-338	; 6a20 <_Min_Stack_Size+0x6620>
    6a1c:	62617369 	rsbvs	r7, r1, #-1543503871	; 0xa4000001
    6a20:	2820656c 	stmdacs	r0!, {r2, r3, r5, r6, r8, sl, sp, lr}
    6a24:	4349564e 	movtmi	r5, #38478	; 0x964e
    6a28:	4543495f 	strbmi	r4, [r3, #-2399]	; 0xfffff6a1
    6a2c:	7c203152 	stfvcs	f3, [r0], #-328	; 0xfffffeb8
    6a30:	3c31203d 	ldccc	0, cr2, [r1], #-244	; 0xffffff0c
    6a34:	0029383c 	eoreq	r3, r9, ip, lsr r8
    6a38:	6f6c5f5f 	svcvs	0x006c5f5f
    6a3c:	745f6b63 	ldrbvc	r6, [pc], #-2915	; 6a44 <_Min_Stack_Size+0x6644>
    6a40:	615f7972 	cmpvs	pc, r2, ror r9	; <UNPREDICTABLE>
    6a44:	69757163 	ldmdbvs	r5!, {r0, r1, r5, r6, r8, ip, sp, lr}^
    6a48:	6c286572 	cfstr32vs	mvfx6, [r8], #-456	; 0xfffffe38
    6a4c:	296b636f 	stmdbcs	fp!, {r0, r1, r2, r3, r5, r6, r8, r9, sp, lr}^
    6a50:	725f5f20 	subsvc	r5, pc, #32, 30	; 0x80
    6a54:	72617465 	rsbvc	r7, r1, #1694498816	; 0x65000000
    6a58:	5f746567 	svcpl	0x00746567
    6a5c:	6b636f6c 	blvs	18e2814 <_Min_Stack_Size+0x18e2414>
    6a60:	7972745f 	ldmdbvc	r2!, {r0, r1, r2, r3, r4, r6, sl, ip, sp, lr}^
    6a64:	7163615f 	cmnvc	r3, pc, asr r1
    6a68:	65726975 	ldrbvs	r6, [r2, #-2421]!	; 0xfffff68b
    6a6c:	636f6c28 	cmnvs	pc, #40, 24	; 0x2800
    6a70:	5f00296b 	svcpl	0x0000296b
    6a74:	544e4955 	strbpl	r4, [lr], #-2389	; 0xfffff6ab
    6a78:	5f525450 	svcpl	0x00525450
    6a7c:	45445f54 	strbmi	r5, [r4, #-3924]	; 0xfffff0ac
    6a80:	52414c43 	subpl	r4, r1, #17152	; 0x4300
    6a84:	00204445 	eoreq	r4, r0, r5, asr #8
    6a88:	4349564e 	movtmi	r5, #38478	; 0x964e
    6a8c:	5458455f 	ldrbpl	r4, [r8], #-1375	; 0xfffffaa1
    6a90:	495f3049 	ldmdbmi	pc, {r0, r3, r6, ip, sp}^	; <UNPREDICTABLE>
    6a94:	455f5152 	ldrbmi	r5, [pc, #-338]	; 694a <_Min_Stack_Size+0x654a>
    6a98:	6c62616e 	stfvse	f6, [r2], #-440	; 0xfffffe48
    6a9c:	4e282065 	cdpmi	0, 2, cr2, cr8, cr5, {3}
    6aa0:	5f434956 	svcpl	0x00434956
    6aa4:	52455349 	subpl	r5, r5, #603979777	; 0x24000001
    6aa8:	3d7c2030 	ldclcc	0, cr2, [ip, #-192]!	; 0xffffff40
    6aac:	3c3c3120 	ldfccs	f3, [ip], #-128	; 0xffffff80
    6ab0:	45002936 	strmi	r2, [r0, #-2358]	; 0xfffff6ca
    6ab4:	31495458 	cmpcc	r9, r8, asr r4
    6ab8:	52495f35 	subpl	r5, r9, #53, 30	; 0xd4
    6abc:	30342051 	eorscc	r2, r4, r1, asr r0
    6ac0:	54584500 	ldrbpl	r4, [r8], #-1280	; 0xfffffb00
    6ac4:	41503049 	cmpmi	r0, r9, asr #32
    6ac8:	45282030 	strmi	r2, [r8, #-48]!	; 0xffffffd0
    6acc:	5f495458 	svcpl	0x00495458
    6ad0:	4f495047 	svcmi	0x00495047
    6ad4:	70614d5f 	rsbvc	r4, r1, pc, asr sp
    6ad8:	676e6970 			; <UNDEFINED> instruction: 0x676e6970
    6adc:	7b29745f 	blvc	a63c60 <_Min_Stack_Size+0xa63860>
    6ae0:	49545845 	ldmdbmi	r4, {r0, r2, r6, fp, ip, lr}^
    6ae4:	47202c30 			; <UNDEFINED> instruction: 0x47202c30
    6ae8:	414f4950 	cmpmi	pc, r0, asr r9	; <UNPREDICTABLE>
    6aec:	5047202c 	subpl	r2, r7, ip, lsr #32
    6af0:	505f4f49 	subspl	r4, pc, r9, asr #30
    6af4:	305f4e49 	subscc	r4, pc, r9, asr #28
    6af8:	5845202c 	stmdapl	r5, {r2, r3, r5, sp}^
    6afc:	5f304954 	svcpl	0x00304954
    6b00:	7d515249 	lfmvc	f5, 2, [r1, #-292]	; 0xfffffedc
    6b04:	43575f00 	cmpmi	r7, #0, 30
    6b08:	5f524148 	svcpl	0x00524148
    6b0c:	45445f54 	strbmi	r5, [r4, #-3924]	; 0xfffff0ac
    6b10:	454e4946 	strbmi	r4, [lr, #-2374]	; 0xfffff6ba
    6b14:	5f002044 	svcpl	0x00002044
    6b18:	414c555f 	cmpmi	ip, pc, asr r5
    6b1c:	4d554343 	ldclmi	3, cr4, [r5, #-268]	; 0xfffffef4
    6b20:	58414d5f 	stmdapl	r1, {r0, r1, r2, r3, r4, r6, r8, sl, fp, lr}^
    6b24:	30205f5f 	eorcc	r5, r0, pc, asr pc
    6b28:	46464658 			; <UNDEFINED> instruction: 0x46464658
    6b2c:	46464646 	strbmi	r4, [r6], -r6, asr #12
    6b30:	46464646 	strbmi	r4, [r6], -r6, asr #12
    6b34:	46464646 	strbmi	r4, [r6], -r6, asr #12
    6b38:	332d5046 			; <UNDEFINED> instruction: 0x332d5046
    6b3c:	4b4c5532 	blmi	131c00c <_Min_Stack_Size+0x131bc0c>
    6b40:	745f5f00 	ldrbvc	r5, [pc], #-3840	; 6b48 <_Min_Stack_Size+0x6748>
    6b44:	6f6c7972 	svcvs	0x006c7972
    6b48:	5f736b63 	svcpl	0x00736b63
    6b4c:	6c637865 	stclvs	8, cr7, [r3], #-404	; 0xfffffe6c
    6b50:	76697375 			; <UNDEFINED> instruction: 0x76697375
    6b54:	2e2e2865 	cdpcs	8, 2, cr2, cr14, cr5, {3}
    6b58:	5f20292e 	svcpl	0x0020292e
    6b5c:	636f6c5f 	cmnvs	pc, #24320	; 0x5f00
    6b60:	6e615f6b 	cdpvs	15, 6, cr5, cr1, cr11, {3}
    6b64:	61746f6e 	cmnvs	r4, lr, ror #30
    6b68:	65286574 	strvs	r6, [r8, #-1396]!	; 0xfffffa8c
    6b6c:	756c6378 	strbvc	r6, [ip, #-888]!	; 0xfffffc88
    6b70:	65766973 	ldrbvs	r6, [r6, #-2419]!	; 0xfffff68d
    6b74:	7972745f 	ldmdbvc	r2!, {r0, r1, r2, r3, r4, r6, sl, ip, sp, lr}^
    6b78:	6b636f6c 	blvs	18e2930 <_Min_Stack_Size+0x18e2530>
    6b7c:	6e75665f 	mrcvs	6, 3, r6, cr5, cr15, {2}
    6b80:	6f697463 	svcvs	0x00697463
    6b84:	5f5f286e 	svcpl	0x005f286e
    6b88:	415f4156 	cmpmi	pc, r6, asr r1	; <UNPREDICTABLE>
    6b8c:	5f534752 	svcpl	0x00534752
    6b90:	0029295f 	eoreq	r2, r9, pc, asr r9
    6b94:	4f495047 	svcmi	0x00495047
    6b98:	4e49505f 	mcrmi	0, 2, r5, cr9, cr15, {2}
    6b9c:	2035315f 	eorscs	r3, r5, pc, asr r1
    6ba0:	69752828 	ldmdbvs	r5!, {r3, r5, fp, sp}^
    6ba4:	3631746e 	ldrtcc	r7, [r1], -lr, ror #8
    6ba8:	2029745f 	eorcs	r7, r9, pc, asr r4
    6bac:	30387830 	eorscc	r7, r8, r0, lsr r8
    6bb0:	00293030 	eoreq	r3, r9, r0, lsr r0
    6bb4:	4545525f 	strbmi	r5, [r5, #-607]	; 0xfffffda1
    6bb8:	525f544e 	subspl	r5, pc, #1308622848	; 0x4e000000
    6bbc:	5f444e41 	svcpl	0x00444e41
    6bc0:	5458454e 	ldrbpl	r4, [r8], #-1358	; 0xfffffab2
    6bc4:	72747028 	rsbsvc	r7, r4, #40	; 0x28
    6bc8:	28282029 	stmdacs	r8!, {r0, r3, r5, sp}
    6bcc:	29727470 	ldmdbcs	r2!, {r4, r5, r6, sl, ip, sp, lr}^
    6bd0:	725f3e2d 	subsvc	r3, pc, #720	; 0x2d0
    6bd4:	3e2d3834 	mcrcc	8, 1, r3, cr13, cr4, {1}
    6bd8:	6e61725f 	mcrvs	2, 3, r7, cr1, cr15, {2}
    6bdc:	656e5f64 	strbvs	r5, [lr, #-3940]!	; 0xfffff09c
    6be0:	00297478 	eoreq	r7, r9, r8, ror r4
    6be4:	49545845 	ldmdbmi	r4, {r0, r2, r6, fp, ip, lr}^
    6be8:	52495f30 	subpl	r5, r9, #48, 30	; 0xc0
    6bec:	00362051 	eorseq	r2, r6, r1, asr r0
    6bf0:	4c555f5f 	mrrcmi	15, 5, r5, r5, cr15	; <UNPREDICTABLE>
    6bf4:	43415246 	movtmi	r5, #4678	; 0x1246
    6bf8:	494d5f54 	stmdbmi	sp, {r2, r4, r6, r8, r9, sl, fp, ip, lr}^
    6bfc:	205f5f4e 	subscs	r5, pc, lr, asr #30
    6c00:	55302e30 	ldrpl	r2, [r0, #-3632]!	; 0xfffff1d0
    6c04:	5300524c 	movwpl	r5, #588	; 0x24c
    6c08:	5f455a49 	svcpl	0x00455a49
    6c0c:	2058414d 	subscs	r4, r8, sp, asr #2
    6c10:	535f5f28 	cmppl	pc, #40, 30	; 0xa0
    6c14:	5f455a49 	svcpl	0x00455a49
    6c18:	5f58414d 	svcpl	0x0058414d
    6c1c:	5f00295f 	svcpl	0x0000295f
    6c20:	5f51445f 	svcpl	0x0051445f
    6c24:	54494249 	strbpl	r4, [r9], #-585	; 0xfffffdb7
    6c28:	30205f5f 	eorcc	r5, r0, pc, asr pc
    6c2c:	415f5f00 	cmpmi	pc, r0, lsl #30
    6c30:	425f4d52 	subsmi	r4, pc, #5248	; 0x1480
    6c34:	5f363146 	svcpl	0x00363146
    6c38:	4d524f46 	ldclmi	15, cr4, [r2, #-280]	; 0xfffffee8
    6c3c:	415f5441 	cmpmi	pc, r1, asr #8
    6c40:	5245544c 	subpl	r5, r5, #76, 8	; 0x4c000000
    6c44:	4954414e 	ldmdbmi	r4, {r1, r2, r3, r6, r8, lr}^
    6c48:	5f004556 	svcpl	0x00004556
    6c4c:	544e495f 	strbpl	r4, [lr], #-2399	; 0xfffff6a1
    6c50:	545f3233 	ldrbpl	r3, [pc], #-563	; 6c58 <_Min_Stack_Size+0x6858>
    6c54:	5f455059 	svcpl	0x00455059
    6c58:	6f6c205f 	svcvs	0x006c205f
    6c5c:	6920676e 	stmdbvs	r0!, {r1, r2, r3, r5, r6, r8, r9, sl, sp, lr}
    6c60:	5f00746e 	svcpl	0x0000746e
    6c64:	4e49555f 	mcrmi	5, 2, r5, cr9, cr15, {2}
    6c68:	454c5f54 	strbmi	r5, [ip, #-3924]	; 0xfffff0ac
    6c6c:	38545341 	ldmdacc	r4, {r0, r6, r8, r9, ip, lr}^
    6c70:	58414d5f 	stmdapl	r1, {r0, r1, r2, r3, r4, r6, r8, sl, fp, lr}^
    6c74:	30205f5f 	eorcc	r5, r0, pc, asr pc
    6c78:	00666678 	rsbeq	r6, r6, r8, ror r6
    6c7c:	4554415f 	ldrbmi	r4, [r4, #-351]	; 0xfffffea1
    6c80:	5f544958 	svcpl	0x00544958
    6c84:	455a4953 	ldrbmi	r4, [sl, #-2387]	; 0xfffff6ad
    6c88:	00323320 	eorseq	r3, r2, r0, lsr #6
    6c8c:	6f635f5f 	svcvs	0x00635f5f
    6c90:	6961746e 	stmdbvs	r1!, {r1, r2, r3, r5, r6, sl, ip, sp, lr}^
    6c94:	6f72656e 	svcvs	0x0072656e
    6c98:	2c782866 	ldclcs	8, cr2, [r8], #-408	; 0xfffffe68
    6c9c:	296d2c73 	stmdbcs	sp!, {r0, r1, r4, r5, r6, sl, fp, sp}^
    6ca0:	207b2820 	rsbscs	r2, fp, r0, lsr #16
    6ca4:	736e6f63 	cmnvc	lr, #396	; 0x18c
    6ca8:	6f762074 	svcvs	0x00762074
    6cac:	6974616c 	ldmdbvs	r4!, {r2, r3, r5, r6, r8, sp, lr}^
    6cb0:	5f20656c 	svcpl	0x0020656c
    6cb4:	7079745f 	rsbsvc	r7, r9, pc, asr r4
    6cb8:	28666f65 	stmdacs	r6!, {r0, r2, r5, r6, r8, r9, sl, fp, sp, lr}^
    6cbc:	20732828 	rsbscs	r2, r3, r8, lsr #16
    6cc0:	2930292a 	ldmdbcs	r0!, {r1, r3, r5, r8, fp, sp}
    6cc4:	296d3e2d 	stmdbcs	sp!, {r0, r2, r3, r5, r9, sl, fp, ip, sp}^
    6cc8:	5f5f2a20 	svcpl	0x005f2a20
    6ccc:	203d2078 	eorscs	r2, sp, r8, ror r0
    6cd0:	3b297828 	blcc	a64d78 <_Min_Stack_Size+0xa64978>
    6cd4:	445f5f20 	ldrbmi	r5, [pc], #-3872	; 6cdc <_Min_Stack_Size+0x68dc>
    6cd8:	41555145 	cmpmi	r5, r5, asr #2
    6cdc:	5946494c 	stmdbpl	r6, {r2, r3, r6, r8, fp, lr}^
    6ce0:	2a207328 	bcs	823988 <_Min_Stack_Size+0x823588>
    6ce4:	6328202c 			; <UNDEFINED> instruction: 0x6328202c
    6ce8:	74736e6f 	ldrbtvc	r6, [r3], #-3695	; 0xfffff191
    6cec:	6c6f7620 	stclvs	6, cr7, [pc], #-128	; 6c74 <_Min_Stack_Size+0x6874>
    6cf0:	6c697461 	cfstrdvs	mvd7, [r9], #-388	; 0xfffffe7c
    6cf4:	68632065 	stmdavs	r3!, {r0, r2, r5, r6, sp}^
    6cf8:	2a207261 	bcs	823684 <_Min_Stack_Size+0x823284>
    6cfc:	785f5f29 	ldmdavc	pc, {r0, r3, r5, r8, r9, sl, fp, ip, lr}^	; <UNPREDICTABLE>
    6d00:	5f202d20 	svcpl	0x00202d20
    6d04:	66666f5f 	uqsaxvs	r6, r6, pc	; <UNPREDICTABLE>
    6d08:	6f746573 	svcvs	0x00746573
    6d0c:	2c732866 	ldclcs	8, cr2, [r3], #-408	; 0xfffffe68
    6d10:	29296d20 	stmdbcs	r9!, {r5, r8, sl, fp, sp, lr}
    6d14:	00297d3b 	eoreq	r7, r9, fp, lsr sp
    6d18:	4349564e 	movtmi	r5, #38478	; 0x964e
    6d1c:	4950535f 	ldmdbmi	r0, {r0, r1, r2, r3, r4, r6, r8, r9, ip, lr}^
    6d20:	52495f31 	subpl	r5, r9, #49, 30	; 0xc4
    6d24:	69445f51 	stmdbvs	r4, {r0, r4, r6, r8, r9, sl, fp, ip, lr}^
    6d28:	6c626173 	stfvse	f6, [r2], #-460	; 0xfffffe34
    6d2c:	4e282065 	cdpmi	0, 2, cr2, cr8, cr5, {3}
    6d30:	5f434956 	svcpl	0x00434956
    6d34:	52454349 	subpl	r4, r5, #603979777	; 0x24000001
    6d38:	3d7c2031 	ldclcc	0, cr2, [ip, #-196]!	; 0xffffff3c
    6d3c:	3c3c3120 	ldfccs	f3, [ip], #-128	; 0xffffff80
    6d40:	49505328 	ldmdbmi	r0, {r3, r5, r8, r9, ip, lr}^
    6d44:	52495f31 	subpl	r5, r9, #49, 30	; 0xc4
    6d48:	202d2051 	eorcs	r2, sp, r1, asr r0
    6d4c:	29293233 	stmdbcs	r9!, {r0, r1, r4, r5, r9, ip, sp}
    6d50:	53425f00 	movtpl	r5, #12032	; 0x2f00
    6d54:	49535f44 	ldmdbmi	r3, {r2, r6, r8, r9, sl, fp, ip, lr}^
    6d58:	545f455a 	ldrbpl	r4, [pc], #-1370	; 6d60 <_Min_Stack_Size+0x6960>
    6d5c:	5f00205f 	svcpl	0x0000205f
    6d60:	746e695f 	strbtvc	r6, [lr], #-2399	; 0xfffff6a1
    6d64:	5f5f3032 	svcpl	0x005f3032
    6d68:	00322b20 	eorseq	r2, r2, r0, lsr #22
    6d6c:	49545845 	ldmdbmi	r4, {r0, r2, r6, fp, ip, lr}^
    6d70:	42503031 	subsmi	r3, r0, #49	; 0x31
    6d74:	28203031 	stmdacs	r0!, {r0, r4, r5, ip, sp}
    6d78:	49545845 	ldmdbmi	r4, {r0, r2, r6, fp, ip, lr}^
    6d7c:	4950475f 	ldmdbmi	r0, {r0, r1, r2, r3, r4, r6, r8, r9, sl, lr}^
    6d80:	614d5f4f 	cmpvs	sp, pc, asr #30
    6d84:	6e697070 	mcrvs	0, 3, r7, cr9, cr0, {3}
    6d88:	29745f67 	ldmdbcs	r4!, {r0, r1, r2, r5, r6, r8, r9, sl, fp, ip, lr}^
    6d8c:	5458457b 	ldrbpl	r4, [r8], #-1403	; 0xfffffa85
    6d90:	2c303149 	ldfcss	f3, [r0], #-292	; 0xfffffedc
    6d94:	49504720 	ldmdbmi	r0, {r5, r8, r9, sl, lr}^
    6d98:	202c424f 	eorcs	r4, ip, pc, asr #4
    6d9c:	4f495047 	svcmi	0x00495047
    6da0:	4e49505f 	mcrmi	0, 2, r5, cr9, cr15, {2}
    6da4:	2c30315f 	ldfcss	f3, [r0], #-380	; 0xfffffe84
    6da8:	54584520 	ldrbpl	r4, [r8], #-1312	; 0xfffffae0
    6dac:	5f303149 	svcpl	0x00303149
    6db0:	7d515249 	lfmvc	f5, 2, [r1, #-292]	; 0xfffffedc
    6db4:	6e5f5f00 	cdpvs	15, 5, cr5, cr15, cr0, {0}
    6db8:	6f6c5f6f 	svcvs	0x006c5f6f
    6dbc:	615f6b63 	cmpvs	pc, r3, ror #22
    6dc0:	796c616e 	stmdbvc	ip!, {r1, r2, r3, r5, r6, r8, sp, lr}^
    6dc4:	20736973 	rsbscs	r6, r3, r3, ror r9
    6dc8:	6f6c5f5f 	svcvs	0x006c5f5f
    6dcc:	615f6b63 	cmpvs	pc, r3, ror #22
    6dd0:	746f6e6e 	strbtvc	r6, [pc], #-3694	; 6dd8 <_Min_Stack_Size+0x69d8>
    6dd4:	28657461 	stmdacs	r5!, {r0, r5, r6, sl, ip, sp, lr}^
    6dd8:	745f6f6e 	ldrbvc	r6, [pc], #-3950	; 6de0 <_Min_Stack_Size+0x69e0>
    6ddc:	61657268 	cmnvs	r5, r8, ror #4
    6de0:	61735f64 	cmnvs	r3, r4, ror #30
    6de4:	79746566 	ldmdbvc	r4!, {r1, r2, r5, r6, r8, sl, sp, lr}^
    6de8:	616e615f 	cmnvs	lr, pc, asr r1
    6dec:	6973796c 	ldmdbvs	r3!, {r2, r3, r5, r6, r8, fp, ip, sp, lr}^
    6df0:	47002973 	smlsdxmi	r0, r3, r9, r2
    6df4:	5f4f4950 	svcpl	0x004f4950
    6df8:	5f4e4950 	svcpl	0x004e4950
    6dfc:	28203131 	stmdacs	r0!, {r0, r4, r5, r8, ip, sp}
    6e00:	6e697528 	cdpvs	5, 6, cr7, cr9, cr8, {1}
    6e04:	5f363174 	svcpl	0x00363174
    6e08:	30202974 	eorcc	r2, r0, r4, ror r9
    6e0c:	30383078 	eorscc	r3, r8, r8, ror r0
    6e10:	5f002930 	svcpl	0x00002930
    6e14:	36544e49 	ldrbcc	r4, [r4], -r9, asr #28
    6e18:	5f545f34 	svcpl	0x00545f34
    6e1c:	4c434544 	cfstr64mi	mvdx4, [r3], {68}	; 0x44
    6e20:	44455241 	strbmi	r5, [r5], #-577	; 0xfffffdbf
    6e24:	43520020 	cmpmi	r2, #32
    6e28:	53555f43 	cmppl	r5, #268	; 0x10c
    6e2c:	32545241 	subscc	r5, r4, #268435460	; 0x10000004
    6e30:	4b4c435f 	blmi	1317bb4 <_Min_Stack_Size+0x13177b4>
    6e34:	284e455f 	stmdacs	lr, {r0, r1, r2, r3, r4, r6, r8, sl, lr}^
    6e38:	52282029 	eorpl	r2, r8, #41	; 0x29
    6e3c:	3e2d4343 	cdpcc	3, 2, cr4, cr13, cr3, {2}
    6e40:	31425041 	cmpcc	r2, r1, asr #32
    6e44:	20524e45 	subscs	r4, r2, r5, asr #28
    6e48:	28203d7c 	stmdacs	r0!, {r2, r3, r4, r5, r6, r8, sl, fp, ip, sp}
    6e4c:	313c3c31 	teqcc	ip, r1, lsr ip
    6e50:	00292937 	eoreq	r2, r9, r7, lsr r9
    6e54:	4349564e 	movtmi	r5, #38478	; 0x964e
    6e58:	4553495f 	ldrbmi	r4, [r3, #-2399]	; 0xfffff6a1
    6e5c:	2a203152 	bcs	8133ac <_Min_Stack_Size+0x812fac>
    6e60:	6c6f7628 	stclvs	6, cr7, [pc], #-160	; 6dc8 <_Min_Stack_Size+0x69c8>
    6e64:	6c697461 	cfstrdvs	mvd7, [r9], #-388	; 0xfffffe7c
    6e68:	69752065 	ldmdbvs	r5!, {r0, r2, r5, r6, sp}^
    6e6c:	3233746e 	eorscc	r7, r3, #1845493760	; 0x6e000000
    6e70:	202a745f 	eorcs	r7, sl, pc, asr r4
    6e74:	564e2829 	strbpl	r2, [lr], -r9, lsr #16
    6e78:	425f4349 	subsmi	r4, pc, #603979777	; 0x24000001
    6e7c:	20657361 	rsbcs	r7, r5, r1, ror #6
    6e80:	3078302b 	rsbscc	r3, r8, fp, lsr #32
    6e84:	00293430 	eoreq	r3, r9, r0, lsr r4
    6e88:	4545525f 	strbmi	r5, [r5, #-607]	; 0xfffffda1
    6e8c:	4d5f544e 	cfldrdmi	mvd5, [pc, #-312]	; 6d5c <_Min_Stack_Size+0x695c>
    6e90:	52465f50 	subpl	r5, r6, #80, 30	; 0x140
    6e94:	494c4545 	stmdbmi	ip, {r0, r2, r6, r8, sl, lr}^
    6e98:	70285453 	eorvc	r5, r8, r3, asr r4
    6e9c:	20297274 	eorcs	r7, r9, r4, ror r2
    6ea0:	74702828 	ldrbtvc	r2, [r0], #-2088	; 0xfffff7d8
    6ea4:	3e2d2972 			; <UNDEFINED> instruction: 0x3e2d2972
    6ea8:	2d706d5f 	ldclcs	13, cr6, [r0, #-380]!	; 0xfffffe84
    6eac:	72665f3e 	rsbvc	r5, r6, #62, 30	; 0xf8
    6eb0:	696c6565 	stmdbvs	ip!, {r0, r2, r5, r6, r8, sl, sp, lr}^
    6eb4:	00297473 	eoreq	r7, r9, r3, ror r4
    6eb8:	6f6c6c61 	svcvs	0x006c6c61
    6ebc:	73286163 			; <UNDEFINED> instruction: 0x73286163
    6ec0:	29657a69 	stmdbcs	r5!, {r0, r3, r5, r6, r9, fp, ip, sp, lr}^
    6ec4:	625f5f20 	subsvs	r5, pc, #32, 30	; 0x80
    6ec8:	746c6975 	strbtvc	r6, [ip], #-2421	; 0xfffff68b
    6ecc:	615f6e69 	cmpvs	pc, r9, ror #28
    6ed0:	636f6c6c 	cmnvs	pc, #108, 24	; 0x6c00
    6ed4:	69732861 	ldmdbvs	r3!, {r0, r5, r6, fp, sp}^
    6ed8:	0029657a 	eoreq	r6, r9, sl, ror r5
    6edc:	4f4c435f 	svcmi	0x004c435f
    6ee0:	44494b43 	strbmi	r4, [r9], #-2883	; 0xfffff4bd
    6ee4:	205f545f 	subscs	r5, pc, pc, asr r4	; <UNPREDICTABLE>
    6ee8:	69736e75 	ldmdbvs	r3!, {r0, r2, r4, r5, r6, r9, sl, fp, sp, lr}^
    6eec:	64656e67 	strbtvs	r6, [r5], #-3687	; 0xfffff199
    6ef0:	6e6f6c20 	cdpvs	12, 6, cr6, cr15, cr0, {1}
    6ef4:	5f5f0067 	svcpl	0x005f0067
    6ef8:	5f515455 	svcpl	0x00515455
    6efc:	54494249 	strbpl	r4, [r9], #-585	; 0xfffffdb7
    6f00:	30205f5f 	eorcc	r5, r0, pc, asr pc
    6f04:	54584500 	ldrbpl	r4, [r8], #-1280	; 0xfffffb00
    6f08:	32203249 	eorcc	r3, r0, #-1879048188	; 0x90000004
    6f0c:	535f5f00 	cmppl	pc, #0, 30
    6f10:	42465f41 	submi	r5, r6, #260	; 0x104
    6f14:	5f5f5449 	svcpl	0x005f5449
    6f18:	00353120 	eorseq	r3, r5, r0, lsr #2
    6f1c:	4e495f5f 	mcrmi	15, 2, r5, cr9, cr15, {2}
    6f20:	43575f54 	cmpmi	r7, #84, 30	; 0x150
    6f24:	5f524148 	svcpl	0x00524148
    6f28:	20485f54 	subcs	r5, r8, r4, asr pc
    6f2c:	465f5f00 	ldrbmi	r5, [pc], -r0, lsl #30
    6f30:	3233544c 	eorscc	r5, r3, #76, 8	; 0x4c000000
    6f34:	414d5f58 	cmpmi	sp, r8, asr pc
    6f38:	205f5f58 	subscs	r5, pc, r8, asr pc	; <UNPREDICTABLE>
    6f3c:	39372e31 	ldmdbcc	r7!, {r0, r4, r5, r9, sl, fp, sp}
    6f40:	33393637 	teqcc	r9, #57671680	; 0x3700000
    6f44:	38343331 	ldmdacc	r4!, {r0, r4, r5, r8, r9, ip, sp}
    6f48:	31333236 	teqcc	r3, r6, lsr r2
    6f4c:	2b653735 	blcs	1954c28 <_Min_Stack_Size+0x1954828>
    6f50:	46383033 			; <UNDEFINED> instruction: 0x46383033
    6f54:	00783233 	rsbseq	r3, r8, r3, lsr r2
    6f58:	49545845 	ldmdbmi	r4, {r0, r2, r6, fp, ip, lr}^
    6f5c:	44503431 	ldrbmi	r3, [r0], #-1073	; 0xfffffbcf
    6f60:	28203431 	stmdacs	r0!, {r0, r4, r5, sl, ip, sp}
    6f64:	49545845 	ldmdbmi	r4, {r0, r2, r6, fp, ip, lr}^
    6f68:	4950475f 	ldmdbmi	r0, {r0, r1, r2, r3, r4, r6, r8, r9, sl, lr}^
    6f6c:	614d5f4f 	cmpvs	sp, pc, asr #30
    6f70:	6e697070 	mcrvs	0, 3, r7, cr9, cr0, {3}
    6f74:	29745f67 	ldmdbcs	r4!, {r0, r1, r2, r5, r6, r8, r9, sl, fp, ip, lr}^
    6f78:	5458457b 	ldrbpl	r4, [r8], #-1403	; 0xfffffa85
    6f7c:	2c343149 	ldfcss	f3, [r4], #-292	; 0xfffffedc
    6f80:	49504720 	ldmdbmi	r0, {r5, r8, r9, sl, lr}^
    6f84:	202c444f 	eorcs	r4, ip, pc, asr #8
    6f88:	4f495047 	svcmi	0x00495047
    6f8c:	4e49505f 	mcrmi	0, 2, r5, cr9, cr15, {2}
    6f90:	2c34315f 	ldfcss	f3, [r4], #-380	; 0xfffffe84
    6f94:	54584520 	ldrbpl	r4, [r8], #-1312	; 0xfffffae0
    6f98:	5f343149 	svcpl	0x00343149
    6f9c:	7d515249 	lfmvc	f5, 2, [r1, #-292]	; 0xfffffedc
    6fa0:	5f5f5f00 	svcpl	0x005f5f00
    6fa4:	31746e69 	cmncc	r4, r9, ror #28
    6fa8:	5f745f36 	svcpl	0x00745f36
    6fac:	69666564 	stmdbvs	r6!, {r2, r5, r6, r8, sl, sp, lr}^
    6fb0:	2064656e 	rsbcs	r6, r4, lr, ror #10
    6fb4:	43570031 	cmpmi	r7, #49	; 0x31
    6fb8:	5f524148 	svcpl	0x00524148
    6fbc:	2058414d 	subscs	r4, r8, sp, asr #2
    6fc0:	575f5f28 	ldrbpl	r5, [pc, -r8, lsr #30]
    6fc4:	52414843 	subpl	r4, r1, #4390912	; 0x430000
    6fc8:	58414d5f 	stmdapl	r1, {r0, r1, r2, r3, r4, r6, r8, sl, fp, lr}^
    6fcc:	00295f5f 	eoreq	r5, r9, pc, asr pc
    6fd0:	52415f5f 	subpl	r5, r1, #380	; 0x17c
    6fd4:	41455f4d 	cmpmi	r5, sp, asr #30
    6fd8:	5f5f4942 	svcpl	0x005f4942
    6fdc:	5f003120 	svcpl	0x00003120
    6fe0:	4d53415f 	ldfmie	f4, [r3, #-380]	; 0xfffffe84
    6fe4:	454d414e 	strbmi	r4, [sp, #-334]	; 0xfffffeb2
    6fe8:	616e6328 	cmnvs	lr, r8, lsr #6
    6fec:	2029656d 	eorcs	r6, r9, sp, ror #10
    6ff0:	53585f5f 	cmppl	r8, #380	; 0x17c
    6ff4:	4e495254 	mcrmi	2, 2, r5, cr9, cr4, {2}
    6ff8:	5f282047 	svcpl	0x00282047
    6ffc:	4553555f 	ldrbmi	r5, [r3, #-1375]	; 0xfffffaa1
    7000:	414c5f52 	cmpmi	ip, r2, asr pc
    7004:	5f4c4542 	svcpl	0x004c4542
    7008:	46455250 			; <UNDEFINED> instruction: 0x46455250
    700c:	5f5f5849 	svcpl	0x005f5849
    7010:	6e632029 	cdpvs	0, 6, cr2, cr3, cr9, {1}
    7014:	00656d61 	rsbeq	r6, r5, r1, ror #26
    7018:	33544e49 	cmpcc	r4, #1168	; 0x490
    701c:	494d5f32 	stmdbmi	sp, {r1, r4, r5, r8, r9, sl, fp, ip, lr}^
    7020:	2d28204e 	stccs	0, cr2, [r8, #-312]!	; 0xfffffec8
    7024:	4e495f5f 	mcrmi	15, 2, r5, cr9, cr15, {2}
    7028:	5f323354 	svcpl	0x00323354
    702c:	5f58414d 	svcpl	0x0058414d
    7030:	202d205f 	eorcs	r2, sp, pc, asr r0
    7034:	5f002931 	svcpl	0x00002931
    7038:	5548545f 	strbpl	r5, [r8, #-1119]	; 0xfffffba1
    703c:	4c45424d 	sfmmi	f4, 2, [r5], {77}	; 0x4d
    7040:	31205f5f 			; <UNDEFINED> instruction: 0x31205f5f
    7044:	49505300 	ldmdbmi	r0, {r8, r9, ip, lr}^
    7048:	41425f33 	cmpmi	r2, r3, lsr pc
    704c:	30204553 	eorcc	r4, r0, r3, asr r5
    7050:	30303478 	eorscc	r3, r0, r8, ror r4
    7054:	30433330 	subcc	r3, r3, r0, lsr r3
    7058:	47007530 	smladxmi	r0, r0, r5, r7
    705c:	5f4f4950 	svcpl	0x004f4950
    7060:	45444f4d 	strbmi	r4, [r4, #-3917]	; 0xfffff0b3
    7064:	54554f5f 	ldrbpl	r4, [r5], #-3935	; 0xfffff0a1
    7068:	5f545550 	svcpl	0x00545550
    706c:	3020444f 	eorcc	r4, r0, pc, asr #8
    7070:	30303078 	eorscc	r3, r0, r8, ror r0
    7074:	30303030 	eorscc	r3, r0, r0, lsr r0
    7078:	5f5f0035 	svcpl	0x005f0035
    707c:	495f5151 	ldmdbmi	pc, {r0, r4, r6, r8, ip, lr}^	; <UNPREDICTABLE>
    7080:	5f544942 	svcpl	0x00544942
    7084:	0030205f 	eorseq	r2, r0, pc, asr r0
    7088:	52415f5f 	subpl	r5, r1, #380	; 0x17c
    708c:	5f4c454d 	svcpl	0x004c454d
    7090:	0031205f 	eorseq	r2, r1, pc, asr r0
    7094:	384d4954 	stmdacc	sp, {r2, r4, r6, r8, fp, lr}^
    7098:	5341425f 	movtpl	r4, #4703	; 0x125f
    709c:	78302045 	ldmdavc	r0!, {r0, r2, r6, sp}
    70a0:	31303034 	teqcc	r0, r4, lsr r0
    70a4:	30303433 	eorscc	r3, r0, r3, lsr r4
    70a8:	43520075 	cmpmi	r2, #117	; 0x75
    70ac:	41425f43 	cmpmi	r2, r3, asr #30
    70b0:	30204553 	eorcc	r4, r0, r3, asr r5
    70b4:	30303478 	eorscc	r3, r0, r8, ror r4
    70b8:	30303132 	eorscc	r3, r0, r2, lsr r1
    70bc:	004c5530 	subeq	r5, ip, r0, lsr r5
    70c0:	5f525149 	svcpl	0x00525149
    70c4:	00424e45 	subeq	r4, r2, r5, asr #28
    70c8:	74617473 	strbtvc	r7, [r1], #-1139	; 0xfffffb8d
    70cc:	615f6369 	cmpvs	pc, r9, ror #6
    70d0:	72657373 	rsbvc	r7, r5, #-872415231	; 0xcc000001
    70d4:	535f2074 	cmppl	pc, #116	; 0x74
    70d8:	69746174 	ldmdbvs	r4!, {r2, r4, r5, r6, r8, sp, lr}^
    70dc:	73615f63 	cmnvc	r1, #396	; 0x18c
    70e0:	74726573 	ldrbtvc	r6, [r2], #-1395	; 0xfffffa8d
    70e4:	4c5f5f00 	mrrcmi	15, 0, r5, pc, cr0	; <UNPREDICTABLE>
    70e8:	5f4b434f 	svcpl	0x004b434f
    70ec:	54494e49 	strbpl	r4, [r9], #-3657	; 0xfffff1b7
    70f0:	4345525f 	movtmi	r5, #21087	; 0x525f
    70f4:	49535255 	ldmdbmi	r3, {r0, r2, r4, r6, r9, ip, lr}^
    70f8:	63284556 			; <UNDEFINED> instruction: 0x63284556
    70fc:	7373616c 	cmnvc	r3, #108, 2
    7100:	636f6c2c 	cmnvs	pc, #44, 24	; 0x2c00
    7104:	5f20296b 	svcpl	0x0020296b
    7108:	434f4c5f 	movtmi	r4, #64607	; 0xfc5f
    710c:	4e495f4b 	cdpmi	15, 4, cr5, cr9, cr11, {2}
    7110:	63285449 			; <UNDEFINED> instruction: 0x63285449
    7114:	7373616c 	cmnvc	r3, #108, 2
    7118:	636f6c2c 	cmnvs	pc, #44, 24	; 0x2c00
    711c:	5f00296b 	svcpl	0x0000296b
    7120:	414c4c5f 	cmpmi	ip, pc, asr ip
    7124:	4d554343 	ldclmi	3, cr4, [r5, #-268]	; 0xfffffef4
    7128:	4942465f 	stmdbmi	r2, {r0, r1, r2, r3, r4, r6, r9, sl, lr}^
    712c:	205f5f54 	subscs	r5, pc, r4, asr pc	; <UNPREDICTABLE>
    7130:	55003133 	strpl	r3, [r0, #-307]	; 0xfffffecd
    7134:	31544e49 	cmpcc	r4, r9, asr #28
    7138:	414d5f36 	cmpmi	sp, r6, lsr pc
    713c:	5f282058 	svcpl	0x00282058
    7140:	4e49555f 	mcrmi	5, 2, r5, cr9, cr15, {2}
    7144:	5f363154 	svcpl	0x00363154
    7148:	5f58414d 	svcpl	0x0058414d
    714c:	5f00295f 	svcpl	0x0000295f
    7150:	544c465f 	strbpl	r4, [ip], #-1631	; 0xfffff9a1
    7154:	5f583233 	svcpl	0x00583233
    7158:	5f4e494d 	svcpl	0x004e494d
    715c:	455f3031 	ldrbmi	r3, [pc, #-49]	; 7133 <_Min_Stack_Size+0x6d33>
    7160:	5f5f5058 	svcpl	0x005f5058
    7164:	332d2820 			; <UNDEFINED> instruction: 0x332d2820
    7168:	00293730 	eoreq	r3, r9, r0, lsr r7
    716c:	544e4955 	strbpl	r4, [lr], #-2389	; 0xfffff6ab
    7170:	41454c5f 	cmpmi	r5, pc, asr ip
    7174:	5f385453 	svcpl	0x00385453
    7178:	2058414d 	subscs	r4, r8, sp, asr #2
    717c:	555f5f28 	ldrbpl	r5, [pc, #-3880]	; 625c <_Min_Stack_Size+0x5e5c>
    7180:	5f544e49 	svcpl	0x00544e49
    7184:	5341454c 	movtpl	r4, #5452	; 0x154c
    7188:	4d5f3854 	ldclmi	8, cr3, [pc, #-336]	; 7040 <_Min_Stack_Size+0x6c40>
    718c:	5f5f5841 	svcpl	0x005f5841
    7190:	5f5f0029 	svcpl	0x005f0029
    7194:	5f515355 	svcpl	0x00515355
    7198:	54494249 	strbpl	r4, [r9], #-585	; 0xfffffdb7
    719c:	30205f5f 	eorcc	r5, r0, pc, asr pc
    71a0:	475f5f00 	ldrbmi	r5, [pc, -r0, lsl #30]
    71a4:	5f43554e 	svcpl	0x0043554e
    71a8:	4f4e494d 	svcmi	0x004e494d
    71ac:	205f5f52 	subscs	r5, pc, r2, asr pc	; <UNPREDICTABLE>
    71b0:	5f5f0033 	svcpl	0x005f0033
    71b4:	33544c46 	cmpcc	r4, #17920	; 0x4600
    71b8:	4d5f5832 	ldclmi	8, cr5, [pc, #-200]	; 70f8 <_Min_Stack_Size+0x6cf8>
    71bc:	455f4e49 	ldrbmi	r4, [pc, #-3657]	; 637b <_Min_Stack_Size+0x5f7b>
    71c0:	5f5f5058 	svcpl	0x005f5058
    71c4:	312d2820 			; <UNDEFINED> instruction: 0x312d2820
    71c8:	29313230 	ldmdbcs	r1!, {r4, r5, r9, ip, sp}
    71cc:	555f5f00 	ldrbpl	r5, [pc, #-3840]	; 62d4 <_Min_Stack_Size+0x5ed4>
    71d0:	5f544e49 	svcpl	0x00544e49
    71d4:	5341454c 	movtpl	r4, #5452	; 0x154c
    71d8:	5f323354 	svcpl	0x00323354
    71dc:	45505954 	ldrbmi	r5, [r0, #-2388]	; 0xfffff6ac
    71e0:	6c205f5f 	stcvs	15, cr5, [r0], #-380	; 0xfffffe84
    71e4:	20676e6f 	rsbcs	r6, r7, pc, ror #28
    71e8:	69736e75 	ldmdbvs	r3!, {r0, r2, r4, r5, r6, r9, sl, fp, sp, lr}^
    71ec:	64656e67 	strbtvs	r6, [r5], #-3687	; 0xfffff199
    71f0:	746e6920 	strbtvc	r6, [lr], #-2336	; 0xfffff6e0
    71f4:	6d695400 	cfstrdvs	mvd5, [r9, #-0]
    71f8:	28282032 	stmdacs	r8!, {r1, r4, r5, sp}
    71fc:	324d4954 	subcc	r4, sp, #84, 18	; 0x150000
    7200:	545f3574 	ldrbpl	r3, [pc], #-1396	; 7208 <_Min_Stack_Size+0x6e08>
    7204:	44657079 	strbtmi	r7, [r5], #-121	; 0xffffff87
    7208:	745f6665 	ldrbvc	r6, [pc], #-1637	; 7210 <_Min_Stack_Size+0x6e10>
    720c:	4954292a 	ldmdbmi	r4, {r1, r3, r5, r8, fp, sp}^
    7210:	425f324d 	subsmi	r3, pc, #-805306364	; 0xd0000004
    7214:	29455341 	stmdbcs	r5, {r0, r6, r8, r9, ip, lr}^
    7218:	415f5f00 	cmpmi	pc, r0, lsl #30
    721c:	465f4d52 			; <UNDEFINED> instruction: 0x465f4d52
    7220:	55544145 	ldrbpl	r4, [r4, #-325]	; 0xfffffebb
    7224:	4e5f4552 	mrcmi	5, 2, r4, cr15, cr2, {2}
    7228:	52454d55 	subpl	r4, r5, #5440	; 0x1540
    722c:	4d5f4349 	ldclmi	3, cr4, [pc, #-292]	; 7110 <_Min_Stack_Size+0x6d10>
    7230:	494d5841 	stmdbmi	sp, {r0, r6, fp, ip, lr}^
    7234:	525f004e 	subspl	r0, pc, #78	; 0x4e
    7238:	34444e41 	strbcc	r4, [r4], #-3649	; 0xfffff1bf
    723c:	554d5f38 	strbpl	r5, [sp, #-3896]	; 0xfffff0c8
    7240:	315f544c 	cmpcc	pc, ip, asr #8
    7244:	78302820 	ldmdavc	r0!, {r5, fp, sp}
    7248:	63656564 	cmnvs	r5, #100, 10	; 0x19000000
    724c:	5f5f0029 	svcpl	0x005f0029
    7250:	4d544e49 	ldclmi	14, cr4, [r4, #-292]	; 0xfffffedc
    7254:	545f5841 	ldrbpl	r5, [pc], #-2113	; 725c <_Min_Stack_Size+0x6e5c>
    7258:	5f455059 	svcpl	0x00455059
    725c:	6f6c205f 	svcvs	0x006c205f
    7260:	6c20676e 	stcvs	7, cr6, [r0], #-440	; 0xfffffe48
    7264:	20676e6f 	rsbcs	r6, r7, pc, ror #28
    7268:	00746e69 	rsbseq	r6, r4, r9, ror #28
    726c:	49545845 	ldmdbmi	r4, {r0, r2, r6, fp, ip, lr}^
    7270:	37425037 	smlaldxcc	r5, r2, r7, r0
    7274:	58452820 	stmdapl	r5, {r5, fp, sp}^
    7278:	475f4954 			; <UNDEFINED> instruction: 0x475f4954
    727c:	5f4f4950 	svcpl	0x004f4950
    7280:	7070614d 	rsbsvc	r6, r0, sp, asr #2
    7284:	5f676e69 	svcpl	0x00676e69
    7288:	457b2974 	ldrbmi	r2, [fp, #-2420]!	; 0xfffff68c
    728c:	37495458 	smlsldcc	r5, r9, r8, r4
    7290:	5047202c 	subpl	r2, r7, ip, lsr #32
    7294:	2c424f49 	mcrrcs	15, 4, r4, r2, cr9
    7298:	49504720 	ldmdbmi	r0, {r5, r8, r9, sl, lr}^
    729c:	49505f4f 	ldmdbmi	r0, {r0, r1, r2, r3, r6, r8, r9, sl, fp, ip, lr}^
    72a0:	2c375f4e 	ldccs	15, cr5, [r7], #-312	; 0xfffffec8
    72a4:	54584520 	ldrbpl	r4, [r8], #-1312	; 0xfffffae0
    72a8:	495f3749 	ldmdbmi	pc, {r0, r3, r6, r8, r9, sl, ip, sp}^	; <UNPREDICTABLE>
    72ac:	007d5152 	rsbseq	r5, sp, r2, asr r1
    72b0:	544e4955 	strbpl	r4, [lr], #-2389	; 0xfffff6ab
    72b4:	5341465f 	movtpl	r4, #5727	; 0x165f
    72b8:	5f323354 	svcpl	0x00323354
    72bc:	2058414d 	subscs	r4, r8, sp, asr #2
    72c0:	555f5f28 	ldrbpl	r5, [pc, #-3880]	; 63a0 <_Min_Stack_Size+0x5fa0>
    72c4:	5f544e49 	svcpl	0x00544e49
    72c8:	54534146 	ldrbpl	r4, [r3], #-326	; 0xfffffeba
    72cc:	4d5f3233 	lfmmi	f3, 2, [pc, #-204]	; 7208 <_Min_Stack_Size+0x6e08>
    72d0:	5f5f5841 	svcpl	0x005f5841
    72d4:	5f5f0029 	svcpl	0x005f0029
    72d8:	5f434347 	svcpl	0x00434347
    72dc:	4d4f5441 	cfstrdmi	mvd5, [pc, #-260]	; 71e0 <_Min_Stack_Size+0x6de0>
    72e0:	495f4349 	ldmdbmi	pc, {r0, r3, r6, r8, r9, lr}^	; <UNPREDICTABLE>
    72e4:	4c5f544e 	cfldrdmi	mvd5, [pc], {78}	; 0x4e
    72e8:	5f4b434f 	svcpl	0x004b434f
    72ec:	45455246 	strbmi	r5, [r5, #-582]	; 0xfffffdba
    72f0:	47003220 	strmi	r3, [r0, -r0, lsr #4]
    72f4:	5f4f4950 	svcpl	0x004f4950
    72f8:	5f4e4950 	svcpl	0x004e4950
    72fc:	204c4c41 	subcs	r4, ip, r1, asr #24
    7300:	69752828 	ldmdbvs	r5!, {r3, r5, fp, sp}^
    7304:	3631746e 	ldrtcc	r7, [r1], -lr, ror #8
    7308:	2029745f 	eorcs	r7, r9, pc, asr r4
    730c:	46467830 			; <UNDEFINED> instruction: 0x46467830
    7310:	00294646 	eoreq	r4, r9, r6, asr #12
    7314:	4e41525f 	mcrmi	2, 2, r5, cr1, cr15, {2}
    7318:	5f383444 	svcpl	0x00383444
    731c:	44454553 	strbmi	r4, [r5], #-1363	; 0xfffffaad
    7320:	2820305f 	stmdacs	r0!, {r0, r1, r2, r3, r4, r6, ip, sp}
    7324:	33337830 	teqcc	r3, #48, 16	; 0x300000
    7328:	00296530 	eoreq	r6, r9, r0, lsr r5
    732c:	49545845 	ldmdbmi	r4, {r0, r2, r6, fp, ip, lr}^
    7330:	39445039 	stmdbcc	r4, {r0, r3, r4, r5, ip, lr}^
    7334:	58452820 	stmdapl	r5, {r5, fp, sp}^
    7338:	475f4954 			; <UNDEFINED> instruction: 0x475f4954
    733c:	5f4f4950 	svcpl	0x004f4950
    7340:	7070614d 	rsbsvc	r6, r0, sp, asr #2
    7344:	5f676e69 	svcpl	0x00676e69
    7348:	457b2974 	ldrbmi	r2, [fp, #-2420]!	; 0xfffff68c
    734c:	39495458 	stmdbcc	r9, {r3, r4, r6, sl, ip, lr}^
    7350:	5047202c 	subpl	r2, r7, ip, lsr #32
    7354:	2c444f49 	mcrrcs	15, 4, r4, r4, cr9
    7358:	49504720 	ldmdbmi	r0, {r5, r8, r9, sl, lr}^
    735c:	49505f4f 	ldmdbmi	r0, {r0, r1, r2, r3, r6, r8, r9, sl, fp, ip, lr}^
    7360:	2c395f4e 	ldccs	15, cr5, [r9], #-312	; 0xfffffec8
    7364:	54584520 	ldrbpl	r4, [r8], #-1312	; 0xfffffae0
    7368:	495f3949 	ldmdbmi	pc, {r0, r3, r6, r8, fp, ip, sp}^	; <UNPREDICTABLE>
    736c:	007d5152 	rsbseq	r5, sp, r2, asr r1
    7370:	4343475f 	movtmi	r4, #14175	; 0x375f
    7374:	58414d5f 	stmdapl	r1, {r0, r1, r2, r3, r4, r6, r8, sl, fp, lr}^
    7378:	494c415f 	stmdbmi	ip, {r0, r1, r2, r3, r4, r6, r8, lr}^
    737c:	545f4e47 	ldrbpl	r4, [pc], #-3655	; 7384 <_Min_Stack_Size+0x6f84>
    7380:	5f5f0020 	svcpl	0x005f0020
    7384:	676e6f4c 	strbvs	r6, [lr, -ip, asr #30]!
    7388:	6e6f6c20 	cdpvs	12, 6, cr6, cr15, cr0, {1}
    738c:	5f5f0067 	svcpl	0x005f0067
    7390:	5f4d5241 	svcpl	0x004d5241
    7394:	54414546 	strbpl	r4, [r1], #-1350	; 0xfffffaba
    7398:	5f455255 	svcpl	0x00455255
    739c:	36315046 	ldrtcc	r5, [r1], -r6, asr #32
    73a0:	4143535f 	cmpmi	r3, pc, asr r3
    73a4:	5f52414c 	svcpl	0x0052414c
    73a8:	54495241 	strbpl	r5, [r9], #-577	; 0xfffffdbf
    73ac:	54454d48 	strbpl	r4, [r5], #-3400	; 0xfffff2b8
    73b0:	5f004349 	svcpl	0x00004349
    73b4:	544c465f 	strbpl	r4, [ip], #-1631	; 0xfffff9a1
    73b8:	524f4e5f 	subpl	r4, pc, #1520	; 0x5f0
    73bc:	414d5f4d 	cmpmi	sp, sp, asr #30
    73c0:	205f5f58 	subscs	r5, pc, r8, asr pc	; <UNPREDICTABLE>
    73c4:	30342e33 	eorscc	r2, r4, r3, lsr lr
    73c8:	33323832 	teqcc	r2, #3276800	; 0x320000
    73cc:	33363634 	teqcc	r6, #52, 12	; 0x3400000
    73d0:	38323538 	ldmdacc	r2!, {r3, r4, r5, r8, sl, ip, sp}
    73d4:	2b653638 	blcs	1954cbc <_Min_Stack_Size+0x19548bc>
    73d8:	00463833 	subeq	r3, r6, r3, lsr r8
    73dc:	53555f5f 	cmppl	r5, #380	; 0x17c
    73e0:	55434341 	strbpl	r4, [r3, #-833]	; 0xfffffcbf
    73e4:	50455f4d 	subpl	r5, r5, sp, asr #30
    73e8:	4f4c4953 	svcmi	0x004c4953
    73ec:	205f5f4e 	subscs	r5, pc, lr, asr #30
    73f0:	50317830 	eorspl	r7, r1, r0, lsr r8
    73f4:	4855382d 	ldmdami	r5, {r0, r2, r3, r5, fp, ip, sp}^
    73f8:	5f5f004b 	svcpl	0x005f004b
    73fc:	5f4c4244 	svcpl	0x004c4244
    7400:	5f534148 	svcpl	0x00534148
    7404:	45495551 	strbmi	r5, [r9, #-1361]	; 0xfffffaaf
    7408:	414e5f54 	cmpmi	lr, r4, asr pc
    740c:	205f5f4e 	subscs	r5, pc, lr, asr #30
    7410:	4e490031 	mcrmi	0, 2, r0, cr9, cr1, {1}
    7414:	5f323354 	svcpl	0x00323354
    7418:	29782843 	ldmdbcs	r8!, {r0, r1, r6, fp, sp}^
    741c:	495f5f20 	ldmdbmi	pc, {r5, r8, r9, sl, fp, ip, lr}^	; <UNPREDICTABLE>
    7420:	3233544e 	eorscc	r5, r3, #1308622848	; 0x4e000000
    7424:	7828435f 	stmdavc	r8!, {r0, r1, r2, r3, r4, r6, r8, r9, lr}
    7428:	5f5f0029 	svcpl	0x005f0029
    742c:	76727470 			; <UNDEFINED> instruction: 0x76727470
    7430:	65756c61 	ldrbvs	r6, [r5, #-3169]!	; 0xfffff39f
    7434:	4e5f0020 	cdpmi	0, 5, cr0, cr15, cr0, {1}
    7438:	4c4e494f 	mcrrmi	9, 4, r4, lr, cr15	; <UNPREDICTABLE>
    743c:	5f454e49 	svcpl	0x00454e49
    7440:	54415453 	strbpl	r5, [r1], #-1107	; 0xfffffbad
    7444:	5f204349 	svcpl	0x00204349
    7448:	4e494f4e 	cdpmi	15, 4, cr4, cr9, cr14, {2}
    744c:	454e494c 	strbmi	r4, [lr, #-2380]	; 0xfffff6b4
    7450:	61747320 	cmnvs	r4, r0, lsr #6
    7454:	00636974 	rsbeq	r6, r3, r4, ror r9
    7458:	4c4c5f5f 	mcrrmi	15, 5, r5, ip, cr15
    745c:	43415246 	movtmi	r5, #4678	; 0x1246
    7460:	414d5f54 	cmpmi	sp, r4, asr pc
    7464:	205f5f58 	subscs	r5, pc, r8, asr pc	; <UNPREDICTABLE>
    7468:	46375830 			; <UNDEFINED> instruction: 0x46375830
    746c:	46464646 	strbmi	r4, [r6], -r6, asr #12
    7470:	46464646 	strbmi	r4, [r6], -r6, asr #12
    7474:	46464646 	strbmi	r4, [r6], -r6, asr #12
    7478:	2d504646 	ldclcs	6, cr4, [r0, #-280]	; 0xfffffee8
    747c:	4c4c3336 	mcrrmi	3, 3, r3, ip, cr6
    7480:	5f5f0052 	svcpl	0x005f0052
    7484:	736e6f63 	cmnvc	lr, #396	; 0x18c
    7488:	6f632074 	svcvs	0x00632074
    748c:	0074736e 	rsbseq	r7, r4, lr, ror #6
    7490:	49545845 	ldmdbmi	r4, {r0, r2, r6, fp, ip, lr}^
    7494:	30435030 	subcc	r5, r3, r0, lsr r0
    7498:	58452820 	stmdapl	r5, {r5, fp, sp}^
    749c:	475f4954 			; <UNDEFINED> instruction: 0x475f4954
    74a0:	5f4f4950 	svcpl	0x004f4950
    74a4:	7070614d 	rsbsvc	r6, r0, sp, asr #2
    74a8:	5f676e69 	svcpl	0x00676e69
    74ac:	457b2974 	ldrbmi	r2, [fp, #-2420]!	; 0xfffff68c
    74b0:	30495458 	subcc	r5, r9, r8, asr r4
    74b4:	5047202c 	subpl	r2, r7, ip, lsr #32
    74b8:	2c434f49 	mcrrcs	15, 4, r4, r3, cr9
    74bc:	49504720 	ldmdbmi	r0, {r5, r8, r9, sl, lr}^
    74c0:	49505f4f 	ldmdbmi	r0, {r0, r1, r2, r3, r6, r8, r9, sl, fp, ip, lr}^
    74c4:	2c305f4e 	ldccs	15, cr5, [r0], #-312	; 0xfffffec8
    74c8:	54584520 	ldrbpl	r4, [r8], #-1312	; 0xfffffae0
    74cc:	495f3049 	ldmdbmi	pc, {r0, r3, r6, ip, sp}^	; <UNPREDICTABLE>
    74d0:	007d5152 	rsbseq	r5, sp, r2, asr r1
    74d4:	544e4955 	strbpl	r4, [lr], #-2389	; 0xfffff6ab
    74d8:	41454c5f 	cmpmi	r5, pc, asr ip
    74dc:	32335453 	eorscc	r5, r3, #1392508928	; 0x53000000
    74e0:	58414d5f 	stmdapl	r1, {r0, r1, r2, r3, r4, r6, r8, sl, fp, lr}^
    74e4:	5f5f2820 	svcpl	0x005f2820
    74e8:	544e4955 	strbpl	r4, [lr], #-2389	; 0xfffff6ab
    74ec:	41454c5f 	cmpmi	r5, pc, asr ip
    74f0:	32335453 	eorscc	r5, r3, #1392508928	; 0x53000000
    74f4:	58414d5f 	stmdapl	r1, {r0, r1, r2, r3, r4, r6, r8, sl, fp, lr}^
    74f8:	00295f5f 	eoreq	r5, r9, pc, asr pc
    74fc:	49545845 	ldmdbmi	r4, {r0, r2, r6, fp, ip, lr}^
    7500:	31435031 	cmpcc	r3, r1, lsr r0
    7504:	58452820 	stmdapl	r5, {r5, fp, sp}^
    7508:	475f4954 			; <UNDEFINED> instruction: 0x475f4954
    750c:	5f4f4950 	svcpl	0x004f4950
    7510:	7070614d 	rsbsvc	r6, r0, sp, asr #2
    7514:	5f676e69 	svcpl	0x00676e69
    7518:	457b2974 	ldrbmi	r2, [fp, #-2420]!	; 0xfffff68c
    751c:	31495458 	cmpcc	r9, r8, asr r4
    7520:	5047202c 	subpl	r2, r7, ip, lsr #32
    7524:	2c434f49 	mcrrcs	15, 4, r4, r3, cr9
    7528:	49504720 	ldmdbmi	r0, {r5, r8, r9, sl, lr}^
    752c:	49505f4f 	ldmdbmi	r0, {r0, r1, r2, r3, r6, r8, r9, sl, fp, ip, lr}^
    7530:	2c315f4e 	ldccs	15, cr5, [r1], #-312	; 0xfffffec8
    7534:	54584520 	ldrbpl	r4, [r8], #-1312	; 0xfffffae0
    7538:	495f3149 	ldmdbmi	pc, {r0, r3, r6, r8, ip, sp}^	; <UNPREDICTABLE>
    753c:	007d5152 	rsbseq	r5, sp, r2, asr r1
    7540:	5f434352 	svcpl	0x00434352
    7544:	52415355 	subpl	r5, r1, #1409286145	; 0x54000001
    7548:	435f3354 	cmpmi	pc, #84, 6	; 0x50000001
    754c:	455f4b4c 	ldrbmi	r4, [pc, #-2892]	; 6a08 <_Min_Stack_Size+0x6608>
    7550:	2029284e 	eorcs	r2, r9, lr, asr #16
    7554:	43435228 	movtmi	r5, #12840	; 0x3228
    7558:	50413e2d 	subpl	r3, r1, sp, lsr #28
    755c:	4e453142 	dvfmism	f3, f5, f2
    7560:	3d7c2052 	ldclcc	0, cr2, [ip, #-328]!	; 0xfffffeb8
    7564:	3c312820 	ldccc	8, cr2, [r1], #-128	; 0xffffff80
    7568:	2938313c 	ldmdbcs	r8!, {r2, r3, r4, r5, r8, ip, sp}
    756c:	5f5f0029 	svcpl	0x005f0029
    7570:	43434153 	movtmi	r4, #12627	; 0x3153
    7574:	4d5f4d55 	ldclmi	13, cr4, [pc, #-340]	; 7428 <_Min_Stack_Size+0x7028>
    7578:	5f5f5841 	svcpl	0x005f5841
    757c:	37583020 	ldrbcc	r3, [r8, -r0, lsr #32]
    7580:	50464646 	subpl	r4, r6, r6, asr #12
    7584:	4b48372d 	blmi	1215240 <_Min_Stack_Size+0x1214e40>
    7588:	495f5f00 	ldmdbmi	pc, {r8, r9, sl, fp, ip, lr}^	; <UNPREDICTABLE>
    758c:	5450544e 	ldrbpl	r5, [r0], #-1102	; 0xfffffbb2
    7590:	59545f52 	ldmdbpl	r4, {r1, r4, r6, r8, r9, sl, fp, ip, lr}^
    7594:	5f5f4550 	svcpl	0x005f4550
    7598:	746e6920 	strbtvc	r6, [lr], #-2336	; 0xfffff6e0
    759c:	54584500 	ldrbpl	r4, [r8], #-1280	; 0xfffffb00
    75a0:	495f3849 	ldmdbmi	pc, {r0, r3, r6, fp, ip, sp}^	; <UNPREDICTABLE>
    75a4:	32205152 	eorcc	r5, r0, #-2147483628	; 0x80000014
    75a8:	5f5f0033 	svcpl	0x005f0033
    75ac:	544e4955 	strbpl	r4, [lr], #-2389	; 0xfffff6ab
    75b0:	5f525450 	svcpl	0x00525450
    75b4:	45505954 	ldrbmi	r5, [r0, #-2388]	; 0xfffff6ac
    75b8:	75205f5f 	strvc	r5, [r0, #-3935]!	; 0xfffff0a1
    75bc:	6769736e 	strbvs	r7, [r9, -lr, ror #6]!
    75c0:	2064656e 	rsbcs	r6, r4, lr, ror #10
    75c4:	00746e69 	rsbseq	r6, r4, r9, ror #28
    75c8:	4f495047 	svcmi	0x00495047
    75cc:	444f4d5f 	strbmi	r4, [pc], #-3423	; 75d4 <_Min_Stack_Size+0x71d4>
    75d0:	4e495f45 	cdpmi	15, 4, cr5, cr9, cr5, {2}
    75d4:	5f545550 	svcpl	0x00545550
    75d8:	30205550 	eorcc	r5, r0, r0, asr r5
    75dc:	30303078 	eorscc	r3, r0, r8, ror r0
    75e0:	30303030 	eorscc	r3, r0, r0, lsr r0
    75e4:	50470032 	subpl	r0, r7, r2, lsr r0
    75e8:	20424f49 	subcs	r4, r2, r9, asr #30
    75ec:	50472828 	subpl	r2, r7, r8, lsr #16
    75f0:	545f4f49 	ldrbpl	r4, [pc], #-3913	; 75f8 <_Min_Stack_Size+0x71f8>
    75f4:	64657079 	strbtvs	r7, [r5], #-121	; 0xffffff87
    75f8:	745f6665 	ldrbvc	r6, [pc], #-1637	; 7600 <_Min_Stack_Size+0x7200>
    75fc:	47292a20 	strmi	r2, [r9, -r0, lsr #20]!
    7600:	424f4950 	submi	r4, pc, #80, 18	; 0x140000
    7604:	5341425f 	movtpl	r4, #4703	; 0x125f
    7608:	5f002945 	svcpl	0x00002945
    760c:	4745525f 	smlsldmi	r5, r5, pc, r2	; <UNPREDICTABLE>
    7610:	45545349 	ldrbmi	r5, [r4, #-841]	; 0xfffffcb7
    7614:	52505f52 	subspl	r5, r0, #328	; 0x148
    7618:	58494645 	stmdapl	r9, {r0, r2, r6, r9, sl, lr}^
    761c:	00205f5f 	eoreq	r5, r0, pc, asr pc
    7620:	4c465f5f 	mcrrmi	15, 5, r5, r6, cr15
    7624:	5f323354 	svcpl	0x00323354
    7628:	5f58414d 	svcpl	0x0058414d
    762c:	2e33205f 	mrccs	0, 1, r2, cr3, cr15, {2}
    7630:	38323034 	ldmdacc	r2!, {r2, r4, r5, ip, sp}
    7634:	36343332 			; <UNDEFINED> instruction: 0x36343332
    7638:	35383336 	ldrcc	r3, [r8, #-822]!	; 0xfffffcca
    763c:	36383832 			; <UNDEFINED> instruction: 0x36383832
    7640:	38332b65 	ldmdacc	r3!, {r0, r2, r5, r6, r8, r9, fp, sp}
    7644:	00323346 	eorseq	r3, r2, r6, asr #6
    7648:	42445f5f 	submi	r5, r4, #380	; 0x17c
    764c:	49445f4c 	stmdbmi	r4, {r2, r3, r6, r8, r9, sl, fp, ip, lr}^
    7650:	205f5f47 	subscs	r5, pc, r7, asr #30
    7654:	5f003531 	svcpl	0x00003531
    7658:	464c555f 			; <UNDEFINED> instruction: 0x464c555f
    765c:	54434152 	strbpl	r4, [r3], #-338	; 0xfffffeae
    7660:	5350455f 	cmppl	r0, #398458880	; 0x17c00000
    7664:	4e4f4c49 	cdpmi	12, 4, cr4, cr15, cr9, {2}
    7668:	30205f5f 	eorcc	r5, r0, pc, asr pc
    766c:	2d503178 	ldfcse	f3, [r0, #-480]	; 0xfffffe20
    7670:	4c553233 	lfmmi	f3, 2, [r5], {51}	; 0x33
    7674:	5f5f0052 	svcpl	0x005f0052
    7678:	49534352 	ldmdbmi	r3, {r1, r4, r6, r8, r9, lr}^
    767c:	29732844 	ldmdbcs	r3!, {r2, r6, fp, sp}^
    7680:	72747320 	rsbsvc	r7, r4, #32, 6	; 0x80000000
    7684:	20746375 	rsbscs	r6, r4, r5, ror r3
    7688:	61685f5f 	cmnvs	r8, pc, asr pc
    768c:	47006b63 	strmi	r6, [r0, -r3, ror #22]
    7690:	474f4950 	smlsldmi	r4, pc, r0, r9	; <UNPREDICTABLE>
    7694:	5341425f 	movtpl	r4, #4703	; 0x125f
    7698:	78302045 	ldmdavc	r0!, {r0, r2, r6, sp}
    769c:	31303034 	teqcc	r0, r4, lsr r0
    76a0:	30303032 	eorscc	r3, r0, r2, lsr r0
    76a4:	525f0075 	subspl	r0, pc, #117	; 0x75
    76a8:	544e4545 	strbpl	r4, [lr], #-1349	; 0xfffffabb
    76ac:	34364c5f 	ldrtcc	r4, [r6], #-3167	; 0xfffff3a1
    76b0:	55425f41 	strbpl	r5, [r2, #-3905]	; 0xfffff0bf
    76b4:	74702846 	ldrbtvc	r2, [r0], #-2118	; 0xfffff7ba
    76b8:	28202972 	stmdacs	r0!, {r1, r4, r5, r6, r8, fp, sp}
    76bc:	72747028 	rsbsvc	r7, r4, #40	; 0x28
    76c0:	5f3e2d29 	svcpl	0x003e2d29
    76c4:	6373696d 	cmnvs	r3, #1785856	; 0x1b4000
    76c8:	6c5f3e2d 	mrrcvs	14, 2, r3, pc, cr13	; <UNPREDICTABLE>
    76cc:	5f613436 	svcpl	0x00613436
    76d0:	29667562 	stmdbcs	r6!, {r1, r5, r6, r8, sl, ip, sp, lr}^
    76d4:	535f5f00 	cmppl	pc, #0, 30
    76d8:	4f455a49 	svcmi	0x00455a49
    76dc:	49535f46 	ldmdbmi	r3, {r1, r2, r6, r8, r9, sl, fp, ip, lr}^
    76e0:	545f455a 	ldrbpl	r4, [pc], #-1370	; 76e8 <_Min_Stack_Size+0x72e8>
    76e4:	34205f5f 	strtcc	r5, [r0], #-3935	; 0xfffff0a1
    76e8:	54584500 	ldrbpl	r4, [r8], #-1280	; 0xfffffb00
    76ec:	46435f49 	strbmi	r5, [r3], -r9, asr #30
    76f0:	5f5f0047 	svcpl	0x005f0047
    76f4:	36544e49 	ldrbcc	r4, [r4], -r9, asr #28
    76f8:	28435f34 	stmdacs	r3, {r2, r4, r5, r8, r9, sl, fp, ip, lr}^
    76fc:	63202963 			; <UNDEFINED> instruction: 0x63202963
    7700:	20232320 	eorcs	r2, r3, r0, lsr #6
    7704:	48004c4c 	stmdami	r0, {r2, r3, r6, sl, fp, lr}
    7708:	5f455641 	svcpl	0x00455641
    770c:	54494e49 	strbpl	r4, [r9], #-3657	; 0xfffff1b7
    7710:	494e4946 	stmdbmi	lr, {r1, r2, r6, r8, fp, lr}^
    7714:	5252415f 	subspl	r4, r2, #-1073741801	; 0xc0000017
    7718:	31205941 			; <UNDEFINED> instruction: 0x31205941
    771c:	6c5f5f00 	mrrcvs	15, 0, r5, pc, cr0	; <UNPREDICTABLE>
    7720:	616b636f 	cmnvs	fp, pc, ror #6
    7724:	20656c62 	rsbcs	r6, r5, r2, ror #24
    7728:	6f6c5f5f 	svcvs	0x006c5f5f
    772c:	615f6b63 	cmpvs	pc, r3, ror #22
    7730:	746f6e6e 	strbtvc	r6, [pc], #-3694	; 7738 <_Min_Stack_Size+0x7338>
    7734:	28657461 	stmdacs	r5!, {r0, r5, r6, sl, ip, sp, lr}^
    7738:	6b636f6c 	blvs	18e34f0 <_Min_Stack_Size+0x18e30f0>
    773c:	656c6261 	strbvs	r6, [ip, #-609]!	; 0xfffffd9f
    7740:	58450029 	stmdapl	r5, {r0, r3, r5}^
    7744:	35314954 	ldrcc	r4, [r1, #-2388]!	; 0xfffff6ac
    7748:	35314350 	ldrcc	r4, [r1, #-848]!	; 0xfffffcb0
    774c:	58452820 	stmdapl	r5, {r5, fp, sp}^
    7750:	475f4954 			; <UNDEFINED> instruction: 0x475f4954
    7754:	5f4f4950 	svcpl	0x004f4950
    7758:	7070614d 	rsbsvc	r6, r0, sp, asr #2
    775c:	5f676e69 	svcpl	0x00676e69
    7760:	457b2974 	ldrbmi	r2, [fp, #-2420]!	; 0xfffff68c
    7764:	31495458 	cmpcc	r9, r8, asr r4
    7768:	47202c35 			; <UNDEFINED> instruction: 0x47202c35
    776c:	434f4950 	movtmi	r4, #63824	; 0xf950
    7770:	5047202c 	subpl	r2, r7, ip, lsr #32
    7774:	505f4f49 	subspl	r4, pc, r9, asr #30
    7778:	315f4e49 	cmpcc	pc, r9, asr #28
    777c:	45202c35 	strmi	r2, [r0, #-3125]!	; 0xfffff3cb
    7780:	31495458 	cmpcc	r9, r8, asr r4
    7784:	52495f35 	subpl	r5, r9, #53, 30	; 0xd4
    7788:	5f007d51 	svcpl	0x00007d51
    778c:	444e455f 	strbmi	r4, [lr], #-1375	; 0xfffffaa1
    7790:	4345445f 	movtmi	r4, #21599	; 0x545f
    7794:	0020534c 	eoreq	r5, r0, ip, asr #6
    7798:	444c5f5f 	strbmi	r5, [ip], #-3935	; 0xfffff0a1
    779c:	4d5f4c42 	ldclmi	12, cr4, [pc, #-264]	; 769c <_Min_Stack_Size+0x729c>
    77a0:	5f5f4e49 	svcpl	0x005f4e49
    77a4:	322e3220 	eorcc	r3, lr, #32, 4
    77a8:	37303532 			; <UNDEFINED> instruction: 0x37303532
    77ac:	38353833 	ldmdacc	r5!, {r0, r1, r4, r5, fp, ip, sp}
    77b0:	32373035 	eorscc	r3, r7, #53	; 0x35
    77b4:	65343130 	ldrvs	r3, [r4, #-304]!	; 0xfffffed0
    77b8:	3830332d 	ldmdacc	r0!, {r0, r2, r3, r5, r8, r9, ip, sp}
    77bc:	564e004c 	strbpl	r0, [lr], -ip, asr #32
    77c0:	535f4349 	cmppl	pc, #603979777	; 0x24000001
    77c4:	5f334950 	svcpl	0x00334950
    77c8:	5f515249 	svcpl	0x00515249
    77cc:	62616e45 	rsbvs	r6, r1, #1104	; 0x450
    77d0:	2820656c 	stmdacs	r0!, {r2, r3, r5, r6, r8, sl, sp, lr}
    77d4:	4349564e 	movtmi	r5, #38478	; 0x964e
    77d8:	4553495f 	ldrbmi	r4, [r3, #-2399]	; 0xfffff6a1
    77dc:	7c203152 	stfvcs	f3, [r0], #-328	; 0xfffffeb8
    77e0:	3c31203d 	ldccc	0, cr2, [r1], #-244	; 0xffffff0c
    77e4:	5053283c 	subspl	r2, r3, ip, lsr r8
    77e8:	495f3349 	ldmdbmi	pc, {r0, r3, r6, r8, r9, ip, sp}^	; <UNPREDICTABLE>
    77ec:	2d205152 	stfcss	f5, [r0, #-328]!	; 0xfffffeb8
    77f0:	29323320 	ldmdbcs	r2!, {r5, r8, r9, ip, sp}
    77f4:	5f5f0029 	svcpl	0x005f0029
    77f8:	5f4d5241 	svcpl	0x004d5241
    77fc:	54414546 	strbpl	r4, [r1], #-1350	; 0xfffffaba
    7800:	5f455255 	svcpl	0x00455255
    7804:	00454443 	subeq	r4, r5, r3, asr #8
    7808:	43415f5f 	movtmi	r5, #8031	; 0x1f5f
    780c:	5f4d5543 	svcpl	0x004d5543
    7810:	54494249 	strbpl	r4, [r9], #-585	; 0xfffffdb7
    7814:	31205f5f 			; <UNDEFINED> instruction: 0x31205f5f
    7818:	58450036 	stmdapl	r5, {r1, r2, r4, r5}^
    781c:	33314954 	teqcc	r1, #84, 18	; 0x150000
    7820:	33314250 	teqcc	r1, #80, 4
    7824:	58452820 	stmdapl	r5, {r5, fp, sp}^
    7828:	475f4954 			; <UNDEFINED> instruction: 0x475f4954
    782c:	5f4f4950 	svcpl	0x004f4950
    7830:	7070614d 	rsbsvc	r6, r0, sp, asr #2
    7834:	5f676e69 	svcpl	0x00676e69
    7838:	457b2974 	ldrbmi	r2, [fp, #-2420]!	; 0xfffff68c
    783c:	31495458 	cmpcc	r9, r8, asr r4
    7840:	47202c33 			; <UNDEFINED> instruction: 0x47202c33
    7844:	424f4950 	submi	r4, pc, #80, 18	; 0x140000
    7848:	5047202c 	subpl	r2, r7, ip, lsr #32
    784c:	505f4f49 	subspl	r4, pc, r9, asr #30
    7850:	315f4e49 	cmpcc	pc, r9, asr #28
    7854:	45202c33 	strmi	r2, [r0, #-3123]!	; 0xfffff3cd
    7858:	31495458 	cmpcc	r9, r8, asr r4
    785c:	52495f33 	subpl	r5, r9, #51, 30	; 0xcc
    7860:	75007d51 	strvc	r7, [r0, #-3409]	; 0xfffff2af
    7864:	6769736e 	strbvs	r7, [r9, -lr, ror #6]!
    7868:	0064656e 	rsbeq	r6, r4, lr, ror #10
    786c:	5f434e49 	svcpl	0x00434e49
    7870:	334d5453 	movtcc	r5, #54355	; 0xd453
    7874:	31465f32 	cmpcc	r6, r2, lsr pc
    7878:	36433330 			; <UNDEFINED> instruction: 0x36433330
    787c:	4952445f 	ldmdbmi	r2, {r0, r1, r2, r3, r4, r6, sl, lr}^
    7880:	53524556 	cmppl	r2, #360710144	; 0x15800000
    7884:	5458455f 	ldrbpl	r4, [r8], #-1375	; 0xfffffaa1
    7888:	5f485f49 	svcpl	0x00485f49
    788c:	5f5f0020 	svcpl	0x005f0020
    7890:	675f7470 			; <UNDEFINED> instruction: 0x675f7470
    7894:	64726175 	ldrbtvs	r6, [r2], #-373	; 0xfffffe8b
    7898:	625f6465 	subsvs	r6, pc, #1694498816	; 0x65000000
    789c:	29782879 	ldmdbcs	r8!, {r0, r3, r4, r5, r6, fp, sp}^
    78a0:	6c5f5f20 	mrrcvs	15, 2, r5, pc, cr0	; <UNPREDICTABLE>
    78a4:	5f6b636f 	svcpl	0x006b636f
    78a8:	6f6e6e61 	svcvs	0x006e6e61
    78ac:	65746174 	ldrbvs	r6, [r4, #-372]!	; 0xfffffe8c
    78b0:	5f747028 	svcpl	0x00747028
    78b4:	72617567 	rsbvc	r7, r1, #432013312	; 0x19c00000
    78b8:	5f646564 	svcpl	0x00646564
    78bc:	78287962 	stmdavc	r8!, {r1, r5, r6, r8, fp, ip, sp, lr}
    78c0:	49002929 	stmdbmi	r0, {r0, r3, r5, r8, fp, sp}
    78c4:	5f525350 	svcpl	0x00525350
    78c8:	0074756f 	rsbseq	r7, r4, pc, ror #10
    78cc:	49545845 	ldmdbmi	r4, {r0, r2, r6, fp, ip, lr}^
    78d0:	495f3231 	ldmdbmi	pc, {r0, r4, r5, r9, ip, sp}^	; <UNPREDICTABLE>
    78d4:	34205152 	strtcc	r5, [r0], #-338	; 0xfffffeae
    78d8:	5f5f0030 	svcpl	0x005f0030
    78dc:	43554e47 	cmpmi	r5, #1136	; 0x470
    78e0:	454b494c 	strbmi	r4, [fp, #-2380]	; 0xfffff6b4
    78e4:	4f5f5f5f 	svcmi	0x005f5f5f
    78e8:	45534646 	ldrbmi	r4, [r3, #-1606]	; 0xfffff9ba
    78ec:	20464f54 	subcs	r4, r6, r4, asr pc
    78f0:	5f5f0031 	svcpl	0x005f0031
    78f4:	544e4955 	strbpl	r4, [lr], #-2389	; 0xfffff6ab
    78f8:	435f3631 	cmpmi	pc, #51380224	; 0x3100000
    78fc:	20296328 	eorcs	r6, r9, r8, lsr #6
    7900:	5f5f0063 	svcpl	0x005f0063
    7904:	36544c46 	ldrbcc	r4, [r4], -r6, asr #24
    7908:	494d5f34 	stmdbmi	sp, {r2, r4, r5, r8, r9, sl, fp, ip, lr}^
    790c:	58455f4e 	stmdapl	r5, {r1, r2, r3, r6, r8, r9, sl, fp, ip, lr}^
    7910:	205f5f50 	subscs	r5, pc, r0, asr pc	; <UNPREDICTABLE>
    7914:	30312d28 	eorscc	r2, r1, r8, lsr #26
    7918:	00293132 	eoreq	r3, r9, r2, lsr r1
    791c:	79735f5f 	ldmdbvc	r3!, {r0, r1, r2, r3, r4, r6, r8, r9, sl, fp, ip, lr}^
    7920:	6f635f6d 	svcvs	0x00635f6d
    7924:	7461706d 	strbtvc	r7, [r1], #-109	; 0xffffff93
    7928:	6d797328 	ldclvs	3, cr7, [r9, #-160]!	; 0xffffff60
    792c:	706d692c 	rsbvc	r6, sp, ip, lsr #18
    7930:	65762c6c 	ldrbvs	r2, [r6, #-3180]!	; 0xfffff394
    7934:	29646972 	stmdbcs	r4!, {r1, r4, r5, r6, r8, fp, sp, lr}^
    7938:	615f5f20 	cmpvs	pc, r0, lsr #30
    793c:	5f5f6d73 	svcpl	0x005f6d73
    7940:	732e2228 			; <UNDEFINED> instruction: 0x732e2228
    7944:	65766d79 	ldrbvs	r6, [r6, #-3449]!	; 0xfffff287
    7948:	20222072 	eorcs	r2, r2, r2, ror r0
    794c:	706d6923 	rsbvc	r6, sp, r3, lsr #18
    7950:	2c22206c 	stccs	0, cr2, [r2], #-432	; 0xfffffe50
    7954:	23202220 			; <UNDEFINED> instruction: 0x23202220
    7958:	206d7973 	rsbcs	r7, sp, r3, ror r9
    795c:	20224022 	eorcs	r4, r2, r2, lsr #32
    7960:	72657623 	rsbvc	r7, r5, #36700160	; 0x2300000
    7964:	00296469 	eoreq	r6, r9, r9, ror #8
    7968:	43435f5f 	movtmi	r5, #16223	; 0x3f5f
    796c:	5055535f 	subspl	r5, r5, pc, asr r3
    7970:	54524f50 	ldrbpl	r4, [r2], #-3920	; 0xfffff0b0
    7974:	5f5f5f53 	svcpl	0x005f5f53
    7978:	494c4e49 	stmdbmi	ip, {r0, r3, r6, r9, sl, fp, lr}^
    797c:	5f5f454e 	svcpl	0x005f454e
    7980:	5f003120 	svcpl	0x00003120
    7984:	4144555f 	cmpmi	r4, pc, asr r5
    7988:	4942495f 	stmdbmi	r2, {r0, r1, r2, r3, r4, r6, r8, fp, lr}^
    798c:	205f5f54 	subscs	r5, pc, r4, asr pc	; <UNPREDICTABLE>
    7990:	5f003233 	svcpl	0x00003233
    7994:	41454c5f 	cmpmi	r5, pc, asr ip
    7998:	36315453 			; <UNDEFINED> instruction: 0x36315453
    799c:	22682220 	rsbcs	r2, r8, #32, 4
    79a0:	705f5f00 	subsvc	r5, pc, r0, lsl #30
    79a4:	746e6972 	strbtvc	r6, [lr], #-2418	; 0xfffff68e
    79a8:	6b696c66 	blvs	1a62b48 <_Min_Stack_Size+0x1a62748>
    79ac:	6d662865 	stclvs	8, cr2, [r6, #-404]!	; 0xfffffe6c
    79b0:	67726174 			; <UNDEFINED> instruction: 0x67726174
    79b4:	7269662c 	rsbvc	r6, r9, #44, 12	; 0x2c00000
    79b8:	61767473 	cmnvs	r6, r3, ror r4
    79bc:	67726172 			; <UNDEFINED> instruction: 0x67726172
    79c0:	5f5f2029 	svcpl	0x005f2029
    79c4:	72747461 	rsbsvc	r7, r4, #1627389952	; 0x61000000
    79c8:	74756269 	ldrbtvc	r6, [r5], #-617	; 0xfffffd97
    79cc:	285f5f65 	ldmdacs	pc, {r0, r2, r5, r6, r8, r9, sl, fp, ip, lr}^	; <UNPREDICTABLE>
    79d0:	665f5f28 	ldrbvs	r5, [pc], -r8, lsr #30
    79d4:	616d726f 	cmnvs	sp, pc, ror #4
    79d8:	205f5f74 	subscs	r5, pc, r4, ror pc	; <UNPREDICTABLE>
    79dc:	705f5f28 	subsvc	r5, pc, r8, lsr #30
    79e0:	746e6972 	strbtvc	r6, [lr], #-2418	; 0xfffff68e
    79e4:	2c5f5f66 	mrrccs	15, 6, r5, pc, cr6	; <UNPREDICTABLE>
    79e8:	746d6620 	strbtvc	r6, [sp], #-1568	; 0xfffff9e0
    79ec:	2c677261 	sfmcs	f7, 2, [r7], #-388	; 0xfffffe7c
    79f0:	72696620 	rsbvc	r6, r9, #32, 12	; 0x2000000
    79f4:	61767473 	cmnvs	r6, r3, ror r4
    79f8:	67726172 			; <UNDEFINED> instruction: 0x67726172
    79fc:	00292929 	eoreq	r2, r9, r9, lsr #18
    7a00:	4f4e5f5f 	svcmi	0x004e5f5f
    7a04:	4c4e495f 	mcrrmi	9, 5, r4, lr, cr15	; <UNPREDICTABLE>
    7a08:	5f454e49 	svcpl	0x00454e49
    7a0c:	0031205f 	eorseq	r2, r1, pc, asr r0
    7a10:	4349564e 	movtmi	r5, #38478	; 0x964e
    7a14:	4950535f 	ldmdbmi	r0, {r0, r1, r2, r3, r4, r6, r8, r9, ip, lr}^
    7a18:	52495f32 	subpl	r5, r9, #50, 30	; 0xc8
    7a1c:	6e455f51 	mcrvs	15, 2, r5, cr5, cr1, {2}
    7a20:	656c6261 	strbvs	r6, [ip, #-609]!	; 0xfffffd9f
    7a24:	564e2820 	strbpl	r2, [lr], -r0, lsr #16
    7a28:	495f4349 	ldmdbmi	pc, {r0, r3, r6, r8, r9, lr}^	; <UNPREDICTABLE>
    7a2c:	31524553 	cmpcc	r2, r3, asr r5
    7a30:	203d7c20 	eorscs	r7, sp, r0, lsr #24
    7a34:	283c3c31 	ldmdacs	ip!, {r0, r4, r5, sl, fp, ip, sp}
    7a38:	32495053 	subcc	r5, r9, #83	; 0x53
    7a3c:	5152495f 	cmppl	r2, pc, asr r9
    7a40:	33202d20 			; <UNDEFINED> instruction: 0x33202d20
    7a44:	00292932 	eoreq	r2, r9, r2, lsr r9
    7a48:	61665f5f 	cmnvs	r6, pc, asr pc
    7a4c:	61637473 	smcvs	14147	; 0x3743
    7a50:	5f206c6c 	svcpl	0x00206c6c
    7a54:	7474615f 	ldrbtvc	r6, [r4], #-351	; 0xfffffea1
    7a58:	75626972 	strbvc	r6, [r2, #-2418]!	; 0xfffff68e
    7a5c:	5f5f6574 	svcpl	0x005f6574
    7a60:	5f5f2828 	svcpl	0x005f2828
    7a64:	74736166 	ldrbtvc	r6, [r3], #-358	; 0xfffffe9a
    7a68:	6c6c6163 	stfvse	f6, [ip], #-396	; 0xfffffe74
    7a6c:	29295f5f 	stmdbcs	r9!, {r0, r1, r2, r3, r4, r6, r8, r9, sl, fp, ip, lr}
    7a70:	544e4900 	strbpl	r4, [lr], #-2304	; 0xfffff700
    7a74:	4d5f3436 	cfldrdmi	mvd3, [pc, #-216]	; 79a4 <_Min_Stack_Size+0x75a4>
    7a78:	28204e49 	stmdacs	r0!, {r0, r3, r6, r9, sl, fp, lr}
    7a7c:	495f5f2d 	ldmdbmi	pc, {r0, r2, r3, r5, r8, r9, sl, fp, ip, lr}^	; <UNPREDICTABLE>
    7a80:	3436544e 	ldrtcc	r5, [r6], #-1102	; 0xfffffbb2
    7a84:	58414d5f 	stmdapl	r1, {r0, r1, r2, r3, r4, r6, r8, sl, fp, lr}^
    7a88:	2d205f5f 	stccs	15, cr5, [r0, #-380]!	; 0xfffffe84
    7a8c:	00293120 	eoreq	r3, r9, r0, lsr #2
    7a90:	6f6c5f5f 	svcvs	0x006c5f5f
    7a94:	615f6b63 	cmpvs	pc, r3, ror #22
    7a98:	746f6e6e 	strbtvc	r6, [pc], #-3694	; 7aa0 <_Min_Stack_Size+0x76a0>
    7a9c:	28657461 	stmdacs	r5!, {r0, r5, r6, sl, ip, sp, lr}^
    7aa0:	00202978 	eoreq	r2, r0, r8, ror r9
    7aa4:	54494c5f 	strbpl	r4, [r9], #-3167	; 0xfffff3a1
    7aa8:	58455f45 	stmdapl	r5, {r0, r2, r6, r8, r9, sl, fp, ip, lr}^
    7aac:	31205449 			; <UNDEFINED> instruction: 0x31205449
    7ab0:	415f5f00 	cmpmi	pc, r0, lsl #30
    7ab4:	494d4f54 	stmdbmi	sp, {r2, r4, r6, r8, r9, sl, fp, lr}^
    7ab8:	45525f43 	ldrbmi	r5, [r2, #-3907]	; 0xfffff0bd
    7abc:	4558414c 	ldrbmi	r4, [r8, #-332]	; 0xfffffeb4
    7ac0:	00302044 	eorseq	r2, r0, r4, asr #32
    7ac4:	5454415f 	ldrbpl	r4, [r4], #-351	; 0xfffffea1
    7ac8:	55424952 	strbpl	r4, [r2, #-2386]	; 0xfffff6ae
    7acc:	61284554 			; <UNDEFINED> instruction: 0x61284554
    7ad0:	73727474 	cmnvc	r2, #116, 8	; 0x74000000
    7ad4:	5f5f2029 	svcpl	0x005f2029
    7ad8:	72747461 	rsbsvc	r7, r4, #1627389952	; 0x61000000
    7adc:	74756269 	ldrbtvc	r6, [r5], #-617	; 0xfffffd97
    7ae0:	205f5f65 	subscs	r5, pc, r5, ror #30
    7ae4:	74746128 	ldrbtvc	r6, [r4], #-296	; 0xfffffed8
    7ae8:	00297372 	eoreq	r7, r9, r2, ror r3
    7aec:	52415f5f 	subpl	r5, r1, #380	; 0x17c
    7af0:	45465f4d 	strbmi	r5, [r6, #-3917]	; 0xfffff0b3
    7af4:	52555441 	subspl	r5, r5, #1090519040	; 0x41000000
    7af8:	4f435f45 	svcmi	0x00435f45
    7afc:	434f5250 	movtmi	r5, #62032	; 0xf250
    7b00:	465f5f00 	ldrbmi	r5, [pc], -r0, lsl #30
    7b04:	38545341 	ldmdacc	r4, {r0, r6, r8, r9, ip, lr}^
    7b08:	5f5f0020 	svcpl	0x005f0020
    7b0c:	52545441 	subspl	r5, r4, #1090519040	; 0x41000000
    7b10:	54554249 	ldrbpl	r4, [r5], #-585	; 0xfffffdb7
    7b14:	4d495f45 	stclmi	15, cr5, [r9, #-276]	; 0xfffffeec
    7b18:	45525550 	ldrbmi	r5, [r2, #-1360]	; 0xfffffab0
    7b1c:	5254505f 	subspl	r5, r4, #95	; 0x5f
    7b20:	00205f5f 	eoreq	r5, r0, pc, asr pc
    7b24:	42445f5f 	submi	r5, r4, #380	; 0x17c
    7b28:	41485f4c 	cmpmi	r8, ip, asr #30
    7b2c:	4e495f53 	mcrmi	15, 2, r5, cr9, cr3, {2}
    7b30:	494e4946 	stmdbmi	lr, {r1, r2, r6, r8, fp, lr}^
    7b34:	5f5f5954 	svcpl	0x005f5954
    7b38:	5f003120 	svcpl	0x00003120
    7b3c:	4749535f 	smlsldmi	r5, r9, pc, r3	; <UNPREDICTABLE>
    7b40:	4f54415f 	svcmi	0x0054415f
    7b44:	5f43494d 	svcpl	0x0043494d
    7b48:	5f58414d 	svcpl	0x0058414d
    7b4c:	7830205f 	ldmdavc	r0!, {r0, r1, r2, r3, r4, r6, sp}
    7b50:	66666637 			; <UNDEFINED> instruction: 0x66666637
    7b54:	66666666 	strbtvs	r6, [r6], -r6, ror #12
    7b58:	41525f00 	cmpmi	r2, r0, lsl #30
    7b5c:	3834444e 	ldmdacc	r4!, {r1, r2, r3, r6, sl, lr}
    7b60:	4c554d5f 	mrrcmi	13, 5, r4, r5, cr15
    7b64:	20305f54 	eorscs	r5, r0, r4, asr pc
    7b68:	65783028 	ldrbvs	r3, [r8, #-40]!	; 0xffffffd8
    7b6c:	29643636 	stmdbcs	r4!, {r1, r2, r4, r5, r9, sl, ip, sp}^
    7b70:	49504700 	ldmdbmi	r0, {r8, r9, sl, lr}^
    7b74:	4f4d5f4f 	svcmi	0x004d5f4f
    7b78:	495f4544 	ldmdbmi	pc, {r2, r6, r8, sl, lr}^	; <UNPREDICTABLE>
    7b7c:	5455504e 	ldrbpl	r5, [r5], #-78	; 0xffffffb2
    7b80:	2046415f 	subcs	r4, r6, pc, asr r1
    7b84:	30307830 	eorscc	r7, r0, r0, lsr r8
    7b88:	30303030 	eorscc	r3, r0, r0, lsr r0
    7b8c:	5f003830 	svcpl	0x00003830
    7b90:	4e454552 	mcrmi	5, 2, r4, cr5, cr2, {2}
    7b94:	48435f54 	stmdami	r3, {r2, r4, r6, r8, r9, sl, fp, ip, lr}^
    7b98:	5f4b4345 	svcpl	0x004b4345
    7b9c:	444e4152 	strbmi	r4, [lr], #-338	; 0xfffffeae
    7ba0:	76283834 			; <UNDEFINED> instruction: 0x76283834
    7ba4:	20297261 	eorcs	r7, r9, r1, ror #4
    7ba8:	4545525f 	strbmi	r5, [r5, #-607]	; 0xfffffda1
    7bac:	435f544e 	cmpmi	pc, #1308622848	; 0x4e000000
    7bb0:	4b434548 	blmi	10d90d8 <_Min_Stack_Size+0x10d8cd8>
    7bb4:	72617628 	rsbvc	r7, r1, #40, 12	; 0x2800000
    7bb8:	725f202c 	subsvc	r2, pc, #44	; 0x2c
    7bbc:	202c3834 	eorcs	r3, ip, r4, lsr r8
    7bc0:	75727473 	ldrbvc	r7, [r2, #-1139]!	; 0xfffffb8d
    7bc4:	5f207463 	svcpl	0x00207463
    7bc8:	646e6172 	strbtvs	r6, [lr], #-370	; 0xfffffe8e
    7bcc:	2a203834 	bcs	815ca4 <_Min_Stack_Size+0x8158a4>
    7bd0:	6973202c 	ldmdbvs	r3!, {r2, r3, r5, sp}^
    7bd4:	666f657a 			; <UNDEFINED> instruction: 0x666f657a
    7bd8:	28282a20 	stmdacs	r8!, {r5, r9, fp, sp}
    7bdc:	29726176 	ldmdbcs	r2!, {r1, r2, r4, r5, r6, r8, sp, lr}^
    7be0:	725f3e2d 	subsvc	r3, pc, #720	; 0x2d0
    7be4:	2c293834 	stccs	8, cr3, [r9], #-208	; 0xffffff30
    7be8:	45525f20 	ldrbmi	r5, [r2, #-3872]	; 0xfffff0e0
    7bec:	5f544e45 	svcpl	0x00544e45
    7bf0:	54494e49 	strbpl	r4, [r9], #-3657	; 0xfffff1b7
    7bf4:	4e41525f 	mcrmi	2, 2, r5, cr1, cr15, {2}
    7bf8:	28383444 	ldmdacs	r8!, {r2, r6, sl, ip, sp}
    7bfc:	72617628 	rsbvc	r7, r1, #40, 12	; 0x2800000
    7c00:	00292929 	eoreq	r2, r9, r9, lsr #18
    7c04:	5445525f 	strbpl	r5, [r5], #-607	; 0xfffffda1
    7c08:	45475241 	strbmi	r5, [r7, #-577]	; 0xfffffdbf
    7c0c:	4c424154 	stfmie	f4, [r2], {84}	; 0x54
    7c10:	4f4c5f45 	svcmi	0x004c5f45
    7c14:	4e494b43 	vmlsmi.f64	d20, d9, d3
    7c18:	00312047 	eorseq	r2, r1, r7, asr #32
    7c1c:	49545845 	ldmdbmi	r4, {r0, r2, r6, fp, ip, lr}^
    7c20:	39435039 	stmdbcc	r3, {r0, r3, r4, r5, ip, lr}^
    7c24:	58452820 	stmdapl	r5, {r5, fp, sp}^
    7c28:	475f4954 			; <UNDEFINED> instruction: 0x475f4954
    7c2c:	5f4f4950 	svcpl	0x004f4950
    7c30:	7070614d 	rsbsvc	r6, r0, sp, asr #2
    7c34:	5f676e69 	svcpl	0x00676e69
    7c38:	457b2974 	ldrbmi	r2, [fp, #-2420]!	; 0xfffff68c
    7c3c:	39495458 	stmdbcc	r9, {r3, r4, r6, sl, ip, lr}^
    7c40:	5047202c 	subpl	r2, r7, ip, lsr #32
    7c44:	2c434f49 	mcrrcs	15, 4, r4, r3, cr9
    7c48:	49504720 	ldmdbmi	r0, {r5, r8, r9, sl, lr}^
    7c4c:	49505f4f 	ldmdbmi	r0, {r0, r1, r2, r3, r6, r8, r9, sl, fp, ip, lr}^
    7c50:	2c395f4e 	ldccs	15, cr5, [r9], #-312	; 0xfffffec8
    7c54:	54584520 	ldrbpl	r4, [r8], #-1312	; 0xfffffae0
    7c58:	495f3949 	ldmdbmi	pc, {r0, r3, r6, r8, fp, ip, sp}^	; <UNPREDICTABLE>
    7c5c:	007d5152 	rsbseq	r5, sp, r2, asr r1
    7c60:	49545845 	ldmdbmi	r4, {r0, r2, r6, fp, ip, lr}^
    7c64:	52495f37 	subpl	r5, r9, #55, 30	; 0xdc
    7c68:	33322051 	teqcc	r2, #81	; 0x51
    7c6c:	725f5f00 	subsvc	r5, pc, #0, 30
    7c70:	65676e61 	strbvs	r6, [r7, #-3681]!	; 0xfffff19f
    7c74:	7428666f 	strtvc	r6, [r8], #-1647	; 0xfffff991
    7c78:	2c657079 	stclcs	0, cr7, [r5], #-484	; 0xfffffe1c
    7c7c:	72617473 	rsbvc	r7, r1, #1929379840	; 0x73000000
    7c80:	6e652c74 	mcrvs	12, 3, r2, cr5, cr4, {3}
    7c84:	28202964 	stmdacs	r0!, {r2, r5, r6, r8, fp, sp}
    7c88:	666f5f5f 	uqsaxvs	r5, pc, pc	; <UNPREDICTABLE>
    7c8c:	74657366 	strbtvc	r7, [r5], #-870	; 0xfffffc9a
    7c90:	7428666f 	strtvc	r6, [r8], #-1647	; 0xfffff991
    7c94:	2c657079 	stclcs	0, cr7, [r5], #-484	; 0xfffffe1c
    7c98:	646e6520 	strbtvs	r6, [lr], #-1312	; 0xfffffae0
    7c9c:	202d2029 	eorcs	r2, sp, r9, lsr #32
    7ca0:	666f5f5f 	uqsaxvs	r5, pc, pc	; <UNPREDICTABLE>
    7ca4:	74657366 	strbtvc	r7, [r5], #-870	; 0xfffffc9a
    7ca8:	7428666f 	strtvc	r6, [r8], #-1647	; 0xfffff991
    7cac:	2c657079 	stclcs	0, cr7, [r5], #-484	; 0xfffffe1c
    7cb0:	61747320 	cmnvs	r4, r0, lsr #6
    7cb4:	29297472 	stmdbcs	r9!, {r1, r4, r5, r6, sl, ip, sp, lr}
    7cb8:	554e5f00 	strbpl	r5, [lr, #-3840]	; 0xfffff100
    7cbc:	30204c4c 	eorcc	r4, r0, ip, asr #24
    7cc0:	49564e00 	ldmdbmi	r6, {r9, sl, fp, lr}^
    7cc4:	50535f43 	subspl	r5, r3, r3, asr #30
    7cc8:	495f3149 	ldmdbmi	pc, {r0, r3, r6, r8, ip, sp}^	; <UNPREDICTABLE>
    7ccc:	455f5152 	ldrbmi	r5, [pc, #-338]	; 7b82 <_Min_Stack_Size+0x7782>
    7cd0:	6c62616e 	stfvse	f6, [r2], #-440	; 0xfffffe48
    7cd4:	4e282065 	cdpmi	0, 2, cr2, cr8, cr5, {3}
    7cd8:	5f434956 	svcpl	0x00434956
    7cdc:	52455349 	subpl	r5, r5, #603979777	; 0x24000001
    7ce0:	3d7c2031 	ldclcc	0, cr2, [ip, #-196]!	; 0xffffff3c
    7ce4:	3c3c3120 	ldfccs	f3, [ip], #-128	; 0xffffff80
    7ce8:	49505328 	ldmdbmi	r0, {r3, r5, r8, r9, ip, lr}^
    7cec:	52495f31 	subpl	r5, r9, #49, 30	; 0xc4
    7cf0:	202d2051 	eorcs	r2, sp, r1, asr r0
    7cf4:	29293233 	stmdbcs	r9!, {r0, r1, r4, r5, r9, ip, sp}
    7cf8:	555f5f00 	ldrbpl	r5, [pc, #-3840]	; 6e00 <_Min_Stack_Size+0x6a00>
    7cfc:	5f534553 	svcpl	0x00534553
    7d00:	54494e49 	strbpl	r4, [r9], #-3657	; 0xfffff1b7
    7d04:	494e4946 	stmdbmi	lr, {r1, r2, r6, r8, fp, lr}^
    7d08:	31205f5f 			; <UNDEFINED> instruction: 0x31205f5f
    7d0c:	4e495500 	cdpmi	5, 4, cr5, cr9, cr0, {0}
    7d10:	435f3854 	cmpmi	pc, #84, 16	; 0x540000
    7d14:	20297828 	eorcs	r7, r9, r8, lsr #16
    7d18:	49555f5f 	ldmdbmi	r5, {r0, r1, r2, r3, r4, r6, r8, r9, sl, fp, ip, lr}^
    7d1c:	5f38544e 	svcpl	0x0038544e
    7d20:	29782843 	ldmdbcs	r8!, {r0, r1, r6, fp, sp}^
    7d24:	6e5f5f00 	cdpvs	15, 5, cr5, cr15, cr0, {0}
    7d28:	5f646565 	svcpl	0x00646565
    7d2c:	64727470 	ldrbtvs	r7, [r2], #-1136	; 0xfffffb90
    7d30:	5f666669 	svcpl	0x00666669
    7d34:	5f5f0074 	svcpl	0x005f0074
    7d38:	5f4c4244 	svcpl	0x004c4244
    7d3c:	49434544 	stmdbmi	r3, {r2, r6, r8, sl, lr}^
    7d40:	5f4c414d 	svcpl	0x004c414d
    7d44:	5f474944 	svcpl	0x00474944
    7d48:	3731205f 			; <UNDEFINED> instruction: 0x3731205f
    7d4c:	415f5f00 	cmpmi	pc, r0, lsl #30
    7d50:	465f4d52 			; <UNDEFINED> instruction: 0x465f4d52
    7d54:	55544145 	ldrbpl	r4, [r4, #-325]	; 0xfffffebb
    7d58:	535f4552 	cmppl	pc, #343932928	; 0x14800000
    7d5c:	31205441 			; <UNDEFINED> instruction: 0x31205441
    7d60:	685f5f00 	ldmdavs	pc, {r8, r9, sl, fp, ip, lr}^	; <UNPREDICTABLE>
    7d64:	5f657661 	svcpl	0x00657661
    7d68:	676e6f6c 	strbvs	r6, [lr, -ip, ror #30]!
    7d6c:	31203233 			; <UNDEFINED> instruction: 0x31203233
    7d70:	544e4900 	strbpl	r4, [lr], #-2304	; 0xfffff700
    7d74:	41454c5f 	cmpmi	r5, pc, asr ip
    7d78:	5f385453 	svcpl	0x00385453
    7d7c:	204e494d 	subcs	r4, lr, sp, asr #18
    7d80:	5f5f2d28 	svcpl	0x005f2d28
    7d84:	5f544e49 	svcpl	0x00544e49
    7d88:	5341454c 	movtpl	r4, #5452	; 0x154c
    7d8c:	4d5f3854 	ldclmi	8, cr3, [pc, #-336]	; 7c44 <_Min_Stack_Size+0x7844>
    7d90:	5f5f5841 	svcpl	0x005f5841
    7d94:	31202d20 			; <UNDEFINED> instruction: 0x31202d20
    7d98:	475f0029 	ldrbmi	r0, [pc, -r9, lsr #32]
    7d9c:	41424f4c 	cmpmi	r2, ip, asr #30
    7da0:	45525f4c 	ldrbmi	r5, [r2, #-3916]	; 0xfffff0b4
    7da4:	20544e45 	subscs	r4, r4, r5, asr #28
    7da8:	6f6c675f 	svcvs	0x006c675f
    7dac:	5f6c6162 	svcpl	0x006c6162
    7db0:	75706d69 	ldrbvc	r6, [r0, #-3433]!	; 0xfffff297
    7db4:	705f6572 	subsvc	r6, pc, r2, ror r5	; <UNPREDICTABLE>
    7db8:	5f007274 	svcpl	0x00007274
    7dbc:	414c555f 	cmpmi	ip, pc, asr r5
    7dc0:	4d554343 	ldclmi	3, cr4, [r5, #-268]	; 0xfffffef4
    7dc4:	4942465f 	stmdbmi	r2, {r0, r1, r2, r3, r4, r6, r9, sl, lr}^
    7dc8:	205f5f54 	subscs	r5, pc, r4, asr pc	; <UNPREDICTABLE>
    7dcc:	5f003233 	svcpl	0x00003233
    7dd0:	656c665f 	strbvs	r6, [ip, #-1631]!	; 0xfffff9a1
    7dd4:	72726178 	rsbsvc	r6, r2, #120, 2
    7dd8:	5d305b20 	vldmdbpl	r0!, {d5-d20}
    7ddc:	49564e00 	ldmdbmi	r6, {r9, sl, fp, lr}^
    7de0:	61425f43 	cmpvs	r2, r3, asr #30
    7de4:	30206573 	eorcc	r6, r0, r3, ror r5
    7de8:	30304578 	eorscc	r4, r0, r8, ror r5
    7dec:	30314530 	eorscc	r4, r1, r0, lsr r5
    7df0:	41007530 	tstmi	r0, r0, lsr r5
    7df4:	4e454248 	cdpmi	2, 4, cr4, cr5, cr8, {2}
    7df8:	49550052 	ldmdbmi	r5, {r1, r4, r6}^
    7dfc:	3436544e 	ldrtcc	r5, [r6], #-1102	; 0xfffffbb2
    7e00:	7828435f 	stmdavc	r8!, {r0, r1, r2, r3, r4, r6, r8, r9, lr}
    7e04:	5f5f2029 	svcpl	0x005f2029
    7e08:	544e4955 	strbpl	r4, [lr], #-2389	; 0xfffff6ab
    7e0c:	435f3436 	cmpmi	pc, #905969664	; 0x36000000
    7e10:	00297828 	eoreq	r7, r9, r8, lsr #16
    7e14:	4545525f 	strbmi	r5, [r5, #-607]	; 0xfffffda1
    7e18:	495f544e 	ldmdbmi	pc, {r1, r2, r3, r6, sl, ip, lr}^	; <UNPREDICTABLE>
    7e1c:	5f54494e 	svcpl	0x0054494e
    7e20:	5f525450 	svcpl	0x00525450
    7e24:	4f52455a 	svcmi	0x0052455a
    7e28:	76284445 	strtvc	r4, [r8], -r5, asr #8
    7e2c:	20297261 	eorcs	r7, r9, r1, ror #4
    7e30:	7628207b 			; <UNDEFINED> instruction: 0x7628207b
    7e34:	2d297261 	sfmcs	f7, 4, [r9, #-388]!	; 0xfffffe7c
    7e38:	74735f3e 	ldrbtvc	r5, [r3], #-3902	; 0xfffff0c2
    7e3c:	206e6964 	rsbcs	r6, lr, r4, ror #18
    7e40:	5f28203d 	svcpl	0x0028203d
    7e44:	4c49465f 	mcrrmi	6, 5, r4, r9, cr15
    7e48:	292a2045 	stmdbcs	sl!, {r0, r2, r6, sp}
    7e4c:	735f5f26 	cmpvc	pc, #38, 30	; 0x98
    7e50:	61665f66 	cmnvs	r6, r6, ror #30
    7e54:	735f656b 	cmpvc	pc, #448790528	; 0x1ac00000
    7e58:	6e696474 	mcrvs	4, 3, r6, cr9, cr4, {3}
    7e5c:	7628203b 			; <UNDEFINED> instruction: 0x7628203b
    7e60:	2d297261 	sfmcs	f7, 4, [r9, #-388]!	; 0xfffffe7c
    7e64:	74735f3e 	ldrbtvc	r5, [r3], #-3902	; 0xfffff0c2
    7e68:	74756f64 	ldrbtvc	r6, [r5], #-3940	; 0xfffff09c
    7e6c:	28203d20 	stmdacs	r0!, {r5, r8, sl, fp, ip, sp}
    7e70:	49465f5f 	stmdbmi	r6, {r0, r1, r2, r3, r4, r6, r8, r9, sl, fp, ip, lr}^
    7e74:	2a20454c 	bcs	8193ac <_Min_Stack_Size+0x818fac>
    7e78:	5f5f2629 	svcpl	0x005f2629
    7e7c:	665f6673 			; <UNDEFINED> instruction: 0x665f6673
    7e80:	5f656b61 	svcpl	0x00656b61
    7e84:	6f647473 	svcvs	0x00647473
    7e88:	203b7475 	eorscs	r7, fp, r5, ror r4
    7e8c:	72617628 	rsbvc	r7, r1, #40, 12	; 0x2800000
    7e90:	5f3e2d29 	svcpl	0x003e2d29
    7e94:	65647473 	strbvs	r7, [r4, #-1139]!	; 0xfffffb8d
    7e98:	3d207272 	sfmcc	f7, 4, [r0, #-456]!	; 0xfffffe38
    7e9c:	5f5f2820 	svcpl	0x005f2820
    7ea0:	454c4946 	strbmi	r4, [ip, #-2374]	; 0xfffff6ba
    7ea4:	26292a20 	strtcs	r2, [r9], -r0, lsr #20
    7ea8:	66735f5f 	uhsaxvs	r5, r3, pc	; <UNPREDICTABLE>
    7eac:	6b61665f 	blvs	1861830 <_Min_Stack_Size+0x1861430>
    7eb0:	74735f65 	ldrbtvc	r5, [r3], #-3941	; 0xfffff09b
    7eb4:	72726564 	rsbsvc	r6, r2, #100, 10	; 0x19000000
    7eb8:	007d203b 	rsbseq	r2, sp, fp, lsr r0
    7ebc:	4e495f5f 	mcrmi	15, 2, r5, cr9, cr15, {2}
    7ec0:	5f363154 	svcpl	0x00363154
    7ec4:	5f58414d 	svcpl	0x0058414d
    7ec8:	7830205f 	ldmdavc	r0!, {r0, r1, r2, r3, r4, r6, sp}
    7ecc:	66666637 			; <UNDEFINED> instruction: 0x66666637
    7ed0:	535f5f00 	cmppl	pc, #0, 30
    7ed4:	435f5359 	cmpmi	pc, #1677721601	; 0x64000001
    7ed8:	49464e4f 	stmdbmi	r6, {r0, r1, r2, r3, r6, r9, sl, fp, lr}^
    7edc:	5f485f47 	svcpl	0x00485f47
    7ee0:	5f00205f 	svcpl	0x0000205f
    7ee4:	4343475f 	movtmi	r4, #14175	; 0x375f
    7ee8:	4f54415f 	svcmi	0x0054415f
    7eec:	5f43494d 	svcpl	0x0043494d
    7ef0:	52414843 	subpl	r4, r1, #4390912	; 0x430000
    7ef4:	434f4c5f 	movtmi	r4, #64607	; 0xfc5f
    7ef8:	52465f4b 	subpl	r5, r6, #300	; 0x12c
    7efc:	32204545 	eorcc	r4, r0, #289406976	; 0x11400000
    7f00:	49564e00 	ldmdbmi	r6, {r9, sl, fp, lr}^
    7f04:	58455f43 	stmdapl	r5, {r0, r1, r6, r8, r9, sl, fp, ip, lr}^
    7f08:	5f394954 	svcpl	0x00394954
    7f0c:	52495f35 	subpl	r5, r9, #53, 30	; 0xd4
    7f10:	69445f51 	stmdbvs	r4, {r0, r4, r6, r8, r9, sl, fp, ip, lr}^
    7f14:	6c626173 	stfvse	f6, [r2], #-460	; 0xfffffe34
    7f18:	4e282065 	cdpmi	0, 2, cr2, cr8, cr5, {3}
    7f1c:	5f434956 	svcpl	0x00434956
    7f20:	52454349 	subpl	r4, r5, #603979777	; 0x24000001
    7f24:	3d7c2030 	ldclcc	0, cr2, [ip, #-192]!	; 0xffffff40
    7f28:	3c3c3120 	ldfccs	f3, [ip], #-128	; 0xffffff80
    7f2c:	00293332 	eoreq	r3, r9, r2, lsr r3
    7f30:	45445f5f 	strbmi	r5, [r4, #-3935]	; 0xfffff0a1
    7f34:	414c4f56 	cmpmi	ip, r6, asr pc
    7f38:	454c4954 	strbmi	r4, [ip, #-2388]	; 0xfffff6ac
    7f3c:	70797428 	rsbsvc	r7, r9, r8, lsr #8
    7f40:	61762c65 	cmnvs	r6, r5, ror #24
    7f44:	28202972 	stmdacs	r0!, {r1, r4, r5, r6, r8, fp, sp}
    7f48:	70797428 	rsbsvc	r7, r9, r8, lsr #8
    7f4c:	5f282965 	svcpl	0x00282965
    7f50:	6e69755f 	mcrvs	5, 3, r7, cr9, cr15, {2}
    7f54:	72747074 	rsbsvc	r7, r4, #116	; 0x74
    7f58:	2829745f 	stmdacs	r9!, {r0, r1, r2, r3, r4, r6, sl, ip, sp, lr}
    7f5c:	616c6f76 	smcvs	50934	; 0xc6f6
    7f60:	656c6974 	strbvs	r6, [ip, #-2420]!	; 0xfffff68c
    7f64:	696f7620 	stmdbvs	pc!, {r5, r9, sl, ip, sp, lr}^	; <UNPREDICTABLE>
    7f68:	292a2064 	stmdbcs	sl!, {r2, r5, r6, sp}
    7f6c:	72617628 	rsbvc	r7, r1, #40, 12	; 0x2800000
    7f70:	5f002929 	svcpl	0x00002929
    7f74:	5053535f 	subspl	r5, r3, pc, asr r3
    7f78:	524f465f 	subpl	r4, pc, #99614720	; 0x5f00000
    7f7c:	59464954 	stmdbpl	r6, {r2, r4, r6, r8, fp, lr}^
    7f80:	56454c5f 			; <UNDEFINED> instruction: 0x56454c5f
    7f84:	30204c45 	eorcc	r4, r0, r5, asr #24
    7f88:	475f5f00 	ldrbmi	r5, [pc, -r0, lsl #30]
    7f8c:	4c43554e 	cfstr64mi	mvdx5, [r3], {78}	; 0x4e
    7f90:	5f454b49 	svcpl	0x00454b49
    7f94:	4c495542 	cfstr64mi	mvdx5, [r9], {66}	; 0x42
    7f98:	5f4e4954 	svcpl	0x004e4954
    7f9c:	41445453 	cmpmi	r4, r3, asr r4
    7fa0:	31204752 			; <UNDEFINED> instruction: 0x31204752
    7fa4:	585f5f00 	ldmdapl	pc, {r8, r9, sl, fp, ip, lr}^	; <UNPREDICTABLE>
    7fa8:	565f4953 			; <UNDEFINED> instruction: 0x565f4953
    7fac:	42495349 	submi	r5, r9, #603979777	; 0x24000001
    7fb0:	3020454c 	eorcc	r4, r0, ip, asr #10
    7fb4:	54535f00 	ldrbpl	r5, [r3], #-3840	; 0xfffff100
    7fb8:	42494c44 	submi	r4, r9, #68, 24	; 0x4400
    7fbc:	205f485f 	subscs	r4, pc, pc, asr r8	; <UNPREDICTABLE>
    7fc0:	54584500 	ldrbpl	r4, [r8], #-1280	; 0xfffffb00
    7fc4:	37203749 	strcc	r3, [r0, -r9, asr #14]!
    7fc8:	52534200 	subspl	r4, r3, #0, 4
    7fcc:	58450052 	stmdapl	r5, {r1, r4, r6}^
    7fd0:	50344954 	eorspl	r4, r4, r4, asr r9
    7fd4:	28203443 	stmdacs	r0!, {r0, r1, r6, sl, ip, sp}
    7fd8:	49545845 	ldmdbmi	r4, {r0, r2, r6, fp, ip, lr}^
    7fdc:	4950475f 	ldmdbmi	r0, {r0, r1, r2, r3, r4, r6, r8, r9, sl, lr}^
    7fe0:	614d5f4f 	cmpvs	sp, pc, asr #30
    7fe4:	6e697070 	mcrvs	0, 3, r7, cr9, cr0, {3}
    7fe8:	29745f67 	ldmdbcs	r4!, {r0, r1, r2, r5, r6, r8, r9, sl, fp, ip, lr}^
    7fec:	5458457b 	ldrbpl	r4, [r8], #-1403	; 0xfffffa85
    7ff0:	202c3449 	eorcs	r3, ip, r9, asr #8
    7ff4:	4f495047 	svcmi	0x00495047
    7ff8:	47202c43 	strmi	r2, [r0, -r3, asr #24]!
    7ffc:	5f4f4950 	svcpl	0x004f4950
    8000:	5f4e4950 	svcpl	0x004e4950
    8004:	45202c34 	strmi	r2, [r0, #-3124]!	; 0xfffff3cc
    8008:	34495458 	strbcc	r5, [r9], #-1112	; 0xfffffba8
    800c:	5152495f 	cmppl	r2, pc, asr r9
    8010:	5f5f007d 	svcpl	0x005f007d
    8014:	54534146 	ldrbpl	r4, [r3], #-326	; 0xfffffeba
    8018:	00203233 	eoreq	r3, r0, r3, lsr r2
    801c:	49535f5f 	ldmdbmi	r3, {r0, r1, r2, r3, r4, r6, r8, r9, sl, fp, ip, lr}^
    8020:	54415f47 	strbpl	r5, [r1], #-3911	; 0xfffff0b9
    8024:	43494d4f 	movtmi	r4, #40271	; 0x9d4f
    8028:	4449575f 	strbmi	r5, [r9], #-1887	; 0xfffff8a1
    802c:	5f5f4854 	svcpl	0x005f4854
    8030:	00323320 	eorseq	r3, r2, r0, lsr #6
    8034:	4f495047 	svcmi	0x00495047
    8038:	41425f41 	cmpmi	r2, r1, asr #30
    803c:	30204553 	eorcc	r4, r0, r3, asr r5
    8040:	30303478 	eorscc	r3, r0, r8, ror r4
    8044:	30383031 	eorscc	r3, r8, r1, lsr r0
    8048:	5f007530 	svcpl	0x00007530
    804c:	544c465f 	strbpl	r4, [ip], #-1631	; 0xfffff9a1
    8050:	455f3436 	ldrbmi	r3, [pc, #-1078]	; 7c22 <_Min_Stack_Size+0x7822>
    8054:	4c495350 	mcrrmi	3, 5, r5, r9, cr0
    8058:	5f5f4e4f 	svcpl	0x005f4e4f
    805c:	322e3220 	eorcc	r3, lr, #32, 4
    8060:	34343032 	ldrtcc	r3, [r4], #-50	; 0xffffffce
    8064:	39343036 	ldmdbcc	r4!, {r1, r2, r4, r5, ip, sp}
    8068:	33303532 	teqcc	r0, #209715200	; 0xc800000
    806c:	65313331 	ldrvs	r3, [r1, #-817]!	; 0xfffffccf
    8070:	4636312d 	ldrtmi	r3, [r6], -sp, lsr #2
    8074:	5f003436 	svcpl	0x00003436
    8078:	4e454552 	mcrmi	5, 2, r4, cr5, cr2, {2}
    807c:	4e495f54 	mcrmi	15, 2, r5, cr9, cr4, {2}
    8080:	415f5449 	cmpmi	pc, r9, asr #8
    8084:	49584554 	ldmdbmi	r8, {r2, r4, r6, r8, sl, lr}^
    8088:	5f002054 	svcpl	0x00002054
    808c:	554e475f 	strbpl	r4, [lr, #-1887]	; 0xfffff8a1
    8090:	52505f43 	subspl	r5, r0, #268	; 0x10c
    8094:	51455245 	cmppl	r5, r5, asr #4
    8098:	6d285f5f 	stcvs	15, cr5, [r8, #-380]!	; 0xfffffe84
    809c:	696d2c61 	stmdbvs	sp!, {r0, r5, r6, sl, fp, sp}^
    80a0:	5f5f2029 	svcpl	0x005f2029
    80a4:	43554e47 	cmpmi	r5, #1136	; 0x470
    80a8:	4552505f 	ldrbmi	r5, [r2, #-95]	; 0xffffffa1
    80ac:	28514552 	ldmdacs	r1, {r1, r4, r6, r8, sl, lr}^
    80b0:	202c616d 	eorcs	r6, ip, sp, ror #2
    80b4:	0029696d 	eoreq	r6, r9, sp, ror #18
    80b8:	54555f5f 	ldrbpl	r5, [r5], #-3935	; 0xfffff0a1
    80bc:	42495f41 	submi	r5, r9, #260	; 0x104
    80c0:	5f5f5449 	svcpl	0x005f5449
    80c4:	00343620 	eorseq	r3, r4, r0, lsr #12
    80c8:	52415f5f 	subpl	r5, r1, #380	; 0x17c
    80cc:	45465f4d 	strbmi	r5, [r6, #-3917]	; 0xfffff0b3
    80d0:	52555441 	subspl	r5, r5, #1090519040	; 0x41000000
    80d4:	52435f45 	subpl	r5, r3, #276	; 0x114
    80d8:	00323343 	eorseq	r3, r2, r3, asr #6
    80dc:	74735f5f 	ldrbtvc	r5, [r3], #-3935	; 0xfffff0a1
    80e0:	676e6f72 			; <UNDEFINED> instruction: 0x676e6f72
    80e4:	6665725f 			; <UNDEFINED> instruction: 0x6665725f
    80e8:	6e657265 	cdpvs	2, 6, cr7, cr5, cr5, {3}
    80ec:	73286563 			; <UNDEFINED> instruction: 0x73286563
    80f0:	612c6d79 			; <UNDEFINED> instruction: 0x612c6d79
    80f4:	7361696c 	cmnvc	r1, #108, 18	; 0x1b0000
    80f8:	296d7973 	stmdbcs	sp!, {r0, r1, r4, r5, r6, r8, fp, ip, sp, lr}^
    80fc:	74786520 	ldrbtvc	r6, [r8], #-1312	; 0xfffffae0
    8100:	206e7265 	rsbcs	r7, lr, r5, ror #4
    8104:	79745f5f 	ldmdbvc	r4!, {r0, r1, r2, r3, r4, r6, r8, r9, sl, fp, ip, lr}^
    8108:	666f6570 			; <UNDEFINED> instruction: 0x666f6570
    810c:	79732820 	ldmdbvc	r3!, {r5, fp, sp}^
    8110:	6120296d 			; <UNDEFINED> instruction: 0x6120296d
    8114:	7361696c 	cmnvc	r1, #108, 18	; 0x1b0000
    8118:	206d7973 	rsbcs	r7, sp, r3, ror r9
    811c:	74615f5f 	strbtvc	r5, [r1], #-3935	; 0xfffff0a1
    8120:	62697274 	rsbvs	r7, r9, #116, 4	; 0x40000007
    8124:	5f657475 	svcpl	0x00657475
    8128:	2828205f 	stmdacs	r8!, {r0, r1, r2, r3, r4, r6, sp}
    812c:	6c615f5f 	stclvs	15, cr5, [r1], #-380	; 0xfffffe84
    8130:	5f736169 	svcpl	0x00736169
    8134:	2328205f 			; <UNDEFINED> instruction: 0x2328205f
    8138:	296d7973 	stmdbcs	sp!, {r0, r1, r4, r5, r6, r8, fp, ip, sp, lr}^
    813c:	45002929 	strmi	r2, [r0, #-2345]	; 0xfffff6d7
    8140:	5f495458 	svcpl	0x00495458
    8144:	5f515249 	svcpl	0x00515249
    8148:	62616e65 	rsbvs	r6, r1, #1616	; 0x650
    814c:	3120656c 			; <UNDEFINED> instruction: 0x3120656c
    8150:	555f5f00 	ldrbpl	r5, [pc, #-3840]	; 7258 <_Min_Stack_Size+0x6e58>
    8154:	52464c4c 	subpl	r4, r6, #76, 24	; 0x4c00
    8158:	5f544341 	svcpl	0x00544341
    815c:	49535045 	ldmdbmi	r3, {r0, r2, r6, ip, lr}^
    8160:	5f4e4f4c 	svcpl	0x004e4f4c
    8164:	7830205f 	ldmdavc	r0!, {r0, r1, r2, r3, r4, r6, sp}
    8168:	362d5031 			; <UNDEFINED> instruction: 0x362d5031
    816c:	4c4c5534 	cfstr64mi	mvdx5, [ip], {52}	; 0x34
    8170:	5f5f0052 	svcpl	0x005f0052
    8174:	65726e75 	ldrbvs	r6, [r2, #-3701]!	; 0xfffff18b
    8178:	61686361 	cmnvs	r8, r1, ror #6
    817c:	28656c62 	stmdacs	r5!, {r1, r5, r6, sl, fp, sp, lr}^
    8180:	5f5f2029 	svcpl	0x005f2029
    8184:	6c697562 	cfstr64vs	mvdx7, [r9], #-392	; 0xfffffe78
    8188:	5f6e6974 	svcpl	0x006e6974
    818c:	65726e75 	ldrbvs	r6, [r2, #-3701]!	; 0xfffff18b
    8190:	61686361 	cmnvs	r8, r1, ror #6
    8194:	28656c62 	stmdacs	r5!, {r1, r5, r6, sl, fp, sp, lr}^
    8198:	5f5f0029 	svcpl	0x005f0029
    819c:	455a4953 	ldrbmi	r4, [sl, #-2387]	; 0xfffff6ad
    81a0:	575f464f 	ldrbpl	r4, [pc, -pc, asr #12]
    81a4:	5f544e49 	svcpl	0x00544e49
    81a8:	205f5f54 	subscs	r5, pc, r4, asr pc	; <UNPREDICTABLE>
    81ac:	5f5f0034 	svcpl	0x005f0034
    81b0:	5f4d5241 	svcpl	0x004d5241
    81b4:	54414546 	strbpl	r4, [r1], #-1350	; 0xfffffaba
    81b8:	5f455255 	svcpl	0x00455255
    81bc:	4c414e55 	mcrrmi	14, 5, r4, r1, cr5
    81c0:	454e4749 	strbmi	r4, [lr, #-1865]	; 0xfffff8b7
    81c4:	00312044 	eorseq	r2, r1, r4, asr #32
    81c8:	54535f5f 	ldrbpl	r5, [r3], #-3935	; 0xfffff0a1
    81cc:	5f5f4344 	svcpl	0x005f4344
    81d0:	5f003120 	svcpl	0x00003120
    81d4:	42444c5f 	submi	r4, r4, #24320	; 0x5f00
    81d8:	45445f4c 	strbmi	r5, [r4, #-3916]	; 0xfffff0b4
    81dc:	414d4943 	cmpmi	sp, r3, asr #18
    81e0:	49445f4c 	stmdbmi	r4, {r2, r3, r6, r8, r9, sl, fp, ip, lr}^
    81e4:	205f5f47 	subscs	r5, pc, r7, asr #30
    81e8:	5f003731 	svcpl	0x00003731
    81ec:	554e475f 	strbpl	r4, [lr, #-1887]	; 0xfffff8a1
    81f0:	4b494c43 	blmi	125b304 <_Min_Stack_Size+0x125af04>
    81f4:	53415f45 	movtpl	r5, #8005	; 0x1f45
    81f8:	0033204d 	eorseq	r2, r3, sp, asr #32
    81fc:	414c5f5f 	cmpmi	ip, pc, asr pc
    8200:	4d554343 	ldclmi	3, cr4, [r5, #-268]	; 0xfffffef4
    8204:	4e494d5f 	mcrmi	13, 2, r4, cr9, cr15, {2}
    8208:	28205f5f 	stmdacs	r0!, {r0, r1, r2, r3, r4, r6, r8, r9, sl, fp, ip, lr}
    820c:	3158302d 	cmpcc	r8, sp, lsr #32
    8210:	4c313350 	ldcmi	3, cr3, [r1], #-320	; 0xfffffec0
    8214:	58302d4b 	ldmdapl	r0!, {r0, r1, r3, r6, r8, sl, fp, sp}
    8218:	31335031 	teqcc	r3, r1, lsr r0
    821c:	00294b4c 	eoreq	r4, r9, ip, asr #22
    8220:	4e495f5f 	mcrmi	15, 2, r5, cr9, cr15, {2}
    8224:	41465f54 	cmpmi	r6, r4, asr pc
    8228:	5f385453 	svcpl	0x00385453
    822c:	5f58414d 	svcpl	0x0058414d
    8230:	7830205f 	ldmdavc	r0!, {r0, r1, r2, r3, r4, r6, sp}
    8234:	66666637 			; <UNDEFINED> instruction: 0x66666637
    8238:	66666666 	strbtvs	r6, [r6], -r6, ror #12
    823c:	465f5f00 	ldrbmi	r5, [pc], -r0, lsl #30
    8240:	3233544c 	eorscc	r5, r3, #76, 8	; 0x4c000000
    8244:	5341485f 	movtpl	r4, #6239	; 0x185f
    8248:	4e45445f 	mcrmi	4, 2, r4, cr5, cr15, {2}
    824c:	5f4d524f 	svcpl	0x004d524f
    8250:	0031205f 	eorseq	r2, r1, pc, asr r0
    8254:	63735f5f 	cmnvs	r3, #380	; 0x17c
    8258:	6c666e61 	stclvs	14, cr6, [r6], #-388	; 0xfffffe7c
    825c:	28656b69 	stmdacs	r5!, {r0, r3, r5, r6, r8, r9, fp, sp, lr}^
    8260:	61746d66 	cmnvs	r4, r6, ror #26
    8264:	662c6772 			; <UNDEFINED> instruction: 0x662c6772
    8268:	74737269 	ldrbtvc	r7, [r3], #-617	; 0xfffffd97
    826c:	61726176 	cmnvs	r2, r6, ror r1
    8270:	20296772 	eorcs	r6, r9, r2, ror r7
    8274:	74615f5f 	strbtvc	r5, [r1], #-3935	; 0xfffff0a1
    8278:	62697274 	rsbvs	r7, r9, #116, 4	; 0x40000007
    827c:	5f657475 	svcpl	0x00657475
    8280:	5f28285f 	svcpl	0x0028285f
    8284:	726f665f 	rsbvc	r6, pc, #99614720	; 0x5f00000
    8288:	5f74616d 	svcpl	0x0074616d
    828c:	5f28205f 	svcpl	0x0028205f
    8290:	6163735f 	cmnvs	r3, pc, asr r3
    8294:	5f5f666e 	svcpl	0x005f666e
    8298:	6d66202c 	stclvs	0, cr2, [r6, #-176]!	; 0xffffff50
    829c:	67726174 			; <UNDEFINED> instruction: 0x67726174
    82a0:	6966202c 	stmdbvs	r6!, {r2, r3, r5, sp}^
    82a4:	76747372 			; <UNDEFINED> instruction: 0x76747372
    82a8:	72617261 	rsbvc	r7, r1, #268435462	; 0x10000006
    82ac:	29292967 	stmdbcs	r9!, {r0, r1, r2, r5, r6, r8, fp, sp}
    82b0:	45525f00 	ldrbmi	r5, [r2, #-3840]	; 0xfffff100
    82b4:	5f544e45 	svcpl	0x00544e45
    82b8:	4c414d53 	mcrrmi	13, 5, r4, r1, cr3
    82bc:	5f00204c 	svcpl	0x0000204c
    82c0:	4c4c555f 	cfstr64mi	mvdx5, [ip], {95}	; 0x5f
    82c4:	55434341 	strbpl	r4, [r3, #-833]	; 0xfffffcbf
    82c8:	494d5f4d 	stmdbmi	sp, {r0, r2, r3, r6, r8, r9, sl, fp, ip, lr}^
    82cc:	205f5f4e 	subscs	r5, pc, lr, asr #30
    82d0:	55302e30 	ldrpl	r2, [r0, #-3632]!	; 0xfffff1d0
    82d4:	004b4c4c 	subeq	r4, fp, ip, asr #24
    82d8:	5359535f 	cmppl	r9, #2080374785	; 0x7c000001
    82dc:	59545f5f 	ldmdbpl	r4, {r0, r1, r2, r3, r4, r6, r8, r9, sl, fp, ip, lr}^
    82e0:	5f534550 	svcpl	0x00534550
    82e4:	5f002048 	svcpl	0x00002048
    82e8:	58455441 	stmdapl	r5, {r0, r6, sl, ip, lr}^
    82ec:	495f5449 	ldmdbmi	pc, {r0, r3, r6, sl, ip, lr}^	; <UNPREDICTABLE>
    82f0:	2054494e 	subscs	r4, r4, lr, asr #18
    82f4:	554e5f7b 	strbpl	r5, [lr, #-3963]	; 0xfffff085
    82f8:	202c4c4c 	eorcs	r4, ip, ip, asr #24
    82fc:	7b202c30 	blvc	8133c4 <_Min_Stack_Size+0x812fc4>
    8300:	4c554e5f 	mrrcmi	14, 5, r4, r5, cr15
    8304:	202c7d4c 	eorcs	r7, ip, ip, asr #26
    8308:	4c554e5f 	mrrcmi	14, 5, r4, r5, cr15
    830c:	5f007d4c 	svcpl	0x00007d4c
    8310:	5f535953 	svcpl	0x00535953
    8314:	46454443 	strbmi	r4, [r5], -r3, asr #8
    8318:	5f485f53 	svcpl	0x00485f53
    831c:	49530020 	ldmdbmi	r3, {r5}^
    8320:	54415f47 	strbpl	r5, [r1], #-3911	; 0xfffff0b9
    8324:	43494d4f 	movtmi	r4, #40271	; 0x9d4f
    8328:	4e494d5f 	mcrmi	13, 2, r4, cr9, cr15, {2}
    832c:	5f2d2820 	svcpl	0x002d2820
    8330:	4454535f 	ldrbmi	r5, [r4], #-863	; 0xfffffca1
    8334:	5f544e49 	svcpl	0x00544e49
    8338:	28505845 	ldmdacs	r0, {r0, r2, r6, fp, ip, lr}^
    833c:	5f544e49 	svcpl	0x00544e49
    8340:	2958414d 	ldmdbcs	r8, {r0, r2, r3, r6, r8, lr}^
    8344:	31202d20 			; <UNDEFINED> instruction: 0x31202d20
    8348:	50470029 	subpl	r0, r7, r9, lsr #32
    834c:	5f434f49 	svcpl	0x00434f49
    8350:	45534142 	ldrbmi	r4, [r3, #-322]	; 0xfffffebe
    8354:	34783020 	ldrbtcc	r3, [r8], #-32	; 0xffffffe0
    8358:	31313030 	teqcc	r1, r0, lsr r0
    835c:	75303030 	ldrvc	r3, [r0, #-48]!	; 0xffffffd0
    8360:	475f5f00 	ldrbmi	r5, [pc, -r0, lsl #30]
    8364:	4c43554e 	cfstr64mi	mvdx5, [r3], {78}	; 0x4e
    8368:	5f454b49 	svcpl	0x00454b49
    836c:	4c495542 	cfstr64mi	mvdx5, [r9], {66}	; 0x42
    8370:	5f4e4954 	svcpl	0x004e4954
    8374:	4c414156 	stfmie	f4, [r1], {86}	; 0x56
    8378:	20545349 	subscs	r5, r4, r9, asr #6
    837c:	4e5f0031 	mrcmi	0, 2, r0, cr15, cr1, {1}
    8380:	494c5745 	stmdbmi	ip, {r0, r2, r6, r8, r9, sl, ip, lr}^
    8384:	4c415f42 	mcrrmi	15, 4, r5, r1, cr2
    8388:	41434f4c 	cmpmi	r3, ip, asr #30
    838c:	0020485f 	eoreq	r4, r0, pc, asr r8
    8390:	4e495f5f 	mcrmi	15, 2, r5, cr9, cr15, {2}
    8394:	20323354 	eorscs	r3, r2, r4, asr r3
    8398:	00226c22 	eoreq	r6, r2, r2, lsr #24
    839c:	52415f5f 	subpl	r5, r1, #380	; 0x17c
    83a0:	53415f4d 	movtpl	r5, #8013	; 0x1f4d
    83a4:	59535f4d 	ldmdbpl	r3, {r0, r2, r3, r6, r8, r9, sl, fp, ip, lr}^
    83a8:	5841544e 	stmdapl	r1, {r1, r2, r3, r6, sl, ip, lr}^
    83ac:	494e555f 	stmdbmi	lr, {r0, r1, r2, r3, r4, r6, r8, sl, ip, lr}^
    83b0:	44454946 	strbmi	r4, [r5], #-2374	; 0xfffff6ba
    83b4:	31205f5f 			; <UNDEFINED> instruction: 0x31205f5f
    83b8:	72747300 	rsbsvc	r7, r4, #0, 6
    83bc:	66646f74 	uqsub16vs	r6, r4, r4
    83c0:	72747320 	rsbsvc	r7, r4, #32, 6	; 0x80000000
    83c4:	00666f74 	rsbeq	r6, r6, r4, ror pc
    83c8:	49555f5f 	ldmdbmi	r5, {r0, r1, r2, r3, r4, r6, r8, r9, sl, fp, ip, lr}^
    83cc:	3233544e 	eorscc	r5, r3, #1308622848	; 0x4e000000
    83d0:	5059545f 	subspl	r5, r9, pc, asr r4
    83d4:	205f5f45 	subscs	r5, pc, r5, asr #30
    83d8:	676e6f6c 	strbvs	r6, [lr, -ip, ror #30]!
    83dc:	736e7520 	cmnvc	lr, #32, 10	; 0x8000000
    83e0:	656e6769 	strbvs	r6, [lr, #-1897]!	; 0xfffff897
    83e4:	6e692064 	cdpvs	0, 6, cr2, cr9, cr4, {3}
    83e8:	5f5f0074 	svcpl	0x005f0074
    83ec:	5f4d5241 	svcpl	0x004d5241
    83f0:	54414546 	strbpl	r4, [r1], #-1350	; 0xfffffaba
    83f4:	5f455255 	svcpl	0x00455255
    83f8:	50544f44 	subspl	r4, r4, r4, asr #30
    83fc:	00444f52 	subeq	r4, r4, r2, asr pc
    8400:	68745f5f 	ldmdavs	r4!, {r0, r1, r2, r3, r4, r6, r8, r9, sl, fp, ip, lr}^
    8404:	32626d75 	rsbcc	r6, r2, #7488	; 0x1d40
    8408:	31205f5f 			; <UNDEFINED> instruction: 0x31205f5f
    840c:	54584500 	ldrbpl	r4, [r8], #-1280	; 0xfffffb00
    8410:	495f3449 	ldmdbmi	pc, {r0, r3, r6, sl, ip, sp}^	; <UNPREDICTABLE>
    8414:	31205152 			; <UNDEFINED> instruction: 0x31205152
    8418:	445f0030 	ldrbmi	r0, [pc], #-48	; 8420 <_Min_Stack_Size+0x8020>
    841c:	55414645 	strbpl	r4, [r1, #-1605]	; 0xfffff9bb
    8420:	535f544c 	cmppl	pc, #76, 8	; 0x4c000000
    8424:	4352554f 	cmpmi	r2, #331350016	; 0x13c00000
    8428:	68730045 	ldmdavs	r3!, {r0, r2, r6}^
    842c:	2074726f 	rsbscs	r7, r4, pc, ror #4
    8430:	5f00312b 	svcpl	0x0000312b
    8434:	5f434347 	svcpl	0x00434347
    8438:	455a4953 	ldrbmi	r4, [sl, #-2387]	; 0xfffff6ad
    843c:	0020545f 	eoreq	r5, r0, pc, asr r4
    8440:	43435f5f 	movtmi	r5, #16223	; 0x3f5f
    8444:	5055535f 	subspl	r5, r5, pc, asr r3
    8448:	54524f50 	ldrbpl	r4, [r2], #-3920	; 0xfffff0b0
    844c:	41575f53 	cmpmi	r7, r3, asr pc
    8450:	4e494e52 	mcrmi	14, 2, r4, cr9, cr2, {2}
    8454:	00312047 	eorseq	r2, r1, r7, asr #32
    8458:	49575f5f 	ldmdbmi	r7, {r0, r1, r2, r3, r4, r6, r8, r9, sl, fp, ip, lr}^
    845c:	575f544e 	ldrbpl	r5, [pc, -lr, asr #8]
    8460:	48544449 	ldmdami	r4, {r0, r3, r6, sl, lr}^
    8464:	33205f5f 			; <UNDEFINED> instruction: 0x33205f5f
    8468:	5f5f0032 	svcpl	0x005f0032
    846c:	464c4c55 			; <UNDEFINED> instruction: 0x464c4c55
    8470:	54434152 	strbpl	r4, [r3], #-338	; 0xfffffeae
    8474:	4e494d5f 	mcrmi	13, 2, r4, cr9, cr15, {2}
    8478:	30205f5f 	eorcc	r5, r0, pc, asr pc
    847c:	4c55302e 	mrrcmi	0, 2, r3, r5, cr14
    8480:	5f00524c 	svcpl	0x0000524c
    8484:	43575f54 	cmpmi	r7, #84, 30	; 0x150
    8488:	5f524148 	svcpl	0x00524148
    848c:	58450020 	stmdapl	r5, {r5}^
    8490:	34314954 	ldrtcc	r4, [r1], #-2388	; 0xfffff6ac
    8494:	34314150 	ldrtcc	r4, [r1], #-336	; 0xfffffeb0
    8498:	58452820 	stmdapl	r5, {r5, fp, sp}^
    849c:	475f4954 			; <UNDEFINED> instruction: 0x475f4954
    84a0:	5f4f4950 	svcpl	0x004f4950
    84a4:	7070614d 	rsbsvc	r6, r0, sp, asr #2
    84a8:	5f676e69 	svcpl	0x00676e69
    84ac:	457b2974 	ldrbmi	r2, [fp, #-2420]!	; 0xfffff68c
    84b0:	31495458 	cmpcc	r9, r8, asr r4
    84b4:	47202c34 			; <UNDEFINED> instruction: 0x47202c34
    84b8:	414f4950 	cmpmi	pc, r0, asr r9	; <UNPREDICTABLE>
    84bc:	5047202c 	subpl	r2, r7, ip, lsr #32
    84c0:	505f4f49 	subspl	r4, pc, r9, asr #30
    84c4:	315f4e49 	cmpcc	pc, r9, asr #28
    84c8:	45202c34 	strmi	r2, [r0, #-3124]!	; 0xfffff3cc
    84cc:	31495458 	cmpcc	r9, r8, asr r4
    84d0:	52495f34 	subpl	r5, r9, #52, 30	; 0xd0
    84d4:	5f007d51 	svcpl	0x00007d51
    84d8:	38544e49 	ldmdacc	r4, {r0, r3, r6, r9, sl, fp, lr}^
    84dc:	445f545f 	ldrbmi	r5, [pc], #-1119	; 84e4 <_Min_Stack_Size+0x80e4>
    84e0:	414c4345 	cmpmi	ip, r5, asr #6
    84e4:	20444552 	subcs	r4, r4, r2, asr r5
    84e8:	4e495f00 	cdpmi	15, 4, cr5, cr9, cr0, {0}
    84ec:	5f323354 	svcpl	0x00323354
    84f0:	45445f54 	strbmi	r5, [r4, #-3924]	; 0xfffff0ac
    84f4:	52414c43 	subpl	r4, r1, #17152	; 0x4300
    84f8:	00204445 	eoreq	r4, r0, r5, asr #8
    84fc:	49535f5f 	ldmdbmi	r3, {r0, r1, r2, r3, r4, r6, r8, r9, sl, fp, ip, lr}^
    8500:	464f455a 			; <UNDEFINED> instruction: 0x464f455a
    8504:	544e495f 	strbpl	r4, [lr], #-2399	; 0xfffff6a1
    8508:	34205f5f 	strtcc	r5, [r0], #-3935	; 0xfffff0a1
    850c:	53425f00 	movtpl	r5, #12032	; 0x2f00
    8510:	43575f44 	cmpmi	r7, #68, 30	; 0x110
    8514:	5f524148 	svcpl	0x00524148
    8518:	54005f54 	strpl	r5, [r0], #-3924	; 0xfffff0ac
    851c:	5f364d49 	svcpl	0x00364d49
    8520:	45534142 	ldrbmi	r4, [r3, #-322]	; 0xfffffebe
    8524:	34783020 	ldrbtcc	r3, [r8], #-32	; 0xffffffe0
    8528:	31303030 	teqcc	r0, r0, lsr r0
    852c:	75303030 	ldrvc	r3, [r0, #-48]!	; 0xffffffd0
    8530:	4c5f5f00 	mrrcmi	15, 0, r5, pc, cr0	; <UNPREDICTABLE>
    8534:	4152464c 	cmpmi	r2, ip, asr #12
    8538:	495f5443 	ldmdbmi	pc, {r0, r1, r6, sl, ip, lr}^	; <UNPREDICTABLE>
    853c:	5f544942 	svcpl	0x00544942
    8540:	0030205f 	eorseq	r2, r0, pc, asr r0
    8544:	43435f5f 	movtmi	r5, #16223	; 0x3f5f
    8548:	5055535f 	subspl	r5, r5, pc, asr r3
    854c:	54524f50 	ldrbpl	r4, [r2], #-3920	; 0xfffff0b0
    8550:	41565f53 	cmpmi	r6, r3, asr pc
    8554:	49444152 	stmdbmi	r4, {r1, r4, r6, r8, lr}^
    8558:	58585f43 	ldmdapl	r8, {r0, r1, r6, r8, r9, sl, fp, ip, lr}^
    855c:	00312058 	eorseq	r2, r1, r8, asr r0
    8560:	67697274 			; <UNDEFINED> instruction: 0x67697274
    8564:	5f726567 	svcpl	0x00726567
    8568:	65736143 	ldrbvs	r6, [r3, #-323]!	; 0xfffffebd
    856c:	49505300 	ldmdbmi	r0, {r8, r9, ip, lr}^
    8570:	41425f32 	cmpmi	r2, r2, lsr pc
    8574:	30204553 	eorcc	r4, r0, r3, asr r5
    8578:	30303478 	eorscc	r3, r0, r8, ror r4
    857c:	30383330 	eorscc	r3, r8, r0, lsr r3
    8580:	5f007530 	svcpl	0x00007530
    8584:	5f535953 	svcpl	0x00535953
    8588:	544e495f 	strbpl	r4, [lr], #-2399	; 0xfffff6a1
    858c:	5f505553 	svcpl	0x00505553
    8590:	5f002048 	svcpl	0x00002048
    8594:	4341535f 	movtmi	r5, #4959	; 0x135f
    8598:	5f4d5543 	svcpl	0x004d5543
    859c:	49535045 	ldmdbmi	r3, {r0, r2, r6, ip, lr}^
    85a0:	5f4e4f4c 	svcpl	0x004e4f4c
    85a4:	7830205f 	ldmdavc	r0!, {r0, r1, r2, r3, r4, r6, sp}
    85a8:	372d5031 			; <UNDEFINED> instruction: 0x372d5031
    85ac:	47004b48 	strmi	r4, [r0, -r8, asr #22]
    85b0:	5f4f4950 	svcpl	0x004f4950
    85b4:	5f4e4950 	svcpl	0x004e4950
    85b8:	28282032 	stmdacs	r8!, {r1, r4, r5, sp}
    85bc:	746e6975 	strbtvc	r6, [lr], #-2421	; 0xfffff68b
    85c0:	745f3631 	ldrbvc	r3, [pc], #-1585	; 85c8 <_Min_Stack_Size+0x81c8>
    85c4:	78302029 	ldmdavc	r0!, {r0, r3, r5, sp}
    85c8:	34303030 	ldrtcc	r3, [r0], #-48	; 0xffffffd0
    85cc:	5f5f0029 	svcpl	0x005f0029
    85d0:	5f434347 	svcpl	0x00434347
    85d4:	5f4d5341 	svcpl	0x004d5341
    85d8:	47414c46 	strbmi	r4, [r1, -r6, asr #24]
    85dc:	54554f5f 	ldrbpl	r4, [r5], #-3935	; 0xfffff0a1
    85e0:	53545550 	cmppl	r4, #80, 10	; 0x14000000
    85e4:	31205f5f 			; <UNDEFINED> instruction: 0x31205f5f
    85e8:	43435200 	movtmi	r5, #12800	; 0x3200
    85ec:	7079545f 	rsbsvc	r5, r9, pc, asr r4
    85f0:	66656465 	strbtvs	r6, [r5], -r5, ror #8
    85f4:	5f00745f 	svcpl	0x0000745f
    85f8:	4e454552 	mcrmi	5, 2, r4, cr5, cr2, {2}
    85fc:	48435f54 	stmdami	r3, {r2, r4, r6, r8, r9, sl, fp, ip, lr}^
    8600:	5f4b4345 	svcpl	0x004b4345
    8604:	49524556 	ldmdbmi	r2, {r1, r2, r4, r6, r8, sl, lr}^
    8608:	31205946 			; <UNDEFINED> instruction: 0x31205946
    860c:	49464100 	stmdbmi	r6, {r8, lr}^
    8610:	41425f4f 	cmpmi	r2, pc, asr #30
    8614:	30204553 	eorcc	r4, r0, r3, asr r5
    8618:	30303478 	eorscc	r3, r0, r8, ror r4
    861c:	30303031 	eorscc	r3, r0, r1, lsr r0
    8620:	5f007530 	svcpl	0x00007530
    8624:	49534f50 	ldmdbmi	r3, {r4, r6, r8, r9, sl, fp, lr}^
    8628:	4f535f58 	svcmi	0x00535f58
    862c:	45435255 	strbmi	r5, [r3, #-597]	; 0xfffffdab
    8630:	5f003120 	svcpl	0x00003120
    8634:	4e49555f 	mcrmi	5, 2, r5, cr9, cr15, {2}
    8638:	41465f54 	cmpmi	r6, r4, asr pc
    863c:	36315453 			; <UNDEFINED> instruction: 0x36315453
    8640:	5059545f 	subspl	r5, r9, pc, asr r4
    8644:	205f5f45 	subscs	r5, pc, r5, asr #30
    8648:	69736e75 	ldmdbvs	r3!, {r0, r2, r4, r5, r6, r9, sl, fp, sp, lr}^
    864c:	64656e67 	strbtvs	r6, [r5], #-3687	; 0xfffff199
    8650:	746e6920 	strbtvc	r6, [lr], #-2336	; 0xfffff6e0
    8654:	54584500 	ldrbpl	r4, [r8], #-1280	; 0xfffffb00
    8658:	43503549 	cmpmi	r0, #306184192	; 0x12400000
    865c:	45282035 	strmi	r2, [r8, #-53]!	; 0xffffffcb
    8660:	5f495458 	svcpl	0x00495458
    8664:	4f495047 	svcmi	0x00495047
    8668:	70614d5f 	rsbvc	r4, r1, pc, asr sp
    866c:	676e6970 			; <UNDEFINED> instruction: 0x676e6970
    8670:	7b29745f 	blvc	a657f4 <_Min_Stack_Size+0xa653f4>
    8674:	49545845 	ldmdbmi	r4, {r0, r2, r6, fp, ip, lr}^
    8678:	47202c35 			; <UNDEFINED> instruction: 0x47202c35
    867c:	434f4950 	movtmi	r4, #63824	; 0xf950
    8680:	5047202c 	subpl	r2, r7, ip, lsr #32
    8684:	505f4f49 	subspl	r4, pc, r9, asr #30
    8688:	355f4e49 	ldrbcc	r4, [pc, #-3657]	; 7847 <_Min_Stack_Size+0x7447>
    868c:	5845202c 	stmdapl	r5, {r2, r3, r5, sp}^
    8690:	5f354954 	svcpl	0x00354954
    8694:	7d515249 	lfmvc	f5, 2, [r1, #-292]	; 0xfffffedc
    8698:	45525f00 	ldrbmi	r5, [r2, #-3840]	; 0xfffff100
    869c:	5f544e45 	svcpl	0x00544e45
    86a0:	454c424d 	strbmi	r4, [ip, #-589]	; 0xfffffdb3
    86a4:	54535f4e 	ldrbpl	r5, [r3], #-3918	; 0xfffff0b2
    86a8:	28455441 	stmdacs	r5, {r0, r6, sl, ip, lr}^
    86ac:	29727470 	ldmdbcs	r2!, {r4, r5, r6, sl, ip, sp, lr}^
    86b0:	70282820 	eorvc	r2, r8, r0, lsr #16
    86b4:	2d297274 	sfmcs	f7, 4, [r9, #-464]!	; 0xfffffe30
    86b8:	696d5f3e 	stmdbvs	sp!, {r1, r2, r3, r4, r5, r8, r9, sl, fp, ip, lr}^
    86bc:	3e2d6373 	mcrcc	3, 1, r6, cr13, cr3, {3}
    86c0:	6c626d5f 	stclvs	13, cr6, [r2], #-380	; 0xfffffe84
    86c4:	735f6e65 	cmpvc	pc, #1616	; 0x650
    86c8:	65746174 	ldrbvs	r6, [r4, #-372]!	; 0xfffffe8c
    86cc:	5f5f0029 	svcpl	0x005f0029
    86d0:	43554e47 	cmpmi	r5, #1136	; 0x470
    86d4:	4454535f 	ldrbmi	r5, [r4], #-863	; 0xfffffca1
    86d8:	4e495f43 	cdpmi	15, 4, cr5, cr9, cr3, {2}
    86dc:	454e494c 	strbmi	r4, [lr, #-2380]	; 0xfffff6b4
    86e0:	31205f5f 			; <UNDEFINED> instruction: 0x31205f5f
    86e4:	6e5f5f00 	cdpvs	15, 5, cr5, cr15, cr0, {0}
    86e8:	5f646565 	svcpl	0x00646565
    86ec:	746e6977 	strbtvc	r6, [lr], #-2423	; 0xfffff689
    86f0:	0020745f 	eoreq	r7, r0, pc, asr r4
    86f4:	43415f5f 	movtmi	r5, #8031	; 0x1f5f
    86f8:	5f4d5543 	svcpl	0x004d5543
    86fc:	49535045 	ldmdbmi	r3, {r0, r2, r6, ip, lr}^
    8700:	5f4e4f4c 	svcpl	0x004e4f4c
    8704:	7830205f 	ldmdavc	r0!, {r0, r1, r2, r3, r4, r6, sp}
    8708:	312d5031 			; <UNDEFINED> instruction: 0x312d5031
    870c:	5f004b35 	svcpl	0x00004b35
    8710:	414c555f 	cmpmi	ip, pc, asr r5
    8714:	4d554343 	ldclmi	3, cr4, [r5, #-268]	; 0xfffffef4
    8718:	5350455f 	cmppl	r0, #398458880	; 0x17c00000
    871c:	4e4f4c49 	cdpmi	12, 4, cr4, cr15, cr9, {2}
    8720:	30205f5f 	eorcc	r5, r0, pc, asr pc
    8724:	2d503178 	ldfcse	f3, [r0, #-480]	; 0xfffffe20
    8728:	4c553233 	lfmmi	f3, 2, [r5], {51}	; 0x33
    872c:	5f5f004b 	svcpl	0x005f004b
    8730:	4c42444c 	cfstrdmi	mvd4, [r2], {76}	; 0x4c
    8734:	4749445f 	smlsldmi	r4, r9, pc, r4	; <UNPREDICTABLE>
    8738:	31205f5f 			; <UNDEFINED> instruction: 0x31205f5f
    873c:	5f5f0035 	svcpl	0x005f0035
    8740:	455a4953 	ldrbmi	r4, [sl, #-2387]	; 0xfffff6ad
    8744:	4449575f 	strbmi	r5, [r9], #-1887	; 0xfffff8a1
    8748:	5f5f4854 	svcpl	0x005f4854
    874c:	00323320 	eorseq	r3, r2, r0, lsr #6
    8750:	49545845 	ldmdbmi	r4, {r0, r2, r6, fp, ip, lr}^
    8754:	42503131 	subsmi	r3, r0, #1073741836	; 0x4000000c
    8758:	28203131 	stmdacs	r0!, {r0, r4, r5, r8, ip, sp}
    875c:	49545845 	ldmdbmi	r4, {r0, r2, r6, fp, ip, lr}^
    8760:	4950475f 	ldmdbmi	r0, {r0, r1, r2, r3, r4, r6, r8, r9, sl, lr}^
    8764:	614d5f4f 	cmpvs	sp, pc, asr #30
    8768:	6e697070 	mcrvs	0, 3, r7, cr9, cr0, {3}
    876c:	29745f67 	ldmdbcs	r4!, {r0, r1, r2, r5, r6, r8, r9, sl, fp, ip, lr}^
    8770:	5458457b 	ldrbpl	r4, [r8], #-1403	; 0xfffffa85
    8774:	2c313149 	ldfcss	f3, [r1], #-292	; 0xfffffedc
    8778:	49504720 	ldmdbmi	r0, {r5, r8, r9, sl, lr}^
    877c:	202c424f 	eorcs	r4, ip, pc, asr #4
    8780:	4f495047 	svcmi	0x00495047
    8784:	4e49505f 	mcrmi	0, 2, r5, cr9, cr15, {2}
    8788:	2c31315f 	ldfcss	f3, [r1], #-380	; 0xfffffe84
    878c:	54584520 	ldrbpl	r4, [r8], #-1312	; 0xfffffae0
    8790:	5f313149 	svcpl	0x00313149
    8794:	7d515249 	lfmvc	f5, 2, [r1, #-292]	; 0xfffffedc
    8798:	45525f00 	ldrbmi	r5, [r2, #-3840]	; 0xfffff100
    879c:	5f544e45 	svcpl	0x00544e45
    87a0:	525f504d 	subspl	r5, pc, #77	; 0x4d
    87a4:	4c555345 	mrrcmi	3, 4, r5, r5, cr5	; <UNPREDICTABLE>
    87a8:	74702854 	ldrbtvc	r2, [r0], #-2132	; 0xfffff7ac
    87ac:	28202972 	stmdacs	r0!, {r1, r4, r5, r6, r8, fp, sp}
    87b0:	72747028 	rsbsvc	r7, r4, #40	; 0x28
    87b4:	5f3e2d29 	svcpl	0x003e2d29
    87b8:	3e2d706d 	cdpcc	0, 2, cr7, cr13, cr13, {3}
    87bc:	7365725f 	cmnvc	r5, #-268435451	; 0xf0000005
    87c0:	29746c75 	ldmdbcs	r4!, {r0, r2, r4, r5, r6, sl, fp, sp, lr}^
    87c4:	575f5f00 	ldrbpl	r5, [pc, -r0, lsl #30]
    87c8:	5f544e49 	svcpl	0x00544e49
    87cc:	5f4e494d 	svcpl	0x004e494d
    87d0:	5530205f 	ldrpl	r2, [r0, #-95]!	; 0xffffffa1
    87d4:	465f5f00 	ldrbmi	r5, [pc], -r0, lsl #30
    87d8:	3436544c 	ldrtcc	r5, [r6], #-1100	; 0xfffffbb4
    87dc:	4749445f 	smlsldmi	r4, r9, pc, r4	; <UNPREDICTABLE>
    87e0:	31205f5f 			; <UNDEFINED> instruction: 0x31205f5f
    87e4:	495f0035 	ldmdbmi	pc, {r0, r2, r4, r5}^	; <UNPREDICTABLE>
    87e8:	3233544e 	eorscc	r5, r3, #1308622848	; 0x4e000000
    87ec:	5f51455f 	svcpl	0x0051455f
    87f0:	474e4f4c 	strbmi	r4, [lr, -ip, asr #30]
    87f4:	50470020 	subpl	r0, r7, r0, lsr #32
    87f8:	505f4f49 	subspl	r4, pc, r9, asr #30
    87fc:	395f4e49 	ldmdbcc	pc, {r0, r3, r6, r9, sl, fp, lr}^	; <UNPREDICTABLE>
    8800:	75282820 	strvc	r2, [r8, #-2080]!	; 0xfffff7e0
    8804:	31746e69 	cmncc	r4, r9, ror #28
    8808:	29745f36 	ldmdbcs	r4!, {r1, r2, r4, r5, r8, r9, sl, fp, ip, lr}^
    880c:	30783020 	rsbscc	r3, r8, r0, lsr #32
    8810:	29303032 	ldmdbcs	r0!, {r1, r4, r5, ip, sp}
    8814:	575f5f00 	ldrbpl	r5, [pc, -r0, lsl #30]
    8818:	5f544e49 	svcpl	0x00544e49
    881c:	5f58414d 	svcpl	0x0058414d
    8820:	7830205f 	ldmdavc	r0!, {r0, r1, r2, r3, r4, r6, sp}
    8824:	66666666 	strbtvs	r6, [r6], -r6, ror #12
    8828:	66666666 	strbtvs	r6, [r6], -r6, ror #12
    882c:	5f5f0055 	svcpl	0x005f0055
    8830:	5f544e49 	svcpl	0x00544e49
    8834:	5341454c 	movtpl	r4, #5452	; 0x154c
    8838:	575f3854 			; <UNDEFINED> instruction: 0x575f3854
    883c:	48544449 	ldmdami	r4, {r0, r3, r6, sl, lr}^
    8840:	38205f5f 	stmdacc	r0!, {r0, r1, r2, r3, r4, r6, r8, r9, sl, fp, ip, lr}
    8844:	49504700 	ldmdbmi	r0, {r8, r9, sl, lr}^
    8848:	49505f4f 	ldmdbmi	r0, {r0, r1, r2, r3, r6, r8, r9, sl, fp, ip, lr}^
    884c:	20335f4e 	eorscs	r5, r3, lr, asr #30
    8850:	69752828 	ldmdbvs	r5!, {r3, r5, fp, sp}^
    8854:	3631746e 	ldrtcc	r7, [r1], -lr, ror #8
    8858:	2029745f 	eorcs	r7, r9, pc, asr r4
    885c:	30307830 	eorscc	r7, r0, r0, lsr r8
    8860:	00293830 	eoreq	r3, r9, r0, lsr r8
    8864:	6f6c5f5f 	svcvs	0x006c5f5f
    8868:	645f676e 	ldrbvs	r6, [pc], #-1902	; 8870 <_Min_Stack_Size+0x8470>
    886c:	6c62756f 	cfstr64vs	mvdx7, [r2], #-444	; 0xfffffe44
    8870:	20745f65 	rsbscs	r5, r4, r5, ror #30
    8874:	676e6f6c 	strbvs	r6, [lr, -ip, ror #30]!
    8878:	756f6420 	strbvc	r6, [pc, #-1056]!	; 8460 <_Min_Stack_Size+0x8060>
    887c:	00656c62 	rsbeq	r6, r5, r2, ror #24
    8880:	4e495f5f 	mcrmi	15, 2, r5, cr9, cr15, {2}
    8884:	454c5f54 	strbmi	r5, [ip, #-3924]	; 0xfffff0ac
    8888:	31545341 	cmpcc	r4, r1, asr #6
    888c:	59545f36 	ldmdbpl	r4, {r1, r2, r4, r5, r8, r9, sl, fp, ip, lr}^
    8890:	5f5f4550 	svcpl	0x005f4550
    8894:	6f687320 	svcvs	0x00687320
    8898:	69207472 	stmdbvs	r0!, {r1, r4, r5, r6, sl, ip, sp, lr}
    889c:	5f00746e 	svcpl	0x0000746e
    88a0:	5f51515f 	svcpl	0x0051515f
    88a4:	54494246 	strbpl	r4, [r9], #-582	; 0xfffffdba
    88a8:	37205f5f 			; <UNDEFINED> instruction: 0x37205f5f
    88ac:	434e4900 	movtmi	r4, #59648	; 0xe900
    88b0:	4d54535f 	ldclmi	3, cr5, [r4, #-380]	; 0xfffffe84
    88b4:	465f3233 			; <UNDEFINED> instruction: 0x465f3233
    88b8:	58333031 	ldmdapl	r3!, {r0, r4, r5, ip, sp}
    88bc:	5f485f36 	svcpl	0x00485f36
    88c0:	5f5f0020 	svcpl	0x005f0020
    88c4:	5f4c4244 	svcpl	0x004c4244
    88c8:	5f58414d 	svcpl	0x0058414d
    88cc:	2828205f 	stmdacs	r8!, {r0, r1, r2, r3, r4, r6, sp}
    88d0:	62756f64 	rsbsvs	r6, r5, #100, 30	; 0x190
    88d4:	3129656c 			; <UNDEFINED> instruction: 0x3129656c
    88d8:	3739372e 	ldrcc	r3, [r9, -lr, lsr #14]!
    88dc:	31333936 	teqcc	r3, r6, lsr r9
    88e0:	36383433 			; <UNDEFINED> instruction: 0x36383433
    88e4:	35313332 	ldrcc	r3, [r1, #-818]!	; 0xfffffcce
    88e8:	332b6537 			; <UNDEFINED> instruction: 0x332b6537
    88ec:	294c3830 	stmdbcs	ip, {r4, r5, fp, ip, sp}^
    88f0:	4c5f5f00 	mrrcmi	15, 0, r5, pc, cr0	; <UNPREDICTABLE>
    88f4:	4152464c 	cmpmi	r2, ip, asr #12
    88f8:	465f5443 	ldrbmi	r5, [pc], -r3, asr #8
    88fc:	5f544942 	svcpl	0x00544942
    8900:	3336205f 	teqcc	r6, #95	; 0x5f
    8904:	465f5f00 	ldrbmi	r5, [pc], -r0, lsl #30
    8908:	3233544c 	eorscc	r5, r3, #76, 8	; 0x4c000000
    890c:	5341485f 	movtpl	r4, #6239	; 0x185f
    8910:	464e495f 			; <UNDEFINED> instruction: 0x464e495f
    8914:	54494e49 	strbpl	r4, [r9], #-3657	; 0xfffff1b7
    8918:	205f5f59 	subscs	r5, pc, r9, asr pc	; <UNPREDICTABLE>
    891c:	5f5f0031 	svcpl	0x005f0031
    8920:	6d756874 	ldclvs	8, cr6, [r5, #-464]!	; 0xfffffe30
    8924:	205f5f62 	subscs	r5, pc, r2, ror #30
    8928:	58450031 	stmdapl	r5, {r0, r4, r5}^
    892c:	33314954 	teqcc	r1, #84, 18	; 0x150000
    8930:	33314350 	teqcc	r1, #80, 6	; 0x40000001
    8934:	58452820 	stmdapl	r5, {r5, fp, sp}^
    8938:	475f4954 			; <UNDEFINED> instruction: 0x475f4954
    893c:	5f4f4950 	svcpl	0x004f4950
    8940:	7070614d 	rsbsvc	r6, r0, sp, asr #2
    8944:	5f676e69 	svcpl	0x00676e69
    8948:	457b2974 	ldrbmi	r2, [fp, #-2420]!	; 0xfffff68c
    894c:	31495458 	cmpcc	r9, r8, asr r4
    8950:	47202c33 			; <UNDEFINED> instruction: 0x47202c33
    8954:	434f4950 	movtmi	r4, #63824	; 0xf950
    8958:	5047202c 	subpl	r2, r7, ip, lsr #32
    895c:	505f4f49 	subspl	r4, pc, r9, asr #30
    8960:	315f4e49 	cmpcc	pc, r9, asr #28
    8964:	45202c33 	strmi	r2, [r0, #-3123]!	; 0xfffff3cd
    8968:	31495458 	cmpcc	r9, r8, asr r4
    896c:	52495f33 	subpl	r5, r9, #51, 30	; 0xcc
    8970:	54007d51 	strpl	r7, [r0], #-3409	; 0xfffff2af
    8974:	34314d49 	ldrtcc	r4, [r1], #-3401	; 0xfffff2b7
    8978:	5341425f 	movtpl	r4, #4703	; 0x125f
    897c:	78302045 	ldmdavc	r0!, {r0, r2, r6, sp}
    8980:	30303034 	eorscc	r3, r0, r4, lsr r0
    8984:	30303032 	eorscc	r3, r0, r2, lsr r0
    8988:	46410075 			; <UNDEFINED> instruction: 0x46410075
    898c:	28204f49 	stmdacs	r0!, {r0, r3, r6, r8, r9, sl, fp, lr}
    8990:	49464128 	stmdbmi	r6, {r3, r5, r8, lr}^
    8994:	79545f4f 	ldmdbvc	r4, {r0, r1, r2, r3, r6, r8, r9, sl, fp, ip, lr}^
    8998:	65646570 	strbvs	r6, [r4, #-1392]!	; 0xfffffa90
    899c:	20745f66 	rsbscs	r5, r4, r6, ror #30
    89a0:	4641292a 	strbmi	r2, [r1], -sl, lsr #18
    89a4:	425f4f49 	subsmi	r4, pc, #292	; 0x124
    89a8:	29455341 	stmdbcs	r5, {r0, r6, r8, r9, ip, lr}^
    89ac:	465f5f00 	ldrbmi	r5, [pc], -r0, lsl #30
    89b0:	3436544c 	ldrtcc	r5, [r6], #-1100	; 0xfffffbb4
    89b4:	4e414d5f 	mcrmi	13, 2, r4, cr1, cr15, {2}
    89b8:	49445f54 	stmdbmi	r4, {r2, r4, r6, r8, r9, sl, fp, ip, lr}^
    89bc:	205f5f47 	subscs	r5, pc, r7, asr #30
    89c0:	5f003335 	svcpl	0x00003335
    89c4:	4d544e49 	ldclmi	14, cr4, [r4, #-292]	; 0xfffffedc
    89c8:	545f5841 	ldrbpl	r5, [pc], #-2113	; 89d0 <_Min_Stack_Size+0x85d0>
    89cc:	4345445f 	movtmi	r4, #21599	; 0x545f
    89d0:	4552414c 	ldrbmi	r4, [r2, #-332]	; 0xfffffeb4
    89d4:	5f002044 	svcpl	0x00002044
    89d8:	726f665f 	rsbvc	r6, pc, #99614720	; 0x5f00000
    89dc:	5f74616d 	svcpl	0x0074616d
    89e0:	28677261 	stmdacs	r7!, {r0, r5, r6, r9, ip, sp, lr}^
    89e4:	61746d66 	cmnvs	r4, r6, ror #26
    89e8:	20296772 	eorcs	r6, r9, r2, ror r7
    89ec:	74615f5f 	strbtvc	r5, [r1], #-3935	; 0xfffff0a1
    89f0:	62697274 	rsbvs	r7, r9, #116, 4	; 0x40000007
    89f4:	5f657475 	svcpl	0x00657475
    89f8:	5f28285f 	svcpl	0x0028285f
    89fc:	726f665f 	rsbvc	r6, pc, #99614720	; 0x5f00000
    8a00:	5f74616d 	svcpl	0x0074616d
    8a04:	5f677261 	svcpl	0x00677261
    8a08:	6628205f 			; <UNDEFINED> instruction: 0x6628205f
    8a0c:	7261746d 	rsbvc	r7, r1, #1828716544	; 0x6d000000
    8a10:	29292967 	stmdbcs	r9!, {r0, r1, r2, r5, r6, r8, fp, sp}
    8a14:	635f5f00 	cmpvs	pc, #0, 30
    8a18:	69706d6f 	ldmdbvs	r0!, {r0, r1, r2, r3, r5, r6, r8, sl, fp, sp, lr}^
    8a1c:	5f72656c 	svcpl	0x0072656c
    8a20:	626d656d 	rsbvs	r6, sp, #457179136	; 0x1b400000
    8a24:	29287261 	stmdbcs	r8!, {r0, r5, r6, r9, ip, sp, lr}
    8a28:	615f5f20 	cmpvs	pc, r0, lsr #30
    8a2c:	5f206d73 	svcpl	0x00206d73
    8a30:	6c6f765f 	stclvs	6, cr7, [pc], #-380	; 88bc <_Min_Stack_Size+0x84bc>
    8a34:	6c697461 	cfstrdvs	mvd7, [r9], #-388	; 0xfffffe7c
    8a38:	20222865 	eorcs	r2, r2, r5, ror #16
    8a3c:	203a2022 	eorscs	r2, sl, r2, lsr #32
    8a40:	203a203a 	eorscs	r2, sl, sl, lsr r0
    8a44:	6d656d22 	stclvs	13, cr6, [r5, #-136]!	; 0xffffff78
    8a48:	2279726f 	rsbscs	r7, r9, #-268435450	; 0xf0000006
    8a4c:	5f5f0029 	svcpl	0x005f0029
    8a50:	6b636f6c 	blvs	18e4808 <_Min_Stack_Size+0x18e4408>
    8a54:	6f6c635f 	svcvs	0x006c635f
    8a58:	6c286573 	cfstr32vs	mvfx6, [r8], #-460	; 0xfffffe34
    8a5c:	296b636f 	stmdbcs	fp!, {r0, r1, r2, r3, r5, r6, r8, r9, sp, lr}^
    8a60:	725f5f20 	subsvc	r5, pc, #32, 30	; 0x80
    8a64:	72617465 	rsbvc	r7, r1, #1694498816	; 0x65000000
    8a68:	5f746567 	svcpl	0x00746567
    8a6c:	6b636f6c 	blvs	18e4824 <_Min_Stack_Size+0x18e4424>
    8a70:	6f6c635f 	svcvs	0x006c635f
    8a74:	6c286573 	cfstr32vs	mvfx6, [r8], #-460	; 0xfffffe34
    8a78:	296b636f 	stmdbcs	fp!, {r0, r1, r2, r3, r5, r6, r8, r9, sp, lr}^
    8a7c:	485f5f00 	ldmdami	pc, {r8, r9, sl, fp, ip, lr}^	; <UNPREDICTABLE>
    8a80:	42465f51 	submi	r5, r6, #324	; 0x144
    8a84:	5f5f5449 	svcpl	0x005f5449
    8a88:	00353120 	eorseq	r3, r5, r0, lsr #2
    8a8c:	61645f5f 	cmnvs	r4, pc, asr pc
    8a90:	79746174 	ldmdbvc	r4!, {r2, r4, r5, r6, r8, sp, lr}^
    8a94:	745f6570 	ldrbvc	r6, [pc], #-1392	; 8a9c <_Min_Stack_Size+0x869c>
    8a98:	5f657079 	svcpl	0x00657079
    8a9c:	28676174 	stmdacs	r7!, {r2, r4, r5, r6, r8, sp, lr}^
    8aa0:	646e696b 	strbtvs	r6, [lr], #-2411	; 0xfffff695
    8aa4:	7079742c 	rsbsvc	r7, r9, ip, lsr #8
    8aa8:	00202965 	eoreq	r2, r0, r5, ror #18
    8aac:	49535f5f 	ldmdbmi	r3, {r0, r1, r2, r3, r4, r6, r8, r9, sl, fp, ip, lr}^
    8ab0:	4d5f455a 	cfldr64mi	mvdx4, [pc, #-360]	; 8950 <_Min_Stack_Size+0x8550>
    8ab4:	5f5f5841 	svcpl	0x005f5841
    8ab8:	66783020 	ldrbtvs	r3, [r8], -r0, lsr #32
    8abc:	66666666 	strbtvs	r6, [r6], -r6, ror #12
    8ac0:	55666666 	strbpl	r6, [r6, #-1638]!	; 0xfffff99a
    8ac4:	49564e00 	ldmdbmi	r6, {r9, sl, fp, lr}^
    8ac8:	50535f43 	subspl	r5, r3, r3, asr #30
    8acc:	495f3349 	ldmdbmi	pc, {r0, r3, r6, r8, r9, ip, sp}^	; <UNPREDICTABLE>
    8ad0:	445f5152 	ldrbmi	r5, [pc], #-338	; 8ad8 <_Min_Stack_Size+0x86d8>
    8ad4:	62617369 	rsbvs	r7, r1, #-1543503871	; 0xa4000001
    8ad8:	2820656c 	stmdacs	r0!, {r2, r3, r5, r6, r8, sl, sp, lr}
    8adc:	4349564e 	movtmi	r5, #38478	; 0x964e
    8ae0:	4543495f 	strbmi	r4, [r3, #-2399]	; 0xfffff6a1
    8ae4:	7c203152 	stfvcs	f3, [r0], #-328	; 0xfffffeb8
    8ae8:	3c31203d 	ldccc	0, cr2, [r1], #-244	; 0xffffff0c
    8aec:	5053283c 	subspl	r2, r3, ip, lsr r8
    8af0:	495f3349 	ldmdbmi	pc, {r0, r3, r6, r8, r9, ip, sp}^	; <UNPREDICTABLE>
    8af4:	2d205152 	stfcss	f5, [r0, #-328]!	; 0xfffffeb8
    8af8:	29323320 	ldmdbcs	r2!, {r5, r8, r9, ip, sp}
    8afc:	49540029 	ldmdbmi	r4, {r0, r3, r5}^
    8b00:	5f33314d 	svcpl	0x0033314d
    8b04:	45534142 	ldrbmi	r4, [r3, #-322]	; 0xfffffebe
    8b08:	34783020 	ldrbtcc	r3, [r8], #-32	; 0xffffffe0
    8b0c:	31303030 	teqcc	r0, r0, lsr r0
    8b10:	75303043 	ldrvc	r3, [r0, #-67]!	; 0xffffffbd
    8b14:	34783020 	ldrbtcc	r3, [r8], #-32	; 0xffffffe0
    8b18:	20303030 	eorscs	r3, r0, r0, lsr r0
    8b1c:	30303032 	eorscc	r3, r0, r2, lsr r0
    8b20:	495f5f00 	ldmdbmi	pc, {r8, r9, sl, fp, ip, lr}^	; <UNPREDICTABLE>
    8b24:	3436544e 	ldrtcc	r5, [r6], #-1102	; 0xfffffbb2
    8b28:	6c6c2220 	sfmvs	f2, 2, [ip], #-128	; 0xffffff80
    8b2c:	5f5f0022 	svcpl	0x005f0022
    8b30:	61776c61 	cmnvs	r7, r1, ror #24
    8b34:	695f7379 	ldmdbvs	pc, {r0, r3, r4, r5, r6, r8, r9, ip, sp, lr}^	; <UNPREDICTABLE>
    8b38:	6e696c6e 	cdpvs	12, 6, cr6, cr9, cr14, {3}
    8b3c:	5f5f2065 	svcpl	0x005f2065
    8b40:	696c6e69 	stmdbvs	ip!, {r0, r3, r5, r6, r9, sl, fp, sp, lr}^
    8b44:	5f5f656e 	svcpl	0x005f656e
    8b48:	615f5f20 	cmpvs	pc, r0, lsr #30
    8b4c:	69727474 	ldmdbvs	r2!, {r2, r4, r5, r6, sl, ip, sp, lr}^
    8b50:	65747562 	ldrbvs	r7, [r4, #-1378]!	; 0xfffffa9e
    8b54:	28285f5f 	stmdacs	r8!, {r0, r1, r2, r3, r4, r6, r8, r9, sl, fp, ip, lr}
    8b58:	6c615f5f 	stclvs	15, cr5, [r1], #-380	; 0xfffffe84
    8b5c:	73796177 	cmnvc	r9, #-1073741795	; 0xc000001d
    8b60:	6c6e695f 			; <UNDEFINED> instruction: 0x6c6e695f
    8b64:	5f656e69 	svcpl	0x00656e69
    8b68:	0029295f 	eoreq	r2, r9, pc, asr r9
    8b6c:	4f495047 	svcmi	0x00495047
    8b70:	4e49505f 	mcrmi	0, 2, r5, cr9, cr15, {2}
    8b74:	2030315f 	eorscs	r3, r0, pc, asr r1
    8b78:	69752828 	ldmdbvs	r5!, {r3, r5, fp, sp}^
    8b7c:	3631746e 	ldrtcc	r7, [r1], -lr, ror #8
    8b80:	2029745f 	eorcs	r7, r9, pc, asr r4
    8b84:	34307830 	ldrtcc	r7, [r0], #-2096	; 0xfffff7d0
    8b88:	00293030 	eoreq	r3, r9, r0, lsr r0
    8b8c:	52415f5f 	subpl	r5, r1, #380	; 0x17c
    8b90:	52415f4d 	subpl	r5, r1, #308	; 0x134
    8b94:	55004843 	strpl	r4, [r0, #-2115]	; 0xfffff7bd
    8b98:	38544e49 	ldmdacc	r4, {r0, r3, r6, r9, sl, fp, lr}^
    8b9c:	58414d5f 	stmdapl	r1, {r0, r1, r2, r3, r4, r6, r8, sl, fp, lr}^
    8ba0:	5f5f2820 	svcpl	0x005f2820
    8ba4:	544e4955 	strbpl	r4, [lr], #-2389	; 0xfffff6ab
    8ba8:	414d5f38 	cmpmi	sp, r8, lsr pc
    8bac:	295f5f58 	ldmdbcs	pc, {r3, r4, r6, r8, r9, sl, fp, ip, lr}^	; <UNPREDICTABLE>
    8bb0:	4c5f5f00 	mrrcmi	15, 0, r5, pc, cr0	; <UNPREDICTABLE>
    8bb4:	5f474e4f 	svcpl	0x00474e4f
    8bb8:	5f58414d 	svcpl	0x0058414d
    8bbc:	7830205f 	ldmdavc	r0!, {r0, r1, r2, r3, r4, r6, sp}
    8bc0:	66666637 			; <UNDEFINED> instruction: 0x66666637
    8bc4:	66666666 	strbtvs	r6, [r6], -r6, ror #12
    8bc8:	5047004c 	subpl	r0, r7, ip, asr #32
    8bcc:	535f4f49 	cmppl	pc, #292	; 0x124
    8bd0:	44454550 	strbmi	r4, [r5], #-1360	; 0xfffffab0
    8bd4:	204d325f 	subcs	r3, sp, pc, asr r2
    8bd8:	30307830 	eorscc	r7, r0, r0, lsr r8
    8bdc:	30303030 	eorscc	r3, r0, r0, lsr r0
    8be0:	00753230 	rsbseq	r3, r5, r0, lsr r2
    8be4:	676e6f6c 	strbvs	r6, [lr, -ip, ror #30]!
    8be8:	00342b20 	eorseq	r2, r4, r0, lsr #22
    8bec:	49545845 	ldmdbmi	r4, {r0, r2, r6, fp, ip, lr}^
    8bf0:	00332033 	eorseq	r2, r3, r3, lsr r0
    8bf4:	6f6e5f5f 	svcvs	0x006e5f5f
    8bf8:	6c756e6e 	ldclvs	14, cr6, [r5], #-440	; 0xfffffe48
    8bfc:	2978286c 	ldmdbcs	r8!, {r2, r3, r5, r6, fp, sp}^
    8c00:	615f5f20 	cmpvs	pc, r0, lsr #30
    8c04:	69727474 	ldmdbvs	r2!, {r2, r4, r5, r6, sl, ip, sp, lr}^
    8c08:	65747562 	ldrbvs	r7, [r4, #-1378]!	; 0xfffffa9e
    8c0c:	28285f5f 	stmdacs	r8!, {r0, r1, r2, r3, r4, r6, r8, r9, sl, fp, ip, lr}
    8c10:	6f6e5f5f 	svcvs	0x006e5f5f
    8c14:	6c756e6e 	ldclvs	14, cr6, [r5], #-440	; 0xfffffe48
    8c18:	205f5f6c 	subscs	r5, pc, ip, ror #30
    8c1c:	00292978 	eoreq	r2, r9, r8, ror r9
    8c20:	4e41525f 	mcrmi	2, 2, r5, cr1, cr15, {2}
    8c24:	5f383444 	svcpl	0x00383444
    8c28:	20444441 	subcs	r4, r4, r1, asr #8
    8c2c:	30783028 	rsbscc	r3, r8, r8, lsr #32
    8c30:	29623030 	stmdbcs	r2!, {r4, r5, ip, sp}^
    8c34:	49584500 	ldmdbmi	r8, {r8, sl, lr}^
    8c38:	41465f54 	cmpmi	r6, r4, asr pc
    8c3c:	52554c49 	subspl	r4, r5, #18688	; 0x4900
    8c40:	00312045 	eorseq	r2, r1, r5, asr #32
    8c44:	49545845 	ldmdbmi	r4, {r0, r2, r6, fp, ip, lr}^
    8c48:	31203331 			; <UNDEFINED> instruction: 0x31203331
    8c4c:	5f5f0033 	svcpl	0x005f0033
    8c50:	5f4d5241 	svcpl	0x004d5241
    8c54:	54414546 	strbpl	r4, [r1], #-1350	; 0xfffffaba
    8c58:	5f455255 	svcpl	0x00455255
    8c5c:	4552444c 	ldrbmi	r4, [r2, #-1100]	; 0xfffffbb4
    8c60:	00372058 	eorseq	r2, r7, r8, asr r0
    8c64:	4349564e 	movtmi	r5, #38478	; 0x964e
    8c68:	4543495f 	strbmi	r4, [r3, #-2399]	; 0xfffff6a1
    8c6c:	2a203252 	bcs	8155bc <_Min_Stack_Size+0x8151bc>
    8c70:	6c6f7628 	stclvs	6, cr7, [pc], #-160	; 8bd8 <_Min_Stack_Size+0x87d8>
    8c74:	6c697461 	cfstrdvs	mvd7, [r9], #-388	; 0xfffffe7c
    8c78:	69752065 	ldmdbvs	r5!, {r0, r2, r5, r6, sp}^
    8c7c:	3233746e 	eorscc	r7, r3, #1845493760	; 0x6e000000
    8c80:	202a745f 	eorcs	r7, sl, pc, asr r4
    8c84:	564e2829 	strbpl	r2, [lr], -r9, lsr #16
    8c88:	425f4349 	subsmi	r4, pc, #603979777	; 0x24000001
    8c8c:	20657361 	rsbcs	r7, r5, r1, ror #6
    8c90:	3078302b 	rsbscc	r3, r8, fp, lsr #32
    8c94:	00293838 	eoreq	r3, r9, r8, lsr r8
    8c98:	4c4c5f5f 	mcrrmi	15, 5, r5, ip, cr15
    8c9c:	43415246 	movtmi	r5, #4678	; 0x1246
    8ca0:	50455f54 	subpl	r5, r5, r4, asr pc
    8ca4:	4f4c4953 	svcmi	0x004c4953
    8ca8:	205f5f4e 	subscs	r5, pc, lr, asr #30
    8cac:	50317830 	eorspl	r7, r1, r0, lsr r8
    8cb0:	4c33362d 	ldcmi	6, cr3, [r3], #-180	; 0xffffff4c
    8cb4:	5f00524c 	svcpl	0x0000524c
    8cb8:	4d52415f 	ldfmie	f4, [r2, #-380]	; 0xfffffe84
    8cbc:	4145465f 	cmpmi	r5, pc, asr r6
    8cc0:	45525554 	ldrbmi	r5, [r2, #-1364]	; 0xfffffaac
    8cc4:	4d49535f 	stclmi	3, cr5, [r9, #-380]	; 0xfffffe84
    8cc8:	00323344 	eorseq	r3, r2, r4, asr #6
    8ccc:	4c465f5f 	mcrrmi	15, 5, r5, r6, cr15
    8cd0:	58323354 	ldmdapl	r2!, {r2, r4, r6, r8, r9, ip, sp}
    8cd4:	4e414d5f 	mcrmi	13, 2, r4, cr1, cr15, {2}
    8cd8:	49445f54 	stmdbmi	r4, {r2, r4, r6, r8, r9, sl, fp, ip, lr}^
    8cdc:	205f5f47 	subscs	r5, pc, r7, asr #30
    8ce0:	45003335 	strmi	r3, [r0, #-821]	; 0xfffffccb
    8ce4:	38495458 	stmdacc	r9, {r3, r4, r6, sl, ip, lr}^
    8ce8:	5f003820 	svcpl	0x00003820
    8cec:	4c57454e 	cfldr64mi	mvdx4, [r7], {78}	; 0x4e
    8cf0:	565f4249 	ldrbpl	r4, [pc], -r9, asr #4
    8cf4:	49535245 	ldmdbmi	r3, {r0, r2, r6, r9, ip, lr}^
    8cf8:	22204e4f 	eorcs	r4, r0, #1264	; 0x4f0
    8cfc:	2e312e34 	mrccs	14, 1, r2, cr1, cr4, {1}
    8d00:	5f002230 	svcpl	0x00002230
    8d04:	4843575f 	stmdami	r3, {r0, r1, r2, r3, r4, r6, r8, r9, sl, ip, lr}^
    8d08:	575f5241 	ldrbpl	r5, [pc, -r1, asr #4]
    8d0c:	48544449 	ldmdami	r4, {r0, r3, r6, sl, lr}^
    8d10:	33205f5f 			; <UNDEFINED> instruction: 0x33205f5f
    8d14:	5f5f0032 	svcpl	0x005f0032
    8d18:	31544e49 	cmpcc	r4, r9, asr #28
    8d1c:	28435f36 	stmdacs	r3, {r1, r2, r4, r5, r8, r9, sl, fp, ip, lr}^
    8d20:	63202963 			; <UNDEFINED> instruction: 0x63202963
    8d24:	54564900 	ldrbpl	r4, [r6], #-2304	; 0xfffff700
    8d28:	5152495f 	cmppl	r2, pc, asr r9
    8d2c:	6d754e5f 	ldclvs	14, cr4, [r5, #-380]!	; 0xfffffe84
    8d30:	00726562 	rsbseq	r6, r2, r2, ror #10
    8d34:	41445f5f 	cmpmi	r4, pc, asr pc
    8d38:	4942495f 	stmdbmi	r2, {r0, r1, r2, r3, r4, r6, r8, fp, lr}^
    8d3c:	205f5f54 	subscs	r5, pc, r4, asr pc	; <UNPREDICTABLE>
    8d40:	5f003233 	svcpl	0x00003233
    8d44:	7274735f 	rsbsvc	r7, r4, #2080374785	; 0x7c000001
    8d48:	6d697466 	cfstrdvs	mvd7, [r9, #-408]!	; 0xfffffe68
    8d4c:	6b696c65 	blvs	1a63ee8 <_Min_Stack_Size+0x1a63ae8>
    8d50:	6d662865 	stclvs	8, cr2, [r6, #-404]!	; 0xfffffe6c
    8d54:	67726174 			; <UNDEFINED> instruction: 0x67726174
    8d58:	7269662c 	rsbvc	r6, r9, #44, 12	; 0x2c00000
    8d5c:	61767473 	cmnvs	r6, r3, ror r4
    8d60:	67726172 			; <UNDEFINED> instruction: 0x67726172
    8d64:	5f5f2029 	svcpl	0x005f2029
    8d68:	72747461 	rsbsvc	r7, r4, #1627389952	; 0x61000000
    8d6c:	74756269 	ldrbtvc	r6, [r5], #-617	; 0xfffffd97
    8d70:	285f5f65 	ldmdacs	pc, {r0, r2, r5, r6, r8, r9, sl, fp, ip, lr}^	; <UNPREDICTABLE>
    8d74:	665f5f28 	ldrbvs	r5, [pc], -r8, lsr #30
    8d78:	616d726f 	cmnvs	sp, pc, ror #4
    8d7c:	205f5f74 	subscs	r5, pc, r4, ror pc	; <UNPREDICTABLE>
    8d80:	735f5f28 	cmpvc	pc, #40, 30	; 0xa0
    8d84:	74667274 	strbtvc	r7, [r6], #-628	; 0xfffffd8c
    8d88:	5f656d69 	svcpl	0x00656d69
    8d8c:	66202c5f 			; <UNDEFINED> instruction: 0x66202c5f
    8d90:	7261746d 	rsbvc	r7, r1, #1828716544	; 0x6d000000
    8d94:	66202c67 	strtvs	r2, [r0], -r7, ror #24
    8d98:	74737269 	ldrbtvc	r7, [r3], #-617	; 0xfffffd97
    8d9c:	61726176 	cmnvs	r2, r6, ror r1
    8da0:	29296772 	stmdbcs	r9!, {r1, r4, r5, r6, r8, r9, sl, sp, lr}
    8da4:	5f5f0029 	svcpl	0x005f0029
    8da8:	55514544 	ldrbpl	r4, [r1, #-1348]	; 0xfffffabc
    8dac:	46494c41 	strbmi	r4, [r9], -r1, asr #24
    8db0:	79742859 	ldmdbvc	r4!, {r0, r3, r4, r6, fp, sp}^
    8db4:	762c6570 			; <UNDEFINED> instruction: 0x762c6570
    8db8:	20297261 	eorcs	r7, r9, r1, ror #4
    8dbc:	79742828 	ldmdbvc	r4!, {r3, r5, fp, sp}^
    8dc0:	28296570 	stmdacs	r9!, {r4, r5, r6, r8, sl, sp, lr}
    8dc4:	69755f5f 	ldmdbvs	r5!, {r0, r1, r2, r3, r4, r6, r8, r9, sl, fp, ip, lr}^
    8dc8:	7470746e 	ldrbtvc	r7, [r0], #-1134	; 0xfffffb92
    8dcc:	29745f72 	ldmdbcs	r4!, {r1, r4, r5, r6, r8, r9, sl, fp, ip, lr}^
    8dd0:	6e6f6328 	cdpvs	3, 6, cr6, cr15, cr8, {1}
    8dd4:	76207473 			; <UNDEFINED> instruction: 0x76207473
    8dd8:	74616c6f 	strbtvc	r6, [r1], #-3183	; 0xfffff391
    8ddc:	20656c69 	rsbcs	r6, r5, r9, ror #24
    8de0:	64696f76 	strbtvs	r6, [r9], #-3958	; 0xfffff08a
    8de4:	28292a20 	stmdacs	r9!, {r5, r9, fp, sp}
    8de8:	29726176 	ldmdbcs	r2!, {r1, r2, r4, r5, r6, r8, sp, lr}^
    8dec:	5f5f0029 	svcpl	0x005f0029
    8df0:	6b636f6c 	blvs	18e4ba8 <_Min_Stack_Size+0x18e47a8>
    8df4:	696e695f 	stmdbvs	lr!, {r0, r1, r2, r3, r4, r6, r8, fp, sp, lr}^
    8df8:	65725f74 	ldrbvs	r5, [r2, #-3956]!	; 0xfffff08c
    8dfc:	73727563 	cmnvc	r2, #415236096	; 0x18c00000
    8e00:	28657669 	stmdacs	r5!, {r0, r3, r5, r6, r9, sl, ip, sp, lr}^
    8e04:	6b636f6c 	blvs	18e4bbc <_Min_Stack_Size+0x18e47bc>
    8e08:	5f5f2029 	svcpl	0x005f2029
    8e0c:	61746572 	cmnvs	r4, r2, ror r5
    8e10:	74656772 	strbtvc	r6, [r5], #-1906	; 0xfffff88e
    8e14:	636f6c5f 	cmnvs	pc, #24320	; 0x5f00
    8e18:	6e695f6b 	cdpvs	15, 6, cr5, cr9, cr11, {3}
    8e1c:	725f7469 	subsvc	r7, pc, #1761607680	; 0x69000000
    8e20:	72756365 	rsbsvc	r6, r5, #-1811939327	; 0x94000001
    8e24:	65766973 	ldrbvs	r6, [r6, #-2419]!	; 0xfffff68d
    8e28:	6f6c2628 	svcvs	0x006c2628
    8e2c:	00296b63 	eoreq	r6, r9, r3, ror #22
    8e30:	54415f5f 	strbpl	r5, [r1], #-3935	; 0xfffff0a1
    8e34:	43494d4f 	movtmi	r4, #40271	; 0x9d4f
    8e38:	5143415f 	cmppl	r3, pc, asr r1
    8e3c:	4c45525f 	sfmmi	f5, 2, [r5], {95}	; 0x5f
    8e40:	4e003420 	cfcpydmi	mvd3, mvd0
    8e44:	5f434956 	svcpl	0x00434956
    8e48:	49545845 	ldmdbmi	r4, {r0, r2, r6, fp, ip, lr}^
    8e4c:	52495f34 	subpl	r5, r9, #52, 30	; 0xd0
    8e50:	69445f51 	stmdbvs	r4, {r0, r4, r6, r8, r9, sl, fp, ip, lr}^
    8e54:	6c626173 	stfvse	f6, [r2], #-460	; 0xfffffe34
    8e58:	4e282065 	cdpmi	0, 2, cr2, cr8, cr5, {3}
    8e5c:	5f434956 	svcpl	0x00434956
    8e60:	52454349 	subpl	r4, r5, #603979777	; 0x24000001
    8e64:	3d7c2030 	ldclcc	0, cr2, [ip, #-192]!	; 0xffffff40
    8e68:	3c3c3120 	ldfccs	f3, [ip], #-128	; 0xffffff80
    8e6c:	00293031 	eoreq	r3, r9, r1, lsr r0
    8e70:	51485f5f 	cmppl	r8, pc, asr pc
    8e74:	4942495f 	stmdbmi	r2, {r0, r1, r2, r3, r4, r6, r8, fp, lr}^
    8e78:	205f5f54 	subscs	r5, pc, r4, asr pc	; <UNPREDICTABLE>
    8e7c:	5f5f0030 	svcpl	0x005f0030
    8e80:	6b636170 	blvs	18e1448 <_Min_Stack_Size+0x18e1048>
    8e84:	5f206465 	svcpl	0x00206465
    8e88:	7474615f 	ldrbtvc	r6, [r4], #-351	; 0xfffffea1
    8e8c:	75626972 	strbvc	r6, [r2, #-2418]!	; 0xfffff68e
    8e90:	5f5f6574 	svcpl	0x005f6574
    8e94:	5f5f2828 	svcpl	0x005f2828
    8e98:	6b636170 	blvs	18e1460 <_Min_Stack_Size+0x18e1060>
    8e9c:	5f5f6465 	svcpl	0x005f6465
    8ea0:	5f002929 	svcpl	0x00002929
    8ea4:	41484357 	cmpmi	r8, r7, asr r3
    8ea8:	5f545f52 	svcpl	0x00545f52
    8eac:	49464544 	stmdbmi	r6, {r2, r6, r8, sl, lr}^
    8eb0:	5f44454e 	svcpl	0x0044454e
    8eb4:	54530020 	ldrbpl	r0, [r3], #-32	; 0xffffffe0
    8eb8:	4632334d 	ldrtmi	r3, [r2], -sp, asr #6
    8ebc:	00312031 	eorseq	r2, r1, r1, lsr r0
    8ec0:	49545845 	ldmdbmi	r4, {r0, r2, r6, fp, ip, lr}^
    8ec4:	38435038 	stmdacc	r3, {r3, r4, r5, ip, lr}^
    8ec8:	58452820 	stmdapl	r5, {r5, fp, sp}^
    8ecc:	475f4954 			; <UNDEFINED> instruction: 0x475f4954
    8ed0:	5f4f4950 	svcpl	0x004f4950
    8ed4:	7070614d 	rsbsvc	r6, r0, sp, asr #2
    8ed8:	5f676e69 	svcpl	0x00676e69
    8edc:	457b2974 	ldrbmi	r2, [fp, #-2420]!	; 0xfffff68c
    8ee0:	38495458 	stmdacc	r9, {r3, r4, r6, sl, ip, lr}^
    8ee4:	5047202c 	subpl	r2, r7, ip, lsr #32
    8ee8:	2c434f49 	mcrrcs	15, 4, r4, r3, cr9
    8eec:	49504720 	ldmdbmi	r0, {r5, r8, r9, sl, lr}^
    8ef0:	49505f4f 	ldmdbmi	r0, {r0, r1, r2, r3, r6, r8, r9, sl, fp, ip, lr}^
    8ef4:	2c385f4e 	ldccs	15, cr5, [r8], #-312	; 0xfffffec8
    8ef8:	54584520 	ldrbpl	r4, [r8], #-1312	; 0xfffffae0
    8efc:	495f3849 	ldmdbmi	pc, {r0, r3, r6, fp, ip, sp}^	; <UNPREDICTABLE>
    8f00:	007d5152 	rsbseq	r5, sp, r2, asr r1
    8f04:	49545845 	ldmdbmi	r4, {r0, r2, r6, fp, ip, lr}^
    8f08:	44503131 	ldrbmi	r3, [r0], #-305	; 0xfffffecf
    8f0c:	28203131 	stmdacs	r0!, {r0, r4, r5, r8, ip, sp}
    8f10:	49545845 	ldmdbmi	r4, {r0, r2, r6, fp, ip, lr}^
    8f14:	4950475f 	ldmdbmi	r0, {r0, r1, r2, r3, r4, r6, r8, r9, sl, lr}^
    8f18:	614d5f4f 	cmpvs	sp, pc, asr #30
    8f1c:	6e697070 	mcrvs	0, 3, r7, cr9, cr0, {3}
    8f20:	29745f67 	ldmdbcs	r4!, {r0, r1, r2, r5, r6, r8, r9, sl, fp, ip, lr}^
    8f24:	5458457b 	ldrbpl	r4, [r8], #-1403	; 0xfffffa85
    8f28:	2c313149 	ldfcss	f3, [r1], #-292	; 0xfffffedc
    8f2c:	49504720 	ldmdbmi	r0, {r5, r8, r9, sl, lr}^
    8f30:	202c444f 	eorcs	r4, ip, pc, asr #8
    8f34:	4f495047 	svcmi	0x00495047
    8f38:	4e49505f 	mcrmi	0, 2, r5, cr9, cr15, {2}
    8f3c:	2c31315f 	ldfcss	f3, [r1], #-380	; 0xfffffe84
    8f40:	54584520 	ldrbpl	r4, [r8], #-1312	; 0xfffffae0
    8f44:	5f313149 	svcpl	0x00313149
    8f48:	7d515249 	lfmvc	f5, 2, [r1, #-292]	; 0xfffffedc
    8f4c:	4d495400 	cfstrdmi	mvd5, [r9, #-0]
    8f50:	425f3231 	subsmi	r3, pc, #268435459	; 0x10000003
    8f54:	20455341 	subcs	r5, r5, r1, asr #6
    8f58:	30347830 	eorscc	r7, r4, r0, lsr r8
    8f5c:	38313030 	ldmdacc	r1!, {r4, r5, ip, sp}
    8f60:	00753030 	rsbseq	r3, r5, r0, lsr r0
    8f64:	73615f5f 	cmnvc	r1, #380	; 0x17c
    8f68:	74726573 	ldrbtvc	r6, [r2], #-1395	; 0xfffffa8d
    8f6c:	68735f73 	ldmdavs	r3!, {r0, r1, r4, r5, r6, r8, r9, sl, fp, ip, lr}^
    8f70:	64657261 	strbtvs	r7, [r5], #-609	; 0xfffffd9f
    8f74:	2e2e2e28 	cdpcs	14, 2, cr2, cr14, cr8, {1}
    8f78:	5f5f2029 	svcpl	0x005f2029
    8f7c:	6b636f6c 	blvs	18e4d34 <_Min_Stack_Size+0x18e4934>
    8f80:	6e6e615f 	mcrvs	1, 3, r6, cr14, cr15, {2}
    8f84:	7461746f 	strbtvc	r7, [r1], #-1135	; 0xfffffb91
    8f88:	73612865 	cmnvc	r1, #6619136	; 0x650000
    8f8c:	74726573 	ldrbtvc	r6, [r2], #-1395	; 0xfffffa8d
    8f90:	6168735f 	cmnvs	r8, pc, asr r3
    8f94:	5f646572 	svcpl	0x00646572
    8f98:	6b636f6c 	blvs	18e4d50 <_Min_Stack_Size+0x18e4950>
    8f9c:	565f5f28 	ldrbpl	r5, [pc], -r8, lsr #30
    8fa0:	52415f41 	subpl	r5, r1, #260	; 0x104
    8fa4:	5f5f5347 	svcpl	0x005f5347
    8fa8:	5f002929 	svcpl	0x00002929
    8fac:	4e454552 	mcrmi	5, 2, r4, cr5, cr2, {2}
    8fb0:	4d535f54 	ldclmi	15, cr5, [r3, #-336]	; 0xfffffeb0
    8fb4:	5f4c4c41 	svcpl	0x004c4c41
    8fb8:	43454843 	movtmi	r4, #22595	; 0x5843
    8fbc:	4e495f4b 	cdpmi	15, 4, cr5, cr9, cr11, {2}
    8fc0:	70285449 	eorvc	r5, r8, r9, asr #8
    8fc4:	20297274 	eorcs	r7, r9, r4, ror r2
    8fc8:	7b206f64 	blvc	824d60 <_Min_Stack_Size+0x824960>
    8fcc:	20666920 	rsbcs	r6, r6, r0, lsr #18
    8fd0:	74702828 	ldrbtvc	r2, [r0], #-2088	; 0xfffff7d8
    8fd4:	26202972 			; <UNDEFINED> instruction: 0x26202972
    8fd8:	28212026 	stmdacs	r1!, {r1, r2, r5, sp}
    8fdc:	29727470 	ldmdbcs	r2!, {r4, r5, r6, sl, ip, sp, lr}^
    8fe0:	5f5f3e2d 	svcpl	0x005f3e2d
    8fe4:	64696473 	strbtvs	r6, [r9], #-1139	; 0xfffffb8d
    8fe8:	74696e69 	strbtvc	r6, [r9], #-3689	; 0xfffff197
    8fec:	5f5f2029 	svcpl	0x005f2029
    8ff0:	696e6973 	stmdbvs	lr!, {r0, r1, r4, r5, r6, r8, fp, sp, lr}^
    8ff4:	70282074 	eorvc	r2, r8, r4, ror r0
    8ff8:	3b297274 	blcc	a659d0 <_Min_Stack_Size+0xa655d0>
    8ffc:	77207d20 	strvc	r7, [r0, -r0, lsr #26]!
    9000:	656c6968 	strbvs	r6, [ip, #-2408]!	; 0xfffff698
    9004:	29302820 	ldmdbcs	r0!, {r5, fp, sp}
    9008:	695f5f00 	ldmdbvs	pc, {r8, r9, sl, fp, ip, lr}^	; <UNPREDICTABLE>
    900c:	3032746e 	eorscc	r7, r2, lr, ror #8
    9010:	4d495400 	cfstrdmi	mvd5, [r9, #-0]
    9014:	41425f32 	cmpmi	r2, r2, lsr pc
    9018:	30204553 	eorcc	r4, r0, r3, asr r5
    901c:	30303478 	eorscc	r3, r0, r8, ror r4
    9020:	30303030 	eorscc	r3, r0, r0, lsr r0
    9024:	5f007530 	svcpl	0x00007530
    9028:	4f4e414e 	svcmi	0x004e414e
    902c:	524f465f 	subpl	r4, pc, #99614720	; 0x5f00000
    9030:	5454414d 	ldrbpl	r4, [r4], #-333	; 0xfffffeb3
    9034:	495f4445 	ldmdbmi	pc, {r0, r2, r6, sl, lr}^	; <UNPREDICTABLE>
    9038:	0031204f 	eorseq	r2, r1, pc, asr #32
    903c:	5f544e49 	svcpl	0x00544e49
    9040:	54534146 	ldrbpl	r4, [r3], #-326	; 0xfffffeba
    9044:	4d5f3233 	lfmmi	f3, 2, [pc, #-204]	; 8f80 <_Min_Stack_Size+0x8b80>
    9048:	28205841 	stmdacs	r0!, {r0, r6, fp, ip, lr}
    904c:	4e495f5f 	mcrmi	15, 2, r5, cr9, cr15, {2}
    9050:	41465f54 	cmpmi	r6, r4, asr pc
    9054:	32335453 	eorscc	r5, r3, #1392508928	; 0x53000000
    9058:	58414d5f 	stmdapl	r1, {r0, r1, r2, r3, r4, r6, r8, sl, fp, lr}^
    905c:	00295f5f 	eoreq	r5, r9, pc, asr pc
    9060:	4c465f5f 	mcrrmi	15, 5, r5, r6, cr15
    9064:	5f323354 	svcpl	0x00323354
    9068:	4d524f4e 	ldclmi	15, cr4, [r2, #-312]	; 0xfffffec8
    906c:	58414d5f 	stmdapl	r1, {r0, r1, r2, r3, r4, r6, r8, sl, fp, lr}^
    9070:	33205f5f 			; <UNDEFINED> instruction: 0x33205f5f
    9074:	3230342e 	eorscc	r3, r0, #771751936	; 0x2e000000
    9078:	34333238 	ldrtcc	r3, [r3], #-568	; 0xfffffdc8
    907c:	38333636 	ldmdacc	r3!, {r1, r2, r4, r5, r9, sl, ip, sp}
    9080:	38383235 	ldmdacc	r8!, {r0, r2, r4, r5, r9, ip, sp}
    9084:	332b6536 			; <UNDEFINED> instruction: 0x332b6536
    9088:	32334638 	eorscc	r4, r3, #56, 12	; 0x3800000
    908c:	49564e00 	ldmdbmi	r6, {r9, sl, fp, lr}^
    9090:	53555f43 	cmppl	r5, #268	; 0x10c
    9094:	31545241 	cmpcc	r4, r1, asr #4
    9098:	5152495f 	cmppl	r2, pc, asr r9
    909c:	616e455f 	cmnvs	lr, pc, asr r5
    90a0:	20656c62 	rsbcs	r6, r5, r2, ror #24
    90a4:	49564e28 	ldmdbmi	r6, {r3, r5, r9, sl, fp, lr}^
    90a8:	53495f43 	movtpl	r5, #40771	; 0x9f43
    90ac:	20315245 	eorscs	r5, r1, r5, asr #4
    90b0:	31203d7c 			; <UNDEFINED> instruction: 0x31203d7c
    90b4:	55283c3c 	strpl	r3, [r8, #-3132]!	; 0xfffff3c4
    90b8:	54524153 	ldrbpl	r4, [r2], #-339	; 0xfffffead
    90bc:	52495f31 	subpl	r5, r9, #49, 30	; 0xc4
    90c0:	202d2051 	eorcs	r2, sp, r1, asr r0
    90c4:	29293233 	stmdbcs	r9!, {r0, r1, r4, r5, r9, ip, sp}
    90c8:	45525f00 	ldrbmi	r5, [r2, #-3840]	; 0xfffff100
    90cc:	5f544e45 	svcpl	0x00544e45
    90d0:	54435341 	strbpl	r5, [r3], #-833	; 0xfffffcbf
    90d4:	5f454d49 	svcpl	0x00454d49
    90d8:	455a4953 	ldrbmi	r4, [sl, #-2387]	; 0xfffff6ad
    90dc:	00363220 	eorseq	r3, r6, r0, lsr #4
    90e0:	5f434352 	svcpl	0x00434352
    90e4:	4f495047 	svcmi	0x00495047
    90e8:	4c435f41 	mcrrmi	15, 4, r5, r3, cr1
    90ec:	4e455f4b 	cdpmi	15, 4, cr5, cr5, cr11, {2}
    90f0:	28202928 	stmdacs	r0!, {r3, r5, r8, fp, sp}
    90f4:	2d434352 	stclcs	3, cr4, [r3, #-328]	; 0xfffffeb8
    90f8:	4250413e 	subsmi	r4, r0, #-2147483633	; 0x8000000f
    90fc:	524e4532 	subpl	r4, lr, #209715200	; 0xc800000
    9100:	203d7c20 	eorscs	r7, sp, r0, lsr #24
    9104:	3c3c3128 	ldfccs	f3, [ip], #-160	; 0xffffff60
    9108:	00292932 	eoreq	r2, r9, r2, lsr r9
    910c:	50544e49 	subspl	r4, r4, r9, asr #28
    9110:	4d5f5254 	lfmmi	f5, 2, [pc, #-336]	; 8fc8 <_Min_Stack_Size+0x8bc8>
    9114:	28204e49 	stmdacs	r0!, {r0, r3, r6, r9, sl, fp, lr}
    9118:	495f5f2d 	ldmdbmi	pc, {r0, r2, r3, r5, r8, r9, sl, fp, ip, lr}^	; <UNPREDICTABLE>
    911c:	5450544e 	ldrbpl	r5, [r0], #-1102	; 0xfffffbb2
    9120:	414d5f52 	cmpmi	sp, r2, asr pc
    9124:	205f5f58 	subscs	r5, pc, r8, asr pc	; <UNPREDICTABLE>
    9128:	2931202d 	ldmdbcs	r1!, {r0, r2, r3, r5, sp}
    912c:	52545000 	subspl	r5, r4, #0
    9130:	46464944 	strbmi	r4, [r6], -r4, asr #18
    9134:	4e494d5f 	mcrmi	13, 2, r4, cr9, cr15, {2}
    9138:	502d2820 	eorpl	r2, sp, r0, lsr #16
    913c:	49445254 	stmdbmi	r4, {r2, r4, r6, r9, ip, lr}^
    9140:	4d5f4646 	ldclmi	6, cr4, [pc, #-280]	; 9030 <_Min_Stack_Size+0x8c30>
    9144:	2d205841 	stccs	8, cr5, [r0, #-260]!	; 0xfffffefc
    9148:	00293120 	eoreq	r3, r9, r0, lsr #2
    914c:	534f505f 	movtpl	r5, #61535	; 0xf05f
    9150:	435f5849 	cmpmi	pc, #4784128	; 0x490000
    9154:	554f535f 	strbpl	r5, [pc, #-863]	; 8dfd <_Min_Stack_Size+0x89fd>
    9158:	00454352 	subeq	r4, r5, r2, asr r3
    915c:	49555f5f 	ldmdbmi	r5, {r0, r1, r2, r3, r4, r6, r8, r9, sl, fp, ip, lr}^
    9160:	414d544e 	cmpmi	sp, lr, asr #8
    9164:	414d5f58 	cmpmi	sp, r8, asr pc
    9168:	205f5f58 	subscs	r5, pc, r8, asr pc	; <UNPREDICTABLE>
    916c:	66667830 			; <UNDEFINED> instruction: 0x66667830
    9170:	66666666 	strbtvs	r6, [r6], -r6, ror #12
    9174:	66666666 	strbtvs	r6, [r6], -r6, ror #12
    9178:	66666666 	strbtvs	r6, [r6], -r6, ror #12
    917c:	4c556666 	mrrcmi	6, 6, r6, r5, cr6
    9180:	564e004c 	strbpl	r0, [lr], -ip, asr #32
    9184:	555f4349 	ldrbpl	r4, [pc, #-841]	; 8e43 <_Min_Stack_Size+0x8a43>
    9188:	54524153 	ldrbpl	r4, [r2], #-339	; 0xfffffead
    918c:	52495f32 	subpl	r5, r9, #50, 30	; 0xc8
    9190:	6e455f51 	mcrvs	15, 2, r5, cr5, cr1, {2}
    9194:	656c6261 	strbvs	r6, [ip, #-609]!	; 0xfffffd9f
    9198:	564e2820 	strbpl	r2, [lr], -r0, lsr #16
    919c:	495f4349 	ldmdbmi	pc, {r0, r3, r6, r8, r9, lr}^	; <UNPREDICTABLE>
    91a0:	31524553 	cmpcc	r2, r3, asr r5
    91a4:	203d7c20 	eorscs	r7, sp, r0, lsr #24
    91a8:	283c3c31 	ldmdacs	ip!, {r0, r4, r5, sl, fp, ip, sp}
    91ac:	52415355 	subpl	r5, r1, #1409286145	; 0x54000001
    91b0:	495f3254 	ldmdbmi	pc, {r2, r4, r6, r9, ip, sp}^	; <UNPREDICTABLE>
    91b4:	2d205152 	stfcss	f5, [r0, #-328]!	; 0xfffffeb8
    91b8:	29323320 	ldmdbcs	r2!, {r5, r8, r9, ip, sp}
    91bc:	5f5f0029 	svcpl	0x005f0029
    91c0:	5f4c4244 	svcpl	0x004c4244
    91c4:	544e414d 	strbpl	r4, [lr], #-333	; 0xfffffeb3
    91c8:	4749445f 	smlsldmi	r4, r9, pc, r4	; <UNPREDICTABLE>
    91cc:	35205f5f 	strcc	r5, [r0, #-3935]!	; 0xfffff0a1
    91d0:	58450033 	stmdapl	r5, {r0, r1, r4, r5}^
    91d4:	50314954 	eorspl	r4, r1, r4, asr r9
    91d8:	28203144 	stmdacs	r0!, {r2, r6, r8, ip, sp}
    91dc:	49545845 	ldmdbmi	r4, {r0, r2, r6, fp, ip, lr}^
    91e0:	4950475f 	ldmdbmi	r0, {r0, r1, r2, r3, r4, r6, r8, r9, sl, lr}^
    91e4:	614d5f4f 	cmpvs	sp, pc, asr #30
    91e8:	6e697070 	mcrvs	0, 3, r7, cr9, cr0, {3}
    91ec:	29745f67 	ldmdbcs	r4!, {r0, r1, r2, r5, r6, r8, r9, sl, fp, ip, lr}^
    91f0:	5458457b 	ldrbpl	r4, [r8], #-1403	; 0xfffffa85
    91f4:	202c3149 	eorcs	r3, ip, r9, asr #2
    91f8:	4f495047 	svcmi	0x00495047
    91fc:	47202c44 	strmi	r2, [r0, -r4, asr #24]!
    9200:	5f4f4950 	svcpl	0x004f4950
    9204:	5f4e4950 	svcpl	0x004e4950
    9208:	45202c31 	strmi	r2, [r0, #-3121]!	; 0xfffff3cf
    920c:	31495458 	cmpcc	r9, r8, asr r4
    9210:	5152495f 	cmppl	r2, pc, asr r9
    9214:	5f5f007d 	svcpl	0x005f007d
    9218:	52464c55 	subpl	r4, r6, #21760	; 0x5500
    921c:	5f544341 	svcpl	0x00544341
    9220:	54494249 	strbpl	r4, [r9], #-585	; 0xfffffdb7
    9224:	30205f5f 	eorcc	r5, r0, pc, asr pc
    9228:	4d495400 	cfstrdmi	mvd5, [r9, #-0]
    922c:	41425f31 	cmpmi	r2, r1, lsr pc
    9230:	30204553 	eorcc	r4, r0, r3, asr r5
    9234:	30303478 	eorscc	r3, r0, r8, ror r4
    9238:	30433231 	subcc	r3, r3, r1, lsr r2
    923c:	45007530 	strmi	r7, [r0, #-1328]	; 0xfffffad0
    9240:	32495458 	subcc	r5, r9, #88, 8	; 0x58000000
    9244:	20324250 	eorscs	r4, r2, r0, asr r2
    9248:	54584528 	ldrbpl	r4, [r8], #-1320	; 0xfffffad8
    924c:	50475f49 	subpl	r5, r7, r9, asr #30
    9250:	4d5f4f49 	ldclmi	15, cr4, [pc, #-292]	; 9134 <_Min_Stack_Size+0x8d34>
    9254:	69707061 	ldmdbvs	r0!, {r0, r5, r6, ip, sp, lr}^
    9258:	745f676e 	ldrbvc	r6, [pc], #-1902	; 9260 <_Min_Stack_Size+0x8e60>
    925c:	58457b29 	stmdapl	r5, {r0, r3, r5, r8, r9, fp, ip, sp, lr}^
    9260:	2c324954 			; <UNDEFINED> instruction: 0x2c324954
    9264:	49504720 	ldmdbmi	r0, {r5, r8, r9, sl, lr}^
    9268:	202c424f 	eorcs	r4, ip, pc, asr #4
    926c:	4f495047 	svcmi	0x00495047
    9270:	4e49505f 	mcrmi	0, 2, r5, cr9, cr15, {2}
    9274:	202c325f 	eorcs	r3, ip, pc, asr r2
    9278:	49545845 	ldmdbmi	r4, {r0, r2, r6, fp, ip, lr}^
    927c:	52495f32 	subpl	r5, r9, #50, 30	; 0xc8
    9280:	5f007d51 	svcpl	0x00007d51
    9284:	5359535f 	cmppl	r9, #2080374785	; 0x7c000001
    9288:	434f4c5f 	movtmi	r4, #64607	; 0xfc5f
    928c:	5f485f4b 	svcpl	0x00485f4b
    9290:	5f00205f 	svcpl	0x0000205f
    9294:	736f6e5f 	cmnvc	pc, #1520	; 0x5f0
    9298:	74696e61 	strbtvc	r6, [r9], #-3681	; 0xfffff19f
    929c:	74657a69 	strbtvc	r7, [r5], #-2665	; 0xfffff597
    92a0:	61657268 	cmnvs	r5, r8, ror #4
    92a4:	5f002064 	svcpl	0x00002064
    92a8:	544e495f 	strbpl	r4, [lr], #-2399	; 0xfffff6a1
    92ac:	58414d5f 	stmdapl	r1, {r0, r1, r2, r3, r4, r6, r8, sl, fp, lr}^
    92b0:	30205f5f 	eorcc	r5, r0, pc, asr pc
    92b4:	66663778 			; <UNDEFINED> instruction: 0x66663778
    92b8:	66666666 	strbtvs	r6, [r6], -r6, ror #12
    92bc:	5f5f0066 	svcpl	0x005f0066
    92c0:	5f544e49 	svcpl	0x00544e49
    92c4:	5341454c 	movtpl	r4, #5452	; 0x154c
    92c8:	5f343654 	svcpl	0x00343654
    92cc:	45505954 	ldrbmi	r5, [r0, #-2388]	; 0xfffff6ac
    92d0:	6c205f5f 	stcvs	15, cr5, [r0], #-380	; 0xfffffe84
    92d4:	20676e6f 	rsbcs	r6, r7, pc, ror #28
    92d8:	676e6f6c 	strbvs	r6, [lr, -ip, ror #30]!
    92dc:	746e6920 	strbtvc	r6, [lr], #-2336	; 0xfffff6e0
    92e0:	54584500 	ldrbpl	r4, [r8], #-1280	; 0xfffffb00
    92e4:	50333149 	eorspl	r3, r3, r9, asr #2
    92e8:	20333144 	eorscs	r3, r3, r4, asr #2
    92ec:	54584528 	ldrbpl	r4, [r8], #-1320	; 0xfffffad8
    92f0:	50475f49 	subpl	r5, r7, r9, asr #30
    92f4:	4d5f4f49 	ldclmi	15, cr4, [pc, #-292]	; 91d8 <_Min_Stack_Size+0x8dd8>
    92f8:	69707061 	ldmdbvs	r0!, {r0, r5, r6, ip, sp, lr}^
    92fc:	745f676e 	ldrbvc	r6, [pc], #-1902	; 9304 <_Min_Stack_Size+0x8f04>
    9300:	58457b29 	stmdapl	r5, {r0, r3, r5, r8, r9, fp, ip, sp, lr}^
    9304:	33314954 	teqcc	r1, #84, 18	; 0x150000
    9308:	5047202c 	subpl	r2, r7, ip, lsr #32
    930c:	2c444f49 	mcrrcs	15, 4, r4, r4, cr9
    9310:	49504720 	ldmdbmi	r0, {r5, r8, r9, sl, lr}^
    9314:	49505f4f 	ldmdbmi	r0, {r0, r1, r2, r3, r6, r8, r9, sl, fp, ip, lr}^
    9318:	33315f4e 	teqcc	r1, #312	; 0x138
    931c:	5845202c 	stmdapl	r5, {r2, r3, r5, sp}^
    9320:	33314954 	teqcc	r1, #84, 18	; 0x150000
    9324:	5152495f 	cmppl	r2, pc, asr r9
    9328:	5f5f007d 	svcpl	0x005f007d
    932c:	5f4d5241 	svcpl	0x004d5241
    9330:	54414546 	strbpl	r4, [r1], #-1350	; 0xfffffaba
    9334:	5f455255 	svcpl	0x00455255
    9338:	5f454443 	svcpl	0x00454443
    933c:	52504f43 	subspl	r4, r0, #268	; 0x10c
    9340:	5f00434f 	svcpl	0x0000434f
    9344:	5245565f 	subpl	r5, r5, #99614720	; 0x5f00000
    9348:	4e4f4953 			; <UNDEFINED> instruction: 0x4e4f4953
    934c:	22205f5f 	eorcs	r5, r0, #380	; 0x17c
    9350:	332e3031 			; <UNDEFINED> instruction: 0x332e3031
    9354:	3220312e 	eorcc	r3, r0, #-2147483637	; 0x8000000b
    9358:	30313230 	eorscc	r3, r1, r0, lsr r2
    935c:	20343238 	eorscs	r3, r4, r8, lsr r2
    9360:	6c657228 	sfmvs	f7, 2, [r5], #-160	; 0xffffff60
    9364:	65736165 	ldrbvs	r6, [r3, #-357]!	; 0xfffffe9b
    9368:	2e002229 	cdpcs	2, 0, cr2, cr0, cr9, {1}
    936c:	74532f2e 	ldrbvc	r2, [r3], #-3886	; 0xfffff0d2
    9370:	75747261 	ldrbvc	r7, [r4, #-609]!	; 0xfffffd9f
    9374:	74732f70 	ldrbtvc	r2, [r3], #-3952	; 0xfffff090
    9378:	75747261 	ldrbvc	r7, [r4, #-609]!	; 0xfffffd9f
    937c:	74735f70 	ldrbtvc	r5, [r3], #-3952	; 0xfffff090
    9380:	6632336d 	ldrtvs	r3, [r2], -sp, ror #6
    9384:	63333031 	teqvs	r3, #49	; 0x31
    9388:	2e787436 	mrccs	4, 3, r7, cr8, cr6, {1}
    938c:	4e470073 	mcrmi	0, 2, r0, cr7, cr3, {3}
    9390:	53412055 	movtpl	r2, #4181	; 0x1055
    9394:	332e3220 			; <UNDEFINED> instruction: 0x332e3220
    9398:	00312e36 	eorseq	r2, r1, r6, lsr lr
    939c:	4c41434d 	mcrrmi	3, 4, r4, r1, cr13
    93a0:	4950475f 	ldmdbmi	r0, {r0, r1, r2, r3, r4, r6, r8, r9, sl, lr}^
    93a4:	6e495f4f 	cdpvs	15, 4, cr5, cr9, cr15, {2}
    93a8:	45007469 	strmi	r7, [r0, #-1129]	; 0xfffffb97
    93ac:	43495458 	movtmi	r5, #37976	; 0x9458
    93b0:	54460052 	strbpl	r0, [r6], #-82	; 0xffffffae
    93b4:	4d005253 	sfmmi	f5, 4, [r0, #-332]	; 0xfffffeb4
    93b8:	5f6c6163 	svcpl	0x006c6163
    93bc:	49545845 	ldmdbmi	r4, {r0, r2, r6, fp, ip, lr}^
    93c0:	4950475f 	ldmdbmi	r0, {r0, r1, r2, r3, r4, r6, r8, r9, sl, lr}^
    93c4:	70755f4f 	rsbsvc	r5, r5, pc, asr #30
    93c8:	65746164 	ldrbvs	r6, [r4, #-356]!	; 0xfffffe9c
    93cc:	53545200 	cmppl	r4, #0, 4
    93d0:	50470052 	subpl	r0, r7, r2, asr r0
    93d4:	4d5f4f49 	ldclmi	15, cr4, [pc, #-292]	; 92b8 <_Min_Stack_Size+0x8eb8>
    93d8:	0045444f 	subeq	r4, r5, pc, asr #8
    93dc:	49545845 	ldmdbmi	r4, {r0, r2, r6, fp, ip, lr}^
    93e0:	52495f34 	subpl	r5, r9, #52, 30	; 0xd0
    93e4:	6e614851 	mcrvs	8, 3, r4, cr1, cr1, {2}
    93e8:	72656c64 	rsbvc	r6, r5, #100, 24	; 0x6400
    93ec:	49464100 	stmdbmi	r6, {r8, lr}^
    93f0:	58455f4f 	stmdapl	r5, {r0, r1, r2, r3, r6, r8, r9, sl, fp, ip, lr}^
    93f4:	52434954 	subpl	r4, r3, #84, 18	; 0x150000
    93f8:	736f505f 	cmnvc	pc, #95	; 0x5f
    93fc:	6f697469 	svcvs	0x00697469
    9400:	5047006e 	subpl	r0, r7, lr, rrx
    9404:	505f4f49 	subspl	r4, pc, r9, asr #30
    9408:	6f436e69 	svcvs	0x00436e69
    940c:	6769666e 	strbvs	r6, [r9, -lr, ror #12]!
    9410:	4d00745f 	cfstrsmi	mvf7, [r0, #-380]	; 0xfffffe84
    9414:	32525041 	subscc	r5, r2, #65	; 0x41
    9418:	61634d00 	cmnvs	r3, r0, lsl #26
    941c:	58455f6c 	stmdapl	r5, {r2, r3, r5, r6, r8, r9, sl, fp, ip, lr}^
    9420:	475f4954 			; <UNDEFINED> instruction: 0x475f4954
    9424:	5f4f4950 	svcpl	0x004f4950
    9428:	6e496544 	cdpvs	5, 4, cr6, cr9, cr4, {2}
    942c:	47007469 	strmi	r7, [r0, -r9, ror #8]
    9430:	5f4f4950 	svcpl	0x004f4950
    9434:	5054554f 	subspl	r5, r4, pc, asr #10
    9438:	535f5455 	cmppl	pc, #1426063360	; 0x55000000
    943c:	44454550 	strbmi	r4, [r5], #-1360	; 0xfffffab0
    9440:	2f2e2e00 	svccs	0x002e2e00
    9444:	336d7473 	cmncc	sp, #1929379840	; 0x73000000
    9448:	31665f32 	cmncc	r6, r2, lsr pc
    944c:	36633330 			; <UNDEFINED> instruction: 0x36633330
    9450:	6972645f 	ldmdbvs	r2!, {r0, r1, r2, r3, r4, r6, sl, sp, lr}^
    9454:	73726576 	cmnvc	r2, #494927872	; 0x1d800000
    9458:	6d74732f 	ldclvs	3, cr7, [r4, #-188]!	; 0xffffff44
    945c:	665f3233 			; <UNDEFINED> instruction: 0x665f3233
    9460:	63333031 	teqvs	r3, #49	; 0x31
    9464:	72645f36 	rsbvc	r5, r4, #54, 30	; 0xd8
    9468:	72657669 	rsbvc	r7, r5, #110100480	; 0x6900000
    946c:	58455f73 	stmdapl	r5, {r0, r1, r4, r5, r6, r8, r9, sl, fp, ip, lr}^
    9470:	632e4954 			; <UNDEFINED> instruction: 0x632e4954
    9474:	51524900 	cmppl	r2, r0, lsl #18
    9478:	6d756e5f 	ldclvs	14, cr6, [r5, #-380]!	; 0xfffffe84
    947c:	49464100 	stmdbmi	r6, {r8, lr}^
    9480:	50475f4f 	subpl	r5, r7, pc, asr #30
    9484:	4d5f4f49 	ldclmi	15, cr4, [pc, #-292]	; 9368 <_Min_Stack_Size+0x8f68>
    9488:	69707061 	ldmdbvs	r0!, {r0, r5, r6, ip, sp, lr}^
    948c:	7828676e 	stmdavc	r8!, {r1, r2, r3, r5, r6, r8, r9, sl, sp, lr}
    9490:	20282029 	eorcs	r2, r8, r9, lsr #32
    9494:	3d3d7828 	ldccc	8, cr7, [sp, #-160]!	; 0xffffff60
    9498:	4f495047 	svcmi	0x00495047
    949c:	303f2941 	eorscc	r2, pc, r1, asr #18
    94a0:	7828203a 	stmdavc	r8!, {r1, r3, r4, r5, sp}
    94a4:	50473d3d 	subpl	r3, r7, sp, lsr sp
    94a8:	29424f49 	stmdbcs	r2, {r0, r3, r6, r8, r9, sl, fp, lr}^
    94ac:	203a313f 	eorscs	r3, sl, pc, lsr r1
    94b0:	3d3d7828 	ldccc	8, cr7, [sp, #-160]!	; 0xffffff60
    94b4:	4f495047 	svcmi	0x00495047
    94b8:	323f2943 	eorscc	r2, pc, #1097728	; 0x10c000
    94bc:	7828203a 	stmdavc	r8!, {r1, r3, r4, r5, sp}
    94c0:	50473d3d 	subpl	r3, r7, sp, lsr sp
    94c4:	29444f49 	stmdbcs	r4, {r0, r3, r6, r8, r9, sl, fp, lr}^
    94c8:	303a333f 	eorscc	r3, sl, pc, lsr r3
    94cc:	47002920 	strmi	r2, [r0, -r0, lsr #18]
    94d0:	52495f50 	subpl	r5, r9, #80, 30	; 0x140
    94d4:	61435f51 	cmpvs	r3, r1, asr pc
    94d8:	61426c6c 	cmpvs	r2, ip, ror #24
    94dc:	45006b63 	strmi	r6, [r0, #-2915]	; 0xfffff49d
    94e0:	5f495458 	svcpl	0x00495458
    94e4:	65707954 	ldrbvs	r7, [r0, #-2388]!	; 0xfffff6ac
    94e8:	5f666564 	svcpl	0x00666564
    94ec:	49500074 	ldmdbmi	r0, {r2, r4, r5, r6}^
    94f0:	4e4f434e 	cdpmi	3, 4, cr4, cr15, cr14, {2}
    94f4:	00474946 	subeq	r4, r7, r6, asr #18
    94f8:	45495753 	strbmi	r5, [r9, #-1875]	; 0xfffff8ad
    94fc:	414d0052 	qdaddmi	r0, r2, sp
    9500:	45005250 	strmi	r5, [r0, #-592]	; 0xfffffdb0
    9504:	32495458 	subcc	r5, r9, #88, 8	; 0x58000000
    9508:	5152495f 	cmppl	r2, pc, asr r9
    950c:	646e6148 	strbtvs	r6, [lr], #-328	; 0xfffffeb8
    9510:	0072656c 	rsbseq	r6, r2, ip, ror #10
    9514:	61647075 	smcvs	18181	; 0x4705
    9518:	455f6574 	ldrbmi	r6, [pc, #-1396]	; 8fac <_Min_Stack_Size+0x8bac>
    951c:	00495458 	subeq	r5, r9, r8, asr r4
    9520:	49545845 	ldmdbmi	r4, {r0, r2, r6, fp, ip, lr}^
    9524:	5f355f39 	svcpl	0x00355f39
    9528:	48515249 	ldmdami	r1, {r0, r3, r6, r9, ip, lr}^
    952c:	6c646e61 	stclvs	14, cr6, [r4], #-388	; 0xfffffe7c
    9530:	41007265 	tstmi	r0, r5, ror #4
    9534:	5f4f4946 	svcpl	0x004f4946
    9538:	65707954 	ldrbvs	r7, [r0, #-2388]!	; 0xfffff6ac
    953c:	5f666564 	svcpl	0x00666564
    9540:	58450074 	stmdapl	r5, {r2, r4, r5, r6}^
    9544:	705f4954 	subsvc	r4, pc, r4, asr r9	; <UNPREDICTABLE>
    9548:	6f636e69 	svcvs	0x00636e69
    954c:	6769666e 	strbvs	r6, [r9, -lr, ror #12]!
    9550:	49504700 	ldmdbmi	r0, {r8, r9, sl, lr}^
    9554:	69505f4f 	ldmdbvs	r0, {r0, r1, r2, r3, r6, r8, r9, sl, fp, ip, lr}^
    9558:	6d754e6e 	ldclvs	14, cr4, [r5, #-440]!	; 0xfffffe48
    955c:	00726562 	rsbseq	r6, r2, r2, ror #10
    9560:	49545845 	ldmdbmi	r4, {r0, r2, r6, fp, ip, lr}^
    9564:	52495f33 	subpl	r5, r9, #51, 30	; 0xcc
    9568:	6e614851 	mcrvs	8, 3, r4, cr1, cr1, {2}
    956c:	72656c64 	rsbvc	r6, r5, #100, 24	; 0x6400
    9570:	49464100 	stmdbmi	r6, {r8, lr}^
    9574:	58455f4f 	stmdapl	r5, {r0, r1, r2, r3, r6, r8, r9, sl, fp, ip, lr}^
    9578:	52434954 	subpl	r4, r3, #84, 18	; 0x150000
    957c:	646e695f 	strbtvs	r6, [lr], #-2399	; 0xfffff6a1
    9580:	45007865 	strmi	r7, [r0, #-2149]	; 0xfffff79b
    9584:	30495458 	subcc	r5, r9, r8, asr r4
    9588:	5152495f 	cmppl	r2, pc, asr r9
    958c:	646e6148 	strbtvs	r6, [lr], #-328	; 0xfffffeb8
    9590:	0072656c 	rsbseq	r6, r2, ip, ror #10
    9594:	52435645 	subpl	r5, r3, #72351744	; 0x4500000
    9598:	54584500 	ldrbpl	r4, [r8], #-1280	; 0xfffffb00
    959c:	5f353149 	svcpl	0x00353149
    95a0:	495f3031 	ldmdbmi	pc, {r0, r4, r5, ip, sp}^	; <UNPREDICTABLE>
    95a4:	61485152 	cmpvs	r8, r2, asr r1
    95a8:	656c646e 	strbvs	r6, [ip, #-1134]!	; 0xfffffb92
    95ac:	65720072 	ldrbvs	r0, [r2, #-114]!	; 0xffffff8e
    95b0:	76726573 			; <UNDEFINED> instruction: 0x76726573
    95b4:	44006465 	strmi	r6, [r0], #-1125	; 0xfffffb9b
    95b8:	62617369 	rsbvs	r7, r1, #-1543503871	; 0xa4000001
    95bc:	4e5f656c 	cdpmi	5, 5, cr6, cr15, cr12, {3}
    95c0:	00434956 	subeq	r4, r3, r6, asr r9
    95c4:	49545845 	ldmdbmi	r4, {r0, r2, r6, fp, ip, lr}^
    95c8:	52495f31 	subpl	r5, r9, #49, 30	; 0xc4
    95cc:	6e614851 	mcrvs	8, 3, r4, cr1, cr1, {2}
    95d0:	72656c64 	rsbvc	r6, r5, #100, 24	; 0x6400
    95d4:	616e4500 	cmnvs	lr, r0, lsl #10
    95d8:	5f656c62 	svcpl	0x00656c62
    95dc:	4349564e 	movtmi	r5, #38478	; 0x964e
    95e0:	2f2e2e00 	svccs	0x002e2e00
    95e4:	336d7473 	cmncc	sp, #1929379840	; 0x73000000
    95e8:	31665f32 	cmncc	r6, r2, lsr pc
    95ec:	36633330 			; <UNDEFINED> instruction: 0x36633330
    95f0:	6972645f 	ldmdbvs	r2!, {r0, r1, r2, r3, r4, r6, sl, sp, lr}^
    95f4:	73726576 	cmnvc	r2, #494927872	; 0x1d800000
    95f8:	6d74732f 	ldclvs	3, cr7, [r4, #-188]!	; 0xffffff44
    95fc:	665f3233 			; <UNDEFINED> instruction: 0x665f3233
    9600:	63333031 	teqvs	r3, #49	; 0x31
    9604:	72645f36 	rsbvc	r5, r4, #54, 30	; 0xd8
    9608:	72657669 	rsbvc	r7, r5, #110100480	; 0x6900000
    960c:	70675f73 	rsbvc	r5, r7, r3, ror pc
    9610:	632e6f69 			; <UNDEFINED> instruction: 0x632e6f69
    9614:	74654700 	strbtvc	r4, [r5], #-1792	; 0xfffff900
    9618:	4c52435f 	mrrcmi	3, 5, r4, r2, cr15
    961c:	6f505f48 	svcvs	0x00505f48
    9620:	69746973 	ldmdbvs	r4!, {r0, r1, r4, r5, r6, r8, fp, sp, lr}^
    9624:	76006e6f 	strvc	r6, [r0], -pc, ror #28
    9628:	65756c61 	ldrbvs	r6, [r5, #-3169]!	; 0xfffff39f
    962c:	6e695000 	cdpvs	0, 6, cr5, cr9, cr0, {0}
    9630:	666e6f43 	strbtvs	r6, [lr], -r3, asr #30
    9634:	4d006769 	stcmi	7, cr6, [r0, #-420]	; 0xfffffe5c
    9638:	5f4c4143 	svcpl	0x004c4143
    963c:	4f495047 	svcmi	0x00495047
    9640:	676f545f 			; <UNDEFINED> instruction: 0x676f545f
    9644:	50656c67 	rsbpl	r6, r5, r7, ror #24
    9648:	47006e69 	strmi	r6, [r0, -r9, ror #28]
    964c:	784f4950 	stmdavc	pc, {r4, r6, r8, fp, lr}^	; <UNPREDICTABLE>
    9650:	41434d00 	cmpmi	r3, r0, lsl #26
    9654:	50475f4c 	subpl	r5, r7, ip, asr #30
    9658:	525f4f49 	subspl	r4, pc, #292	; 0x124
    965c:	50646165 	rsbpl	r6, r4, r5, ror #2
    9660:	50006e69 	andpl	r6, r0, r9, ror #28
    9664:	435f4e49 	cmpmi	pc, #1168	; 0x490
    9668:	49464e4f 	stmdbmi	r6, {r0, r1, r2, r3, r6, r9, sl, fp, lr}^
    966c:	434d0047 	movtmi	r0, #53319	; 0xd047
    9670:	475f4c41 	ldrbmi	r4, [pc, -r1, asr #24]
    9674:	5f4f4950 	svcpl	0x004f4950
    9678:	74697257 	strbtvc	r7, [r9], #-599	; 0xfffffda9
    967c:	6e695065 	cdpvs	0, 6, cr5, cr9, cr5, {3}
    9680:	41434d00 	cmpmi	r3, r0, lsl #26
    9684:	50475f4c 	subpl	r5, r7, ip, asr #30
    9688:	575f4f49 	ldrbpl	r4, [pc, -r9, asr #30]
    968c:	65746972 	ldrbvs	r6, [r4, #-2418]!	; 0xfffff68e
    9690:	74726f50 	ldrbtvc	r6, [r2], #-3920	; 0xfffff0b0
    9694:	726f7000 	rsbvc	r7, pc, #0
    9698:	6c615674 	stclvs	6, cr5, [r1], #-464	; 0xfffffe30
    969c:	4d006575 	cfstr32mi	mvfx6, [r0, #-468]	; 0xfffffe2c
    96a0:	5f4c4143 	svcpl	0x004c4143
    96a4:	4f495047 	svcmi	0x00495047
    96a8:	4965445f 	stmdbmi	r5!, {r0, r1, r2, r3, r4, r6, sl, lr}^
    96ac:	0074696e 	rsbseq	r6, r4, lr, ror #18
    96b0:	4c41434d 	mcrrmi	3, 4, r4, r1, cr13
    96b4:	4950475f 	ldmdbmi	r0, {r0, r1, r2, r3, r4, r6, r8, r9, sl, lr}^
    96b8:	65525f4f 	ldrbvs	r5, [r2, #-3919]	; 0xfffff0b1
    96bc:	6f506461 	svcvs	0x00506461
    96c0:	62007472 	andvs	r7, r0, #1912602624	; 0x72000000
    96c4:	74537469 	ldrbvc	r7, [r3], #-1129	; 0xfffffb97
    96c8:	73757461 	cmnvc	r5, #1627389952	; 0x61000000
    96cc:	6e6f6300 	cdpvs	3, 6, cr6, cr15, cr0, {0}
    96d0:	52676966 	rsbpl	r6, r7, #1671168	; 0x198000
    96d4:	73696765 	cmnvc	r9, #26476544	; 0x1940000
    96d8:	00726574 	rsbseq	r6, r2, r4, ror r5

Disassembly of section .comment:

00000000 <.comment>:
   0:	3a434347 	bcc	10d0d24 <_Min_Stack_Size+0x10d0924>
   4:	4e472820 	cdpmi	8, 4, cr2, cr7, cr0, {1}
   8:	6f542055 	svcvs	0x00542055
   c:	20736c6f 	rsbscs	r6, r3, pc, ror #24
  10:	20726f66 	rsbscs	r6, r2, r6, ror #30
  14:	334d5453 	movtcc	r5, #54355	; 0xd453
  18:	30312032 	eorscc	r2, r1, r2, lsr r0
  1c:	322d332e 	eorcc	r3, sp, #-1207959552	; 0xb8000000
  20:	2e313230 	mrccs	2, 1, r3, cr1, cr0, {1}
  24:	322e3031 	eorcc	r3, lr, #49	; 0x31
  28:	31313230 	teqcc	r1, r0, lsr r2
  2c:	2d353031 	ldccs	0, cr3, [r5, #-196]!	; 0xffffff3c
  30:	30303131 	eorscc	r3, r0, r1, lsr r1
  34:	30312029 	eorscc	r2, r1, r9, lsr #32
  38:	312e332e 			; <UNDEFINED> instruction: 0x312e332e
  3c:	32303220 	eorscc	r3, r0, #32, 4
  40:	32383031 	eorscc	r3, r8, #49	; 0x31
  44:	72282034 	eorvc	r2, r8, #52	; 0x34
  48:	61656c65 	cmnvs	r5, r5, ror #24
  4c:	00296573 	eoreq	r6, r9, r3, ror r5

Disassembly of section .debug_frame:

00000000 <.debug_frame>:
   0:	0000000c 	andeq	r0, r0, ip
   4:	ffffffff 			; <UNDEFINED> instruction: 0xffffffff
   8:	7c020001 	stcvc	0, cr0, [r2], {1}
   c:	000d0c0e 	andeq	r0, sp, lr, lsl #24
  10:	0000001c 	andeq	r0, r0, ip, lsl r0
  14:	00000000 	andeq	r0, r0, r0
  18:	08000170 	stmdaeq	r0, {r4, r5, r6, r8}
  1c:	00000024 	andeq	r0, r0, r4, lsr #32
  20:	87040e41 	strhi	r0, [r4, -r1, asr #28]
  24:	070d4101 	streq	r4, [sp, -r1, lsl #2]
  28:	410d0d4a 	tstmi	sp, sl, asr #26
  2c:	00000ec7 	andeq	r0, r0, r7, asr #29
  30:	0000001c 	andeq	r0, r0, ip, lsl r0
  34:	00000000 	andeq	r0, r0, r0
  38:	08000194 	stmdaeq	r0, {r2, r4, r7, r8}
  3c:	00000074 	andeq	r0, r0, r4, ror r0
  40:	87080e41 	strhi	r0, [r8, -r1, asr #28]
  44:	41018e02 	tstmi	r1, r2, lsl #28
  48:	0d41300e 	stcleq	0, cr3, [r1, #-56]	; 0xffffffc8
  4c:	00000007 	andeq	r0, r0, r7
  50:	0000000c 	andeq	r0, r0, ip
  54:	ffffffff 			; <UNDEFINED> instruction: 0xffffffff
  58:	7c020001 	stcvc	0, cr0, [r2], {1}
  5c:	000d0c0e 	andeq	r0, sp, lr, lsl #24
  60:	00000024 	andeq	r0, r0, r4, lsr #32
  64:	00000050 	andeq	r0, r0, r0, asr r0
  68:	0800025c 	stmdaeq	r0, {r2, r3, r4, r6, r9}
  6c:	000000c8 	andeq	r0, r0, r8, asr #1
  70:	87040e41 	strhi	r0, [r4, -r1, asr #28]
  74:	100e4101 	andne	r4, lr, r1, lsl #2
  78:	02070d41 	andeq	r0, r7, #4160	; 0x1040
  7c:	41040e5a 	tstmi	r4, sl, asr lr
  80:	c7410d0d 	strbgt	r0, [r1, -sp, lsl #26]
  84:	0000000e 	andeq	r0, r0, lr
  88:	00000024 	andeq	r0, r0, r4, lsr #32
  8c:	00000050 	andeq	r0, r0, r0, asr r0
  90:	08000324 	stmdaeq	r0, {r2, r5, r8, r9}
  94:	000000c8 	andeq	r0, r0, r8, asr #1
  98:	87040e41 	strhi	r0, [r4, -r1, asr #28]
  9c:	100e4101 	andne	r4, lr, r1, lsl #2
  a0:	02070d41 	andeq	r0, r7, #4160	; 0x1040
  a4:	41040e5a 	tstmi	r4, sl, asr lr
  a8:	c7410d0d 	strbgt	r0, [r1, -sp, lsl #26]
  ac:	0000000e 	andeq	r0, r0, lr
  b0:	00000020 	andeq	r0, r0, r0, lsr #32
  b4:	00000050 	andeq	r0, r0, r0, asr r0
  b8:	080003ec 	stmdaeq	r0, {r2, r3, r5, r6, r7, r8, r9}
  bc:	000001d0 	ldrdeq	r0, [r0], -r0	; <UNPREDICTABLE>
  c0:	87080e41 	strhi	r0, [r8, -r1, asr #28]
  c4:	41018e02 	tstmi	r1, r2, lsl #28
  c8:	0d41180e 	stcleq	8, cr1, [r1, #-56]	; 0xffffffc8
  cc:	0ed50207 	cdpeq	2, 13, cr0, cr5, cr7, {0}
  d0:	0d0d4108 	stfeqs	f4, [sp, #-32]	; 0xffffffe0
  d4:	0000001c 	andeq	r0, r0, ip, lsl r0
  d8:	00000050 	andeq	r0, r0, r0, asr r0
  dc:	00000000 	andeq	r0, r0, r0
  e0:	00000094 	muleq	r0, r4, r0
  e4:	87040e41 	strhi	r0, [r4, -r1, asr #28]
  e8:	070d4101 	streq	r4, [sp, -r1, lsl #2]
  ec:	410d0d7f 	tstmi	sp, pc, ror sp
  f0:	00000ec7 	andeq	r0, r0, r7, asr #29
  f4:	00000020 	andeq	r0, r0, r0, lsr #32
  f8:	00000050 	andeq	r0, r0, r0, asr r0
  fc:	00000000 	andeq	r0, r0, r0
 100:	00000016 	andeq	r0, r0, r6, lsl r0
 104:	87080e41 	strhi	r0, [r8, -r1, asr #28]
 108:	41018e02 	tstmi	r1, r2, lsl #28
 10c:	0d41100e 	stcleq	0, cr1, [r1, #-56]	; 0xffffffc8
 110:	080e4607 	stmdaeq	lr, {r0, r1, r2, r9, sl, lr}
 114:	000d0d41 	andeq	r0, sp, r1, asr #26
 118:	00000020 	andeq	r0, r0, r0, lsr #32
 11c:	00000050 	andeq	r0, r0, r0, asr r0
 120:	080005bc 	stmdaeq	r0, {r2, r3, r4, r5, r7, r8, sl}
 124:	00000016 	andeq	r0, r0, r6, lsl r0
 128:	87080e41 	strhi	r0, [r8, -r1, asr #28]
 12c:	41018e02 	tstmi	r1, r2, lsl #28
 130:	0d41100e 	stcleq	0, cr1, [r1, #-56]	; 0xffffffc8
 134:	080e4607 	stmdaeq	lr, {r0, r1, r2, r9, sl, lr}
 138:	000d0d41 	andeq	r0, sp, r1, asr #26
 13c:	00000018 	andeq	r0, r0, r8, lsl r0
 140:	00000050 	andeq	r0, r0, r0, asr r0
 144:	080005d4 	stmdaeq	r0, {r2, r4, r6, r7, r8, sl}
 148:	00000024 	andeq	r0, r0, r4, lsr #32
 14c:	87080e41 	strhi	r0, [r8, -r1, asr #28]
 150:	41018e02 	tstmi	r1, r2, lsl #28
 154:	0000070d 	andeq	r0, r0, sp, lsl #14
 158:	00000018 	andeq	r0, r0, r8, lsl r0
 15c:	00000050 	andeq	r0, r0, r0, asr r0
 160:	080005f8 	stmdaeq	r0, {r3, r4, r5, r6, r7, r8, sl}
 164:	00000024 	andeq	r0, r0, r4, lsr #32
 168:	87080e41 	strhi	r0, [r8, -r1, asr #28]
 16c:	41018e02 	tstmi	r1, r2, lsl #28
 170:	0000070d 	andeq	r0, r0, sp, lsl #14
 174:	00000018 	andeq	r0, r0, r8, lsl r0
 178:	00000050 	andeq	r0, r0, r0, asr r0
 17c:	0800061c 	stmdaeq	r0, {r2, r3, r4, r9, sl}
 180:	00000024 	andeq	r0, r0, r4, lsr #32
 184:	87080e41 	strhi	r0, [r8, -r1, asr #28]
 188:	41018e02 	tstmi	r1, r2, lsl #28
 18c:	0000070d 	andeq	r0, r0, sp, lsl #14
 190:	00000018 	andeq	r0, r0, r8, lsl r0
 194:	00000050 	andeq	r0, r0, r0, asr r0
 198:	08000640 	stmdaeq	r0, {r6, r9, sl}
 19c:	00000024 	andeq	r0, r0, r4, lsr #32
 1a0:	87080e41 	strhi	r0, [r8, -r1, asr #28]
 1a4:	41018e02 	tstmi	r1, r2, lsl #28
 1a8:	0000070d 	andeq	r0, r0, sp, lsl #14
 1ac:	00000018 	andeq	r0, r0, r8, lsl r0
 1b0:	00000050 	andeq	r0, r0, r0, asr r0
 1b4:	08000664 	stmdaeq	r0, {r2, r5, r6, r9, sl}
 1b8:	00000024 	andeq	r0, r0, r4, lsr #32
 1bc:	87080e41 	strhi	r0, [r8, -r1, asr #28]
 1c0:	41018e02 	tstmi	r1, r2, lsl #28
 1c4:	0000070d 	andeq	r0, r0, sp, lsl #14
 1c8:	00000018 	andeq	r0, r0, r8, lsl r0
 1cc:	00000050 	andeq	r0, r0, r0, asr r0
 1d0:	08000688 	stmdaeq	r0, {r3, r7, r9, sl}
 1d4:	000000a8 	andeq	r0, r0, r8, lsr #1
 1d8:	87080e41 	strhi	r0, [r8, -r1, asr #28]
 1dc:	41018e02 	tstmi	r1, r2, lsl #28
 1e0:	0000070d 	andeq	r0, r0, sp, lsl #14
 1e4:	00000018 	andeq	r0, r0, r8, lsl r0
 1e8:	00000050 	andeq	r0, r0, r0, asr r0
 1ec:	08000730 	stmdaeq	r0, {r4, r5, r8, r9, sl}
 1f0:	000000c4 	andeq	r0, r0, r4, asr #1
 1f4:	87080e41 	strhi	r0, [r8, -r1, asr #28]
 1f8:	41018e02 	tstmi	r1, r2, lsl #28
 1fc:	0000070d 	andeq	r0, r0, sp, lsl #14
 200:	0000000c 	andeq	r0, r0, ip
 204:	ffffffff 			; <UNDEFINED> instruction: 0xffffffff
 208:	7c020001 	stcvc	0, cr0, [r2], {1}
 20c:	000d0c0e 	andeq	r0, sp, lr, lsl #24
 210:	00000024 	andeq	r0, r0, r4, lsr #32
 214:	00000200 	andeq	r0, r0, r0, lsl #4
 218:	080007f4 	stmdaeq	r0, {r2, r4, r5, r6, r7, r8, r9, sl}
 21c:	0000016e 	andeq	r0, r0, lr, ror #2
 220:	87040e41 	strhi	r0, [r4, -r1, asr #28]
 224:	100e4101 	andne	r4, lr, r1, lsl #2
 228:	02070d41 	andeq	r0, r7, #4160	; 0x1040
 22c:	41040eb1 			; <UNDEFINED> instruction: 0x41040eb1
 230:	c7410d0d 	strbgt	r0, [r1, -sp, lsl #26]
 234:	0000000e 	andeq	r0, r0, lr
 238:	00000024 	andeq	r0, r0, r4, lsr #32
 23c:	00000200 	andeq	r0, r0, r0, lsl #4
 240:	08000964 	stmdaeq	r0, {r2, r5, r6, r8, fp}
 244:	000000f8 	strdeq	r0, [r0], -r8
 248:	840c0e41 	strhi	r0, [ip], #-3649	; 0xfffff1bf
 24c:	8e028703 	cdphi	7, 0, cr8, cr2, cr3, {0}
 250:	200e4101 	andcs	r4, lr, r1, lsl #2
 254:	02070d41 	andeq	r0, r7, #4160	; 0x1040
 258:	410c0e77 	tstmi	ip, r7, ror lr
 25c:	00000d0d 	andeq	r0, r0, sp, lsl #26
 260:	00000024 	andeq	r0, r0, r4, lsr #32
 264:	00000200 	andeq	r0, r0, r0, lsl #4
 268:	00000000 	andeq	r0, r0, r0
 26c:	000000cc 	andeq	r0, r0, ip, asr #1
 270:	87040e41 	strhi	r0, [r4, -r1, asr #28]
 274:	100e4101 	andne	r4, lr, r1, lsl #2
 278:	02070d41 	andeq	r0, r7, #4160	; 0x1040
 27c:	41040e53 	tstmi	r4, r3, asr lr
 280:	c7410d0d 	strbgt	r0, [r1, -sp, lsl #26]
 284:	0000000e 	andeq	r0, r0, lr
 288:	00000024 	andeq	r0, r0, r4, lsr #32
 28c:	00000200 	andeq	r0, r0, r0, lsl #4
 290:	00000000 	andeq	r0, r0, r0
 294:	0000002e 	andeq	r0, r0, lr, lsr #32
 298:	87040e41 	strhi	r0, [r4, -r1, asr #28]
 29c:	180e4101 	stmdane	lr, {r0, r8, lr}
 2a0:	51070d41 	tstpl	r7, r1, asr #26
 2a4:	0d41040e 	cfstrdeq	mvd0, [r1, #-56]	; 0xffffffc8
 2a8:	0ec7410d 	poleqs	f4, f7, #5.0
 2ac:	00000000 	andeq	r0, r0, r0
 2b0:	00000024 	andeq	r0, r0, r4, lsr #32
 2b4:	00000200 	andeq	r0, r0, r0, lsl #4
 2b8:	00000000 	andeq	r0, r0, r0
 2bc:	0000001a 	andeq	r0, r0, sl, lsl r0
 2c0:	87040e41 	strhi	r0, [r4, -r1, asr #28]
 2c4:	180e4101 	stmdane	lr, {r0, r8, lr}
 2c8:	47070d41 	strmi	r0, [r7, -r1, asr #26]
 2cc:	0d41040e 	cfstrdeq	mvd0, [r1, #-56]	; 0xffffffc8
 2d0:	0ec7410d 	poleqs	f4, f7, #5.0
 2d4:	00000000 	andeq	r0, r0, r0
 2d8:	00000024 	andeq	r0, r0, r4, lsr #32
 2dc:	00000200 	andeq	r0, r0, r0, lsl #4
 2e0:	00000000 	andeq	r0, r0, r0
 2e4:	0000001c 	andeq	r0, r0, ip, lsl r0
 2e8:	87040e41 	strhi	r0, [r4, -r1, asr #28]
 2ec:	100e4101 	andne	r4, lr, r1, lsl #2
 2f0:	48070d41 	stmdami	r7, {r0, r6, r8, sl, fp}
 2f4:	0d41040e 	cfstrdeq	mvd0, [r1, #-56]	; 0xffffffc8
 2f8:	0ec7410d 	poleqs	f4, f7, #5.0
 2fc:	00000000 	andeq	r0, r0, r0
 300:	00000024 	andeq	r0, r0, r4, lsr #32
 304:	00000200 	andeq	r0, r0, r0, lsl #4
 308:	00000000 	andeq	r0, r0, r0
 30c:	0000002e 	andeq	r0, r0, lr, lsr #32
 310:	87040e41 	strhi	r0, [r4, -r1, asr #28]
 314:	100e4101 	andne	r4, lr, r1, lsl #2
 318:	51070d41 	tstpl	r7, r1, asr #26
 31c:	0d41040e 	cfstrdeq	mvd0, [r1, #-56]	; 0xffffffc8
 320:	0ec7410d 	poleqs	f4, f7, #5.0
 324:	00000000 	andeq	r0, r0, r0
 328:	00000024 	andeq	r0, r0, r4, lsr #32
 32c:	00000200 	andeq	r0, r0, r0, lsl #4
 330:	00000000 	andeq	r0, r0, r0
 334:	00000022 	andeq	r0, r0, r2, lsr #32
 338:	87040e41 	strhi	r0, [r4, -r1, asr #28]
 33c:	100e4101 	andne	r4, lr, r1, lsl #2
 340:	4b070d41 	blmi	1c384c <_Min_Stack_Size+0x1c344c>
 344:	0d41040e 	cfstrdeq	mvd0, [r1, #-56]	; 0xffffffc8
 348:	0ec7410d 	poleqs	f4, f7, #5.0
 34c:	00000000 	andeq	r0, r0, r0
 350:	0000000c 	andeq	r0, r0, ip
 354:	ffffffff 			; <UNDEFINED> instruction: 0xffffffff
 358:	7c020001 	stcvc	0, cr0, [r2], {1}
 35c:	000d0c0e 	andeq	r0, sp, lr, lsl #24
 360:	00000018 	andeq	r0, r0, r8, lsl r0
 364:	00000350 	andeq	r0, r0, r0, asr r3
 368:	08000a5c 	stmdaeq	r0, {r2, r3, r4, r6, r9, fp}
 36c:	00000048 	andeq	r0, r0, r8, asr #32
 370:	84100e41 	ldrhi	r0, [r0], #-3649	; 0xfffff1bf
 374:	86038504 	strhi	r8, [r3], -r4, lsl #10
 378:	00018e02 	andeq	r8, r1, r2, lsl #28
